PARTICIPANT_ID	TEST_SECTION_ID	SENTENCE	USER_INPUT	KEYSTROKE_ID	PRESS_TIME	RELEASE_TIME	LETTER	KEYCODE
6486	69715	But we should pay them the 4500.	But we should pay them the 4500	3315944	1472003542105	1472003542433	SHIFT	16
6486	69715	But we should pay them the 4500.	But we should pay them the 4500	3315946	1472003542315	1472003542440	B	66
6486	69715	But we should pay them the 4500.	But we should pay them the 4500	3315949	1472003542571	1472003542675	u	85
6486	69715	But we should pay them the 4500.	But we should pay them the 4500	3315951	1472003542705	1472003542815	t	84
6486	69715	But we should pay them the 4500.	But we should pay them the 4500	3315954	1472003543090	1472003543189	 	32
6486	69715	But we should pay them the 4500.	But we should pay them the 4500	3315957	1472003544180	1472003544303	w	87
6486	69715	But we should pay them the 4500.	But we should pay them the 4500	3316012	1472003544264	1472003544393	e	69
6486	69715	But we should pay them the 4500.	But we should pay them the 4500	3316016	1472003544445	1472003544544	 	32
6486	69715	But we should pay them the 4500.	But we should pay them the 4500	3316021	1472003544904	1472003545013	s	83
6486	69715	But we should pay them the 4500.	But we should pay them the 4500	3316025	1472003545183	1472003545324	h	72
6486	69715	But we should pay them the 4500.	But we should pay them the 4500	3316031	1472003545464	1472003545583	o	79
6486	69715	But we should pay them the 4500.	But we should pay them the 4500	3316033	1472003545729	1472003545804	u	85
6486	69715	But we should pay them the 4500.	But we should pay them the 4500	3316123	1472003546038	1472003546132	l	76
6486	69715	But we should pay them the 4500.	But we should pay them the 4500	3316126	1472003546163	1472003546278	d	68
6486	69715	But we should pay them the 4500.	But we should pay them the 4500	3316129	1472003546288	1472003546383	 	32
6486	69715	But we should pay them the 4500.	But we should pay them the 4500	3316132	1472003547452	1472003547566	p	80
6486	69715	But we should pay them the 4500.	But we should pay them the 4500	3316137	1472003547571	1472003547707	a	65
6486	69715	But we should pay them the 4500.	But we should pay them the 4500	3316238	1472003548133	1472003548248	y	89
6486	69715	But we should pay them the 4500.	But we should pay them the 4500	3316241	1472003548436	1472003548582	 	32
6486	69715	But we should pay them the 4500.	But we should pay them the 4500	3316246	1472003549172	1472003549291	t	84
6486	69715	But we should pay them the 4500.	But we should pay them the 4500	3316250	1472003549271	1472003549373	h	72
6486	69715	But we should pay them the 4500.	But we should pay them the 4500	3316254	1472003549572	1472003549676	e	69
6486	69715	But we should pay them the 4500.	But we should pay them the 4500	3316299	1472003549732	1472003549841	m	77
6486	69715	But we should pay them the 4500.	But we should pay them the 4500	3316303	1472003549952	1472003550026	 	32
6486	69715	But we should pay them the 4500.	But we should pay them the 4500	3316307	1472003550526	1472003550651	t	84
6486	69715	But we should pay them the 4500.	But we should pay them the 4500	3316312	1472003550612	1472003550732	h	72
6486	69715	But we should pay them the 4500.	But we should pay them the 4500	3316316	1472003550841	1472003550981	e	69
6486	69715	But we should pay them the 4500.	But we should pay them the 4500	3316400	1472003551017	1472003551106	 	32
6486	69715	But we should pay them the 4500.	But we should pay them the 4500	3316403	1472003552026	1472003552140	4	52
6486	69715	But we should pay them the 4500.	But we should pay them the 4500	3316409	1472003552255	1472003552365	5	53
6486	69715	But we should pay them the 4500.	But we should pay them the 4500	3316414	1472003552595	1472003552681	0	48
6486	69715	But we should pay them the 4500.	But we should pay them the 4500	3316420	1472003552750	1472003552885	0	48
6486	69732	I will bring John Brindle.	I will bring John Brindle.	3316652	1472003555719	1472003556083	SHIFT	16
6486	69732	I will bring John Brindle.	I will bring John Brindle.	3316648	1472003555903	1472003556038	I	73
6486	69732	I will bring John Brindle.	I will bring John Brindle.	3316656	1472003556339	1472003556409	 	32
6486	69732	I will bring John Brindle.	I will bring John Brindle.	3316659	1472003556494	1472003556608	w	87
6486	69732	I will bring John Brindle.	I will bring John Brindle.	3316662	1472003556651	1472003556768	i	73
6486	69732	I will bring John Brindle.	I will bring John Brindle.	3316665	1472003556945	1472003556999	l	76
6486	69732	I will bring John Brindle.	I will bring John Brindle.	3316751	1472003557073	1472003557158	l	76
6486	69732	I will bring John Brindle.	I will bring John Brindle.	3316757	1472003557318	1472003557378	 	32
6486	69732	I will bring John Brindle.	I will bring John Brindle.	3316764	1472003558092	1472003558158	b	66
6486	69732	I will bring John Brindle.	I will bring John Brindle.	3316771	1472003558393	1472003558498	r	82
6486	69732	I will bring John Brindle.	I will bring John Brindle.	3316778	1472003558538	1472003558669	i	73
6486	69732	I will bring John Brindle.	I will bring John Brindle.	3316892	1472003558803	1472003558953	n	78
6486	69732	I will bring John Brindle.	I will bring John Brindle.	3316896	1472003559092	1472003559202	g	71
6486	69732	I will bring John Brindle.	I will bring John Brindle.	3316901	1472003559337	1472003559466	 	32
6486	69732	I will bring John Brindle.	I will bring John Brindle.	3316908	1472003559942	1472003560541	SHIFT	16
6486	69732	I will bring John Brindle.	I will bring John Brindle.	3316905	1472003560422	1472003560498	J	74
6486	69732	I will bring John Brindle.	I will bring John Brindle.	3316910	1472003560986	1472003561103	o	79
6486	69732	I will bring John Brindle.	I will bring John Brindle.	3316977	1472003561284	1472003561366	h	72
6486	69732	I will bring John Brindle.	I will bring John Brindle.	3316979	1472003561456	1472003561547	n	78
6486	69732	I will bring John Brindle.	I will bring John Brindle.	3316983	1472003561615	1472003561716	 	32
6486	69732	I will bring John Brindle.	I will bring John Brindle.	3316992	1472003562131	1472003562456	SHIFT	16
6486	69732	I will bring John Brindle.	I will bring John Brindle.	3316988	1472003562341	1472003562406	B	66
6486	69732	I will bring John Brindle.	I will bring John Brindle.	3316997	1472003562777	1472003562871	r	82
6486	69732	I will bring John Brindle.	I will bring John Brindle.	3317053	1472003562941	1472003563040	i	73
6486	69732	I will bring John Brindle.	I will bring John Brindle.	3317056	1472003563156	1472003563255	n	78
6486	69732	I will bring John Brindle.	I will bring John Brindle.	3317060	1472003563640	1472003563746	d	68
6486	69732	I will bring John Brindle.	I will bring John Brindle.	3317063	1472003563869	1472003563964	l	76
6486	69732	I will bring John Brindle.	I will bring John Brindle.	3317068	1472003564224	1472003564340	e	69
6486	69732	I will bring John Brindle.	I will bring John Brindle.	3317110	1472003564550	1472003564614	.	190
6486	69750	I forgot one person when we spoke on Friday.	I forgot oone person when we spoke last friday	3317721	1472003569247	1472003569577	SHIFT	16
6486	69750	I forgot one person when we spoke on Friday.	I forgot oone person when we spoke last friday	3317716	1472003569439	1472003569552	I	73
6486	69750	I forgot one person when we spoke on Friday.	I forgot oone person when we spoke last friday	3317726	1472003569722	1472003569832	 	32
6486	69750	I forgot one person when we spoke on Friday.	I forgot oone person when we spoke last friday	3317732	1472003570568	1472003570676	f	70
6486	69750	I forgot one person when we spoke on Friday.	I forgot oone person when we spoke last friday	3317739	1472003570682	1472003570815	o	79
6486	69750	I forgot one person when we spoke on Friday.	I forgot oone person when we spoke last friday	3317744	1472003570822	1472003570931	r	82
6486	69750	I forgot one person when we spoke on Friday.	I forgot oone person when we spoke last friday	3317715	1472003571177	1472003571256	g	71
6486	69750	I forgot one person when we spoke on Friday.	I forgot oone person when we spoke last friday	3317722	1472003571657	1472003571792	o	79
6486	69750	I forgot one person when we spoke on Friday.	I forgot oone person when we spoke last friday	3317727	1472003571862	1472003572001	t	84
6486	69750	I forgot one person when we spoke on Friday.	I forgot oone person when we spoke last friday	3317733	1472003571976	1472003572071	 	32
6486	69750	I forgot one person when we spoke on Friday.	I forgot oone person when we spoke last friday	3317740	1472003572587	1472003572641	o	79
6486	69750	I forgot one person when we spoke on Friday.	I forgot oone person when we spoke last friday	3317756	1472003572696	1472003572761	o	79
6486	69750	I forgot one person when we spoke on Friday.	I forgot oone person when we spoke last friday	3317762	1472003572877	1472003572978	n	78
6486	69750	I forgot one person when we spoke on Friday.	I forgot oone person when we spoke last friday	3317767	1472003572991	1472003573116	e	69
6486	69750	I forgot one person when we spoke on Friday.	I forgot oone person when we spoke last friday	3317773	1472003573081	1472003573184	 	32
6486	69750	I forgot one person when we spoke on Friday.	I forgot oone person when we spoke last friday	3317778	1472003573795	1472003573956	p	80
6486	69750	I forgot one person when we spoke on Friday.	I forgot oone person when we spoke last friday	3317811	1472003573985	1472003574086	e	69
6486	69750	I forgot one person when we spoke on Friday.	I forgot oone person when we spoke last friday	3317817	1472003574195	1472003574300	r	82
6486	69750	I forgot one person when we spoke on Friday.	I forgot oone person when we spoke last friday	3317820	1472003574400	1472003574530	s	83
6486	69750	I forgot one person when we spoke on Friday.	I forgot oone person when we spoke last friday	3317823	1472003574460	1472003574565	o	79
6486	69750	I forgot one person when we spoke on Friday.	I forgot oone person when we spoke last friday	3317827	1472003574716	1472003574828	n	78
6486	69750	I forgot one person when we spoke on Friday.	I forgot oone person when we spoke last friday	3317883	1472003574921	1472003575015	 	32
6486	69750	I forgot one person when we spoke on Friday.	I forgot oone person when we spoke last friday	3317886	1472003575624	1472003575749	w	87
6486	69750	I forgot one person when we spoke on Friday.	I forgot oone person when we spoke last friday	3317889	1472003575721	1472003575825	h	72
6486	69750	I forgot one person when we spoke on Friday.	I forgot oone person when we spoke last friday	3317891	1472003575830	1472003575951	e	69
6486	69750	I forgot one person when we spoke on Friday.	I forgot oone person when we spoke last friday	3317894	1472003575960	1472003576049	n	78
6486	69750	I forgot one person when we spoke on Friday.	I forgot oone person when we spoke last friday	3317987	1472003576149	1472003576249	 	32
6486	69750	I forgot one person when we spoke on Friday.	I forgot oone person when we spoke last friday	3317993	1472003576869	1472003576995	w	87
6486	69750	I forgot one person when we spoke on Friday.	I forgot oone person when we spoke last friday	3317999	1472003577034	1472003577164	e	69
6486	69750	I forgot one person when we spoke on Friday.	I forgot oone person when we spoke last friday	3318008	1472003577176	1472003577263	 	32
6486	69750	I forgot one person when we spoke on Friday.	I forgot oone person when we spoke last friday	3318013	1472003577478	1472003577604	s	83
6486	69750	I forgot one person when we spoke on Friday.	I forgot oone person when we spoke last friday	3318055	1472003577739	1472003577863	p	80
6486	69750	I forgot one person when we spoke on Friday.	I forgot oone person when we spoke last friday	3318060	1472003577919	1472003578034	o	79
6486	69750	I forgot one person when we spoke on Friday.	I forgot oone person when we spoke last friday	3318065	1472003578143	1472003578229	k	75
6486	69750	I forgot one person when we spoke on Friday.	I forgot oone person when we spoke last friday	3318072	1472003578284	1472003578388	e	69
6486	69750	I forgot one person when we spoke on Friday.	I forgot oone person when we spoke last friday	3318080	1472003578419	1472003578473	 	32
6486	69750	I forgot one person when we spoke on Friday.	I forgot oone person when we spoke last friday	3318134	1472003578678	1472003578793	l	76
6486	69750	I forgot one person when we spoke on Friday.	I forgot oone person when we spoke last friday	3318141	1472003578853	1472003578989	a	65
6486	69750	I forgot one person when we spoke on Friday.	I forgot oone person when we spoke last friday	3318147	1472003579051	1472003579187	s	83
6486	69750	I forgot one person when we spoke on Friday.	I forgot oone person when we spoke last friday	3318152	1472003579348	1472003579468	t	84
6486	69750	I forgot one person when we spoke on Friday.	I forgot oone person when we spoke last friday	3318294	1472003579444	1472003579542	 	32
6486	69750	I forgot one person when we spoke on Friday.	I forgot oone person when we spoke last friday	3318295	1472003580092	1472003580208	f	70
6486	69750	I forgot one person when we spoke on Friday.	I forgot oone person when we spoke last friday	3318297	1472003580333	1472003580438	r	82
6486	69750	I forgot one person when we spoke on Friday.	I forgot oone person when we spoke last friday	3318300	1472003580513	1472003580612	o	79
6486	69750	I forgot one person when we spoke on Friday.	I forgot oone person when we spoke last friday	3318303	1472003580828	1472003580967	BKSP	8
6486	69750	I forgot one person when we spoke on Friday.	I forgot oone person when we spoke last friday	3318306	1472003581078	1472003581192	i	73
6486	69750	I forgot one person when we spoke on Friday.	I forgot oone person when we spoke last friday	3318308	1472003581332	1472003581507	d	68
6486	69750	I forgot one person when we spoke on Friday.	I forgot oone person when we spoke last friday	3318336	1472003581587	1472003581702	a	65
6486	69750	I forgot one person when we spoke on Friday.	I forgot oone person when we spoke last friday	3318341	1472003581888	1472003582023	y	89
6486	69768	Does Friday at 10 work for you?	Does friday at ten work for you	3318618	1472003586807	1472003587150	SHIFT	16
6486	69768	Does Friday at 10 work for you?	Does friday at ten work for you	3318615	1472003587015	1472003587140	D	68
6486	69768	Does Friday at 10 work for you?	Does friday at ten work for you	3318622	1472003587180	1472003587289	o	79
6486	69768	Does Friday at 10 work for you?	Does friday at ten work for you	3318626	1472003587410	1472003587514	e	69
6486	69768	Does Friday at 10 work for you?	Does friday at ten work for you	3318631	1472003587616	1472003587744	s	83
6486	69768	Does Friday at 10 work for you?	Does friday at ten work for you	3318636	1472003588083	1472003588189	 	32
6486	69768	Does Friday at 10 work for you?	Does friday at ten work for you	3318766	1472003588814	1472003588904	f	70
6486	69768	Does Friday at 10 work for you?	Does friday at ten work for you	3318770	1472003589079	1472003589168	r	82
6486	69768	Does Friday at 10 work for you?	Does friday at ten work for you	3318772	1472003589183	1472003589284	i	73
6486	69768	Does Friday at 10 work for you?	Does friday at ten work for you	3318774	1472003589649	1472003589822	d	68
6486	69768	Does Friday at 10 work for you?	Does friday at ten work for you	3318846	1472003589768	1472003589898	a	65
6486	69768	Does Friday at 10 work for you?	Does friday at ten work for you	3318850	1472003589873	1472003589993	y	89
6486	69768	Does Friday at 10 work for you?	Does friday at ten work for you	3318857	1472003590159	1472003590262	 	32
6486	69768	Does Friday at 10 work for you?	Does friday at ten work for you	3318865	1472003590384	1472003590518	a	65
6486	69768	Does Friday at 10 work for you?	Does friday at ten work for you	3318872	1472003590798	1472003590918	t	84
6486	69768	Does Friday at 10 work for you?	Does friday at ten work for you	3318876	1472003590932	1472003591036	 	32
6486	69768	Does Friday at 10 work for you?	Does friday at ten work for you	3318936	1472003591288	1472003591419	t	84
6486	69768	Does Friday at 10 work for you?	Does friday at ten work for you	3318939	1472003591613	1472003591737	e	69
6486	69768	Does Friday at 10 work for you?	Does friday at ten work for you	3318944	1472003591722	1472003591793	n	78
6486	69768	Does Friday at 10 work for you?	Does friday at ten work for you	3318948	1472003591894	1472003591986	 	32
6486	69768	Does Friday at 10 work for you?	Does friday at ten work for you	3318950	1472003592463	1472003592591	w	87
6486	69768	Does Friday at 10 work for you?	Does friday at ten work for you	3319039	1472003592596	1472003592706	o	79
6486	69768	Does Friday at 10 work for you?	Does friday at ten work for you	3319042	1472003592962	1472003593126	r	82
6486	69768	Does Friday at 10 work for you?	Does friday at ten work for you	3319046	1472003593242	1472003593371	k	75
6486	69768	Does Friday at 10 work for you?	Does friday at ten work for you	3319051	1472003593512	1472003593616	 	32
6486	69768	Does Friday at 10 work for you?	Does friday at ten work for you	3319055	1472003594241	1472003594335	f	70
6486	69768	Does Friday at 10 work for you?	Does friday at ten work for you	3319149	1472003594302	1472003594426	o	79
6486	69768	Does Friday at 10 work for you?	Does friday at ten work for you	3319156	1472003594535	1472003594650	r	82
6486	69768	Does Friday at 10 work for you?	Does friday at ten work for you	3319164	1472003594716	1472003594860	 	32
6486	69768	Does Friday at 10 work for you?	Does friday at ten work for you	3319169	1472003595640	1472003595761	y	89
6486	69768	Does Friday at 10 work for you?	Does friday at ten work for you	3319175	1472003595880	1472003595980	o	79
6486	69768	Does Friday at 10 work for you?	Does friday at ten work for you	3319183	1472003596085	1472003596195	u	85
6486	69791	The alleged offences occurred before Alan Sugar took control.	the alleged offences occurred before alan sugar took control	3319591	1472003602283	1472003602397	t	84
6486	69791	The alleged offences occurred before Alan Sugar took control.	the alleged offences occurred before alan sugar took control	3319592	1472003602357	1472003602497	h	72
6486	69791	The alleged offences occurred before Alan Sugar took control.	the alleged offences occurred before alan sugar took control	3319593	1472003602502	1472003602633	e	69
6486	69791	The alleged offences occurred before Alan Sugar took control.	the alleged offences occurred before alan sugar took control	3319594	1472003602577	1472003602727	 	32
6486	69791	The alleged offences occurred before Alan Sugar took control.	the alleged offences occurred before alan sugar took control	3319595	1472003603172	1472003603324	a	65
6486	69791	The alleged offences occurred before Alan Sugar took control.	the alleged offences occurred before alan sugar took control	3319700	1472003603511	1472003603561	l	76
6486	69791	The alleged offences occurred before Alan Sugar took control.	the alleged offences occurred before alan sugar took control	3319703	1472003603636	1472003603732	l	76
6486	69791	The alleged offences occurred before Alan Sugar took control.	the alleged offences occurred before alan sugar took control	3319705	1472003603817	1472003603917	e	69
6486	69791	The alleged offences occurred before Alan Sugar took control.	the alleged offences occurred before alan sugar took control	3319708	1472003604885	1472003604986	g	71
6486	69791	The alleged offences occurred before Alan Sugar took control.	the alleged offences occurred before alan sugar took control	3319712	1472003605066	1472003605182	e	69
6486	69791	The alleged offences occurred before Alan Sugar took control.	the alleged offences occurred before alan sugar took control	3320001	1472003605270	1472003605395	d	68
6486	69791	The alleged offences occurred before Alan Sugar took control.	the alleged offences occurred before alan sugar took control	3320006	1472003605364	1472003605471	 	32
6486	69791	The alleged offences occurred before Alan Sugar took control.	the alleged offences occurred before alan sugar took control	3320013	1472003606131	1472003606240	o	79
6486	69791	The alleged offences occurred before Alan Sugar took control.	the alleged offences occurred before alan sugar took control	3320020	1472003606465	1472003606545	f	70
6486	69791	The alleged offences occurred before Alan Sugar took control.	the alleged offences occurred before alan sugar took control	3320026	1472003606649	1472003606775	f	70
6486	69791	The alleged offences occurred before Alan Sugar took control.	the alleged offences occurred before alan sugar took control	3320000	1472003606881	1472003607006	e	69
6486	69791	The alleged offences occurred before Alan Sugar took control.	the alleged offences occurred before alan sugar took control	3320007	1472003607010	1472003607100	n	78
6486	69791	The alleged offences occurred before Alan Sugar took control.	the alleged offences occurred before alan sugar took control	3320014	1472003607505	1472003607624	c	67
6486	69791	The alleged offences occurred before Alan Sugar took control.	the alleged offences occurred before alan sugar took control	3320021	1472003607790	1472003607899	e	69
6486	69791	The alleged offences occurred before Alan Sugar took control.	the alleged offences occurred before alan sugar took control	3320025	1472003608039	1472003608169	s	83
6486	69791	The alleged offences occurred before Alan Sugar took control.	the alleged offences occurred before alan sugar took control	3320157	1472003608173	1472003608278	 	32
6486	69791	The alleged offences occurred before Alan Sugar took control.	the alleged offences occurred before alan sugar took control	3320161	1472003609294	1472003609384	o	79
6486	69791	The alleged offences occurred before Alan Sugar took control.	the alleged offences occurred before alan sugar took control	3320165	1472003610128	1472003610228	c	67
6486	69791	The alleged offences occurred before Alan Sugar took control.	the alleged offences occurred before alan sugar took control	3320169	1472003610377	1472003610399	c	67
6486	69791	The alleged offences occurred before Alan Sugar took control.	the alleged offences occurred before alan sugar took control	3320174	1472003611938	1472003612028	u	85
6486	69791	The alleged offences occurred before Alan Sugar took control.	the alleged offences occurred before alan sugar took control	3320206	1472003612164	1472003612202	r	82
6486	69791	The alleged offences occurred before Alan Sugar took control.	the alleged offences occurred before alan sugar took control	3320210	1472003612275	1472003612391	r	82
6486	69791	The alleged offences occurred before Alan Sugar took control.	the alleged offences occurred before alan sugar took control	3320217	1472003612427	1472003612603	e	69
6486	69791	The alleged offences occurred before Alan Sugar took control.	the alleged offences occurred before alan sugar took control	3320221	1472003612607	1472003612702	d	68
6486	69791	The alleged offences occurred before Alan Sugar took control.	the alleged offences occurred before alan sugar took control	3320345	1472003612687	1472003612803	 	32
6486	69791	The alleged offences occurred before Alan Sugar took control.	the alleged offences occurred before alan sugar took control	3320347	1472003613332	1472003613418	b	66
6486	69791	The alleged offences occurred before Alan Sugar took control.	the alleged offences occurred before alan sugar took control	3320350	1472003613452	1472003613567	e	69
6486	69791	The alleged offences occurred before Alan Sugar took control.	the alleged offences occurred before alan sugar took control	3320354	1472003613932	1472003614021	f	70
6486	69791	The alleged offences occurred before Alan Sugar took control.	the alleged offences occurred before alan sugar took control	3320357	1472003614101	1472003614221	o	79
6486	69791	The alleged offences occurred before Alan Sugar took control.	the alleged offences occurred before alan sugar took control	3320361	1472003614368	1472003614526	r	82
6486	69791	The alleged offences occurred before Alan Sugar took control.	the alleged offences occurred before alan sugar took control	3320425	1472003614441	1472003614586	e	69
6486	69791	The alleged offences occurred before Alan Sugar took control.	the alleged offences occurred before alan sugar took control	3320428	1472003614606	1472003614731	 	32
6486	69791	The alleged offences occurred before Alan Sugar took control.	the alleged offences occurred before alan sugar took control	3320433	1472003615126	1472003615261	a	65
6486	69791	The alleged offences occurred before Alan Sugar took control.	the alleged offences occurred before alan sugar took control	3320437	1472003615425	1472003615525	k	75
6486	69791	The alleged offences occurred before Alan Sugar took control.	the alleged offences occurred before alan sugar took control	3320440	1472003615845	1472003615985	BKSP	8
6486	69791	The alleged offences occurred before Alan Sugar took control.	the alleged offences occurred before alan sugar took control	3320443	1472003616115	1472003616241	l	76
6486	69791	The alleged offences occurred before Alan Sugar took control.	the alleged offences occurred before alan sugar took control	3320446	1472003616255	1472003616355	a	65
6486	69791	The alleged offences occurred before Alan Sugar took control.	the alleged offences occurred before alan sugar took control	3320582	1472003616494	1472003616614	n	78
6486	69791	The alleged offences occurred before Alan Sugar took control.	the alleged offences occurred before alan sugar took control	3320588	1472003616715	1472003616825	 	32
6486	69791	The alleged offences occurred before Alan Sugar took control.	the alleged offences occurred before alan sugar took control	3320592	1472003617900	1472003618004	s	83
6486	69791	The alleged offences occurred before Alan Sugar took control.	the alleged offences occurred before alan sugar took control	3320596	1472003618239	1472003618338	u	85
6486	69791	The alleged offences occurred before Alan Sugar took control.	the alleged offences occurred before alan sugar took control	3320600	1472003618614	1472003618694	g	71
6486	69791	The alleged offences occurred before Alan Sugar took control.	the alleged offences occurred before alan sugar took control	3320724	1472003618747	1472003618864	a	65
6486	69791	The alleged offences occurred before Alan Sugar took control.	the alleged offences occurred before alan sugar took control	3320728	1472003618899	1472003618978	r	82
6486	69791	The alleged offences occurred before Alan Sugar took control.	the alleged offences occurred before alan sugar took control	3320732	1472003619199	1472003619313	 	32
6486	69791	The alleged offences occurred before Alan Sugar took control.	the alleged offences occurred before alan sugar took control	3320734	1472003620338	1472003620438	t	84
6486	69791	The alleged offences occurred before Alan Sugar took control.	the alleged offences occurred before alan sugar took control	3320737	1472003620508	1472003620588	o	79
6486	69791	The alleged offences occurred before Alan Sugar took control.	the alleged offences occurred before alan sugar took control	3320849	1472003620657	1472003620753	o	79
6486	69791	The alleged offences occurred before Alan Sugar took control.	the alleged offences occurred before alan sugar took control	3320854	1472003620853	1472003620963	k	75
6486	69791	The alleged offences occurred before Alan Sugar took control.	the alleged offences occurred before alan sugar took control	3320856	1472003621087	1472003621193	 	32
6486	69791	The alleged offences occurred before Alan Sugar took control.	the alleged offences occurred before alan sugar took control	3320859	1472003622003	1472003622103	c	67
6486	69791	The alleged offences occurred before Alan Sugar took control.	the alleged offences occurred before alan sugar took control	3320862	1472003622212	1472003622337	o	79
6486	69791	The alleged offences occurred before Alan Sugar took control.	the alleged offences occurred before alan sugar took control	3320930	1472003622527	1472003622633	n	78
6486	69791	The alleged offences occurred before Alan Sugar took control.	the alleged offences occurred before alan sugar took control	3320932	1472003622832	1472003622971	t	84
6486	69791	The alleged offences occurred before Alan Sugar took control.	the alleged offences occurred before alan sugar took control	3320938	1472003623076	1472003623181	r	82
6486	69791	The alleged offences occurred before Alan Sugar took control.	the alleged offences occurred before alan sugar took control	3320942	1472003623186	1472003623296	o	79
6486	69791	The alleged offences occurred before Alan Sugar took control.	the alleged offences occurred before alan sugar took control	3320945	1472003623397	1472003623516	l	76
6486	69825	I can return earlier.	I can return earliser	3321409	1472003626366	1472003630118	SHIFT	16
6486	69825	I can return earlier.	I can return earliser	3321407	1472003629988	1472003630108	I	73
6486	69825	I can return earlier.	I can return earliser	3321413	1472003630183	1472003630312	 	32
6486	69825	I can return earlier.	I can return earliser	3321417	1472003630378	1472003630538	c	67
6486	69825	I can return earlier.	I can return earliser	3321422	1472003630477	1472003630588	a	65
6486	69825	I can return earlier.	I can return earliser	3321517	1472003630558	1472003630693	n	78
6486	69825	I can return earlier.	I can return earliser	3321521	1472003630768	1472003630938	 	32
6486	69825	I can return earlier.	I can return earliser	3321524	1472003631174	1472003631333	r	82
6486	69825	I can return earlier.	I can return earliser	3321528	1472003631238	1472003631392	e	69
6486	69825	I can return earlier.	I can return earliser	3321530	1472003631620	1472003631698	t	84
6486	69825	I can return earlier.	I can return earliser	3321534	1472003631943	1472003632047	u	85
6486	69825	I can return earlier.	I can return earliser	3321602	1472003632323	1472003632453	r	82
6486	69825	I can return earlier.	I can return earliser	3321606	1472003632487	1472003632577	n	78
6486	69825	I can return earlier.	I can return earliser	3321610	1472003632673	1472003632777	 	32
6486	69825	I can return earlier.	I can return earliser	3321612	1472003633031	1472003633180	e	69
6486	69825	I can return earlier.	I can return earliser	3321615	1472003633272	1472003633405	a	65
6486	69825	I can return earlier.	I can return earliser	3321673	1472003633607	1472003633681	r	82
6486	69825	I can return earlier.	I can return earliser	3321678	1472003634041	1472003634141	l	76
6486	69825	I can return earlier.	I can return earliser	3321681	1472003634223	1472003634328	i	73
6486	69825	I can return earlier.	I can return earliser	3321685	1472003634336	1472003634432	s	83
6486	69825	I can return earlier.	I can return earliser	3321688	1472003634551	1472003634655	e	69
6486	69825	I can return earlier.	I can return earliser	3321690	1472003634726	1472003634844	r	82
6486	69845	The reserve receiver is expected to see a specialist this week.	The reserver reciever is expected to see a specialist this week	3321954	1472003636894	1472003637403	SHIFT	16
6486	69845	The reserve receiver is expected to see a specialist this week.	The reserver reciever is expected to see a specialist this week	3321951	1472003637235	1472003637330	T	84
6486	69845	The reserve receiver is expected to see a specialist this week.	The reserver reciever is expected to see a specialist this week	3321963	1472003637680	1472003637794	h	72
6486	69845	The reserve receiver is expected to see a specialist this week.	The reserver reciever is expected to see a specialist this week	3321969	1472003637885	1472003637999	e	69
6486	69845	The reserve receiver is expected to see a specialist this week.	The reserver reciever is expected to see a specialist this week	3321976	1472003637987	1472003638074	 	32
6486	69845	The reserve receiver is expected to see a specialist this week.	The reserver reciever is expected to see a specialist this week	3321981	1472003638979	1472003639148	r	82
6486	69845	The reserve receiver is expected to see a specialist this week.	The reserver reciever is expected to see a specialist this week	3322127	1472003639054	1472003639204	e	69
6486	69845	The reserve receiver is expected to see a specialist this week.	The reserver reciever is expected to see a specialist this week	3322129	1472003639547	1472003639668	s	83
6486	69845	The reserve receiver is expected to see a specialist this week.	The reserver reciever is expected to see a specialist this week	3322130	1472003640448	1472003640569	e	69
6486	69845	The reserve receiver is expected to see a specialist this week.	The reserver reciever is expected to see a specialist this week	3322132	1472003640678	1472003640804	r	82
6486	69845	The reserve receiver is expected to see a specialist this week.	The reserver reciever is expected to see a specialist this week	3322137	1472003640929	1472003641018	v	86
6486	69845	The reserve receiver is expected to see a specialist this week.	The reserver reciever is expected to see a specialist this week	3322145	1472003641026	1472003641128	e	69
6486	69845	The reserve receiver is expected to see a specialist this week.	The reserver reciever is expected to see a specialist this week	3322297	1472003641173	1472003641297	r	82
6486	69845	The reserve receiver is expected to see a specialist this week.	The reserver reciever is expected to see a specialist this week	3322300	1472003641278	1472003641383	 	32
6486	69845	The reserve receiver is expected to see a specialist this week.	The reserver reciever is expected to see a specialist this week	3322302	1472003642493	1472003642648	r	82
6486	69845	The reserve receiver is expected to see a specialist this week.	The reserver reciever is expected to see a specialist this week	3322304	1472003642579	1472003642727	e	69
6486	69845	The reserve receiver is expected to see a specialist this week.	The reserver reciever is expected to see a specialist this week	3322306	1472003643257	1472003643353	c	67
6486	69845	The reserve receiver is expected to see a specialist this week.	The reserver reciever is expected to see a specialist this week	3322375	1472003643422	1472003643527	i	73
6486	69845	The reserve receiver is expected to see a specialist this week.	The reserver reciever is expected to see a specialist this week	3322379	1472003643566	1472003643686	e	69
6486	69845	The reserve receiver is expected to see a specialist this week.	The reserver reciever is expected to see a specialist this week	3322382	1472003644121	1472003644236	v	86
6486	69845	The reserve receiver is expected to see a specialist this week.	The reserver reciever is expected to see a specialist this week	3322384	1472003644254	1472003644321	e	69
6486	69845	The reserve receiver is expected to see a specialist this week.	The reserver reciever is expected to see a specialist this week	3322387	1472003644403	1472003644511	r	82
6486	69845	The reserve receiver is expected to see a specialist this week.	The reserver reciever is expected to see a specialist this week	3322462	1472003644527	1472003644621	 	32
6486	69845	The reserve receiver is expected to see a specialist this week.	The reserver reciever is expected to see a specialist this week	3322465	1472003645126	1472003645242	i	73
6486	69845	The reserve receiver is expected to see a specialist this week.	The reserver reciever is expected to see a specialist this week	3322469	1472003645297	1472003645371	s	83
6486	69845	The reserve receiver is expected to see a specialist this week.	The reserver reciever is expected to see a specialist this week	3322471	1472003645411	1472003645497	 	32
6486	69845	The reserve receiver is expected to see a specialist this week.	The reserver reciever is expected to see a specialist this week	3322473	1472003645666	1472003645779	e	69
6486	69845	The reserve receiver is expected to see a specialist this week.	The reserver reciever is expected to see a specialist this week	3322518	1472003646306	1472003646451	x	88
6486	69845	The reserve receiver is expected to see a specialist this week.	The reserver reciever is expected to see a specialist this week	3322521	1472003646502	1472003646625	p	80
6486	69845	The reserve receiver is expected to see a specialist this week.	The reserver reciever is expected to see a specialist this week	3322525	1472003646690	1472003646811	e	69
6486	69845	The reserve receiver is expected to see a specialist this week.	The reserver reciever is expected to see a specialist this week	3322527	1472003647156	1472003647252	c	67
6486	69845	The reserve receiver is expected to see a specialist this week.	The reserver reciever is expected to see a specialist this week	3322530	1472003647431	1472003647501	t	84
6486	69845	The reserve receiver is expected to see a specialist this week.	The reserver reciever is expected to see a specialist this week	3322638	1472003647920	1472003648024	e	69
6486	69845	The reserve receiver is expected to see a specialist this week.	The reserver reciever is expected to see a specialist this week	3322646	1472003648120	1472003648216	d	68
6486	69845	The reserve receiver is expected to see a specialist this week.	The reserver reciever is expected to see a specialist this week	3322653	1472003648200	1472003648300	 	32
6486	69845	The reserve receiver is expected to see a specialist this week.	The reserver reciever is expected to see a specialist this week	3322659	1472003649554	1472003649654	t	84
6486	69845	The reserve receiver is expected to see a specialist this week.	The reserver reciever is expected to see a specialist this week	3322664	1472003649664	1472003649819	o	79
6486	69845	The reserve receiver is expected to see a specialist this week.	The reserver reciever is expected to see a specialist this week	3322785	1472003649850	1472003650044	 	32
6486	69845	The reserve receiver is expected to see a specialist this week.	The reserver reciever is expected to see a specialist this week	3322789	1472003650169	1472003650268	e	69
6486	69845	The reserve receiver is expected to see a specialist this week.	The reserver reciever is expected to see a specialist this week	3322793	1472003650853	1472003650978	DELETE	46
6486	69845	The reserve receiver is expected to see a specialist this week.	The reserver reciever is expected to see a specialist this week	3322795	1472003650950	1472003651022	s	83
6486	69845	The reserve receiver is expected to see a specialist this week.	The reserver reciever is expected to see a specialist this week	3322799	1472003651119	1472003651213	e	69
6486	69845	The reserve receiver is expected to see a specialist this week.	The reserver reciever is expected to see a specialist this week	3322804	1472003651523	1472003651633	BKSP	8
6486	69845	The reserve receiver is expected to see a specialist this week.	The reserver reciever is expected to see a specialist this week	3322808	1472003651718	1472003651803	BKSP	8
6486	69845	The reserve receiver is expected to see a specialist this week.	The reserver reciever is expected to see a specialist this week	3322813	1472003651882	1472003651987	BKSP	8
6486	69845	The reserve receiver is expected to see a specialist this week.	The reserver reciever is expected to see a specialist this week	3322817	1472003652008	1472003652097	s	83
6486	69845	The reserve receiver is expected to see a specialist this week.	The reserver reciever is expected to see a specialist this week	3322857	1472003652168	1472003652283	e	69
6486	69845	The reserve receiver is expected to see a specialist this week.	The reserver reciever is expected to see a specialist this week	3322859	1472003652333	1472003652432	e	69
6486	69845	The reserve receiver is expected to see a specialist this week.	The reserver reciever is expected to see a specialist this week	3322860	1472003652649	1472003652773	 	32
6486	69845	The reserve receiver is expected to see a specialist this week.	The reserver reciever is expected to see a specialist this week	3322862	1472003653062	1472003653173	a	65
6486	69845	The reserve receiver is expected to see a specialist this week.	The reserver reciever is expected to see a specialist this week	3322869	1472003653178	1472003653262	 	32
6486	69845	The reserve receiver is expected to see a specialist this week.	The reserver reciever is expected to see a specialist this week	3323091	1472003654562	1472003654667	s	83
6486	69845	The reserve receiver is expected to see a specialist this week.	The reserver reciever is expected to see a specialist this week	3323093	1472003654642	1472003654787	p	80
6486	69845	The reserve receiver is expected to see a specialist this week.	The reserver reciever is expected to see a specialist this week	3323098	1472003654947	1472003655102	e	69
6486	69845	The reserve receiver is expected to see a specialist this week.	The reserver reciever is expected to see a specialist this week	3323102	1472003655082	1472003655193	a	65
6486	69845	The reserve receiver is expected to see a specialist this week.	The reserver reciever is expected to see a specialist this week	3323106	1472003656866	1472003657061	BKSP	8
6486	69845	The reserve receiver is expected to see a specialist this week.	The reserver reciever is expected to see a specialist this week	3323110	1472003657590	1472003657716	c	67
6486	69845	The reserve receiver is expected to see a specialist this week.	The reserver reciever is expected to see a specialist this week	3323237	1472003660154	1472003660230	i	73
6486	69845	The reserve receiver is expected to see a specialist this week.	The reserver reciever is expected to see a specialist this week	3323240	1472003660215	1472003660358	a	65
6486	69845	The reserve receiver is expected to see a specialist this week.	The reserver reciever is expected to see a specialist this week	3323244	1472003660555	1472003660659	l	76
6486	69845	The reserve receiver is expected to see a specialist this week.	The reserver reciever is expected to see a specialist this week	3323248	1472003660749	1472003660849	i	73
6486	69845	The reserve receiver is expected to see a specialist this week.	The reserver reciever is expected to see a specialist this week	3323483	1472003660831	1472003660949	s	83
6486	69845	The reserve receiver is expected to see a specialist this week.	The reserver reciever is expected to see a specialist this week	3323489	1472003662124	1472003662223	t	84
6486	69845	The reserve receiver is expected to see a specialist this week.	The reserver reciever is expected to see a specialist this week	3323493	1472003662254	1472003662353	 	32
6486	69845	The reserve receiver is expected to see a specialist this week.	The reserver reciever is expected to see a specialist this week	3323500	1472003662424	1472003662523	t	84
6486	69845	The reserve receiver is expected to see a specialist this week.	The reserver reciever is expected to see a specialist this week	3323504	1472003662549	1472003662661	h	72
6486	69845	The reserve receiver is expected to see a specialist this week.	The reserver reciever is expected to see a specialist this week	3323508	1472003662683	1472003662830	e	69
6486	69845	The reserve receiver is expected to see a specialist this week.	The reserver reciever is expected to see a specialist this week	3323482	1472003663348	1472003663563	BKSP	8
6486	69845	The reserve receiver is expected to see a specialist this week.	The reserver reciever is expected to see a specialist this week	3323488	1472003664003	1472003664116	i	73
6486	69845	The reserve receiver is expected to see a specialist this week.	The reserver reciever is expected to see a specialist this week	3323494	1472003664151	1472003664252	s	83
6486	69845	The reserve receiver is expected to see a specialist this week.	The reserver reciever is expected to see a specialist this week	3323498	1472003664287	1472003664407	 	32
6486	69845	The reserve receiver is expected to see a specialist this week.	The reserver reciever is expected to see a specialist this week	3323501	1472003664509	1472003664607	w	87
6486	69845	The reserve receiver is expected to see a specialist this week.	The reserver reciever is expected to see a specialist this week	3323507	1472003664829	1472003664888	e	69
6486	69845	The reserve receiver is expected to see a specialist this week.	The reserver reciever is expected to see a specialist this week	3323481	1472003664953	1472003665043	e	69
6486	69845	The reserve receiver is expected to see a specialist this week.	The reserver reciever is expected to see a specialist this week	3323487	1472003665083	1472003665217	k	75
6486	69879	The dollar lost ground against the major currencies.	The dollar lost ground against the major currencies	3323705	1472003668177	1472003668413	SHIFT	16
6486	69879	The dollar lost ground against the major currencies.	The dollar lost ground against the major currencies	3323701	1472003668297	1472003668396	T	84
6486	69879	The dollar lost ground against the major currencies.	The dollar lost ground against the major currencies	3323711	1472003668760	1472003668876	h	72
6486	69879	The dollar lost ground against the major currencies.	The dollar lost ground against the major currencies	3323717	1472003668916	1472003669015	e	69
6486	69879	The dollar lost ground against the major currencies.	The dollar lost ground against the major currencies	3323725	1472003669050	1472003669161	 	32
6486	69879	The dollar lost ground against the major currencies.	The dollar lost ground against the major currencies	3323729	1472003669702	1472003669820	d	68
6486	69879	The dollar lost ground against the major currencies.	The dollar lost ground against the major currencies	3323768	1472003669896	1472003670000	o	79
6486	69879	The dollar lost ground against the major currencies.	The dollar lost ground against the major currencies	3323770	1472003670105	1472003670159	l	76
6486	69879	The dollar lost ground against the major currencies.	The dollar lost ground against the major currencies	3323773	1472003670230	1472003670330	l	76
6486	69879	The dollar lost ground against the major currencies.	The dollar lost ground against the major currencies	3323775	1472003670490	1472003670610	a	65
6486	69879	The dollar lost ground against the major currencies.	The dollar lost ground against the major currencies	3323777	1472003670779	1472003670860	r	82
6486	69879	The dollar lost ground against the major currencies.	The dollar lost ground against the major currencies	3323843	1472003670930	1472003671025	 	32
6486	69879	The dollar lost ground against the major currencies.	The dollar lost ground against the major currencies	3323847	1472003672121	1472003672214	l	76
6486	69879	The dollar lost ground against the major currencies.	The dollar lost ground against the major currencies	3323850	1472003672274	1472003672388	o	79
6486	69879	The dollar lost ground against the major currencies.	The dollar lost ground against the major currencies	3323854	1472003672339	1472003672433	s	83
6486	69879	The dollar lost ground against the major currencies.	The dollar lost ground against the major currencies	3323857	1472003672600	1472003672733	t	84
6486	69879	The dollar lost ground against the major currencies.	The dollar lost ground against the major currencies	3323892	1472003672709	1472003672787	 	32
6486	69879	The dollar lost ground against the major currencies.	The dollar lost ground against the major currencies	3323895	1472003673041	1472003673164	o	79
6486	69879	The dollar lost ground against the major currencies.	The dollar lost ground against the major currencies	3323898	1472003673263	1472003673349	n	78
6486	69879	The dollar lost ground against the major currencies.	The dollar lost ground against the major currencies	3323901	1472003673460	1472003673534	 	32
6486	69879	The dollar lost ground against the major currencies.	The dollar lost ground against the major currencies	3323903	1472003673619	1472003673713	t	84
6486	69879	The dollar lost ground against the major currencies.	The dollar lost ground against the major currencies	3323905	1472003673719	1472003673828	h	72
6486	69879	The dollar lost ground against the major currencies.	The dollar lost ground against the major currencies	3324159	1472003673873	1472003673933	e	69
6486	69879	The dollar lost ground against the major currencies.	The dollar lost ground against the major currencies	3324162	1472003673999	1472003674097	 	32
6486	69879	The dollar lost ground against the major currencies.	The dollar lost ground against the major currencies	3324164	1472003674733	1472003675367	BKSP	8
6486	69879	The dollar lost ground against the major currencies.	The dollar lost ground against the major currencies	3324167	1472003675477	1472003675586	BKSP	8
6486	69879	The dollar lost ground against the major currencies.	The dollar lost ground against the major currencies	3324172	1472003675664	1472003675775	BKSP	8
6486	69879	The dollar lost ground against the major currencies.	The dollar lost ground against the major currencies	3324176	1472003676568	1472003676667	g	71
6486	69879	The dollar lost ground against the major currencies.	The dollar lost ground against the major currencies	3324180	1472003676822	1472003676891	r	82
6486	69879	The dollar lost ground against the major currencies.	The dollar lost ground against the major currencies	3324185	1472003676928	1472003677022	i	73
6486	69879	The dollar lost ground against the major currencies.	The dollar lost ground against the major currencies	3324188	1472003677433	1472003677557	BKSP	8
6486	69879	The dollar lost ground against the major currencies.	The dollar lost ground against the major currencies	3324189	1472003677668	1472003677786	o	79
6486	69879	The dollar lost ground against the major currencies.	The dollar lost ground against the major currencies	3324192	1472003678586	1472003678667	u	85
6486	69879	The dollar lost ground against the major currencies.	The dollar lost ground against the major currencies	3324194	1472003678841	1472003678941	n	78
6486	69879	The dollar lost ground against the major currencies.	The dollar lost ground against the major currencies	3324197	1472003678951	1472003679031	f	70
6486	69879	The dollar lost ground against the major currencies.	The dollar lost ground against the major currencies	3324202	1472003679331	1472003679491	BKSP	8
6486	69879	The dollar lost ground against the major currencies.	The dollar lost ground against the major currencies	3324249	1472003679421	1472003679536	d	68
6486	69879	The dollar lost ground against the major currencies.	The dollar lost ground against the major currencies	3324251	1472003679686	1472003679791	 	32
6486	69879	The dollar lost ground against the major currencies.	The dollar lost ground against the major currencies	3324255	1472003680306	1472003680425	a	65
6486	69879	The dollar lost ground against the major currencies.	The dollar lost ground against the major currencies	3324259	1472003680615	1472003680689	g	71
6486	69879	The dollar lost ground against the major currencies.	The dollar lost ground against the major currencies	3324264	1472003680775	1472003680890	a	65
6486	69879	The dollar lost ground against the major currencies.	The dollar lost ground against the major currencies	3324269	1472003681030	1472003681124	i	73
6486	69879	The dollar lost ground against the major currencies.	The dollar lost ground against the major currencies	3324418	1472003681445	1472003681549	n	78
6486	69879	The dollar lost ground against the major currencies.	The dollar lost ground against the major currencies	3324420	1472003681695	1472003681829	s	83
6486	69879	The dollar lost ground against the major currencies.	The dollar lost ground against the major currencies	3324423	1472003682520	1472003682664	t	84
6486	69879	The dollar lost ground against the major currencies.	The dollar lost ground against the major currencies	3324426	1472003682704	1472003682869	 	32
6486	69879	The dollar lost ground against the major currencies.	The dollar lost ground against the major currencies	3324429	1472003683509	1472003683623	t	84
6486	69879	The dollar lost ground against the major currencies.	The dollar lost ground against the major currencies	3324506	1472003683603	1472003683718	h	72
6486	69879	The dollar lost ground against the major currencies.	The dollar lost ground against the major currencies	3324508	1472003683768	1472003683902	e	69
6486	69879	The dollar lost ground against the major currencies.	The dollar lost ground against the major currencies	3324509	1472003683914	1472003683988	 	32
6486	69879	The dollar lost ground against the major currencies.	The dollar lost ground against the major currencies	3324512	1472003684134	1472003684243	m	77
6486	69879	The dollar lost ground against the major currencies.	The dollar lost ground against the major currencies	3324514	1472003684294	1472003684407	a	65
6486	69879	The dollar lost ground against the major currencies.	The dollar lost ground against the major currencies	3324516	1472003685313	1472003685382	j	74
6486	69879	The dollar lost ground against the major currencies.	The dollar lost ground against the major currencies	3324616	1472003685622	1472003685768	o	79
6486	69879	The dollar lost ground against the major currencies.	The dollar lost ground against the major currencies	3324618	1472003685839	1472003685992	r	82
6486	69879	The dollar lost ground against the major currencies.	The dollar lost ground against the major currencies	3324620	1472003686003	1472003686153	 	32
6486	69879	The dollar lost ground against the major currencies.	The dollar lost ground against the major currencies	3324623	1472003686987	1472003687072	c	67
6486	69879	The dollar lost ground against the major currencies.	The dollar lost ground against the major currencies	3324628	1472003687632	1472003687717	u	85
6486	69879	The dollar lost ground against the major currencies.	The dollar lost ground against the major currencies	3324727	1472003687980	1472003688046	r	82
6486	69879	The dollar lost ground against the major currencies.	The dollar lost ground against the major currencies	3324732	1472003688112	1472003688217	r	82
6486	69879	The dollar lost ground against the major currencies.	The dollar lost ground against the major currencies	3324741	1472003688361	1472003688477	e	69
6486	69879	The dollar lost ground against the major currencies.	The dollar lost ground against the major currencies	3324746	1472003688502	1472003688616	n	78
6486	69879	The dollar lost ground against the major currencies.	The dollar lost ground against the major currencies	3324751	1472003689301	1472003689387	c	67
6486	69879	The dollar lost ground against the major currencies.	The dollar lost ground against the major currencies	3324808	1472003689636	1472003689770	i	73
6486	69879	The dollar lost ground against the major currencies.	The dollar lost ground against the major currencies	3324810	1472003689906	1472003690100	s	83
6486	69879	The dollar lost ground against the major currencies.	The dollar lost ground against the major currencies	3324815	1472003690491	1472003690636	BKSP	8
6486	69879	The dollar lost ground against the major currencies.	The dollar lost ground against the major currencies	3324823	1472003690671	1472003690830	e	69
6486	69907	Let me know if you have any problems.	Let me know if you have any problems	3325659	1472003690761	1472003704974	s	83
6486	69907	Let me know if you have any problems.	Let me know if you have any problems	3324976	1472003692895	1472003693129	SHIFT	16
6486	69907	Let me know if you have any problems.	Let me know if you have any problems	3324980	1472003693074	1472003693186	L	76
6486	69907	Let me know if you have any problems.	Let me know if you have any problems	3324985	1472003693394	1472003693505	e	69
6486	69907	Let me know if you have any problems.	Let me know if you have any problems	3324990	1472003693629	1472003693729	t	84
6486	69907	Let me know if you have any problems.	Let me know if you have any problems	3324996	1472003693855	1472003693985	 	32
6486	69907	Let me know if you have any problems.	Let me know if you have any problems	3325003	1472003694129	1472003694265	m	77
6486	69907	Let me know if you have any problems.	Let me know if you have any problems	3325067	1472003694246	1472003694389	e	69
6486	69907	Let me know if you have any problems.	Let me know if you have any problems	3325070	1472003694374	1472003694509	 	32
6486	69907	Let me know if you have any problems.	Let me know if you have any problems	3325077	1472003695494	1472003695610	k	75
6486	69907	Let me know if you have any problems.	Let me know if you have any problems	3325085	1472003695674	1472003695784	n	78
6486	69907	Let me know if you have any problems.	Let me know if you have any problems	3325091	1472003695959	1472003696020	o	79
6486	69907	Let me know if you have any problems.	Let me know if you have any problems	3325093	1472003696079	1472003696104	w	87
6486	69907	Let me know if you have any problems.	Let me know if you have any problems	3325262	1472003696460	1472003696578	 	32
6486	69907	Let me know if you have any problems.	Let me know if you have any problems	3325265	1472003697288	1472003697384	i	73
6486	69907	Let me know if you have any problems.	Let me know if you have any problems	3325269	1472003698023	1472003698134	f	70
6486	69907	Let me know if you have any problems.	Let me know if you have any problems	3325275	1472003698228	1472003698351	 	32
6486	69907	Let me know if you have any problems.	Let me know if you have any problems	3325278	1472003699322	1472003699433	y	89
6486	69907	Let me know if you have any problems.	Let me know if you have any problems	3325288	1472003699478	1472003699587	o	79
6486	69907	Let me know if you have any problems.	Let me know if you have any problems	3325290	1472003699799	1472003699895	u	85
6486	69907	Let me know if you have any problems.	Let me know if you have any problems	3325295	1472003700022	1472003700142	 	32
6486	69907	Let me know if you have any problems.	Let me know if you have any problems	3325300	1472003700237	1472003700356	h	72
6486	69907	Let me know if you have any problems.	Let me know if you have any problems	3325381	1472003700304	1472003700422	a	65
6486	69907	Let me know if you have any problems.	Let me know if you have any problems	3325385	1472003700701	1472003700801	v	86
6486	69907	Let me know if you have any problems.	Let me know if you have any problems	3325391	1472003700837	1472003700966	e	69
6486	69907	Let me know if you have any problems.	Let me know if you have any problems	3325396	1472003700951	1472003701067	 	32
6486	69907	Let me know if you have any problems.	Let me know if you have any problems	3325401	1472003701276	1472003701376	a	65
6486	69907	Let me know if you have any problems.	Let me know if you have any problems	3325405	1472003701736	1472003701795	n	78
6486	69907	Let me know if you have any problems.	Let me know if you have any problems	3325625	1472003702201	1472003702315	y	89
6486	69907	Let me know if you have any problems.	Let me know if you have any problems	3325630	1472003702531	1472003702776	 	32
6486	69907	Let me know if you have any problems.	Let me know if you have any problems	3325639	1472003702785	1472003702885	p	80
6486	69907	Let me know if you have any problems.	Let me know if you have any problems	3325644	1472003703241	1472003703350	r	82
6486	69907	Let me know if you have any problems.	Let me know if you have any problems	3325649	1472003703380	1472003703505	o	79
6486	69907	Let me know if you have any problems.	Let me know if you have any problems	3325648	1472003703900	1472003703985	b	66
6486	69907	Let me know if you have any problems.	Let me know if you have any problems	3325652	1472003704240	1472003704350	l	76
6486	69907	Let me know if you have any problems.	Let me know if you have any problems	3325657	1472003704620	1472003704754	e	69
6486	69907	Let me know if you have any problems.	Let me know if you have any problems	3325664	1472003704954	1472003705065	m	77
6486	69907	Let me know if you have any problems.	Let me know if you have any problems	3325669	1472003705429	1472003705519	BKSP	8
6486	69907	Let me know if you have any problems.	Let me know if you have any problems	3325671	1472003705590	1472003705665	BKSP	8
6486	69907	Let me know if you have any problems.	Let me know if you have any problems	3325674	1472003706089	1472003706209	e	69
6486	69907	Let me know if you have any problems.	Let me know if you have any problems	3325680	1472003706299	1472003706433	m	77
6486	69907	Let me know if you have any problems.	Let me know if you have any problems	3325683	1472003706473	1472003706594	s	83
6486	69929	How soon do you need it?	How soon do you need it	3325870	1472003708846	1472003709353	SHIFT	16
6486	69929	How soon do you need it?	How soon do you need it	3325869	1472003709168	1472003709232	H	72
6486	69929	How soon do you need it?	How soon do you need it	3325871	1472003709522	1472003709647	o	79
6486	69929	How soon do you need it?	How soon do you need it	3325873	1472003710216	1472003710327	w	87
6486	69929	How soon do you need it?	How soon do you need it	3325875	1472003710357	1472003710462	 	32
6486	69929	How soon do you need it?	How soon do you need it	3325877	1472003710997	1472003711106	s	83
6486	69929	How soon do you need it?	How soon do you need it	3326020	1472003711451	1472003711526	o	79
6486	69929	How soon do you need it?	How soon do you need it	3326022	1472003711581	1472003711676	o	79
6486	69929	How soon do you need it?	How soon do you need it	3326025	1472003711862	1472003711986	n	78
6486	69929	How soon do you need it?	How soon do you need it	3326027	1472003712086	1472003712166	 	32
6486	69929	How soon do you need it?	How soon do you need it	3326029	1472003713336	1472003713430	d	68
6486	69929	How soon do you need it?	How soon do you need it	3326158	1472003713415	1472003713550	o	79
6486	69929	How soon do you need it?	How soon do you need it	3326163	1472003713636	1472003713784	 	32
6486	69929	How soon do you need it?	How soon do you need it	3326168	1472003714036	1472003714165	u	85
6486	69929	How soon do you need it?	How soon do you need it	3326170	1472003714320	1472003714454	 	32
6486	69929	How soon do you need it?	How soon do you need it	3326172	1472003714690	1472003714780	BKSP	8
6486	69929	How soon do you need it?	How soon do you need it	3326173	1472003714850	1472003714954	BKSP	8
6486	69929	How soon do you need it?	How soon do you need it	3326174	1472003715753	1472003715854	y	89
6486	69929	How soon do you need it?	How soon do you need it	3326175	1472003715929	1472003716094	o	79
6486	69929	How soon do you need it?	How soon do you need it	3326196	1472003716304	1472003716449	u	85
6486	69929	How soon do you need it?	How soon do you need it	3326198	1472003716475	1472003716624	 	32
6486	69929	How soon do you need it?	How soon do you need it	3326201	1472003716724	1472003716803	n	78
6486	69929	How soon do you need it?	How soon do you need it	3326204	1472003716896	1472003716979	e	69
6486	69929	How soon do you need it?	How soon do you need it	3326207	1472003717046	1472003717145	e	69
6486	69929	How soon do you need it?	How soon do you need it	3326264	1472003717200	1472003717318	d	68
6486	69929	How soon do you need it?	How soon do you need it	3326268	1472003717324	1472003717429	 	32
6486	69929	How soon do you need it?	How soon do you need it	3326273	1472003718018	1472003718118	i	73
6486	69942	Add a Star Trek convention and sports memorabilia show to the mix.	Add a Star Trek convention and sports memorabillia show to the mix	3326557	1472003718229	1472003722815	t	84
6486	69942	Add a Star Trek convention and sports memorabilia show to the mix.	Add a Star Trek convention and sports memorabillia show to the mix	3326471	1472003720336	1472003720717	SHIFT	16
6486	69942	Add a Star Trek convention and sports memorabilia show to the mix.	Add a Star Trek convention and sports memorabillia show to the mix	3326473	1472003720568	1472003720737	A	65
6486	69942	Add a Star Trek convention and sports memorabilia show to the mix.	Add a Star Trek convention and sports memorabillia show to the mix	3326477	1472003721513	1472003721611	d	68
6486	69942	Add a Star Trek convention and sports memorabilia show to the mix.	Add a Star Trek convention and sports memorabillia show to the mix	3326480	1472003721642	1472003721738	d	68
6486	69942	Add a Star Trek convention and sports memorabilia show to the mix.	Add a Star Trek convention and sports memorabillia show to the mix	3326481	1472003721767	1472003721897	 	32
6486	69942	Add a Star Trek convention and sports memorabilia show to the mix.	Add a Star Trek convention and sports memorabillia show to the mix	3326482	1472003721961	1472003722086	a	65
6486	69942	Add a Star Trek convention and sports memorabilia show to the mix.	Add a Star Trek convention and sports memorabillia show to the mix	3326550	1472003722071	1472003722196	 	32
6486	69942	Add a Star Trek convention and sports memorabilia show to the mix.	Add a Star Trek convention and sports memorabillia show to the mix	3326555	1472003722332	1472003722445	s	83
6486	69942	Add a Star Trek convention and sports memorabilia show to the mix.	Add a Star Trek convention and sports memorabillia show to the mix	3326559	1472003722895	1472003723019	a	65
6486	69942	Add a Star Trek convention and sports memorabilia show to the mix.	Add a Star Trek convention and sports memorabillia show to the mix	3326560	1472003722960	1472003723044	r	82
6486	69942	Add a Star Trek convention and sports memorabilia show to the mix.	Add a Star Trek convention and sports memorabillia show to the mix	3326561	1472003723659	1472003723747	t	84
6486	69942	Add a Star Trek convention and sports memorabilia show to the mix.	Add a Star Trek convention and sports memorabillia show to the mix	3326562	1472003723970	1472003724114	r	82
6486	69942	Add a Star Trek convention and sports memorabilia show to the mix.	Add a Star Trek convention and sports memorabillia show to the mix	3326708	1472003724245	1472003724341	e	69
6486	69942	Add a Star Trek convention and sports memorabilia show to the mix.	Add a Star Trek convention and sports memorabillia show to the mix	3326709	1472003724324	1472003724409	k	75
6486	69942	Add a Star Trek convention and sports memorabilia show to the mix.	Add a Star Trek convention and sports memorabillia show to the mix	3326710	1472003724551	1472003724654	 	32
6486	69942	Add a Star Trek convention and sports memorabilia show to the mix.	Add a Star Trek convention and sports memorabillia show to the mix	3326711	1472003725454	1472003725558	BKSP	8
6486	69942	Add a Star Trek convention and sports memorabilia show to the mix.	Add a Star Trek convention and sports memorabillia show to the mix	3326713	1472003725627	1472003725713	BKSP	8
6486	69942	Add a Star Trek convention and sports memorabilia show to the mix.	Add a Star Trek convention and sports memorabillia show to the mix	3326716	1472003725749	1472003725827	BKSP	8
6486	69942	Add a Star Trek convention and sports memorabilia show to the mix.	Add a Star Trek convention and sports memorabillia show to the mix	3326719	1472003725923	1472003725993	BKSP	8
6486	69942	Add a Star Trek convention and sports memorabilia show to the mix.	Add a Star Trek convention and sports memorabillia show to the mix	3326722	1472003726084	1472003726173	BKSP	8
6486	69942	Add a Star Trek convention and sports memorabilia show to the mix.	Add a Star Trek convention and sports memorabillia show to the mix	3326728	1472003726248	1472003726338	BKSP	8
6486	69942	Add a Star Trek convention and sports memorabilia show to the mix.	Add a Star Trek convention and sports memorabillia show to the mix	3326735	1472003726417	1472003726508	BKSP	8
6486	69942	Add a Star Trek convention and sports memorabilia show to the mix.	Add a Star Trek convention and sports memorabillia show to the mix	3326741	1472003726599	1472003726683	BKSP	8
6486	69942	Add a Star Trek convention and sports memorabilia show to the mix.	Add a Star Trek convention and sports memorabillia show to the mix	3326746	1472003727293	1472003727543	SHIFT	16
6486	69942	Add a Star Trek convention and sports memorabilia show to the mix.	Add a Star Trek convention and sports memorabillia show to the mix	3326750	1472003727460	1472003727597	S	83
6486	69942	Add a Star Trek convention and sports memorabilia show to the mix.	Add a Star Trek convention and sports memorabillia show to the mix	3326753	1472003727808	1472003727907	t	84
6486	69942	Add a Star Trek convention and sports memorabilia show to the mix.	Add a Star Trek convention and sports memorabillia show to the mix	3326846	1472003727983	1472003728147	e	69
6486	69942	Add a Star Trek convention and sports memorabilia show to the mix.	Add a Star Trek convention and sports memorabillia show to the mix	3326848	1472003728158	1472003728297	a	65
6486	69942	Add a Star Trek convention and sports memorabilia show to the mix.	Add a Star Trek convention and sports memorabillia show to the mix	3326852	1472003728582	1472003728677	BKSP	8
6486	69942	Add a Star Trek convention and sports memorabilia show to the mix.	Add a Star Trek convention and sports memorabillia show to the mix	3326855	1472003728747	1472003728841	BKSP	8
6486	69942	Add a Star Trek convention and sports memorabilia show to the mix.	Add a Star Trek convention and sports memorabillia show to the mix	3326858	1472003729138	1472003729262	a	65
6486	69942	Add a Star Trek convention and sports memorabilia show to the mix.	Add a Star Trek convention and sports memorabillia show to the mix	3326860	1472003729412	1472003729527	r	82
6486	69942	Add a Star Trek convention and sports memorabilia show to the mix.	Add a Star Trek convention and sports memorabillia show to the mix	3326863	1472003729975	1472003730130	 	32
6486	69942	Add a Star Trek convention and sports memorabilia show to the mix.	Add a Star Trek convention and sports memorabillia show to the mix	3326958	1472003730525	1472003730865	SHIFT	16
6486	69942	Add a Star Trek convention and sports memorabilia show to the mix.	Add a Star Trek convention and sports memorabillia show to the mix	3326955	1472003730760	1472003730840	T	84
6486	69942	Add a Star Trek convention and sports memorabilia show to the mix.	Add a Star Trek convention and sports memorabillia show to the mix	3326967	1472003731136	1472003731300	r	82
6486	69942	Add a Star Trek convention and sports memorabilia show to the mix.	Add a Star Trek convention and sports memorabillia show to the mix	3326972	1472003731241	1472003731365	e	69
6486	69942	Add a Star Trek convention and sports memorabilia show to the mix.	Add a Star Trek convention and sports memorabillia show to the mix	3326977	1472003731371	1472003731450	k	75
6486	69942	Add a Star Trek convention and sports memorabilia show to the mix.	Add a Star Trek convention and sports memorabillia show to the mix	3326981	1472003731890	1472003731985	 	32
6486	69942	Add a Star Trek convention and sports memorabilia show to the mix.	Add a Star Trek convention and sports memorabillia show to the mix	3327096	1472003732845	1472003732954	c	67
6486	69942	Add a Star Trek convention and sports memorabilia show to the mix.	Add a Star Trek convention and sports memorabillia show to the mix	3327099	1472003732974	1472003733091	o	79
6486	69942	Add a Star Trek convention and sports memorabilia show to the mix.	Add a Star Trek convention and sports memorabillia show to the mix	3327104	1472003733515	1472003733580	n	78
6486	69942	Add a Star Trek convention and sports memorabilia show to the mix.	Add a Star Trek convention and sports memorabillia show to the mix	3327106	1472003733945	1472003734099	v	86
6486	69942	Add a Star Trek convention and sports memorabilia show to the mix.	Add a Star Trek convention and sports memorabillia show to the mix	3327107	1472003734110	1472003734269	e	69
6486	69942	Add a Star Trek convention and sports memorabilia show to the mix.	Add a Star Trek convention and sports memorabillia show to the mix	3327147	1472003734249	1472003734319	n	78
6486	69942	Add a Star Trek convention and sports memorabilia show to the mix.	Add a Star Trek convention and sports memorabillia show to the mix	3327152	1472003734524	1472003734644	t	84
6486	69942	Add a Star Trek convention and sports memorabilia show to the mix.	Add a Star Trek convention and sports memorabillia show to the mix	3327157	1472003734823	1472003734959	i	73
6486	69942	Add a Star Trek convention and sports memorabilia show to the mix.	Add a Star Trek convention and sports memorabillia show to the mix	3327162	1472003734904	1472003735028	o	79
6486	69942	Add a Star Trek convention and sports memorabilia show to the mix.	Add a Star Trek convention and sports memorabillia show to the mix	3327166	1472003735146	1472003735213	n	78
6486	69942	Add a Star Trek convention and sports memorabilia show to the mix.	Add a Star Trek convention and sports memorabillia show to the mix	3327169	1472003735293	1472003735398	 	32
6486	69942	Add a Star Trek convention and sports memorabilia show to the mix.	Add a Star Trek convention and sports memorabillia show to the mix	3327261	1472003735928	1472003736048	a	65
6486	69942	Add a Star Trek convention and sports memorabilia show to the mix.	Add a Star Trek convention and sports memorabillia show to the mix	3327263	1472003736054	1472003736187	n	78
6486	69942	Add a Star Trek convention and sports memorabilia show to the mix.	Add a Star Trek convention and sports memorabillia show to the mix	3327265	1472003736225	1472003736358	d	68
6486	69942	Add a Star Trek convention and sports memorabilia show to the mix.	Add a Star Trek convention and sports memorabillia show to the mix	3327270	1472003736368	1472003736488	 	32
6486	69942	Add a Star Trek convention and sports memorabilia show to the mix.	Add a Star Trek convention and sports memorabillia show to the mix	3327275	1472003737183	1472003737302	s	83
6486	69942	Add a Star Trek convention and sports memorabilia show to the mix.	Add a Star Trek convention and sports memorabillia show to the mix	3327327	1472003737513	1472003737637	p	80
6486	69942	Add a Star Trek convention and sports memorabilia show to the mix.	Add a Star Trek convention and sports memorabillia show to the mix	3327329	1472003737707	1472003737842	o	79
6486	69942	Add a Star Trek convention and sports memorabilia show to the mix.	Add a Star Trek convention and sports memorabillia show to the mix	3327333	1472003738028	1472003738121	r	82
6486	69942	Add a Star Trek convention and sports memorabilia show to the mix.	Add a Star Trek convention and sports memorabillia show to the mix	3327338	1472003738228	1472003738338	t	84
6486	69942	Add a Star Trek convention and sports memorabilia show to the mix.	Add a Star Trek convention and sports memorabillia show to the mix	3327344	1472003738578	1472003738711	s	83
6486	69942	Add a Star Trek convention and sports memorabilia show to the mix.	Add a Star Trek convention and sports memorabillia show to the mix	3327450	1472003738716	1472003738812	 	32
6486	69942	Add a Star Trek convention and sports memorabilia show to the mix.	Add a Star Trek convention and sports memorabillia show to the mix	3327453	1472003739832	1472003739906	m	77
6486	69942	Add a Star Trek convention and sports memorabilia show to the mix.	Add a Star Trek convention and sports memorabillia show to the mix	3327455	1472003740076	1472003740164	e	69
6486	69942	Add a Star Trek convention and sports memorabilia show to the mix.	Add a Star Trek convention and sports memorabillia show to the mix	3327458	1472003740205	1472003740265	m	77
6486	69942	Add a Star Trek convention and sports memorabilia show to the mix.	Add a Star Trek convention and sports memorabillia show to the mix	3327460	1472003740536	1472003740656	o	79
6486	69942	Add a Star Trek convention and sports memorabilia show to the mix.	Add a Star Trek convention and sports memorabillia show to the mix	3327622	1472003740876	1472003741005	r	82
6486	69942	Add a Star Trek convention and sports memorabilia show to the mix.	Add a Star Trek convention and sports memorabillia show to the mix	3327624	1472003742393	1472003742520	a	65
6486	69942	Add a Star Trek convention and sports memorabilia show to the mix.	Add a Star Trek convention and sports memorabillia show to the mix	3327628	1472003742820	1472003742901	b	66
6486	69942	Add a Star Trek convention and sports memorabilia show to the mix.	Add a Star Trek convention and sports memorabillia show to the mix	3327631	1472003743305	1472003743427	i	73
6486	69942	Add a Star Trek convention and sports memorabilia show to the mix.	Add a Star Trek convention and sports memorabillia show to the mix	3327633	1472003743574	1472003743643	l	76
6486	69942	Add a Star Trek convention and sports memorabilia show to the mix.	Add a Star Trek convention and sports memorabillia show to the mix	3327786	1472003743715	1472003743803	l	76
6486	69942	Add a Star Trek convention and sports memorabilia show to the mix.	Add a Star Trek convention and sports memorabillia show to the mix	3327790	1472003744233	1472003744333	a	65
6486	69942	Add a Star Trek convention and sports memorabilia show to the mix.	Add a Star Trek convention and sports memorabillia show to the mix	3327797	1472003744688	1472003744834	BKSP	8
6486	69942	Add a Star Trek convention and sports memorabilia show to the mix.	Add a Star Trek convention and sports memorabillia show to the mix	3327805	1472003745469	1472003745564	u	85
6486	69942	Add a Star Trek convention and sports memorabilia show to the mix.	Add a Star Trek convention and sports memorabillia show to the mix	3327812	1472003745874	1472003746009	BKSP	8
6486	69942	Add a Star Trek convention and sports memorabilia show to the mix.	Add a Star Trek convention and sports memorabillia show to the mix	3327819	1472003746488	1472003746593	i	73
6486	69942	Add a Star Trek convention and sports memorabilia show to the mix.	Add a Star Trek convention and sports memorabillia show to the mix	3327826	1472003746598	1472003746703	a	65
6486	69942	Add a Star Trek convention and sports memorabilia show to the mix.	Add a Star Trek convention and sports memorabillia show to the mix	3327864	1472003746848	1472003746972	 	32
6486	69942	Add a Star Trek convention and sports memorabilia show to the mix.	Add a Star Trek convention and sports memorabillia show to the mix	3327867	1472003747497	1472003747592	s	83
6486	69942	Add a Star Trek convention and sports memorabilia show to the mix.	Add a Star Trek convention and sports memorabillia show to the mix	3327869	1472003747538	1472003747622	h	72
6486	69942	Add a Star Trek convention and sports memorabilia show to the mix.	Add a Star Trek convention and sports memorabillia show to the mix	3327872	1472003747893	1472003748008	o	79
6486	69942	Add a Star Trek convention and sports memorabilia show to the mix.	Add a Star Trek convention and sports memorabillia show to the mix	3327876	1472003748043	1472003748122	w	87
6486	69942	Add a Star Trek convention and sports memorabilia show to the mix.	Add a Star Trek convention and sports memorabillia show to the mix	3327959	1472003748184	1472003748261	 	32
6486	69942	Add a Star Trek convention and sports memorabilia show to the mix.	Add a Star Trek convention and sports memorabillia show to the mix	3327963	1472003749107	1472003749252	t	84
6486	69942	Add a Star Trek convention and sports memorabilia show to the mix.	Add a Star Trek convention and sports memorabillia show to the mix	3327965	1472003749237	1472003749385	o	79
6486	69942	Add a Star Trek convention and sports memorabilia show to the mix.	Add a Star Trek convention and sports memorabillia show to the mix	3327966	1472003749367	1472003749550	 	32
6486	69942	Add a Star Trek convention and sports memorabilia show to the mix.	Add a Star Trek convention and sports memorabillia show to the mix	3327968	1472003749582	1472003749716	t	84
6486	69942	Add a Star Trek convention and sports memorabilia show to the mix.	Add a Star Trek convention and sports memorabillia show to the mix	3328037	1472003749775	1472003749921	h	72
6486	69942	Add a Star Trek convention and sports memorabilia show to the mix.	Add a Star Trek convention and sports memorabillia show to the mix	3328040	1472003749956	1472003750076	e	69
6486	69942	Add a Star Trek convention and sports memorabilia show to the mix.	Add a Star Trek convention and sports memorabillia show to the mix	3328048	1472003750042	1472003750211	 	32
6486	69942	Add a Star Trek convention and sports memorabilia show to the mix.	Add a Star Trek convention and sports memorabillia show to the mix	3328052	1472003750406	1472003750510	m	77
6486	69942	Add a Star Trek convention and sports memorabilia show to the mix.	Add a Star Trek convention and sports memorabillia show to the mix	3328057	1472003750649	1472003750782	i	73
6486	69942	Add a Star Trek convention and sports memorabilia show to the mix.	Add a Star Trek convention and sports memorabillia show to the mix	3328139	1472003751261	1472003751340	c	67
6486	69942	Add a Star Trek convention and sports memorabilia show to the mix.	Add a Star Trek convention and sports memorabillia show to the mix	3328142	1472003751665	1472003751820	BKSP	8
6486	69942	Add a Star Trek convention and sports memorabilia show to the mix.	Add a Star Trek convention and sports memorabillia show to the mix	3328145	1472003751835	1472003751935	x	88
6486	69978	It was possible to a large extent to agree on some kind of approach.	It was possible to a large extent to agree on some kind of approach	3328359	1472003754398	1472003754788	SHIFT	16
6486	69978	It was possible to a large extent to agree on some kind of approach.	It was possible to a large extent to agree on some kind of approach	3328355	1472003754623	1472003754739	I	73
6486	69978	It was possible to a large extent to agree on some kind of approach.	It was possible to a large extent to agree on some kind of approach	3328362	1472003755249	1472003755362	t	84
6486	69978	It was possible to a large extent to agree on some kind of approach.	It was possible to a large extent to agree on some kind of approach	3328367	1472003755322	1472003755459	 	32
6486	69978	It was possible to a large extent to agree on some kind of approach.	It was possible to a large extent to agree on some kind of approach	3328371	1472003755607	1472003755808	w	87
6486	69978	It was possible to a large extent to agree on some kind of approach.	It was possible to a large extent to agree on some kind of approach	3328375	1472003755827	1472003755998	a	65
6486	69978	It was possible to a large extent to agree on some kind of approach.	It was possible to a large extent to agree on some kind of approach	3328596	1472003756013	1472003756132	s	83
6486	69978	It was possible to a large extent to agree on some kind of approach.	It was possible to a large extent to agree on some kind of approach	3328599	1472003756138	1472003756253	 	32
6486	69978	It was possible to a large extent to agree on some kind of approach.	It was possible to a large extent to agree on some kind of approach	3328609	1472003756497	1472003756643	a	65
6486	69978	It was possible to a large extent to agree on some kind of approach.	It was possible to a large extent to agree on some kind of approach	3328617	1472003756876	1472003757038	BKSP	8
6486	69978	It was possible to a large extent to agree on some kind of approach.	It was possible to a large extent to agree on some kind of approach	3328622	1472003757436	1472003757543	p	80
6486	69978	It was possible to a large extent to agree on some kind of approach.	It was possible to a large extent to agree on some kind of approach	3328627	1472003757626	1472003757707	o	79
6486	69978	It was possible to a large extent to agree on some kind of approach.	It was possible to a large extent to agree on some kind of approach	3328594	1472003757827	1472003757915	s	83
6486	69978	It was possible to a large extent to agree on some kind of approach.	It was possible to a large extent to agree on some kind of approach	3328602	1472003757982	1472003758096	s	83
6486	69978	It was possible to a large extent to agree on some kind of approach.	It was possible to a large extent to agree on some kind of approach	3328610	1472003758307	1472003758417	i	73
6486	69978	It was possible to a large extent to agree on some kind of approach.	It was possible to a large extent to agree on some kind of approach	3328618	1472003758697	1472003758776	b	66
6486	69978	It was possible to a large extent to agree on some kind of approach.	It was possible to a large extent to agree on some kind of approach	3328623	1472003759036	1472003759145	l	76
6486	69978	It was possible to a large extent to agree on some kind of approach.	It was possible to a large extent to agree on some kind of approach	3328593	1472003759166	1472003759280	e	69
6486	69978	It was possible to a large extent to agree on some kind of approach.	It was possible to a large extent to agree on some kind of approach	3328600	1472003759325	1472003759411	 	32
6486	69978	It was possible to a large extent to agree on some kind of approach.	It was possible to a large extent to agree on some kind of approach	3328607	1472003760115	1472003760205	t	84
6486	69978	It was possible to a large extent to agree on some kind of approach.	It was possible to a large extent to agree on some kind of approach	3328614	1472003760221	1472003760351	o	79
6486	69978	It was possible to a large extent to agree on some kind of approach.	It was possible to a large extent to agree on some kind of approach	3328763	1472003760325	1472003760475	 	32
6486	69978	It was possible to a large extent to agree on some kind of approach.	It was possible to a large extent to agree on some kind of approach	3328764	1472003760572	1472003760680	l	76
6486	69978	It was possible to a large extent to agree on some kind of approach.	It was possible to a large extent to agree on some kind of approach	3328765	1472003760721	1472003760850	a	65
6486	69978	It was possible to a large extent to agree on some kind of approach.	It was possible to a large extent to agree on some kind of approach	3328766	1472003761750	1472003761910	t	84
6486	69978	It was possible to a large extent to agree on some kind of approach.	It was possible to a large extent to agree on some kind of approach	3328767	1472003762401	1472003762525	BKSP	8
6486	69978	It was possible to a large extent to agree on some kind of approach.	It was possible to a large extent to agree on some kind of approach	3328768	1472003762586	1472003762670	BKSP	8
6486	69978	It was possible to a large extent to agree on some kind of approach.	It was possible to a large extent to agree on some kind of approach	3328770	1472003762783	1472003762794	BKSP	8
6486	69978	It was possible to a large extent to agree on some kind of approach.	It was possible to a large extent to agree on some kind of approach	3328772	1472003763181	1472003763304	a	65
6486	69978	It was possible to a large extent to agree on some kind of approach.	It was possible to a large extent to agree on some kind of approach	3328842	1472003763290	1472003763404	 	32
6486	69978	It was possible to a large extent to agree on some kind of approach.	It was possible to a large extent to agree on some kind of approach	3328847	1472003763889	1472003763976	l	76
6486	69978	It was possible to a large extent to agree on some kind of approach.	It was possible to a large extent to agree on some kind of approach	3328850	1472003763979	1472003764104	a	65
6486	69978	It was possible to a large extent to agree on some kind of approach.	It was possible to a large extent to agree on some kind of approach	3328854	1472003764290	1472003764419	r	82
6486	69978	It was possible to a large extent to agree on some kind of approach.	It was possible to a large extent to agree on some kind of approach	3328857	1472003764689	1472003764774	g	71
6486	69978	It was possible to a large extent to agree on some kind of approach.	It was possible to a large extent to agree on some kind of approach	3328859	1472003764784	1472003764931	e	69
6486	69978	It was possible to a large extent to agree on some kind of approach.	It was possible to a large extent to agree on some kind of approach	3328952	1472003764959	1472003765061	 	32
6486	69978	It was possible to a large extent to agree on some kind of approach.	It was possible to a large extent to agree on some kind of approach	3328955	1472003765794	1472003765928	e	69
6486	69978	It was possible to a large extent to agree on some kind of approach.	It was possible to a large extent to agree on some kind of approach	3328959	1472003766448	1472003766578	x	88
6486	69978	It was possible to a large extent to agree on some kind of approach.	It was possible to a large extent to agree on some kind of approach	3328963	1472003766873	1472003767043	t	84
6486	69978	It was possible to a large extent to agree on some kind of approach.	It was possible to a large extent to agree on some kind of approach	3329051	1472003767031	1472003767178	e	69
6486	69978	It was possible to a large extent to agree on some kind of approach.	It was possible to a large extent to agree on some kind of approach	3329054	1472003767164	1472003767278	n	78
6486	69978	It was possible to a large extent to agree on some kind of approach.	It was possible to a large extent to agree on some kind of approach	3329062	1472003767388	1472003767508	t	84
6486	69978	It was possible to a large extent to agree on some kind of approach.	It was possible to a large extent to agree on some kind of approach	3329064	1472003767511	1472003767612	 	32
6486	69978	It was possible to a large extent to agree on some kind of approach.	It was possible to a large extent to agree on some kind of approach	3329068	1472003768448	1472003768577	t	84
6486	69978	It was possible to a large extent to agree on some kind of approach.	It was possible to a large extent to agree on some kind of approach	3329071	1472003768582	1472003768751	o	79
6486	69978	It was possible to a large extent to agree on some kind of approach.	It was possible to a large extent to agree on some kind of approach	3329152	1472003768737	1472003768877	 	32
6486	69978	It was possible to a large extent to agree on some kind of approach.	It was possible to a large extent to agree on some kind of approach	3329154	1472003768891	1472003769037	a	65
6486	69978	It was possible to a large extent to agree on some kind of approach.	It was possible to a large extent to agree on some kind of approach	3329158	1472003769656	1472003769806	g	71
6486	69978	It was possible to a large extent to agree on some kind of approach.	It was possible to a large extent to agree on some kind of approach	3329163	1472003769817	1472003769971	r	82
6486	69978	It was possible to a large extent to agree on some kind of approach.	It was possible to a large extent to agree on some kind of approach	3329167	1472003769892	1472003770016	e	69
6486	69978	It was possible to a large extent to agree on some kind of approach.	It was possible to a large extent to agree on some kind of approach	3329171	1472003770077	1472003770193	e	69
6486	69978	It was possible to a large extent to agree on some kind of approach.	It was possible to a large extent to agree on some kind of approach	3329264	1472003770197	1472003770317	 	32
6486	69978	It was possible to a large extent to agree on some kind of approach.	It was possible to a large extent to agree on some kind of approach	3329266	1472003771086	1472003771231	o	79
6486	69978	It was possible to a large extent to agree on some kind of approach.	It was possible to a large extent to agree on some kind of approach	3329269	1472003771360	1472003771446	n	78
6486	69978	It was possible to a large extent to agree on some kind of approach.	It was possible to a large extent to agree on some kind of approach	3329272	1472003771551	1472003771637	 	32
6486	69978	It was possible to a large extent to agree on some kind of approach.	It was possible to a large extent to agree on some kind of approach	3329276	1472003771796	1472003771925	t	84
6486	69978	It was possible to a large extent to agree on some kind of approach.	It was possible to a large extent to agree on some kind of approach	3329408	1472003771911	1472003772030	h	72
6486	69978	It was possible to a large extent to agree on some kind of approach.	It was possible to a large extent to agree on some kind of approach	3329410	1472003772066	1472003772235	e	69
6486	69978	It was possible to a large extent to agree on some kind of approach.	It was possible to a large extent to agree on some kind of approach	3329415	1472003772506	1472003772560	BKSP	8
6486	69978	It was possible to a large extent to agree on some kind of approach.	It was possible to a large extent to agree on some kind of approach	3329416	1472003772650	1472003772725	BKSP	8
6486	69978	It was possible to a large extent to agree on some kind of approach.	It was possible to a large extent to agree on some kind of approach	3329420	1472003772790	1472003772865	BKSP	8
6486	69978	It was possible to a large extent to agree on some kind of approach.	It was possible to a large extent to agree on some kind of approach	3329425	1472003773055	1472003773165	s	83
6486	69978	It was possible to a large extent to agree on some kind of approach.	It was possible to a large extent to agree on some kind of approach	3329432	1472003773140	1472003773260	o	79
6486	69978	It was possible to a large extent to agree on some kind of approach.	It was possible to a large extent to agree on some kind of approach	3329435	1472003773342	1472003773442	e	69
6486	69978	It was possible to a large extent to agree on some kind of approach.	It was possible to a large extent to agree on some kind of approach	3329436	1472003773775	1472003773887	BKSP	8
6486	69978	It was possible to a large extent to agree on some kind of approach.	It was possible to a large extent to agree on some kind of approach	3329437	1472003774005	1472003774095	m	77
6486	69978	It was possible to a large extent to agree on some kind of approach.	It was possible to a large extent to agree on some kind of approach	3329500	1472003774102	1472003774209	e	69
6486	69978	It was possible to a large extent to agree on some kind of approach.	It was possible to a large extent to agree on some kind of approach	3329503	1472003774195	1472003774295	 	32
6486	69978	It was possible to a large extent to agree on some kind of approach.	It was possible to a large extent to agree on some kind of approach	3329506	1472003775095	1472003775194	k	75
6486	69978	It was possible to a large extent to agree on some kind of approach.	It was possible to a large extent to agree on some kind of approach	3329510	1472003775286	1472003775374	i	73
6486	69978	It was possible to a large extent to agree on some kind of approach.	It was possible to a large extent to agree on some kind of approach	3329514	1472003775584	1472003775707	n	78
6486	69978	It was possible to a large extent to agree on some kind of approach.	It was possible to a large extent to agree on some kind of approach	3329761	1472003775849	1472003775959	d	68
6486	69978	It was possible to a large extent to agree on some kind of approach.	It was possible to a large extent to agree on some kind of approach	3329767	1472003775943	1472003776041	 	32
6486	69978	It was possible to a large extent to agree on some kind of approach.	It was possible to a large extent to agree on some kind of approach	3329772	1472003776779	1472003776893	o	79
6486	69978	It was possible to a large extent to agree on some kind of approach.	It was possible to a large extent to agree on some kind of approach	3329780	1472003777253	1472003777353	f	70
6486	69978	It was possible to a large extent to agree on some kind of approach.	It was possible to a large extent to agree on some kind of approach	3329786	1472003777363	1472003777453	 	32
6486	69978	It was possible to a large extent to agree on some kind of approach.	It was possible to a large extent to agree on some kind of approach	3329753	1472003777863	1472003777999	a	65
6486	69978	It was possible to a large extent to agree on some kind of approach.	It was possible to a large extent to agree on some kind of approach	3329757	1472003778647	1472003778736	p	80
6486	69978	It was possible to a large extent to agree on some kind of approach.	It was possible to a large extent to agree on some kind of approach	3329762	1472003778811	1472003778933	p	80
6486	69978	It was possible to a large extent to agree on some kind of approach.	It was possible to a large extent to agree on some kind of approach	3329768	1472003779178	1472003779304	r	82
6486	69978	It was possible to a large extent to agree on some kind of approach.	It was possible to a large extent to agree on some kind of approach	3329789	1472003779288	1472003779377	o	79
6486	69978	It was possible to a large extent to agree on some kind of approach.	It was possible to a large extent to agree on some kind of approach	3329791	1472003779627	1472003779787	a	65
6486	69978	It was possible to a large extent to agree on some kind of approach.	It was possible to a large extent to agree on some kind of approach	3329793	1472003780097	1472003780220	c	67
6486	69978	It was possible to a large extent to agree on some kind of approach.	It was possible to a large extent to agree on some kind of approach	3329794	1472003780225	1472003780352	h	72
6486	70009	I tried that to no avail.	I tried that to no avail	3330042	1472003783844	1472003784385	SHIFT	16
6486	70009	I tried that to no avail.	I tried that to no avail	3330038	1472003784236	1472003784335	I	73
6486	70009	I tried that to no avail.	I tried that to no avail	3330046	1472003784541	1472003784645	 	32
6486	70009	I tried that to no avail.	I tried that to no avail	3330050	1472003784881	1472003784975	t	84
6486	70009	I tried that to no avail.	I tried that to no avail	3330053	1472003785337	1472003785435	r	82
6486	70009	I tried that to no avail.	I tried that to no avail	3330056	1472003785486	1472003785595	i	73
6486	70009	I tried that to no avail.	I tried that to no avail	3330131	1472003785780	1472003785910	e	69
6486	70009	I tried that to no avail.	I tried that to no avail	3330135	1472003786006	1472003786114	d	68
6486	70009	I tried that to no avail.	I tried that to no avail	3330139	1472003786100	1472003786199	 	32
6486	70009	I tried that to no avail.	I tried that to no avail	3330144	1472003787010	1472003787134	t	84
6486	70009	I tried that to no avail.	I tried that to no avail	3330206	1472003787105	1472003787249	h	72
6486	70009	I tried that to no avail.	I tried that to no avail	3330207	1472003787289	1472003787423	a	65
6486	70009	I tried that to no avail.	I tried that to no avail	3330208	1472003787844	1472003787929	y	89
6486	70009	I tried that to no avail.	I tried that to no avail	3330209	1472003788523	1472003788654	t	84
6486	70009	I tried that to no avail.	I tried that to no avail	3330210	1472003788675	1472003788784	BKSP	8
6486	70009	I tried that to no avail.	I tried that to no avail	3330212	1472003788854	1472003788953	BKSP	8
6486	70009	I tried that to no avail.	I tried that to no avail	3330216	1472003788989	1472003789133	t	84
6486	70009	I tried that to no avail.	I tried that to no avail	3330219	1472003789204	1472003789318	 	32
6486	70009	I tried that to no avail.	I tried that to no avail	3330312	1472003790048	1472003790168	t	84
6486	70009	I tried that to no avail.	I tried that to no avail	3330313	1472003790289	1472003790403	o	79
6486	70009	I tried that to no avail.	I tried that to no avail	3330314	1472003790449	1472003790563	 	32
6486	70009	I tried that to no avail.	I tried that to no avail	3330315	1472003790844	1472003790983	n	78
6486	70009	I tried that to no avail.	I tried that to no avail	3330317	1472003791158	1472003791302	o	79
6486	70009	I tried that to no avail.	I tried that to no avail	3330477	1472003791637	1472003791742	 	32
6486	70009	I tried that to no avail.	I tried that to no avail	3330481	1472003792413	1472003792547	a	65
6486	70009	I tried that to no avail.	I tried that to no avail	3330485	1472003793327	1472003793407	v	86
6486	70009	I tried that to no avail.	I tried that to no avail	3330489	1472003793527	1472003793646	a	65
6486	70009	I tried that to no avail.	I tried that to no avail	3330492	1472003793732	1472003793821	i	73
6486	70009	I tried that to no avail.	I tried that to no avail	3330476	1472003793972	1472003794107	l	76
6486	70025	They lost to Nantes after extra-time.	They lost to Nantes after extra-time>	3330809	1472003798958	1472003799593	SHIFT	16
6486	70025	They lost to Nantes after extra-time.	They lost to Nantes after extra-time>	3330806	1472003799424	1472003799522	T	84
6486	70025	They lost to Nantes after extra-time.	They lost to Nantes after extra-time>	3330813	1472003799924	1472003800050	h	72
6486	70025	They lost to Nantes after extra-time.	They lost to Nantes after extra-time>	3330815	1472003800104	1472003800158	e	69
6486	70025	They lost to Nantes after extra-time.	They lost to Nantes after extra-time>	3330817	1472003800268	1472003800338	 	32
6486	70025	They lost to Nantes after extra-time.	They lost to Nantes after extra-time>	3330820	1472003800718	1472003800884	BKSP	8
6486	70025	They lost to Nantes after extra-time.	They lost to Nantes after extra-time>	3330822	1472003801463	1472003801582	y	89
6486	70025	They lost to Nantes after extra-time.	They lost to Nantes after extra-time>	3330892	1472003801533	1472003801637	 	32
6486	70025	They lost to Nantes after extra-time.	They lost to Nantes after extra-time>	3330894	1472003802199	1472003802292	l	76
6486	70025	They lost to Nantes after extra-time.	They lost to Nantes after extra-time>	3330897	1472003802398	1472003802512	o	79
6486	70025	They lost to Nantes after extra-time.	They lost to Nantes after extra-time>	3330900	1472003802562	1472003802698	s	83
6486	70025	They lost to Nantes after extra-time.	They lost to Nantes after extra-time>	3330904	1472003802822	1472003802917	t	84
6486	70025	They lost to Nantes after extra-time.	They lost to Nantes after extra-time>	3330907	1472003803087	1472003803241	 	32
6486	70025	They lost to Nantes after extra-time.	They lost to Nantes after extra-time>	3330951	1472003803332	1472003803452	t	84
6486	70025	They lost to Nantes after extra-time.	They lost to Nantes after extra-time>	3330953	1472003803437	1472003803598	o	79
6486	70025	They lost to Nantes after extra-time.	They lost to Nantes after extra-time>	3330955	1472003803581	1472003803726	 	32
6486	70025	They lost to Nantes after extra-time.	They lost to Nantes after extra-time>	3330960	1472003804236	1472003804486	SHIFT	16
6486	70025	They lost to Nantes after extra-time.	They lost to Nantes after extra-time>	3330957	1472003804366	1472003804451	N	78
6486	70025	They lost to Nantes after extra-time.	They lost to Nantes after extra-time>	3330963	1472003804716	1472003804815	a	65
6486	70025	They lost to Nantes after extra-time.	They lost to Nantes after extra-time>	3331049	1472003804826	1472003804916	t	84
6486	70025	They lost to Nantes after extra-time.	They lost to Nantes after extra-time>	3331052	1472003805251	1472003805406	BKSP	8
6486	70025	They lost to Nantes after extra-time.	They lost to Nantes after extra-time>	3331055	1472003805956	1472003806076	n	78
6486	70025	They lost to Nantes after extra-time.	They lost to Nantes after extra-time>	3331059	1472003806282	1472003806355	t	84
6486	70025	They lost to Nantes after extra-time.	They lost to Nantes after extra-time>	3331063	1472003806631	1472003806831	e	69
6486	70025	They lost to Nantes after extra-time.	They lost to Nantes after extra-time>	3331126	1472003806770	1472003806930	s	83
6486	70025	They lost to Nantes after extra-time.	They lost to Nantes after extra-time>	3331131	1472003806936	1472003807055	 	32
6486	70025	They lost to Nantes after extra-time.	They lost to Nantes after extra-time>	3331134	1472003807315	1472003807469	a	65
6486	70025	They lost to Nantes after extra-time.	They lost to Nantes after extra-time>	3331136	1472003807827	1472003807940	f	70
6486	70025	They lost to Nantes after extra-time.	They lost to Nantes after extra-time>	3331138	1472003808069	1472003808160	t	84
6486	70025	They lost to Nantes after extra-time.	They lost to Nantes after extra-time>	3331142	1472003808185	1472003808275	e	69
6486	70025	They lost to Nantes after extra-time.	They lost to Nantes after extra-time>	3331251	1472003808350	1472003808445	r	82
6486	70025	They lost to Nantes after extra-time.	They lost to Nantes after extra-time>	3331256	1472003808450	1472003808565	 	32
6486	70025	They lost to Nantes after extra-time.	They lost to Nantes after extra-time>	3331260	1472003809165	1472003809275	e	69
6486	70025	They lost to Nantes after extra-time.	They lost to Nantes after extra-time>	3331267	1472003809749	1472003809859	x	88
6486	70025	They lost to Nantes after extra-time.	They lost to Nantes after extra-time>	3331273	1472003810321	1472003810518	t	84
6486	70025	They lost to Nantes after extra-time.	They lost to Nantes after extra-time>	3331385	1472003810430	1472003810593	r	82
6486	70025	They lost to Nantes after extra-time.	They lost to Nantes after extra-time>	3331387	1472003810893	1472003811058	a	65
6486	70025	They lost to Nantes after extra-time.	They lost to Nantes after extra-time>	3331389	1472003811349	1472003811929	SHIFT	16
6486	70025	They lost to Nantes after extra-time.	They lost to Nantes after extra-time>	3331392	1472003812070	1472003812193	-	189
6486	70025	They lost to Nantes after extra-time.	They lost to Nantes after extra-time>	3331395	1472003813167	1472003813278	t	84
6486	70025	They lost to Nantes after extra-time.	They lost to Nantes after extra-time>	3331398	1472003813373	1472003813487	i	73
6486	70025	They lost to Nantes after extra-time.	They lost to Nantes after extra-time>	3331403	1472003813613	1472003813722	m	77
6486	70025	They lost to Nantes after extra-time.	They lost to Nantes after extra-time>	3331425	1472003813728	1472003813857	e	69
6486	70025	They lost to Nantes after extra-time.	They lost to Nantes after extra-time>	3331431	1472003814012	1472003814365	SHIFT	16
6486	70025	They lost to Nantes after extra-time.	They lost to Nantes after extra-time>	3331427	1472003814237	1472003814352	>	190
6486	70049	What does Hunter think?	What does Hunter think?	3331647	1472003817576	1472003818150	SHIFT	16
6486	70049	What does Hunter think?	What does Hunter think?	3331650	1472003818030	1472003818180	W	87
6486	70049	What does Hunter think?	What does Hunter think?	3331654	1472003818240	1472003818320	h	72
6486	70049	What does Hunter think?	What does Hunter think?	3331657	1472003818420	1472003818526	a	65
6486	70049	What does Hunter think?	What does Hunter think?	3331662	1472003818455	1472003818565	t	84
6486	70049	What does Hunter think?	What does Hunter think?	3331667	1472003818758	1472003818899	 	32
6486	70049	What does Hunter think?	What does Hunter think?	3331737	1472003819510	1472003819595	d	68
6486	70049	What does Hunter think?	What does Hunter think?	3331741	1472003819705	1472003819814	o	79
6486	70049	What does Hunter think?	What does Hunter think?	3331744	1472003819879	1472003819989	e	69
6486	70049	What does Hunter think?	What does Hunter think?	3331748	1472003820075	1472003820212	s	83
6486	70049	What does Hunter think?	What does Hunter think?	3331836	1472003820195	1472003820254	 	32
6486	70049	What does Hunter think?	What does Hunter think?	3331841	1472003821218	1472003821439	SHIFT	16
6486	70049	What does Hunter think?	What does Hunter think?	3331838	1472003821339	1472003821418	H	72
6486	70049	What does Hunter think?	What does Hunter think?	3331845	1472003821609	1472003821709	u	85
6486	70049	What does Hunter think?	What does Hunter think?	3331853	1472003821809	1472003821913	n	78
6486	70049	What does Hunter think?	What does Hunter think?	3331859	1472003822073	1472003822193	t	84
6486	70049	What does Hunter think?	What does Hunter think?	3331865	1472003822333	1472003822459	e	69
6486	70049	What does Hunter think?	What does Hunter think?	3331970	1472003822411	1472003822548	r	82
6486	70049	What does Hunter think?	What does Hunter think?	3331974	1472003822553	1472003822638	 	32
6486	70049	What does Hunter think?	What does Hunter think?	3331977	1472003823477	1472003823588	t	84
6486	70049	What does Hunter think?	What does Hunter think?	3331979	1472003823533	1472003823682	h	72
6486	70049	What does Hunter think?	What does Hunter think?	3331980	1472003823818	1472003823937	i	73
6486	70049	What does Hunter think?	What does Hunter think?	3331981	1472003824797	1472003824936	n	78
6486	70049	What does Hunter think?	What does Hunter think?	3332020	1472003824867	1472003825012	k	75
6486	70049	What does Hunter think?	What does Hunter think?	3332021	1472003825347	1472003825921	SHIFT	16
6486	70049	What does Hunter think?	What does Hunter think?	3332024	1472003825797	1472003825935	?	191
