PARTICIPANT_ID	TEST_SECTION_ID	SENTENCE	USER_INPUT	KEYSTROKE_ID	PRESS_TIME	RELEASE_TIME	LETTER	KEYCODE
6658	71575	We are on a plane coming back.	We are on a plane coming back.	3403899	1472005307660	1472005307677	CTRL	17
6658	71575	We are on a plane coming back.	We are on a plane coming back.	3403902	1472005307681	1472005307948	CTRL	17
6658	71575	We are on a plane coming back.	We are on a plane coming back.	3403905	1472005313229	1472005314042	SHIFT	16
6658	71575	We are on a plane coming back.	We are on a plane coming back.	3403908	1472005314134	1472005314262	w	87
6658	71575	We are on a plane coming back.	We are on a plane coming back.	3403912	1472005314636	1472005314768	e	69
6658	71575	We are on a plane coming back.	We are on a plane coming back.	3403916	1472005315319	1472005315388	 	32
6658	71575	We are on a plane coming back.	We are on a plane coming back.	3403922	1472005315786	1472005315896	BKSP	8
6658	71575	We are on a plane coming back.	We are on a plane coming back.	3403928	1472005315978	1472005316056	BKSP	8
6658	71575	We are on a plane coming back.	We are on a plane coming back.	3403935	1472005316134	1472005316264	BKSP	8
6658	71575	We are on a plane coming back.	We are on a plane coming back.	3403948	1472005316632	1472005317582	SHIFT	16
6658	71575	We are on a plane coming back.	We are on a plane coming back.	3403941	1472005317142	1472005317316	W	87
6658	71575	We are on a plane coming back.	We are on a plane coming back.	3403956	1472005317603	1472005317744	e	69
6658	71575	We are on a plane coming back.	We are on a plane coming back.	3404131	1472005319651	1472005319814	 	32
6658	71575	We are on a plane coming back.	We are on a plane coming back.	3404133	1472005319943	1472005320135	a	65
6658	71575	We are on a plane coming back.	We are on a plane coming back.	3404136	1472005320266	1472005320391	r	82
6658	71575	We are on a plane coming back.	We are on a plane coming back.	3404139	1472005320547	1472005320684	e	69
6658	71575	We are on a plane coming back.	We are on a plane coming back.	3404146	1472005320772	1472005320893	 	32
6658	71575	We are on a plane coming back.	We are on a plane coming back.	3404236	1472005321342	1472005321449	o	79
6658	71575	We are on a plane coming back.	We are on a plane coming back.	3404237	1472005321744	1472005321875	n	78
6658	71575	We are on a plane coming back.	We are on a plane coming back.	3404238	1472005321897	1472005322030	 	32
6658	71575	We are on a plane coming back.	We are on a plane coming back.	3404239	1472005322440	1472005322616	a	65
6658	71575	We are on a plane coming back.	We are on a plane coming back.	3404240	1472005322673	1472005322824	 	32
6658	71575	We are on a plane coming back.	We are on a plane coming back.	3404340	1472005323350	1472005323511	p	80
6658	71575	We are on a plane coming back.	We are on a plane coming back.	3404343	1472005323512	1472005323664	a	65
6658	71575	We are on a plane coming back.	We are on a plane coming back.	3404346	1472005323690	1472005323753	l	76
6658	71575	We are on a plane coming back.	We are on a plane coming back.	3404349	1472005324176	1472005324244	BKSP	8
6658	71575	We are on a plane coming back.	We are on a plane coming back.	3404352	1472005324326	1472005324430	BKSP	8
6658	71575	We are on a plane coming back.	We are on a plane coming back.	3404355	1472005324751	1472005324887	l	76
6658	71575	We are on a plane coming back.	We are on a plane coming back.	3404502	1472005324854	1472005325011	a	65
6658	71575	We are on a plane coming back.	We are on a plane coming back.	3404503	1472005325095	1472005325190	n	78
6658	71575	We are on a plane coming back.	We are on a plane coming back.	3404504	1472005325413	1472005325533	e	69
6658	71575	We are on a plane coming back.	We are on a plane coming back.	3404505	1472005325573	1472005325725	 	32
6658	71575	We are on a plane coming back.	We are on a plane coming back.	3404506	1472005327000	1472005327154	c	67
6658	71575	We are on a plane coming back.	We are on a plane coming back.	3404508	1472005327361	1472005327481	o	79
6658	71575	We are on a plane coming back.	We are on a plane coming back.	3404594	1472005327696	1472005327818	m	77
6658	71575	We are on a plane coming back.	We are on a plane coming back.	3404597	1472005328088	1472005328202	i	73
6658	71575	We are on a plane coming back.	We are on a plane coming back.	3404602	1472005328394	1472005328492	n	78
6658	71575	We are on a plane coming back.	We are on a plane coming back.	3404605	1472005328497	1472005328616	g	71
6658	71575	We are on a plane coming back.	We are on a plane coming back.	3404610	1472005328722	1472005328880	 	32
6658	71575	We are on a plane coming back.	We are on a plane coming back.	3404763	1472005329251	1472005329385	b	66
6658	71575	We are on a plane coming back.	We are on a plane coming back.	3404766	1472005329398	1472005329539	a	65
6658	71575	We are on a plane coming back.	We are on a plane coming back.	3404769	1472005330223	1472005330298	x	88
6658	71575	We are on a plane coming back.	We are on a plane coming back.	3404771	1472005330495	1472005330642	k	75
6658	71575	We are on a plane coming back.	We are on a plane coming back.	3404773	1472005330923	1472005331018	BKSP	8
6658	71575	We are on a plane coming back.	We are on a plane coming back.	3404776	1472005331104	1472005331183	BKSP	8
6658	71575	We are on a plane coming back.	We are on a plane coming back.	3404779	1472005331523	1472005331638	c	67
6658	71575	We are on a plane coming back.	We are on a plane coming back.	3404806	1472005331688	1472005331741	k	75
6658	71575	We are on a plane coming back.	We are on a plane coming back.	3404808	1472005332340	1472005332411	.	190
6658	71613	Contact Lisa Mellencamp on any issues regarding pending litigation.	Contact  Lisa Mellencamp on any issues regarding pending litigation.	3405411	1472005341092	1472005341773	SHIFT	16
6658	71613	Contact Lisa Mellencamp on any issues regarding pending litigation.	Contact  Lisa Mellencamp on any issues regarding pending litigation.	3405414	1472005341873	1472005342037	c	67
6658	71613	Contact Lisa Mellencamp on any issues regarding pending litigation.	Contact  Lisa Mellencamp on any issues regarding pending litigation.	3405417	1472005342995	1472005343221	BKSP	8
6658	71613	Contact Lisa Mellencamp on any issues regarding pending litigation.	Contact  Lisa Mellencamp on any issues regarding pending litigation.	3405424	1472005343225	1472005343833	SHIFT	16
6658	71613	Contact Lisa Mellencamp on any issues regarding pending litigation.	Contact  Lisa Mellencamp on any issues regarding pending litigation.	3405420	1472005343492	1472005343733	C	67
6658	71613	Contact Lisa Mellencamp on any issues regarding pending litigation.	Contact  Lisa Mellencamp on any issues regarding pending litigation.	3405429	1472005344948	1472005345140	o	79
6658	71613	Contact Lisa Mellencamp on any issues regarding pending litigation.	Contact  Lisa Mellencamp on any issues regarding pending litigation.	3405433	1472005345172	1472005345219	o	79
6658	71613	Contact Lisa Mellencamp on any issues regarding pending litigation.	Contact  Lisa Mellencamp on any issues regarding pending litigation.	3405438	1472005345257	1472005345371	n	78
6658	71613	Contact Lisa Mellencamp on any issues regarding pending litigation.	Contact  Lisa Mellencamp on any issues regarding pending litigation.	3405534	1472005345499	1472005345617	t	84
6658	71613	Contact Lisa Mellencamp on any issues regarding pending litigation.	Contact  Lisa Mellencamp on any issues regarding pending litigation.	3405538	1472005346083	1472005346178	BKSP	8
6658	71613	Contact Lisa Mellencamp on any issues regarding pending litigation.	Contact  Lisa Mellencamp on any issues regarding pending litigation.	3405545	1472005346264	1472005346363	BKSP	8
6658	71613	Contact Lisa Mellencamp on any issues regarding pending litigation.	Contact  Lisa Mellencamp on any issues regarding pending litigation.	3405554	1472005346388	1472005346484	BKSP	8
6658	71613	Contact Lisa Mellencamp on any issues regarding pending litigation.	Contact  Lisa Mellencamp on any issues regarding pending litigation.	3405564	1472005346947	1472005347025	n	78
6658	71613	Contact Lisa Mellencamp on any issues regarding pending litigation.	Contact  Lisa Mellencamp on any issues regarding pending litigation.	3405570	1472005347320	1472005347435	t	84
6658	71613	Contact Lisa Mellencamp on any issues regarding pending litigation.	Contact  Lisa Mellencamp on any issues regarding pending litigation.	3405577	1472005347588	1472005347751	a	65
6658	71613	Contact Lisa Mellencamp on any issues regarding pending litigation.	Contact  Lisa Mellencamp on any issues regarding pending litigation.	3405581	1472005347947	1472005348149	x	88
6658	71613	Contact Lisa Mellencamp on any issues regarding pending litigation.	Contact  Lisa Mellencamp on any issues regarding pending litigation.	3405756	1472005348643	1472005348740	BKSP	8
6658	71613	Contact Lisa Mellencamp on any issues regarding pending litigation.	Contact  Lisa Mellencamp on any issues regarding pending litigation.	3405761	1472005348714	1472005348794	c	67
6658	71613	Contact Lisa Mellencamp on any issues regarding pending litigation.	Contact  Lisa Mellencamp on any issues regarding pending litigation.	3405765	1472005349304	1472005349422	t	84
6658	71613	Contact Lisa Mellencamp on any issues regarding pending litigation.	Contact  Lisa Mellencamp on any issues regarding pending litigation.	3405769	1472005349725	1472005349769	 	32
6658	71613	Contact Lisa Mellencamp on any issues regarding pending litigation.	Contact  Lisa Mellencamp on any issues regarding pending litigation.	3405772	1472005349857	1472005349964	 	32
6658	71613	Contact Lisa Mellencamp on any issues regarding pending litigation.	Contact  Lisa Mellencamp on any issues regarding pending litigation.	3405896	1472005351212	1472005351635	SHIFT	16
6658	71613	Contact Lisa Mellencamp on any issues regarding pending litigation.	Contact  Lisa Mellencamp on any issues regarding pending litigation.	3405775	1472005351398	1472005351559	L	76
6658	71613	Contact Lisa Mellencamp on any issues regarding pending litigation.	Contact  Lisa Mellencamp on any issues regarding pending litigation.	3405899	1472005351906	1472005352015	i	73
6658	71613	Contact Lisa Mellencamp on any issues regarding pending litigation.	Contact  Lisa Mellencamp on any issues regarding pending litigation.	3405903	1472005352559	1472005352646	d	68
6658	71613	Contact Lisa Mellencamp on any issues regarding pending litigation.	Contact  Lisa Mellencamp on any issues regarding pending litigation.	3405905	1472005353153	1472005353292	BKSP	8
6658	71613	Contact Lisa Mellencamp on any issues regarding pending litigation.	Contact  Lisa Mellencamp on any issues regarding pending litigation.	3405907	1472005353267	1472005353399	s	83
6658	71613	Contact Lisa Mellencamp on any issues regarding pending litigation.	Contact  Lisa Mellencamp on any issues regarding pending litigation.	3405909	1472005353792	1472005353905	a	65
6658	71613	Contact Lisa Mellencamp on any issues regarding pending litigation.	Contact  Lisa Mellencamp on any issues regarding pending litigation.	3405911	1472005354011	1472005354154	 	32
6658	71613	Contact Lisa Mellencamp on any issues regarding pending litigation.	Contact  Lisa Mellencamp on any issues regarding pending litigation.	3406011	1472005354907	1472005355235	SHIFT	16
6658	71613	Contact Lisa Mellencamp on any issues regarding pending litigation.	Contact  Lisa Mellencamp on any issues regarding pending litigation.	3406005	1472005355048	1472005355207	M	77
6658	71613	Contact Lisa Mellencamp on any issues regarding pending litigation.	Contact  Lisa Mellencamp on any issues regarding pending litigation.	3406015	1472005355339	1472005355450	e	69
6658	71613	Contact Lisa Mellencamp on any issues regarding pending litigation.	Contact  Lisa Mellencamp on any issues regarding pending litigation.	3406018	1472005355479	1472005355557	l	76
6658	71613	Contact Lisa Mellencamp on any issues regarding pending litigation.	Contact  Lisa Mellencamp on any issues regarding pending litigation.	3406021	1472005355659	1472005355722	l	76
6658	71613	Contact Lisa Mellencamp on any issues regarding pending litigation.	Contact  Lisa Mellencamp on any issues regarding pending litigation.	3406024	1472005355800	1472005355903	e	69
6658	71613	Contact Lisa Mellencamp on any issues regarding pending litigation.	Contact  Lisa Mellencamp on any issues regarding pending litigation.	3406075	1472005356313	1472005356392	n	78
6658	71613	Contact Lisa Mellencamp on any issues regarding pending litigation.	Contact  Lisa Mellencamp on any issues regarding pending litigation.	3406076	1472005356431	1472005356514	c	67
6658	71613	Contact Lisa Mellencamp on any issues regarding pending litigation.	Contact  Lisa Mellencamp on any issues regarding pending litigation.	3406078	1472005356803	1472005356920	a	65
6658	71613	Contact Lisa Mellencamp on any issues regarding pending litigation.	Contact  Lisa Mellencamp on any issues regarding pending litigation.	3406080	1472005356895	1472005356979	m	77
6658	71613	Contact Lisa Mellencamp on any issues regarding pending litigation.	Contact  Lisa Mellencamp on any issues regarding pending litigation.	3406083	1472005357244	1472005357355	p	80
6658	71613	Contact Lisa Mellencamp on any issues regarding pending litigation.	Contact  Lisa Mellencamp on any issues regarding pending litigation.	3406218	1472005358023	1472005358155	 	32
6658	71613	Contact Lisa Mellencamp on any issues regarding pending litigation.	Contact  Lisa Mellencamp on any issues regarding pending litigation.	3406222	1472005359337	1472005359456	o	79
6658	71613	Contact Lisa Mellencamp on any issues regarding pending litigation.	Contact  Lisa Mellencamp on any issues regarding pending litigation.	3406227	1472005359668	1472005359801	n	78
6658	71613	Contact Lisa Mellencamp on any issues regarding pending litigation.	Contact  Lisa Mellencamp on any issues regarding pending litigation.	3406233	1472005360118	1472005360527	 	32
6658	71613	Contact Lisa Mellencamp on any issues regarding pending litigation.	Contact  Lisa Mellencamp on any issues regarding pending litigation.	3406237	1472005360792	1472005360946	a	65
6658	71613	Contact Lisa Mellencamp on any issues regarding pending litigation.	Contact  Lisa Mellencamp on any issues regarding pending litigation.	3406330	1472005360939	1472005361039	n	78
6658	71613	Contact Lisa Mellencamp on any issues regarding pending litigation.	Contact  Lisa Mellencamp on any issues regarding pending litigation.	3406334	1472005361648	1472005361740	y	89
6658	71613	Contact Lisa Mellencamp on any issues regarding pending litigation.	Contact  Lisa Mellencamp on any issues regarding pending litigation.	3406342	1472005361856	1472005362046	 	32
6658	71613	Contact Lisa Mellencamp on any issues regarding pending litigation.	Contact  Lisa Mellencamp on any issues regarding pending litigation.	3406349	1472005362250	1472005362355	i	73
6658	71613	Contact Lisa Mellencamp on any issues regarding pending litigation.	Contact  Lisa Mellencamp on any issues regarding pending litigation.	3406357	1472005362449	1472005362548	s	83
6658	71613	Contact Lisa Mellencamp on any issues regarding pending litigation.	Contact  Lisa Mellencamp on any issues regarding pending litigation.	3406361	1472005362638	1472005362749	s	83
6658	71613	Contact Lisa Mellencamp on any issues regarding pending litigation.	Contact  Lisa Mellencamp on any issues regarding pending litigation.	3406416	1472005362854	1472005362978	u	85
6658	71613	Contact Lisa Mellencamp on any issues regarding pending litigation.	Contact  Lisa Mellencamp on any issues regarding pending litigation.	3406423	1472005363000	1472005363100	e	69
6658	71613	Contact Lisa Mellencamp on any issues regarding pending litigation.	Contact  Lisa Mellencamp on any issues regarding pending litigation.	3406425	1472005363206	1472005363365	s	83
6658	71613	Contact Lisa Mellencamp on any issues regarding pending litigation.	Contact  Lisa Mellencamp on any issues regarding pending litigation.	3406427	1472005363425	1472005363565	 	32
6658	71613	Contact Lisa Mellencamp on any issues regarding pending litigation.	Contact  Lisa Mellencamp on any issues regarding pending litigation.	3406430	1472005363884	1472005363994	r	82
6658	71613	Contact Lisa Mellencamp on any issues regarding pending litigation.	Contact  Lisa Mellencamp on any issues regarding pending litigation.	3406520	1472005364094	1472005364184	e	69
6658	71613	Contact Lisa Mellencamp on any issues regarding pending litigation.	Contact  Lisa Mellencamp on any issues regarding pending litigation.	3406525	1472005364811	1472005364902	g	71
6658	71613	Contact Lisa Mellencamp on any issues regarding pending litigation.	Contact  Lisa Mellencamp on any issues regarding pending litigation.	3406531	1472005365040	1472005365220	a	65
6658	71613	Contact Lisa Mellencamp on any issues regarding pending litigation.	Contact  Lisa Mellencamp on any issues regarding pending litigation.	3406538	1472005365308	1472005365388	r	82
6658	71613	Contact Lisa Mellencamp on any issues regarding pending litigation.	Contact  Lisa Mellencamp on any issues regarding pending litigation.	3406543	1472005365538	1472005365663	d	68
6658	71613	Contact Lisa Mellencamp on any issues regarding pending litigation.	Contact  Lisa Mellencamp on any issues regarding pending litigation.	3406610	1472005365737	1472005365870	i	73
6658	71613	Contact Lisa Mellencamp on any issues regarding pending litigation.	Contact  Lisa Mellencamp on any issues regarding pending litigation.	3406614	1472005366126	1472005366198	g	71
6658	71613	Contact Lisa Mellencamp on any issues regarding pending litigation.	Contact  Lisa Mellencamp on any issues regarding pending litigation.	3406618	1472005366207	1472005366327	n	78
6658	71613	Contact Lisa Mellencamp on any issues regarding pending litigation.	Contact  Lisa Mellencamp on any issues regarding pending litigation.	3406622	1472005366633	1472005366714	BKSP	8
6658	71613	Contact Lisa Mellencamp on any issues regarding pending litigation.	Contact  Lisa Mellencamp on any issues regarding pending litigation.	3406626	1472005366807	1472005366902	BKSP	8
6658	71613	Contact Lisa Mellencamp on any issues regarding pending litigation.	Contact  Lisa Mellencamp on any issues regarding pending litigation.	3406631	1472005367186	1472005367269	n	78
6658	71613	Contact Lisa Mellencamp on any issues regarding pending litigation.	Contact  Lisa Mellencamp on any issues regarding pending litigation.	3406634	1472005367314	1472005367405	g	71
6658	71613	Contact Lisa Mellencamp on any issues regarding pending litigation.	Contact  Lisa Mellencamp on any issues regarding pending litigation.	3406775	1472005367473	1472005367599	 	32
6658	71613	Contact Lisa Mellencamp on any issues regarding pending litigation.	Contact  Lisa Mellencamp on any issues regarding pending litigation.	3406777	1472005369200	1472005369290	p	80
6658	71613	Contact Lisa Mellencamp on any issues regarding pending litigation.	Contact  Lisa Mellencamp on any issues regarding pending litigation.	3406780	1472005369609	1472005369704	e	69
6658	71613	Contact Lisa Mellencamp on any issues regarding pending litigation.	Contact  Lisa Mellencamp on any issues regarding pending litigation.	3406782	1472005369890	1472005370040	n	78
6658	71613	Contact Lisa Mellencamp on any issues regarding pending litigation.	Contact  Lisa Mellencamp on any issues regarding pending litigation.	3406784	1472005370266	1472005370354	d	68
6658	71613	Contact Lisa Mellencamp on any issues regarding pending litigation.	Contact  Lisa Mellencamp on any issues regarding pending litigation.	3406867	1472005370383	1472005370457	i	73
6658	71613	Contact Lisa Mellencamp on any issues regarding pending litigation.	Contact  Lisa Mellencamp on any issues regarding pending litigation.	3406870	1472005370604	1472005370702	n	78
6658	71613	Contact Lisa Mellencamp on any issues regarding pending litigation.	Contact  Lisa Mellencamp on any issues regarding pending litigation.	3406875	1472005370699	1472005370812	g	71
6658	71613	Contact Lisa Mellencamp on any issues regarding pending litigation.	Contact  Lisa Mellencamp on any issues regarding pending litigation.	3406878	1472005370987	1472005371143	 	32
6658	71613	Contact Lisa Mellencamp on any issues regarding pending litigation.	Contact  Lisa Mellencamp on any issues regarding pending litigation.	3406885	1472005371992	1472005372112	l	76
6658	71613	Contact Lisa Mellencamp on any issues regarding pending litigation.	Contact  Lisa Mellencamp on any issues regarding pending litigation.	3406988	1472005372660	1472005372774	i	73
6658	71613	Contact Lisa Mellencamp on any issues regarding pending litigation.	Contact  Lisa Mellencamp on any issues regarding pending litigation.	3406990	1472005373006	1472005373118	t	84
6658	71613	Contact Lisa Mellencamp on any issues regarding pending litigation.	Contact  Lisa Mellencamp on any issues regarding pending litigation.	3406992	1472005373260	1472005373368	i	73
6658	71613	Contact Lisa Mellencamp on any issues regarding pending litigation.	Contact  Lisa Mellencamp on any issues regarding pending litigation.	3406995	1472005373343	1472005373442	g	71
6658	71613	Contact Lisa Mellencamp on any issues regarding pending litigation.	Contact  Lisa Mellencamp on any issues regarding pending litigation.	3406998	1472005373581	1472005373726	a	65
6658	71613	Contact Lisa Mellencamp on any issues regarding pending litigation.	Contact  Lisa Mellencamp on any issues regarding pending litigation.	3407083	1472005373844	1472005373945	t	84
6658	71613	Contact Lisa Mellencamp on any issues regarding pending litigation.	Contact  Lisa Mellencamp on any issues regarding pending litigation.	3407085	1472005373954	1472005374057	i	73
6658	71613	Contact Lisa Mellencamp on any issues regarding pending litigation.	Contact  Lisa Mellencamp on any issues regarding pending litigation.	3407090	1472005374292	1472005374389	o	79
6658	71613	Contact Lisa Mellencamp on any issues regarding pending litigation.	Contact  Lisa Mellencamp on any issues regarding pending litigation.	3407094	1472005374572	1472005374675	n	78
6658	71613	Contact Lisa Mellencamp on any issues regarding pending litigation.	Contact  Lisa Mellencamp on any issues regarding pending litigation.	3407099	1472005375556	1472005375621	.	190
6658	71663	For safety reasons, the turkey will be carved in a private ceremony.	For saftey reasons, the turkey will be carved in a private ceremony.	3407379	1472005378140	1472005378976	SHIFT	16
6658	71663	For safety reasons, the turkey will be carved in a private ceremony.	For saftey reasons, the turkey will be carved in a private ceremony.	3407377	1472005378788	1472005378954	F	70
6658	71663	For safety reasons, the turkey will be carved in a private ceremony.	For saftey reasons, the turkey will be carved in a private ceremony.	3407382	1472005379575	1472005379697	o	79
6658	71663	For safety reasons, the turkey will be carved in a private ceremony.	For saftey reasons, the turkey will be carved in a private ceremony.	3407385	1472005379840	1472005379942	r	82
6658	71663	For safety reasons, the turkey will be carved in a private ceremony.	For saftey reasons, the turkey will be carved in a private ceremony.	3407388	1472005380191	1472005380326	 	32
6658	71663	For safety reasons, the turkey will be carved in a private ceremony.	For saftey reasons, the turkey will be carved in a private ceremony.	3407391	1472005380723	1472005380837	s	83
6658	71663	For safety reasons, the turkey will be carved in a private ceremony.	For saftey reasons, the turkey will be carved in a private ceremony.	3407452	1472005380942	1472005381125	a	65
6658	71663	For safety reasons, the turkey will be carved in a private ceremony.	For saftey reasons, the turkey will be carved in a private ceremony.	3407458	1472005381258	1472005381355	f	70
6658	71663	For safety reasons, the turkey will be carved in a private ceremony.	For saftey reasons, the turkey will be carved in a private ceremony.	3407462	1472005381556	1472005381644	t	84
6658	71663	For safety reasons, the turkey will be carved in a private ceremony.	For saftey reasons, the turkey will be carved in a private ceremony.	3407465	1472005381828	1472005381921	e	69
6658	71663	For safety reasons, the turkey will be carved in a private ceremony.	For saftey reasons, the turkey will be carved in a private ceremony.	3407468	1472005382372	1472005382422	y	89
6658	71663	For safety reasons, the turkey will be carved in a private ceremony.	For saftey reasons, the turkey will be carved in a private ceremony.	3407531	1472005382712	1472005382843	 	32
6658	71663	For safety reasons, the turkey will be carved in a private ceremony.	For saftey reasons, the turkey will be carved in a private ceremony.	3407534	1472005383086	1472005383202	r	82
6658	71663	For safety reasons, the turkey will be carved in a private ceremony.	For saftey reasons, the turkey will be carved in a private ceremony.	3407536	1472005383315	1472005383496	e	69
6658	71663	For safety reasons, the turkey will be carved in a private ceremony.	For saftey reasons, the turkey will be carved in a private ceremony.	3407539	1472005383631	1472005383783	a	65
6658	71663	For safety reasons, the turkey will be carved in a private ceremony.	For saftey reasons, the turkey will be carved in a private ceremony.	3407542	1472005384168	1472005384338	s	83
6658	71663	For safety reasons, the turkey will be carved in a private ceremony.	For saftey reasons, the turkey will be carved in a private ceremony.	3407657	1472005384575	1472005384706	o	79
6658	71663	For safety reasons, the turkey will be carved in a private ceremony.	For saftey reasons, the turkey will be carved in a private ceremony.	3407666	1472005384953	1472005385095	n	78
6658	71663	For safety reasons, the turkey will be carved in a private ceremony.	For saftey reasons, the turkey will be carved in a private ceremony.	3407672	1472005385411	1472005385585	s	83
6658	71663	For safety reasons, the turkey will be carved in a private ceremony.	For saftey reasons, the turkey will be carved in a private ceremony.	3407676	1472005386090	1472005386211	,	188
6658	71663	For safety reasons, the turkey will be carved in a private ceremony.	For saftey reasons, the turkey will be carved in a private ceremony.	3407679	1472005386372	1472005386477	 	32
6658	71663	For safety reasons, the turkey will be carved in a private ceremony.	For saftey reasons, the turkey will be carved in a private ceremony.	3407747	1472005387376	1472005387489	t	84
6658	71663	For safety reasons, the turkey will be carved in a private ceremony.	For saftey reasons, the turkey will be carved in a private ceremony.	3407750	1472005387509	1472005387610	h	72
6658	71663	For safety reasons, the turkey will be carved in a private ceremony.	For saftey reasons, the turkey will be carved in a private ceremony.	3407756	1472005387642	1472005387784	e	69
6658	71663	For safety reasons, the turkey will be carved in a private ceremony.	For saftey reasons, the turkey will be carved in a private ceremony.	3407764	1472005387811	1472005387976	 	32
6658	71663	For safety reasons, the turkey will be carved in a private ceremony.	For saftey reasons, the turkey will be carved in a private ceremony.	3407772	1472005388089	1472005388189	t	84
6658	71663	For safety reasons, the turkey will be carved in a private ceremony.	For saftey reasons, the turkey will be carved in a private ceremony.	3407828	1472005388324	1472005388440	u	85
6658	71663	For safety reasons, the turkey will be carved in a private ceremony.	For saftey reasons, the turkey will be carved in a private ceremony.	3407831	1472005388403	1472005388515	r	82
6658	71663	For safety reasons, the turkey will be carved in a private ceremony.	For saftey reasons, the turkey will be carved in a private ceremony.	3407835	1472005388676	1472005388801	k	75
6658	71663	For safety reasons, the turkey will be carved in a private ceremony.	For saftey reasons, the turkey will be carved in a private ceremony.	3407838	1472005388831	1472005388940	e	69
6658	71663	For safety reasons, the turkey will be carved in a private ceremony.	For saftey reasons, the turkey will be carved in a private ceremony.	3407843	1472005389199	1472005389323	y	89
6658	71663	For safety reasons, the turkey will be carved in a private ceremony.	For saftey reasons, the turkey will be carved in a private ceremony.	3407893	1472005389451	1472005389656	 	32
6658	71663	For safety reasons, the turkey will be carved in a private ceremony.	For saftey reasons, the turkey will be carved in a private ceremony.	3407895	1472005389853	1472005390015	e	69
6658	71663	For safety reasons, the turkey will be carved in a private ceremony.	For saftey reasons, the turkey will be carved in a private ceremony.	3407898	1472005390031	1472005390122	i	73
6658	71663	For safety reasons, the turkey will be carved in a private ceremony.	For saftey reasons, the turkey will be carved in a private ceremony.	3407902	1472005390194	1472005390309	 	32
6658	71663	For safety reasons, the turkey will be carved in a private ceremony.	For saftey reasons, the turkey will be carved in a private ceremony.	3408043	1472005390305	1472005390438	l	76
6658	71663	For safety reasons, the turkey will be carved in a private ceremony.	For saftey reasons, the turkey will be carved in a private ceremony.	3408045	1472005390802	1472005390906	BKSP	8
6658	71663	For safety reasons, the turkey will be carved in a private ceremony.	For saftey reasons, the turkey will be carved in a private ceremony.	3408047	1472005391012	1472005391077	BKSP	8
6658	71663	For safety reasons, the turkey will be carved in a private ceremony.	For saftey reasons, the turkey will be carved in a private ceremony.	3408049	1472005391165	1472005391226	BKSP	8
6658	71663	For safety reasons, the turkey will be carved in a private ceremony.	For saftey reasons, the turkey will be carved in a private ceremony.	3408051	1472005391301	1472005391378	BKSP	8
6658	71663	For safety reasons, the turkey will be carved in a private ceremony.	For saftey reasons, the turkey will be carved in a private ceremony.	3408053	1472005392429	1472005392548	w	87
6658	71663	For safety reasons, the turkey will be carved in a private ceremony.	For saftey reasons, the turkey will be carved in a private ceremony.	3408055	1472005392704	1472005392806	i	73
6658	71663	For safety reasons, the turkey will be carved in a private ceremony.	For saftey reasons, the turkey will be carved in a private ceremony.	3408057	1472005392993	1472005393068	l	76
6658	71663	For safety reasons, the turkey will be carved in a private ceremony.	For saftey reasons, the turkey will be carved in a private ceremony.	3408059	1472005393210	1472005393308	l	76
6658	71663	For safety reasons, the turkey will be carved in a private ceremony.	For saftey reasons, the turkey will be carved in a private ceremony.	3408060	1472005393334	1472005393492	 	32
6658	71663	For safety reasons, the turkey will be carved in a private ceremony.	For saftey reasons, the turkey will be carved in a private ceremony.	3408171	1472005393796	1472005393882	b	66
6658	71663	For safety reasons, the turkey will be carved in a private ceremony.	For saftey reasons, the turkey will be carved in a private ceremony.	3408173	1472005393999	1472005394129	e	69
6658	71663	For safety reasons, the turkey will be carved in a private ceremony.	For saftey reasons, the turkey will be carved in a private ceremony.	3408175	1472005394239	1472005394358	 	32
6658	71663	For safety reasons, the turkey will be carved in a private ceremony.	For saftey reasons, the turkey will be carved in a private ceremony.	3408178	1472005396294	1472005396466	c	67
6658	71663	For safety reasons, the turkey will be carved in a private ceremony.	For saftey reasons, the turkey will be carved in a private ceremony.	3408180	1472005396591	1472005396758	a	65
6658	71663	For safety reasons, the turkey will be carved in a private ceremony.	For saftey reasons, the turkey will be carved in a private ceremony.	3408293	1472005397233	1472005397357	r	82
6658	71663	For safety reasons, the turkey will be carved in a private ceremony.	For saftey reasons, the turkey will be carved in a private ceremony.	3408296	1472005397539	1472005397643	v	86
6658	71663	For safety reasons, the turkey will be carved in a private ceremony.	For saftey reasons, the turkey will be carved in a private ceremony.	3408299	1472005397811	1472005397931	e	69
6658	71663	For safety reasons, the turkey will be carved in a private ceremony.	For saftey reasons, the turkey will be carved in a private ceremony.	3408300	1472005398174	1472005398350	d	68
6658	71663	For safety reasons, the turkey will be carved in a private ceremony.	For saftey reasons, the turkey will be carved in a private ceremony.	3408302	1472005398447	1472005398592	 	32
6658	71663	For safety reasons, the turkey will be carved in a private ceremony.	For saftey reasons, the turkey will be carved in a private ceremony.	3408354	1472005398812	1472005398923	i	73
6658	71663	For safety reasons, the turkey will be carved in a private ceremony.	For saftey reasons, the turkey will be carved in a private ceremony.	3408358	1472005399098	1472005399207	n	78
6658	71663	For safety reasons, the turkey will be carved in a private ceremony.	For saftey reasons, the turkey will be carved in a private ceremony.	3408361	1472005399285	1472005399448	 	32
6658	71663	For safety reasons, the turkey will be carved in a private ceremony.	For saftey reasons, the turkey will be carved in a private ceremony.	3408364	1472005399528	1472005399676	a	65
6658	71663	For safety reasons, the turkey will be carved in a private ceremony.	For saftey reasons, the turkey will be carved in a private ceremony.	3408368	1472005399754	1472005399874	 	32
6658	71663	For safety reasons, the turkey will be carved in a private ceremony.	For saftey reasons, the turkey will be carved in a private ceremony.	3408504	1472005400754	1472005400901	p	80
6658	71663	For safety reasons, the turkey will be carved in a private ceremony.	For saftey reasons, the turkey will be carved in a private ceremony.	3408508	1472005401303	1472005401438	r	82
6658	71663	For safety reasons, the turkey will be carved in a private ceremony.	For saftey reasons, the turkey will be carved in a private ceremony.	3408511	1472005402020	1472005402112	i	73
6658	71663	For safety reasons, the turkey will be carved in a private ceremony.	For saftey reasons, the turkey will be carved in a private ceremony.	3408513	1472005402155	1472005402230	v	86
6658	71663	For safety reasons, the turkey will be carved in a private ceremony.	For saftey reasons, the turkey will be carved in a private ceremony.	3408516	1472005402392	1472005402543	a	65
6658	71663	For safety reasons, the turkey will be carved in a private ceremony.	For saftey reasons, the turkey will be carved in a private ceremony.	3408602	1472005402763	1472005402884	t	84
6658	71663	For safety reasons, the turkey will be carved in a private ceremony.	For saftey reasons, the turkey will be carved in a private ceremony.	3408605	1472005403010	1472005403161	e	69
6658	71663	For safety reasons, the turkey will be carved in a private ceremony.	For saftey reasons, the turkey will be carved in a private ceremony.	3408609	1472005403183	1472005403347	 	32
6658	71663	For safety reasons, the turkey will be carved in a private ceremony.	For saftey reasons, the turkey will be carved in a private ceremony.	3408614	1472005403798	1472005403919	c	67
6658	71663	For safety reasons, the turkey will be carved in a private ceremony.	For saftey reasons, the turkey will be carved in a private ceremony.	3408618	1472005404167	1472005404284	e	69
6658	71663	For safety reasons, the turkey will be carved in a private ceremony.	For saftey reasons, the turkey will be carved in a private ceremony.	3408696	1472005404482	1472005404588	e	69
6658	71663	For safety reasons, the turkey will be carved in a private ceremony.	For saftey reasons, the turkey will be carved in a private ceremony.	3408699	1472005404599	1472005404695	r	82
6658	71663	For safety reasons, the turkey will be carved in a private ceremony.	For saftey reasons, the turkey will be carved in a private ceremony.	3408702	1472005405156	1472005405247	BKSP	8
6658	71663	For safety reasons, the turkey will be carved in a private ceremony.	For saftey reasons, the turkey will be carved in a private ceremony.	3408705	1472005405336	1472005405431	BKSP	8
6658	71663	For safety reasons, the turkey will be carved in a private ceremony.	For saftey reasons, the turkey will be carved in a private ceremony.	3408707	1472005405440	1472005405513	r	82
6658	71663	For safety reasons, the turkey will be carved in a private ceremony.	For saftey reasons, the turkey will be carved in a private ceremony.	3408709	1472005405542	1472005405684	e	69
6658	71663	For safety reasons, the turkey will be carved in a private ceremony.	For saftey reasons, the turkey will be carved in a private ceremony.	3408713	1472005406149	1472005406245	m	77
6658	71663	For safety reasons, the turkey will be carved in a private ceremony.	For saftey reasons, the turkey will be carved in a private ceremony.	3408825	1472005406418	1472005406505	o	79
6658	71663	For safety reasons, the turkey will be carved in a private ceremony.	For saftey reasons, the turkey will be carved in a private ceremony.	3408828	1472005406645	1472005406733	n	78
6658	71663	For safety reasons, the turkey will be carved in a private ceremony.	For saftey reasons, the turkey will be carved in a private ceremony.	3408831	1472005407548	1472005407726	y	89
6658	71663	For safety reasons, the turkey will be carved in a private ceremony.	For saftey reasons, the turkey will be carved in a private ceremony.	3408834	1472005408201	1472005408232	,	188
6658	71663	For safety reasons, the turkey will be carved in a private ceremony.	For saftey reasons, the turkey will be carved in a private ceremony.	3408837	1472005408734	1472005408836	BKSP	8
6658	71663	For safety reasons, the turkey will be carved in a private ceremony.	For saftey reasons, the turkey will be carved in a private ceremony.	3408840	1472005409054	1472005409108	.	190
6658	71697	Look for him to throw for over 200 yards and a score.	Look for him to throw for over 200 yards and a score.	3409167	1472005413456	1472005413942	SHIFT	16
6658	71697	Look for him to throw for over 200 yards and a score.	Look for him to throw for over 200 yards and a score.	3409165	1472005413632	1472005413774	L	76
6658	71697	Look for him to throw for over 200 yards and a score.	Look for him to throw for over 200 yards and a score.	3409170	1472005414474	1472005414562	o	79
6658	71697	Look for him to throw for over 200 yards and a score.	Look for him to throw for over 200 yards and a score.	3409172	1472005414682	1472005414800	o	79
6658	71697	Look for him to throw for over 200 yards and a score.	Look for him to throw for over 200 yards and a score.	3409175	1472005415034	1472005415180	k	75
6658	71697	Look for him to throw for over 200 yards and a score.	Look for him to throw for over 200 yards and a score.	3409179	1472005415366	1472005415544	 	32
6658	71697	Look for him to throw for over 200 yards and a score.	Look for him to throw for over 200 yards and a score.	3409261	1472005415833	1472005415980	f	70
6658	71697	Look for him to throw for over 200 yards and a score.	Look for him to throw for over 200 yards and a score.	3409262	1472005416158	1472005416277	o	79
6658	71697	Look for him to throw for over 200 yards and a score.	Look for him to throw for over 200 yards and a score.	3409263	1472005416356	1472005416485	r	82
6658	71697	Look for him to throw for over 200 yards and a score.	Look for him to throw for over 200 yards and a score.	3409264	1472005416574	1472005416676	 	32
6658	71697	Look for him to throw for over 200 yards and a score.	Look for him to throw for over 200 yards and a score.	3409265	1472005417064	1472005417131	h	72
6658	71697	Look for him to throw for over 200 yards and a score.	Look for him to throw for over 200 yards and a score.	3409366	1472005417300	1472005417387	i	73
6658	71697	Look for him to throw for over 200 yards and a score.	Look for him to throw for over 200 yards and a score.	3409369	1472005417668	1472005417825	m	77
6658	71697	Look for him to throw for over 200 yards and a score.	Look for him to throw for over 200 yards and a score.	3409372	1472005417843	1472005417978	 	32
6658	71697	Look for him to throw for over 200 yards and a score.	Look for him to throw for over 200 yards and a score.	3409374	1472005418468	1472005418588	t	84
6658	71697	Look for him to throw for over 200 yards and a score.	Look for him to throw for over 200 yards and a score.	3409375	1472005418681	1472005418799	o	79
6658	71697	Look for him to throw for over 200 yards and a score.	Look for him to throw for over 200 yards and a score.	3409439	1472005419033	1472005419239	 	32
6658	71697	Look for him to throw for over 200 yards and a score.	Look for him to throw for over 200 yards and a score.	3409442	1472005419642	1472005419746	t	84
6658	71697	Look for him to throw for over 200 yards and a score.	Look for him to throw for over 200 yards and a score.	3409445	1472005419818	1472005419934	h	72
6658	71697	Look for him to throw for over 200 yards and a score.	Look for him to throw for over 200 yards and a score.	3409449	1472005419978	1472005420085	r	82
6658	71697	Look for him to throw for over 200 yards and a score.	Look for him to throw for over 200 yards and a score.	3409453	1472005420202	1472005420367	o	79
6658	71697	Look for him to throw for over 200 yards and a score.	Look for him to throw for over 200 yards and a score.	3409484	1472005420445	1472005420585	w	87
6658	71697	Look for him to throw for over 200 yards and a score.	Look for him to throw for over 200 yards and a score.	3409485	1472005420658	1472005420760	 	32
6658	71697	Look for him to throw for over 200 yards and a score.	Look for him to throw for over 200 yards and a score.	3409486	1472005420996	1472005421107	f	70
6658	71697	Look for him to throw for over 200 yards and a score.	Look for him to throw for over 200 yards and a score.	3409487	1472005421180	1472005421315	o	79
6658	71697	Look for him to throw for over 200 yards and a score.	Look for him to throw for over 200 yards and a score.	3409598	1472005421287	1472005421423	r	82
6658	71697	Look for him to throw for over 200 yards and a score.	Look for him to throw for over 200 yards and a score.	3409601	1472005421463	1472005421597	 	32
6658	71697	Look for him to throw for over 200 yards and a score.	Look for him to throw for over 200 yards and a score.	3409603	1472005421785	1472005421966	o	79
6658	71697	Look for him to throw for over 200 yards and a score.	Look for him to throw for over 200 yards and a score.	3409606	1472005422318	1472005422493	v	86
6658	71697	Look for him to throw for over 200 yards and a score.	Look for him to throw for over 200 yards and a score.	3409610	1472005422651	1472005422829	e	69
6658	71697	Look for him to throw for over 200 yards and a score.	Look for him to throw for over 200 yards and a score.	3409615	1472005422910	1472005423033	r	82
6658	71697	Look for him to throw for over 200 yards and a score.	Look for him to throw for over 200 yards and a score.	3409667	1472005423124	1472005423274	 	32
6658	71697	Look for him to throw for over 200 yards and a score.	Look for him to throw for over 200 yards and a score.	3409670	1472005423701	1472005423795	2	50
6658	71697	Look for him to throw for over 200 yards and a score.	Look for him to throw for over 200 yards and a score.	3409676	1472005423872	1472005423938	0	48
6658	71697	Look for him to throw for over 200 yards and a score.	Look for him to throw for over 200 yards and a score.	3409681	1472005424025	1472005424112	0	48
6658	71697	Look for him to throw for over 200 yards and a score.	Look for him to throw for over 200 yards and a score.	3409685	1472005424337	1472005424386	 	32
6658	71697	Look for him to throw for over 200 yards and a score.	Look for him to throw for over 200 yards and a score.	3409800	1472005425561	1472005425670	y	89
6658	71697	Look for him to throw for over 200 yards and a score.	Look for him to throw for over 200 yards and a score.	3409801	1472005425639	1472005425822	a	65
6658	71697	Look for him to throw for over 200 yards and a score.	Look for him to throw for over 200 yards and a score.	3409803	1472005425925	1472005426025	r	82
6658	71697	Look for him to throw for over 200 yards and a score.	Look for him to throw for over 200 yards and a score.	3409807	1472005426188	1472005426324	d	68
6658	71697	Look for him to throw for over 200 yards and a score.	Look for him to throw for over 200 yards and a score.	3409812	1472005426701	1472005426850	s	83
6658	71697	Look for him to throw for over 200 yards and a score.	Look for him to throw for over 200 yards and a score.	3409883	1472005426973	1472005427144	 	32
6658	71697	Look for him to throw for over 200 yards and a score.	Look for him to throw for over 200 yards and a score.	3409887	1472005427363	1472005427525	a	65
6658	71697	Look for him to throw for over 200 yards and a score.	Look for him to throw for over 200 yards and a score.	3409895	1472005427622	1472005427692	n	78
6658	71697	Look for him to throw for over 200 yards and a score.	Look for him to throw for over 200 yards and a score.	3409900	1472005427784	1472005427925	d	68
6658	71697	Look for him to throw for over 200 yards and a score.	Look for him to throw for over 200 yards and a score.	3409907	1472005428011	1472005428145	 	32
6658	71697	Look for him to throw for over 200 yards and a score.	Look for him to throw for over 200 yards and a score.	3410079	1472005428084	1472005428377	a	65
6658	71697	Look for him to throw for over 200 yards and a score.	Look for him to throw for over 200 yards and a score.	3410084	1472005428379	1472005428491	 	32
6658	71697	Look for him to throw for over 200 yards and a score.	Look for him to throw for over 200 yards and a score.	3410090	1472005429440	1472005429585	s	83
6658	71697	Look for him to throw for over 200 yards and a score.	Look for him to throw for over 200 yards and a score.	3410096	1472005429764	1472005429902	c	67
6658	71697	Look for him to throw for over 200 yards and a score.	Look for him to throw for over 200 yards and a score.	3410099	1472005431027	1472005431107	o	79
6658	71697	Look for him to throw for over 200 yards and a score.	Look for him to throw for over 200 yards and a score.	3410110	1472005431278	1472005431403	r	82
6658	71697	Look for him to throw for over 200 yards and a score.	Look for him to throw for over 200 yards and a score.	3410151	1472005431463	1472005431562	e	69
6658	71697	Look for him to throw for over 200 yards and a score.	Look for him to throw for over 200 yards and a score.	3410156	1472005432255	1472005432333	.	190
6658	71720	Ruth, here is an estimated November purchase.	ruth, here is an esimated November purchase.	3410472	1472005435734	1472005436131	SHIFT	16
6658	71720	Ruth, here is an estimated November purchase.	ruth, here is an esimated November purchase.	3410476	1472005436170	1472005436318	r	82
6658	71720	Ruth, here is an estimated November purchase.	ruth, here is an esimated November purchase.	3410479	1472005436749	1472005436883	u	85
6658	71720	Ruth, here is an estimated November purchase.	ruth, here is an esimated November purchase.	3410481	1472005437045	1472005437174	t	84
6658	71720	Ruth, here is an estimated November purchase.	ruth, here is an esimated November purchase.	3410482	1472005437230	1472005437336	h	72
6658	71720	Ruth, here is an estimated November purchase.	ruth, here is an esimated November purchase.	3410483	1472005438266	1472005438336	,	188
6658	71720	Ruth, here is an estimated November purchase.	ruth, here is an esimated November purchase.	3410618	1472005438476	1472005438607	 	32
6658	71720	Ruth, here is an estimated November purchase.	ruth, here is an esimated November purchase.	3410623	1472005439177	1472005439284	h	72
6658	71720	Ruth, here is an estimated November purchase.	ruth, here is an esimated November purchase.	3410627	1472005439601	1472005439751	e	69
6658	71720	Ruth, here is an estimated November purchase.	ruth, here is an esimated November purchase.	3410632	1472005439849	1472005439971	r	82
6658	71720	Ruth, here is an estimated November purchase.	ruth, here is an esimated November purchase.	3410635	1472005440037	1472005440159	e	69
6658	71720	Ruth, here is an estimated November purchase.	ruth, here is an esimated November purchase.	3410740	1472005440222	1472005440372	 	32
6658	71720	Ruth, here is an estimated November purchase.	ruth, here is an esimated November purchase.	3410742	1472005440786	1472005440883	i	73
6658	71720	Ruth, here is an estimated November purchase.	ruth, here is an esimated November purchase.	3410744	1472005441053	1472005441244	s	83
6658	71720	Ruth, here is an estimated November purchase.	ruth, here is an esimated November purchase.	3410746	1472005441457	1472005441612	 	32
6658	71720	Ruth, here is an estimated November purchase.	ruth, here is an esimated November purchase.	3410748	1472005441683	1472005441869	a	65
6658	71720	Ruth, here is an estimated November purchase.	ruth, here is an esimated November purchase.	3410908	1472005441972	1472005442080	 	32
6658	71720	Ruth, here is an estimated November purchase.	ruth, here is an esimated November purchase.	3410911	1472005442839	1472005442960	BKSP	8
6658	71720	Ruth, here is an estimated November purchase.	ruth, here is an esimated November purchase.	3410914	1472005443144	1472005443236	n	78
6658	71720	Ruth, here is an estimated November purchase.	ruth, here is an esimated November purchase.	3410916	1472005443258	1472005443407	 	32
6658	71720	Ruth, here is an estimated November purchase.	ruth, here is an esimated November purchase.	3410919	1472005444146	1472005444297	e	69
6658	71720	Ruth, here is an estimated November purchase.	ruth, here is an esimated November purchase.	3410922	1472005444660	1472005444850	s	83
6658	71720	Ruth, here is an estimated November purchase.	ruth, here is an esimated November purchase.	3410992	1472005445224	1472005445331	i	73
6658	71720	Ruth, here is an estimated November purchase.	ruth, here is an esimated November purchase.	3410995	1472005445620	1472005445797	m	77
6658	71720	Ruth, here is an estimated November purchase.	ruth, here is an esimated November purchase.	3410999	1472005445693	1472005445822	a	65
6658	71720	Ruth, here is an estimated November purchase.	ruth, here is an esimated November purchase.	3411004	1472005446147	1472005446296	t	84
6658	71720	Ruth, here is an estimated November purchase.	ruth, here is an esimated November purchase.	3411009	1472005446429	1472005446535	e	69
6658	71720	Ruth, here is an estimated November purchase.	ruth, here is an esimated November purchase.	3411250	1472005446990	1472005447168	 	32
6658	71720	Ruth, here is an estimated November purchase.	ruth, here is an esimated November purchase.	3411254	1472005448353	1472005448527	BKSP	8
6658	71720	Ruth, here is an estimated November purchase.	ruth, here is an esimated November purchase.	3411260	1472005448543	1472005448659	d	68
6658	71720	Ruth, here is an estimated November purchase.	ruth, here is an esimated November purchase.	3411268	1472005449956	1472005450069	 	32
6658	71720	Ruth, here is an estimated November purchase.	ruth, here is an esimated November purchase.	3411279	1472005450267	1472005450632	SHIFT	16
6658	71720	Ruth, here is an estimated November purchase.	ruth, here is an esimated November purchase.	3411273	1472005450493	1472005450613	N	78
6658	71720	Ruth, here is an estimated November purchase.	ruth, here is an esimated November purchase.	3411284	1472005450819	1472005450953	o	79
6658	71720	Ruth, here is an estimated November purchase.	ruth, here is an esimated November purchase.	3411327	1472005451045	1472005451137	v	86
6658	71720	Ruth, here is an estimated November purchase.	ruth, here is an esimated November purchase.	3411333	1472005451370	1472005451486	e	69
6658	71720	Ruth, here is an estimated November purchase.	ruth, here is an esimated November purchase.	3411338	1472005451517	1472005451630	m	77
6658	71720	Ruth, here is an estimated November purchase.	ruth, here is an esimated November purchase.	3411346	1472005452168	1472005452261	b	66
6658	71720	Ruth, here is an estimated November purchase.	ruth, here is an esimated November purchase.	3411519	1472005452248	1472005452316	e	69
6658	71720	Ruth, here is an estimated November purchase.	ruth, here is an esimated November purchase.	3411521	1472005452396	1472005452479	r	82
6658	71720	Ruth, here is an estimated November purchase.	ruth, here is an esimated November purchase.	3411523	1472005453268	1472005453437	 	32
6658	71720	Ruth, here is an estimated November purchase.	ruth, here is an esimated November purchase.	3411524	1472005454078	1472005454215	p	80
6658	71720	Ruth, here is an estimated November purchase.	ruth, here is an esimated November purchase.	3411526	1472005454860	1472005454974	u	85
6658	71720	Ruth, here is an estimated November purchase.	ruth, here is an esimated November purchase.	3411528	1472005455028	1472005455149	r	82
6658	71720	Ruth, here is an estimated November purchase.	ruth, here is an esimated November purchase.	3411590	1472005455526	1472005455644	c	67
6658	71720	Ruth, here is an estimated November purchase.	ruth, here is an esimated November purchase.	3411593	1472005455626	1472005455724	h	72
6658	71720	Ruth, here is an estimated November purchase.	ruth, here is an esimated November purchase.	3411596	1472005455834	1472005455911	a	65
6658	71720	Ruth, here is an estimated November purchase.	ruth, here is an esimated November purchase.	3411598	1472005455921	1472005456017	s	83
6658	71720	Ruth, here is an estimated November purchase.	ruth, here is an esimated November purchase.	3411600	1472005456198	1472005456333	s	83
6658	71720	Ruth, here is an estimated November purchase.	ruth, here is an esimated November purchase.	3411738	1472005456586	1472005456710	e	69
6658	71720	Ruth, here is an estimated November purchase.	ruth, here is an esimated November purchase.	3411740	1472005456890	1472005456986	BKSP	8
6658	71720	Ruth, here is an estimated November purchase.	ruth, here is an esimated November purchase.	3411742	1472005457086	1472005457176	BKSP	8
6658	71720	Ruth, here is an estimated November purchase.	ruth, here is an esimated November purchase.	3411745	1472005457187	1472005457308	e	69
6658	71720	Ruth, here is an estimated November purchase.	ruth, here is an esimated November purchase.	3411751	1472005457870	1472005457956	,	188
6658	71720	Ruth, here is an estimated November purchase.	ruth, here is an esimated November purchase.	3411756	1472005459017	1472005459141	BKSP	8
6658	71720	Ruth, here is an estimated November purchase.	ruth, here is an esimated November purchase.	3411764	1472005459369	1472005459437	.	190
6658	71755	Also it appears no payment is required tomorrow.	Also it appears no payment is required tomorrow.	3412089	1472005462467	1472005463179	SHIFT	16
6658	71755	Also it appears no payment is required tomorrow.	Also it appears no payment is required tomorrow.	3412084	1472005463055	1472005463160	A	65
6658	71755	Also it appears no payment is required tomorrow.	Also it appears no payment is required tomorrow.	3412093	1472005463786	1472005463948	l	76
6658	71755	Also it appears no payment is required tomorrow.	Also it appears no payment is required tomorrow.	3412098	1472005464099	1472005464234	s	83
6658	71755	Also it appears no payment is required tomorrow.	Also it appears no payment is required tomorrow.	3412102	1472005464443	1472005464570	o	79
6658	71755	Also it appears no payment is required tomorrow.	Also it appears no payment is required tomorrow.	3412104	1472005464785	1472005464966	 	32
6658	71755	Also it appears no payment is required tomorrow.	Also it appears no payment is required tomorrow.	3412252	1472005465686	1472005465828	i	73
6658	71755	Also it appears no payment is required tomorrow.	Also it appears no payment is required tomorrow.	3412254	1472005465872	1472005465984	t	84
6658	71755	Also it appears no payment is required tomorrow.	Also it appears no payment is required tomorrow.	3412260	1472005466095	1472005466229	 	32
6658	71755	Also it appears no payment is required tomorrow.	Also it appears no payment is required tomorrow.	3412263	1472005467125	1472005467259	a	65
6658	71755	Also it appears no payment is required tomorrow.	Also it appears no payment is required tomorrow.	3412268	1472005467846	1472005467962	p	80
6658	71755	Also it appears no payment is required tomorrow.	Also it appears no payment is required tomorrow.	3412389	1472005468475	1472005468602	p	80
6658	71755	Also it appears no payment is required tomorrow.	Also it appears no payment is required tomorrow.	3412390	1472005468695	1472005468821	e	69
6658	71755	Also it appears no payment is required tomorrow.	Also it appears no payment is required tomorrow.	3412391	1472005469200	1472005469404	a	65
6658	71755	Also it appears no payment is required tomorrow.	Also it appears no payment is required tomorrow.	3412392	1472005469440	1472005469551	r	82
6658	71755	Also it appears no payment is required tomorrow.	Also it appears no payment is required tomorrow.	3412393	1472005469806	1472005469978	s	83
6658	71755	Also it appears no payment is required tomorrow.	Also it appears no payment is required tomorrow.	3412526	1472005470292	1472005470463	 	32
6658	71755	Also it appears no payment is required tomorrow.	Also it appears no payment is required tomorrow.	3412528	1472005471019	1472005471152	n	78
6658	71755	Also it appears no payment is required tomorrow.	Also it appears no payment is required tomorrow.	3412530	1472005471442	1472005471578	o	79
6658	71755	Also it appears no payment is required tomorrow.	Also it appears no payment is required tomorrow.	3412532	1472005471625	1472005471749	 	32
6658	71755	Also it appears no payment is required tomorrow.	Also it appears no payment is required tomorrow.	3412535	1472005472496	1472005472646	p	80
6658	71755	Also it appears no payment is required tomorrow.	Also it appears no payment is required tomorrow.	3412608	1472005472640	1472005472788	a	65
6658	71755	Also it appears no payment is required tomorrow.	Also it appears no payment is required tomorrow.	3412613	1472005473358	1472005473440	y	89
6658	71755	Also it appears no payment is required tomorrow.	Also it appears no payment is required tomorrow.	3412617	1472005473975	1472005474137	m	77
6658	71755	Also it appears no payment is required tomorrow.	Also it appears no payment is required tomorrow.	3412622	1472005474121	1472005474231	e	69
6658	71755	Also it appears no payment is required tomorrow.	Also it appears no payment is required tomorrow.	3412625	1472005474271	1472005474378	n	78
6658	71755	Also it appears no payment is required tomorrow.	Also it appears no payment is required tomorrow.	3412632	1472005474428	1472005474549	t	84
6658	71755	Also it appears no payment is required tomorrow.	Also it appears no payment is required tomorrow.	3413107	1472005475230	1472005475417	 	32
6658	71755	Also it appears no payment is required tomorrow.	Also it appears no payment is required tomorrow.	3413113	1472005483303	1472005483409	i	73
6658	71755	Also it appears no payment is required tomorrow.	Also it appears no payment is required tomorrow.	3413117	1472005483487	1472005483645	s	83
6658	71755	Also it appears no payment is required tomorrow.	Also it appears no payment is required tomorrow.	3413122	1472005483957	1472005484117	 	32
6658	71755	Also it appears no payment is required tomorrow.	Also it appears no payment is required tomorrow.	3413126	1472005484466	1472005484570	r	82
6658	71755	Also it appears no payment is required tomorrow.	Also it appears no payment is required tomorrow.	3413354	1472005485358	1472005485483	e	69
6658	71755	Also it appears no payment is required tomorrow.	Also it appears no payment is required tomorrow.	3413357	1472005486326	1472005486467	q	81
6658	71755	Also it appears no payment is required tomorrow.	Also it appears no payment is required tomorrow.	3413361	1472005487057	1472005487194	u	85
6658	71755	Also it appears no payment is required tomorrow.	Also it appears no payment is required tomorrow.	3413364	1472005488144	1472005488260	BKSP	8
6658	71755	Also it appears no payment is required tomorrow.	Also it appears no payment is required tomorrow.	3413368	1472005489123	1472005489253	u	85
6658	71755	Also it appears no payment is required tomorrow.	Also it appears no payment is required tomorrow.	3413370	1472005490186	1472005490308	i	73
6658	71755	Also it appears no payment is required tomorrow.	Also it appears no payment is required tomorrow.	3413497	1472005490629	1472005490757	r	82
6658	71755	Also it appears no payment is required tomorrow.	Also it appears no payment is required tomorrow.	3413501	1472005491202	1472005491312	w	87
6658	71755	Also it appears no payment is required tomorrow.	Also it appears no payment is required tomorrow.	3413505	1472005491951	1472005492107	BKSP	8
6658	71755	Also it appears no payment is required tomorrow.	Also it appears no payment is required tomorrow.	3413509	1472005492146	1472005492214	e	69
6658	71755	Also it appears no payment is required tomorrow.	Also it appears no payment is required tomorrow.	3413514	1472005492332	1472005492507	d	68
6658	71755	Also it appears no payment is required tomorrow.	Also it appears no payment is required tomorrow.	3413517	1472005492587	1472005492758	 	32
6658	71755	Also it appears no payment is required tomorrow.	Also it appears no payment is required tomorrow.	3413566	1472005492997	1472005493102	t	84
6658	71755	Also it appears no payment is required tomorrow.	Also it appears no payment is required tomorrow.	3413567	1472005493132	1472005493214	o	79
6658	71755	Also it appears no payment is required tomorrow.	Also it appears no payment is required tomorrow.	3413568	1472005493326	1472005493403	m	77
6658	71755	Also it appears no payment is required tomorrow.	Also it appears no payment is required tomorrow.	3413569	1472005493580	1472005493659	o	79
6658	71755	Also it appears no payment is required tomorrow.	Also it appears no payment is required tomorrow.	3413570	1472005494002	1472005494097	r	82
6658	71755	Also it appears no payment is required tomorrow.	Also it appears no payment is required tomorrow.	3413690	1472005494361	1472005494422	BKSP	8
6658	71755	Also it appears no payment is required tomorrow.	Also it appears no payment is required tomorrow.	3413693	1472005494523	1472005494616	BKSP	8
6658	71755	Also it appears no payment is required tomorrow.	Also it appears no payment is required tomorrow.	3413697	1472005494944	1472005495022	m	77
6658	71755	Also it appears no payment is required tomorrow.	Also it appears no payment is required tomorrow.	3413700	1472005495107	1472005495198	r	82
6658	71755	Also it appears no payment is required tomorrow.	Also it appears no payment is required tomorrow.	3413704	1472005495287	1472005495358	r	82
6658	71755	Also it appears no payment is required tomorrow.	Also it appears no payment is required tomorrow.	3413709	1472005495375	1472005495451	o	79
6658	71755	Also it appears no payment is required tomorrow.	Also it appears no payment is required tomorrow.	3413713	1472005495826	1472005495881	BKSP	8
6658	71755	Also it appears no payment is required tomorrow.	Also it appears no payment is required tomorrow.	3413716	1472005495964	1472005496049	BKSP	8
6658	71755	Also it appears no payment is required tomorrow.	Also it appears no payment is required tomorrow.	3413719	1472005496135	1472005496226	BKSP	8
6658	71755	Also it appears no payment is required tomorrow.	Also it appears no payment is required tomorrow.	3413721	1472005496277	1472005496364	BKSP	8
6658	71755	Also it appears no payment is required tomorrow.	Also it appears no payment is required tomorrow.	3413723	1472005496870	1472005496958	o	79
6658	71755	Also it appears no payment is required tomorrow.	Also it appears no payment is required tomorrow.	3413765	1472005496996	1472005497090	r	82
6658	71755	Also it appears no payment is required tomorrow.	Also it appears no payment is required tomorrow.	3413767	1472005497169	1472005497265	r	82
6658	71755	Also it appears no payment is required tomorrow.	Also it appears no payment is required tomorrow.	3413771	1472005497352	1472005497433	o	79
6658	71755	Also it appears no payment is required tomorrow.	Also it appears no payment is required tomorrow.	3413777	1472005498247	1472005498352	w	87
6658	71755	Also it appears no payment is required tomorrow.	Also it appears no payment is required tomorrow.	3413782	1472005498507	1472005498622	.	190
6658	71798	We cleaned him up as well as we could.	we cleaned him up as well as we could	3414128	1472005503248	1472005503878	SHIFT	16
6658	71798	We cleaned him up as well as we could.	we cleaned him up as well as we could	3414129	1472005503996	1472005504121	w	87
6658	71798	We cleaned him up as well as we could.	we cleaned him up as well as we could	3414131	1472005505011	1472005505112	e	69
6658	71798	We cleaned him up as well as we could.	we cleaned him up as well as we could	3414133	1472005505608	1472005505817	 	32
6658	71798	We cleaned him up as well as we could.	we cleaned him up as well as we could	3414135	1472005506040	1472005506187	c	67
6658	71798	We cleaned him up as well as we could.	we cleaned him up as well as we could	3414137	1472005506189	1472005506361	l	76
6658	71798	We cleaned him up as well as we could.	we cleaned him up as well as we could	3414192	1472005506415	1472005506530	e	69
6658	71798	We cleaned him up as well as we could.	we cleaned him up as well as we could	3414194	1472005506616	1472005506760	a	65
6658	71798	We cleaned him up as well as we could.	we cleaned him up as well as we could	3414197	1472005506952	1472005507073	n	78
6658	71798	We cleaned him up as well as we could.	we cleaned him up as well as we could	3414200	1472005507125	1472005507220	e	69
6658	71798	We cleaned him up as well as we could.	we cleaned him up as well as we could	3414204	1472005507812	1472005507952	d	68
6658	71798	We cleaned him up as well as we could.	we cleaned him up as well as we could	3414319	1472005508243	1472005508396	 	32
6658	71798	We cleaned him up as well as we could.	we cleaned him up as well as we could	3414320	1472005509168	1472005509332	h	72
6658	71798	We cleaned him up as well as we could.	we cleaned him up as well as we could	3414321	1472005509602	1472005509721	i	73
6658	71798	We cleaned him up as well as we could.	we cleaned him up as well as we could	3414322	1472005510249	1472005510422	m	77
6658	71798	We cleaned him up as well as we could.	we cleaned him up as well as we could	3414324	1472005510491	1472005510626	 	32
6658	71798	We cleaned him up as well as we could.	we cleaned him up as well as we could	3414501	1472005511025	1472005511179	u	85
6658	71798	We cleaned him up as well as we could.	we cleaned him up as well as we could	3414503	1472005511988	1472005512128	p	80
6658	71798	We cleaned him up as well as we could.	we cleaned him up as well as we could	3414505	1472005512566	1472005512736	 	32
6658	71798	We cleaned him up as well as we could.	we cleaned him up as well as we could	3414507	1472005512878	1472005513040	a	65
6658	71798	We cleaned him up as well as we could.	we cleaned him up as well as we could	3414509	1472005513206	1472005513390	s	83
6658	71798	We cleaned him up as well as we could.	we cleaned him up as well as we could	3414594	1472005513597	1472005513771	 	32
6658	71798	We cleaned him up as well as we could.	we cleaned him up as well as we could	3414596	1472005514360	1472005514479	w	87
6658	71798	We cleaned him up as well as we could.	we cleaned him up as well as we could	3414599	1472005514975	1472005515108	e	69
6658	71798	We cleaned him up as well as we could.	we cleaned him up as well as we could	3414602	1472005515181	1472005515319	l	76
6658	71798	We cleaned him up as well as we could.	we cleaned him up as well as we could	3414605	1472005515446	1472005515554	l	76
6658	71798	We cleaned him up as well as we could.	we cleaned him up as well as we could	3414668	1472005515653	1472005515842	 	32
6658	71798	We cleaned him up as well as we could.	we cleaned him up as well as we could	3414669	1472005516075	1472005516192	a	65
6658	71798	We cleaned him up as well as we could.	we cleaned him up as well as we could	3414670	1472005516408	1472005516589	s	83
6658	71798	We cleaned him up as well as we could.	we cleaned him up as well as we could	3414671	1472005516721	1472005516927	 	32
6658	71798	We cleaned him up as well as we could.	we cleaned him up as well as we could	3414672	1472005517043	1472005517180	w	87
6658	71798	We cleaned him up as well as we could.	we cleaned him up as well as we could	3414716	1472005517322	1472005517426	e	69
6658	71798	We cleaned him up as well as we could.	we cleaned him up as well as we could	3414720	1472005517537	1472005517628	 	32
6658	71798	We cleaned him up as well as we could.	we cleaned him up as well as we could	3414727	1472005517973	1472005518106	c	67
6658	71798	We cleaned him up as well as we could.	we cleaned him up as well as we could	3414733	1472005518264	1472005518780	o	79
6658	71798	We cleaned him up as well as we could.	we cleaned him up as well as we could	3414847	1472005518739	1472005518850	u	85
6658	71798	We cleaned him up as well as we could.	we cleaned him up as well as we could	3414850	1472005519535	1472005519693	k	75
6658	71798	We cleaned him up as well as we could.	we cleaned him up as well as we could	3414853	1472005519760	1472005519868	d	68
6658	71798	We cleaned him up as well as we could.	we cleaned him up as well as we could	3414855	1472005520333	1472005520429	BKSP	8
6658	71798	We cleaned him up as well as we could.	we cleaned him up as well as we could	3414858	1472005520513	1472005520601	BKSP	8
6658	71798	We cleaned him up as well as we could.	we cleaned him up as well as we could	3414862	1472005520899	1472005521014	l	76
6658	71798	We cleaned him up as well as we could.	we cleaned him up as well as we could	3414865	1472005521043	1472005521210	d	68
6658	71821	Tried to call but couldn't reach you.	tried to call but couldn't reach you.	3415045	1472005524295	1472005524417	t	84
6658	71821	Tried to call but couldn't reach you.	tried to call but couldn't reach you.	3415047	1472005524548	1472005524672	r	82
6658	71821	Tried to call but couldn't reach you.	tried to call but couldn't reach you.	3415051	1472005524688	1472005524803	i	73
6658	71821	Tried to call but couldn't reach you.	tried to call but couldn't reach you.	3415055	1472005524828	1472005524898	e	69
6658	71821	Tried to call but couldn't reach you.	tried to call but couldn't reach you.	3415059	1472005525148	1472005525288	d	68
6658	71821	Tried to call but couldn't reach you.	tried to call but couldn't reach you.	3415131	1472005525394	1472005525535	 	32
6658	71821	Tried to call but couldn't reach you.	tried to call but couldn't reach you.	3415134	1472005525974	1472005526106	t	84
6658	71821	Tried to call but couldn't reach you.	tried to call but couldn't reach you.	3415137	1472005526155	1472005526301	o	79
6658	71821	Tried to call but couldn't reach you.	tried to call but couldn't reach you.	3415140	1472005526253	1472005526450	 	32
6658	71821	Tried to call but couldn't reach you.	tried to call but couldn't reach you.	3415143	1472005526643	1472005526747	 	32
6658	71821	Tried to call but couldn't reach you.	tried to call but couldn't reach you.	3415249	1472005527323	1472005527452	BKSP	8
6658	71821	Tried to call but couldn't reach you.	tried to call but couldn't reach you.	3415255	1472005527460	1472005527579	c	67
6658	71821	Tried to call but couldn't reach you.	tried to call but couldn't reach you.	3415261	1472005527829	1472005527961	l	76
6658	71821	Tried to call but couldn't reach you.	tried to call but couldn't reach you.	3415267	1472005527951	1472005528077	a	65
6658	71821	Tried to call but couldn't reach you.	tried to call but couldn't reach you.	3415272	1472005528286	1472005528383	BKSP	8
6658	71821	Tried to call but couldn't reach you.	tried to call but couldn't reach you.	3415278	1472005528475	1472005528560	BKSP	8
6658	71821	Tried to call but couldn't reach you.	tried to call but couldn't reach you.	3415284	1472005528596	1472005528733	a	65
6658	71821	Tried to call but couldn't reach you.	tried to call but couldn't reach you.	3415290	1472005528871	1472005528940	l	76
6658	71821	Tried to call but couldn't reach you.	tried to call but couldn't reach you.	3415411	1472005529016	1472005529089	l	76
6658	71821	Tried to call but couldn't reach you.	tried to call but couldn't reach you.	3415413	1472005529334	1472005529501	 	32
6658	71821	Tried to call but couldn't reach you.	tried to call but couldn't reach you.	3415415	1472005530598	1472005530708	b	66
6658	71821	Tried to call but couldn't reach you.	tried to call but couldn't reach you.	3415419	1472005530932	1472005531061	u	85
6658	71821	Tried to call but couldn't reach you.	tried to call but couldn't reach you.	3415423	1472005531130	1472005531282	t	84
6658	71821	Tried to call but couldn't reach you.	tried to call but couldn't reach you.	3415509	1472005531395	1472005531541	 	32
6658	71821	Tried to call but couldn't reach you.	tried to call but couldn't reach you.	3415511	1472005531757	1472005531897	c	67
6658	71821	Tried to call but couldn't reach you.	tried to call but couldn't reach you.	3415514	1472005532003	1472005532185	o	79
6658	71821	Tried to call but couldn't reach you.	tried to call but couldn't reach you.	3415515	1472005532329	1472005532415	u	85
6658	71821	Tried to call but couldn't reach you.	tried to call but couldn't reach you.	3415518	1472005532897	1472005533000	k	75
6658	71821	Tried to call but couldn't reach you.	tried to call but couldn't reach you.	3415700	1472005533396	1472005533540	BKSP	8
6658	71821	Tried to call but couldn't reach you.	tried to call but couldn't reach you.	3415702	1472005533971	1472005534052	l	76
6658	71821	Tried to call but couldn't reach you.	tried to call but couldn't reach you.	3415705	1472005534112	1472005534225	d	68
6658	71821	Tried to call but couldn't reach you.	tried to call but couldn't reach you.	3415708	1472005534286	1472005534355	n	78
6658	71821	Tried to call but couldn't reach you.	tried to call but couldn't reach you.	3415712	1472005536416	1472005536470	'	222
6658	71821	Tried to call but couldn't reach you.	tried to call but couldn't reach you.	3415715	1472005536515	1472005536646	t	84
6658	71821	Tried to call but couldn't reach you.	tried to call but couldn't reach you.	3415831	1472005537136	1472005537291	 	32
6658	71821	Tried to call but couldn't reach you.	tried to call but couldn't reach you.	3415839	1472005538040	1472005538144	r	82
6658	71821	Tried to call but couldn't reach you.	tried to call but couldn't reach you.	3415847	1472005538218	1472005538347	e	69
6658	71821	Tried to call but couldn't reach you.	tried to call but couldn't reach you.	3415853	1472005538504	1472005538653	a	65
6658	71821	Tried to call but couldn't reach you.	tried to call but couldn't reach you.	3415855	1472005538855	1472005538951	c	67
6658	71821	Tried to call but couldn't reach you.	tried to call but couldn't reach you.	3415939	1472005538988	1472005539086	h	72
6658	71821	Tried to call but couldn't reach you.	tried to call but couldn't reach you.	3415941	1472005539191	1472005539346	 	32
6658	71821	Tried to call but couldn't reach you.	tried to call but couldn't reach you.	3415942	1472005539722	1472005539782	y	89
6658	71821	Tried to call but couldn't reach you.	tried to call but couldn't reach you.	3415943	1472005540174	1472005540324	o	79
6658	71821	Tried to call but couldn't reach you.	tried to call but couldn't reach you.	3415946	1472005540545	1472005540666	u	85
6658	71821	Tried to call but couldn't reach you.	tried to call but couldn't reach you.	3416005	1472005541351	1472005541400	.	190
6658	71846	I wonder if RBS is another institution which could move quickly.	I wonder if RBS is another institution which could move quickly.	3416345	1472005544898	1472005545573	SHIFT	16
6658	71846	I wonder if RBS is another institution which could move quickly.	I wonder if RBS is another institution which could move quickly.	3416341	1472005545257	1472005545320	I	73
6658	71846	I wonder if RBS is another institution which could move quickly.	I wonder if RBS is another institution which could move quickly.	3416348	1472005546272	1472005546461	 	32
6658	71846	I wonder if RBS is another institution which could move quickly.	I wonder if RBS is another institution which could move quickly.	3416351	1472005546799	1472005546937	w	87
6658	71846	I wonder if RBS is another institution which could move quickly.	I wonder if RBS is another institution which could move quickly.	3416356	1472005547063	1472005547235	o	79
6658	71846	I wonder if RBS is another institution which could move quickly.	I wonder if RBS is another institution which could move quickly.	3416360	1472005547703	1472005547802	n	78
6658	71846	I wonder if RBS is another institution which could move quickly.	I wonder if RBS is another institution which could move quickly.	3416415	1472005547918	1472005548035	d	68
6658	71846	I wonder if RBS is another institution which could move quickly.	I wonder if RBS is another institution which could move quickly.	3416418	1472005548184	1472005548278	e	69
6658	71846	I wonder if RBS is another institution which could move quickly.	I wonder if RBS is another institution which could move quickly.	3416423	1472005548424	1472005548553	r	82
6658	71846	I wonder if RBS is another institution which could move quickly.	I wonder if RBS is another institution which could move quickly.	3416426	1472005548757	1472005548927	 	32
6658	71846	I wonder if RBS is another institution which could move quickly.	I wonder if RBS is another institution which could move quickly.	3416431	1472005549428	1472005549573	i	73
6658	71846	I wonder if RBS is another institution which could move quickly.	I wonder if RBS is another institution which could move quickly.	3416726	1472005549632	1472005549728	f	70
6658	71846	I wonder if RBS is another institution which could move quickly.	I wonder if RBS is another institution which could move quickly.	3416729	1472005549889	1472005550048	 	32
6658	71846	I wonder if RBS is another institution which could move quickly.	I wonder if RBS is another institution which could move quickly.	3416735	1472005551267	1472005551617	SHIFT	16
6658	71846	I wonder if RBS is another institution which could move quickly.	I wonder if RBS is another institution which could move quickly.	3416740	1472005551710	1472005551829	r	82
6658	71846	I wonder if RBS is another institution which could move quickly.	I wonder if RBS is another institution which could move quickly.	3416743	1472005551991	1472005552188	r	82
6658	71846	I wonder if RBS is another institution which could move quickly.	I wonder if RBS is another institution which could move quickly.	3416747	1472005553074	1472005553191	NUM_LK	144
6658	71846	I wonder if RBS is another institution which could move quickly.	I wonder if RBS is another institution which could move quickly.	3416751	1472005553290	1472005553346	NUM_LK	144
6658	71846	I wonder if RBS is another institution which could move quickly.	I wonder if RBS is another institution which could move quickly.	3416756	1472005553947	1472005554024	BKSP	8
6658	71846	I wonder if RBS is another institution which could move quickly.	I wonder if RBS is another institution which could move quickly.	3416760	1472005554126	1472005554192	BKSP	8
6658	71846	I wonder if RBS is another institution which could move quickly.	I wonder if RBS is another institution which could move quickly.	3416763	1472005554333	1472005554439	CAPS_LOCK	20
6658	71846	I wonder if RBS is another institution which could move quickly.	I wonder if RBS is another institution which could move quickly.	3416765	1472005554510	1472005554640	CAPS_LOCK	20
6658	71846	I wonder if RBS is another institution which could move quickly.	I wonder if RBS is another institution which could move quickly.	3416767	1472005556082	1472005556208	CAPS_LOCK	20
6658	71846	I wonder if RBS is another institution which could move quickly.	I wonder if RBS is another institution which could move quickly.	3416769	1472005556255	1472005556320	R	82
6658	71846	I wonder if RBS is another institution which could move quickly.	I wonder if RBS is another institution which could move quickly.	3416886	1472005556585	1472005556657	B	66
6658	71846	I wonder if RBS is another institution which could move quickly.	I wonder if RBS is another institution which could move quickly.	3416888	1472005556727	1472005556813	S	83
6658	71846	I wonder if RBS is another institution which could move quickly.	I wonder if RBS is another institution which could move quickly.	3416891	1472005557201	1472005557329	 	32
6658	71846	I wonder if RBS is another institution which could move quickly.	I wonder if RBS is another institution which could move quickly.	3416895	1472005557681	1472005557799	CAPS_LOCK	20
6658	71846	I wonder if RBS is another institution which could move quickly.	I wonder if RBS is another institution which could move quickly.	3416899	1472005559232	1472005559379	i	73
6658	71846	I wonder if RBS is another institution which could move quickly.	I wonder if RBS is another institution which could move quickly.	3417021	1472005559374	1472005559526	s	83
6658	71846	I wonder if RBS is another institution which could move quickly.	I wonder if RBS is another institution which could move quickly.	3417027	1472005559687	1472005559815	 	32
6658	71846	I wonder if RBS is another institution which could move quickly.	I wonder if RBS is another institution which could move quickly.	3417030	1472005559968	1472005560129	a	65
6658	71846	I wonder if RBS is another institution which could move quickly.	I wonder if RBS is another institution which could move quickly.	3417035	1472005560329	1472005560454	n	78
6658	71846	I wonder if RBS is another institution which could move quickly.	I wonder if RBS is another institution which could move quickly.	3417040	1472005560782	1472005560920	o	79
6658	71846	I wonder if RBS is another institution which could move quickly.	I wonder if RBS is another institution which could move quickly.	3417046	1472005560949	1472005561061	t	84
6658	71846	I wonder if RBS is another institution which could move quickly.	I wonder if RBS is another institution which could move quickly.	3417161	1472005561163	1472005561284	h	72
6658	71846	I wonder if RBS is another institution which could move quickly.	I wonder if RBS is another institution which could move quickly.	3417169	1472005561297	1472005561413	e	69
6658	71846	I wonder if RBS is another institution which could move quickly.	I wonder if RBS is another institution which could move quickly.	3417174	1472005561448	1472005561585	r	82
6658	71846	I wonder if RBS is another institution which could move quickly.	I wonder if RBS is another institution which could move quickly.	3417181	1472005561708	1472005561836	 	32
6658	71846	I wonder if RBS is another institution which could move quickly.	I wonder if RBS is another institution which could move quickly.	3417188	1472005563036	1472005563133	i	73
6658	71846	I wonder if RBS is another institution which could move quickly.	I wonder if RBS is another institution which could move quickly.	3417241	1472005563359	1472005563524	n	78
6658	71846	I wonder if RBS is another institution which could move quickly.	I wonder if RBS is another institution which could move quickly.	3417243	1472005563545	1472005563675	s	83
6658	71846	I wonder if RBS is another institution which could move quickly.	I wonder if RBS is another institution which could move quickly.	3417249	1472005563875	1472005563982	t	84
6658	71846	I wonder if RBS is another institution which could move quickly.	I wonder if RBS is another institution which could move quickly.	3417254	1472005564006	1472005564093	i	73
6658	71846	I wonder if RBS is another institution which could move quickly.	I wonder if RBS is another institution which could move quickly.	3417259	1472005564165	1472005564262	t	84
6658	71846	I wonder if RBS is another institution which could move quickly.	I wonder if RBS is another institution which could move quickly.	3417310	1472005564557	1472005564710	u	85
6658	71846	I wonder if RBS is another institution which could move quickly.	I wonder if RBS is another institution which could move quickly.	3417314	1472005564717	1472005564810	t	84
6658	71846	I wonder if RBS is another institution which could move quickly.	I wonder if RBS is another institution which could move quickly.	3417318	1472005564881	1472005564995	i	73
6658	71846	I wonder if RBS is another institution which could move quickly.	I wonder if RBS is another institution which could move quickly.	3417322	1472005565166	1472005565282	o	79
6658	71846	I wonder if RBS is another institution which could move quickly.	I wonder if RBS is another institution which could move quickly.	3417325	1472005565435	1472005565566	n	78
6658	71846	I wonder if RBS is another institution which could move quickly.	I wonder if RBS is another institution which could move quickly.	3417401	1472005565586	1472005565729	 	32
6658	71846	I wonder if RBS is another institution which could move quickly.	I wonder if RBS is another institution which could move quickly.	3417403	1472005566524	1472005566632	w	87
6658	71846	I wonder if RBS is another institution which could move quickly.	I wonder if RBS is another institution which could move quickly.	3417407	1472005566661	1472005566758	h	72
6658	71846	I wonder if RBS is another institution which could move quickly.	I wonder if RBS is another institution which could move quickly.	3417412	1472005566878	1472005566992	i	73
6658	71846	I wonder if RBS is another institution which could move quickly.	I wonder if RBS is another institution which could move quickly.	3417453	1472005566983	1472005567109	c	67
6658	71846	I wonder if RBS is another institution which could move quickly.	I wonder if RBS is another institution which could move quickly.	3417456	1472005567147	1472005567240	h	72
6658	71846	I wonder if RBS is another institution which could move quickly.	I wonder if RBS is another institution which could move quickly.	3417458	1472005567263	1472005567399	 	32
6658	71846	I wonder if RBS is another institution which could move quickly.	I wonder if RBS is another institution which could move quickly.	3417463	1472005567816	1472005567947	c	67
6658	71846	I wonder if RBS is another institution which could move quickly.	I wonder if RBS is another institution which could move quickly.	3417468	1472005568088	1472005568144	o	79
6658	71846	I wonder if RBS is another institution which could move quickly.	I wonder if RBS is another institution which could move quickly.	3417473	1472005568602	1472005568689	u	85
6658	71846	I wonder if RBS is another institution which could move quickly.	I wonder if RBS is another institution which could move quickly.	3417597	1472005568994	1472005569080	k	75
6658	71846	I wonder if RBS is another institution which could move quickly.	I wonder if RBS is another institution which could move quickly.	3417600	1472005569843	1472005569952	BKSP	8
6658	71846	I wonder if RBS is another institution which could move quickly.	I wonder if RBS is another institution which could move quickly.	3417602	1472005570186	1472005570319	l	76
6658	71846	I wonder if RBS is another institution which could move quickly.	I wonder if RBS is another institution which could move quickly.	3417604	1472005570505	1472005570658	d	68
6658	71846	I wonder if RBS is another institution which could move quickly.	I wonder if RBS is another institution which could move quickly.	3417605	1472005570811	1472005570947	 	32
6658	71846	I wonder if RBS is another institution which could move quickly.	I wonder if RBS is another institution which could move quickly.	3417607	1472005572036	1472005572276	m	77
6658	71846	I wonder if RBS is another institution which could move quickly.	I wonder if RBS is another institution which could move quickly.	3417703	1472005572478	1472005572650	o	79
6658	71846	I wonder if RBS is another institution which could move quickly.	I wonder if RBS is another institution which could move quickly.	3417708	1472005572625	1472005572751	v	86
6658	71846	I wonder if RBS is another institution which could move quickly.	I wonder if RBS is another institution which could move quickly.	3417712	1472005572918	1472005573060	e	69
6658	71846	I wonder if RBS is another institution which could move quickly.	I wonder if RBS is another institution which could move quickly.	3417718	1472005573117	1472005573222	 	32
6658	71846	I wonder if RBS is another institution which could move quickly.	I wonder if RBS is another institution which could move quickly.	3417724	1472005574181	1472005574291	q	81
6658	71846	I wonder if RBS is another institution which could move quickly.	I wonder if RBS is another institution which could move quickly.	3417780	1472005574348	1472005574469	u	85
6658	71846	I wonder if RBS is another institution which could move quickly.	I wonder if RBS is another institution which could move quickly.	3417783	1472005574619	1472005574754	i	73
6658	71846	I wonder if RBS is another institution which could move quickly.	I wonder if RBS is another institution which could move quickly.	3417787	1472005574728	1472005574837	c	67
6658	71846	I wonder if RBS is another institution which could move quickly.	I wonder if RBS is another institution which could move quickly.	3417793	1472005575135	1472005575286	k	75
6658	71846	I wonder if RBS is another institution which could move quickly.	I wonder if RBS is another institution which could move quickly.	3417799	1472005575381	1472005575552	l	76
6658	71846	I wonder if RBS is another institution which could move quickly.	I wonder if RBS is another institution which could move quickly.	3417882	1472005575660	1472005575766	y	89
6658	71846	I wonder if RBS is another institution which could move quickly.	I wonder if RBS is another institution which could move quickly.	3417886	1472005576921	1472005576998	.	190
6658	71888	Do not send small, unsuspecting children to check on my progress.	Do not send small, unsuspecting children to check on my progress.	3418189	1472005579951	1472005580602	SHIFT	16
6658	71888	Do not send small, unsuspecting children to check on my progress.	Do not send small, unsuspecting children to check on my progress.	3418191	1472005580480	1472005580627	D	68
6658	71888	Do not send small, unsuspecting children to check on my progress.	Do not send small, unsuspecting children to check on my progress.	3418193	1472005581122	1472005581231	o	79
6658	71888	Do not send small, unsuspecting children to check on my progress.	Do not send small, unsuspecting children to check on my progress.	3418195	1472005581488	1472005581588	n	78
6658	71888	Do not send small, unsuspecting children to check on my progress.	Do not send small, unsuspecting children to check on my progress.	3418197	1472005581995	1472005582145	BKSP	8
6658	71888	Do not send small, unsuspecting children to check on my progress.	Do not send small, unsuspecting children to check on my progress.	3418200	1472005582179	1472005582339	 	32
6658	71888	Do not send small, unsuspecting children to check on my progress.	Do not send small, unsuspecting children to check on my progress.	3418203	1472005582662	1472005582801	n	78
6658	71888	Do not send small, unsuspecting children to check on my progress.	Do not send small, unsuspecting children to check on my progress.	3418292	1472005583174	1472005583312	o	79
6658	71888	Do not send small, unsuspecting children to check on my progress.	Do not send small, unsuspecting children to check on my progress.	3418293	1472005583356	1472005583458	t	84
6658	71888	Do not send small, unsuspecting children to check on my progress.	Do not send small, unsuspecting children to check on my progress.	3418295	1472005584194	1472005584343	 	32
6658	71888	Do not send small, unsuspecting children to check on my progress.	Do not send small, unsuspecting children to check on my progress.	3418298	1472005584627	1472005584796	s	83
6658	71888	Do not send small, unsuspecting children to check on my progress.	Do not send small, unsuspecting children to check on my progress.	3418302	1472005585017	1472005585132	e	69
6658	71888	Do not send small, unsuspecting children to check on my progress.	Do not send small, unsuspecting children to check on my progress.	3418379	1472005585292	1472005585426	n	78
6658	71888	Do not send small, unsuspecting children to check on my progress.	Do not send small, unsuspecting children to check on my progress.	3418380	1472005585476	1472005585590	d	68
6658	71888	Do not send small, unsuspecting children to check on my progress.	Do not send small, unsuspecting children to check on my progress.	3418382	1472005585623	1472005585738	 	32
6658	71888	Do not send small, unsuspecting children to check on my progress.	Do not send small, unsuspecting children to check on my progress.	3418384	1472005586529	1472005586647	s	83
6658	71888	Do not send small, unsuspecting children to check on my progress.	Do not send small, unsuspecting children to check on my progress.	3418387	1472005586674	1472005586787	m	77
6658	71888	Do not send small, unsuspecting children to check on my progress.	Do not send small, unsuspecting children to check on my progress.	3418457	1472005586900	1472005587030	a	65
6658	71888	Do not send small, unsuspecting children to check on my progress.	Do not send small, unsuspecting children to check on my progress.	3418460	1472005587068	1472005587196	l	76
6658	71888	Do not send small, unsuspecting children to check on my progress.	Do not send small, unsuspecting children to check on my progress.	3418463	1472005587326	1472005587422	l	76
6658	71888	Do not send small, unsuspecting children to check on my progress.	Do not send small, unsuspecting children to check on my progress.	3418466	1472005587995	1472005588077	,	188
6658	71888	Do not send small, unsuspecting children to check on my progress.	Do not send small, unsuspecting children to check on my progress.	3418468	1472005588471	1472005588596	 	32
6658	71888	Do not send small, unsuspecting children to check on my progress.	Do not send small, unsuspecting children to check on my progress.	3418607	1472005590512	1472005590621	u	85
6658	71888	Do not send small, unsuspecting children to check on my progress.	Do not send small, unsuspecting children to check on my progress.	3418610	1472005590904	1472005591035	n	78
6658	71888	Do not send small, unsuspecting children to check on my progress.	Do not send small, unsuspecting children to check on my progress.	3418613	1472005591155	1472005591303	s	83
6658	71888	Do not send small, unsuspecting children to check on my progress.	Do not send small, unsuspecting children to check on my progress.	3418616	1472005591735	1472005591897	u	85
6658	71888	Do not send small, unsuspecting children to check on my progress.	Do not send small, unsuspecting children to check on my progress.	3418881	1472005591885	1472005592026	s	83
6658	71888	Do not send small, unsuspecting children to check on my progress.	Do not send small, unsuspecting children to check on my progress.	3418882	1472005594407	1472005594531	p	80
6658	71888	Do not send small, unsuspecting children to check on my progress.	Do not send small, unsuspecting children to check on my progress.	3418884	1472005595109	1472005595238	e	69
6658	71888	Do not send small, unsuspecting children to check on my progress.	Do not send small, unsuspecting children to check on my progress.	3418886	1472005595472	1472005595581	c	67
6658	71888	Do not send small, unsuspecting children to check on my progress.	Do not send small, unsuspecting children to check on my progress.	3418890	1472005595735	1472005595823	t	84
6658	71888	Do not send small, unsuspecting children to check on my progress.	Do not send small, unsuspecting children to check on my progress.	3418893	1472005595910	1472005596032	i	73
6658	71888	Do not send small, unsuspecting children to check on my progress.	Do not send small, unsuspecting children to check on my progress.	3418958	1472005596193	1472005596338	n	78
6658	71888	Do not send small, unsuspecting children to check on my progress.	Do not send small, unsuspecting children to check on my progress.	3418960	1472005596308	1472005596398	g	71
6658	71888	Do not send small, unsuspecting children to check on my progress.	Do not send small, unsuspecting children to check on my progress.	3418964	1472005596512	1472005596652	 	32
6658	71888	Do not send small, unsuspecting children to check on my progress.	Do not send small, unsuspecting children to check on my progress.	3418966	1472005597606	1472005597729	c	67
6658	71888	Do not send small, unsuspecting children to check on my progress.	Do not send small, unsuspecting children to check on my progress.	3419048	1472005597721	1472005597846	h	72
6658	71888	Do not send small, unsuspecting children to check on my progress.	Do not send small, unsuspecting children to check on my progress.	3419055	1472005598025	1472005598109	i	73
6658	71888	Do not send small, unsuspecting children to check on my progress.	Do not send small, unsuspecting children to check on my progress.	3419059	1472005598281	1472005598473	l	76
6658	71888	Do not send small, unsuspecting children to check on my progress.	Do not send small, unsuspecting children to check on my progress.	3419062	1472005598577	1472005598662	d	68
6658	71888	Do not send small, unsuspecting children to check on my progress.	Do not send small, unsuspecting children to check on my progress.	3419064	1472005599250	1472005599348	r	82
6658	71888	Do not send small, unsuspecting children to check on my progress.	Do not send small, unsuspecting children to check on my progress.	3419065	1472005599448	1472005599537	e	69
6658	71888	Do not send small, unsuspecting children to check on my progress.	Do not send small, unsuspecting children to check on my progress.	3419117	1472005599604	1472005599717	n	78
6658	71888	Do not send small, unsuspecting children to check on my progress.	Do not send small, unsuspecting children to check on my progress.	3419120	1472005599936	1472005600080	 	32
6658	71888	Do not send small, unsuspecting children to check on my progress.	Do not send small, unsuspecting children to check on my progress.	3419123	1472005600511	1472005600610	t	84
6658	71888	Do not send small, unsuspecting children to check on my progress.	Do not send small, unsuspecting children to check on my progress.	3419128	1472005600688	1472005600769	o	79
6658	71888	Do not send small, unsuspecting children to check on my progress.	Do not send small, unsuspecting children to check on my progress.	3419134	1472005600819	1472005600968	 	32
6658	71888	Do not send small, unsuspecting children to check on my progress.	Do not send small, unsuspecting children to check on my progress.	3419162	1472005601302	1472005601423	c	67
6658	71888	Do not send small, unsuspecting children to check on my progress.	Do not send small, unsuspecting children to check on my progress.	3419163	1472005601448	1472005601518	h	72
6658	71888	Do not send small, unsuspecting children to check on my progress.	Do not send small, unsuspecting children to check on my progress.	3419164	1472005601606	1472005601746	e	69
6658	71888	Do not send small, unsuspecting children to check on my progress.	Do not send small, unsuspecting children to check on my progress.	3419167	1472005601878	1472005602033	c	67
6658	71888	Do not send small, unsuspecting children to check on my progress.	Do not send small, unsuspecting children to check on my progress.	3419172	1472005602089	1472005602209	k	75
6658	71888	Do not send small, unsuspecting children to check on my progress.	Do not send small, unsuspecting children to check on my progress.	3419239	1472005602305	1472005602414	 	32
6658	71888	Do not send small, unsuspecting children to check on my progress.	Do not send small, unsuspecting children to check on my progress.	3419240	1472005602926	1472005603025	o	79
6658	71888	Do not send small, unsuspecting children to check on my progress.	Do not send small, unsuspecting children to check on my progress.	3419241	1472005603230	1472005603264	n	78
6658	71888	Do not send small, unsuspecting children to check on my progress.	Do not send small, unsuspecting children to check on my progress.	3419242	1472005603348	1472005603495	 	32
6658	71888	Do not send small, unsuspecting children to check on my progress.	Do not send small, unsuspecting children to check on my progress.	3419243	1472005603614	1472005603804	m	77
6658	71888	Do not send small, unsuspecting children to check on my progress.	Do not send small, unsuspecting children to check on my progress.	3419315	1472005604221	1472005604355	 	32
6658	71888	Do not send small, unsuspecting children to check on my progress.	Do not send small, unsuspecting children to check on my progress.	3419317	1472005604726	1472005604871	BKSP	8
6658	71888	Do not send small, unsuspecting children to check on my progress.	Do not send small, unsuspecting children to check on my progress.	3419318	1472005604836	1472005604957	y	89
6658	71888	Do not send small, unsuspecting children to check on my progress.	Do not send small, unsuspecting children to check on my progress.	3419320	1472005604992	1472005605097	 	32
6658	71888	Do not send small, unsuspecting children to check on my progress.	Do not send small, unsuspecting children to check on my progress.	3419321	1472005605493	1472005605580	p	80
6658	71888	Do not send small, unsuspecting children to check on my progress.	Do not send small, unsuspecting children to check on my progress.	3419323	1472005605841	1472005605925	u	85
6658	71888	Do not send small, unsuspecting children to check on my progress.	Do not send small, unsuspecting children to check on my progress.	3419422	1472005605956	1472005606041	r	82
6658	71888	Do not send small, unsuspecting children to check on my progress.	Do not send small, unsuspecting children to check on my progress.	3419424	1472005606092	1472005606198	p	80
6658	71888	Do not send small, unsuspecting children to check on my progress.	Do not send small, unsuspecting children to check on my progress.	3419428	1472005606345	1472005606402	o	79
6658	71888	Do not send small, unsuspecting children to check on my progress.	Do not send small, unsuspecting children to check on my progress.	3419433	1472005606909	1472005606961	BKSP	8
6658	71888	Do not send small, unsuspecting children to check on my progress.	Do not send small, unsuspecting children to check on my progress.	3419438	1472005607057	1472005607133	BKSP	8
6658	71888	Do not send small, unsuspecting children to check on my progress.	Do not send small, unsuspecting children to check on my progress.	3419444	1472005607239	1472005607296	BKSP	8
6658	71888	Do not send small, unsuspecting children to check on my progress.	Do not send small, unsuspecting children to check on my progress.	3419450	1472005607391	1472005607449	BKSP	8
6658	71888	Do not send small, unsuspecting children to check on my progress.	Do not send small, unsuspecting children to check on my progress.	3419456	1472005608212	1472005608322	r	82
6658	71888	Do not send small, unsuspecting children to check on my progress.	Do not send small, unsuspecting children to check on my progress.	3419461	1472005608342	1472005608427	o	79
6658	71888	Do not send small, unsuspecting children to check on my progress.	Do not send small, unsuspecting children to check on my progress.	3419516	1472005608649	1472005608722	g	71
6658	71888	Do not send small, unsuspecting children to check on my progress.	Do not send small, unsuspecting children to check on my progress.	3419520	1472005608998	1472005609085	r	82
6658	71888	Do not send small, unsuspecting children to check on my progress.	Do not send small, unsuspecting children to check on my progress.	3419523	1472005609184	1472005609274	e	69
6658	71888	Do not send small, unsuspecting children to check on my progress.	Do not send small, unsuspecting children to check on my progress.	3419526	1472005609380	1472005609450	s	83
6658	71888	Do not send small, unsuspecting children to check on my progress.	Do not send small, unsuspecting children to check on my progress.	3419529	1472005609569	1472005609658	s	83
6658	71888	Do not send small, unsuspecting children to check on my progress.	Do not send small, unsuspecting children to check on my progress.	3419555	1472005610191	1472005610284	.	190
6658	71918	Can you try this again?	Can you try this again?	3419818	1472005613513	1472005614380	SHIFT	16
6658	71918	Can you try this again?	Can you try this again?	3419816	1472005614175	1472005614322	C	67
6658	71918	Can you try this again?	Can you try this again?	3419822	1472005614830	1472005614992	a	65
6658	71918	Can you try this again?	Can you try this again?	3419825	1472005615490	1472005615624	n	78
6658	71918	Can you try this again?	Can you try this again?	3419829	1472005615707	1472005615874	 	32
6658	71918	Can you try this again?	Can you try this again?	3419833	1472005616474	1472005616623	y	89
6658	71918	Can you try this again?	Can you try this again?	3419917	1472005616844	1472005616993	o	79
6658	71918	Can you try this again?	Can you try this again?	3419920	1472005617121	1472005617217	o	79
6658	71918	Can you try this again?	Can you try this again?	3419923	1472005617258	1472005617388	u	85
6658	71918	Can you try this again?	Can you try this again?	3419925	1472005617456	1472005617595	 	32
6658	71918	Can you try this again?	Can you try this again?	3419927	1472005617875	1472005617982	BKSP	8
6658	71918	Can you try this again?	Can you try this again?	3419931	1472005618100	1472005618274	BKSP	8
6658	71918	Can you try this again?	Can you try this again?	3419934	1472005618602	1472005618763	BKSP	8
6658	71918	Can you try this again?	Can you try this again?	3419938	1472005618964	1472005619015	u	85
6658	71918	Can you try this again?	Can you try this again?	3419984	1472005619127	1472005619266	 	32
6658	71918	Can you try this again?	Can you try this again?	3419985	1472005619779	1472005619903	t	84
6658	71918	Can you try this again?	Can you try this again?	3419986	1472005620125	1472005620242	r	82
6658	71918	Can you try this again?	Can you try this again?	3419987	1472005620263	1472005620365	y	89
6658	71918	Can you try this again?	Can you try this again?	3419988	1472005620450	1472005620574	 	32
6658	71918	Can you try this again?	Can you try this again?	3420011	1472005620650	1472005620758	t	84
6658	71918	Can you try this again?	Can you try this again?	3420013	1472005620801	1472005620895	h	72
6658	71918	Can you try this again?	Can you try this again?	3420014	1472005621073	1472005621174	i	73
6658	71918	Can you try this again?	Can you try this again?	3420015	1472005621199	1472005621317	s	83
6658	71918	Can you try this again?	Can you try this again?	3420016	1472005621334	1472005621443	 	32
6658	71918	Can you try this again?	Can you try this again?	3420123	1472005622971	1472005623153	a	65
6658	71918	Can you try this again?	Can you try this again?	3420126	1472005623799	1472005623918	g	71
6658	71918	Can you try this again?	Can you try this again?	3420128	1472005623951	1472005624056	r	82
6658	71918	Can you try this again?	Can you try this again?	3420131	1472005624208	1472005624308	a	65
6658	71918	Can you try this again?	Can you try this again?	3420133	1472005624461	1472005624624	i	73
6658	71918	Can you try this again?	Can you try this again?	3420230	1472005624815	1472005624959	n	78
6658	71918	Can you try this again?	Can you try this again?	3420232	1472005625671	1472005625776	BKSP	8
6658	71918	Can you try this again?	Can you try this again?	3420233	1472005625874	1472005625947	BKSP	8
6658	71918	Can you try this again?	Can you try this again?	3420234	1472005626037	1472005626098	BKSP	8
6658	71918	Can you try this again?	Can you try this again?	3420236	1472005626193	1472005626261	BKSP	8
6658	71918	Can you try this again?	Can you try this again?	3420238	1472005626691	1472005626790	a	65
6658	71918	Can you try this again?	Can you try this again?	3420240	1472005626873	1472005626905	i	73
6658	71918	Can you try this again?	Can you try this again?	3420242	1472005627054	1472005627120	n	78
6658	71918	Can you try this again?	Can you try this again?	3420244	1472005627647	1472005628043	SHIFT	16
6658	71918	Can you try this again?	Can you try this again?	3420245	1472005627822	1472005627878	?	191
6658	71937	What does Hunter think?	What does Hunter think?	3420554	1472005630886	1472005631174	SHIFT	16
6658	71937	What does Hunter think?	What does Hunter think?	3420555	1472005631406	1472005631554	w	87
6658	71937	What does Hunter think?	What does Hunter think?	3420556	1472005632588	1472005632730	BKSP	8
6658	71937	What does Hunter think?	What does Hunter think?	3420557	1472005632762	1472005632879	SHIFT	16
6658	71937	What does Hunter think?	What does Hunter think?	3420558	1472005633112	1472005633336	w	87
6658	71937	What does Hunter think?	What does Hunter think?	3420559	1472005633398	1472005633672	SHIFT	16
6658	71937	What does Hunter think?	What does Hunter think?	3420560	1472005633745	1472005633911	BKSP	8
6658	71937	What does Hunter think?	What does Hunter think?	3420565	1472005633952	1472005634523	SHIFT	16
6658	71937	What does Hunter think?	What does Hunter think?	3420562	1472005634272	1472005634451	W	87
6658	71937	What does Hunter think?	What does Hunter think?	3420569	1472005636247	1472005636343	h	72
6658	71937	What does Hunter think?	What does Hunter think?	3420573	1472005636465	1472005636633	a	65
6658	71937	What does Hunter think?	What does Hunter think?	3420646	1472005637490	1472005637588	t	84
6658	71937	What does Hunter think?	What does Hunter think?	3420649	1472005637703	1472005637825	 	32
6658	71937	What does Hunter think?	What does Hunter think?	3420652	1472005638185	1472005638317	d	68
6658	71937	What does Hunter think?	What does Hunter think?	3420654	1472005638785	1472005638969	o	79
6658	71937	What does Hunter think?	What does Hunter think?	3420719	1472005638943	1472005639035	e	69
6658	71937	What does Hunter think?	What does Hunter think?	3420722	1472005639512	1472005639642	s	83
6658	71937	What does Hunter think?	What does Hunter think?	3420724	1472005639766	1472005639890	 	32
6658	71937	What does Hunter think?	What does Hunter think?	3420731	1472005640478	1472005640935	SHIFT	16
6658	71937	What does Hunter think?	What does Hunter think?	3420728	1472005640662	1472005640812	H	72
6658	71937	What does Hunter think?	What does Hunter think?	3420734	1472005640971	1472005641071	u	85
6658	71937	What does Hunter think?	What does Hunter think?	3420736	1472005641327	1472005641506	n	78
6658	71937	What does Hunter think?	What does Hunter think?	3420831	1472005641583	1472005641698	t	84
6658	71937	What does Hunter think?	What does Hunter think?	3420833	1472005642016	1472005642199	e	69
6658	71937	What does Hunter think?	What does Hunter think?	3420836	1472005642262	1472005642388	r	82
6658	71937	What does Hunter think?	What does Hunter think?	3420838	1472005642498	1472005642603	 	32
6658	71937	What does Hunter think?	What does Hunter think?	3420840	1472005643643	1472005643753	t	84
6658	71937	What does Hunter think?	What does Hunter think?	3421002	1472005644591	1472005644726	h	72
6658	71937	What does Hunter think?	What does Hunter think?	3421005	1472005645114	1472005645214	i	73
6658	71937	What does Hunter think?	What does Hunter think?	3421008	1472005645594	1472005645718	n	78
6658	71937	What does Hunter think?	What does Hunter think?	3421013	1472005645771	1472005645821	n	78
6658	71937	What does Hunter think?	What does Hunter think?	3421023	1472005646825	1472005646954	BKSP	8
6658	71937	What does Hunter think?	What does Hunter think?	3421027	1472005647127	1472005647192	k	75
6658	71937	What does Hunter think?	What does Hunter think?	3421077	1472005647433	1472005648304	SHIFT	16
6658	71937	What does Hunter think?	What does Hunter think?	3421074	1472005648010	1472005648053	?	191
6658	71957	This event will be a blast.	This event will be a blast.	3421327	1472005651082	1472005651535	SHIFT	16
6658	71957	This event will be a blast.	This event will be a blast.	3421324	1472005651336	1472005651453	T	84
6658	71957	This event will be a blast.	This event will be a blast.	3421331	1472005651637	1472005651774	h	72
6658	71957	This event will be a blast.	This event will be a blast.	3421335	1472005651936	1472005652088	i	73
6658	71957	This event will be a blast.	This event will be a blast.	3421337	1472005652240	1472005652415	s	83
6658	71957	This event will be a blast.	This event will be a blast.	3421341	1472005652717	1472005652890	 	32
6658	71957	This event will be a blast.	This event will be a blast.	3422149	1472005666093	1472005666191	;	186
6658	71957	This event will be a blast.	This event will be a blast.	3422157	1472005666866	1472005667000	BKSP	8
6658	71957	This event will be a blast.	This event will be a blast.	3422166	1472005667012	1472005667124	e	69
6658	71957	This event will be a blast.	This event will be a blast.	3422173	1472005667531	1472005667654	v	86
6658	71957	This event will be a blast.	This event will be a blast.	3422179	1472005667774	1472005667903	e	69
6658	71957	This event will be a blast.	This event will be a blast.	3422237	1472005667891	1472005667957	n	78
6658	71957	This event will be a blast.	This event will be a blast.	3422240	1472005667993	1472005668115	t	84
6658	71957	This event will be a blast.	This event will be a blast.	3422243	1472005668188	1472005668338	 	32
6658	71957	This event will be a blast.	This event will be a blast.	3422247	1472005668704	1472005668826	w	87
6658	71957	This event will be a blast.	This event will be a blast.	3422251	1472005668841	1472005668896	i	73
6658	71957	This event will be a blast.	This event will be a blast.	3422253	1472005669161	1472005669250	l	76
6658	71957	This event will be a blast.	This event will be a blast.	3422285	1472005669349	1472005669410	l	76
6658	71957	This event will be a blast.	This event will be a blast.	3422286	1472005669497	1472005669616	 	32
6658	71957	This event will be a blast.	This event will be a blast.	3422288	1472005670097	1472005670168	b	66
6658	71957	This event will be a blast.	This event will be a blast.	3422291	1472005670197	1472005670281	e	69
6658	71957	This event will be a blast.	This event will be a blast.	3422294	1472005670349	1472005670452	 	32
6658	71957	This event will be a blast.	This event will be a blast.	3422352	1472005670833	1472005670968	a	65
6658	71957	This event will be a blast.	This event will be a blast.	3422354	1472005671068	1472005671180	 	32
6658	71957	This event will be a blast.	This event will be a blast.	3422356	1472005671229	1472005671327	b	66
6658	71957	This event will be a blast.	This event will be a blast.	3422359	1472005671757	1472005671879	l	76
6658	71957	This event will be a blast.	This event will be a blast.	3422364	1472005671890	1472005671968	a	65
6658	71957	This event will be a blast.	This event will be a blast.	3422457	1472005672073	1472005672142	s	83
6658	71957	This event will be a blast.	This event will be a blast.	3422460	1472005672319	1472005672402	t	84
6658	71957	This event will be a blast.	This event will be a blast.	3422463	1472005673857	1472005673960	.	190
6658	71988	The move was a further twist in the long-running dispute.	The move was a further twist in the long-running dispute.	3422685	1472005676461	1472005676939	SHIFT	16
6658	71988	The move was a further twist in the long-running dispute.	The move was a further twist in the long-running dispute.	3422681	1472005676728	1472005676830	T	84
6658	71988	The move was a further twist in the long-running dispute.	The move was a further twist in the long-running dispute.	3422691	1472005677048	1472005677153	h	72
6658	71988	The move was a further twist in the long-running dispute.	The move was a further twist in the long-running dispute.	3422695	1472005677164	1472005677330	e	69
6658	71988	The move was a further twist in the long-running dispute.	The move was a further twist in the long-running dispute.	3422701	1472005677350	1472005677484	 	32
6658	71988	The move was a further twist in the long-running dispute.	The move was a further twist in the long-running dispute.	3422709	1472005677850	1472005677961	m	77
6658	71988	The move was a further twist in the long-running dispute.	The move was a further twist in the long-running dispute.	3422818	1472005678236	1472005678358	o	79
6658	71988	The move was a further twist in the long-running dispute.	The move was a further twist in the long-running dispute.	3422823	1472005678370	1472005678459	v	86
6658	71988	The move was a further twist in the long-running dispute.	The move was a further twist in the long-running dispute.	3422829	1472005678619	1472005678779	e	69
6658	71988	The move was a further twist in the long-running dispute.	The move was a further twist in the long-running dispute.	3422835	1472005678805	1472005678945	 	32
6658	71988	The move was a further twist in the long-running dispute.	The move was a further twist in the long-running dispute.	3422840	1472005679414	1472005679570	w	87
6658	71988	The move was a further twist in the long-running dispute.	The move was a further twist in the long-running dispute.	3422911	1472005679735	1472005679897	a	65
6658	71988	The move was a further twist in the long-running dispute.	The move was a further twist in the long-running dispute.	3422916	1472005680301	1472005680420	s	83
6658	71988	The move was a further twist in the long-running dispute.	The move was a further twist in the long-running dispute.	3422921	1472005680522	1472005680632	 	32
6658	71988	The move was a further twist in the long-running dispute.	The move was a further twist in the long-running dispute.	3422926	1472005680733	1472005680900	a	65
6658	71988	The move was a further twist in the long-running dispute.	The move was a further twist in the long-running dispute.	3422929	1472005680994	1472005681075	 	32
6658	71988	The move was a further twist in the long-running dispute.	The move was a further twist in the long-running dispute.	3422962	1472005681180	1472005681272	f	70
6658	71988	The move was a further twist in the long-running dispute.	The move was a further twist in the long-running dispute.	3422967	1472005681376	1472005681531	u	85
6658	71988	The move was a further twist in the long-running dispute.	The move was a further twist in the long-running dispute.	3422975	1472005681505	1472005681596	r	82
6658	71988	The move was a further twist in the long-running dispute.	The move was a further twist in the long-running dispute.	3422983	1472005681713	1472005681862	t	84
6658	71988	The move was a further twist in the long-running dispute.	The move was a further twist in the long-running dispute.	3422988	1472005681864	1472005681953	h	72
6658	71988	The move was a further twist in the long-running dispute.	The move was a further twist in the long-running dispute.	3423079	1472005682102	1472005682180	e	69
6658	71988	The move was a further twist in the long-running dispute.	The move was a further twist in the long-running dispute.	3423086	1472005682348	1472005682486	r	82
6658	71988	The move was a further twist in the long-running dispute.	The move was a further twist in the long-running dispute.	3423092	1472005682550	1472005682692	 	32
6658	71988	The move was a further twist in the long-running dispute.	The move was a further twist in the long-running dispute.	3423098	1472005682881	1472005682991	t	84
6658	71988	The move was a further twist in the long-running dispute.	The move was a further twist in the long-running dispute.	3423104	1472005683266	1472005683389	w	87
6658	71988	The move was a further twist in the long-running dispute.	The move was a further twist in the long-running dispute.	3423146	1472005683454	1472005683583	i	73
6658	71988	The move was a further twist in the long-running dispute.	The move was a further twist in the long-running dispute.	3423148	1472005683596	1472005683735	s	83
6658	71988	The move was a further twist in the long-running dispute.	The move was a further twist in the long-running dispute.	3423150	1472005683902	1472005684035	t	84
6658	71988	The move was a further twist in the long-running dispute.	The move was a further twist in the long-running dispute.	3423152	1472005684147	1472005684298	 	32
6658	71988	The move was a further twist in the long-running dispute.	The move was a further twist in the long-running dispute.	3423155	1472005684546	1472005684643	i	73
6658	71988	The move was a further twist in the long-running dispute.	The move was a further twist in the long-running dispute.	3423197	1472005684835	1472005685013	n	78
6658	71988	The move was a further twist in the long-running dispute.	The move was a further twist in the long-running dispute.	3423199	1472005684961	1472005685090	 	32
6658	71988	The move was a further twist in the long-running dispute.	The move was a further twist in the long-running dispute.	3423202	1472005685196	1472005685305	t	84
6658	71988	The move was a further twist in the long-running dispute.	The move was a further twist in the long-running dispute.	3423205	1472005685311	1472005685413	h	72
6658	71988	The move was a further twist in the long-running dispute.	The move was a further twist in the long-running dispute.	3423208	1472005685450	1472005685616	e	69
6658	71988	The move was a further twist in the long-running dispute.	The move was a further twist in the long-running dispute.	3423355	1472005685675	1472005685778	 	32
6658	71988	The move was a further twist in the long-running dispute.	The move was a further twist in the long-running dispute.	3423357	1472005687334	1472005687461	l	76
6658	71988	The move was a further twist in the long-running dispute.	The move was a further twist in the long-running dispute.	3423360	1472005687779	1472005687897	o	79
6658	71988	The move was a further twist in the long-running dispute.	The move was a further twist in the long-running dispute.	3423363	1472005688120	1472005688249	n	78
6658	71988	The move was a further twist in the long-running dispute.	The move was a further twist in the long-running dispute.	3423366	1472005688277	1472005688408	g	71
6658	71988	The move was a further twist in the long-running dispute.	The move was a further twist in the long-running dispute.	3423493	1472005689326	1472005689389	-	189
6658	71988	The move was a further twist in the long-running dispute.	The move was a further twist in the long-running dispute.	3423494	1472005690010	1472005690147	r	82
6658	71988	The move was a further twist in the long-running dispute.	The move was a further twist in the long-running dispute.	3423495	1472005690260	1472005690377	u	85
6658	71988	The move was a further twist in the long-running dispute.	The move was a further twist in the long-running dispute.	3423496	1472005690511	1472005690590	n	78
6658	71988	The move was a further twist in the long-running dispute.	The move was a further twist in the long-running dispute.	3423498	1472005690657	1472005690741	n	78
6658	71988	The move was a further twist in the long-running dispute.	The move was a further twist in the long-running dispute.	3423550	1472005690901	1472005690980	i	73
6658	71988	The move was a further twist in the long-running dispute.	The move was a further twist in the long-running dispute.	3423554	1472005691131	1472005691187	n	78
6658	71988	The move was a further twist in the long-running dispute.	The move was a further twist in the long-running dispute.	3423559	1472005691228	1472005691316	g	71
6658	71988	The move was a further twist in the long-running dispute.	The move was a further twist in the long-running dispute.	3423564	1472005691424	1472005691533	 	32
6658	71988	The move was a further twist in the long-running dispute.	The move was a further twist in the long-running dispute.	3423567	1472005692016	1472005692155	d	68
6658	71988	The move was a further twist in the long-running dispute.	The move was a further twist in the long-running dispute.	3423644	1472005692260	1472005692375	i	73
6658	71988	The move was a further twist in the long-running dispute.	The move was a further twist in the long-running dispute.	3423648	1472005692709	1472005692852	s	83
6658	71988	The move was a further twist in the long-running dispute.	The move was a further twist in the long-running dispute.	3423649	1472005693223	1472005693324	o	79
6658	71988	The move was a further twist in the long-running dispute.	The move was a further twist in the long-running dispute.	3423652	1472005693583	1472005693697	u	85
6658	71988	The move was a further twist in the long-running dispute.	The move was a further twist in the long-running dispute.	3423656	1472005693781	1472005693876	t	84
6658	71988	The move was a further twist in the long-running dispute.	The move was a further twist in the long-running dispute.	3423774	1472005694035	1472005694175	e	69
6658	71988	The move was a further twist in the long-running dispute.	The move was a further twist in the long-running dispute.	3423777	1472005694776	1472005694859	BKSP	8
6658	71988	The move was a further twist in the long-running dispute.	The move was a further twist in the long-running dispute.	3423780	1472005694954	1472005695022	BKSP	8
6658	71988	The move was a further twist in the long-running dispute.	The move was a further twist in the long-running dispute.	3423783	1472005695125	1472005695165	BKSP	8
6658	71988	The move was a further twist in the long-running dispute.	The move was a further twist in the long-running dispute.	3423788	1472005695980	1472005696133	BKSP	8
6658	71988	The move was a further twist in the long-running dispute.	The move was a further twist in the long-running dispute.	3423793	1472005696798	1472005696913	p	80
6658	71988	The move was a further twist in the long-running dispute.	The move was a further twist in the long-running dispute.	3423799	1472005697087	1472005697172	u	85
6658	71988	The move was a further twist in the long-running dispute.	The move was a further twist in the long-running dispute.	3423805	1472005697179	1472005697263	t	84
6658	71988	The move was a further twist in the long-running dispute.	The move was a further twist in the long-running dispute.	3423811	1472005697476	1472005697665	e	69
6658	71988	The move was a further twist in the long-running dispute.	The move was a further twist in the long-running dispute.	3423840	1472005698289	1472005698355	.	190
6658	72012	If it needs to be paid, we will need to add the day to the deal.	If it needs to be paid, we will need to add the day to the deal.	3424126	1472005701325	1472005701600	SHIFT	16
6658	72012	If it needs to be paid, we will need to add the day to the deal.	If it needs to be paid, we will need to add the day to the deal.	3424122	1472005701469	1472005701567	I	73
6658	72012	If it needs to be paid, we will need to add the day to the deal.	If it needs to be paid, we will need to add the day to the deal.	3424129	1472005701748	1472005701868	f	70
6658	72012	If it needs to be paid, we will need to add the day to the deal.	If it needs to be paid, we will need to add the day to the deal.	3424131	1472005702146	1472005702273	 	32
6658	72012	If it needs to be paid, we will need to add the day to the deal.	If it needs to be paid, we will need to add the day to the deal.	3424133	1472005702333	1472005702451	i	73
6658	72012	If it needs to be paid, we will need to add the day to the deal.	If it needs to be paid, we will need to add the day to the deal.	3424135	1472005703705	1472005703813	t	84
6658	72012	If it needs to be paid, we will need to add the day to the deal.	If it needs to be paid, we will need to add the day to the deal.	3424178	1472005703887	1472005704047	 	32
6658	72012	If it needs to be paid, we will need to add the day to the deal.	If it needs to be paid, we will need to add the day to the deal.	3424183	1472005704099	1472005704197	n	78
6658	72012	If it needs to be paid, we will need to add the day to the deal.	If it needs to be paid, we will need to add the day to the deal.	3424186	1472005704237	1472005704357	e	69
6658	72012	If it needs to be paid, we will need to add the day to the deal.	If it needs to be paid, we will need to add the day to the deal.	3424190	1472005704452	1472005704553	e	69
6658	72012	If it needs to be paid, we will need to add the day to the deal.	If it needs to be paid, we will need to add the day to the deal.	3424194	1472005704700	1472005704795	d	68
6658	72012	If it needs to be paid, we will need to add the day to the deal.	If it needs to be paid, we will need to add the day to the deal.	3424307	1472005704869	1472005704983	 	32
6658	72012	If it needs to be paid, we will need to add the day to the deal.	If it needs to be paid, we will need to add the day to the deal.	3424311	1472005705425	1472005705584	BKSP	8
6658	72012	If it needs to be paid, we will need to add the day to the deal.	If it needs to be paid, we will need to add the day to the deal.	3424316	1472005705597	1472005705718	s	83
6658	72012	If it needs to be paid, we will need to add the day to the deal.	If it needs to be paid, we will need to add the day to the deal.	3424319	1472005705752	1472005705879	 	32
6658	72012	If it needs to be paid, we will need to add the day to the deal.	If it needs to be paid, we will need to add the day to the deal.	3424321	1472005707029	1472005707148	t	84
6658	72012	If it needs to be paid, we will need to add the day to the deal.	If it needs to be paid, we will need to add the day to the deal.	3424324	1472005707407	1472005707516	o	79
6658	72012	If it needs to be paid, we will need to add the day to the deal.	If it needs to be paid, we will need to add the day to the deal.	3424393	1472005707551	1472005707725	 	32
6658	72012	If it needs to be paid, we will need to add the day to the deal.	If it needs to be paid, we will need to add the day to the deal.	3424396	1472005708166	1472005708235	b	66
6658	72012	If it needs to be paid, we will need to add the day to the deal.	If it needs to be paid, we will need to add the day to the deal.	3424399	1472005708241	1472005708357	e	69
6658	72012	If it needs to be paid, we will need to add the day to the deal.	If it needs to be paid, we will need to add the day to the deal.	3424403	1472005708437	1472005708549	 	32
6658	72012	If it needs to be paid, we will need to add the day to the deal.	If it needs to be paid, we will need to add the day to the deal.	3424407	1472005709322	1472005709419	p	80
6658	72012	If it needs to be paid, we will need to add the day to the deal.	If it needs to be paid, we will need to add the day to the deal.	3424480	1472005709450	1472005709548	a	65
6658	72012	If it needs to be paid, we will need to add the day to the deal.	If it needs to be paid, we will need to add the day to the deal.	3424483	1472005709606	1472005709680	i	73
6658	72012	If it needs to be paid, we will need to add the day to the deal.	If it needs to be paid, we will need to add the day to the deal.	3424488	1472005709682	1472005709794	d	68
6658	72012	If it needs to be paid, we will need to add the day to the deal.	If it needs to be paid, we will need to add the day to the deal.	3424490	1472005709923	1472005710034	 	32
6658	72012	If it needs to be paid, we will need to add the day to the deal.	If it needs to be paid, we will need to add the day to the deal.	3424493	1472005710394	1472005710565	BKSP	8
6658	72012	If it needs to be paid, we will need to add the day to the deal.	If it needs to be paid, we will need to add the day to the deal.	3424498	1472005710761	1472005710845	,	188
6658	72012	If it needs to be paid, we will need to add the day to the deal.	If it needs to be paid, we will need to add the day to the deal.	3424532	1472005710862	1472005710962	 	32
6658	72012	If it needs to be paid, we will need to add the day to the deal.	If it needs to be paid, we will need to add the day to the deal.	3424535	1472005711070	1472005711168	w	87
6658	72012	If it needs to be paid, we will need to add the day to the deal.	If it needs to be paid, we will need to add the day to the deal.	3424537	1472005711260	1472005711338	e	69
6658	72012	If it needs to be paid, we will need to add the day to the deal.	If it needs to be paid, we will need to add the day to the deal.	3424539	1472005711468	1472005711577	 	32
6658	72012	If it needs to be paid, we will need to add the day to the deal.	If it needs to be paid, we will need to add the day to the deal.	3424542	1472005711666	1472005711751	w	87
6658	72012	If it needs to be paid, we will need to add the day to the deal.	If it needs to be paid, we will need to add the day to the deal.	3424583	1472005711776	1472005711875	i	73
6658	72012	If it needs to be paid, we will need to add the day to the deal.	If it needs to be paid, we will need to add the day to the deal.	3424586	1472005712000	1472005712079	l	76
6658	72012	If it needs to be paid, we will need to add the day to the deal.	If it needs to be paid, we will need to add the day to the deal.	3424589	1472005712152	1472005712243	l	76
6658	72012	If it needs to be paid, we will need to add the day to the deal.	If it needs to be paid, we will need to add the day to the deal.	3424593	1472005712306	1472005712382	 	32
6658	72012	If it needs to be paid, we will need to add the day to the deal.	If it needs to be paid, we will need to add the day to the deal.	3424597	1472005712677	1472005712757	n	78
6658	72012	If it needs to be paid, we will need to add the day to the deal.	If it needs to be paid, we will need to add the day to the deal.	3424633	1472005712789	1472005712844	e	69
6658	72012	If it needs to be paid, we will need to add the day to the deal.	If it needs to be paid, we will need to add the day to the deal.	3424636	1472005712938	1472005713020	e	69
6658	72012	If it needs to be paid, we will need to add the day to the deal.	If it needs to be paid, we will need to add the day to the deal.	3424640	1472005713125	1472005713223	d	68
6658	72012	If it needs to be paid, we will need to add the day to the deal.	If it needs to be paid, we will need to add the day to the deal.	3424646	1472005713321	1472005713426	 	32
6658	72012	If it needs to be paid, we will need to add the day to the deal.	If it needs to be paid, we will need to add the day to the deal.	3424651	1472005713593	1472005713702	t	84
6658	72012	If it needs to be paid, we will need to add the day to the deal.	If it needs to be paid, we will need to add the day to the deal.	3424690	1472005713800	1472005713888	o	79
6658	72012	If it needs to be paid, we will need to add the day to the deal.	If it needs to be paid, we will need to add the day to the deal.	3424692	1472005713925	1472005714025	 	32
6658	72012	If it needs to be paid, we will need to add the day to the deal.	If it needs to be paid, we will need to add the day to the deal.	3424694	1472005714240	1472005714284	a	65
6658	72012	If it needs to be paid, we will need to add the day to the deal.	If it needs to be paid, we will need to add the day to the deal.	3424696	1472005714434	1472005714503	d	68
6658	72012	If it needs to be paid, we will need to add the day to the deal.	If it needs to be paid, we will need to add the day to the deal.	3424700	1472005714605	1472005714682	d	68
6658	72012	If it needs to be paid, we will need to add the day to the deal.	If it needs to be paid, we will need to add the day to the deal.	3424759	1472005714783	1472005714879	 	32
6658	72012	If it needs to be paid, we will need to add the day to the deal.	If it needs to be paid, we will need to add the day to the deal.	3424760	1472005715092	1472005715172	t	84
6658	72012	If it needs to be paid, we will need to add the day to the deal.	If it needs to be paid, we will need to add the day to the deal.	3424763	1472005715219	1472005715321	h	72
6658	72012	If it needs to be paid, we will need to add the day to the deal.	If it needs to be paid, we will need to add the day to the deal.	3424770	1472005715339	1472005715437	e	69
6658	72012	If it needs to be paid, we will need to add the day to the deal.	If it needs to be paid, we will need to add the day to the deal.	3424774	1472005715528	1472005715623	 	32
6658	72012	If it needs to be paid, we will need to add the day to the deal.	If it needs to be paid, we will need to add the day to the deal.	3424885	1472005715988	1472005716053	d	68
6658	72012	If it needs to be paid, we will need to add the day to the deal.	If it needs to be paid, we will need to add the day to the deal.	3424886	1472005716249	1472005716365	a	65
6658	72012	If it needs to be paid, we will need to add the day to the deal.	If it needs to be paid, we will need to add the day to the deal.	3424890	1472005716854	1472005716922	y	89
6658	72012	If it needs to be paid, we will need to add the day to the deal.	If it needs to be paid, we will need to add the day to the deal.	3424895	1472005716996	1472005717107	 	32
6658	72012	If it needs to be paid, we will need to add the day to the deal.	If it needs to be paid, we will need to add the day to the deal.	3424899	1472005717960	1472005718059	t	84
6658	72012	If it needs to be paid, we will need to add the day to the deal.	If it needs to be paid, we will need to add the day to the deal.	3424912	1472005718107	1472005718210	o	79
6658	72012	If it needs to be paid, we will need to add the day to the deal.	If it needs to be paid, we will need to add the day to the deal.	3424915	1472005718185	1472005718294	 	32
6658	72012	If it needs to be paid, we will need to add the day to the deal.	If it needs to be paid, we will need to add the day to the deal.	3424919	1472005718497	1472005718577	t	84
6658	72012	If it needs to be paid, we will need to add the day to the deal.	If it needs to be paid, we will need to add the day to the deal.	3424923	1472005718604	1472005718695	h	72
6658	72012	If it needs to be paid, we will need to add the day to the deal.	If it needs to be paid, we will need to add the day to the deal.	3424927	1472005718741	1472005718818	e	69
6658	72012	If it needs to be paid, we will need to add the day to the deal.	If it needs to be paid, we will need to add the day to the deal.	3424968	1472005718938	1472005719043	 	32
6658	72012	If it needs to be paid, we will need to add the day to the deal.	If it needs to be paid, we will need to add the day to the deal.	3424969	1472005719107	1472005719183	d	68
6658	72012	If it needs to be paid, we will need to add the day to the deal.	If it needs to be paid, we will need to add the day to the deal.	3424970	1472005719288	1472005719365	e	69
6658	72012	If it needs to be paid, we will need to add the day to the deal.	If it needs to be paid, we will need to add the day to the deal.	3424972	1472005719720	1472005719758	a	65
6658	72012	If it needs to be paid, we will need to add the day to the deal.	If it needs to be paid, we will need to add the day to the deal.	3424973	1472005719858	1472005719925	l	76
6658	72012	If it needs to be paid, we will need to add the day to the deal.	If it needs to be paid, we will need to add the day to the deal.	3425032	1472005720194	1472005720244	,	188
6658	72012	If it needs to be paid, we will need to add the day to the deal.	If it needs to be paid, we will need to add the day to the deal.	3425034	1472005720834	1472005720922	BKSP	8
6658	72012	If it needs to be paid, we will need to add the day to the deal.	If it needs to be paid, we will need to add the day to the deal.	3425036	1472005721022	1472005721091	.	190
