PARTICIPANT_ID	TEST_SECTION_ID	SENTENCE	USER_INPUT	KEYSTROKE_ID	PRESS_TIME	RELEASE_TIME	LETTER	KEYCODE
6661	71573	Binoche welcomed the movie industry to the French riviera.	Binoche welcomed the movie industry to the French rivera.	3403191	1472005301486	1472005301766	SHIFT	16
6661	71573	Binoche welcomed the movie industry to the French riviera.	Binoche welcomed the movie industry to the French rivera.	3403198	1472005301651	1472005301775	B	66
6661	71573	Binoche welcomed the movie industry to the French riviera.	Binoche welcomed the movie industry to the French rivera.	3403202	1472005302035	1472005302176	i	73
6661	71573	Binoche welcomed the movie industry to the French riviera.	Binoche welcomed the movie industry to the French rivera.	3403213	1472005302346	1472005302470	n	78
6661	71573	Binoche welcomed the movie industry to the French riviera.	Binoche welcomed the movie industry to the French rivera.	3403221	1472005302552	1472005302715	o	79
6661	71573	Binoche welcomed the movie industry to the French riviera.	Binoche welcomed the movie industry to the French rivera.	3403228	1472005302775	1472005302945	c	67
6661	71573	Binoche welcomed the movie industry to the French riviera.	Binoche welcomed the movie industry to the French rivera.	3403299	1472005302937	1472005303085	h	72
6661	71573	Binoche welcomed the movie industry to the French riviera.	Binoche welcomed the movie industry to the French rivera.	3403307	1472005303131	1472005303282	e	69
6661	71573	Binoche welcomed the movie industry to the French riviera.	Binoche welcomed the movie industry to the French rivera.	3403311	1472005303308	1472005303407	 	32
6661	71573	Binoche welcomed the movie industry to the French riviera.	Binoche welcomed the movie industry to the French rivera.	3403317	1472005303726	1472005303836	w	87
6661	71573	Binoche welcomed the movie industry to the French riviera.	Binoche welcomed the movie industry to the French rivera.	3403322	1472005303951	1472005304102	e	69
6661	71573	Binoche welcomed the movie industry to the French riviera.	Binoche welcomed the movie industry to the French rivera.	3403329	1472005304151	1472005304310	l	76
6661	71573	Binoche welcomed the movie industry to the French riviera.	Binoche welcomed the movie industry to the French rivera.	3403377	1472005304299	1472005304447	c	67
6661	71573	Binoche welcomed the movie industry to the French riviera.	Binoche welcomed the movie industry to the French rivera.	3403378	1472005304476	1472005304640	o	79
6661	71573	Binoche welcomed the movie industry to the French riviera.	Binoche welcomed the movie industry to the French rivera.	3403382	1472005304587	1472005304745	m	77
6661	71573	Binoche welcomed the movie industry to the French riviera.	Binoche welcomed the movie industry to the French rivera.	3403384	1472005304746	1472005304863	e	69
6661	71573	Binoche welcomed the movie industry to the French riviera.	Binoche welcomed the movie industry to the French rivera.	3403388	1472005304968	1472005305064	d	68
6661	71573	Binoche welcomed the movie industry to the French riviera.	Binoche welcomed the movie industry to the French rivera.	3403395	1472005305074	1472005305187	 	32
6661	71573	Binoche welcomed the movie industry to the French riviera.	Binoche welcomed the movie industry to the French rivera.	3403419	1472005305231	1472005305332	t	84
6661	71573	Binoche welcomed the movie industry to the French riviera.	Binoche welcomed the movie industry to the French rivera.	3403424	1472005305343	1472005305457	h	72
6661	71573	Binoche welcomed the movie industry to the French riviera.	Binoche welcomed the movie industry to the French rivera.	3403428	1472005305492	1472005305634	e	69
6661	71573	Binoche welcomed the movie industry to the French riviera.	Binoche welcomed the movie industry to the French rivera.	3403431	1472005305578	1472005305713	 	32
6661	71573	Binoche welcomed the movie industry to the French riviera.	Binoche welcomed the movie industry to the French rivera.	3403434	1472005305766	1472005305944	m	77
6661	71573	Binoche welcomed the movie industry to the French riviera.	Binoche welcomed the movie industry to the French rivera.	3403517	1472005305895	1472005306139	o	79
6661	71573	Binoche welcomed the movie industry to the French riviera.	Binoche welcomed the movie industry to the French rivera.	3403518	1472005306154	1472005306286	i	73
6661	71573	Binoche welcomed the movie industry to the French riviera.	Binoche welcomed the movie industry to the French rivera.	3403519	1472005306588	1472005306696	BKSP	8
6661	71573	Binoche welcomed the movie industry to the French riviera.	Binoche welcomed the movie industry to the French rivera.	3403522	1472005306752	1472005306902	v	86
6661	71573	Binoche welcomed the movie industry to the French riviera.	Binoche welcomed the movie industry to the French rivera.	3403524	1472005306949	1472005307119	i	73
6661	71573	Binoche welcomed the movie industry to the French riviera.	Binoche welcomed the movie industry to the French rivera.	3403526	1472005307149	1472005307298	e	69
6661	71573	Binoche welcomed the movie industry to the French riviera.	Binoche welcomed the movie industry to the French rivera.	3403528	1472005307491	1472005307629	 	32
6661	71573	Binoche welcomed the movie industry to the French riviera.	Binoche welcomed the movie industry to the French rivera.	3403574	1472005307687	1472005307860	i	73
6661	71573	Binoche welcomed the movie industry to the French riviera.	Binoche welcomed the movie industry to the French rivera.	3403577	1472005307822	1472005307964	n	78
6661	71573	Binoche welcomed the movie industry to the French riviera.	Binoche welcomed the movie industry to the French rivera.	3403581	1472005308051	1472005308197	f	70
6661	71573	Binoche welcomed the movie industry to the French riviera.	Binoche welcomed the movie industry to the French rivera.	3403583	1472005308436	1472005308572	BKSP	8
6661	71573	Binoche welcomed the movie industry to the French riviera.	Binoche welcomed the movie industry to the French rivera.	3403587	1472005308549	1472005308662	d	68
6661	71573	Binoche welcomed the movie industry to the French riviera.	Binoche welcomed the movie industry to the French rivera.	3403591	1472005308756	1472005308893	e	69
6661	71573	Binoche welcomed the movie industry to the French riviera.	Binoche welcomed the movie industry to the French rivera.	3403742	1472005308947	1472005309113	u	85
6661	71573	Binoche welcomed the movie industry to the French riviera.	Binoche welcomed the movie industry to the French rivera.	3403744	1472005309107	1472005309175	c	67
6661	71573	Binoche welcomed the movie industry to the French riviera.	Binoche welcomed the movie industry to the French rivera.	3403750	1472005309301	1472005309381	BKSP	8
6661	71573	Binoche welcomed the movie industry to the French riviera.	Binoche welcomed the movie industry to the French rivera.	3403756	1472005309482	1472005309549	BKSP	8
6661	71573	Binoche welcomed the movie industry to the French riviera.	Binoche welcomed the movie industry to the French rivera.	3403760	1472005309645	1472005309726	BKSP	8
6661	71573	Binoche welcomed the movie industry to the French riviera.	Binoche welcomed the movie industry to the French rivera.	3403766	1472005310379	1472005310525	u	85
6661	71573	Binoche welcomed the movie industry to the French riviera.	Binoche welcomed the movie industry to the French rivera.	3403771	1472005310573	1472005310661	c	67
6661	71573	Binoche welcomed the movie industry to the French riviera.	Binoche welcomed the movie industry to the French rivera.	3403776	1472005311014	1472005311144	BKSP	8
6661	71573	Binoche welcomed the movie industry to the French riviera.	Binoche welcomed the movie industry to the French rivera.	3403780	1472005311536	1472005311656	s	83
6661	71573	Binoche welcomed the movie industry to the French riviera.	Binoche welcomed the movie industry to the French rivera.	3403839	1472005311767	1472005311856	t	84
6661	71573	Binoche welcomed the movie industry to the French riviera.	Binoche welcomed the movie industry to the French rivera.	3403842	1472005312233	1472005312394	r	82
6661	71573	Binoche welcomed the movie industry to the French riviera.	Binoche welcomed the movie industry to the French rivera.	3403847	1472005312417	1472005312518	y	89
6661	71573	Binoche welcomed the movie industry to the French riviera.	Binoche welcomed the movie industry to the French rivera.	3403852	1472005312607	1472005312716	 	32
6661	71573	Binoche welcomed the movie industry to the French riviera.	Binoche welcomed the movie industry to the French rivera.	3403858	1472005312904	1472005313071	t	84
6661	71573	Binoche welcomed the movie industry to the French riviera.	Binoche welcomed the movie industry to the French rivera.	3403926	1472005313054	1472005313247	o	79
6661	71573	Binoche welcomed the movie industry to the French riviera.	Binoche welcomed the movie industry to the French rivera.	3403932	1472005313217	1472005313357	 	32
6661	71573	Binoche welcomed the movie industry to the French riviera.	Binoche welcomed the movie industry to the French rivera.	3403938	1472005313421	1472005313532	t	84
6661	71573	Binoche welcomed the movie industry to the French riviera.	Binoche welcomed the movie industry to the French rivera.	3403944	1472005313609	1472005313734	h	72
6661	71573	Binoche welcomed the movie industry to the French riviera.	Binoche welcomed the movie industry to the French rivera.	3403951	1472005313750	1472005313922	e	69
6661	71573	Binoche welcomed the movie industry to the French riviera.	Binoche welcomed the movie industry to the French rivera.	3403958	1472005314053	1472005314131	 	32
6661	71573	Binoche welcomed the movie industry to the French riviera.	Binoche welcomed the movie industry to the French rivera.	3404076	1472005314782	1472005315129	SHIFT	16
6661	71573	Binoche welcomed the movie industry to the French riviera.	Binoche welcomed the movie industry to the French rivera.	3404081	1472005315040	1472005315149	F	70
6661	71573	Binoche welcomed the movie industry to the French riviera.	Binoche welcomed the movie industry to the French rivera.	3404088	1472005315285	1472005315373	r	82
6661	71573	Binoche welcomed the movie industry to the French riviera.	Binoche welcomed the movie industry to the French rivera.	3404094	1472005315562	1472005315709	e	69
6661	71573	Binoche welcomed the movie industry to the French riviera.	Binoche welcomed the movie industry to the French rivera.	3404098	1472005315767	1472005315830	n	78
6661	71573	Binoche welcomed the movie industry to the French riviera.	Binoche welcomed the movie industry to the French rivera.	3404101	1472005315863	1472005315963	c	67
6661	71573	Binoche welcomed the movie industry to the French riviera.	Binoche welcomed the movie industry to the French rivera.	3404172	1472005316142	1472005316314	h	72
6661	71573	Binoche welcomed the movie industry to the French riviera.	Binoche welcomed the movie industry to the French rivera.	3404174	1472005317104	1472005317230	 	32
6661	71573	Binoche welcomed the movie industry to the French riviera.	Binoche welcomed the movie industry to the French rivera.	3404176	1472005317287	1472005317429	r	82
6661	71573	Binoche welcomed the movie industry to the French riviera.	Binoche welcomed the movie industry to the French rivera.	3404178	1472005317454	1472005317608	i	73
6661	71573	Binoche welcomed the movie industry to the French riviera.	Binoche welcomed the movie industry to the French rivera.	3404180	1472005317619	1472005317734	v	86
6661	71573	Binoche welcomed the movie industry to the French riviera.	Binoche welcomed the movie industry to the French rivera.	3404289	1472005317765	1472005317961	e	69
6661	71573	Binoche welcomed the movie industry to the French riviera.	Binoche welcomed the movie industry to the French rivera.	3404294	1472005317939	1472005318063	r	82
6661	71573	Binoche welcomed the movie industry to the French riviera.	Binoche welcomed the movie industry to the French rivera.	3404298	1472005318074	1472005318179	e	69
6661	71573	Binoche welcomed the movie industry to the French riviera.	Binoche welcomed the movie industry to the French rivera.	3404301	1472005318736	1472005318854	BKSP	8
6661	71573	Binoche welcomed the movie industry to the French riviera.	Binoche welcomed the movie industry to the French rivera.	3404307	1472005318872	1472005318980	a	65
6661	71573	Binoche welcomed the movie industry to the French riviera.	Binoche welcomed the movie industry to the French rivera.	3404312	1472005319769	1472005319859	.	190
6661	71604	Referring to his meeting in Washington with US President Bill Clinton.	Referring to his meeting in Washington with US President Bill CLinton.	3404468	1472005321971	1472005322190	SHIFT	16
6661	71604	Referring to his meeting in Washington with US President Bill Clinton.	Referring to his meeting in Washington with US President Bill CLinton.	3404470	1472005322087	1472005322205	R	82
6661	71604	Referring to his meeting in Washington with US President Bill Clinton.	Referring to his meeting in Washington with US President Bill CLinton.	3404475	1472005322275	1472005322401	e	69
6661	71604	Referring to his meeting in Washington with US President Bill Clinton.	Referring to his meeting in Washington with US President Bill CLinton.	3404478	1472005322512	1472005322651	f	70
6661	71604	Referring to his meeting in Washington with US President Bill Clinton.	Referring to his meeting in Washington with US President Bill CLinton.	3404484	1472005322752	1472005322901	e	69
6661	71604	Referring to his meeting in Washington with US President Bill Clinton.	Referring to his meeting in Washington with US President Bill CLinton.	3404488	1472005323005	1472005323129	r	82
6661	71604	Referring to his meeting in Washington with US President Bill Clinton.	Referring to his meeting in Washington with US President Bill CLinton.	3404516	1472005323215	1472005323361	r	82
6661	71604	Referring to his meeting in Washington with US President Bill Clinton.	Referring to his meeting in Washington with US President Bill CLinton.	3404517	1472005323339	1472005323555	i	73
6661	71604	Referring to his meeting in Washington with US President Bill Clinton.	Referring to his meeting in Washington with US President Bill CLinton.	3404519	1472005323495	1472005323654	n	78
6661	71604	Referring to his meeting in Washington with US President Bill Clinton.	Referring to his meeting in Washington with US President Bill CLinton.	3404521	1472005323606	1472005323718	g	71
6661	71604	Referring to his meeting in Washington with US President Bill Clinton.	Referring to his meeting in Washington with US President Bill CLinton.	3404522	1472005323728	1472005323836	 	32
6661	71604	Referring to his meeting in Washington with US President Bill Clinton.	Referring to his meeting in Washington with US President Bill CLinton.	3404558	1472005323823	1472005323966	t	84
6661	71604	Referring to his meeting in Washington with US President Bill Clinton.	Referring to his meeting in Washington with US President Bill CLinton.	3404567	1472005323918	1472005324059	o	79
6661	71604	Referring to his meeting in Washington with US President Bill Clinton.	Referring to his meeting in Washington with US President Bill CLinton.	3404572	1472005324030	1472005324121	 	32
6661	71604	Referring to his meeting in Washington with US President Bill Clinton.	Referring to his meeting in Washington with US President Bill CLinton.	3404576	1472005324208	1472005324313	h	72
6661	71604	Referring to his meeting in Washington with US President Bill Clinton.	Referring to his meeting in Washington with US President Bill CLinton.	3404579	1472005324338	1472005324482	i	73
6661	71604	Referring to his meeting in Washington with US President Bill Clinton.	Referring to his meeting in Washington with US President Bill CLinton.	3404586	1472005324491	1472005324597	s	83
6661	71604	Referring to his meeting in Washington with US President Bill Clinton.	Referring to his meeting in Washington with US President Bill CLinton.	3404622	1472005324577	1472005324665	 	32
6661	71604	Referring to his meeting in Washington with US President Bill Clinton.	Referring to his meeting in Washington with US President Bill CLinton.	3404623	1472005324672	1472005324812	m	77
6661	71604	Referring to his meeting in Washington with US President Bill Clinton.	Referring to his meeting in Washington with US President Bill CLinton.	3404626	1472005324822	1472005324932	e	69
6661	71604	Referring to his meeting in Washington with US President Bill Clinton.	Referring to his meeting in Washington with US President Bill CLinton.	3404630	1472005325018	1472005325115	e	69
6661	71604	Referring to his meeting in Washington with US President Bill Clinton.	Referring to his meeting in Washington with US President Bill CLinton.	3404637	1472005325237	1472005325355	t	84
6661	71604	Referring to his meeting in Washington with US President Bill Clinton.	Referring to his meeting in Washington with US President Bill CLinton.	3404704	1472005325304	1472005325434	i	73
6661	71604	Referring to his meeting in Washington with US President Bill Clinton.	Referring to his meeting in Washington with US President Bill CLinton.	3404708	1472005325402	1472005325566	n	78
6661	71604	Referring to his meeting in Washington with US President Bill Clinton.	Referring to his meeting in Washington with US President Bill CLinton.	3404715	1472005325528	1472005325649	g	71
6661	71604	Referring to his meeting in Washington with US President Bill Clinton.	Referring to his meeting in Washington with US President Bill CLinton.	3404719	1472005325612	1472005325728	 	32
6661	71604	Referring to his meeting in Washington with US President Bill Clinton.	Referring to his meeting in Washington with US President Bill CLinton.	3404722	1472005326404	1472005326566	i	73
6661	71604	Referring to his meeting in Washington with US President Bill Clinton.	Referring to his meeting in Washington with US President Bill CLinton.	3404790	1472005326545	1472005326688	n	78
6661	71604	Referring to his meeting in Washington with US President Bill Clinton.	Referring to his meeting in Washington with US President Bill CLinton.	3404792	1472005326614	1472005326740	 	32
6661	71604	Referring to his meeting in Washington with US President Bill Clinton.	Referring to his meeting in Washington with US President Bill CLinton.	3404795	1472005327049	1472005327279	SHIFT	16
6661	71604	Referring to his meeting in Washington with US President Bill Clinton.	Referring to his meeting in Washington with US President Bill CLinton.	3404796	1472005327184	1472005327309	W	87
6661	71604	Referring to his meeting in Washington with US President Bill Clinton.	Referring to his meeting in Washington with US President Bill CLinton.	3404798	1472005327385	1472005327488	a	65
6661	71604	Referring to his meeting in Washington with US President Bill Clinton.	Referring to his meeting in Washington with US President Bill CLinton.	3404799	1472005327565	1472005327681	s	83
6661	71604	Referring to his meeting in Washington with US President Bill Clinton.	Referring to his meeting in Washington with US President Bill CLinton.	3404800	1472005327869	1472005328065	j	74
6661	71604	Referring to his meeting in Washington with US President Bill Clinton.	Referring to his meeting in Washington with US President Bill CLinton.	3404859	1472005328424	1472005328549	BKSP	8
6661	71604	Referring to his meeting in Washington with US President Bill Clinton.	Referring to his meeting in Washington with US President Bill CLinton.	3404862	1472005328933	1472005329045	h	72
6661	71604	Referring to his meeting in Washington with US President Bill Clinton.	Referring to his meeting in Washington with US President Bill CLinton.	3404867	1472005329070	1472005329260	i	73
6661	71604	Referring to his meeting in Washington with US President Bill Clinton.	Referring to his meeting in Washington with US President Bill CLinton.	3404870	1472005329197	1472005329406	n	78
6661	71604	Referring to his meeting in Washington with US President Bill Clinton.	Referring to his meeting in Washington with US President Bill CLinton.	3404876	1472005329453	1472005329606	g	71
6661	71604	Referring to his meeting in Washington with US President Bill Clinton.	Referring to his meeting in Washington with US President Bill CLinton.	3404879	1472005329721	1472005329870	t	84
6661	71604	Referring to his meeting in Washington with US President Bill Clinton.	Referring to his meeting in Washington with US President Bill CLinton.	3404896	1472005329827	1472005330019	o	79
6661	71604	Referring to his meeting in Washington with US President Bill Clinton.	Referring to his meeting in Washington with US President Bill CLinton.	3404898	1472005329967	1472005330187	n	78
6661	71604	Referring to his meeting in Washington with US President Bill Clinton.	Referring to his meeting in Washington with US President Bill CLinton.	3404900	1472005330092	1472005330246	 	32
6661	71604	Referring to his meeting in Washington with US President Bill Clinton.	Referring to his meeting in Washington with US President Bill CLinton.	3404902	1472005330501	1472005330650	w	87
6661	71604	Referring to his meeting in Washington with US President Bill Clinton.	Referring to his meeting in Washington with US President Bill CLinton.	3404906	1472005330639	1472005330786	i	73
6661	71604	Referring to his meeting in Washington with US President Bill Clinton.	Referring to his meeting in Washington with US President Bill CLinton.	3404908	1472005330812	1472005330930	t	84
6661	71604	Referring to his meeting in Washington with US President Bill Clinton.	Referring to his meeting in Washington with US President Bill CLinton.	3404941	1472005330951	1472005331086	h	72
6661	71604	Referring to his meeting in Washington with US President Bill Clinton.	Referring to his meeting in Washington with US President Bill CLinton.	3404945	1472005331059	1472005331182	 	32
6661	71604	Referring to his meeting in Washington with US President Bill Clinton.	Referring to his meeting in Washington with US President Bill CLinton.	3404959	1472005331312	1472005331776	SHIFT	16
6661	71604	Referring to his meeting in Washington with US President Bill Clinton.	Referring to his meeting in Washington with US President Bill CLinton.	3404951	1472005331483	1472005331590	U	85
6661	71604	Referring to his meeting in Washington with US President Bill Clinton.	Referring to his meeting in Washington with US President Bill CLinton.	3404956	1472005331582	1472005331721	S	83
6661	71604	Referring to his meeting in Washington with US President Bill Clinton.	Referring to his meeting in Washington with US President Bill CLinton.	3404962	1472005331786	1472005331871	 	32
6661	71604	Referring to his meeting in Washington with US President Bill Clinton.	Referring to his meeting in Washington with US President Bill CLinton.	3405039	1472005331979	1472005332588	SHIFT	16
6661	71604	Referring to his meeting in Washington with US President Bill Clinton.	Referring to his meeting in Washington with US President Bill CLinton.	3405035	1472005332438	1472005332573	P	80
6661	71604	Referring to his meeting in Washington with US President Bill Clinton.	Referring to his meeting in Washington with US President Bill CLinton.	3405042	1472005332711	1472005332816	r	82
6661	71604	Referring to his meeting in Washington with US President Bill Clinton.	Referring to his meeting in Washington with US President Bill CLinton.	3405048	1472005332887	1472005333010	e	69
6661	71604	Referring to his meeting in Washington with US President Bill Clinton.	Referring to his meeting in Washington with US President Bill CLinton.	3405052	1472005333095	1472005333210	s	83
6661	71604	Referring to his meeting in Washington with US President Bill Clinton.	Referring to his meeting in Washington with US President Bill CLinton.	3405058	1472005333288	1472005333392	i	73
6661	71604	Referring to his meeting in Washington with US President Bill Clinton.	Referring to his meeting in Washington with US President Bill CLinton.	3405082	1472005333429	1472005333507	d	68
6661	71604	Referring to his meeting in Washington with US President Bill Clinton.	Referring to his meeting in Washington with US President Bill CLinton.	3405084	1472005333582	1472005333693	e	69
6661	71604	Referring to his meeting in Washington with US President Bill Clinton.	Referring to his meeting in Washington with US President Bill CLinton.	3405091	1472005333724	1472005333849	n	78
6661	71604	Referring to his meeting in Washington with US President Bill Clinton.	Referring to his meeting in Washington with US President Bill CLinton.	3405096	1472005333826	1472005333912	t	84
6661	71604	Referring to his meeting in Washington with US President Bill Clinton.	Referring to his meeting in Washington with US President Bill CLinton.	3405102	1472005334005	1472005334070	 	32
6661	71604	Referring to his meeting in Washington with US President Bill Clinton.	Referring to his meeting in Washington with US President Bill CLinton.	3405179	1472005334273	1472005334582	SHIFT	16
6661	71604	Referring to his meeting in Washington with US President Bill Clinton.	Referring to his meeting in Washington with US President Bill CLinton.	3405174	1472005334441	1472005334561	B	66
6661	71604	Referring to his meeting in Washington with US President Bill Clinton.	Referring to his meeting in Washington with US President Bill CLinton.	3405183	1472005335101	1472005335276	i	73
6661	71604	Referring to his meeting in Washington with US President Bill Clinton.	Referring to his meeting in Washington with US President Bill CLinton.	3405188	1472005335245	1472005335389	l	76
6661	71604	Referring to his meeting in Washington with US President Bill Clinton.	Referring to his meeting in Washington with US President Bill CLinton.	3405192	1472005335455	1472005335637	l	76
6661	71604	Referring to his meeting in Washington with US President Bill Clinton.	Referring to his meeting in Washington with US President Bill CLinton.	3405229	1472005335594	1472005335741	 	32
6661	71604	Referring to his meeting in Washington with US President Bill Clinton.	Referring to his meeting in Washington with US President Bill CLinton.	3405231	1472005335646	1472005336021	SHIFT	16
6661	71604	Referring to his meeting in Washington with US President Bill Clinton.	Referring to his meeting in Washington with US President Bill CLinton.	3405230	1472005335863	1472005335992	C	67
6661	71604	Referring to his meeting in Washington with US President Bill Clinton.	Referring to his meeting in Washington with US President Bill CLinton.	3405232	1472005336007	1472005336151	L	76
6661	71604	Referring to his meeting in Washington with US President Bill Clinton.	Referring to his meeting in Washington with US President Bill CLinton.	3405234	1472005336173	1472005336347	i	73
6661	71604	Referring to his meeting in Washington with US President Bill Clinton.	Referring to his meeting in Washington with US President Bill CLinton.	3405237	1472005336318	1472005336437	n	78
6661	71604	Referring to his meeting in Washington with US President Bill Clinton.	Referring to his meeting in Washington with US President Bill CLinton.	3405240	1472005336446	1472005336586	t	84
6661	71604	Referring to his meeting in Washington with US President Bill Clinton.	Referring to his meeting in Washington with US President Bill CLinton.	3405282	1472005336597	1472005336754	o	79
6661	71604	Referring to his meeting in Washington with US President Bill Clinton.	Referring to his meeting in Washington with US President Bill CLinton.	3405284	1472005336671	1472005336796	n	78
6661	71604	Referring to his meeting in Washington with US President Bill Clinton.	Referring to his meeting in Washington with US President Bill CLinton.	3405286	1472005337140	1472005337280	.	190
6661	71622	The loans were allegedly made to players.	The loans were allegedly make to players.	3405373	1472005339237	1472005339566	SHIFT	16
6661	71622	The loans were allegedly made to players.	The loans were allegedly make to players.	3405371	1472005339431	1472005339556	T	84
6661	71622	The loans were allegedly made to players.	The loans were allegedly make to players.	3405376	1472005339576	1472005339702	h	72
6661	71622	The loans were allegedly made to players.	The loans were allegedly make to players.	3405379	1472005339738	1472005339873	e	69
6661	71622	The loans were allegedly made to players.	The loans were allegedly make to players.	3405381	1472005339929	1472005340042	 	32
6661	71622	The loans were allegedly made to players.	The loans were allegedly make to players.	3405384	1472005340088	1472005340241	l	76
6661	71622	The loans were allegedly made to players.	The loans were allegedly make to players.	3405407	1472005340413	1472005340542	o	79
6661	71622	The loans were allegedly made to players.	The loans were allegedly make to players.	3405409	1472005340588	1472005340715	a	65
6661	71622	The loans were allegedly made to players.	The loans were allegedly make to players.	3405413	1472005340811	1472005340923	n	78
6661	71622	The loans were allegedly made to players.	The loans were allegedly make to players.	3405416	1472005341012	1472005341181	s	83
6661	71622	The loans were allegedly made to players.	The loans were allegedly make to players.	3405419	1472005341263	1472005341343	 	32
6661	71622	The loans were allegedly made to players.	The loans were allegedly make to players.	3405468	1472005341353	1472005341473	w	87
6661	71622	The loans were allegedly made to players.	The loans were allegedly make to players.	3405470	1472005341734	1472005341881	e	69
6661	71622	The loans were allegedly made to players.	The loans were allegedly make to players.	3405472	1472005342028	1472005342150	r	82
6661	71622	The loans were allegedly made to players.	The loans were allegedly make to players.	3405473	1472005342259	1472005342370	e	69
6661	71622	The loans were allegedly made to players.	The loans were allegedly make to players.	3405474	1472005342444	1472005342520	 	32
6661	71622	The loans were allegedly made to players.	The loans were allegedly make to players.	3405521	1472005342696	1472005342810	a	65
6661	71622	The loans were allegedly made to players.	The loans were allegedly make to players.	3405525	1472005342831	1472005342974	l	76
6661	71622	The loans were allegedly made to players.	The loans were allegedly make to players.	3405528	1472005343133	1472005343263	l	76
6661	71622	The loans were allegedly made to players.	The loans were allegedly make to players.	3405531	1472005343346	1472005343529	e	69
6661	71622	The loans were allegedly made to players.	The loans were allegedly make to players.	3405533	1472005343752	1472005343936	g	71
6661	71622	The loans were allegedly made to players.	The loans were allegedly make to players.	3405678	1472005344115	1472005344313	e	69
6661	71622	The loans were allegedly made to players.	The loans were allegedly make to players.	3405680	1472005344546	1472005344682	h	72
6661	71622	The loans were allegedly made to players.	The loans were allegedly make to players.	3405682	1472005345054	1472005345163	BKSP	8
6661	71622	The loans were allegedly made to players.	The loans were allegedly make to players.	3405684	1472005345759	1472005345870	d	68
6661	71622	The loans were allegedly made to players.	The loans were allegedly make to players.	3405686	1472005345853	1472005346031	l	76
6661	71622	The loans were allegedly made to players.	The loans were allegedly make to players.	3405688	1472005346103	1472005346194	y	89
6661	71622	The loans were allegedly made to players.	The loans were allegedly make to players.	3405727	1472005346293	1472005346400	 	32
6661	71622	The loans were allegedly made to players.	The loans were allegedly make to players.	3405731	1472005346446	1472005346521	m	77
6661	71622	The loans were allegedly made to players.	The loans were allegedly make to players.	3405735	1472005346623	1472005346749	a	65
6661	71622	The loans were allegedly made to players.	The loans were allegedly make to players.	3405738	1472005346738	1472005346884	k	75
6661	71622	The loans were allegedly made to players.	The loans were allegedly make to players.	3405741	1472005346901	1472005347001	e	69
6661	71622	The loans were allegedly made to players.	The loans were allegedly make to players.	3405768	1472005347018	1472005347138	 	32
6661	71622	The loans were allegedly made to players.	The loans were allegedly make to players.	3405771	1472005347169	1472005347301	t	84
6661	71622	The loans were allegedly made to players.	The loans were allegedly make to players.	3405774	1472005347260	1472005347407	o	79
6661	71622	The loans were allegedly made to players.	The loans were allegedly make to players.	3405778	1472005347374	1472005347455	 	32
6661	71622	The loans were allegedly made to players.	The loans were allegedly make to players.	3405784	1472005347553	1472005347733	SHIFT	16
6661	71622	The loans were allegedly made to players.	The loans were allegedly make to players.	3405863	1472005347603	1472005347744	P	80
6661	71622	The loans were allegedly made to players.	The loans were allegedly make to players.	3405868	1472005348447	1472005348561	BKSP	8
6661	71622	The loans were allegedly made to players.	The loans were allegedly make to players.	3405872	1472005348732	1472005348892	p	80
6661	71622	The loans were allegedly made to players.	The loans were allegedly make to players.	3405877	1472005348868	1472005348999	l	76
6661	71622	The loans were allegedly made to players.	The loans were allegedly make to players.	3405880	1472005349010	1472005349130	a	65
6661	71622	The loans were allegedly made to players.	The loans were allegedly make to players.	3405883	1472005349173	1472005349325	y	89
6661	71622	The loans were allegedly made to players.	The loans were allegedly make to players.	3405885	1472005349380	1472005349513	e	69
6661	71622	The loans were allegedly made to players.	The loans were allegedly make to players.	3405940	1472005349600	1472005349715	r	82
6661	71622	The loans were allegedly made to players.	The loans were allegedly make to players.	3405943	1472005349851	1472005349956	s	83
6661	71622	The loans were allegedly made to players.	The loans were allegedly make to players.	3405948	1472005349966	1472005350060	/	191
6661	71622	The loans were allegedly made to players.	The loans were allegedly make to players.	3405953	1472005350532	1472005350578	BKSP	8
6661	71622	The loans were allegedly made to players.	The loans were allegedly make to players.	3405959	1472005350755	1472005350821	.	190
6661	71637	Is this the conference rate?	Is this the conference rate?	3406142	1472005353085	1472005353618	SHIFT	16
6661	71637	Is this the conference rate?	Is this the conference rate?	3406137	1472005353351	1472005353410	U	85
6661	71637	Is this the conference rate?	Is this the conference rate?	3406147	1472005353684	1472005353788	BKSP	8
6661	71637	Is this the conference rate?	Is this the conference rate?	3406149	1472005353889	1472005354132	SHIFT	16
6661	71637	Is this the conference rate?	Is this the conference rate?	3406151	1472005354026	1472005354166	I	73
6661	71637	Is this the conference rate?	Is this the conference rate?	3406153	1472005354224	1472005354316	s	83
6661	71637	Is this the conference rate?	Is this the conference rate?	3406154	1472005354362	1472005354442	 	32
6661	71637	Is this the conference rate?	Is this the conference rate?	3406155	1472005354523	1472005354606	t	84
6661	71637	Is this the conference rate?	Is this the conference rate?	3406167	1472005354700	1472005354868	h	72
6661	71637	Is this the conference rate?	Is this the conference rate?	3406168	1472005354782	1472005354951	i	73
6661	71637	Is this the conference rate?	Is this the conference rate?	3406169	1472005354961	1472005355083	s	83
6661	71637	Is this the conference rate?	Is this the conference rate?	3406170	1472005355120	1472005355214	 	32
6661	71637	Is this the conference rate?	Is this the conference rate?	3406171	1472005355489	1472005355625	t	84
6661	71637	Is this the conference rate?	Is this the conference rate?	3406197	1472005355636	1472005355780	h	72
6661	71637	Is this the conference rate?	Is this the conference rate?	3406198	1472005355752	1472005355886	e	69
6661	71637	Is this the conference rate?	Is this the conference rate?	3406199	1472005355897	1472005355985	 	32
6661	71637	Is this the conference rate?	Is this the conference rate?	3406200	1472005356240	1472005356359	c	67
6661	71637	Is this the conference rate?	Is this the conference rate?	3406201	1472005356409	1472005356539	o	79
6661	71637	Is this the conference rate?	Is this the conference rate?	3406245	1472005356508	1472005356644	n	78
6661	71637	Is this the conference rate?	Is this the conference rate?	3406247	1472005356622	1472005356730	f	70
6661	71637	Is this the conference rate?	Is this the conference rate?	3406250	1472005356825	1472005356944	e	69
6661	71637	Is this the conference rate?	Is this the conference rate?	3406255	1472005357011	1472005357121	r	82
6661	71637	Is this the conference rate?	Is this the conference rate?	3406262	1472005357183	1472005357283	e	69
6661	71637	Is this the conference rate?	Is this the conference rate?	3406360	1472005357273	1472005357380	n	78
6661	71637	Is this the conference rate?	Is this the conference rate?	3406365	1472005357389	1472005357503	c	67
6661	71637	Is this the conference rate?	Is this the conference rate?	3406368	1472005357482	1472005357591	e	69
6661	71637	Is this the conference rate?	Is this the conference rate?	3406370	1472005357742	1472005357887	 	32
6661	71637	Is this the conference rate?	Is this the conference rate?	3406371	1472005358640	1472005358778	r	82
6661	71637	Is this the conference rate?	Is this the conference rate?	3406372	1472005358904	1472005358983	a	65
6661	71637	Is this the conference rate?	Is this the conference rate?	3406400	1472005358993	1472005359124	t	84
6661	71637	Is this the conference rate?	Is this the conference rate?	3406406	1472005359150	1472005359251	e	69
6661	71637	Is this the conference rate?	Is this the conference rate?	3406420	1472005359408	1472005359697	SHIFT	16
6661	71637	Is this the conference rate?	Is this the conference rate?	3406413	1472005359513	1472005359655	?	191
6661	71650	Let me know either way.	Let me know either way.	3406612	1472005362003	1472005362308	SHIFT	16
6661	71650	Let me know either way.	Let me know either way.	3406616	1472005362185	1472005362330	L	76
6661	71650	Let me know either way.	Let me know either way.	3406619	1472005362318	1472005362454	e	69
6661	71650	Let me know either way.	Let me know either way.	3406624	1472005362543	1472005362665	r	82
6661	71650	Let me know either way.	Let me know either way.	3406628	1472005362899	1472005362973	BKSP	8
6661	71650	Let me know either way.	Let me know either way.	3406633	1472005363072	1472005363201	e	69
6661	71650	Let me know either way.	Let me know either way.	3406637	1472005363308	1472005363454	 	32
6661	71650	Let me know either way.	Let me know either way.	3406715	1472005363700	1472005363753	BKSP	8
6661	71650	Let me know either way.	Let me know either way.	3406716	1472005363851	1472005363950	BKSP	8
6661	71650	Let me know either way.	Let me know either way.	3406717	1472005364020	1472005364184	t	84
6661	71650	Let me know either way.	Let me know either way.	3406719	1472005364206	1472005364339	 	32
6661	71650	Let me know either way.	Let me know either way.	3406721	1472005364417	1472005364564	m	77
6661	71650	Let me know either way.	Let me know either way.	3406725	1472005364565	1472005364700	e	69
6661	71650	Let me know either way.	Let me know either way.	3406728	1472005364748	1472005364882	 	32
6661	71650	Let me know either way.	Let me know either way.	3406765	1472005365005	1472005365057	k	76
6661	71650	Let me know either way.	Let me know either way.	3406767	1472005365143	1472005365315	n	78
6661	71650	Let me know either way.	Let me know either way.	3406769	1472005365543	1472005365632	BKSP	8
6661	71650	Let me know either way.	Let me know either way.	3406771	1472005365718	1472005365786	BKSP	8
6661	71650	Let me know either way.	Let me know either way.	3406774	1472005365979	1472005366168	k	75
6661	71650	Let me know either way.	Let me know either way.	3406943	1472005366105	1472005366259	n	78
6661	71650	Let me know either way.	Let me know either way.	3406946	1472005366278	1472005366512	o	79
6661	71650	Let me know either way.	Let me know either way.	3406949	1472005366594	1472005366745	u	85
6661	71650	Let me know either way.	Let me know either way.	3406951	1472005366999	1472005367143	t	84
6661	71650	Let me know either way.	Let me know either way.	3406953	1472005367562	1472005367678	BKSP	8
6661	71650	Let me know either way.	Let me know either way.	3406956	1472005367774	1472005367852	BKSP	8
6661	71650	Let me know either way.	Let me know either way.	3406960	1472005367943	1472005368028	BKSP	8
6661	71650	Let me know either way.	Let me know either way.	3406963	1472005368153	1472005368232	BKSP	8
6661	71650	Let me know either way.	Let me know either way.	3406968	1472005368333	1472005368389	BKSP	8
6661	71650	Let me know either way.	Let me know either way.	3406970	1472005368495	1472005368556	BKSP	8
6661	71650	Let me know either way.	Let me know either way.	3406974	1472005368759	1472005369051	k	75
6661	71650	Let me know either way.	Let me know either way.	3407035	1472005368987	1472005369152	n	78
6661	71650	Let me know either way.	Let me know either way.	3407038	1472005369165	1472005369286	w	87
6661	71650	Let me know either way.	Let me know either way.	3407042	1472005369643	1472005369738	BKSP	8
6661	71650	Let me know either way.	Let me know either way.	3407045	1472005369933	1472005370078	o	79
6661	71650	Let me know either way.	Let me know either way.	3407048	1472005370098	1472005370213	w	87
6661	71650	Let me know either way.	Let me know either way.	3407052	1472005370192	1472005370311	 	32
6661	71650	Let me know either way.	Let me know either way.	3407056	1472005370456	1472005370613	e	69
6661	71650	Let me know either way.	Let me know either way.	3407067	1472005370603	1472005370717	i	73
6661	71650	Let me know either way.	Let me know either way.	3407070	1472005370733	1472005370850	t	84
6661	71650	Let me know either way.	Let me know either way.	3407073	1472005370847	1472005370964	h	72
6661	71650	Let me know either way.	Let me know either way.	3407075	1472005370926	1472005371062	e	69
6661	71650	Let me know either way.	Let me know either way.	3407077	1472005371021	1472005371164	r	82
6661	71650	Let me know either way.	Let me know either way.	3407116	1472005371138	1472005371232	 	32
6661	71650	Let me know either way.	Let me know either way.	3407118	1472005371319	1472005371424	w	87
6661	71650	Let me know either way.	Let me know either way.	3407122	1472005371488	1472005371622	a	65
6661	71650	Let me know either way.	Let me know either way.	3407127	1472005371602	1472005371696	y	89
6661	71650	Let me know either way.	Let me know either way.	3407130	1472005371923	1472005372007	.	190
6661	71664	I will tell them.	I will tell them.	3407274	1472005373946	1472005374290	SHIFT	16
6661	71664	I will tell them.	I will tell them.	3407277	1472005374151	1472005374299	I	73
6661	71664	I will tell them.	I will tell them.	3407280	1472005374375	1472005374507	 	32
6661	71664	I will tell them.	I will tell them.	3407286	1472005374497	1472005374644	w	87
6661	71664	I will tell them.	I will tell them.	3407290	1472005374623	1472005374779	i	73
6661	71664	I will tell them.	I will tell them.	3407292	1472005374940	1472005375087	l	76
6661	71664	I will tell them.	I will tell them.	3407395	1472005375193	1472005375368	l	76
6661	71664	I will tell them.	I will tell them.	3407400	1472005375459	1472005375643	t	84
6661	71664	I will tell them.	I will tell them.	3407403	1472005375741	1472005375903	e	69
6661	71664	I will tell them.	I will tell them.	3407409	1472005376039	1472005376088	BKSP	8
6661	71664	I will tell them.	I will tell them.	3407414	1472005376195	1472005376281	BKSP	8
6661	71664	I will tell them.	I will tell them.	3407417	1472005376629	1472005376795	t	84
6661	71664	I will tell them.	I will tell them.	3407421	1472005376997	1472005377116	BKSP	8
6661	71664	I will tell them.	I will tell them.	3407422	1472005377141	1472005377287	 	32
6661	71664	I will tell them.	I will tell them.	3407431	1472005377308	1472005377455	t	84
6661	71664	I will tell them.	I will tell them.	3407434	1472005377587	1472005377746	e	69
6661	71664	I will tell them.	I will tell them.	3407438	1472005377735	1472005377808	l	76
6661	71664	I will tell them.	I will tell them.	3407442	1472005377889	1472005377979	l	76
6661	71664	I will tell them.	I will tell them.	3407447	1472005378120	1472005378212	 	32
6661	71664	I will tell them.	I will tell them.	3407485	1472005378331	1472005378472	t	84
6661	71664	I will tell them.	I will tell them.	3407486	1472005378477	1472005378552	h	72
6661	71664	I will tell them.	I will tell them.	3407487	1472005378597	1472005378713	e	69
6661	71664	I will tell them.	I will tell them.	3407488	1472005378746	1472005378768	m	77
6661	71664	I will tell them.	I will tell them.	3407489	1472005379228	1472005379329	/	191
6661	71664	I will tell them.	I will tell them.	3407548	1472005379471	1472005379525	'	222
6661	71664	I will tell them.	I will tell them.	3407549	1472005379963	1472005380043	BKSP	8
6661	71664	I will tell them.	I will tell them.	3407551	1472005380118	1472005380204	BKSP	8
6661	71664	I will tell them.	I will tell them.	3407553	1472005380378	1472005380475	.	190
6661	71674	There is still a chance there might be modification in Dallas.	There is still a chance there might be modification in Dallas.	3407725	1472005382401	1472005382809	SHIFT	16
6661	71674	There is still a chance there might be modification in Dallas.	There is still a chance there might be modification in Dallas.	3407723	1472005382656	1472005382794	T	84
6661	71674	There is still a chance there might be modification in Dallas.	There is still a chance there might be modification in Dallas.	3407726	1472005383078	1472005383202	h	72
6661	71674	There is still a chance there might be modification in Dallas.	There is still a chance there might be modification in Dallas.	3407727	1472005383288	1472005383404	e	69
6661	71674	There is still a chance there might be modification in Dallas.	There is still a chance there might be modification in Dallas.	3407731	1472005383483	1472005383602	r	82
6661	71674	There is still a chance there might be modification in Dallas.	There is still a chance there might be modification in Dallas.	3407735	1472005383673	1472005383816	e	69
6661	71674	There is still a chance there might be modification in Dallas.	There is still a chance there might be modification in Dallas.	3407798	1472005383784	1472005383920	 	32
6661	71674	There is still a chance there might be modification in Dallas.	There is still a chance there might be modification in Dallas.	3407801	1472005383930	1472005384087	i	73
6661	71674	There is still a chance there might be modification in Dallas.	There is still a chance there might be modification in Dallas.	3407803	1472005384070	1472005384150	s	83
6661	71674	There is still a chance there might be modification in Dallas.	There is still a chance there might be modification in Dallas.	3407806	1472005384138	1472005384257	 	32
6661	71674	There is still a chance there might be modification in Dallas.	There is still a chance there might be modification in Dallas.	3407810	1472005384418	1472005384545	s	83
6661	71674	There is still a chance there might be modification in Dallas.	There is still a chance there might be modification in Dallas.	3407812	1472005384666	1472005384790	t	84
6661	71674	There is still a chance there might be modification in Dallas.	There is still a chance there might be modification in Dallas.	3407869	1472005384728	1472005384891	i	73
6661	71674	There is still a chance there might be modification in Dallas.	There is still a chance there might be modification in Dallas.	3407874	1472005384874	1472005384961	l	76
6661	71674	There is still a chance there might be modification in Dallas.	There is still a chance there might be modification in Dallas.	3407880	1472005385038	1472005385163	l	76
6661	71674	There is still a chance there might be modification in Dallas.	There is still a chance there might be modification in Dallas.	3407884	1472005385189	1472005385255	 	32
6661	71674	There is still a chance there might be modification in Dallas.	There is still a chance there might be modification in Dallas.	3407887	1472005385418	1472005385587	a	65
6661	71674	There is still a chance there might be modification in Dallas.	There is still a chance there might be modification in Dallas.	3407890	1472005385823	1472005385929	 	32
6661	71674	There is still a chance there might be modification in Dallas.	There is still a chance there might be modification in Dallas.	3407925	1472005386008	1472005386171	c	67
6661	71674	There is still a chance there might be modification in Dallas.	There is still a chance there might be modification in Dallas.	3407928	1472005386218	1472005386365	h	72
6661	71674	There is still a chance there might be modification in Dallas.	There is still a chance there might be modification in Dallas.	3407931	1472005386396	1472005386516	a	65
6661	71674	There is still a chance there might be modification in Dallas.	There is still a chance there might be modification in Dallas.	3407934	1472005386556	1472005386681	n	78
6661	71674	There is still a chance there might be modification in Dallas.	There is still a chance there might be modification in Dallas.	3407936	1472005386713	1472005386918	c	67
6661	71674	There is still a chance there might be modification in Dallas.	There is still a chance there might be modification in Dallas.	3407954	1472005386854	1472005387023	e	69
6661	71674	There is still a chance there might be modification in Dallas.	There is still a chance there might be modification in Dallas.	3407956	1472005387054	1472005387190	 	32
6661	71674	There is still a chance there might be modification in Dallas.	There is still a chance there might be modification in Dallas.	3407960	1472005387199	1472005387331	t	84
6661	71674	There is still a chance there might be modification in Dallas.	There is still a chance there might be modification in Dallas.	3407965	1472005387344	1472005387445	h	72
6661	71674	There is still a chance there might be modification in Dallas.	There is still a chance there might be modification in Dallas.	3407970	1472005387445	1472005387554	e	69
6661	71674	There is still a chance there might be modification in Dallas.	There is still a chance there might be modification in Dallas.	3407976	1472005387634	1472005387747	r	82
6661	71674	There is still a chance there might be modification in Dallas.	There is still a chance there might be modification in Dallas.	3407999	1472005387820	1472005387956	e	69
6661	71674	There is still a chance there might be modification in Dallas.	There is still a chance there might be modification in Dallas.	3408002	1472005387945	1472005388072	 	32
6661	71674	There is still a chance there might be modification in Dallas.	There is still a chance there might be modification in Dallas.	3408006	1472005388101	1472005388256	m	77
6661	71674	There is still a chance there might be modification in Dallas.	There is still a chance there might be modification in Dallas.	3408010	1472005388312	1472005388465	i	73
6661	71674	There is still a chance there might be modification in Dallas.	There is still a chance there might be modification in Dallas.	3408030	1472005388431	1472005388569	g	71
6661	71674	There is still a chance there might be modification in Dallas.	There is still a chance there might be modification in Dallas.	3408031	1472005388578	1472005388690	h	72
6661	71674	There is still a chance there might be modification in Dallas.	There is still a chance there might be modification in Dallas.	3408032	1472005388691	1472005388815	t	84
6661	71674	There is still a chance there might be modification in Dallas.	There is still a chance there might be modification in Dallas.	3408034	1472005388797	1472005388910	 	32
6661	71674	There is still a chance there might be modification in Dallas.	There is still a chance there might be modification in Dallas.	3408036	1472005389012	1472005389169	b	66
6661	71674	There is still a chance there might be modification in Dallas.	There is still a chance there might be modification in Dallas.	3408096	1472005389151	1472005389282	e	69
6661	71674	There is still a chance there might be modification in Dallas.	There is still a chance there might be modification in Dallas.	3408098	1472005389318	1472005389427	 	32
6661	71674	There is still a chance there might be modification in Dallas.	There is still a chance there might be modification in Dallas.	3408100	1472005389677	1472005389740	a	65
6661	71674	There is still a chance there might be modification in Dallas.	There is still a chance there might be modification in Dallas.	3408102	1472005390288	1472005390352	BKSP	8
6661	71674	There is still a chance there might be modification in Dallas.	There is still a chance there might be modification in Dallas.	3408105	1472005390500	1472005390669	m	77
6661	71674	There is still a chance there might be modification in Dallas.	There is still a chance there might be modification in Dallas.	3408110	1472005390677	1472005390859	o	79
6661	71674	There is still a chance there might be modification in Dallas.	There is still a chance there might be modification in Dallas.	3408114	1472005390871	1472005391043	f	70
6661	71674	There is still a chance there might be modification in Dallas.	There is still a chance there might be modification in Dallas.	3408187	1472005391119	1472005391308	i	73
6661	71674	There is still a chance there might be modification in Dallas.	There is still a chance there might be modification in Dallas.	3408192	1472005391609	1472005391645	BKSP	8
6661	71674	There is still a chance there might be modification in Dallas.	There is still a chance there might be modification in Dallas.	3408198	1472005391745	1472005391839	BKSP	8
6661	71674	There is still a chance there might be modification in Dallas.	There is still a chance there might be modification in Dallas.	3408205	1472005391854	1472005392021	d	68
6661	71674	There is still a chance there might be modification in Dallas.	There is still a chance there might be modification in Dallas.	3408213	1472005391985	1472005392176	i	73
6661	71674	There is still a chance there might be modification in Dallas.	There is still a chance there might be modification in Dallas.	3408217	1472005392301	1472005392411	 	32
6661	71674	There is still a chance there might be modification in Dallas.	There is still a chance there might be modification in Dallas.	3408221	1472005392658	1472005392768	BKSP	8
6661	71674	There is still a chance there might be modification in Dallas.	There is still a chance there might be modification in Dallas.	3408225	1472005392930	1472005393101	f	70
6661	71674	There is still a chance there might be modification in Dallas.	There is still a chance there might be modification in Dallas.	3408305	1472005393111	1472005393256	i	73
6661	71674	There is still a chance there might be modification in Dallas.	There is still a chance there might be modification in Dallas.	3408306	1472005393422	1472005393536	c	67
6661	71674	There is still a chance there might be modification in Dallas.	There is still a chance there might be modification in Dallas.	3408307	1472005394125	1472005394221	a	65
6661	71674	There is still a chance there might be modification in Dallas.	There is still a chance there might be modification in Dallas.	3408308	1472005394473	1472005394594	t	84
6661	71674	There is still a chance there might be modification in Dallas.	There is still a chance there might be modification in Dallas.	3408309	1472005394648	1472005394828	i	73
6661	71674	There is still a chance there might be modification in Dallas.	There is still a chance there might be modification in Dallas.	3408353	1472005394781	1472005394918	o	79
6661	71674	There is still a chance there might be modification in Dallas.	There is still a chance there might be modification in Dallas.	3408357	1472005395142	1472005395316	n	78
6661	71674	There is still a chance there might be modification in Dallas.	There is still a chance there might be modification in Dallas.	3408360	1472005395496	1472005395616	 	32
6661	71674	There is still a chance there might be modification in Dallas.	There is still a chance there might be modification in Dallas.	3408362	1472005395626	1472005395770	i	73
6661	71674	There is still a chance there might be modification in Dallas.	There is still a chance there might be modification in Dallas.	3408366	1472005395727	1472005395915	n	78
6661	71674	There is still a chance there might be modification in Dallas.	There is still a chance there might be modification in Dallas.	3408406	1472005395854	1472005395992	 	32
6661	71674	There is still a chance there might be modification in Dallas.	There is still a chance there might be modification in Dallas.	3408417	1472005396145	1472005396491	SHIFT	16
6661	71674	There is still a chance there might be modification in Dallas.	There is still a chance there might be modification in Dallas.	3408412	1472005396335	1472005396450	D	68
6661	71674	There is still a chance there might be modification in Dallas.	There is still a chance there might be modification in Dallas.	3408421	1472005396618	1472005396737	a	65
6661	71674	There is still a chance there might be modification in Dallas.	There is still a chance there might be modification in Dallas.	3408425	1472005396723	1472005396795	l	76
6661	71674	There is still a chance there might be modification in Dallas.	There is still a chance there might be modification in Dallas.	3408427	1472005396891	1472005397013	l	76
6661	71674	There is still a chance there might be modification in Dallas.	There is still a chance there might be modification in Dallas.	3408428	1472005397024	1472005397136	a	65
6661	71674	There is still a chance there might be modification in Dallas.	There is still a chance there might be modification in Dallas.	3408437	1472005397222	1472005397338	s	83
6661	71674	There is still a chance there might be modification in Dallas.	There is still a chance there might be modification in Dallas.	3408442	1472005397363	1472005397452	.	190
6661	71687	Thanks for sending this.	Thanks for sending this/	3408587	1472005399232	1472005399642	SHIFT	16
6661	71687	Thanks for sending this.	Thanks for sending this/	3408586	1472005399479	1472005399631	T	84
6661	71687	Thanks for sending this.	Thanks for sending this/	3408590	1472005399662	1472005399788	h	72
6661	71687	Thanks for sending this.	Thanks for sending this/	3408595	1472005399823	1472005399951	a	65
6661	71687	Thanks for sending this.	Thanks for sending this/	3408598	1472005399924	1472005400080	n	78
6661	71687	Thanks for sending this.	Thanks for sending this/	3408625	1472005400017	1472005400190	k	75
6661	71687	Thanks for sending this.	Thanks for sending this/	3408626	1472005400174	1472005400283	s	83
6661	71687	Thanks for sending this.	Thanks for sending this/	3408627	1472005400313	1472005400411	 	32
6661	71687	Thanks for sending this.	Thanks for sending this/	3408628	1472005400437	1472005400567	f	70
6661	71687	Thanks for sending this.	Thanks for sending this/	3408630	1472005400537	1472005400685	o	79
6661	71687	Thanks for sending this.	Thanks for sending this/	3408680	1472005400657	1472005400789	r	82
6661	71687	Thanks for sending this.	Thanks for sending this/	3408683	1472005400772	1472005400884	 	32
6661	71687	Thanks for sending this.	Thanks for sending this/	3408684	1472005400926	1472005401038	s	83
6661	71687	Thanks for sending this.	Thanks for sending this/	3408686	1472005401122	1472005401240	e	69
6661	71687	Thanks for sending this.	Thanks for sending this/	3408688	1472005401312	1472005401413	n	78
6661	71687	Thanks for sending this.	Thanks for sending this/	3408690	1472005401651	1472005401804	d	68
6661	71687	Thanks for sending this.	Thanks for sending this/	3408750	1472005402531	1472005402668	i	73
6661	71687	Thanks for sending this.	Thanks for sending this/	3408752	1472005402635	1472005402725	n	78
6661	71687	Thanks for sending this.	Thanks for sending this/	3408755	1472005402658	1472005402822	g	71
6661	71687	Thanks for sending this.	Thanks for sending this/	3408758	1472005402989	1472005403100	 	32
6661	71687	Thanks for sending this.	Thanks for sending this/	3408761	1472005403160	1472005403280	t	84
6661	71687	Thanks for sending this.	Thanks for sending this/	3408801	1472005403277	1472005403404	h	72
6661	71687	Thanks for sending this.	Thanks for sending this/	3408803	1472005403366	1472005403503	i	73
6661	71687	Thanks for sending this.	Thanks for sending this/	3408806	1472005403491	1472005403607	s	83
6661	71687	Thanks for sending this.	Thanks for sending this/	3408807	1472005403898	1472005404019	/	191
6661	71694	He could ping the ball 40 yards with the outside of his foot.	He could ping the ball 40 yards with the outside of his foot.	3408919	1472005406164	1472005406400	SHIFT	16
6661	71694	He could ping the ball 40 yards with the outside of his foot.	He could ping the ball 40 yards with the outside of his foot.	3408921	1472005406337	1472005406463	H	72
6661	71694	He could ping the ball 40 yards with the outside of his foot.	He could ping the ball 40 yards with the outside of his foot.	3408923	1472005406493	1472005406623	e	69
6661	71694	He could ping the ball 40 yards with the outside of his foot.	He could ping the ball 40 yards with the outside of his foot.	3408926	1472005406650	1472005406770	 	32
6661	71694	He could ping the ball 40 yards with the outside of his foot.	He could ping the ball 40 yards with the outside of his foot.	3408929	1472005406781	1472005406945	c	67
6661	71694	He could ping the ball 40 yards with the outside of his foot.	He could ping the ball 40 yards with the outside of his foot.	3408942	1472005406894	1472005407030	o	79
6661	71694	He could ping the ball 40 yards with the outside of his foot.	He could ping the ball 40 yards with the outside of his foot.	3408943	1472005406998	1472005407067	u	85
6661	71694	He could ping the ball 40 yards with the outside of his foot.	He could ping the ball 40 yards with the outside of his foot.	3408944	1472005407145	1472005407285	l	76
6661	71694	He could ping the ball 40 yards with the outside of his foot.	He could ping the ball 40 yards with the outside of his foot.	3408947	1472005407272	1472005407409	d	68
6661	71694	He could ping the ball 40 yards with the outside of his foot.	He could ping the ball 40 yards with the outside of his foot.	3408950	1472005407383	1472005407481	 	32
6661	71694	He could ping the ball 40 yards with the outside of his foot.	He could ping the ball 40 yards with the outside of his foot.	3408953	1472005407536	1472005407637	p	80
6661	71694	He could ping the ball 40 yards with the outside of his foot.	He could ping the ball 40 yards with the outside of his foot.	3409079	1472005407769	1472005407920	i	73
6661	71694	He could ping the ball 40 yards with the outside of his foot.	He could ping the ball 40 yards with the outside of his foot.	3409080	1472005407904	1472005408075	n	78
6661	71694	He could ping the ball 40 yards with the outside of his foot.	He could ping the ball 40 yards with the outside of his foot.	3409081	1472005408432	1472005408589	f	70
6661	71694	He could ping the ball 40 yards with the outside of his foot.	He could ping the ball 40 yards with the outside of his foot.	3409082	1472005408961	1472005409092	BKSP	8
6661	71694	He could ping the ball 40 yards with the outside of his foot.	He could ping the ball 40 yards with the outside of his foot.	3409084	1472005409873	1472005410027	g	71
6661	71694	He could ping the ball 40 yards with the outside of his foot.	He could ping the ball 40 yards with the outside of his foot.	3409121	1472005410016	1472005410109	 	32
6661	71694	He could ping the ball 40 yards with the outside of his foot.	He could ping the ball 40 yards with the outside of his foot.	3409126	1472005410144	1472005410272	t	84
6661	71694	He could ping the ball 40 yards with the outside of his foot.	He could ping the ball 40 yards with the outside of his foot.	3409131	1472005410248	1472005410369	h	72
6661	71694	He could ping the ball 40 yards with the outside of his foot.	He could ping the ball 40 yards with the outside of his foot.	3409135	1472005410386	1472005410506	e	69
6661	71694	He could ping the ball 40 yards with the outside of his foot.	He could ping the ball 40 yards with the outside of his foot.	3409139	1472005410453	1472005410568	 	32
6661	71694	He could ping the ball 40 yards with the outside of his foot.	He could ping the ball 40 yards with the outside of his foot.	3409141	1472005410624	1472005410754	b	66
6661	71694	He could ping the ball 40 yards with the outside of his foot.	He could ping the ball 40 yards with the outside of his foot.	3409190	1472005410771	1472005410889	a	65
6661	71694	He could ping the ball 40 yards with the outside of his foot.	He could ping the ball 40 yards with the outside of his foot.	3409195	1472005410877	1472005410956	l	76
6661	71694	He could ping the ball 40 yards with the outside of his foot.	He could ping the ball 40 yards with the outside of his foot.	3409199	1472005411042	1472005411200	l	76
6661	71694	He could ping the ball 40 yards with the outside of his foot.	He could ping the ball 40 yards with the outside of his foot.	3409203	1472005411152	1472005411295	 	32
6661	71694	He could ping the ball 40 yards with the outside of his foot.	He could ping the ball 40 yards with the outside of his foot.	3409205	1472005411764	1472005411907	4	52
6661	71694	He could ping the ball 40 yards with the outside of his foot.	He could ping the ball 40 yards with the outside of his foot.	3409255	1472005411879	1472005412048	0	48
6661	71694	He could ping the ball 40 yards with the outside of his foot.	He could ping the ball 40 yards with the outside of his foot.	3409256	1472005412064	1472005412232	 	32
6661	71694	He could ping the ball 40 yards with the outside of his foot.	He could ping the ball 40 yards with the outside of his foot.	3409257	1472005412457	1472005412566	y	89
6661	71694	He could ping the ball 40 yards with the outside of his foot.	He could ping the ball 40 yards with the outside of his foot.	3409258	1472005412588	1472005412709	a	65
6661	71694	He could ping the ball 40 yards with the outside of his foot.	He could ping the ball 40 yards with the outside of his foot.	3409259	1472005412730	1472005412839	r	82
6661	71694	He could ping the ball 40 yards with the outside of his foot.	He could ping the ball 40 yards with the outside of his foot.	3409260	1472005412887	1472005413008	d	68
6661	71694	He could ping the ball 40 yards with the outside of his foot.	He could ping the ball 40 yards with the outside of his foot.	3409340	1472005413123	1472005413255	s	83
6661	71694	He could ping the ball 40 yards with the outside of his foot.	He could ping the ball 40 yards with the outside of his foot.	3409342	1472005413338	1472005413465	 	32
6661	71694	He could ping the ball 40 yards with the outside of his foot.	He could ping the ball 40 yards with the outside of his foot.	3409346	1472005413596	1472005413658	w	87
6661	71694	He could ping the ball 40 yards with the outside of his foot.	He could ping the ball 40 yards with the outside of his foot.	3409350	1472005414147	1472005414306	i	73
6661	71694	He could ping the ball 40 yards with the outside of his foot.	He could ping the ball 40 yards with the outside of his foot.	3409355	1472005414344	1472005414487	t	84
6661	71694	He could ping the ball 40 yards with the outside of his foot.	He could ping the ball 40 yards with the outside of his foot.	3409398	1472005414509	1472005414659	h	72
6661	71694	He could ping the ball 40 yards with the outside of his foot.	He could ping the ball 40 yards with the outside of his foot.	3409400	1472005414703	1472005414798	 	32
6661	71694	He could ping the ball 40 yards with the outside of his foot.	He could ping the ball 40 yards with the outside of his foot.	3409404	1472005415107	1472005415247	t	84
6661	71694	He could ping the ball 40 yards with the outside of his foot.	He could ping the ball 40 yards with the outside of his foot.	3409406	1472005415268	1472005415421	h	72
6661	71694	He could ping the ball 40 yards with the outside of his foot.	He could ping the ball 40 yards with the outside of his foot.	3409457	1472005415411	1472005415551	e	69
6661	71694	He could ping the ball 40 yards with the outside of his foot.	He could ping the ball 40 yards with the outside of his foot.	3409461	1472005415568	1472005415688	 	32
6661	71694	He could ping the ball 40 yards with the outside of his foot.	He could ping the ball 40 yards with the outside of his foot.	3409466	1472005415929	1472005416168	o	79
6661	71694	He could ping the ball 40 yards with the outside of his foot.	He could ping the ball 40 yards with the outside of his foot.	3409469	1472005416117	1472005416266	u	85
6661	71694	He could ping the ball 40 yards with the outside of his foot.	He could ping the ball 40 yards with the outside of his foot.	3409472	1472005416257	1472005416384	t	84
6661	71694	He could ping the ball 40 yards with the outside of his foot.	He could ping the ball 40 yards with the outside of his foot.	3409474	1472005416512	1472005416653	s	83
6661	71694	He could ping the ball 40 yards with the outside of his foot.	He could ping the ball 40 yards with the outside of his foot.	3409537	1472005416666	1472005416773	i	73
6661	71694	He could ping the ball 40 yards with the outside of his foot.	He could ping the ball 40 yards with the outside of his foot.	3409543	1472005416783	1472005416990	d	68
6661	71694	He could ping the ball 40 yards with the outside of his foot.	He could ping the ball 40 yards with the outside of his foot.	3409547	1472005416947	1472005417105	e	69
6661	71694	He could ping the ball 40 yards with the outside of his foot.	He could ping the ball 40 yards with the outside of his foot.	3409549	1472005417856	1472005417976	 	32
6661	71694	He could ping the ball 40 yards with the outside of his foot.	He could ping the ball 40 yards with the outside of his foot.	3409552	1472005417985	1472005418142	o	79
6661	71694	He could ping the ball 40 yards with the outside of his foot.	He could ping the ball 40 yards with the outside of his foot.	3409621	1472005418111	1472005418263	f	70
6661	71694	He could ping the ball 40 yards with the outside of his foot.	He could ping the ball 40 yards with the outside of his foot.	3409626	1472005418251	1472005418334	 	32
6661	71694	He could ping the ball 40 yards with the outside of his foot.	He could ping the ball 40 yards with the outside of his foot.	3409630	1472005418471	1472005418598	h	72
6661	71694	He could ping the ball 40 yards with the outside of his foot.	He could ping the ball 40 yards with the outside of his foot.	3409632	1472005418701	1472005418852	i	73
6661	71694	He could ping the ball 40 yards with the outside of his foot.	He could ping the ball 40 yards with the outside of his foot.	3409633	1472005418887	1472005419018	s	83
6661	71694	He could ping the ball 40 yards with the outside of his foot.	He could ping the ball 40 yards with the outside of his foot.	3409634	1472005419270	1472005419375	 	32
6661	71694	He could ping the ball 40 yards with the outside of his foot.	He could ping the ball 40 yards with the outside of his foot.	3409699	1472005419793	1472005419958	g	71
6661	71694	He could ping the ball 40 yards with the outside of his foot.	He could ping the ball 40 yards with the outside of his foot.	3409701	1472005419947	1472005420042	o	79
6661	71694	He could ping the ball 40 yards with the outside of his foot.	He could ping the ball 40 yards with the outside of his foot.	3409703	1472005420150	1472005420206	o	79
6661	71694	He could ping the ball 40 yards with the outside of his foot.	He could ping the ball 40 yards with the outside of his foot.	3409705	1472005420580	1472005420681	BKSP	8
6661	71694	He could ping the ball 40 yards with the outside of his foot.	He could ping the ball 40 yards with the outside of his foot.	3409707	1472005420777	1472005420865	BKSP	8
6661	71694	He could ping the ball 40 yards with the outside of his foot.	He could ping the ball 40 yards with the outside of his foot.	3409711	1472005420970	1472005421093	f	70
6661	71694	He could ping the ball 40 yards with the outside of his foot.	He could ping the ball 40 yards with the outside of his foot.	3409714	1472005421102	1472005421166	o	79
6661	71694	He could ping the ball 40 yards with the outside of his foot.	He could ping the ball 40 yards with the outside of his foot.	3409885	1472005421261	1472005421323	o	79
6661	71694	He could ping the ball 40 yards with the outside of his foot.	He could ping the ball 40 yards with the outside of his foot.	3409891	1472005421358	1472005421490	t	84
6661	71694	He could ping the ball 40 yards with the outside of his foot.	He could ping the ball 40 yards with the outside of his foot.	3409894	1472005421501	1472005421637	.	190
6661	71694	He could ping the ball 40 yards with the outside of his foot.	He could ping the ball 40 yards with the outside of his foot.	3409901	1472005422260	1472005422525	ARW_LEFT	37
6661	71694	He could ping the ball 40 yards with the outside of his foot.	He could ping the ball 40 yards with the outside of his foot.	3409910	1472005422611	1472005422694	ARW_LEFT	37
6661	71694	He could ping the ball 40 yards with the outside of his foot.	He could ping the ball 40 yards with the outside of his foot.	3409916	1472005422793	1472005422861	ARW_LEFT	37
6661	71694	He could ping the ball 40 yards with the outside of his foot.	He could ping the ball 40 yards with the outside of his foot.	3409926	1472005422971	1472005423046	ARW_LEFT	37
6661	71694	He could ping the ball 40 yards with the outside of his foot.	He could ping the ball 40 yards with the outside of his foot.	3409930	1472005423343	1472005423438	ARW_LEFT	37
6661	71694	He could ping the ball 40 yards with the outside of his foot.	He could ping the ball 40 yards with the outside of his foot.	3409935	1472005423863	1472005423915	BKSP	8
6661	71716	I'm at the doctor's office, should be in later.	I'm at the doctor's office, should be in later.	3410137	1472005426258	1472005426703	SHIFT	16
6661	71716	I'm at the doctor's office, should be in later.	I'm at the doctor's office, should be in later.	3410139	1472005426579	1472005426713	I	73
6661	71716	I'm at the doctor's office, should be in later.	I'm at the doctor's office, should be in later.	3410142	1472005426855	1472005426944	;	186
6661	71716	I'm at the doctor's office, should be in later.	I'm at the doctor's office, should be in later.	3410146	1472005427332	1472005427421	BKSP	8
6661	71716	I'm at the doctor's office, should be in later.	I'm at the doctor's office, should be in later.	3410150	1472005427641	1472005427748	'	222
6661	71716	I'm at the doctor's office, should be in later.	I'm at the doctor's office, should be in later.	3410155	1472005427888	1472005428018	m	77
6661	71716	I'm at the doctor's office, should be in later.	I'm at the doctor's office, should be in later.	3410160	1472005428195	1472005428294	 	32
6661	71716	I'm at the doctor's office, should be in later.	I'm at the doctor's office, should be in later.	3410256	1472005429667	1472005429771	a	65
6661	71716	I'm at the doctor's office, should be in later.	I'm at the doctor's office, should be in later.	3410258	1472005429905	1472005430050	t	84
6661	71716	I'm at the doctor's office, should be in later.	I'm at the doctor's office, should be in later.	3410260	1472005430038	1472005430143	 	32
6661	71716	I'm at the doctor's office, should be in later.	I'm at the doctor's office, should be in later.	3410265	1472005430158	1472005430258	t	84
6661	71716	I'm at the doctor's office, should be in later.	I'm at the doctor's office, should be in later.	3410268	1472005430331	1472005430446	h	72
6661	71716	I'm at the doctor's office, should be in later.	I'm at the doctor's office, should be in later.	3410324	1472005430434	1472005430559	e	69
6661	71716	I'm at the doctor's office, should be in later.	I'm at the doctor's office, should be in later.	3410325	1472005430569	1472005430668	 	32
6661	71716	I'm at the doctor's office, should be in later.	I'm at the doctor's office, should be in later.	3410327	1472005430737	1472005431067	SHIFT	16
6661	71716	I'm at the doctor's office, should be in later.	I'm at the doctor's office, should be in later.	3410326	1472005430931	1472005431047	D	68
6661	71716	I'm at the doctor's office, should be in later.	I'm at the doctor's office, should be in later.	3410328	1472005431313	1472005431441	o	79
6661	71716	I'm at the doctor's office, should be in later.	I'm at the doctor's office, should be in later.	3410329	1472005431516	1472005431630	c	67
6661	71716	I'm at the doctor's office, should be in later.	I'm at the doctor's office, should be in later.	3410330	1472005431757	1472005431910	t	84
6661	71716	I'm at the doctor's office, should be in later.	I'm at the doctor's office, should be in later.	3410447	1472005431921	1472005432035	o	79
6661	71716	I'm at the doctor's office, should be in later.	I'm at the doctor's office, should be in later.	3410450	1472005432024	1472005432148	r	82
6661	71716	I'm at the doctor's office, should be in later.	I'm at the doctor's office, should be in later.	3410453	1472005432431	1472005432520	BKSP	8
6661	71716	I'm at the doctor's office, should be in later.	I'm at the doctor's office, should be in later.	3410455	1472005432611	1472005432696	BKSP	8
6661	71716	I'm at the doctor's office, should be in later.	I'm at the doctor's office, should be in later.	3410457	1472005432793	1472005432889	BKSP	8
6661	71716	I'm at the doctor's office, should be in later.	I'm at the doctor's office, should be in later.	3410460	1472005432976	1472005433055	BKSP	8
6661	71716	I'm at the doctor's office, should be in later.	I'm at the doctor's office, should be in later.	3410463	1472005433152	1472005433209	BKSP	8
6661	71716	I'm at the doctor's office, should be in later.	I'm at the doctor's office, should be in later.	3410467	1472005433311	1472005433401	BKSP	8
6661	71716	I'm at the doctor's office, should be in later.	I'm at the doctor's office, should be in later.	3410471	1472005433475	1472005433611	d	68
6661	71716	I'm at the doctor's office, should be in later.	I'm at the doctor's office, should be in later.	3410474	1472005433628	1472005433781	o	79
6661	71716	I'm at the doctor's office, should be in later.	I'm at the doctor's office, should be in later.	3410477	1472005433851	1472005433962	c	67
6661	71716	I'm at the doctor's office, should be in later.	I'm at the doctor's office, should be in later.	3410555	1472005434108	1472005434192	'	222
6661	71716	I'm at the doctor's office, should be in later.	I'm at the doctor's office, should be in later.	3410559	1472005434463	1472005434536	BKSP	8
6661	71716	I'm at the doctor's office, should be in later.	I'm at the doctor's office, should be in later.	3410566	1472005434604	1472005434754	t	84
6661	71716	I'm at the doctor's office, should be in later.	I'm at the doctor's office, should be in later.	3410573	1472005434769	1472005434878	o	79
6661	71716	I'm at the doctor's office, should be in later.	I'm at the doctor's office, should be in later.	3410580	1472005434889	1472005435007	r	82
6661	71716	I'm at the doctor's office, should be in later.	I'm at the doctor's office, should be in later.	3410584	1472005435370	1472005435479	'	222
6661	71716	I'm at the doctor's office, should be in later.	I'm at the doctor's office, should be in later.	3410647	1472005435589	1472005435717	s	83
6661	71716	I'm at the doctor's office, should be in later.	I'm at the doctor's office, should be in later.	3410650	1472005435698	1472005435810	 	32
6661	71716	I'm at the doctor's office, should be in later.	I'm at the doctor's office, should be in later.	3410653	1472005435915	1472005436059	o	79
6661	71716	I'm at the doctor's office, should be in later.	I'm at the doctor's office, should be in later.	3410657	1472005436365	1472005436461	f	70
6661	71716	I'm at the doctor's office, should be in later.	I'm at the doctor's office, should be in later.	3410663	1472005436558	1472005436667	f	70
6661	71716	I'm at the doctor's office, should be in later.	I'm at the doctor's office, should be in later.	3410696	1472005436694	1472005436819	i	73
6661	71716	I'm at the doctor's office, should be in later.	I'm at the doctor's office, should be in later.	3410701	1472005436808	1472005436959	c	67
6661	71716	I'm at the doctor's office, should be in later.	I'm at the doctor's office, should be in later.	3410706	1472005436912	1472005437081	e	69
6661	71716	I'm at the doctor's office, should be in later.	I'm at the doctor's office, should be in later.	3410711	1472005437070	1472005437191	,	188
6661	71716	I'm at the doctor's office, should be in later.	I'm at the doctor's office, should be in later.	3410719	1472005437368	1472005437483	 	32
6661	71716	I'm at the doctor's office, should be in later.	I'm at the doctor's office, should be in later.	3410831	1472005437634	1472005437848	SHIFT	16
6661	71716	I'm at the doctor's office, should be in later.	I'm at the doctor's office, should be in later.	3410835	1472005438068	1472005438203	s	83
6661	71716	I'm at the doctor's office, should be in later.	I'm at the doctor's office, should be in later.	3410839	1472005438197	1472005438292	h	72
6661	71716	I'm at the doctor's office, should be in later.	I'm at the doctor's office, should be in later.	3410841	1472005438319	1472005438518	o	79
6661	71716	I'm at the doctor's office, should be in later.	I'm at the doctor's office, should be in later.	3410845	1472005439091	1472005439228	u	85
6661	71716	I'm at the doctor's office, should be in later.	I'm at the doctor's office, should be in later.	3410848	1472005439340	1472005439439	l	76
6661	71716	I'm at the doctor's office, should be in later.	I'm at the doctor's office, should be in later.	3410875	1472005439456	1472005439594	d	68
6661	71716	I'm at the doctor's office, should be in later.	I'm at the doctor's office, should be in later.	3410877	1472005439581	1472005439676	 	32
6661	71716	I'm at the doctor's office, should be in later.	I'm at the doctor's office, should be in later.	3410882	1472005439751	1472005439789	b	66
6661	71716	I'm at the doctor's office, should be in later.	I'm at the doctor's office, should be in later.	3410887	1472005439825	1472005439924	e	69
6661	71716	I'm at the doctor's office, should be in later.	I'm at the doctor's office, should be in later.	3410889	1472005440159	1472005440291	 	32
6661	71716	I'm at the doctor's office, should be in later.	I'm at the doctor's office, should be in later.	3410926	1472005440276	1472005440448	i	73
6661	71716	I'm at the doctor's office, should be in later.	I'm at the doctor's office, should be in later.	3410928	1472005440405	1472005440565	n	78
6661	71716	I'm at the doctor's office, should be in later.	I'm at the doctor's office, should be in later.	3410933	1472005440543	1472005440596	 	32
6661	71716	I'm at the doctor's office, should be in later.	I'm at the doctor's office, should be in later.	3410938	1472005440718	1472005440853	l	76
6661	71716	I'm at the doctor's office, should be in later.	I'm at the doctor's office, should be in later.	3410942	1472005440911	1472005440989	a	65
6661	71716	I'm at the doctor's office, should be in later.	I'm at the doctor's office, should be in later.	3410947	1472005441146	1472005441227	t	84
6661	71716	I'm at the doctor's office, should be in later.	I'm at the doctor's office, should be in later.	3410966	1472005441313	1472005441471	e	69
6661	71716	I'm at the doctor's office, should be in later.	I'm at the doctor's office, should be in later.	3410970	1472005441433	1472005441558	r	82
6661	71716	I'm at the doctor's office, should be in later.	I'm at the doctor's office, should be in later.	3410975	1472005441578	1472005441716	.	190
6661	71736	The two leading candidates signed a Civility Pact on Tuesday.	The two leading candidates signed a Civility Pact on Tuesday.	3411150	1472005444101	1472005444432	SHIFT	16
6661	71736	The two leading candidates signed a Civility Pact on Tuesday.	The two leading candidates signed a Civility Pact on Tuesday.	3411147	1472005444317	1472005444421	T	84
6661	71736	The two leading candidates signed a Civility Pact on Tuesday.	The two leading candidates signed a Civility Pact on Tuesday.	3411152	1472005444499	1472005444622	h	72
6661	71736	The two leading candidates signed a Civility Pact on Tuesday.	The two leading candidates signed a Civility Pact on Tuesday.	3411154	1472005444635	1472005444754	e	69
6661	71736	The two leading candidates signed a Civility Pact on Tuesday.	The two leading candidates signed a Civility Pact on Tuesday.	3411156	1472005444742	1472005444857	 	32
6661	71736	The two leading candidates signed a Civility Pact on Tuesday.	The two leading candidates signed a Civility Pact on Tuesday.	3411157	1472005444906	1472005445024	t	84
6661	71736	The two leading candidates signed a Civility Pact on Tuesday.	The two leading candidates signed a Civility Pact on Tuesday.	3411184	1472005445162	1472005445243	w	87
6661	71736	The two leading candidates signed a Civility Pact on Tuesday.	The two leading candidates signed a Civility Pact on Tuesday.	3411189	1472005445271	1472005445392	o	79
6661	71736	The two leading candidates signed a Civility Pact on Tuesday.	The two leading candidates signed a Civility Pact on Tuesday.	3411194	1472005445340	1472005445496	 	32
6661	71736	The two leading candidates signed a Civility Pact on Tuesday.	The two leading candidates signed a Civility Pact on Tuesday.	3411199	1472005445522	1472005445676	l	76
6661	71736	The two leading candidates signed a Civility Pact on Tuesday.	The two leading candidates signed a Civility Pact on Tuesday.	3411226	1472005445665	1472005445764	e	69
6661	71736	The two leading candidates signed a Civility Pact on Tuesday.	The two leading candidates signed a Civility Pact on Tuesday.	3411228	1472005445919	1472005446004	a	65
6661	71736	The two leading candidates signed a Civility Pact on Tuesday.	The two leading candidates signed a Civility Pact on Tuesday.	3411230	1472005446120	1472005446230	d	68
6661	71736	The two leading candidates signed a Civility Pact on Tuesday.	The two leading candidates signed a Civility Pact on Tuesday.	3411234	1472005446255	1472005446402	i	73
6661	71736	The two leading candidates signed a Civility Pact on Tuesday.	The two leading candidates signed a Civility Pact on Tuesday.	3411237	1472005446373	1472005446527	n	78
6661	71736	The two leading candidates signed a Civility Pact on Tuesday.	The two leading candidates signed a Civility Pact on Tuesday.	3411362	1472005446470	1472005446599	g	71
6661	71736	The two leading candidates signed a Civility Pact on Tuesday.	The two leading candidates signed a Civility Pact on Tuesday.	3411366	1472005446574	1472005446703	 	32
6661	71736	The two leading candidates signed a Civility Pact on Tuesday.	The two leading candidates signed a Civility Pact on Tuesday.	3411370	1472005446764	1472005446909	c	67
6661	71736	The two leading candidates signed a Civility Pact on Tuesday.	The two leading candidates signed a Civility Pact on Tuesday.	3411375	1472005447195	1472005447314	a	65
6661	71736	The two leading candidates signed a Civility Pact on Tuesday.	The two leading candidates signed a Civility Pact on Tuesday.	3411378	1472005447368	1472005447508	n	78
6661	71736	The two leading candidates signed a Civility Pact on Tuesday.	The two leading candidates signed a Civility Pact on Tuesday.	3411384	1472005448474	1472005448646	d	68
6661	71736	The two leading candidates signed a Civility Pact on Tuesday.	The two leading candidates signed a Civility Pact on Tuesday.	3411436	1472005448735	1472005448918	i	73
6661	71736	The two leading candidates signed a Civility Pact on Tuesday.	The two leading candidates signed a Civility Pact on Tuesday.	3411440	1472005449050	1472005449196	d	68
6661	71736	The two leading candidates signed a Civility Pact on Tuesday.	The two leading candidates signed a Civility Pact on Tuesday.	3411449	1472005449390	1472005449483	a	65
6661	71736	The two leading candidates signed a Civility Pact on Tuesday.	The two leading candidates signed a Civility Pact on Tuesday.	3411455	1472005449645	1472005449735	t	84
6661	71736	The two leading candidates signed a Civility Pact on Tuesday.	The two leading candidates signed a Civility Pact on Tuesday.	3411461	1472005449892	1472005450062	e	69
6661	71736	The two leading candidates signed a Civility Pact on Tuesday.	The two leading candidates signed a Civility Pact on Tuesday.	3411544	1472005450103	1472005450230	 	32
6661	71736	The two leading candidates signed a Civility Pact on Tuesday.	The two leading candidates signed a Civility Pact on Tuesday.	3411546	1472005450218	1472005450383	i	73
6661	71736	The two leading candidates signed a Civility Pact on Tuesday.	The two leading candidates signed a Civility Pact on Tuesday.	3411550	1472005450345	1472005450498	s	83
6661	71736	The two leading candidates signed a Civility Pact on Tuesday.	The two leading candidates signed a Civility Pact on Tuesday.	3411555	1472005450956	1472005451070	BKSP	8
6661	71736	The two leading candidates signed a Civility Pact on Tuesday.	The two leading candidates signed a Civility Pact on Tuesday.	3411561	1472005451161	1472005451240	BKSP	8
6661	71736	The two leading candidates signed a Civility Pact on Tuesday.	The two leading candidates signed a Civility Pact on Tuesday.	3411566	1472005451395	1472005451522	s	83
6661	71736	The two leading candidates signed a Civility Pact on Tuesday.	The two leading candidates signed a Civility Pact on Tuesday.	3411570	1472005451533	1472005451684	i	73
6661	71736	The two leading candidates signed a Civility Pact on Tuesday.	The two leading candidates signed a Civility Pact on Tuesday.	3411680	1472005452091	1472005452255	g	71
6661	71736	The two leading candidates signed a Civility Pact on Tuesday.	The two leading candidates signed a Civility Pact on Tuesday.	3411682	1472005452293	1472005452401	h	72
6661	71736	The two leading candidates signed a Civility Pact on Tuesday.	The two leading candidates signed a Civility Pact on Tuesday.	3411685	1472005452831	1472005452955	BKSP	8
6661	71736	The two leading candidates signed a Civility Pact on Tuesday.	The two leading candidates signed a Civility Pact on Tuesday.	3411688	1472005453030	1472005453119	BKSP	8
6661	71736	The two leading candidates signed a Civility Pact on Tuesday.	The two leading candidates signed a Civility Pact on Tuesday.	3411690	1472005453206	1472005453300	BKSP	8
6661	71736	The two leading candidates signed a Civility Pact on Tuesday.	The two leading candidates signed a Civility Pact on Tuesday.	3411694	1472005453386	1472005453475	BKSP	8
6661	71736	The two leading candidates signed a Civility Pact on Tuesday.	The two leading candidates signed a Civility Pact on Tuesday.	3411700	1472005453583	1472005453661	BKSP	8
6661	71736	The two leading candidates signed a Civility Pact on Tuesday.	The two leading candidates signed a Civility Pact on Tuesday.	3411706	1472005453898	1472005454039	s	83
6661	71736	The two leading candidates signed a Civility Pact on Tuesday.	The two leading candidates signed a Civility Pact on Tuesday.	3411713	1472005454176	1472005454326	 	32
6661	71736	The two leading candidates signed a Civility Pact on Tuesday.	The two leading candidates signed a Civility Pact on Tuesday.	3411719	1472005454408	1472005454542	s	83
6661	71736	The two leading candidates signed a Civility Pact on Tuesday.	The two leading candidates signed a Civility Pact on Tuesday.	3411746	1472005454508	1472005454645	i	73
6661	71736	The two leading candidates signed a Civility Pact on Tuesday.	The two leading candidates signed a Civility Pact on Tuesday.	3411750	1472005454741	1472005454907	g	71
6661	71736	The two leading candidates signed a Civility Pact on Tuesday.	The two leading candidates signed a Civility Pact on Tuesday.	3411755	1472005454964	1472005455098	n	78
6661	71736	The two leading candidates signed a Civility Pact on Tuesday.	The two leading candidates signed a Civility Pact on Tuesday.	3411762	1472005455364	1472005455509	e	69
6661	71736	The two leading candidates signed a Civility Pact on Tuesday.	The two leading candidates signed a Civility Pact on Tuesday.	3411768	1472005455676	1472005455791	d	68
6661	71736	The two leading candidates signed a Civility Pact on Tuesday.	The two leading candidates signed a Civility Pact on Tuesday.	3411774	1472005455846	1472005455975	 	32
6661	71736	The two leading candidates signed a Civility Pact on Tuesday.	The two leading candidates signed a Civility Pact on Tuesday.	3411838	1472005455986	1472005456115	a	65
6661	71736	The two leading candidates signed a Civility Pact on Tuesday.	The two leading candidates signed a Civility Pact on Tuesday.	3411841	1472005456145	1472005456231	 	32
6661	71736	The two leading candidates signed a Civility Pact on Tuesday.	The two leading candidates signed a Civility Pact on Tuesday.	3411853	1472005456495	1472005456799	SHIFT	16
6661	71736	The two leading candidates signed a Civility Pact on Tuesday.	The two leading candidates signed a Civility Pact on Tuesday.	3411846	1472005456653	1472005456783	C	67
6661	71736	The two leading candidates signed a Civility Pact on Tuesday.	The two leading candidates signed a Civility Pact on Tuesday.	3411858	1472005456855	1472005457077	i	73
6661	71736	The two leading candidates signed a Civility Pact on Tuesday.	The two leading candidates signed a Civility Pact on Tuesday.	3411864	1472005457113	1472005457367	l	76
6661	71736	The two leading candidates signed a Civility Pact on Tuesday.	The two leading candidates signed a Civility Pact on Tuesday.	3412009	1472005457589	1472005457757	v	86
6661	71736	The two leading candidates signed a Civility Pact on Tuesday.	The two leading candidates signed a Civility Pact on Tuesday.	3412012	1472005458064	1472005458126	BKSP	8
6661	71736	The two leading candidates signed a Civility Pact on Tuesday.	The two leading candidates signed a Civility Pact on Tuesday.	3412017	1472005458247	1472005458335	BKSP	8
6661	71736	The two leading candidates signed a Civility Pact on Tuesday.	The two leading candidates signed a Civility Pact on Tuesday.	3412021	1472005458582	1472005458744	v	86
6661	71736	The two leading candidates signed a Civility Pact on Tuesday.	The two leading candidates signed a Civility Pact on Tuesday.	3412027	1472005458793	1472005458979	i	73
6661	71736	The two leading candidates signed a Civility Pact on Tuesday.	The two leading candidates signed a Civility Pact on Tuesday.	3412034	1472005459282	1472005459588	l	76
6661	71736	The two leading candidates signed a Civility Pact on Tuesday.	The two leading candidates signed a Civility Pact on Tuesday.	3412122	1472005459534	1472005459756	i	73
6661	71736	The two leading candidates signed a Civility Pact on Tuesday.	The two leading candidates signed a Civility Pact on Tuesday.	3412127	1472005460088	1472005460244	t	84
6661	71736	The two leading candidates signed a Civility Pact on Tuesday.	The two leading candidates signed a Civility Pact on Tuesday.	3412132	1472005460255	1472005460386	y	89
6661	71736	The two leading candidates signed a Civility Pact on Tuesday.	The two leading candidates signed a Civility Pact on Tuesday.	3412138	1472005460426	1472005460558	 	32
6661	71736	The two leading candidates signed a Civility Pact on Tuesday.	The two leading candidates signed a Civility Pact on Tuesday.	3412140	1472005460869	1472005461073	SHIFT	16
6661	71736	The two leading candidates signed a Civility Pact on Tuesday.	The two leading candidates signed a Civility Pact on Tuesday.	3412143	1472005460983	1472005461114	P	80
6661	71736	The two leading candidates signed a Civility Pact on Tuesday.	The two leading candidates signed a Civility Pact on Tuesday.	3412145	1472005461345	1472005461459	a	65
6661	71736	The two leading candidates signed a Civility Pact on Tuesday.	The two leading candidates signed a Civility Pact on Tuesday.	3412174	1472005461604	1472005461705	c	67
6661	71736	The two leading candidates signed a Civility Pact on Tuesday.	The two leading candidates signed a Civility Pact on Tuesday.	3412175	1472005461807	1472005461936	t	84
6661	71736	The two leading candidates signed a Civility Pact on Tuesday.	The two leading candidates signed a Civility Pact on Tuesday.	3412177	1472005462163	1472005462257	 	32
6661	71736	The two leading candidates signed a Civility Pact on Tuesday.	The two leading candidates signed a Civility Pact on Tuesday.	3412179	1472005462305	1472005462503	o	79
6661	71736	The two leading candidates signed a Civility Pact on Tuesday.	The two leading candidates signed a Civility Pact on Tuesday.	3412248	1472005462455	1472005462616	n	78
6661	71736	The two leading candidates signed a Civility Pact on Tuesday.	The two leading candidates signed a Civility Pact on Tuesday.	3412250	1472005462515	1472005462653	 	32
6661	71736	The two leading candidates signed a Civility Pact on Tuesday.	The two leading candidates signed a Civility Pact on Tuesday.	3412256	1472005462801	1472005463207	SHIFT	16
6661	71736	The two leading candidates signed a Civility Pact on Tuesday.	The two leading candidates signed a Civility Pact on Tuesday.	3412253	1472005463088	1472005463155	T	84
6661	71736	The two leading candidates signed a Civility Pact on Tuesday.	The two leading candidates signed a Civility Pact on Tuesday.	3412258	1472005463333	1472005463474	u	85
6661	71736	The two leading candidates signed a Civility Pact on Tuesday.	The two leading candidates signed a Civility Pact on Tuesday.	3412261	1472005463614	1472005463760	e	69
6661	71736	The two leading candidates signed a Civility Pact on Tuesday.	The two leading candidates signed a Civility Pact on Tuesday.	3412264	1472005463817	1472005463932	s	83
6661	71736	The two leading candidates signed a Civility Pact on Tuesday.	The two leading candidates signed a Civility Pact on Tuesday.	3412324	1472005464019	1472005464123	d	68
6661	71736	The two leading candidates signed a Civility Pact on Tuesday.	The two leading candidates signed a Civility Pact on Tuesday.	3412330	1472005464193	1472005464344	a	65
6661	71736	The two leading candidates signed a Civility Pact on Tuesday.	The two leading candidates signed a Civility Pact on Tuesday.	3412335	1472005464280	1472005464369	y	89
6661	71736	The two leading candidates signed a Civility Pact on Tuesday.	The two leading candidates signed a Civility Pact on Tuesday.	3412339	1472005464627	1472005464779	.	190
6661	71763	It was very nice.	It was very nice	3412496	1472005466807	1472005467169	SHIFT	16
6661	71763	It was very nice.	It was very nice	3412502	1472005467061	1472005467200	I	73
6661	71763	It was very nice.	It was very nice	3412506	1472005467347	1472005467476	t	84
6661	71763	It was very nice.	It was very nice	3412508	1472005467675	1472005467782	 	32
6661	71763	It was very nice.	It was very nice	3412512	1472005467823	1472005467926	w	87
6661	71763	It was very nice.	It was very nice	3412514	1472005468036	1472005468110	a	65
6661	71763	It was very nice.	It was very nice	3412584	1472005468206	1472005468290	s	83
6661	71763	It was very nice.	It was very nice	3412587	1472005468280	1472005468401	 	32
6661	71763	It was very nice.	It was very nice	3412589	1472005468630	1472005468788	b	66
6661	71763	It was very nice.	It was very nice	3412592	1472005469398	1472005469545	BKSP	8
6661	71763	It was very nice.	It was very nice	3412594	1472005469533	1472005469668	v	86
6661	71763	It was very nice.	It was very nice	3412596	1472005469695	1472005469899	e	69
6661	71763	It was very nice.	It was very nice	3412640	1472005469821	1472005469996	r	82
6661	71763	It was very nice.	It was very nice	3412641	1472005470024	1472005470120	y	89
6661	71763	It was very nice.	It was very nice	3412642	1472005470485	1472005470620	 	32
6661	71763	It was very nice.	It was very nice	3412643	1472005470734	1472005470910	n	78
6661	71763	It was very nice.	It was very nice	3412644	1472005470893	1472005471034	i	73
6661	71763	It was very nice.	It was very nice	3412654	1472005470988	1472005471183	c	67
6661	71763	It was very nice.	It was very nice	3412657	1472005471167	1472005471296	e	69
6661	71770	I doubt that it is forecasted.	I doubt that it is forcasted	3412793	1472005473493	1472005473742	SHIFT	16
6661	71770	I doubt that it is forecasted.	I doubt that it is forcasted	3412797	1472005473628	1472005473778	I	73
6661	71770	I doubt that it is forecasted.	I doubt that it is forcasted	3412800	1472005474009	1472005474105	 	32
6661	71770	I doubt that it is forecasted.	I doubt that it is forcasted	3412807	1472005474159	1472005474312	d	68
6661	71770	I doubt that it is forecasted.	I doubt that it is forcasted	3412811	1472005474260	1472005474449	o	79
6661	71770	I doubt that it is forecasted.	I doubt that it is forcasted	3412869	1472005474396	1472005474513	u	85
6661	71770	I doubt that it is forecasted.	I doubt that it is forcasted	3412873	1472005474794	1472005474965	g	71
6661	71770	I doubt that it is forecasted.	I doubt that it is forcasted	3412877	1472005475383	1472005475471	BKSP	8
6661	71770	I doubt that it is forecasted.	I doubt that it is forcasted	3412882	1472005475613	1472005475768	b	66
6661	71770	I doubt that it is forecasted.	I doubt that it is forcasted	3412886	1472005475779	1472005475919	t	84
6661	71770	I doubt that it is forecasted.	I doubt that it is forcasted	3412891	1472005475892	1472005475997	 	32
6661	71770	I doubt that it is forecasted.	I doubt that it is forcasted	3412893	1472005476038	1472005476140	t	84
6661	71770	I doubt that it is forecasted.	I doubt that it is forcasted	3412988	1472005476124	1472005476237	h	72
6661	71770	I doubt that it is forecasted.	I doubt that it is forcasted	3412991	1472005476625	1472005476768	a	65
6661	71770	I doubt that it is forecasted.	I doubt that it is forcasted	3412993	1472005476970	1472005477075	BKSP	8
6661	71770	I doubt that it is forecasted.	I doubt that it is forcasted	3412994	1472005477294	1472005477454	a	65
6661	71770	I doubt that it is forecasted.	I doubt that it is forcasted	3412995	1472005477464	1472005477608	t	84
6661	71770	I doubt that it is forecasted.	I doubt that it is forcasted	3412996	1472005477709	1472005477843	 	32
6661	71770	I doubt that it is forecasted.	I doubt that it is forcasted	3412997	1472005477888	1472005478061	i	73
6661	71770	I doubt that it is forecasted.	I doubt that it is forcasted	3413039	1472005478078	1472005478202	s	83
6661	71770	I doubt that it is forecasted.	I doubt that it is forcasted	3413042	1472005478438	1472005478564	BKSP	8
6661	71770	I doubt that it is forecasted.	I doubt that it is forcasted	3413047	1472005478590	1472005478731	t	84
6661	71770	I doubt that it is forecasted.	I doubt that it is forcasted	3413051	1472005478857	1472005478998	 	32
6661	71770	I doubt that it is forecasted.	I doubt that it is forcasted	3413055	1472005479022	1472005479198	i	73
6661	71770	I doubt that it is forecasted.	I doubt that it is forcasted	3413118	1472005479185	1472005479290	s	83
6661	71770	I doubt that it is forecasted.	I doubt that it is forcasted	3413121	1472005479662	1472005479795	 	32
6661	71770	I doubt that it is forecasted.	I doubt that it is forcasted	3413125	1472005480100	1472005480233	f	70
6661	71770	I doubt that it is forecasted.	I doubt that it is forcasted	3413132	1472005480217	1472005480368	o	79
6661	71770	I doubt that it is forecasted.	I doubt that it is forcasted	3413137	1472005480352	1472005480487	r	82
6661	71770	I doubt that it is forecasted.	I doubt that it is forcasted	3413142	1472005480627	1472005480721	v	86
6661	71770	I doubt that it is forecasted.	I doubt that it is forcasted	3413183	1472005480947	1472005481078	BKSP	8
6661	71770	I doubt that it is forecasted.	I doubt that it is forcasted	3413184	1472005481087	1472005481162	c	67
6661	71770	I doubt that it is forecasted.	I doubt that it is forcasted	3413186	1472005481315	1472005481410	a	65
6661	71770	I doubt that it is forecasted.	I doubt that it is forcasted	3413188	1472005481500	1472005481621	s	83
6661	71770	I doubt that it is forecasted.	I doubt that it is forcasted	3413191	1472005481636	1472005481753	t	84
6661	71770	I doubt that it is forecasted.	I doubt that it is forcasted	3413205	1472005481743	1472005481832	e	69
6661	71770	I doubt that it is forecasted.	I doubt that it is forcasted	3413208	1472005481926	1472005482042	d	68
6661	71783	Kay Mann is going to take the lead on this.	Kay Mann is going to take the lead on this.	3413297	1472005483844	1472005484292	SHIFT	16
6661	71783	Kay Mann is going to take the lead on this.	Kay Mann is going to take the lead on this.	3413299	1472005484103	1472005484302	K	75
6661	71783	Kay Mann is going to take the lead on this.	Kay Mann is going to take the lead on this.	3413302	1472005484381	1472005484515	a	65
6661	71783	Kay Mann is going to take the lead on this.	Kay Mann is going to take the lead on this.	3413305	1472005484550	1472005484651	y	89
6661	71783	Kay Mann is going to take the lead on this.	Kay Mann is going to take the lead on this.	3413309	1472005484927	1472005485006	 	32
6661	71783	Kay Mann is going to take the lead on this.	Kay Mann is going to take the lead on this.	3413334	1472005485027	1472005485245	SHIFT	16
6661	71783	Kay Mann is going to take the lead on this.	Kay Mann is going to take the lead on this.	3413314	1472005485143	1472005485242	M	77
6661	71783	Kay Mann is going to take the lead on this.	Kay Mann is going to take the lead on this.	3413336	1472005485346	1472005485431	a	65
6661	71783	Kay Mann is going to take the lead on this.	Kay Mann is going to take the lead on this.	3413338	1472005485452	1472005485528	n	78
6661	71783	Kay Mann is going to take the lead on this.	Kay Mann is going to take the lead on this.	3413341	1472005485620	1472005485747	n	78
6661	71783	Kay Mann is going to take the lead on this.	Kay Mann is going to take the lead on this.	3413346	1472005485724	1472005485842	 	32
6661	71783	Kay Mann is going to take the lead on this.	Kay Mann is going to take the lead on this.	3413348	1472005485857	1472005485994	i	73
6661	71783	Kay Mann is going to take the lead on this.	Kay Mann is going to take the lead on this.	3413383	1472005485983	1472005486099	s	83
6661	71783	Kay Mann is going to take the lead on this.	Kay Mann is going to take the lead on this.	3413387	1472005486086	1472005486174	 	32
6661	71783	Kay Mann is going to take the lead on this.	Kay Mann is going to take the lead on this.	3413392	1472005486273	1472005486433	g	71
6661	71783	Kay Mann is going to take the lead on this.	Kay Mann is going to take the lead on this.	3413398	1472005486388	1472005486553	o	79
6661	71783	Kay Mann is going to take the lead on this.	Kay Mann is going to take the lead on this.	3413403	1472005486496	1472005486601	i	73
6661	71783	Kay Mann is going to take the lead on this.	Kay Mann is going to take the lead on this.	3413405	1472005486713	1472005486855	n	78
6661	71783	Kay Mann is going to take the lead on this.	Kay Mann is going to take the lead on this.	3413418	1472005486865	1472005486968	g	71
6661	71783	Kay Mann is going to take the lead on this.	Kay Mann is going to take the lead on this.	3413422	1472005486988	1472005487093	 	32
6661	71783	Kay Mann is going to take the lead on this.	Kay Mann is going to take the lead on this.	3413426	1472005487123	1472005487267	t	84
6661	71783	Kay Mann is going to take the lead on this.	Kay Mann is going to take the lead on this.	3413429	1472005487209	1472005487330	o	79
6661	71783	Kay Mann is going to take the lead on this.	Kay Mann is going to take the lead on this.	3413486	1472005487303	1472005487430	 	32
6661	71783	Kay Mann is going to take the lead on this.	Kay Mann is going to take the lead on this.	3413488	1472005487543	1472005487661	t	84
6661	71783	Kay Mann is going to take the lead on this.	Kay Mann is going to take the lead on this.	3413491	1472005487826	1472005487860	a	65
6661	71783	Kay Mann is going to take the lead on this.	Kay Mann is going to take the lead on this.	3413496	1472005487879	1472005488029	k	75
6661	71783	Kay Mann is going to take the lead on this.	Kay Mann is going to take the lead on this.	3413502	1472005488446	1472005488641	e	69
6661	71783	Kay Mann is going to take the lead on this.	Kay Mann is going to take the lead on this.	3413534	1472005488629	1472005488731	 	32
6661	71783	Kay Mann is going to take the lead on this.	Kay Mann is going to take the lead on this.	3413539	1472005488821	1472005488949	t	84
6661	71783	Kay Mann is going to take the lead on this.	Kay Mann is going to take the lead on this.	3413542	1472005488959	1472005489053	h	72
6661	71783	Kay Mann is going to take the lead on this.	Kay Mann is going to take the lead on this.	3413545	1472005489074	1472005489206	e	69
6661	71783	Kay Mann is going to take the lead on this.	Kay Mann is going to take the lead on this.	3413550	1472005489174	1472005489275	 	32
6661	71783	Kay Mann is going to take the lead on this.	Kay Mann is going to take the lead on this.	3413553	1472005489356	1472005489504	l	76
6661	71783	Kay Mann is going to take the lead on this.	Kay Mann is going to take the lead on this.	3413591	1472005489491	1472005489582	e	69
6661	71783	Kay Mann is going to take the lead on this.	Kay Mann is going to take the lead on this.	3413595	1472005489720	1472005489786	a	65
6661	71783	Kay Mann is going to take the lead on this.	Kay Mann is going to take the lead on this.	3413600	1472005490219	1472005490344	d	68
6661	71783	Kay Mann is going to take the lead on this.	Kay Mann is going to take the lead on this.	3413603	1472005490447	1472005490558	 	32
6661	71783	Kay Mann is going to take the lead on this.	Kay Mann is going to take the lead on this.	3413608	1472005490569	1472005490738	o	79
6661	71783	Kay Mann is going to take the lead on this.	Kay Mann is going to take the lead on this.	3413634	1472005490707	1472005490822	n	78
6661	71783	Kay Mann is going to take the lead on this.	Kay Mann is going to take the lead on this.	3413636	1472005490749	1472005490823	 	32
6661	71783	Kay Mann is going to take the lead on this.	Kay Mann is going to take the lead on this.	3413640	1472005490863	1472005491008	t	84
6661	71783	Kay Mann is going to take the lead on this.	Kay Mann is going to take the lead on this.	3413646	1472005490993	1472005491118	h	72
6661	71783	Kay Mann is going to take the lead on this.	Kay Mann is going to take the lead on this.	3413651	1472005491199	1472005491367	i	73
6661	71783	Kay Mann is going to take the lead on this.	Kay Mann is going to take the lead on this.	3413656	1472005491466	1472005491566	s	83
6661	71783	Kay Mann is going to take the lead on this.	Kay Mann is going to take the lead on this.	3413738	1472005491634	1472005491730	/	191
6661	71783	Kay Mann is going to take the lead on this.	Kay Mann is going to take the lead on this.	3413739	1472005492346	1472005492465	BKSP	8
6661	71783	Kay Mann is going to take the lead on this.	Kay Mann is going to take the lead on this.	3413740	1472005492596	1472005492726	,	188
6661	71783	Kay Mann is going to take the lead on this.	Kay Mann is going to take the lead on this.	3413741	1472005493266	1472005493427	BKSP	8
6661	71783	Kay Mann is going to take the lead on this.	Kay Mann is going to take the lead on this.	3413743	1472005493474	1472005493628	.	190
6661	71795	What is the shower at Patsy's for?	What is the shower at Patsy's for?	3413890	1472005495522	1472005495745	SHIFT	16
6661	71795	What is the shower at Patsy's for?	What is the shower at Patsy's for?	3413896	1472005495772	1472005495801	SHIFT	16
6661	71795	What is the shower at Patsy's for?	What is the shower at Patsy's for?	3413902	1472005496079	1472005496327	SHIFT	16
6661	71795	What is the shower at Patsy's for?	What is the shower at Patsy's for?	3413907	1472005496199	1472005496338	W	87
6661	71795	What is the shower at Patsy's for?	What is the shower at Patsy's for?	3413914	1472005496616	1472005496764	h	72
6661	71795	What is the shower at Patsy's for?	What is the shower at Patsy's for?	3413918	1472005496980	1472005497134	a	65
6661	71795	What is the shower at Patsy's for?	What is the shower at Patsy's for?	3413922	1472005497113	1472005497232	t	84
6661	71795	What is the shower at Patsy's for?	What is the shower at Patsy's for?	3413928	1472005497533	1472005497634	 	32
6661	71795	What is the shower at Patsy's for?	What is the shower at Patsy's for?	3413953	1472005497699	1472005497882	i	73
6661	71795	What is the shower at Patsy's for?	What is the shower at Patsy's for?	3413955	1472005497869	1472005497996	s	83
6661	71795	What is the shower at Patsy's for?	What is the shower at Patsy's for?	3413958	1472005498006	1472005498117	 	32
6661	71795	What is the shower at Patsy's for?	What is the shower at Patsy's for?	3413961	1472005498163	1472005498299	t	84
6661	71795	What is the shower at Patsy's for?	What is the shower at Patsy's for?	3413966	1472005498319	1472005498454	h	72
6661	71795	What is the shower at Patsy's for?	What is the shower at Patsy's for?	3414009	1472005498427	1472005498533	e	69
6661	71795	What is the shower at Patsy's for?	What is the shower at Patsy's for?	3414013	1472005498521	1472005498626	 	32
6661	71795	What is the shower at Patsy's for?	What is the shower at Patsy's for?	3414017	1472005498697	1472005498826	s	83
6661	71795	What is the shower at Patsy's for?	What is the shower at Patsy's for?	3414022	1472005498830	1472005498931	h	72
6661	71795	What is the shower at Patsy's for?	What is the shower at Patsy's for?	3414026	1472005498998	1472005499152	o	79
6661	71795	What is the shower at Patsy's for?	What is the shower at Patsy's for?	3414030	1472005499630	1472005499768	w	87
6661	71795	What is the shower at Patsy's for?	What is the shower at Patsy's for?	3414081	1472005499865	1472005500005	e	69
6661	71795	What is the shower at Patsy's for?	What is the shower at Patsy's for?	3414083	1472005500244	1472005500368	r	82
6661	71795	What is the shower at Patsy's for?	What is the shower at Patsy's for?	3414085	1472005500438	1472005500522	 	32
6661	71795	What is the shower at Patsy's for?	What is the shower at Patsy's for?	3414088	1472005500820	1472005500951	a	65
6661	71795	What is the shower at Patsy's for?	What is the shower at Patsy's for?	3414090	1472005500994	1472005501081	t	84
6661	71795	What is the shower at Patsy's for?	What is the shower at Patsy's for?	3414109	1472005501147	1472005501248	 	32
6661	71795	What is the shower at Patsy's for?	What is the shower at Patsy's for?	3414111	1472005501222	1472005501429	SHIFT	16
6661	71795	What is the shower at Patsy's for?	What is the shower at Patsy's for?	3414114	1472005501341	1472005501440	P	80
6661	71795	What is the shower at Patsy's for?	What is the shower at Patsy's for?	3414116	1472005501561	1472005501702	a	65
6661	71795	What is the shower at Patsy's for?	What is the shower at Patsy's for?	3414118	1472005501714	1472005501814	t	84
6661	71795	What is the shower at Patsy's for?	What is the shower at Patsy's for?	3414121	1472005501886	1472005501991	s	83
6661	71795	What is the shower at Patsy's for?	What is the shower at Patsy's for?	3414190	1472005502375	1472005502474	y	89
6661	71795	What is the shower at Patsy's for?	What is the shower at Patsy's for?	3414193	1472005502696	1472005502825	'	222
6661	71795	What is the shower at Patsy's for?	What is the shower at Patsy's for?	3414196	1472005502898	1472005503023	s	83
6661	71795	What is the shower at Patsy's for?	What is the shower at Patsy's for?	3414199	1472005503186	1472005503274	 	32
6661	71795	What is the shower at Patsy's for?	What is the shower at Patsy's for?	3414203	1472005503717	1472005503872	f	70
6661	71795	What is the shower at Patsy's for?	What is the shower at Patsy's for?	3414243	1472005503854	1472005504021	o	79
6661	71795	What is the shower at Patsy's for?	What is the shower at Patsy's for?	3414245	1472005504008	1472005504109	r	82
6661	71795	What is the shower at Patsy's for?	What is the shower at Patsy's for?	3414250	1472005504249	1472005504417	SHIFT	16
6661	71795	What is the shower at Patsy's for?	What is the shower at Patsy's for?	3414248	1472005504301	1472005504395	?	191
