PARTICIPANT_ID	TEST_SECTION_ID	SENTENCE	USER_INPUT	KEYSTROKE_ID	PRESS_TIME	RELEASE_TIME	LETTER	KEYCODE
6804	73187	Are you in a good mood?	Are you in a good mood…	3480818	1472007039521	1472007039622	SHIFT	16
6804	73187	Are you in a good mood?	Are you in a good mood…	3480816	1472007039552	1472007039610	A	65
6804	73187	Are you in a good mood?	Are you in a good mood…	3480820	1472007039694	1472007039804	r	82
6804	73187	Are you in a good mood?	Are you in a good mood…	3480822	1472007039740	1472007039836	e	69
6804	73187	Are you in a good mood?	Are you in a good mood…	3480824	1472007039832	1472007039914	 	32
6804	73187	Are you in a good mood?	Are you in a good mood…	3480827	1472007039946	1472007040034	y	89
6804	73187	Are you in a good mood?	Are you in a good mood…	3480842	1472007040034	1472007040090	o	79
6804	73187	Are you in a good mood?	Are you in a good mood…	3480843	1472007040126	1472007040190	u	85
6804	73187	Are you in a good mood?	Are you in a good mood…	3480844	1472007040248	1472007040318	 	32
6804	73187	Are you in a good mood?	Are you in a good mood…	3480845	1472007040390	1472007040482	i	73
6804	73187	Are you in a good mood?	Are you in a good mood…	3480846	1472007040478	1472007040538	n	78
6804	73187	Are you in a good mood?	Are you in a good mood…	3480847	1472007040624	1472007040676	a	32
6804	73187	Are you in a good mood?	Are you in a good mood…	3480855	1472007040790	1472007040852	 	32
6804	73187	Are you in a good mood?	Are you in a good mood…	3480860	1472007040890	1472007040955	g	71
6804	73187	Are you in a good mood?	Are you in a good mood…	3480864	1472007040986	1472007041038	o	79
6804	73187	Are you in a good mood?	Are you in a good mood…	3480866	1472007041106	1472007041159	o	79
6804	73187	Are you in a good mood?	Are you in a good mood…	3480869	1472007041171	1472007041235	d	68
6804	73187	Are you in a good mood?	Are you in a good mood…	3480878	1472007041281	1472007041341	 	32
6804	73187	Are you in a good mood?	Are you in a good mood…	3480880	1472007041444	1472007041480	m	77
6804	73187	Are you in a good mood?	Are you in a good mood…	3480881	1472007041730	1472007041766	o	79
6804	73187	Are you in a good mood?	Are you in a good mood…	3480883	1472007041850	1472007041910	o	79
6804	73187	Are you in a good mood?	Are you in a good mood…	3480887	1472007041958	1472007042035	d	68
6804	73187	Are you in a good mood?	Are you in a good mood…	3480930	1472007042144	1472007042516	SHIFT	16
6804	73187	Are you in a good mood?	Are you in a good mood…	3480929	1472007042273	1472007042305	!	49
6804	73187	Are you in a good mood?	Are you in a good mood…	3480932	1472007042748	1472007042792	BKSP	8
6804	73187	Are you in a good mood?	Are you in a good mood…	3480934	1472007042931	1472007043046	SHIFT	16
6804	73187	Are you in a good mood?	Are you in a good mood…	3480936	1472007042991	1472007043082	…	191
6804	73191	There is a 90 percent chance he is going to win.	There is a 90 percent chance he is going to win	3481010	1472007045917	1472007046009	SHIFT	16
6804	73191	There is a 90 percent chance he is going to win.	There is a 90 percent chance he is going to win	3481013	1472007045953	1472007046017	T	84
6804	73191	There is a 90 percent chance he is going to win.	There is a 90 percent chance he is going to win	3481018	1472007046112	1472007046167	h	72
6804	73191	There is a 90 percent chance he is going to win.	There is a 90 percent chance he is going to win	3481020	1472007046238	1472007046328	e	69
6804	73191	There is a 90 percent chance he is going to win.	There is a 90 percent chance he is going to win	3481022	1472007046300	1472007046424	r	82
6804	73191	There is a 90 percent chance he is going to win.	There is a 90 percent chance he is going to win	3481037	1472007046420	1472007046472	e	69
6804	73191	There is a 90 percent chance he is going to win.	There is a 90 percent chance he is going to win	3481038	1472007046488	1472007046585	 	32
6804	73191	There is a 90 percent chance he is going to win.	There is a 90 percent chance he is going to win	3481039	1472007046689	1472007046755	i	73
6804	73191	There is a 90 percent chance he is going to win.	There is a 90 percent chance he is going to win	3481040	1472007046771	1472007046837	s	83
6804	73191	There is a 90 percent chance he is going to win.	There is a 90 percent chance he is going to win	3481041	1472007046856	1472007046922	 	32
6804	73191	There is a 90 percent chance he is going to win.	There is a 90 percent chance he is going to win	3481043	1472007047057	1472007047111	a	65
6804	73191	There is a 90 percent chance he is going to win.	There is a 90 percent chance he is going to win	3481079	1472007047182	1472007047236	 	32
6804	73191	There is a 90 percent chance he is going to win.	There is a 90 percent chance he is going to win	3481082	1472007047658	1472007047754	9	57
6804	73191	There is a 90 percent chance he is going to win.	There is a 90 percent chance he is going to win	3481085	1472007047732	1472007047817	0	48
6804	73191	There is a 90 percent chance he is going to win.	There is a 90 percent chance he is going to win	3481086	1472007047934	1472007047990	 	32
6804	73191	There is a 90 percent chance he is going to win.	There is a 90 percent chance he is going to win	3481088	1472007048128	1472007048218	e	69
6804	73191	There is a 90 percent chance he is going to win.	There is a 90 percent chance he is going to win	3481132	1472007048194	1472007048263	r	82
6804	73191	There is a 90 percent chance he is going to win.	There is a 90 percent chance he is going to win	3481135	1472007048362	1472007048467	c	67
6804	73191	There is a 90 percent chance he is going to win.	There is a 90 percent chance he is going to win	3481139	1472007048519	1472007048588	e	69
6804	73191	There is a 90 percent chance he is going to win.	There is a 90 percent chance he is going to win	3481141	1472007048628	1472007048680	n	78
6804	73191	There is a 90 percent chance he is going to win.	There is a 90 percent chance he is going to win	3481144	1472007048969	1472007049019	BKSP	8
6804	73191	There is a 90 percent chance he is going to win.	There is a 90 percent chance he is going to win	3481147	1472007049096	1472007049144	BKSP	8
6804	73191	There is a 90 percent chance he is going to win.	There is a 90 percent chance he is going to win	3481150	1472007049221	1472007049272	BKSP	8
6804	73191	There is a 90 percent chance he is going to win.	There is a 90 percent chance he is going to win	3481154	1472007049348	1472007049400	BKSP	8
6804	73191	There is a 90 percent chance he is going to win.	There is a 90 percent chance he is going to win	3481156	1472007049481	1472007049546	BKSP	8
6804	73191	There is a 90 percent chance he is going to win.	There is a 90 percent chance he is going to win	3481158	1472007049877	1472007049938	p	80
6804	73191	There is a 90 percent chance he is going to win.	There is a 90 percent chance he is going to win	3481159	1472007049946	1472007050061	e	69
6804	73191	There is a 90 percent chance he is going to win.	There is a 90 percent chance he is going to win	3481162	1472007050013	1472007050089	r	82
6804	73191	There is a 90 percent chance he is going to win.	There is a 90 percent chance he is going to win	3481164	1472007050211	1472007050297	c	67
6804	73191	There is a 90 percent chance he is going to win.	There is a 90 percent chance he is going to win	3481166	1472007050342	1472007050417	e	69
6804	73191	There is a 90 percent chance he is going to win.	There is a 90 percent chance he is going to win	3481170	1472007050429	1472007050477	n	78
6804	73191	There is a 90 percent chance he is going to win.	There is a 90 percent chance he is going to win	3481172	1472007050534	1472007050591	t	84
6804	73191	There is a 90 percent chance he is going to win.	There is a 90 percent chance he is going to win	3481174	1472007050607	1472007050659	 	32
6804	73191	There is a 90 percent chance he is going to win.	There is a 90 percent chance he is going to win	3481201	1472007050793	1472007050891	c	67
6804	73191	There is a 90 percent chance he is going to win.	There is a 90 percent chance he is going to win	3481203	1472007050916	1472007050975	h	72
6804	73191	There is a 90 percent chance he is going to win.	There is a 90 percent chance he is going to win	3481206	1472007051155	1472007051216	n	78
6804	73191	There is a 90 percent chance he is going to win.	There is a 90 percent chance he is going to win	3481209	1472007051294	1472007051338	g	71
6804	73191	There is a 90 percent chance he is going to win.	There is a 90 percent chance he is going to win	3481211	1472007051639	1472007051680	BKSP	8
6804	73191	There is a 90 percent chance he is going to win.	There is a 90 percent chance he is going to win	3481213	1472007051757	1472007051821	BKSP	8
6804	73191	There is a 90 percent chance he is going to win.	There is a 90 percent chance he is going to win	3481215	1472007051890	1472007051968	a	65
6804	73191	There is a 90 percent chance he is going to win.	There is a 90 percent chance he is going to win	3481238	1472007052040	1472007052086	n	78
6804	73191	There is a 90 percent chance he is going to win.	There is a 90 percent chance he is going to win	3481240	1472007052393	1472007052511	c	67
6804	73191	There is a 90 percent chance he is going to win.	There is a 90 percent chance he is going to win	3481242	1472007052569	1472007052629	e	69
6804	73191	There is a 90 percent chance he is going to win.	There is a 90 percent chance he is going to win	3481244	1472007052639	1472007052712	 	32
6804	73191	There is a 90 percent chance he is going to win.	There is a 90 percent chance he is going to win	3481246	1472007052872	1472007052948	h	72
6804	73191	There is a 90 percent chance he is going to win.	There is a 90 percent chance he is going to win	3481252	1472007053085	1472007053166	e	69
6804	73191	There is a 90 percent chance he is going to win.	There is a 90 percent chance he is going to win	3481253	1472007053249	1472007053333	 	32
6804	73191	There is a 90 percent chance he is going to win.	There is a 90 percent chance he is going to win	3481254	1472007053444	1472007053484	i	73
6804	73191	There is a 90 percent chance he is going to win.	There is a 90 percent chance he is going to win	3481255	1472007053542	1472007053608	s	83
6804	73191	There is a 90 percent chance he is going to win.	There is a 90 percent chance he is going to win	3481256	1472007053621	1472007053689	 	32
6804	73191	There is a 90 percent chance he is going to win.	There is a 90 percent chance he is going to win	3481277	1472007053805	1472007053880	g	71
6804	73191	There is a 90 percent chance he is going to win.	There is a 90 percent chance he is going to win	3481280	1472007053876	1472007054035	o	79
6804	73191	There is a 90 percent chance he is going to win.	There is a 90 percent chance he is going to win	3481283	1472007054000	1472007054078	i	73
6804	73191	There is a 90 percent chance he is going to win.	There is a 90 percent chance he is going to win	3481287	1472007054176	1472007054235	n	78
6804	73191	There is a 90 percent chance he is going to win.	There is a 90 percent chance he is going to win	3481291	1472007054272	1472007054344	g	71
6804	73191	There is a 90 percent chance he is going to win.	There is a 90 percent chance he is going to win	3481316	1472007054403	1472007054469	 	32
6804	73191	There is a 90 percent chance he is going to win.	There is a 90 percent chance he is going to win	3481320	1472007054518	1472007054588	t	84
6804	73191	There is a 90 percent chance he is going to win.	There is a 90 percent chance he is going to win	3481322	1472007054584	1472007054650	o	79
6804	73191	There is a 90 percent chance he is going to win.	There is a 90 percent chance he is going to win	3481324	1472007054751	1472007054830	 	32
6804	73191	There is a 90 percent chance he is going to win.	There is a 90 percent chance he is going to win	3481325	1472007054993	1472007055100	w	87
6804	73191	There is a 90 percent chance he is going to win.	There is a 90 percent chance he is going to win	3481327	1472007055096	1472007055220	i	73
6804	73191	There is a 90 percent chance he is going to win.	There is a 90 percent chance he is going to win	3481330	1472007055208	1472007055310	n	78
6804	73198	The area has an Armenian population but falls within Azerbajian.	The area has an Armenian population but falls within Azerbajian	3481512	1472007061486	1472007061578	SHIFT	16
6804	73198	The area has an Armenian population but falls within Azerbajian.	The area has an Armenian population but falls within Azerbajian	3481515	1472007061514	1472007061594	T	84
6804	73198	The area has an Armenian population but falls within Azerbajian.	The area has an Armenian population but falls within Azerbajian	3481518	1472007061682	1472007061738	h	72
6804	73198	The area has an Armenian population but falls within Azerbajian.	The area has an Armenian population but falls within Azerbajian	3481524	1472007061854	1472007061934	e	69
6804	73198	The area has an Armenian population but falls within Azerbajian.	The area has an Armenian population but falls within Azerbajian	3481529	1472007061958	1472007062022	 	32
6804	73198	The area has an Armenian population but falls within Azerbajian.	The area has an Armenian population but falls within Azerbajian	3481537	1472007062062	1472007062134	a	65
6804	73198	The area has an Armenian population but falls within Azerbajian.	The area has an Armenian population but falls within Azerbajian	3481558	1472007062223	1472007062330	r	82
6804	73198	The area has an Armenian population but falls within Azerbajian.	The area has an Armenian population but falls within Azerbajian	3481560	1472007062296	1472007062431	e	69
6804	73198	The area has an Armenian population but falls within Azerbajian.	The area has an Armenian population but falls within Azerbajian	3481563	1472007062570	1472007062642	a	65
6804	73198	The area has an Armenian population but falls within Azerbajian.	The area has an Armenian population but falls within Azerbajian	3481565	1472007062677	1472007062743	 	32
6804	73198	The area has an Armenian population but falls within Azerbajian.	The area has an Armenian population but falls within Azerbajian	3481566	1472007062863	1472007062923	h	72
6804	73198	The area has an Armenian population but falls within Azerbajian.	The area has an Armenian population but falls within Azerbajian	3481583	1472007062919	1472007063038	a	65
6804	73198	The area has an Armenian population but falls within Azerbajian.	The area has an Armenian population but falls within Azerbajian	3481585	1472007063000	1472007063086	s	83
6804	73198	The area has an Armenian population but falls within Azerbajian.	The area has an Armenian population but falls within Azerbajian	3481588	1472007063118	1472007063180	 	32
6804	73198	The area has an Armenian population but falls within Azerbajian.	The area has an Armenian population but falls within Azerbajian	3481590	1472007063216	1472007063284	a	65
6804	73198	The area has an Armenian population but falls within Azerbajian.	The area has an Armenian population but falls within Azerbajian	3481592	1472007063348	1472007063400	n	78
6804	73198	The area has an Armenian population but falls within Azerbajian.	The area has an Armenian population but falls within Azerbajian	3481594	1472007063492	1472007063556	 	32
6804	73198	The area has an Armenian population but falls within Azerbajian.	The area has an Armenian population but falls within Azerbajian	3481623	1472007063664	1472007063840	SHIFT	16
6804	73198	The area has an Armenian population but falls within Azerbajian.	The area has an Armenian population but falls within Azerbajian	3481622	1472007063744	1472007063824	A	65
6804	73198	The area has an Armenian population but falls within Azerbajian.	The area has an Armenian population but falls within Azerbajian	3481624	1472007063936	1472007064000	r	82
6804	73198	The area has an Armenian population but falls within Azerbajian.	The area has an Armenian population but falls within Azerbajian	3481626	1472007064064	1472007064152	m	77
6804	73198	The area has an Armenian population but falls within Azerbajian.	The area has an Armenian population but falls within Azerbajian	3481628	1472007064208	1472007064296	e	69
6804	73198	The area has an Armenian population but falls within Azerbajian.	The area has an Armenian population but falls within Azerbajian	3481630	1472007064364	1472007064516	n	78
6804	73198	The area has an Armenian population but falls within Azerbajian.	The area has an Armenian population but falls within Azerbajian	3481681	1472007064528	1472007064568	i	73
6804	73198	The area has an Armenian population but falls within Azerbajian.	The area has an Armenian population but falls within Azerbajian	3481684	1472007064636	1472007064708	a	65
6804	73198	The area has an Armenian population but falls within Azerbajian.	The area has an Armenian population but falls within Azerbajian	3481687	1472007065063	1472007065101	n	78
6804	73198	The area has an Armenian population but falls within Azerbajian.	The area has an Armenian population but falls within Azerbajian	3481690	1472007065284	1472007065392	 	32
6804	73198	The area has an Armenian population but falls within Azerbajian.	The area has an Armenian population but falls within Azerbajian	3481693	1472007065752	1472007065796	BKSP	8
6804	73198	The area has an Armenian population but falls within Azerbajian.	The area has an Armenian population but falls within Azerbajian	3481695	1472007065871	1472007065924	BKSP	8
6804	73198	The area has an Armenian population but falls within Azerbajian.	The area has an Armenian population but falls within Azerbajian	3481696	1472007066387	1472007066425	n	78
6804	73198	The area has an Armenian population but falls within Azerbajian.	The area has an Armenian population but falls within Azerbajian	3481721	1472007066533	1472007066594	 	32
6804	73198	The area has an Armenian population but falls within Azerbajian.	The area has an Armenian population but falls within Azerbajian	3481727	1472007066705	1472007066782	p	80
6804	73198	The area has an Armenian population but falls within Azerbajian.	The area has an Armenian population but falls within Azerbajian	3481731	1472007066770	1472007066854	o	79
6804	73198	The area has an Armenian population but falls within Azerbajian.	The area has an Armenian population but falls within Azerbajian	3481734	1472007067030	1472007067092	p	80
6804	73198	The area has an Armenian population but falls within Azerbajian.	The area has an Armenian population but falls within Azerbajian	3481736	1472007067278	1472007067330	u	85
6804	73198	The area has an Armenian population but falls within Azerbajian.	The area has an Armenian population but falls within Azerbajian	3481745	1472007067427	1472007067490	l	76
6804	73198	The area has an Armenian population but falls within Azerbajian.	The area has an Armenian population but falls within Azerbajian	3481747	1472007067478	1472007067548	a	65
6804	73198	The area has an Armenian population but falls within Azerbajian.	The area has an Armenian population but falls within Azerbajian	3481751	1472007067643	1472007067696	i	84
6804	73198	The area has an Armenian population but falls within Azerbajian.	The area has an Armenian population but falls within Azerbajian	3481795	1472007067745	1472007067824	o	79
6804	73198	The area has an Armenian population but falls within Azerbajian.	The area has an Armenian population but falls within Azerbajian	3481797	1472007067901	1472007067967	n	78
6804	73198	The area has an Armenian population but falls within Azerbajian.	The area has an Armenian population but falls within Azerbajian	3481799	1472007068084	1472007068145	 	32
6804	73198	The area has an Armenian population but falls within Azerbajian.	The area has an Armenian population but falls within Azerbajian	3481800	1472007068317	1472007068395	b	66
6804	73198	The area has an Armenian population but falls within Azerbajian.	The area has an Armenian population but falls within Azerbajian	3481801	1472007068467	1472007068530	u	85
6804	73198	The area has an Armenian population but falls within Azerbajian.	The area has an Armenian population but falls within Azerbajian	3481803	1472007068583	1472007068655	t	84
6804	73198	The area has an Armenian population but falls within Azerbajian.	The area has an Armenian population but falls within Azerbajian	3481819	1472007068683	1472007068749	 	32
6804	73198	The area has an Armenian population but falls within Azerbajian.	The area has an Armenian population but falls within Azerbajian	3481822	1472007068844	1472007068925	f	70
6804	73198	The area has an Armenian population but falls within Azerbajian.	The area has an Armenian population but falls within Azerbajian	3481825	1472007069011	1472007069081	a	65
6804	73198	The area has an Armenian population but falls within Azerbajian.	The area has an Armenian population but falls within Azerbajian	3481829	1472007069057	1472007069111	l	76
6804	73198	The area has an Armenian population but falls within Azerbajian.	The area has an Armenian population but falls within Azerbajian	3481833	1472007069179	1472007069235	l	76
6804	73198	The area has an Armenian population but falls within Azerbajian.	The area has an Armenian population but falls within Azerbajian	3481858	1472007069280	1472007069359	s	83
6804	73198	The area has an Armenian population but falls within Azerbajian.	The area has an Armenian population but falls within Azerbajian	3481861	1472007069371	1472007069446	 	32
6804	73198	The area has an Armenian population but falls within Azerbajian.	The area has an Armenian population but falls within Azerbajian	3481864	1472007069496	1472007069582	w	87
6804	73198	The area has an Armenian population but falls within Azerbajian.	The area has an Armenian population but falls within Azerbajian	3481867	1472007069586	1472007069653	i	73
6804	73198	The area has an Armenian population but falls within Azerbajian.	The area has an Armenian population but falls within Azerbajian	3481869	1472007069735	1472007069812	t	84
6804	73198	The area has an Armenian population but falls within Azerbajian.	The area has an Armenian population but falls within Azerbajian	3481878	1472007069808	1472007069867	h	72
6804	73198	The area has an Armenian population but falls within Azerbajian.	The area has an Armenian population but falls within Azerbajian	3481880	1472007069961	1472007070049	i	73
6804	73198	The area has an Armenian population but falls within Azerbajian.	The area has an Armenian population but falls within Azerbajian	3481883	1472007070089	1472007070168	n	78
6804	73198	The area has an Armenian population but falls within Azerbajian.	The area has an Armenian population but falls within Azerbajian	3481889	1472007070255	1472007070331	 	32
6804	73198	The area has an Armenian population but falls within Azerbajian.	The area has an Armenian population but falls within Azerbajian	3481897	1472007070432	1472007070575	SHIFT	16
6804	73198	The area has an Armenian population but falls within Azerbajian.	The area has an Armenian population but falls within Azerbajian	3481894	1472007070482	1472007070558	A	65
6804	73198	The area has an Armenian population but falls within Azerbajian.	The area has an Armenian population but falls within Azerbajian	3481903	1472007070687	1472007070762	z	90
6804	73198	The area has an Armenian population but falls within Azerbajian.	The area has an Armenian population but falls within Azerbajian	3481938	1472007070907	1472007071027	e	69
6804	73198	The area has an Armenian population but falls within Azerbajian.	The area has an Armenian population but falls within Azerbajian	3481940	1472007070993	1472007071084	r	82
6804	73198	The area has an Armenian population but falls within Azerbajian.	The area has an Armenian population but falls within Azerbajian	3481942	1472007071267	1472007071333	b	66
6804	73198	The area has an Armenian population but falls within Azerbajian.	The area has an Armenian population but falls within Azerbajian	3481944	1472007071695	1472007071741	a	65
6804	73198	The area has an Armenian population but falls within Azerbajian.	The area has an Armenian population but falls within Azerbajian	3481946	1472007071970	1472007072041	j	74
6804	73198	The area has an Armenian population but falls within Azerbajian.	The area has an Armenian population but falls within Azerbajian	3481961	1472007072264	1472007072326	i	73
6804	73198	The area has an Armenian population but falls within Azerbajian.	The area has an Armenian population but falls within Azerbajian	3481962	1472007072380	1472007072444	a	65
6804	73198	The area has an Armenian population but falls within Azerbajian.	The area has an Armenian population but falls within Azerbajian	3481963	1472007072473	1472007072531	n	78
6804	73209	He is suffering from a strained left shoulder.	He is suffering from a strained left shoulder	3482106	1472007076279	1472007076377	SHIFT	16
6804	73209	He is suffering from a strained left shoulder.	He is suffering from a strained left shoulder	3482105	1472007076301	1472007076365	H	72
6804	73209	He is suffering from a strained left shoulder.	He is suffering from a strained left shoulder	3482110	1472007076463	1472007076532	e	69
6804	73209	He is suffering from a strained left shoulder.	He is suffering from a strained left shoulder	3482114	1472007076540	1472007076605	 	32
6804	73209	He is suffering from a strained left shoulder.	He is suffering from a strained left shoulder	3482118	1472007076680	1472007076740	i	73
6804	73209	He is suffering from a strained left shoulder.	He is suffering from a strained left shoulder	3482139	1472007076728	1472007076787	s	83
6804	73209	He is suffering from a strained left shoulder.	He is suffering from a strained left shoulder	3482141	1472007076834	1472007076925	 	32
6804	73209	He is suffering from a strained left shoulder.	He is suffering from a strained left shoulder	3482144	1472007076958	1472007077031	s	83
6804	73209	He is suffering from a strained left shoulder.	He is suffering from a strained left shoulder	3482147	1472007077103	1472007077159	u	85
6804	73209	He is suffering from a strained left shoulder.	He is suffering from a strained left shoulder	3482151	1472007077259	1472007077315	f	70
6804	73209	He is suffering from a strained left shoulder.	He is suffering from a strained left shoulder	3482154	1472007077394	1472007077445	f	70
6804	73209	He is suffering from a strained left shoulder.	He is suffering from a strained left shoulder	3482179	1472007077571	1472007077677	e	69
6804	73209	He is suffering from a strained left shoulder.	He is suffering from a strained left shoulder	3482180	1472007077693	1472007077778	r	82
6804	73209	He is suffering from a strained left shoulder.	He is suffering from a strained left shoulder	3482184	1472007077856	1472007077950	i	73
6804	73209	He is suffering from a strained left shoulder.	He is suffering from a strained left shoulder	3482187	1472007077986	1472007078064	n	78
6804	73209	He is suffering from a strained left shoulder.	He is suffering from a strained left shoulder	3482192	1472007078098	1472007078169	g	71
6804	73209	He is suffering from a strained left shoulder.	He is suffering from a strained left shoulder	3482216	1472007078169	1472007078237	 	32
6804	73209	He is suffering from a strained left shoulder.	He is suffering from a strained left shoulder	3482219	1472007078286	1472007078379	f	70
6804	73209	He is suffering from a strained left shoulder.	He is suffering from a strained left shoulder	3482220	1472007078447	1472007078532	r	82
6804	73209	He is suffering from a strained left shoulder.	He is suffering from a strained left shoulder	3482221	1472007078472	1472007078572	o	79
6804	73209	He is suffering from a strained left shoulder.	He is suffering from a strained left shoulder	3482222	1472007078544	1472007078641	m	77
6804	73209	He is suffering from a strained left shoulder.	He is suffering from a strained left shoulder	3482223	1472007078735	1472007078815	 	32
6804	73209	He is suffering from a strained left shoulder.	He is suffering from a strained left shoulder	3482261	1472007079043	1472007079127	 	32
6804	73209	He is suffering from a strained left shoulder.	He is suffering from a strained left shoulder	3482264	1472007079388	1472007079429	BKSP	8
6804	73209	He is suffering from a strained left shoulder.	He is suffering from a strained left shoulder	3482266	1472007079469	1472007079535	a	65
6804	73209	He is suffering from a strained left shoulder.	He is suffering from a strained left shoulder	3482268	1472007079655	1472007079720	 	32
6804	73209	He is suffering from a strained left shoulder.	He is suffering from a strained left shoulder	3482270	1472007079739	1472007079820	s	83
6804	73209	He is suffering from a strained left shoulder.	He is suffering from a strained left shoulder	3482273	1472007079940	1472007080044	t	84
6804	73209	He is suffering from a strained left shoulder.	He is suffering from a strained left shoulder	3482293	1472007080010	1472007080107	r	82
6804	73209	He is suffering from a strained left shoulder.	He is suffering from a strained left shoulder	3482295	1472007080278	1472007080343	a	65
6804	73209	He is suffering from a strained left shoulder.	He is suffering from a strained left shoulder	3482299	1472007080474	1472007080542	i	73
6804	73209	He is suffering from a strained left shoulder.	He is suffering from a strained left shoulder	3482302	1472007080609	1472007080683	n	78
6804	73209	He is suffering from a strained left shoulder.	He is suffering from a strained left shoulder	3482305	1472007080843	1472007080914	e	69
6804	73209	He is suffering from a strained left shoulder.	He is suffering from a strained left shoulder	3482308	1472007081031	1472007081120	d	68
6804	73209	He is suffering from a strained left shoulder.	He is suffering from a strained left shoulder	3482314	1472007081088	1472007081156	 	32
6804	73209	He is suffering from a strained left shoulder.	He is suffering from a strained left shoulder	3482315	1472007081230	1472007081300	l	76
6804	73209	He is suffering from a strained left shoulder.	He is suffering from a strained left shoulder	3482316	1472007081296	1472007081375	e	69
6804	73209	He is suffering from a strained left shoulder.	He is suffering from a strained left shoulder	3482318	1472007081409	1472007081504	f	70
6804	73209	He is suffering from a strained left shoulder.	He is suffering from a strained left shoulder	3482320	1472007081607	1472007081678	t	84
6804	73209	He is suffering from a strained left shoulder.	He is suffering from a strained left shoulder	3482340	1472007081674	1472007081758	 	32
6804	73209	He is suffering from a strained left shoulder.	He is suffering from a strained left shoulder	3482342	1472007081866	1472007081968	s	83
6804	73209	He is suffering from a strained left shoulder.	He is suffering from a strained left shoulder	3482346	1472007082016	1472007082077	h	72
6804	73209	He is suffering from a strained left shoulder.	He is suffering from a strained left shoulder	3482352	1472007082212	1472007082305	u	85
6804	73209	He is suffering from a strained left shoulder.	He is suffering from a strained left shoulder	3482357	1472007082349	1472007082413	l	76
6804	73209	He is suffering from a strained left shoulder.	He is suffering from a strained left shoulder	3482360	1472007082433	1472007082503	d	68
6804	73209	He is suffering from a strained left shoulder.	He is suffering from a strained left shoulder	3482415	1472007082548	1472007082646	e	69
6804	73209	He is suffering from a strained left shoulder.	He is suffering from a strained left shoulder	3482419	1472007082799	1472007082845	BKSP	8
6804	73209	He is suffering from a strained left shoulder.	He is suffering from a strained left shoulder	3482422	1472007082931	1472007082991	BKSP	8
6804	73209	He is suffering from a strained left shoulder.	He is suffering from a strained left shoulder	3482426	1472007083061	1472007083103	BKSP	8
6804	73209	He is suffering from a strained left shoulder.	He is suffering from a strained left shoulder	3482429	1472007083177	1472007083243	BKSP	8
6804	73209	He is suffering from a strained left shoulder.	He is suffering from a strained left shoulder	3482431	1472007083464	1472007083494	o	79
6804	73209	He is suffering from a strained left shoulder.	He is suffering from a strained left shoulder	3482435	1472007083644	1472007083668	u	85
6804	73209	He is suffering from a strained left shoulder.	He is suffering from a strained left shoulder	3482437	1472007084320	1472007084382	l	76
6804	73209	He is suffering from a strained left shoulder.	He is suffering from a strained left shoulder	3482439	1472007084408	1472007084476	d	68
6804	73209	He is suffering from a strained left shoulder.	He is suffering from a strained left shoulder	3482432	1472007084516	1472007084636	e	69
6804	73209	He is suffering from a strained left shoulder.	He is suffering from a strained left shoulder	3482434	1472007084594	1472007084671	r	82
6804	73219	We are about to leave Heaven!	We are about to leave Heaven	3482525	1472007087230	1472007087336	SHIFT	16
6804	73219	We are about to leave Heaven!	We are about to leave Heaven	3482528	1472007087280	1472007087346	W	87
6804	73219	We are about to leave Heaven!	We are about to leave Heaven	3482530	1472007087440	1472007087496	e	69
6804	73219	We are about to leave Heaven!	We are about to leave Heaven	3482533	1472007087532	1472007087595	 	32
6804	73219	We are about to leave Heaven!	We are about to leave Heaven	3482537	1472007087600	1472007087666	a	65
6804	73219	We are about to leave Heaven!	We are about to leave Heaven	3482541	1472007087754	1472007087829	r	82
6804	73219	We are about to leave Heaven!	We are about to leave Heaven	3482586	1472007087803	1472007087858	e	69
6804	73219	We are about to leave Heaven!	We are about to leave Heaven	3482590	1472007087909	1472007087986	 	32
6804	73219	We are about to leave Heaven!	We are about to leave Heaven	3482596	1472007088118	1472007088168	b	66
6804	73219	We are about to leave Heaven!	We are about to leave Heaven	3482601	1472007088277	1472007088361	o	79
6804	73219	We are about to leave Heaven!	We are about to leave Heaven	3482606	1472007088540	1472007088596	BKSP	8
6804	73219	We are about to leave Heaven!	We are about to leave Heaven	3482609	1472007088672	1472007088727	BKSP	8
6804	73219	We are about to leave Heaven!	We are about to leave Heaven	3482612	1472007089011	1472007089102	a	65
6804	73219	We are about to leave Heaven!	We are about to leave Heaven	3482615	1472007089185	1472007089248	b	66
6804	73219	We are about to leave Heaven!	We are about to leave Heaven	3482618	1472007089321	1472007089396	o	79
6804	73219	We are about to leave Heaven!	We are about to leave Heaven	3482623	1472007089413	1472007089483	u	85
6804	73219	We are about to leave Heaven!	We are about to leave Heaven	3482628	1472007089509	1472007089571	t	84
6804	73219	We are about to leave Heaven!	We are about to leave Heaven	3482633	1472007089598	1472007089664	 	32
6804	73219	We are about to leave Heaven!	We are about to leave Heaven	3482638	1472007089688	1472007089767	t	84
6804	73219	We are about to leave Heaven!	We are about to leave Heaven	3482679	1472007089763	1472007089833	o	79
6804	73219	We are about to leave Heaven!	We are about to leave Heaven	3482682	1472007089923	1472007089991	 	32
6804	73219	We are about to leave Heaven!	We are about to leave Heaven	3482685	1472007090247	1472007090348	e	69
6804	73219	We are about to leave Heaven!	We are about to leave Heaven	3482687	1472007090360	1472007090426	a	65
6804	73219	We are about to leave Heaven!	We are about to leave Heaven	3482689	1472007090599	1472007090654	BKSP	8
6804	73219	We are about to leave Heaven!	We are about to leave Heaven	3482691	1472007090720	1472007090793	BKSP	8
6804	73219	We are about to leave Heaven!	We are about to leave Heaven	3482693	1472007090958	1472007091010	l	76
6804	73219	We are about to leave Heaven!	We are about to leave Heaven	3482697	1472007091018	1472007091103	e	69
6804	73219	We are about to leave Heaven!	We are about to leave Heaven	3482706	1472007091077	1472007091159	a	65
6804	73219	We are about to leave Heaven!	We are about to leave Heaven	3482709	1472007091251	1472007091351	v	86
6804	73219	We are about to leave Heaven!	We are about to leave Heaven	3482714	1472007091339	1472007091407	e	69
6804	73219	We are about to leave Heaven!	We are about to leave Heaven	3482718	1472007091393	1472007091463	 	32
6804	73219	We are about to leave Heaven!	We are about to leave Heaven	3482726	1472007091580	1472007091709	SHIFT	16
6804	73219	We are about to leave Heaven!	We are about to leave Heaven	3482731	1472007091661	1472007091729	H	72
6804	73219	We are about to leave Heaven!	We are about to leave Heaven	3482734	1472007091845	1472007091934	e	69
6804	73219	We are about to leave Heaven!	We are about to leave Heaven	3482746	1472007092011	1472007092074	a	65
6804	73219	We are about to leave Heaven!	We are about to leave Heaven	3482748	1472007092111	1472007092178	v	86
6804	73219	We are about to leave Heaven!	We are about to leave Heaven	3482749	1472007092214	1472007092278	e	69
6804	73219	We are about to leave Heaven!	We are about to leave Heaven	3482750	1472007092308	1472007092369	n	78
6804	73223	He has recovered from his ankle injury.	He has recovered from his ankle injury.	3482972	1472007098766	1472007098856	SHIFT	16
6804	73223	He has recovered from his ankle injury.	He has recovered from his ankle injury.	3482973	1472007098795	1472007098856	H	72
6804	73223	He has recovered from his ankle injury.	He has recovered from his ankle injury.	3482974	1472007098978	1472007099045	e	69
6804	73223	He has recovered from his ankle injury.	He has recovered from his ankle injury.	3482976	1472007099077	1472007099119	 	32
6804	73223	He has recovered from his ankle injury.	He has recovered from his ankle injury.	3482978	1472007099233	1472007099289	h	72
6804	73223	He has recovered from his ankle injury.	He has recovered from his ankle injury.	3483003	1472007099277	1472007099373	a	65
6804	73223	He has recovered from his ankle injury.	He has recovered from his ankle injury.	3483006	1472007099347	1472007099427	s	83
6804	73223	He has recovered from his ankle injury.	He has recovered from his ankle injury.	3483007	1472007099445	1472007099518	 	32
6804	73223	He has recovered from his ankle injury.	He has recovered from his ankle injury.	3483010	1472007099657	1472007099744	r	82
6804	73223	He has recovered from his ankle injury.	He has recovered from his ankle injury.	3483012	1472007099752	1472007099812	e	69
6804	73223	He has recovered from his ankle injury.	He has recovered from his ankle injury.	3483014	1472007099953	1472007100025	c	67
6804	73223	He has recovered from his ankle injury.	He has recovered from his ankle injury.	3483060	1472007100231	1472007100300	v	86
6804	73223	He has recovered from his ankle injury.	He has recovered from his ankle injury.	3483061	1472007100350	1472007100413	e	69
6804	73223	He has recovered from his ankle injury.	He has recovered from his ankle injury.	3483063	1472007100754	1472007100806	BKSP	8
6804	73223	He has recovered from his ankle injury.	He has recovered from his ankle injury.	3483064	1472007100889	1472007100952	BKSP	8
6804	73223	He has recovered from his ankle injury.	He has recovered from his ankle injury.	3483066	1472007101019	1472007101077	BKSP	8
6804	73223	He has recovered from his ankle injury.	He has recovered from his ankle injury.	3483067	1472007101594	1472007101657	c	67
6804	73223	He has recovered from his ankle injury.	He has recovered from his ankle injury.	3483070	1472007101723	1472007101770	o	79
6804	73223	He has recovered from his ankle injury.	He has recovered from his ankle injury.	3483072	1472007101841	1472007101914	v	86
6804	73223	He has recovered from his ankle injury.	He has recovered from his ankle injury.	3483088	1472007101978	1472007102057	e	69
6804	73223	He has recovered from his ankle injury.	He has recovered from his ankle injury.	3483089	1472007102037	1472007102159	r	82
6804	73223	He has recovered from his ankle injury.	He has recovered from his ankle injury.	3483090	1472007102155	1472007102197	e	69
6804	73223	He has recovered from his ankle injury.	He has recovered from his ankle injury.	3483092	1472007102305	1472007102385	d	68
6804	73223	He has recovered from his ankle injury.	He has recovered from his ankle injury.	3483094	1472007102480	1472007102553	 	32
6804	73223	He has recovered from his ankle injury.	He has recovered from his ankle injury.	3483113	1472007102604	1472007102684	f	70
6804	73223	He has recovered from his ankle injury.	He has recovered from his ankle injury.	3483116	1472007102760	1472007102829	r	82
6804	73223	He has recovered from his ankle injury.	He has recovered from his ankle injury.	3483120	1472007102805	1472007102903	o	79
6804	73223	He has recovered from his ankle injury.	He has recovered from his ankle injury.	3483124	1472007102879	1472007102962	m	77
6804	73223	He has recovered from his ankle injury.	He has recovered from his ankle injury.	3483128	1472007103056	1472007103133	 	32
6804	73223	He has recovered from his ankle injury.	He has recovered from his ankle injury.	3483144	1472007103244	1472007103312	h	72
6804	73223	He has recovered from his ankle injury.	He has recovered from his ankle injury.	3483148	1472007103337	1472007103416	i	73
6804	73223	He has recovered from his ankle injury.	He has recovered from his ankle injury.	3483151	1472007103428	1472007103496	s	83
6804	73223	He has recovered from his ankle injury.	He has recovered from his ankle injury.	3483154	1472007103518	1472007103586	 	32
6804	73223	He has recovered from his ankle injury.	He has recovered from his ankle injury.	3483157	1472007103622	1472007103692	a	65
6804	73223	He has recovered from his ankle injury.	He has recovered from his ankle injury.	3483190	1472007103725	1472007103772	n	78
6804	73223	He has recovered from his ankle injury.	He has recovered from his ankle injury.	3483191	1472007103932	1472007104004	k	75
6804	73223	He has recovered from his ankle injury.	He has recovered from his ankle injury.	3483193	1472007104122	1472007104184	l	76
6804	73223	He has recovered from his ankle injury.	He has recovered from his ankle injury.	3483195	1472007104224	1472007104287	e	69
6804	73223	He has recovered from his ankle injury.	He has recovered from his ankle injury.	3483197	1472007104339	1472007104399	 	32
6804	73223	He has recovered from his ankle injury.	He has recovered from his ankle injury.	3483233	1472007104505	1472007104569	i	73
6804	73223	He has recovered from his ankle injury.	He has recovered from his ankle injury.	3483236	1472007104614	1472007104689	n	78
6804	73223	He has recovered from his ankle injury.	He has recovered from his ankle injury.	3483239	1472007104803	1472007104863	j	74
6804	73223	He has recovered from his ankle injury.	He has recovered from his ankle injury.	3483241	1472007105024	1472007105110	u	85
6804	73223	He has recovered from his ankle injury.	He has recovered from his ankle injury.	3483243	1472007105196	1472007105268	r	82
6804	73223	He has recovered from his ankle injury.	He has recovered from his ankle injury.	3483263	1472007105288	1472007105348	y	89
6804	73223	He has recovered from his ankle injury.	He has recovered from his ankle injury.	3483265	1472007105613	1472007105669	.	190
6804	73233	Please call tomorrow if possible.	Please call tomorrow if possible.	3483392	1472007108279	1472007108432	SHIFT	16
6804	73233	Please call tomorrow if possible.	Please call tomorrow if possible.	3483393	1472007108391	1472007108469	P	80
6804	73233	Please call tomorrow if possible.	Please call tomorrow if possible.	3483394	1472007108535	1472007108608	l	76
6804	73233	Please call tomorrow if possible.	Please call tomorrow if possible.	3483395	1472007108584	1472007108654	e	69
6804	73233	Please call tomorrow if possible.	Please call tomorrow if possible.	3483396	1472007108744	1472007108826	a	65
6804	73233	Please call tomorrow if possible.	Please call tomorrow if possible.	3483484	1472007108768	1472007108873	s	83
6804	73233	Please call tomorrow if possible.	Please call tomorrow if possible.	3483486	1472007109196	1472007109272	e	69
6804	73233	Please call tomorrow if possible.	Please call tomorrow if possible.	3483488	1472007109377	1472007109444	 	32
6804	73233	Please call tomorrow if possible.	Please call tomorrow if possible.	3483489	1472007110174	1472007110241	c	67
6804	73233	Please call tomorrow if possible.	Please call tomorrow if possible.	3483491	1472007110324	1472007110395	a	65
6804	73233	Please call tomorrow if possible.	Please call tomorrow if possible.	3483551	1472007110354	1472007110411	l	76
6804	73233	Please call tomorrow if possible.	Please call tomorrow if possible.	3483555	1472007110481	1472007110544	l	76
6804	73233	Please call tomorrow if possible.	Please call tomorrow if possible.	3483557	1472007110652	1472007110709	 	32
6804	73233	Please call tomorrow if possible.	Please call tomorrow if possible.	3483559	1472007111214	1472007111278	t	84
6804	73233	Please call tomorrow if possible.	Please call tomorrow if possible.	3483561	1472007111374	1472007111406	o	79
6804	73233	Please call tomorrow if possible.	Please call tomorrow if possible.	3483562	1472007111522	1472007111572	m	77
6804	73233	Please call tomorrow if possible.	Please call tomorrow if possible.	3483574	1472007111664	1472007111702	o	79
6804	73233	Please call tomorrow if possible.	Please call tomorrow if possible.	3483576	1472007111736	1472007111788	r	82
6804	73233	Please call tomorrow if possible.	Please call tomorrow if possible.	3483577	1472007111857	1472007111921	r	82
6804	73233	Please call tomorrow if possible.	Please call tomorrow if possible.	3483578	1472007111937	1472007112003	o	79
6804	73233	Please call tomorrow if possible.	Please call tomorrow if possible.	3483579	1472007112019	1472007112091	w	87
6804	73233	Please call tomorrow if possible.	Please call tomorrow if possible.	3483605	1472007112111	1472007112176	 	32
6804	73233	Please call tomorrow if possible.	Please call tomorrow if possible.	3483610	1472007112276	1472007112320	i	73
6804	73233	Please call tomorrow if possible.	Please call tomorrow if possible.	3483615	1472007112350	1472007112420	f	70
6804	73233	Please call tomorrow if possible.	Please call tomorrow if possible.	3483618	1472007112439	1472007112500	 	32
6804	73233	Please call tomorrow if possible.	Please call tomorrow if possible.	3483620	1472007112607	1472007112672	p	80
6804	73233	Please call tomorrow if possible.	Please call tomorrow if possible.	3483634	1472007112759	1472007112821	o	79
6804	73233	Please call tomorrow if possible.	Please call tomorrow if possible.	3483639	1472007112843	1472007112904	s	83
6804	73233	Please call tomorrow if possible.	Please call tomorrow if possible.	3483646	1472007112970	1472007113038	s	83
6804	73233	Please call tomorrow if possible.	Please call tomorrow if possible.	3483653	1472007113071	1472007113134	i	73
6804	73233	Please call tomorrow if possible.	Please call tomorrow if possible.	3483658	1472007113168	1472007113251	b	66
6804	73233	Please call tomorrow if possible.	Please call tomorrow if possible.	3483668	1472007113271	1472007113330	l	76
6804	73233	Please call tomorrow if possible.	Please call tomorrow if possible.	3483670	1472007113367	1472007113430	e	69
6804	73233	Please call tomorrow if possible.	Please call tomorrow if possible.	3483672	1472007113480	1472007113530	.	190
6804	73242	Kay Mann is going to take the lead on this.	Kay Mann is going to take the lead on this	3483824	1472007117052	1472007117220	SHIFT	16
6804	73242	Kay Mann is going to take the lead on this.	Kay Mann is going to take the lead on this	3483826	1472007117180	1472007117247	K	75
6804	73242	Kay Mann is going to take the lead on this.	Kay Mann is going to take the lead on this	3483831	1472007117314	1472007117381	a	65
6804	73242	Kay Mann is going to take the lead on this.	Kay Mann is going to take the lead on this	3483834	1472007117389	1472007117439	y	89
6804	73242	Kay Mann is going to take the lead on this.	Kay Mann is going to take the lead on this	3483836	1472007117547	1472007117613	 	32
6804	73242	Kay Mann is going to take the lead on this.	Kay Mann is going to take the lead on this	3483839	1472007117725	1472007117841	SHIFT	16
6804	73242	Kay Mann is going to take the lead on this.	Kay Mann is going to take the lead on this	3483848	1472007117784	1472007117889	M	77
6804	73242	Kay Mann is going to take the lead on this.	Kay Mann is going to take the lead on this	3483850	1472007117938	1472007118006	a	65
6804	73242	Kay Mann is going to take the lead on this.	Kay Mann is going to take the lead on this	3483852	1472007118031	1472007118080	n	78
6804	73242	Kay Mann is going to take the lead on this.	Kay Mann is going to take the lead on this	3483853	1472007118148	1472007118214	n	78
6804	73242	Kay Mann is going to take the lead on this.	Kay Mann is going to take the lead on this	3483855	1472007118294	1472007118360	 	32
6804	73242	Kay Mann is going to take the lead on this.	Kay Mann is going to take the lead on this	3483857	1472007118430	1472007118482	i	73
6804	73242	Kay Mann is going to take the lead on this.	Kay Mann is going to take the lead on this	3483865	1472007118502	1472007118566	s	83
6804	73242	Kay Mann is going to take the lead on this.	Kay Mann is going to take the lead on this	3483870	1472007118584	1472007118655	 	32
6804	73242	Kay Mann is going to take the lead on this.	Kay Mann is going to take the lead on this	3483873	1472007118706	1472007118762	g	71
6804	73242	Kay Mann is going to take the lead on this.	Kay Mann is going to take the lead on this	3483876	1472007118758	1472007118852	o	79
6804	73242	Kay Mann is going to take the lead on this.	Kay Mann is going to take the lead on this	3483897	1472007118848	1472007118912	i	73
6804	73242	Kay Mann is going to take the lead on this.	Kay Mann is going to take the lead on this	3483901	1472007119009	1472007119090	n	78
6804	73242	Kay Mann is going to take the lead on this.	Kay Mann is going to take the lead on this	3483906	1472007119086	1472007119152	g	71
6804	73242	Kay Mann is going to take the lead on this.	Kay Mann is going to take the lead on this	3483912	1472007119176	1472007119242	 	32
6804	73242	Kay Mann is going to take the lead on this.	Kay Mann is going to take the lead on this	3483917	1472007119238	1472007119310	t	84
6804	73242	Kay Mann is going to take the lead on this.	Kay Mann is going to take the lead on this	3483919	1472007119318	1472007119370	o	79
6804	73242	Kay Mann is going to take the lead on this.	Kay Mann is going to take the lead on this	3483958	1472007119449	1472007119513	 	32
6804	73242	Kay Mann is going to take the lead on this.	Kay Mann is going to take the lead on this	3483960	1472007119583	1472007119618	t	84
6804	73242	Kay Mann is going to take the lead on this.	Kay Mann is going to take the lead on this	3483964	1472007119710	1472007119751	t	84
6804	73242	Kay Mann is going to take the lead on this.	Kay Mann is going to take the lead on this	3483968	1472007120055	1472007120130	a	65
6804	73242	Kay Mann is going to take the lead on this.	Kay Mann is going to take the lead on this	3483971	1472007120166	1472007120207	k	75
6804	73242	Kay Mann is going to take the lead on this.	Kay Mann is going to take the lead on this	3484040	1472007120306	1472007120371	e	69
6804	73242	Kay Mann is going to take the lead on this.	Kay Mann is going to take the lead on this	3484044	1472007120367	1472007120411	 	32
6804	73242	Kay Mann is going to take the lead on this.	Kay Mann is going to take the lead on this	3484047	1472007120675	1472007120711	BKSP	8
6804	73242	Kay Mann is going to take the lead on this.	Kay Mann is going to take the lead on this	3484050	1472007120788	1472007120848	BKSP	8
6804	73242	Kay Mann is going to take the lead on this.	Kay Mann is going to take the lead on this	3484052	1472007120921	1472007120978	BKSP	8
6804	73242	Kay Mann is going to take the lead on this.	Kay Mann is going to take the lead on this	3484054	1472007121055	1472007121108	BKSP	8
6804	73242	Kay Mann is going to take the lead on this.	Kay Mann is going to take the lead on this	3484057	1472007121176	1472007121234	BKSP	8
6804	73242	Kay Mann is going to take the lead on this.	Kay Mann is going to take the lead on this	3484060	1472007121439	1472007121516	a	65
6804	73242	Kay Mann is going to take the lead on this.	Kay Mann is going to take the lead on this	3484065	1472007121542	1472007121584	k	75
6804	73242	Kay Mann is going to take the lead on this.	Kay Mann is going to take the lead on this	3484069	1472007121646	1472007121715	e	69
6804	73242	Kay Mann is going to take the lead on this.	Kay Mann is going to take the lead on this	3484072	1472007121715	1472007121784	 	32
6804	73242	Kay Mann is going to take the lead on this.	Kay Mann is going to take the lead on this	3484074	1472007121839	1472007121897	t	84
6804	73242	Kay Mann is going to take the lead on this.	Kay Mann is going to take the lead on this	3484076	1472007121905	1472007121951	h	72
6804	73242	Kay Mann is going to take the lead on this.	Kay Mann is going to take the lead on this	3484078	1472007121967	1472007122038	e	69
6804	73242	Kay Mann is going to take the lead on this.	Kay Mann is going to take the lead on this	3484083	1472007122054	1472007122112	 	32
6804	73242	Kay Mann is going to take the lead on this.	Kay Mann is going to take the lead on this	3484088	1472007122212	1472007122272	l	76
6804	73242	Kay Mann is going to take the lead on this.	Kay Mann is going to take the lead on this	3484112	1472007122252	1472007122341	e	69
6804	73242	Kay Mann is going to take the lead on this.	Kay Mann is going to take the lead on this	3484113	1472007122347	1472007122439	a	65
6804	73242	Kay Mann is going to take the lead on this.	Kay Mann is going to take the lead on this	3484115	1472007122475	1472007122558	d	68
6804	73242	Kay Mann is going to take the lead on this.	Kay Mann is going to take the lead on this	3484117	1472007122538	1472007122601	 	32
6804	73242	Kay Mann is going to take the lead on this.	Kay Mann is going to take the lead on this	3484119	1472007122677	1472007122738	o	79
6804	73242	Kay Mann is going to take the lead on this.	Kay Mann is going to take the lead on this	3484121	1472007122765	1472007122838	n	78
6804	73242	Kay Mann is going to take the lead on this.	Kay Mann is going to take the lead on this	3484154	1472007122928	1472007123010	 	32
6804	73242	Kay Mann is going to take the lead on this.	Kay Mann is going to take the lead on this	3484158	1472007123207	1472007123263	h	72
6804	73242	Kay Mann is going to take the lead on this.	Kay Mann is going to take the lead on this	3484162	1472007123319	1472007123391	t	84
6804	73242	Kay Mann is going to take the lead on this.	Kay Mann is going to take the lead on this	3484165	1472007123425	1472007123493	i	73
6804	73242	Kay Mann is going to take the lead on this.	Kay Mann is going to take the lead on this	3484170	1472007123564	1472007123628	s	83
6804	73242	Kay Mann is going to take the lead on this.	Kay Mann is going to take the lead on this	3484236	1472007123664	1472007123716	.	190
6804	73242	Kay Mann is going to take the lead on this.	Kay Mann is going to take the lead on this	3484241	1472007123936	1472007123972	BKSP	8
6804	73242	Kay Mann is going to take the lead on this.	Kay Mann is going to take the lead on this	3484248	1472007124043	1472007124085	BKSP	8
6804	73242	Kay Mann is going to take the lead on this.	Kay Mann is going to take the lead on this	3484254	1472007124175	1472007124220	BKSP	8
6804	73242	Kay Mann is going to take the lead on this.	Kay Mann is going to take the lead on this	3484260	1472007124311	1472007124355	BKSP	8
6804	73242	Kay Mann is going to take the lead on this.	Kay Mann is going to take the lead on this	3484265	1472007124431	1472007124493	BKSP	8
6804	73242	Kay Mann is going to take the lead on this.	Kay Mann is going to take the lead on this	3484268	1472007124608	1472007124681	t	84
6804	73242	Kay Mann is going to take the lead on this.	Kay Mann is going to take the lead on this	3484272	1472007124741	1472007124803	h	72
6804	73242	Kay Mann is going to take the lead on this.	Kay Mann is going to take the lead on this	3484275	1472007124865	1472007124926	i	73
6804	73242	Kay Mann is going to take the lead on this.	Kay Mann is going to take the lead on this	3484276	1472007124946	1472007125016	s	83
6804	73251	This track stands alone as king of the circuits.	This track stands alone as king of the circuits.	3484454	1472007129927	1472007130023	SHIFT	16
6804	73251	This track stands alone as king of the circuits.	This track stands alone as king of the circuits.	3484456	1472007129971	1472007130027	T	84
6804	73251	This track stands alone as king of the circuits.	This track stands alone as king of the circuits.	3484458	1472007130135	1472007130199	h	72
6804	73251	This track stands alone as king of the circuits.	This track stands alone as king of the circuits.	3484462	1472007130335	1472007130395	i	73
6804	73251	This track stands alone as king of the circuits.	This track stands alone as king of the circuits.	3484465	1472007130431	1472007130501	s	83
6804	73251	This track stands alone as king of the circuits.	This track stands alone as king of the circuits.	3484467	1472007130549	1472007130621	 	32
6804	73251	This track stands alone as king of the circuits.	This track stands alone as king of the circuits.	3484493	1472007130665	1472007130733	t	84
6804	73251	This track stands alone as king of the circuits.	This track stands alone as king of the circuits.	3484495	1472007131005	1472007131073	r	82
6804	73251	This track stands alone as king of the circuits.	This track stands alone as king of the circuits.	3484498	1472007131189	1472007131253	a	65
6804	73251	This track stands alone as king of the circuits.	This track stands alone as king of the circuits.	3484502	1472007131393	1472007131457	c	67
6804	73251	This track stands alone as king of the circuits.	This track stands alone as king of the circuits.	3484506	1472007131497	1472007131541	k	75
6804	73251	This track stands alone as king of the circuits.	This track stands alone as king of the circuits.	3484524	1472007131653	1472007131721	 	32
6804	73251	This track stands alone as king of the circuits.	This track stands alone as king of the circuits.	3484528	1472007131805	1472007131897	s	83
6804	73251	This track stands alone as king of the circuits.	This track stands alone as king of the circuits.	3484532	1472007132049	1472007132117	t	84
6804	73251	This track stands alone as king of the circuits.	This track stands alone as king of the circuits.	3484535	1472007132233	1472007132305	a	65
6804	73251	This track stands alone as king of the circuits.	This track stands alone as king of the circuits.	3484564	1472007132301	1472007132353	n	78
6804	73251	This track stands alone as king of the circuits.	This track stands alone as king of the circuits.	3484568	1472007132401	1472007132501	d	68
6804	73251	This track stands alone as king of the circuits.	This track stands alone as king of the circuits.	3484569	1472007132469	1472007132561	s	83
6804	73251	This track stands alone as king of the circuits.	This track stands alone as king of the circuits.	3484572	1472007132757	1472007132833	 	32
6804	73251	This track stands alone as king of the circuits.	This track stands alone as king of the circuits.	3484574	1472007132897	1472007132957	a	65
6804	73251	This track stands alone as king of the circuits.	This track stands alone as king of the circuits.	3484577	1472007133017	1472007133069	l	76
6804	73251	This track stands alone as king of the circuits.	This track stands alone as king of the circuits.	3484587	1472007133185	1472007133253	o	79
6804	73251	This track stands alone as king of the circuits.	This track stands alone as king of the circuits.	3484588	1472007133325	1472007133385	n	78
6804	73251	This track stands alone as king of the circuits.	This track stands alone as king of the circuits.	3484589	1472007133389	1472007133453	e	69
6804	73251	This track stands alone as king of the circuits.	This track stands alone as king of the circuits.	3484590	1472007133485	1472007133545	 	32
6804	73251	This track stands alone as king of the circuits.	This track stands alone as king of the circuits.	3484591	1472007133569	1472007133681	a	65
6804	73251	This track stands alone as king of the circuits.	This track stands alone as king of the circuits.	3484647	1472007133669	1472007133737	s	83
6804	73251	This track stands alone as king of the circuits.	This track stands alone as king of the circuits.	3484651	1472007134129	1472007134212	 	32
6804	73251	This track stands alone as king of the circuits.	This track stands alone as king of the circuits.	3484654	1472007134341	1472007134411	k	75
6804	73251	This track stands alone as king of the circuits.	This track stands alone as king of the circuits.	3484658	1472007134542	1472007134613	i	73
6804	73251	This track stands alone as king of the circuits.	This track stands alone as king of the circuits.	3484661	1472007134684	1472007134740	n	78
6804	73251	This track stands alone as king of the circuits.	This track stands alone as king of the circuits.	3484665	1472007134790	1472007134850	g	71
6804	73251	This track stands alone as king of the circuits.	This track stands alone as king of the circuits.	3484684	1472007134858	1472007134926	 	32
6804	73251	This track stands alone as king of the circuits.	This track stands alone as king of the circuits.	3484686	1472007135008	1472007135071	o	79
6804	73251	This track stands alone as king of the circuits.	This track stands alone as king of the circuits.	3484691	1472007135111	1472007135192	f	70
6804	73251	This track stands alone as king of the circuits.	This track stands alone as king of the circuits.	3484694	1472007135196	1472007135273	 	32
6804	73251	This track stands alone as king of the circuits.	This track stands alone as king of the circuits.	3484698	1472007135325	1472007135393	t	84
6804	73251	This track stands alone as king of the circuits.	This track stands alone as king of the circuits.	3484743	1472007135405	1472007135455	h	72
6804	73251	This track stands alone as king of the circuits.	This track stands alone as king of the circuits.	3484746	1472007135471	1472007135543	e	69
6804	73251	This track stands alone as king of the circuits.	This track stands alone as king of the circuits.	3484749	1472007135591	1472007135659	 	32
6804	73251	This track stands alone as king of the circuits.	This track stands alone as king of the circuits.	3484752	1472007135761	1472007135823	s	83
6804	73251	This track stands alone as king of the circuits.	This track stands alone as king of the circuits.	3484755	1472007136104	1472007136163	BKSP	8
6804	73251	This track stands alone as king of the circuits.	This track stands alone as king of the circuits.	3484759	1472007136209	1472007136287	c	67
6804	73251	This track stands alone as king of the circuits.	This track stands alone as king of the circuits.	3484782	1472007136311	1472007136373	i	73
6804	73251	This track stands alone as king of the circuits.	This track stands alone as king of the circuits.	3484786	1472007136439	1472007136500	r	82
6804	73251	This track stands alone as king of the circuits.	This track stands alone as king of the circuits.	3484789	1472007136634	1472007136712	c	67
6804	73251	This track stands alone as king of the circuits.	This track stands alone as king of the circuits.	3484792	1472007136763	1472007136822	u	85
6804	73251	This track stands alone as king of the circuits.	This track stands alone as king of the circuits.	3484795	1472007136984	1472007137047	i	73
6804	73251	This track stands alone as king of the circuits.	This track stands alone as king of the circuits.	3484820	1472007137147	1472007137238	t	84
6804	73251	This track stands alone as king of the circuits.	This track stands alone as king of the circuits.	3484822	1472007137290	1472007137386	s	83
6804	73251	This track stands alone as king of the circuits.	This track stands alone as king of the circuits.	3484825	1472007137732	1472007137795	.	190
6804	73269	I'm going to class.	Im going to class.	3484995	1472007140180	1472007140278	SHIFT	16
6804	73269	I'm going to class.	Im going to class.	3484999	1472007140242	1472007140290	I	73
6804	73269	I'm going to class.	Im going to class.	3485005	1472007140682	1472007140738	m	77
6804	73269	I'm going to class.	Im going to class.	3485010	1472007140831	1472007140902	 	32
6804	73269	I'm going to class.	Im going to class.	3485014	1472007140945	1472007141013	g	71
6804	73269	I'm going to class.	Im going to class.	3485025	1472007141009	1472007141098	o	79
6804	73269	I'm going to class.	Im going to class.	3485031	1472007141094	1472007141165	i	73
6804	73269	I'm going to class.	Im going to class.	3485035	1472007141251	1472007141319	n	78
6804	73269	I'm going to class.	Im going to class.	3485045	1472007141335	1472007141419	g	71
6804	73269	I'm going to class.	Im going to class.	3485053	1472007141415	1472007141485	 	32
6804	73269	I'm going to class.	Im going to class.	3485060	1472007141517	1472007141585	t	84
6804	73269	I'm going to class.	Im going to class.	3485080	1472007141573	1472007141609	o	79
6804	73269	I'm going to class.	Im going to class.	3485083	1472007141710	1472007141774	 	32
6804	73269	I'm going to class.	Im going to class.	3485085	1472007141823	1472007141911	c	67
6804	73269	I'm going to class.	Im going to class.	3485088	1472007141935	1472007141976	l	76
6804	73269	I'm going to class.	Im going to class.	3485092	1472007142039	1472007142095	a	65
6804	73269	I'm going to class.	Im going to class.	3485096	1472007142161	1472007142222	s	83
6804	73269	I'm going to class.	Im going to class.	3485101	1472007142290	1472007142362	s	83
6804	73269	I'm going to class.	Im going to class.	3485103	1472007142354	1472007142428	.	190
6804	73273	I do not want to repeat.	I do not want to repeat.	3485222	1472007144754	1472007144854	SHIFT	16
6804	73273	I do not want to repeat.	I do not want to repeat.	3485223	1472007144795	1472007144858	I	73
6804	73273	I do not want to repeat.	I do not want to repeat.	3485226	1472007145008	1472007145066	 	32
6804	73273	I do not want to repeat.	I do not want to repeat.	3485229	1472007145100	1472007145166	d	68
6804	73273	I do not want to repeat.	I do not want to repeat.	3485232	1472007145178	1472007145225	o	79
6804	73273	I do not want to repeat.	I do not want to repeat.	3485235	1472007145327	1472007145381	 	32
6804	73273	I do not want to repeat.	I do not want to repeat.	3485250	1472007145477	1472007145536	n	78
6804	73273	I do not want to repeat.	I do not want to repeat.	3485254	1472007145589	1472007145665	o	79
6804	73273	I do not want to repeat.	I do not want to repeat.	3485258	1472007145685	1472007145749	t	84
6804	73273	I do not want to repeat.	I do not want to repeat.	3485264	1472007145769	1472007145835	 	32
6804	73273	I do not want to repeat.	I do not want to repeat.	3485268	1472007145903	1472007145990	w	87
6804	73273	I do not want to repeat.	I do not want to repeat.	3485280	1472007146018	1472007146101	a	65
6804	73273	I do not want to repeat.	I do not want to repeat.	3485284	1472007146113	1472007146164	n	78
6804	73273	I do not want to repeat.	I do not want to repeat.	3485292	1472007146248	1472007146301	t	84
6804	73273	I do not want to repeat.	I do not want to repeat.	3485297	1472007146272	1472007146343	 	32
6804	73273	I do not want to repeat.	I do not want to repeat.	3485301	1472007146423	1472007146485	t	84
6804	73273	I do not want to repeat.	I do not want to repeat.	3485354	1472007146481	1472007146540	o	79
6804	73273	I do not want to repeat.	I do not want to repeat.	3485356	1472007146661	1472007146723	 	32
6804	73273	I do not want to repeat.	I do not want to repeat.	3485358	1472007146753	1472007146861	r	82
6804	73273	I do not want to repeat.	I do not want to repeat.	3485360	1472007146820	1472007146901	e	69
6804	73273	I do not want to repeat.	I do not want to repeat.	3485363	1472007147011	1472007147071	p	80
6804	73273	I do not want to repeat.	I do not want to repeat.	3485371	1472007147643	1472007147739	e	69
6804	73273	I do not want to repeat.	I do not want to repeat.	3485386	1472007147811	1472007147895	a	65
6804	73273	I do not want to repeat.	I do not want to repeat.	3485387	1472007147992	1472007148063	t	84
6804	73273	I do not want to repeat.	I do not want to repeat.	3485388	1472007148101	1472007148163	.	190
6804	73278	Looking for some gift hints from you.	Looking for some gift hints from you.	3485629	1472007152645	1472007152802	SHIFT	16
6804	73278	Looking for some gift hints from you.	Looking for some gift hints from you.	3485632	1472007152750	1472007152834	L	76
6804	73278	Looking for some gift hints from you.	Looking for some gift hints from you.	3485637	1472007152955	1472007153003	o	79
6804	73278	Looking for some gift hints from you.	Looking for some gift hints from you.	3485640	1472007153075	1472007153144	o	79
6804	73278	Looking for some gift hints from you.	Looking for some gift hints from you.	3485642	1472007153237	1472007153308	k	75
6804	73278	Looking for some gift hints from you.	Looking for some gift hints from you.	3485648	1472007153411	1472007153491	i	73
6804	73278	Looking for some gift hints from you.	Looking for some gift hints from you.	3485654	1472007153526	1472007153601	n	78
6804	73278	Looking for some gift hints from you.	Looking for some gift hints from you.	3485656	1472007153651	1472007153723	g	71
6804	73278	Looking for some gift hints from you.	Looking for some gift hints from you.	3485659	1472007153711	1472007153794	 	32
6804	73278	Looking for some gift hints from you.	Looking for some gift hints from you.	3485661	1472007153831	1472007153910	f	70
6804	73278	Looking for some gift hints from you.	Looking for some gift hints from you.	3485679	1472007153873	1472007153938	o	79
6804	73278	Looking for some gift hints from you.	Looking for some gift hints from you.	3485682	1472007154030	1472007154099	r	82
6804	73278	Looking for some gift hints from you.	Looking for some gift hints from you.	3485685	1472007154062	1472007154142	 	32
6804	73278	Looking for some gift hints from you.	Looking for some gift hints from you.	3485688	1472007154243	1472007154330	s	83
6804	73278	Looking for some gift hints from you.	Looking for some gift hints from you.	3485691	1472007154336	1472007154402	o	79
6804	73278	Looking for some gift hints from you.	Looking for some gift hints from you.	3485693	1472007154455	1472007154515	m	77
6804	73278	Looking for some gift hints from you.	Looking for some gift hints from you.	3485703	1472007154547	1472007154611	e	69
6804	73278	Looking for some gift hints from you.	Looking for some gift hints from you.	3485705	1472007154643	1472007154699	 	32
6804	73278	Looking for some gift hints from you.	Looking for some gift hints from you.	3485706	1472007154802	1472007154864	g	71
6804	73278	Looking for some gift hints from you.	Looking for some gift hints from you.	3485709	1472007154902	1472007154964	i	73
6804	73278	Looking for some gift hints from you.	Looking for some gift hints from you.	3485710	1472007155001	1472007155081	f	70
6804	73278	Looking for some gift hints from you.	Looking for some gift hints from you.	3485777	1472007155160	1472007155229	t	84
6804	73278	Looking for some gift hints from you.	Looking for some gift hints from you.	3485782	1472007155216	1472007155288	 	32
6804	73278	Looking for some gift hints from you.	Looking for some gift hints from you.	3485787	1472007155513	1472007155587	h	72
6804	73278	Looking for some gift hints from you.	Looking for some gift hints from you.	3485791	1472007155646	1472007155740	i	73
6804	73278	Looking for some gift hints from you.	Looking for some gift hints from you.	3485793	1472007155756	1472007155854	n	78
6804	73278	Looking for some gift hints from you.	Looking for some gift hints from you.	3485809	1472007155802	1472007155903	t	84
6804	73278	Looking for some gift hints from you.	Looking for some gift hints from you.	3485814	1472007155954	1472007156072	s	83
6804	73278	Looking for some gift hints from you.	Looking for some gift hints from you.	3485819	1472007156068	1472007156133	 	32
6804	73278	Looking for some gift hints from you.	Looking for some gift hints from you.	3485824	1472007156172	1472007156256	f	70
6804	73278	Looking for some gift hints from you.	Looking for some gift hints from you.	3485830	1472007156339	1472007156413	r	82
6804	73278	Looking for some gift hints from you.	Looking for some gift hints from you.	3485870	1472007156385	1472007156496	o	79
6804	73278	Looking for some gift hints from you.	Looking for some gift hints from you.	3485876	1472007156476	1472007156566	m	77
6804	73278	Looking for some gift hints from you.	Looking for some gift hints from you.	3485882	1472007156659	1472007156744	 	32
6804	73278	Looking for some gift hints from you.	Looking for some gift hints from you.	3485885	1472007156899	1472007156991	y	89
6804	73278	Looking for some gift hints from you.	Looking for some gift hints from you.	3485887	1472007156987	1472007157080	o	79
6804	73278	Looking for some gift hints from you.	Looking for some gift hints from you.	3485890	1472007157097	1472007157161	u	85
6804	73278	Looking for some gift hints from you.	Looking for some gift hints from you.	3485895	1472007157238	1472007157338	.	190
6804	73287	Houston time at the Hyatt Regency.	Houston time at the Hyatt Regency.	3486160	1472007161008	1472007161106	SHIFT	16
6804	73287	Houston time at the Hyatt Regency.	Houston time at the Hyatt Regency.	3486162	1472007161048	1472007161115	H	72
6804	73287	Houston time at the Hyatt Regency.	Houston time at the Hyatt Regency.	3486165	1472007161499	1472007161583	o	79
6804	73287	Houston time at the Hyatt Regency.	Houston time at the Hyatt Regency.	3486171	1472007161658	1472007161725	u	85
6804	73287	Houston time at the Hyatt Regency.	Houston time at the Hyatt Regency.	3486173	1472007161755	1472007161815	s	83
6804	73287	Houston time at the Hyatt Regency.	Houston time at the Hyatt Regency.	3486176	1472007161883	1472007161944	t	84
6804	73287	Houston time at the Hyatt Regency.	Houston time at the Hyatt Regency.	3486217	1472007162503	1472007162569	o	79
6804	73287	Houston time at the Hyatt Regency.	Houston time at the Hyatt Regency.	3486222	1472007162660	1472007162718	n	78
6804	73287	Houston time at the Hyatt Regency.	Houston time at the Hyatt Regency.	3486227	1472007162826	1472007162874	 	32
6804	73287	Houston time at the Hyatt Regency.	Houston time at the Hyatt Regency.	3486231	1472007162930	1472007162993	t	84
6804	73287	Houston time at the Hyatt Regency.	Houston time at the Hyatt Regency.	3486237	1472007163045	1472007163102	i	73
6804	73287	Houston time at the Hyatt Regency.	Houston time at the Hyatt Regency.	3486271	1472007163182	1472007163236	m	77
6804	73287	Houston time at the Hyatt Regency.	Houston time at the Hyatt Regency.	3486274	1472007163256	1472007163316	e	69
6804	73287	Houston time at the Hyatt Regency.	Houston time at the Hyatt Regency.	3486278	1472007163364	1472007163426	 	32
6804	73287	Houston time at the Hyatt Regency.	Houston time at the Hyatt Regency.	3486281	1472007163485	1472007163533	a	65
6804	73287	Houston time at the Hyatt Regency.	Houston time at the Hyatt Regency.	3486284	1472007163744	1472007163803	t	84
6804	73287	Houston time at the Hyatt Regency.	Houston time at the Hyatt Regency.	3486293	1472007163839	1472007163904	 	32
6804	73287	Houston time at the Hyatt Regency.	Houston time at the Hyatt Regency.	3486297	1472007163950	1472007164026	t	84
6804	73287	Houston time at the Hyatt Regency.	Houston time at the Hyatt Regency.	3486302	1472007164040	1472007164090	h	72
6804	73287	Houston time at the Hyatt Regency.	Houston time at the Hyatt Regency.	3486305	1472007164133	1472007164194	e	69
6804	73287	Houston time at the Hyatt Regency.	Houston time at the Hyatt Regency.	3486308	1472007164210	1472007164278	 	32
6804	73287	Houston time at the Hyatt Regency.	Houston time at the Hyatt Regency.	3486326	1472007164370	1472007164482	SHIFT	16
6804	73287	Houston time at the Hyatt Regency.	Houston time at the Hyatt Regency.	3486327	1472007164439	1472007164500	H	72
6804	73287	Houston time at the Hyatt Regency.	Houston time at the Hyatt Regency.	3486328	1472007164645	1472007164703	y	89
6804	73287	Houston time at the Hyatt Regency.	Houston time at the Hyatt Regency.	3486330	1472007164910	1472007164977	t	84
6804	73287	Houston time at the Hyatt Regency.	Houston time at the Hyatt Regency.	3486332	1472007165057	1472007165124	t	84
6804	73287	Houston time at the Hyatt Regency.	Houston time at the Hyatt Regency.	3486333	1472007165170	1472007165248	 	32
6804	73287	Houston time at the Hyatt Regency.	Houston time at the Hyatt Regency.	3486428	1472007165804	1472007165848	BKSP	8
6804	73287	Houston time at the Hyatt Regency.	Houston time at the Hyatt Regency.	3486430	1472007165924	1472007165972	BKSP	8
6804	73287	Houston time at the Hyatt Regency.	Houston time at the Hyatt Regency.	3486432	1472007166062	1472007166123	BKSP	8
6804	73287	Houston time at the Hyatt Regency.	Houston time at the Hyatt Regency.	3486434	1472007166252	1472007166333	a	65
6804	73287	Houston time at the Hyatt Regency.	Houston time at the Hyatt Regency.	3486436	1472007166470	1472007166526	t	84
6804	73287	Houston time at the Hyatt Regency.	Houston time at the Hyatt Regency.	3486438	1472007167245	1472007167300	t	84
6804	73287	Houston time at the Hyatt Regency.	Houston time at the Hyatt Regency.	3486440	1472007167355	1472007167429	 	32
6804	73287	Houston time at the Hyatt Regency.	Houston time at the Hyatt Regency.	3486444	1472007167532	1472007167618	SHIFT	16
6804	73287	Houston time at the Hyatt Regency.	Houston time at the Hyatt Regency.	3486505	1472007167613	1472007167680	R	82
6804	73287	Houston time at the Hyatt Regency.	Houston time at the Hyatt Regency.	3486509	1472007167646	1472007167716	e	69
6804	73287	Houston time at the Hyatt Regency.	Houston time at the Hyatt Regency.	3486513	1472007167892	1472007167994	c	67
6804	73287	Houston time at the Hyatt Regency.	Houston time at the Hyatt Regency.	3486518	1472007168360	1472007168425	BKSP	8
6804	73287	Houston time at the Hyatt Regency.	Houston time at the Hyatt Regency.	3486522	1472007168484	1472007168591	g	71
6804	73287	Houston time at the Hyatt Regency.	Houston time at the Hyatt Regency.	3486527	1472007168603	1472007168694	e	69
6804	73287	Houston time at the Hyatt Regency.	Houston time at the Hyatt Regency.	3486532	1472007169026	1472007169096	n	78
6804	73287	Houston time at the Hyatt Regency.	Houston time at the Hyatt Regency.	3486605	1472007169474	1472007169548	c	67
6804	73287	Houston time at the Hyatt Regency.	Houston time at the Hyatt Regency.	3486606	1472007169639	1472007169704	y	89
6804	73287	Houston time at the Hyatt Regency.	Houston time at the Hyatt Regency.	3486607	1472007170564	1472007170630	.	190
6804	73304	The event reopens debate on the issue.	The event reopens debate on the issue.	3486791	1472007174198	1472007174298	SHIFT	16
6804	73304	The event reopens debate on the issue.	The event reopens debate on the issue.	3486789	1472007174222	1472007174294	T	84
6804	73304	The event reopens debate on the issue.	The event reopens debate on the issue.	3486793	1472007174391	1472007174466	h	72
6804	73304	The event reopens debate on the issue.	The event reopens debate on the issue.	3486795	1472007174557	1472007174621	e	69
6804	73304	The event reopens debate on the issue.	The event reopens debate on the issue.	3486798	1472007174653	1472007174721	 	32
6804	73304	The event reopens debate on the issue.	The event reopens debate on the issue.	3486801	1472007174762	1472007174830	e	69
6804	73304	The event reopens debate on the issue.	The event reopens debate on the issue.	3486808	1472007174922	1472007175000	v	86
6804	73304	The event reopens debate on the issue.	The event reopens debate on the issue.	3486810	1472007175050	1472007175123	e	69
6804	73304	The event reopens debate on the issue.	The event reopens debate on the issue.	3486812	1472007175158	1472007175204	n	78
6804	73304	The event reopens debate on the issue.	The event reopens debate on the issue.	3486813	1472007175224	1472007175295	t	84
6804	73304	The event reopens debate on the issue.	The event reopens debate on the issue.	3486816	1472007175328	1472007175401	 	32
6804	73304	The event reopens debate on the issue.	The event reopens debate on the issue.	3486842	1472007175417	1472007175529	r	82
6804	73304	The event reopens debate on the issue.	The event reopens debate on the issue.	3486844	1472007175525	1472007175606	e	69
6804	73304	The event reopens debate on the issue.	The event reopens debate on the issue.	3486846	1472007175767	1472007175868	o	79
6804	73304	The event reopens debate on the issue.	The event reopens debate on the issue.	3486848	1472007175900	1472007175980	p	80
6804	73304	The event reopens debate on the issue.	The event reopens debate on the issue.	3486849	1472007176068	1472007176150	e	69
6804	73304	The event reopens debate on the issue.	The event reopens debate on the issue.	3486868	1472007176222	1472007176274	n	78
6804	73304	The event reopens debate on the issue.	The event reopens debate on the issue.	3486872	1472007176320	1472007176376	s	83
6804	73304	The event reopens debate on the issue.	The event reopens debate on the issue.	3486875	1472007176402	1472007176462	 	32
6804	73304	The event reopens debate on the issue.	The event reopens debate on the issue.	3486879	1472007176517	1472007176600	d	68
6804	73304	The event reopens debate on the issue.	The event reopens debate on the issue.	3486881	1472007176729	1472007176799	e	69
6804	73304	The event reopens debate on the issue.	The event reopens debate on the issue.	3486911	1472007177072	1472007177157	b	66
6804	73304	The event reopens debate on the issue.	The event reopens debate on the issue.	3486913	1472007177270	1472007177326	a	65
6804	73304	The event reopens debate on the issue.	The event reopens debate on the issue.	3486917	1472007177441	1472007177519	t	84
6804	73304	The event reopens debate on the issue.	The event reopens debate on the issue.	3486920	1472007177477	1472007177549	e	69
6804	73304	The event reopens debate on the issue.	The event reopens debate on the issue.	3486942	1472007177545	1472007177611	 	32
6804	73304	The event reopens debate on the issue.	The event reopens debate on the issue.	3486944	1472007177696	1472007177777	o	79
6804	73304	The event reopens debate on the issue.	The event reopens debate on the issue.	3486945	1472007177811	1472007177897	n	78
6804	73304	The event reopens debate on the issue.	The event reopens debate on the issue.	3486946	1472007177974	1472007178054	 	32
6804	73304	The event reopens debate on the issue.	The event reopens debate on the issue.	3486947	1472007178072	1472007178161	t	84
6804	73304	The event reopens debate on the issue.	The event reopens debate on the issue.	3486968	1472007178153	1472007178213	h	72
6804	73304	The event reopens debate on the issue.	The event reopens debate on the issue.	3486970	1472007178225	1472007178298	e	69
6804	73304	The event reopens debate on the issue.	The event reopens debate on the issue.	3486972	1472007178306	1472007178368	 	32
6804	73304	The event reopens debate on the issue.	The event reopens debate on the issue.	3486974	1472007178451	1472007178508	i	73
6804	73304	The event reopens debate on the issue.	The event reopens debate on the issue.	3486977	1472007178496	1472007178542	s	83
6804	73304	The event reopens debate on the issue.	The event reopens debate on the issue.	3486979	1472007178613	1472007178699	s	83
6804	73304	The event reopens debate on the issue.	The event reopens debate on the issue.	3486993	1472007178746	1472007178818	u	85
6804	73304	The event reopens debate on the issue.	The event reopens debate on the issue.	3486995	1472007178818	1472007178887	e	69
6804	73304	The event reopens debate on the issue.	The event reopens debate on the issue.	3486996	1472007178986	1472007179052	.	190
6804	73311	The mud was their idea.	The mud was their idea.	3487104	1472007181889	1472007181974	SHIFT	16
6804	73311	The mud was their idea.	The mud was their idea.	3487107	1472007181935	1472007182007	T	84
6804	73311	The mud was their idea.	The mud was their idea.	3487111	1472007182112	1472007182156	h	72
6804	73311	The mud was their idea.	The mud was their idea.	3487116	1472007182233	1472007182302	e	69
6804	73311	The mud was their idea.	The mud was their idea.	3487120	1472007182298	1472007182358	 	32
6804	73311	The mud was their idea.	The mud was their idea.	3487125	1472007182451	1472007182511	m	77
6804	73311	The mud was their idea.	The mud was their idea.	3487138	1472007182601	1472007182661	u	85
6804	73311	The mud was their idea.	The mud was their idea.	3487139	1472007182703	1472007182782	d	68
6804	73311	The mud was their idea.	The mud was their idea.	3487140	1472007182805	1472007182870	 	32
6804	73311	The mud was their idea.	The mud was their idea.	3487141	1472007182905	1472007182992	w	87
6804	73311	The mud was their idea.	The mud was their idea.	3487152	1472007182980	1472007183114	a	65
6804	73311	The mud was their idea.	The mud was their idea.	3487153	1472007183099	1472007183180	s	83
6804	73311	The mud was their idea.	The mud was their idea.	3487154	1472007183176	1472007183257	 	32
6804	73311	The mud was their idea.	The mud was their idea.	3487156	1472007183316	1472007183381	t	84
6804	73311	The mud was their idea.	The mud was their idea.	3487158	1472007183393	1472007183457	h	72
6804	73311	The mud was their idea.	The mud was their idea.	3487160	1472007183461	1472007183554	e	69
6804	73311	The mud was their idea.	The mud was their idea.	3487171	1472007183566	1472007183642	i	73
6804	73311	The mud was their idea.	The mud was their idea.	3487172	1472007183670	1472007183736	r	82
6804	73311	The mud was their idea.	The mud was their idea.	3487173	1472007183752	1472007183822	 	32
6804	73311	The mud was their idea.	The mud was their idea.	3487175	1472007183934	1472007183988	i	73
6804	73311	The mud was their idea.	The mud was their idea.	3487177	1472007184037	1472007184125	d	68
6804	73311	The mud was their idea.	The mud was their idea.	3487195	1472007184209	1472007184306	e	69
6804	73311	The mud was their idea.	The mud was their idea.	3487198	1472007184306	1472007184378	a	65
6804	73311	The mud was their idea.	The mud was their idea.	3487201	1472007184387	1472007184454	.	190
