PARTICIPANT_ID	TEST_SECTION_ID	SENTENCE	USER_INPUT	KEYSTROKE_ID	PRESS_TIME	RELEASE_TIME	LETTER	KEYCODE
6814	73318	What number should he call you on?	What number should he call you on?	3487542	1472007200211	1472007200454	SHIFT	16
6814	73318	What number should he call you on?	What number should he call you on?	3487543	1472007200343	1472007200468	W	87
6814	73318	What number should he call you on?	What number should he call you on?	3487544	1472007200579	1472007200698	h	72
6814	73318	What number should he call you on?	What number should he call you on?	3487545	1472007200679	1472007200899	a	65
6814	73318	What number should he call you on?	What number should he call you on?	3487565	1472007200790	1472007200915	t	84
6814	73318	What number should he call you on?	What number should he call you on?	3487567	1472007200830	1472007200955	 	32
6814	73318	What number should he call you on?	What number should he call you on?	3487568	1472007201046	1472007201183	n	78
6814	73318	What number should he call you on?	What number should he call you on?	3487571	1472007201162	1472007201302	u	85
6814	73318	What number should he call you on?	What number should he call you on?	3487572	1472007201377	1472007201525	m	77
6814	73318	What number should he call you on?	What number should he call you on?	3487575	1472007201518	1472007201623	b	66
6814	73318	What number should he call you on?	What number should he call you on?	3487580	1472007201598	1472007201764	e	69
6814	73318	What number should he call you on?	What number should he call you on?	3487581	1472007201689	1472007201814	r	82
6814	73318	What number should he call you on?	What number should he call you on?	3487583	1472007201769	1472007201886	 	32
6814	73318	What number should he call you on?	What number should he call you on?	3487585	1472007201875	1472007202025	s	83
6814	73318	What number should he call you on?	What number should he call you on?	3487622	1472007201960	1472007202070	h	72
6814	73318	What number should he call you on?	What number should he call you on?	3487624	1472007201995	1472007202085	o	79
6814	73318	What number should he call you on?	What number should he call you on?	3487627	1472007202156	1472007202261	u	85
6814	73318	What number should he call you on?	What number should he call you on?	3487629	1472007202502	1472007202643	l	76
6814	73318	What number should he call you on?	What number should he call you on?	3487631	1472007202688	1472007202798	d	68
6814	73318	What number should he call you on?	What number should he call you on?	3487633	1472007202819	1472007202934	 	32
6814	73318	What number should he call you on?	What number should he call you on?	3487635	1472007203009	1472007203130	h	72
6814	73318	What number should he call you on?	What number should he call you on?	3487637	1472007203140	1472007203275	e	69
6814	73318	What number should he call you on?	What number should he call you on?	3487638	1472007203236	1472007203351	 	32
6814	73318	What number should he call you on?	What number should he call you on?	3487639	1472007203366	1472007203483	c	67
6814	73318	What number should he call you on?	What number should he call you on?	3487672	1472007203406	1472007203557	a	65
6814	73318	What number should he call you on?	What number should he call you on?	3487667	1472007203472	1472007203547	l	76
6814	73318	What number should he call you on?	What number should he call you on?	3487678	1472007203607	1472007203687	l	76
6814	73318	What number should he call you on?	What number should he call you on?	3487684	1472007203728	1472007203814	 	32
6814	73318	What number should he call you on?	What number should he call you on?	3487687	1472007203803	1472007203924	y	89
6814	73318	What number should he call you on?	What number should he call you on?	3487693	1472007203878	1472007204009	o	79
6814	73318	What number should he call you on?	What number should he call you on?	3487698	1472007204019	1472007204094	u	85
6814	73318	What number should he call you on?	What number should he call you on?	3487747	1472007204536	1472007204641	 	32
6814	73318	What number should he call you on?	What number should he call you on?	3487750	1472007204687	1472007204817	o	79
6814	73318	What number should he call you on?	What number should he call you on?	3487753	1472007204757	1472007204867	n	78
6814	73318	What number should he call you on?	What number should he call you on?	3487761	1472007205033	1472007205264	SHIFT	16
6814	73318	What number should he call you on?	What number should he call you on?	3487757	1472007205139	1472007205259	?	191
6814	73329	I will tell them.	i will tell them	3487918	1472007208930	1472007209005	i	73
6814	73329	I will tell them.	i will tell them	3487921	1472007209076	1472007209161	 	32
6814	73329	I will tell them.	i will tell them	3487927	1472007209116	1472007209214	w	87
6814	73329	I will tell them.	i will tell them	3487934	1472007209207	1472007209292	i	73
6814	73329	I will tell them.	i will tell them	3487940	1472007209377	1472007209447	l	76
6814	73329	I will tell them.	i will tell them	3487963	1472007209513	1472007209578	l	76
6814	73329	I will tell them.	i will tell them	3487967	1472007209638	1472007209744	 	32
6814	73329	I will tell them.	i will tell them	3487972	1472007209704	1472007209816	t	84
6814	73329	I will tell them.	i will tell them	3487975	1472007209799	1472007209894	e	69
6814	73329	I will tell them.	i will tell them	3487981	1472007209925	1472007210030	l	76
6814	73329	I will tell them.	i will tell them	3487992	1472007210101	1472007210191	l	76
6814	73329	I will tell them.	i will tell them	3487993	1472007210251	1472007210362	 	32
6814	73329	I will tell them.	i will tell them	3487994	1472007210316	1472007210447	t	84
6814	73329	I will tell them.	i will tell them	3487995	1472007210407	1472007210502	h	72
6814	73329	I will tell them.	i will tell them	3488007	1472007210482	1472007210578	m	69
6814	73333	Go for the dollars.	Go for the dollars.	3488153	1472007213938	1472007214043	g	71
6814	73333	Go for the dollars.	Go for the dollars.	3488157	1472007214214	1472007214309	BKSP	8
6814	73333	Go for the dollars.	Go for the dollars.	3488162	1472007214339	1472007214495	SHIFT	16
6814	73333	Go for the dollars.	Go for the dollars.	3488168	1472007214415	1472007214515	G	71
6814	73333	Go for the dollars.	Go for the dollars.	3488176	1472007214596	1472007214676	o	79
6814	73333	Go for the dollars.	Go for the dollars.	3488184	1472007214771	1472007214868	 	32
6814	73333	Go for the dollars.	Go for the dollars.	3488205	1472007214857	1472007214947	f	70
6814	73333	Go for the dollars.	Go for the dollars.	3488207	1472007214927	1472007215017	o	79
6814	73333	Go for the dollars.	Go for the dollars.	3488212	1472007215002	1472007215083	r	82
6814	73333	Go for the dollars.	Go for the dollars.	3488214	1472007215078	1472007215198	 	32
6814	73333	Go for the dollars.	Go for the dollars.	3488217	1472007215173	1472007215303	t	84
6814	73333	Go for the dollars.	Go for the dollars.	3488225	1472007215238	1472007215384	h	72
6814	73333	Go for the dollars.	Go for the dollars.	3488227	1472007215349	1472007215444	e	69
6814	73333	Go for the dollars.	Go for the dollars.	3488228	1472007215394	1472007215479	 	32
6814	73333	Go for the dollars.	Go for the dollars.	3488229	1472007215514	1472007215609	d	68
6814	73333	Go for the dollars.	Go for the dollars.	3488231	1472007215550	1472007215635	o	79
6814	73333	Go for the dollars.	Go for the dollars.	3488233	1472007215715	1472007215775	l	76
6814	73333	Go for the dollars.	Go for the dollars.	3488241	1472007215841	1472007215913	l	76
6814	73333	Go for the dollars.	Go for the dollars.	3488243	1472007215906	1472007215986	a	65
6814	73333	Go for the dollars.	Go for the dollars.	3488247	1472007215991	1472007216150	r	82
6814	73333	Go for the dollars.	Go for the dollars.	3488253	1472007216092	1472007216213	s	83
6814	73333	Go for the dollars.	Go for the dollars.	3488254	1472007216142	1472007216237	.	190
6814	73337	We could do it at my house.	We could do it at my house.	3488635	1472007218693	1472007218914	SHIFT	16
6814	73337	We could do it at my house.	We could do it at my house.	3488638	1472007218834	1472007218949	W	87
6814	73337	We could do it at my house.	We could do it at my house.	3488640	1472007219030	1472007219133	e	69
6814	73337	We could do it at my house.	We could do it at my house.	3488643	1472007219125	1472007219215	 	32
6814	73337	We could do it at my house.	We could do it at my house.	3488649	1472007219180	1472007219295	c	67
6814	73337	We could do it at my house.	We could do it at my house.	3488633	1472007219250	1472007219326	o	79
6814	73337	We could do it at my house.	We could do it at my house.	3488637	1472007219386	1472007219471	u	85
6814	73337	We could do it at my house.	We could do it at my house.	3488641	1472007219527	1472007219632	l	76
6814	73337	We could do it at my house.	We could do it at my house.	3488644	1472007219627	1472007219732	d	68
6814	73337	We could do it at my house.	We could do it at my house.	3488647	1472007219712	1472007219818	 	32
6814	73337	We could do it at my house.	We could do it at my house.	3488651	1472007219833	1472007219918	d	68
6814	73337	We could do it at my house.	We could do it at my house.	3488636	1472007219893	1472007219970	o	79
6814	73337	We could do it at my house.	We could do it at my house.	3488639	1472007220030	1472007220119	 	32
6814	73337	We could do it at my house.	We could do it at my house.	3488642	1472007220164	1472007220260	i	73
6814	73337	We could do it at my house.	We could do it at my house.	3488645	1472007220235	1472007220343	t	84
6814	73337	We could do it at my house.	We could do it at my house.	3488648	1472007220335	1472007220455	 	32
6814	73337	We could do it at my house.	We could do it at my house.	3488527	1472007220430	1472007220602	a	65
6814	73337	We could do it at my house.	We could do it at my house.	3488532	1472007220536	1472007220672	t	84
6814	73337	We could do it at my house.	We could do it at my house.	3488541	1472007220637	1472007220727	 	32
6814	73337	We could do it at my house.	We could do it at my house.	3488547	1472007220792	1472007220887	m	77
6814	73337	We could do it at my house.	We could do it at my house.	3488554	1472007220862	1472007220953	y	89
6814	73337	We could do it at my house.	We could do it at my house.	3488560	1472007220958	1472007221060	 	32
6814	73337	We could do it at my house.	We could do it at my house.	3488523	1472007221053	1472007221149	h	72
6814	73337	We could do it at my house.	We could do it at my house.	3488534	1472007221109	1472007221189	o	79
6814	73337	We could do it at my house.	We could do it at my house.	3488540	1472007221264	1472007221349	u	85
6814	73337	We could do it at my house.	We could do it at my house.	3488543	1472007221314	1472007221455	s	83
6814	73337	We could do it at my house.	We could do it at my house.	3488552	1472007221380	1472007221500	e	69
6814	73337	We could do it at my house.	We could do it at my house.	3488634	1472007221485	1472007221575	.	190
6814	73349	Don't they have some conflicts here?	Don't they have some conflicts here?	3488784	1472007230349	1472007230655	SHIFT	16
6814	73349	Don't they have some conflicts here?	Don't they have some conflicts here?	3488781	1472007230495	1472007230625	D	68
6814	73349	Don't they have some conflicts here?	Don't they have some conflicts here?	3488788	1472007230675	1472007230801	o	79
6814	73349	Don't they have some conflicts here?	Don't they have some conflicts here?	3488791	1472007230746	1472007230856	n	78
6814	73349	Don't they have some conflicts here?	Don't they have some conflicts here?	3488793	1472007230942	1472007231057	'	222
6814	73349	Don't they have some conflicts here?	Don't they have some conflicts here?	3488799	1472007231052	1472007231143	t	84
6814	73349	Don't they have some conflicts here?	Don't they have some conflicts here?	3488800	1472007231158	1472007231268	 	32
6814	73349	Don't they have some conflicts here?	Don't they have some conflicts here?	3488801	1472007231228	1472007231343	t	84
6814	73349	Don't they have some conflicts here?	Don't they have some conflicts here?	3488802	1472007231293	1472007231424	h	72
6814	73349	Don't they have some conflicts here?	Don't they have some conflicts here?	3488803	1472007231374	1472007231469	e	69
6814	73349	Don't they have some conflicts here?	Don't they have some conflicts here?	3488804	1472007231529	1472007231630	y	89
6814	73349	Don't they have some conflicts here?	Don't they have some conflicts here?	3488833	1472007231595	1472007231690	 	32
6814	73349	Don't they have some conflicts here?	Don't they have some conflicts here?	3488837	1472007231700	1472007231775	h	72
6814	73349	Don't they have some conflicts here?	Don't they have some conflicts here?	3488838	1472007231770	1472007231916	a	65
6814	73349	Don't they have some conflicts here?	Don't they have some conflicts here?	3488839	1472007231972	1472007232082	v	86
6814	73349	Don't they have some conflicts here?	Don't they have some conflicts here?	3488840	1472007232087	1472007232222	e	69
6814	73349	Don't they have some conflicts here?	Don't they have some conflicts here?	3488842	1472007232238	1472007232353	 	32
6814	73349	Don't they have some conflicts here?	Don't they have some conflicts here?	3488848	1472007232348	1472007232463	s	83
6814	73349	Don't they have some conflicts here?	Don't they have some conflicts here?	3488850	1472007232428	1472007232559	o	79
6814	73349	Don't they have some conflicts here?	Don't they have some conflicts here?	3488853	1472007232489	1472007232614	m	77
6814	73349	Don't they have some conflicts here?	Don't they have some conflicts here?	3488856	1472007232564	1472007232654	e	69
6814	73349	Don't they have some conflicts here?	Don't they have some conflicts here?	3488861	1472007232669	1472007232780	 	32
6814	73349	Don't they have some conflicts here?	Don't they have some conflicts here?	3488874	1472007232765	1472007232870	c	67
6814	73349	Don't they have some conflicts here?	Don't they have some conflicts here?	3488875	1472007232830	1472007232955	o	79
6814	73349	Don't they have some conflicts here?	Don't they have some conflicts here?	3488877	1472007232895	1472007233021	n	78
6814	73349	Don't they have some conflicts here?	Don't they have some conflicts here?	3488879	1472007233011	1472007233101	f	70
6814	73349	Don't they have some conflicts here?	Don't they have some conflicts here?	3488881	1472007233086	1472007233186	l	76
6814	73349	Don't they have some conflicts here?	Don't they have some conflicts here?	3488884	1472007233267	1472007233372	i	73
6814	73349	Don't they have some conflicts here?	Don't they have some conflicts here?	3488904	1472007233317	1472007233433	c	67
6814	73349	Don't they have some conflicts here?	Don't they have some conflicts here?	3488908	1472007233543	1472007233729	t	84
6814	73349	Don't they have some conflicts here?	Don't they have some conflicts here?	3488912	1472007233674	1472007233809	s	83
6814	73349	Don't they have some conflicts here?	Don't they have some conflicts here?	3488915	1472007233859	1472007233950	 	32
6814	73349	Don't they have some conflicts here?	Don't they have some conflicts here?	3488920	1472007233960	1472007234053	h	72
6814	73349	Don't they have some conflicts here?	Don't they have some conflicts here?	3488937	1472007234045	1472007234156	e	69
6814	73349	Don't they have some conflicts here?	Don't they have some conflicts here?	3488939	1472007234136	1472007234291	r	82
6814	73349	Don't they have some conflicts here?	Don't they have some conflicts here?	3488943	1472007234241	1472007234346	e	69
6814	73349	Don't they have some conflicts here?	Don't they have some conflicts here?	3488946	1472007234302	1472007234436	SHIFT	16
6814	73349	Don't they have some conflicts here?	Don't they have some conflicts here?	3488949	1472007234352	1472007234462	?	191
6814	73354	Best of luck and stay in touch.	Best of luck and stay in touch.	3489327	1472007241151	1472007241368	SHIFT	16
6814	73354	Best of luck and stay in touch.	Best of luck and stay in touch.	3489329	1472007241272	1472007241383	B	66
6814	73354	Best of luck and stay in touch.	Best of luck and stay in touch.	3489333	1472007241458	1472007241679	e	69
6814	73354	Best of luck and stay in touch.	Best of luck and stay in touch.	3489337	1472007241584	1472007241724	s	83
6814	73354	Best of luck and stay in touch.	Best of luck and stay in touch.	3489341	1472007241784	1472007241900	t	84
6814	73354	Best of luck and stay in touch.	Best of luck and stay in touch.	3489259	1472007241830	1472007241921	 	32
6814	73354	Best of luck and stay in touch.	Best of luck and stay in touch.	3489261	1472007241955	1472007242065	o	79
6814	73354	Best of luck and stay in touch.	Best of luck and stay in touch.	3489263	1472007242036	1472007242126	f	70
6814	73354	Best of luck and stay in touch.	Best of luck and stay in touch.	3489265	1472007242141	1472007242246	 	32
6814	73354	Best of luck and stay in touch.	Best of luck and stay in touch.	3489267	1472007242327	1472007242427	l	76
6814	73354	Best of luck and stay in touch.	Best of luck and stay in touch.	3489269	1472007242523	1472007242618	u	85
6814	73354	Best of luck and stay in touch.	Best of luck and stay in touch.	3489275	1472007242623	1472007242729	c	67
6814	73354	Best of luck and stay in touch.	Best of luck and stay in touch.	3489276	1472007242713	1472007242789	k	75
6814	73354	Best of luck and stay in touch.	Best of luck and stay in touch.	3489277	1472007242864	1472007242974	 	32
6814	73354	Best of luck and stay in touch.	Best of luck and stay in touch.	3489278	1472007242954	1472007243040	t	84
6814	73354	Best of luck and stay in touch.	Best of luck and stay in touch.	3489279	1472007243190	1472007243271	BKSP	8
6814	73354	Best of luck and stay in touch.	Best of luck and stay in touch.	3489280	1472007243306	1472007243412	a	65
6814	73354	Best of luck and stay in touch.	Best of luck and stay in touch.	3489301	1472007243401	1472007243512	n	78
6814	73354	Best of luck and stay in touch.	Best of luck and stay in touch.	3489305	1472007243507	1472007243622	d	68
6814	73354	Best of luck and stay in touch.	Best of luck and stay in touch.	3489307	1472007243597	1472007243703	 	32
6814	73354	Best of luck and stay in touch.	Best of luck and stay in touch.	3489310	1472007243858	1472007243968	s	83
6814	73354	Best of luck and stay in touch.	Best of luck and stay in touch.	3489314	1472007244029	1472007244114	t	84
6814	73354	Best of luck and stay in touch.	Best of luck and stay in touch.	3489317	1472007244165	1472007244280	a	65
6814	73354	Best of luck and stay in touch.	Best of luck and stay in touch.	3489332	1472007244325	1472007244415	y	89
6814	73354	Best of luck and stay in touch.	Best of luck and stay in touch.	3489336	1472007244466	1472007244576	 	32
6814	73354	Best of luck and stay in touch.	Best of luck and stay in touch.	3489340	1472007244642	1472007244767	i	73
6814	73354	Best of luck and stay in touch.	Best of luck and stay in touch.	3489343	1472007244722	1472007244827	n	78
6814	73354	Best of luck and stay in touch.	Best of luck and stay in touch.	3489345	1472007244888	1472007244994	 	32
6814	73354	Best of luck and stay in touch.	Best of luck and stay in touch.	3489352	1472007244953	1472007245058	t	84
6814	73354	Best of luck and stay in touch.	Best of luck and stay in touch.	3489354	1472007245033	1472007245118	o	79
6814	73354	Best of luck and stay in touch.	Best of luck and stay in touch.	3489356	1472007245194	1472007245264	u	85
6814	73354	Best of luck and stay in touch.	Best of luck and stay in touch.	3489358	1472007245214	1472007245314	c	67
6814	73354	Best of luck and stay in touch.	Best of luck and stay in touch.	3489360	1472007245334	1472007245419	h	72
6814	73354	Best of luck and stay in touch.	Best of luck and stay in touch.	3489363	1472007245530	1472007245641	.	190
6814	73363	Hope your trip to Florida was good.	Hope your trip to Florida was good.	3489482	1472007249145	1472007249441	SHIFT	16
6814	73363	Hope your trip to Florida was good.	Hope your trip to Florida was good.	3489484	1472007249316	1472007249446	H	72
6814	73363	Hope your trip to Florida was good.	Hope your trip to Florida was good.	3489486	1472007249517	1472007249602	o	79
6814	73363	Hope your trip to Florida was good.	Hope your trip to Florida was good.	3489488	1472007249693	1472007249828	p	80
6814	73363	Hope your trip to Florida was good.	Hope your trip to Florida was good.	3489490	1472007249783	1472007249889	e	69
6814	73363	Hope your trip to Florida was good.	Hope your trip to Florida was good.	3489492	1472007249909	1472007250019	 	32
6814	73363	Hope your trip to Florida was good.	Hope your trip to Florida was good.	3489499	1472007249989	1472007250089	y	89
6814	73363	Hope your trip to Florida was good.	Hope your trip to Florida was good.	3489503	1472007250084	1472007250200	o	79
6814	73363	Hope your trip to Florida was good.	Hope your trip to Florida was good.	3489507	1472007250170	1472007250275	u	85
6814	73363	Hope your trip to Florida was good.	Hope your trip to Florida was good.	3489512	1472007250346	1472007250451	r	82
6814	73363	Hope your trip to Florida was good.	Hope your trip to Florida was good.	3489517	1472007250416	1472007250531	 	32
6814	73363	Hope your trip to Florida was good.	Hope your trip to Florida was good.	3489522	1472007250536	1472007250707	t	84
6814	73363	Hope your trip to Florida was good.	Hope your trip to Florida was good.	3489624	1472007250647	1472007250777	r	82
6814	73363	Hope your trip to Florida was good.	Hope your trip to Florida was good.	3489626	1472007250714	1472007250838	i	73
6814	73363	Hope your trip to Florida was good.	Hope your trip to Florida was good.	3489628	1472007250808	1472007250938	p	80
6814	73363	Hope your trip to Florida was good.	Hope your trip to Florida was good.	3489630	1472007251039	1472007251154	 	32
6814	73363	Hope your trip to Florida was good.	Hope your trip to Florida was good.	3489632	1472007251214	1472007251315	t	84
6814	73363	Hope your trip to Florida was good.	Hope your trip to Florida was good.	3489685	1472007251290	1472007251375	o	79
6814	73363	Hope your trip to Florida was good.	Hope your trip to Florida was good.	3489690	1472007251440	1472007251541	 	32
6814	73363	Hope your trip to Florida was good.	Hope your trip to Florida was good.	3489693	1472007251511	1472007251601	f	70
6814	73363	Hope your trip to Florida was good.	Hope your trip to Florida was good.	3489695	1472007251571	1472007251671	l	76
6814	73363	Hope your trip to Florida was good.	Hope your trip to Florida was good.	3489697	1472007251752	1472007251812	o	79
6814	73363	Hope your trip to Florida was good.	Hope your trip to Florida was good.	3489698	1472007251924	1472007252007	BKSP	8
6814	73363	Hope your trip to Florida was good.	Hope your trip to Florida was good.	3489700	1472007252073	1472007252118	BKSP	8
6814	73363	Hope your trip to Florida was good.	Hope your trip to Florida was good.	3489702	1472007252184	1472007252304	BKSP	8
6814	73363	Hope your trip to Florida was good.	Hope your trip to Florida was good.	3489705	1472007252369	1472007252586	SHIFT	16
6814	73363	Hope your trip to Florida was good.	Hope your trip to Florida was good.	3489704	1472007252465	1472007252565	F	70
6814	73363	Hope your trip to Florida was good.	Hope your trip to Florida was good.	3489708	1472007252595	1472007252690	l	76
6814	73363	Hope your trip to Florida was good.	Hope your trip to Florida was good.	3489711	1472007252776	1472007252871	o	79
6814	73363	Hope your trip to Florida was good.	Hope your trip to Florida was good.	3489715	1472007252851	1472007252931	r	82
6814	73363	Hope your trip to Florida was good.	Hope your trip to Florida was good.	3489718	1472007253022	1472007253068	i	73
6814	73363	Hope your trip to Florida was good.	Hope your trip to Florida was good.	3489604	1472007253057	1472007253194	d	68
6814	73363	Hope your trip to Florida was good.	Hope your trip to Florida was good.	3489606	1472007253354	1472007253489	a	65
6814	73363	Hope your trip to Florida was good.	Hope your trip to Florida was good.	3489608	1472007253514	1472007253629	 	32
6814	73363	Hope your trip to Florida was good.	Hope your trip to Florida was good.	3489610	1472007253640	1472007253810	w	87
6814	73363	Hope your trip to Florida was good.	Hope your trip to Florida was good.	3489613	1472007253750	1472007253911	a	65
6814	73363	Hope your trip to Florida was good.	Hope your trip to Florida was good.	3489629	1472007253871	1472007253996	s	83
6814	73363	Hope your trip to Florida was good.	Hope your trip to Florida was good.	3489631	1472007253951	1472007254051	 	32
6814	73363	Hope your trip to Florida was good.	Hope your trip to Florida was good.	3489633	1472007254076	1472007254162	g	71
6814	73363	Hope your trip to Florida was good.	Hope your trip to Florida was good.	3489635	1472007254132	1472007254207	o	79
6814	73363	Hope your trip to Florida was good.	Hope your trip to Florida was good.	3489637	1472007254267	1472007254337	o	79
6814	73363	Hope your trip to Florida was good.	Hope your trip to Florida was good.	3489641	1472007254343	1472007254435	d	68
6814	73363	Hope your trip to Florida was good.	Hope your trip to Florida was good.	3489634	1472007254428	1472007254508	.	190
6814	73369	We cleaned him up as well as we could.	We cleaned him up as well as we could	3489761	1472007256884	1472007257265	SHIFT	16
6814	73369	We cleaned him up as well as we could.	We cleaned him up as well as we could	3489758	1472007257095	1472007257230	W	87
6814	73369	We cleaned him up as well as we could.	We cleaned him up as well as we could	3489763	1472007257336	1472007257431	e	69
6814	73369	We cleaned him up as well as we could.	We cleaned him up as well as we could	3489765	1472007257461	1472007257562	 	32
6814	73369	We cleaned him up as well as we could.	We cleaned him up as well as we could	3489767	1472007257532	1472007257647	c	67
6814	73369	We cleaned him up as well as we could.	We cleaned him up as well as we could	3489771	1472007257622	1472007257747	l	76
6814	73369	We cleaned him up as well as we could.	We cleaned him up as well as we could	3489772	1472007257707	1472007257903	e	69
6814	73369	We cleaned him up as well as we could.	We cleaned him up as well as we could	3489773	1472007257808	1472007257938	a	65
6814	73369	We cleaned him up as well as we could.	We cleaned him up as well as we could	3489774	1472007257878	1472007258008	n	78
6814	73369	We cleaned him up as well as we could.	We cleaned him up as well as we could	3489776	1472007258004	1472007258094	e	69
6814	73369	We cleaned him up as well as we could.	We cleaned him up as well as we could	3489778	1472007258159	1472007258264	d	68
6814	73369	We cleaned him up as well as we could.	We cleaned him up as well as we could	3489795	1472007258255	1472007258374	 	32
6814	73369	We cleaned him up as well as we could.	We cleaned him up as well as we could	3489798	1472007258365	1472007258478	h	72
6814	73369	We cleaned him up as well as we could.	We cleaned him up as well as we could	3489802	1472007258471	1472007258591	i	73
6814	73369	We cleaned him up as well as we could.	We cleaned him up as well as we could	3489805	1472007258531	1472007258641	m	77
6814	73369	We cleaned him up as well as we could.	We cleaned him up as well as we could	3489809	1472007258702	1472007258792	 	32
6814	73369	We cleaned him up as well as we could.	We cleaned him up as well as we could	3489812	1472007258847	1472007258922	u	85
6814	73369	We cleaned him up as well as we could.	We cleaned him up as well as we could	3490188	1472007258978	1472007259063	p	80
6814	73369	We cleaned him up as well as we could.	We cleaned him up as well as we could	3490190	1472007259133	1472007259234	 	32
6814	73369	We cleaned him up as well as we could.	We cleaned him up as well as we could	3490192	1472007259173	1472007259294	a	65
6814	73369	We cleaned him up as well as we could.	We cleaned him up as well as we could	3490193	1472007259255	1472007259364	s	83
6814	73369	We cleaned him up as well as we could.	We cleaned him up as well as we could	3489839	1472007259314	1472007259430	 	32
6814	73369	We cleaned him up as well as we could.	We cleaned him up as well as we could	3489841	1472007259455	1472007259573	w	87
6814	73369	We cleaned him up as well as we could.	We cleaned him up as well as we could	3489843	1472007259520	1472007259620	e	69
6814	73369	We cleaned him up as well as we could.	We cleaned him up as well as we could	3489845	1472007259566	1472007259643	l	76
6814	73369	We cleaned him up as well as we could.	We cleaned him up as well as we could	3489847	1472007259706	1472007259786	l	76
6814	73369	We cleaned him up as well as we could.	We cleaned him up as well as we could	3489850	1472007259841	1472007259937	 	32
6814	73369	We cleaned him up as well as we could.	We cleaned him up as well as we could	3489861	1472007259877	1472007260017	a	65
6814	73369	We cleaned him up as well as we could.	We cleaned him up as well as we could	3489862	1472007259957	1472007260078	s	83
6814	73369	We cleaned him up as well as we could.	We cleaned him up as well as we could	3489864	1472007260037	1472007260142	 	32
6814	73369	We cleaned him up as well as we could.	We cleaned him up as well as we could	3489865	1472007260173	1472007260298	w	87
6814	73369	We cleaned him up as well as we could.	We cleaned him up as well as we could	3489867	1472007260238	1472007260358	e	69
6814	73369	We cleaned him up as well as we could.	We cleaned him up as well as we could	3490020	1472007260313	1472007260363	l	76
6814	73369	We cleaned him up as well as we could.	We cleaned him up as well as we could	3490023	1472007260610	1472007260710	BKSP	8
6814	73369	We cleaned him up as well as we could.	We cleaned him up as well as we could	3490026	1472007260825	1472007260936	 	32
6814	73369	We cleaned him up as well as we could.	We cleaned him up as well as we could	3490028	1472007260976	1472007261071	c	67
6814	73369	We cleaned him up as well as we could.	We cleaned him up as well as we could	3490030	1472007261031	1472007261122	o	79
6814	73369	We cleaned him up as well as we could.	We cleaned him up as well as we could	3490033	1472007261187	1472007261262	u	85
6814	73369	We cleaned him up as well as we could.	We cleaned him up as well as we could	3490037	1472007261333	1472007261433	l	76
6814	73369	We cleaned him up as well as we could.	We cleaned him up as well as we could	3489895	1472007261418	1472007261498	d	68
6814	73376	I tried that to no avail.	I tried that to no avail.	3490153	1472007267077	1472007267323	SHIFT	16
6814	73376	I tried that to no avail.	I tried that to no avail.	3490154	1472007267222	1472007267327	I	73
6814	73376	I tried that to no avail.	I tried that to no avail.	3490156	1472007267403	1472007267523	 	32
6814	73376	I tried that to no avail.	I tried that to no avail.	3490161	1472007267463	1472007267679	t	84
6814	73376	I tried that to no avail.	I tried that to no avail.	3490167	1472007267589	1472007267735	r	82
6814	73376	I tried that to no avail.	I tried that to no avail.	3490183	1472007267729	1472007267869	i	73
6814	73376	I tried that to no avail.	I tried that to no avail.	3490185	1472007267845	1472007267930	e	69
6814	73376	I tried that to no avail.	I tried that to no avail.	3490187	1472007268011	1472007268092	d	68
6814	73376	I tried that to no avail.	I tried that to no avail.	3490189	1472007268086	1472007268196	 	32
6814	73376	I tried that to no avail.	I tried that to no avail.	3490191	1472007268181	1472007268291	t	84
6814	73376	I tried that to no avail.	I tried that to no avail.	3490195	1472007268252	1472007268357	h	72
6814	73376	I tried that to no avail.	I tried that to no avail.	3490197	1472007268332	1472007268493	a	65
6814	73376	I tried that to no avail.	I tried that to no avail.	3490203	1472007268432	1472007268543	t	84
6814	73376	I tried that to no avail.	I tried that to no avail.	3490205	1472007268478	1472007268563	 	32
6814	73376	I tried that to no avail.	I tried that to no avail.	3490210	1472007268603	1472007268683	t	84
6814	73376	I tried that to no avail.	I tried that to no avail.	3490242	1472007268628	1472007268719	o	79
6814	73376	I tried that to no avail.	I tried that to no avail.	3490245	1472007268774	1472007268864	 	32
6814	73376	I tried that to no avail.	I tried that to no avail.	3490248	1472007269040	1472007269131	n	78
6814	73376	I tried that to no avail.	I tried that to no avail.	3490250	1472007269187	1472007269302	o	79
6814	73376	I tried that to no avail.	I tried that to no avail.	3490254	1472007269387	1472007269493	 	32
6814	73376	I tried that to no avail.	I tried that to no avail.	3490257	1472007269578	1472007269698	a	65
6814	73376	I tried that to no avail.	I tried that to no avail.	3490285	1472007269779	1472007269844	v	86
6814	73376	I tried that to no avail.	I tried that to no avail.	3490288	1472007270161	1472007270281	a	65
6814	73376	I tried that to no avail.	I tried that to no avail.	3490291	1472007270356	1472007270457	i	73
6814	73376	I tried that to no avail.	I tried that to no avail.	3490293	1472007270562	1472007270648	l	76
6814	73376	I tried that to no avail.	I tried that to no avail.	3490295	1472007270753	1472007270833	.	190
6814	73383	When I do, we will eat.	When I do, we will eat.	3490408	1472007274253	1472007274499	SHIFT	16
6814	73383	When I do, we will eat.	When I do, we will eat.	3490407	1472007274349	1472007274474	W	87
6814	73383	When I do, we will eat.	When I do, we will eat.	3490409	1472007274590	1472007274697	h	72
6814	73383	When I do, we will eat.	When I do, we will eat.	3490411	1472007274690	1472007274806	e	69
6814	73383	When I do, we will eat.	When I do, we will eat.	3490413	1472007274790	1472007274871	n	78
6814	73383	When I do, we will eat.	When I do, we will eat.	3490415	1472007274941	1472007275031	 	32
6814	73383	When I do, we will eat.	When I do, we will eat.	3490449	1472007275011	1472007275147	SHIFT	16
6814	73383	When I do, we will eat.	When I do, we will eat.	3490452	1472007275102	1472007275177	I	73
6814	73383	When I do, we will eat.	When I do, we will eat.	3490455	1472007275253	1472007275365	 	32
6814	73383	When I do, we will eat.	When I do, we will eat.	3490458	1472007275358	1472007275458	d	68
6814	73383	When I do, we will eat.	When I do, we will eat.	3490460	1472007275483	1472007275589	o	79
6814	73383	When I do, we will eat.	When I do, we will eat.	3490462	1472007276031	1472007276141	,	188
6814	73383	When I do, we will eat.	When I do, we will eat.	3490508	1472007276186	1472007276272	 	32
6814	73383	When I do, we will eat.	When I do, we will eat.	3490510	1472007276337	1472007276417	SHIFT	16
6814	73383	When I do, we will eat.	When I do, we will eat.	3490512	1472007276568	1472007276726	w	87
6814	73383	When I do, we will eat.	When I do, we will eat.	3490513	1472007276658	1472007276799	e	69
6814	73383	When I do, we will eat.	When I do, we will eat.	3490514	1472007277141	1472007277256	 	32
6814	73383	When I do, we will eat.	When I do, we will eat.	3490515	1472007277292	1472007277392	w	87
6814	73383	When I do, we will eat.	When I do, we will eat.	3490524	1472007277397	1472007277472	i	73
6814	73383	When I do, we will eat.	When I do, we will eat.	3490527	1472007277578	1472007277653	l	76
6814	73383	When I do, we will eat.	When I do, we will eat.	3490531	1472007277713	1472007277779	l	76
6814	73383	When I do, we will eat.	When I do, we will eat.	3490533	1472007277834	1472007277952	 	32
6814	73383	When I do, we will eat.	When I do, we will eat.	3490549	1472007277854	1472007278020	e	69
6814	73383	When I do, we will eat.	When I do, we will eat.	3490553	1472007277945	1472007278060	a	65
6814	73383	When I do, we will eat.	When I do, we will eat.	3490557	1472007278100	1472007278205	t	84
6814	73383	When I do, we will eat.	When I do, we will eat.	3490560	1472007278150	1472007278226	.	190
6814	73391	You just can't work without me can you?	You just can't work without me can you?	3490771	1472007281730	1472007282343	SHIFT	16
6814	73391	You just can't work without me can you?	You just can't work without me can you?	3490772	1472007282253	1472007282348	Y	89
6814	73391	You just can't work without me can you?	You just can't work without me can you?	3490773	1472007282428	1472007282508	o	79
6814	73391	You just can't work without me can you?	You just can't work without me can you?	3490774	1472007282599	1472007282679	u	85
6814	73391	You just can't work without me can you?	You just can't work without me can you?	3490775	1472007282765	1472007282875	 	32
6814	73391	You just can't work without me can you?	You just can't work without me can you?	3490777	1472007282905	1472007282991	j	74
6814	73391	You just can't work without me can you?	You just can't work without me can you?	3490790	1472007283081	1472007283177	u	85
6814	73391	You just can't work without me can you?	You just can't work without me can you?	3490792	1472007283126	1472007283263	s	83
6814	73391	You just can't work without me can you?	You just can't work without me can you?	3490793	1472007283208	1472007283318	t	84
6814	73391	You just can't work without me can you?	You just can't work without me can you?	3490794	1472007283283	1472007283383	 	32
6814	73391	You just can't work without me can you?	You just can't work without me can you?	3490795	1472007283414	1472007283544	c	67
6814	73391	You just can't work without me can you?	You just can't work without me can you?	3490984	1472007283474	1472007283604	a	65
6814	73391	You just can't work without me can you?	You just can't work without me can you?	3490982	1472007283499	1472007283584	n	78
6814	73391	You just can't work without me can you?	You just can't work without me can you?	3490986	1472007283795	1472007283891	t	84
6814	73391	You just can't work without me can you?	You just can't work without me can you?	3490988	1472007283895	1472007284002	 	32
6814	73391	You just can't work without me can you?	You just can't work without me can you?	3490990	1472007284780	1472007284865	BKSP	8
6814	73391	You just can't work without me can you?	You just can't work without me can you?	3490992	1472007285051	1472007285166	BKSP	8
6814	73391	You just can't work without me can you?	You just can't work without me can you?	3490993	1472007285583	1472007285694	'	222
6814	73391	You just can't work without me can you?	You just can't work without me can you?	3490995	1472007285704	1472007285829	t	84
6814	73391	You just can't work without me can you?	You just can't work without me can you?	3490998	1472007285849	1472007285965	 	32
6814	73391	You just can't work without me can you?	You just can't work without me can you?	3491036	1472007285940	1472007286080	w	87
6814	73391	You just can't work without me can you?	You just can't work without me can you?	3491037	1472007286050	1472007286175	o	79
6814	73391	You just can't work without me can you?	You just can't work without me can you?	3491041	1472007286191	1472007286341	r	82
6814	73391	You just can't work without me can you?	You just can't work without me can you?	3491045	1472007286346	1472007286492	k	75
6814	73391	You just can't work without me can you?	You just can't work without me can you?	3491046	1472007286633	1472007286783	 	32
6814	73391	You just can't work without me can you?	You just can't work without me can you?	3491047	1472007286844	1472007286969	w	87
6814	73391	You just can't work without me can you?	You just can't work without me can you?	3491080	1472007287029	1472007287175	i	73
6814	73391	You just can't work without me can you?	You just can't work without me can you?	3491083	1472007287160	1472007287346	t	84
6814	73391	You just can't work without me can you?	You just can't work without me can you?	3491087	1472007287273	1472007287431	h	72
6814	73391	You just can't work without me can you?	You just can't work without me can you?	3491092	1472007287421	1472007287547	o	79
6814	73391	You just can't work without me can you?	You just can't work without me can you?	3491095	1472007287672	1472007287817	u	85
6814	73391	You just can't work without me can you?	You just can't work without me can you?	3490994	1472007287813	1472007287969	t	84
6814	73391	You just can't work without me can you?	You just can't work without me can you?	3490997	1472007287983	1472007288094	 	32
6814	73391	You just can't work without me can you?	You just can't work without me can you?	3491000	1472007288621	1472007288762	m	77
6814	73391	You just can't work without me can you?	You just can't work without me can you?	3491002	1472007288787	1472007288927	e	69
6814	73391	You just can't work without me can you?	You just can't work without me can you?	3491004	1472007288898	1472007289043	 	32
6814	73391	You just can't work without me can you?	You just can't work without me can you?	3491008	1472007289114	1472007289244	c	67
6814	73391	You just can't work without me can you?	You just can't work without me can you?	3491027	1472007289179	1472007289350	a	65
6814	73391	You just can't work without me can you?	You just can't work without me can you?	3491030	1472007289269	1472007289360	n	78
6814	73391	You just can't work without me can you?	You just can't work without me can you?	3491033	1472007289450	1472007289586	 	32
6814	73391	You just can't work without me can you?	You just can't work without me can you?	3491039	1472007289568	1472007289706	y	89
6814	73391	You just can't work without me can you?	You just can't work without me can you?	3491044	1472007289686	1472007289842	o	79
6814	73391	You just can't work without me can you?	You just can't work without me can you?	3491052	1472007289837	1472007289927	u	85
6814	73391	You just can't work without me can you?	You just can't work without me can you?	3491055	1472007290058	1472007290258	SHIFT	16
6814	73391	You just can't work without me can you?	You just can't work without me can you?	3491059	1472007290128	1472007290268	?	191
6814	73401	See what concerts we have for you in your city.	See what concerts we have for you in your city.	3491187	1472007293407	1472007293798	SHIFT	16
6814	73401	See what concerts we have for you in your city.	See what concerts we have for you in your city.	3491193	1472007293663	1472007293803	S	83
6814	73401	See what concerts we have for you in your city.	See what concerts we have for you in your city.	3491197	1472007293889	1472007293979	e	69
6814	73401	See what concerts we have for you in your city.	See what concerts we have for you in your city.	3491201	1472007294035	1472007294136	e	69
6814	73401	See what concerts we have for you in your city.	See what concerts we have for you in your city.	3491203	1472007294125	1472007294230	 	32
6814	73401	See what concerts we have for you in your city.	See what concerts we have for you in your city.	3491217	1472007294180	1472007294276	w	87
6814	73401	See what concerts we have for you in your city.	See what concerts we have for you in your city.	3491220	1472007294366	1472007294476	h	72
6814	73401	See what concerts we have for you in your city.	See what concerts we have for you in your city.	3491223	1472007294451	1472007294627	a	65
6814	73401	See what concerts we have for you in your city.	See what concerts we have for you in your city.	3491225	1472007294557	1472007294667	t	84
6814	73401	See what concerts we have for you in your city.	See what concerts we have for you in your city.	3491227	1472007294637	1472007294747	 	32
6814	73401	See what concerts we have for you in your city.	See what concerts we have for you in your city.	3491229	1472007294758	1472007294878	c	67
6814	73401	See what concerts we have for you in your city.	See what concerts we have for you in your city.	3491247	1472007294798	1472007294928	o	79
6814	73401	See what concerts we have for you in your city.	See what concerts we have for you in your city.	3491249	1472007294868	1472007295009	n	78
6814	73401	See what concerts we have for you in your city.	See what concerts we have for you in your city.	3491252	1472007294954	1472007295049	c	67
6814	73401	See what concerts we have for you in your city.	See what concerts we have for you in your city.	3491254	1472007295109	1472007295275	e	69
6814	73401	See what concerts we have for you in your city.	See what concerts we have for you in your city.	3491256	1472007295205	1472007295320	r	82
6814	73401	See what concerts we have for you in your city.	See what concerts we have for you in your city.	3491258	1472007295406	1472007295541	t	84
6814	73401	See what concerts we have for you in your city.	See what concerts we have for you in your city.	3491282	1472007295511	1472007295619	s	83
6814	73401	See what concerts we have for you in your city.	See what concerts we have for you in your city.	3491284	1472007295602	1472007295709	 	32
6814	73401	See what concerts we have for you in your city.	See what concerts we have for you in your city.	3491287	1472007295697	1472007295832	w	87
6814	73401	See what concerts we have for you in your city.	See what concerts we have for you in your city.	3491292	1472007295792	1472007295887	e	69
6814	73401	See what concerts we have for you in your city.	See what concerts we have for you in your city.	3491296	1472007295842	1472007295938	 	32
6814	73401	See what concerts we have for you in your city.	See what concerts we have for you in your city.	3491298	1472007295993	1472007296113	h	72
6814	73401	See what concerts we have for you in your city.	See what concerts we have for you in your city.	3491313	1472007296053	1472007296189	a	65
6814	73401	See what concerts we have for you in your city.	See what concerts we have for you in your city.	3491317	1472007296139	1472007296279	v	86
6814	73401	See what concerts we have for you in your city.	See what concerts we have for you in your city.	3491322	1472007296239	1472007296344	e	69
6814	73401	See what concerts we have for you in your city.	See what concerts we have for you in your city.	3491323	1472007296299	1472007296401	 	32
6814	73401	See what concerts we have for you in your city.	See what concerts we have for you in your city.	3491325	1472007296385	1472007296495	f	70
6814	73401	See what concerts we have for you in your city.	See what concerts we have for you in your city.	3491339	1472007296470	1472007296577	o	79
6814	73401	See what concerts we have for you in your city.	See what concerts we have for you in your city.	3491342	1472007296566	1472007296681	r	82
6814	73401	See what concerts we have for you in your city.	See what concerts we have for you in your city.	3491345	1472007296646	1472007296771	 	32
6814	73401	See what concerts we have for you in your city.	See what concerts we have for you in your city.	3491347	1472007296787	1472007296907	y	89
6814	73401	See what concerts we have for you in your city.	See what concerts we have for you in your city.	3491350	1472007296883	1472007296984	o	79
6814	73401	See what concerts we have for you in your city.	See what concerts we have for you in your city.	3491379	1472007296978	1472007297078	u	85
6814	73401	See what concerts we have for you in your city.	See what concerts we have for you in your city.	3491383	1472007297058	1472007297153	 	32
6814	73401	See what concerts we have for you in your city.	See what concerts we have for you in your city.	3491389	1472007297198	1472007297299	i	73
6814	73401	See what concerts we have for you in your city.	See what concerts we have for you in your city.	3491392	1472007297254	1472007297339	n	78
6814	73401	See what concerts we have for you in your city.	See what concerts we have for you in your city.	3491397	1472007297384	1472007297507	 	32
6814	73401	See what concerts we have for you in your city.	See what concerts we have for you in your city.	3491417	1472007297500	1472007297620	y	89
6814	73401	See what concerts we have for you in your city.	See what concerts we have for you in your city.	3491419	1472007297635	1472007297743	o	79
6814	73401	See what concerts we have for you in your city.	See what concerts we have for you in your city.	3491421	1472007297736	1472007297826	u	85
6814	73401	See what concerts we have for you in your city.	See what concerts we have for you in your city.	3491424	1472007297896	1472007298012	r	82
6814	73401	See what concerts we have for you in your city.	See what concerts we have for you in your city.	3491427	1472007298017	1472007298139	 	32
6814	73401	See what concerts we have for you in your city.	See what concerts we have for you in your city.	3491449	1472007298132	1472007298253	c	67
6814	73401	See what concerts we have for you in your city.	See what concerts we have for you in your city.	3491452	1472007298228	1472007298323	i	73
6814	73401	See what concerts we have for you in your city.	See what concerts we have for you in your city.	3491455	1472007298364	1472007298464	t	84
6814	73401	See what concerts we have for you in your city.	See what concerts we have for you in your city.	3491457	1472007298539	1472007298634	y	89
6814	73401	See what concerts we have for you in your city.	See what concerts we have for you in your city.	3491459	1472007298660	1472007298750	.	190
6814	73406	I am walking in now.	I am walking in now,	3491568	1472007301974	1472007302210	SHIFT	16
6814	73406	I am walking in now.	I am walking in now,	3491571	1472007302125	1472007302220	I	73
6814	73406	I am walking in now.	I am walking in now,	3491575	1472007302295	1472007302396	 	32
6814	73406	I am walking in now.	I am walking in now,	3491580	1472007302346	1472007302441	a	65
6814	73406	I am walking in now.	I am walking in now,	3491584	1472007302471	1472007302582	m	77
6814	73406	I am walking in now.	I am walking in now,	3491587	1472007302652	1472007302762	 	32
6814	73406	I am walking in now.	I am walking in now,	3491632	1472007302697	1472007302908	w	87
6814	73406	I am walking in now.	I am walking in now,	3491633	1472007302823	1472007302964	a	65
6814	73406	I am walking in now.	I am walking in now,	3491635	1472007302868	1472007303024	l	76
6814	73406	I am walking in now.	I am walking in now,	3491637	1472007303175	1472007303305	i	73
6814	73406	I am walking in now.	I am walking in now,	3491641	1472007303627	1472007303737	BKSP	8
6814	73406	I am walking in now.	I am walking in now,	3491647	1472007303888	1472007303998	k	75
6814	73406	I am walking in now.	I am walking in now,	3491651	1472007304134	1472007304274	i	73
6814	73406	I am walking in now.	I am walking in now,	3491668	1472007304219	1472007304350	n	78
6814	73406	I am walking in now.	I am walking in now,	3491670	1472007304320	1472007304420	g	71
6814	73406	I am walking in now.	I am walking in now,	3491673	1472007304450	1472007304571	 	32
6814	73406	I am walking in now.	I am walking in now,	3491678	1472007304812	1472007304947	i	73
6814	73406	I am walking in now.	I am walking in now,	3491683	1472007304887	1472007305003	n	78
6814	73406	I am walking in now.	I am walking in now,	3491686	1472007305058	1472007305133	 	32
6814	73406	I am walking in now.	I am walking in now,	3491702	1472007305203	1472007305309	n	78
6814	73406	I am walking in now.	I am walking in now,	3491706	1472007305249	1472007305364	o	79
6814	73406	I am walking in now.	I am walking in now,	3491712	1472007305319	1472007305415	w	87
6814	73406	I am walking in now.	I am walking in now,	3491717	1472007305435	1472007305485	,	188
6814	73413	I know you changed it.	I know you changed it.	3491815	1472007308700	1472007308875	SHIFT	16
6814	73413	I know you changed it.	I know you changed it.	3491817	1472007308821	1472007308906	I	73
6814	73413	I know you changed it.	I know you changed it.	3491819	1472007308971	1472007309080	 	32
6814	73413	I know you changed it.	I know you changed it.	3491821	1472007309072	1472007309197	k	75
6814	73413	I know you changed it.	I know you changed it.	3491822	1472007309152	1472007309252	n	78
6814	73413	I know you changed it.	I know you changed it.	3491823	1472007309277	1472007309383	o	79
6814	73413	I know you changed it.	I know you changed it.	3491831	1472007309318	1472007309403	w	87
6814	73413	I know you changed it.	I know you changed it.	3491834	1472007309448	1472007309574	 	32
6814	73413	I know you changed it.	I know you changed it.	3491837	1472007309564	1472007309679	y	89
6814	73413	I know you changed it.	I know you changed it.	3491840	1472007309665	1472007309777	o	79
6814	73413	I know you changed it.	I know you changed it.	3491842	1472007309766	1472007309853	u	85
6814	73413	I know you changed it.	I know you changed it.	3491849	1472007309845	1472007309945	 	32
6814	73413	I know you changed it.	I know you changed it.	3491851	1472007309975	1472007310086	c	67
6814	73413	I know you changed it.	I know you changed it.	3491854	1472007310016	1472007310116	h	72
6814	73413	I know you changed it.	I know you changed it.	3491856	1472007310126	1472007310232	a	65
6814	73413	I know you changed it.	I know you changed it.	3491858	1472007310181	1472007310297	n	78
6814	73413	I know you changed it.	I know you changed it.	3491860	1472007310327	1472007310437	g	71
6814	73413	I know you changed it.	I know you changed it.	3491875	1472007310402	1472007310503	e	69
6814	73413	I know you changed it.	I know you changed it.	3491879	1472007310578	1472007310668	d	68
6814	73413	I know you changed it.	I know you changed it.	3491885	1472007310629	1472007310693	 	32
6814	73413	I know you changed it.	I know you changed it.	3491890	1472007310739	1472007310830	i	73
6814	73413	I know you changed it.	I know you changed it.	3491894	1472007310825	1472007310909	t	84
6814	73413	I know you changed it.	I know you changed it.	3491899	1472007310935	1472007311005	.	190
6814	73420	Parking at the walk site will be free.	Parkinga t th ewalk site will be free.	3492018	1472007313566	1472007314098	SHIFT	16
6814	73420	Parking at the walk site will be free.	Parkinga t th ewalk site will be free.	3492013	1472007313907	1472007314053	P	80
6814	73420	Parking at the walk site will be free.	Parkinga t th ewalk site will be free.	3492022	1472007314244	1472007314434	a	65
6814	73420	Parking at the walk site will be free.	Parkinga t th ewalk site will be free.	3492025	1472007314349	1472007314525	r	82
6814	73420	Parking at the walk site will be free.	Parkinga t th ewalk site will be free.	3492027	1472007314480	1472007314565	k	75
6814	73420	Parking at the walk site will be free.	Parkinga t th ewalk site will be free.	3492029	1472007314670	1472007314787	i	73
6814	73420	Parking at the walk site will be free.	Parkinga t th ewalk site will be free.	3492030	1472007314731	1472007314841	n	78
6814	73420	Parking at the walk site will be free.	Parkinga t th ewalk site will be free.	3492031	1472007314781	1472007314876	g	71
6814	73420	Parking at the walk site will be free.	Parkinga t th ewalk site will be free.	3492035	1472007314886	1472007315047	a	65
6814	73420	Parking at the walk site will be free.	Parkinga t th ewalk site will be free.	3492033	1472007314907	1472007314999	 	32
6814	73420	Parking at the walk site will be free.	Parkinga t th ewalk site will be free.	3492037	1472007314992	1472007315112	t	84
6814	73420	Parking at the walk site will be free.	Parkinga t th ewalk site will be free.	3492039	1472007315077	1472007315179	 	32
6814	73420	Parking at the walk site will be free.	Parkinga t th ewalk site will be free.	3492054	1472007315168	1472007315278	t	84
6814	73420	Parking at the walk site will be free.	Parkinga t th ewalk site will be free.	3492058	1472007315233	1472007315374	h	72
6814	73420	Parking at the walk site will be free.	Parkinga t th ewalk site will be free.	3492064	1472007315339	1472007315444	 	32
6814	73420	Parking at the walk site will be free.	Parkinga t th ewalk site will be free.	3492061	1472007315364	1472007315409	e	69
6814	73420	Parking at the walk site will be free.	Parkinga t th ewalk site will be free.	3492066	1472007315479	1472007315670	w	87
6814	73420	Parking at the walk site will be free.	Parkinga t th ewalk site will be free.	3492092	1472007315590	1472007315755	l	65
6814	73420	Parking at the walk site will be free.	Parkinga t th ewalk site will be free.	3492095	1472007315701	1472007315830	k	75
6814	73420	Parking at the walk site will be free.	Parkinga t th ewalk site will be free.	3492099	1472007315901	1472007316027	 	32
6814	73420	Parking at the walk site will be free.	Parkinga t th ewalk site will be free.	3492105	1472007316011	1472007316127	s	83
6814	73420	Parking at the walk site will be free.	Parkinga t th ewalk site will be free.	3492112	1472007316147	1472007316253	i	73
6814	73420	Parking at the walk site will be free.	Parkinga t th ewalk site will be free.	3492118	1472007316283	1472007316433	t	84
6814	73420	Parking at the walk site will be free.	Parkinga t th ewalk site will be free.	3492139	1472007316378	1472007316483	e	69
6814	73420	Parking at the walk site will be free.	Parkinga t th ewalk site will be free.	3492142	1472007316448	1472007316559	 	32
6814	73420	Parking at the walk site will be free.	Parkinga t th ewalk site will be free.	3492144	1472007316584	1472007316671	w	87
6814	73420	Parking at the walk site will be free.	Parkinga t th ewalk site will be free.	3492146	1472007316654	1472007316739	i	73
6814	73420	Parking at the walk site will be free.	Parkinga t th ewalk site will be free.	3492147	1472007316830	1472007316905	l	76
6814	73420	Parking at the walk site will be free.	Parkinga t th ewalk site will be free.	3492148	1472007316966	1472007317031	l	76
6814	73420	Parking at the walk site will be free.	Parkinga t th ewalk site will be free.	3492155	1472007317101	1472007317209	 	32
6814	73420	Parking at the walk site will be free.	Parkinga t th ewalk site will be free.	3492157	1472007317146	1472007317247	b	66
6814	73420	Parking at the walk site will be free.	Parkinga t th ewalk site will be free.	3492160	1472007317202	1472007317307	e	69
6814	73420	Parking at the walk site will be free.	Parkinga t th ewalk site will be free.	3492163	1472007317282	1472007317413	 	32
6814	73420	Parking at the walk site will be free.	Parkinga t th ewalk site will be free.	3492165	1472007317433	1472007317538	f	70
6814	73420	Parking at the walk site will be free.	Parkinga t th ewalk site will be free.	3492199	1472007317608	1472007317754	r	82
6814	73420	Parking at the walk site will be free.	Parkinga t th ewalk site will be free.	3492200	1472007317694	1472007317804	e	69
6814	73420	Parking at the walk site will be free.	Parkinga t th ewalk site will be free.	3492201	1472007317844	1472007317950	e	69
6814	73420	Parking at the walk site will be free.	Parkinga t th ewalk site will be free.	3492203	1472007318468	1472007318569	.	190
