PARTICIPANT_ID	TEST_SECTION_ID	SENTENCE	USER_INPUT	KEYSTROKE_ID	PRESS_TIME	RELEASE_TIME	LETTER	KEYCODE
6895	74049	I hope everything worked out okay with your rent.	I hope everything worked out ok with your rent.	3521517	1472007960918	1472007961735	SHIFT	16
6895	74049	I hope everything worked out okay with your rent.	I hope everything worked out ok with your rent.	3521520	1472007961666	1472007961789		73
6895	74049	I hope everything worked out okay with your rent.	I hope everything worked out ok with your rent.	3521525	1472007961805	1472007961912		32
6895	74049	I hope everything worked out okay with your rent.	I hope everything worked out ok with your rent.	3521529	1472007962529	1472007962621		72
6895	74049	I hope everything worked out okay with your rent.	I hope everything worked out ok with your rent.	3521535	1472007962684	1472007962817		79
6895	74049	I hope everything worked out okay with your rent.	I hope everything worked out ok with your rent.	3521564	1472007962774	1472007962907		80
6895	74049	I hope everything worked out okay with your rent.	I hope everything worked out ok with your rent.	3521566	1472007962953	1472007963045		69
6895	74049	I hope everything worked out okay with your rent.	I hope everything worked out ok with your rent.	3521571	1472007963043	1472007963112		32
6895	74049	I hope everything worked out okay with your rent.	I hope everything worked out ok with your rent.	3521573	1472007963247	1472007963378		69
6895	74049	I hope everything worked out okay with your rent.	I hope everything worked out ok with your rent.	3521575	1472007963412	1472007963541		86
6895	74049	I hope everything worked out okay with your rent.	I hope everything worked out ok with your rent.	3521603	1472007963510	1472007963674		69
6895	74049	I hope everything worked out okay with your rent.	I hope everything worked out ok with your rent.	3521608	1472007963633	1472007963734		82
6895	74049	I hope everything worked out okay with your rent.	I hope everything worked out ok with your rent.	3521615	1472007963714	1472007963792		89
6895	74049	I hope everything worked out okay with your rent.	I hope everything worked out ok with your rent.	3521619	1472007963835	1472007963932		84
6895	74049	I hope everything worked out okay with your rent.	I hope everything worked out ok with your rent.	3521622	1472007963922	1472007963997		72
6895	74049	I hope everything worked out okay with your rent.	I hope everything worked out ok with your rent.	3521651	1472007963974	1472007964113		73
6895	74049	I hope everything worked out okay with your rent.	I hope everything worked out ok with your rent.	3521656	1472007964086	1472007964166		78
6895	74049	I hope everything worked out okay with your rent.	I hope everything worked out ok with your rent.	3521659	1472007964140	1472007964231		71
6895	74049	I hope everything worked out okay with your rent.	I hope everything worked out ok with your rent.	3521662	1472007964262	1472007964372		32
6895	74049	I hope everything worked out okay with your rent.	I hope everything worked out ok with your rent.	3521664	1472007964517	1472007964614		87
6895	74049	I hope everything worked out okay with your rent.	I hope everything worked out ok with your rent.	3521676	1472007964609	1472007964689		79
6895	74049	I hope everything worked out okay with your rent.	I hope everything worked out ok with your rent.	3521678	1472007964725	1472007964778		82
6895	74049	I hope everything worked out okay with your rent.	I hope everything worked out ok with your rent.	3521680	1472007964810	1472007964884		75
6895	74049	I hope everything worked out okay with your rent.	I hope everything worked out ok with your rent.	3521683	1472007964965	1472007965050		69
6895	74049	I hope everything worked out okay with your rent.	I hope everything worked out ok with your rent.	3521692	1472007965103	1472007965214		68
6895	74049	I hope everything worked out okay with your rent.	I hope everything worked out ok with your rent.	3521743	1472007965209	1472007965311		32
6895	74049	I hope everything worked out okay with your rent.	I hope everything worked out ok with your rent.	3521745	1472007965323	1472007965465		79
6895	74049	I hope everything worked out okay with your rent.	I hope everything worked out ok with your rent.	3521747	1472007965424	1472007965519		85
6895	74049	I hope everything worked out okay with your rent.	I hope everything worked out ok with your rent.	3521749	1472007965549	1472007965645		84
6895	74049	I hope everything worked out okay with your rent.	I hope everything worked out ok with your rent.	3521751	1472007965692	1472007965784		32
6895	74049	I hope everything worked out okay with your rent.	I hope everything worked out ok with your rent.	3521754	1472007965940	1472007966090		79
6895	74049	I hope everything worked out okay with your rent.	I hope everything worked out ok with your rent.	3521775	1472007966032	1472007966154		75
6895	74049	I hope everything worked out okay with your rent.	I hope everything worked out ok with your rent.	3521778	1472007966171	1472007966263		32
6895	74049	I hope everything worked out okay with your rent.	I hope everything worked out ok with your rent.	3521782	1472007966419	1472007966520		87
6895	74049	I hope everything worked out okay with your rent.	I hope everything worked out ok with your rent.	3521786	1472007966504	1472007966616		73
6895	74049	I hope everything worked out okay with your rent.	I hope everything worked out ok with your rent.	3521790	1472007966602	1472007966691		84
6895	74049	I hope everything worked out okay with your rent.	I hope everything worked out ok with your rent.	3521814	1472007966659	1472007966767		72
6895	74049	I hope everything worked out okay with your rent.	I hope everything worked out ok with your rent.	3521817	1472007966793	1472007966899		32
6895	74049	I hope everything worked out okay with your rent.	I hope everything worked out ok with your rent.	3521819	1472007966910	1472007966985		89
6895	74049	I hope everything worked out okay with your rent.	I hope everything worked out ok with your rent.	3521820	1472007966975	1472007967103		79
6895	74049	I hope everything worked out okay with your rent.	I hope everything worked out ok with your rent.	3521821	1472007967061	1472007967132		85
6895	74049	I hope everything worked out okay with your rent.	I hope everything worked out ok with your rent.	3521872	1472007967119	1472007967210		82
6895	74049	I hope everything worked out okay with your rent.	I hope everything worked out ok with your rent.	3521877	1472007967275	1472007967361		32
6895	74049	I hope everything worked out okay with your rent.	I hope everything worked out ok with your rent.	3521882	1472007967677	1472007967937		82
6895	74049	I hope everything worked out okay with your rent.	I hope everything worked out ok with your rent.	3521886	1472007967757	1472007967938		69
6895	74049	I hope everything worked out okay with your rent.	I hope everything worked out ok with your rent.	3521888	1472007967979	1472007968065		78
6895	74049	I hope everything worked out okay with your rent.	I hope everything worked out ok with your rent.	3521891	1472007968070	1472007968172		84
6895	74049	I hope everything worked out okay with your rent.	I hope everything worked out ok with your rent.	3521898	1472007968359	1472007968432		190
6895	74075	The phones should be on now.	The phone should be one now.	3522253	1472007973893	1472007974156	SHIFT	16
6895	74075	The phones should be on now.	The phone should be one now.	3522258	1472007974070	1472007974209		84
6895	74075	The phones should be on now.	The phone should be one now.	3522265	1472007974220	1472007974310		72
6895	74075	The phones should be on now.	The phone should be one now.	3522271	1472007974344	1472007974447		69
6895	74075	The phones should be on now.	The phone should be one now.	3522276	1472007974431	1472007974526		32
6895	74075	The phones should be on now.	The phone should be one now.	3522279	1472007974774	1472007974865		80
6895	74075	The phones should be on now.	The phone should be one now.	3522287	1472007974921	1472007975012		72
6895	74075	The phones should be on now.	The phone should be one now.	3522289	1472007975024	1472007975167		79
6895	74075	The phones should be on now.	The phone should be one now.	3522291	1472007975130	1472007975227		78
6895	74075	The phones should be on now.	The phone should be one now.	3522293	1472007975216	1472007975322		69
6895	74075	The phones should be on now.	The phone should be one now.	3522295	1472007975333	1472007975434		32
6895	74075	The phones should be on now.	The phone should be one now.	3522330	1472007975430	1472007975536		83
6895	74075	The phones should be on now.	The phone should be one now.	3522336	1472007975527	1472007975611		72
6895	74075	The phones should be on now.	The phone should be one now.	3522343	1472007975601	1472007975724		79
6895	74075	The phones should be on now.	The phone should be one now.	3522351	1472007975698	1472007975788		85
6895	74075	The phones should be on now.	The phone should be one now.	3522354	1472007975805	1472007975901		76
6895	74075	The phones should be on now.	The phone should be one now.	3522358	1472007975953	1472007976046		68
6895	74075	The phones should be on now.	The phone should be one now.	3522383	1472007976041	1472007976118		32
6895	74075	The phones should be on now.	The phone should be one now.	3522386	1472007976199	1472007976273		66
6895	74075	The phones should be on now.	The phone should be one now.	3522389	1472007976268	1472007976380		69
6895	74075	The phones should be on now.	The phone should be one now.	3522391	1472007976376	1472007976484		32
6895	74075	The phones should be on now.	The phone should be one now.	3522394	1472007976500	1472007976634		79
6895	74075	The phones should be on now.	The phone should be one now.	3522424	1472007976598	1472007976709		78
6895	74075	The phones should be on now.	The phone should be one now.	3522425	1472007976734	1472007976803		69
6895	74075	The phones should be on now.	The phone should be one now.	3522426	1472007976912	1472007976981		32
6895	74075	The phones should be on now.	The phone should be one now.	3522427	1472007977109	1472007977189		78
6895	74075	The phones should be on now.	The phone should be one now.	3522428	1472007977210	1472007977290		79
6895	74075	The phones should be on now.	The phone should be one now.	3522429	1472007977296	1472007977417		87
6895	74075	The phones should be on now.	The phone should be one now.	3522459	1472007977519	1472007977604		190
6895	74080	Foreigners have now fled the country since fighting erupted.	Foreigners have now fled the country since fighting erupted.	3523006	1472007988531	1472007989210	SHIFT	16
6895	74080	Foreigners have now fled the country since fighting erupted.	Foreigners have now fled the country since fighting erupted.	3523010	1472007989135	1472007989259		70
6895	74080	Foreigners have now fled the country since fighting erupted.	Foreigners have now fled the country since fighting erupted.	3523013	1472007989275	1472007989372		79
6895	74080	Foreigners have now fled the country since fighting erupted.	Foreigners have now fled the country since fighting erupted.	3523017	1472007989350	1472007989446		82
6895	74080	Foreigners have now fled the country since fighting erupted.	Foreigners have now fled the country since fighting erupted.	3523024	1472007989538	1472007989633		69
6895	74080	Foreigners have now fled the country since fighting erupted.	Foreigners have now fled the country since fighting erupted.	3523033	1472007990025	1472007990131		73
6895	74080	Foreigners have now fled the country since fighting erupted.	Foreigners have now fled the country since fighting erupted.	3523069	1472007990291	1472007990383		71
6895	74080	Foreigners have now fled the country since fighting erupted.	Foreigners have now fled the country since fighting erupted.	3523071	1472007990399	1472007990478		78
6895	74080	Foreigners have now fled the country since fighting erupted.	Foreigners have now fled the country since fighting erupted.	3523072	1472007990531	1472007990653		69
6895	74080	Foreigners have now fled the country since fighting erupted.	Foreigners have now fled the country since fighting erupted.	3523074	1472007990700	1472007990829		82
6895	74080	Foreigners have now fled the country since fighting erupted.	Foreigners have now fled the country since fighting erupted.	3523075	1472007990881	1472007991009		83
6895	74080	Foreigners have now fled the country since fighting erupted.	Foreigners have now fled the country since fighting erupted.	3523096	1472007991034	1472007991124		32
6895	74080	Foreigners have now fled the country since fighting erupted.	Foreigners have now fled the country since fighting erupted.	3523098	1472007991223	1472007991323		72
6895	74080	Foreigners have now fled the country since fighting erupted.	Foreigners have now fled the country since fighting erupted.	3523101	1472007991319	1472007991414		65
6895	74080	Foreigners have now fled the country since fighting erupted.	Foreigners have now fled the country since fighting erupted.	3523104	1472007991467	1472007991547		86
6895	74080	Foreigners have now fled the country since fighting erupted.	Foreigners have now fled the country since fighting erupted.	3523108	1472007991572	1472007991669		69
6895	74080	Foreigners have now fled the country since fighting erupted.	Foreigners have now fled the country since fighting erupted.	3523137	1472007991673	1472007991764		32
6895	74080	Foreigners have now fled the country since fighting erupted.	Foreigners have now fled the country since fighting erupted.	3523141	1472007992009	1472007992097		78
6895	74080	Foreigners have now fled the country since fighting erupted.	Foreigners have now fled the country since fighting erupted.	3523146	1472007992106	1472007992207		79
6895	74080	Foreigners have now fled the country since fighting erupted.	Foreigners have now fled the country since fighting erupted.	3523150	1472007992240	1472007992347		87
6895	74080	Foreigners have now fled the country since fighting erupted.	Foreigners have now fled the country since fighting erupted.	3523153	1472007992363	1472007992454		32
6895	74080	Foreigners have now fled the country since fighting erupted.	Foreigners have now fled the country since fighting erupted.	3523182	1472007992567	1472007992668		70
6895	74080	Foreigners have now fled the country since fighting erupted.	Foreigners have now fled the country since fighting erupted.	3523185	1472007992692	1472007992772		76
6895	74080	Foreigners have now fled the country since fighting erupted.	Foreigners have now fled the country since fighting erupted.	3523188	1472007992767	1472007992868		69
6895	74080	Foreigners have now fled the country since fighting erupted.	Foreigners have now fled the country since fighting erupted.	3523189	1472007992925	1472007993037		68
6895	74080	Foreigners have now fled the country since fighting erupted.	Foreigners have now fled the country since fighting erupted.	3523235	1472007993015	1472007993111		32
6895	74080	Foreigners have now fled the country since fighting erupted.	Foreigners have now fled the country since fighting erupted.	3523239	1472007993173	1472007993269		84
6895	74080	Foreigners have now fled the country since fighting erupted.	Foreigners have now fled the country since fighting erupted.	3523242	1472007993263	1472007993354		72
6895	74080	Foreigners have now fled the country since fighting erupted.	Foreigners have now fled the country since fighting erupted.	3523247	1472007993339	1472007993440		69
6895	74080	Foreigners have now fled the country since fighting erupted.	Foreigners have now fled the country since fighting erupted.	3523248	1472007993446	1472007993546		32
6895	74080	Foreigners have now fled the country since fighting erupted.	Foreigners have now fled the country since fighting erupted.	3523250	1472007993750	1472007993847		67
6895	74080	Foreigners have now fled the country since fighting erupted.	Foreigners have now fled the country since fighting erupted.	3523269	1472007993863	1472007993974		79
6895	74080	Foreigners have now fled the country since fighting erupted.	Foreigners have now fled the country since fighting erupted.	3523272	1472007993905	1472007994017		85
6895	74080	Foreigners have now fled the country since fighting erupted.	Foreigners have now fled the country since fighting erupted.	3523273	1472007994158	1472007994248		78
6895	74080	Foreigners have now fled the country since fighting erupted.	Foreigners have now fled the country since fighting erupted.	3523274	1472007994281	1472007994362		84
6895	74080	Foreigners have now fled the country since fighting erupted.	Foreigners have now fled the country since fighting erupted.	3523276	1472007994413	1472007994520		82
6895	74080	Foreigners have now fled the country since fighting erupted.	Foreigners have now fled the country since fighting erupted.	3523341	1472007994509	1472007994617		89
6895	74080	Foreigners have now fled the country since fighting erupted.	Foreigners have now fled the country since fighting erupted.	3523343	1472007994650	1472007994751		32
6895	74080	Foreigners have now fled the country since fighting erupted.	Foreigners have now fled the country since fighting erupted.	3523345	1472007996245	1472007996334		83
6895	74080	Foreigners have now fled the country since fighting erupted.	Foreigners have now fled the country since fighting erupted.	3523348	1472007996346	1472007996452		73
6895	74080	Foreigners have now fled the country since fighting erupted.	Foreigners have now fled the country since fighting erupted.	3523351	1472007996395	1472007996495		78
6895	74080	Foreigners have now fled the country since fighting erupted.	Foreigners have now fled the country since fighting erupted.	3523394	1472007996491	1472007996596		67
6895	74080	Foreigners have now fled the country since fighting erupted.	Foreigners have now fled the country since fighting erupted.	3523398	1472007996549	1472007996666		69
6895	74080	Foreigners have now fled the country since fighting erupted.	Foreigners have now fled the country since fighting erupted.	3523401	1472007996636	1472007996730		32
6895	74080	Foreigners have now fled the country since fighting erupted.	Foreigners have now fled the country since fighting erupted.	3523403	1472007997245	1472007997335		70
6895	74080	Foreigners have now fled the country since fighting erupted.	Foreigners have now fled the country since fighting erupted.	3523405	1472007997331	1472007997432		73
6895	74080	Foreigners have now fled the country since fighting erupted.	Foreigners have now fled the country since fighting erupted.	3523434	1472007997428	1472007997519		71
6895	74080	Foreigners have now fled the country since fighting erupted.	Foreigners have now fled the country since fighting erupted.	3523436	1472007997506	1472007997592		72
6895	74080	Foreigners have now fled the country since fighting erupted.	Foreigners have now fled the country since fighting erupted.	3523439	1472007997656	1472007997765		84
6895	74080	Foreigners have now fled the country since fighting erupted.	Foreigners have now fled the country since fighting erupted.	3523443	1472007997826	1472007997968		73
6895	74080	Foreigners have now fled the country since fighting erupted.	Foreigners have now fled the country since fighting erupted.	3523446	1472007997906	1472007998022		78
6895	74080	Foreigners have now fled the country since fighting erupted.	Foreigners have now fled the country since fighting erupted.	3523450	1472007998075	1472007998181		71
6895	74080	Foreigners have now fled the country since fighting erupted.	Foreigners have now fled the country since fighting erupted.	3523513	1472007998216	1472007998312		32
6895	74080	Foreigners have now fled the country since fighting erupted.	Foreigners have now fled the country since fighting erupted.	3523519	1472007998501	1472007998626		69
6895	74080	Foreigners have now fled the country since fighting erupted.	Foreigners have now fled the country since fighting erupted.	3523522	1472007998622	1472007998723		82
6895	74080	Foreigners have now fled the country since fighting erupted.	Foreigners have now fled the country since fighting erupted.	3523528	1472007998817	1472007998912		85
6895	74080	Foreigners have now fled the country since fighting erupted.	Foreigners have now fled the country since fighting erupted.	3523532	1472007998989	1472007999100		80
6895	74080	Foreigners have now fled the country since fighting erupted.	Foreigners have now fled the country since fighting erupted.	3523575	1472007999153	1472007999269		84
6895	74080	Foreigners have now fled the country since fighting erupted.	Foreigners have now fled the country since fighting erupted.	3523579	1472007999255	1472007999350		69
6895	74080	Foreigners have now fled the country since fighting erupted.	Foreigners have now fled the country since fighting erupted.	3523582	1472007999413	1472007999500		68
6895	74080	Foreigners have now fled the country since fighting erupted.	Foreigners have now fled the country since fighting erupted.	3523587	1472008000032	1472008000116		190
6895	74111	I thought you were on 6.	I thought you were on 6.	3523901	1472008004894	1472008005200	SHIFT	16
6895	74111	I thought you were on 6.	I thought you were on 6.	3523902	1472008005131	1472008005237		73
6895	74111	I thought you were on 6.	I thought you were on 6.	3523903	1472008005227	1472008005322		32
6895	74111	I thought you were on 6.	I thought you were on 6.	3523904	1472008005347	1472008005449		84
6895	74111	I thought you were on 6.	I thought you were on 6.	3523905	1472008005426	1472008005506		72
6895	74111	I thought you were on 6.	I thought you were on 6.	3523907	1472008005542	1472008005654		79
6895	74111	I thought you were on 6.	I thought you were on 6.	3523966	1472008006430	1472008006546		85
6895	74111	I thought you were on 6.	I thought you were on 6.	3523967	1472008006575	1472008006666		71
6895	74111	I thought you were on 6.	I thought you were on 6.	3523968	1472008006655	1472008006756		72
6895	74111	I thought you were on 6.	I thought you were on 6.	3523970	1472008006753	1472008006866		84
6895	74111	I thought you were on 6.	I thought you were on 6.	3523993	1472008006854	1472008006965		32
6895	74111	I thought you were on 6.	I thought you were on 6.	3523997	1472008007103	1472008007204		89
6895	74111	I thought you were on 6.	I thought you were on 6.	3524000	1472008007172	1472008007320		79
6895	74111	I thought you were on 6.	I thought you were on 6.	3524002	1472008007258	1472008007380		85
6895	74111	I thought you were on 6.	I thought you were on 6.	3524006	1472008007336	1472008007445		32
6895	74111	I thought you were on 6.	I thought you were on 6.	3524007	1472008007491	1472008007623		87
6895	74111	I thought you were on 6.	I thought you were on 6.	3524035	1472008007559	1472008007681		69
6895	74111	I thought you were on 6.	I thought you were on 6.	3524041	1472008007723	1472008007858		82
6895	74111	I thought you were on 6.	I thought you were on 6.	3524047	1472008007809	1472008007950		69
6895	74111	I thought you were on 6.	I thought you were on 6.	3524052	1472008007938	1472008008050		32
6895	74111	I thought you were on 6.	I thought you were on 6.	3524056	1472008008067	1472008008172		79
6895	74111	I thought you were on 6.	I thought you were on 6.	3524150	1472008008167	1472008008291		78
6895	74111	I thought you were on 6.	I thought you were on 6.	3524154	1472008008296	1472008008408		32
6895	74111	I thought you were on 6.	I thought you were on 6.	3524158	1472008008705	1472008008780		54
6895	74111	I thought you were on 6.	I thought you were on 6.	3524162	1472008009180	1472008009265		190
6895	74119	We lost 1 player this week who picked Baltimore, sorry.	We lost one player this week who picked Balitimore, sorry.	3524829	1472008019999	1472008020733	SHIFT	16
6895	74119	We lost 1 player this week who picked Baltimore, sorry.	We lost one player this week who picked Balitimore, sorry.	3524833	1472008020691	1472008020830		87
6895	74119	We lost 1 player this week who picked Baltimore, sorry.	We lost one player this week who picked Balitimore, sorry.	3524837	1472008020767	1472008020888		69
6895	74119	We lost 1 player this week who picked Baltimore, sorry.	We lost one player this week who picked Balitimore, sorry.	3524840	1472008020914	1472008020998		32
6895	74119	We lost 1 player this week who picked Baltimore, sorry.	We lost one player this week who picked Balitimore, sorry.	3524843	1472008021140	1472008021214		76
6895	74119	We lost 1 player this week who picked Baltimore, sorry.	We lost one player this week who picked Balitimore, sorry.	3524846	1472008021278	1472008021369		79
6895	74119	We lost 1 player this week who picked Baltimore, sorry.	We lost one player this week who picked Balitimore, sorry.	3524867	1472008021364	1472008021471		83
6895	74119	We lost 1 player this week who picked Baltimore, sorry.	We lost one player this week who picked Balitimore, sorry.	3524872	1472008021497	1472008021598		84
6895	74119	We lost 1 player this week who picked Baltimore, sorry.	We lost one player this week who picked Balitimore, sorry.	3524875	1472008021593	1472008021699		32
6895	74119	We lost 1 player this week who picked Baltimore, sorry.	We lost one player this week who picked Balitimore, sorry.	3524877	1472008021711	1472008021850		79
6895	74119	We lost 1 player this week who picked Baltimore, sorry.	We lost one player this week who picked Balitimore, sorry.	3524880	1472008021825	1472008021903		78
6895	74119	We lost 1 player this week who picked Baltimore, sorry.	We lost one player this week who picked Balitimore, sorry.	3524883	1472008021909	1472008022012		69
6895	74119	We lost 1 player this week who picked Baltimore, sorry.	We lost one player this week who picked Balitimore, sorry.	3524922	1472008021995	1472008022090		32
6895	74119	We lost 1 player this week who picked Baltimore, sorry.	We lost one player this week who picked Balitimore, sorry.	3524925	1472008022159	1472008022308		80
6895	74119	We lost 1 player this week who picked Baltimore, sorry.	We lost one player this week who picked Balitimore, sorry.	3524927	1472008022287	1472008022405		76
6895	74119	We lost 1 player this week who picked Baltimore, sorry.	We lost one player this week who picked Balitimore, sorry.	3524928	1472008022428	1472008022535		65
6895	74119	We lost 1 player this week who picked Baltimore, sorry.	We lost one player this week who picked Balitimore, sorry.	3524930	1472008022836	1472008022922		89
6895	74119	We lost 1 player this week who picked Baltimore, sorry.	We lost one player this week who picked Balitimore, sorry.	3524933	1472008022963	1472008023070		69
6895	74119	We lost 1 player this week who picked Baltimore, sorry.	We lost one player this week who picked Balitimore, sorry.	3524940	1472008023011	1472008023145		82
6895	74119	We lost 1 player this week who picked Baltimore, sorry.	We lost one player this week who picked Balitimore, sorry.	3524943	1472008023184	1472008023275		32
6895	74119	We lost 1 player this week who picked Baltimore, sorry.	We lost one player this week who picked Balitimore, sorry.	3524946	1472008023291	1472008023389		84
6895	74119	We lost 1 player this week who picked Baltimore, sorry.	We lost one player this week who picked Balitimore, sorry.	3524949	1472008023387	1472008023446		72
6895	74119	We lost 1 player this week who picked Baltimore, sorry.	We lost one player this week who picked Balitimore, sorry.	3524952	1472008023528	1472008023559		73
6895	74119	We lost 1 player this week who picked Baltimore, sorry.	We lost one player this week who picked Balitimore, sorry.	3525012	1472008023677	1472008023768		32
6895	74119	We lost 1 player this week who picked Baltimore, sorry.	We lost one player this week who picked Balitimore, sorry.	3525015	1472008023956	1472008024099		87
6895	74119	We lost 1 player this week who picked Baltimore, sorry.	We lost one player this week who picked Balitimore, sorry.	3525017	1472008024342	1472008024416		69
6895	74119	We lost 1 player this week who picked Baltimore, sorry.	We lost one player this week who picked Balitimore, sorry.	3525020	1472008024467	1472008024569		69
6895	74119	We lost 1 player this week who picked Baltimore, sorry.	We lost one player this week who picked Balitimore, sorry.	3525056	1472008024558	1472008024712		75
6895	74119	We lost 1 player this week who picked Baltimore, sorry.	We lost one player this week who picked Balitimore, sorry.	3525059	1472008024670	1472008024766		32
6895	74119	We lost 1 player this week who picked Baltimore, sorry.	We lost one player this week who picked Balitimore, sorry.	3525063	1472008024874	1472008024982		87
6895	74119	We lost 1 player this week who picked Baltimore, sorry.	We lost one player this week who picked Balitimore, sorry.	3525066	1472008024972	1472008025094		72
6895	74119	We lost 1 player this week who picked Baltimore, sorry.	We lost one player this week who picked Balitimore, sorry.	3525070	1472008025069	1472008025196		79
6895	74119	We lost 1 player this week who picked Baltimore, sorry.	We lost one player this week who picked Balitimore, sorry.	3525075	1472008025220	1472008025310		32
6895	74119	We lost 1 player this week who picked Baltimore, sorry.	We lost one player this week who picked Balitimore, sorry.	3525091	1472008025385	1472008025451		80
6895	74119	We lost 1 player this week who picked Baltimore, sorry.	We lost one player this week who picked Balitimore, sorry.	3525092	1472008025502	1472008025592		73
6895	74119	We lost 1 player this week who picked Baltimore, sorry.	We lost one player this week who picked Balitimore, sorry.	3525094	1472008025664	1472008025759		67
6895	74119	We lost 1 player this week who picked Baltimore, sorry.	We lost one player this week who picked Balitimore, sorry.	3525097	1472008025788	1472008025856		75
6895	74119	We lost 1 player this week who picked Baltimore, sorry.	We lost one player this week who picked Balitimore, sorry.	3525101	1472008025868	1472008025985		69
6895	74119	We lost 1 player this week who picked Baltimore, sorry.	We lost one player this week who picked Balitimore, sorry.	3525130	1472008026029	1472008026131		68
6895	74119	We lost 1 player this week who picked Baltimore, sorry.	We lost one player this week who picked Balitimore, sorry.	3525135	1472008026127	1472008026232		32
6895	74119	We lost 1 player this week who picked Baltimore, sorry.	We lost one player this week who picked Balitimore, sorry.	3525138	1472008026227	1472008026415	SHIFT	16
6895	74119	We lost 1 player this week who picked Baltimore, sorry.	We lost one player this week who picked Balitimore, sorry.	3525143	1472008026347	1472008026421		66
6895	74119	We lost 1 player this week who picked Baltimore, sorry.	We lost one player this week who picked Balitimore, sorry.	3525149	1472008026500	1472008026584		65
6895	74119	We lost 1 player this week who picked Baltimore, sorry.	We lost one player this week who picked Balitimore, sorry.	3525202	1472008026553	1472008026660		76
6895	74119	We lost 1 player this week who picked Baltimore, sorry.	We lost one player this week who picked Balitimore, sorry.	3525208	1472008026666	1472008026746		73
6895	74119	We lost 1 player this week who picked Baltimore, sorry.	We lost one player this week who picked Balitimore, sorry.	3525212	1472008026757	1472008026861		84
6895	74119	We lost 1 player this week who picked Baltimore, sorry.	We lost one player this week who picked Balitimore, sorry.	3525216	1472008026926	1472008027007		73
6895	74119	We lost 1 player this week who picked Baltimore, sorry.	We lost one player this week who picked Balitimore, sorry.	3525220	1472008027285	1472008027375		77
6895	74119	We lost 1 player this week who picked Baltimore, sorry.	We lost one player this week who picked Balitimore, sorry.	3525223	1472008027576	1472008027661		79
6895	74119	We lost 1 player this week who picked Baltimore, sorry.	We lost one player this week who picked Balitimore, sorry.	3525256	1472008027672	1472008027779		82
6895	74119	We lost 1 player this week who picked Baltimore, sorry.	We lost one player this week who picked Balitimore, sorry.	3525259	1472008027731	1472008027887		69
6895	74119	We lost 1 player this week who picked Baltimore, sorry.	We lost one player this week who picked Balitimore, sorry.	3525265	1472008028277	1472008028385		188
6895	74119	We lost 1 player this week who picked Baltimore, sorry.	We lost one player this week who picked Balitimore, sorry.	3525270	1472008028353	1472008028454		32
6895	74119	We lost 1 player this week who picked Baltimore, sorry.	We lost one player this week who picked Balitimore, sorry.	3525275	1472008028531	1472008028617		83
6895	74119	We lost 1 player this week who picked Baltimore, sorry.	We lost one player this week who picked Balitimore, sorry.	3525300	1472008028612	1472008028697		79
6895	74119	We lost 1 player this week who picked Baltimore, sorry.	We lost one player this week who picked Balitimore, sorry.	3525303	1472008028724	1472008028793		82
6895	74119	We lost 1 player this week who picked Baltimore, sorry.	We lost one player this week who picked Balitimore, sorry.	3525306	1472008028851	1472008028946		82
6895	74119	We lost 1 player this week who picked Baltimore, sorry.	We lost one player this week who picked Balitimore, sorry.	3525308	1472008028970	1472008029045		89
6895	74119	We lost 1 player this week who picked Baltimore, sorry.	We lost one player this week who picked Balitimore, sorry.	3525309	1472008029243	1472008029348		190
6895	74144	But he added the list given was still incomplete.	But he added the list given was still incomplete.	3526082	1472008042085	1472008042267	SHIFT	16
6895	74144	But he added the list given was still incomplete.	But he added the list given was still incomplete.	3526087	1472008042206	1472008042330		66
6895	74144	But he added the list given was still incomplete.	But he added the list given was still incomplete.	3526094	1472008042304	1472008042415		85
6895	74144	But he added the list given was still incomplete.	But he added the list given was still incomplete.	3526102	1472008042426	1472008042521		84
6895	74144	But he added the list given was still incomplete.	But he added the list given was still incomplete.	3526105	1472008042496	1472008042598		32
6895	74144	But he added the list given was still incomplete.	But he added the list given was still incomplete.	3526113	1472008042639	1472008042724		72
6895	74144	But he added the list given was still incomplete.	But he added the list given was still incomplete.	3526165	1472008042720	1472008042820		69
6895	74144	But he added the list given was still incomplete.	But he added the list given was still incomplete.	3526166	1472008042816	1472008042906		32
6895	74144	But he added the list given was still incomplete.	But he added the list given was still incomplete.	3526167	1472008043134	1472008043230		65
6895	74144	But he added the list given was still incomplete.	But he added the list given was still incomplete.	3526168	1472008043339	1472008043412		68
6895	74144	But he added the list given was still incomplete.	But he added the list given was still incomplete.	3526173	1472008043454	1472008043610		68
6895	74144	But he added the list given was still incomplete.	But he added the list given was still incomplete.	3526244	1472008043578	1472008043712		69
6895	74144	But he added the list given was still incomplete.	But he added the list given was still incomplete.	3526246	1472008043680	1472008043803		68
6895	74144	But he added the list given was still incomplete.	But he added the list given was still incomplete.	3526250	1472008043788	1472008043889		32
6895	74144	But he added the list given was still incomplete.	But he added the list given was still incomplete.	3526254	1472008043894	1472008044004		84
6895	74144	But he added the list given was still incomplete.	But he added the list given was still incomplete.	3526258	1472008043994	1472008044071		72
6895	74144	But he added the list given was still incomplete.	But he added the list given was still incomplete.	3526249	1472008044045	1472008044140		69
6895	74144	But he added the list given was still incomplete.	But he added the list given was still incomplete.	3526252	1472008044173	1472008044257		32
6895	74144	But he added the list given was still incomplete.	But he added the list given was still incomplete.	3526256	1472008044293	1472008044361		76
6895	74144	But he added the list given was still incomplete.	But he added the list given was still incomplete.	3526261	1472008044535	1472008044703		83
6895	74144	But he added the list given was still incomplete.	But he added the list given was still incomplete.	3526267	1472008044690	1472008044802		84
6895	74144	But he added the list given was still incomplete.	But he added the list given was still incomplete.	3526271	1472008045058	1472008045138		8
6895	74144	But he added the list given was still incomplete.	But he added the list given was still incomplete.	3526288	1472008045195	1472008045301		8
6895	74144	But he added the list given was still incomplete.	But he added the list given was still incomplete.	3526290	1472008045358	1472008045454		73
6895	74144	But he added the list given was still incomplete.	But he added the list given was still incomplete.	3526293	1472008045437	1472008045554		83
6895	74144	But he added the list given was still incomplete.	But he added the list given was still incomplete.	3526296	1472008045506	1472008045624		84
6895	74144	But he added the list given was still incomplete.	But he added the list given was still incomplete.	3526319	1472008045620	1472008045710		32
6895	74144	But he added the list given was still incomplete.	But he added the list given was still incomplete.	3526321	1472008046087	1472008046193		71
6895	74144	But he added the list given was still incomplete.	But he added the list given was still incomplete.	3526324	1472008046218	1472008046292		73
6895	74144	But he added the list given was still incomplete.	But he added the list given was still incomplete.	3526328	1472008046308	1472008046427		86
6895	74144	But he added the list given was still incomplete.	But he added the list given was still incomplete.	3526334	1472008046395	1472008046512		69
6895	74144	But he added the list given was still incomplete.	But he added the list given was still incomplete.	3526364	1472008046481	1472008046594		78
6895	74144	But he added the list given was still incomplete.	But he added the list given was still incomplete.	3526368	1472008046603	1472008046696		32
6895	74144	But he added the list given was still incomplete.	But he added the list given was still incomplete.	3526372	1472008046897	1472008047018		87
6895	74144	But he added the list given was still incomplete.	But he added the list given was still incomplete.	3526379	1472008047025	1472008047174		65
6895	74144	But he added the list given was still incomplete.	But he added the list given was still incomplete.	3526384	1472008047121	1472008047235		83
6895	74144	But he added the list given was still incomplete.	But he added the list given was still incomplete.	3526419	1472008047218	1472008047303		32
6895	74144	But he added the list given was still incomplete.	But he added the list given was still incomplete.	3526422	1472008047518	1472008047614		84
6895	74144	But he added the list given was still incomplete.	But he added the list given was still incomplete.	3526425	1472008047804	1472008047862		83
6895	74144	But he added the list given was still incomplete.	But he added the list given was still incomplete.	3526430	1472008047878	1472008047986		8
6895	74144	But he added the list given was still incomplete.	But he added the list given was still incomplete.	3526435	1472008047965	1472008048119		83
6895	74144	But he added the list given was still incomplete.	But he added the list given was still incomplete.	3526472	1472008048072	1472008048170		84
6895	74144	But he added the list given was still incomplete.	But he added the list given was still incomplete.	3526475	1472008048147	1472008048225		73
6895	74144	But he added the list given was still incomplete.	But he added the list given was still incomplete.	3526482	1472008048292	1472008048384		76
6895	74144	But he added the list given was still incomplete.	But he added the list given was still incomplete.	3526486	1472008048443	1472008048538		76
6895	74144	But he added the list given was still incomplete.	But he added the list given was still incomplete.	3526489	1472008048670	1472008048755		8
6895	74144	But he added the list given was still incomplete.	But he added the list given was still incomplete.	3526492	1472008048820	1472008048901		8
6895	74144	But he added the list given was still incomplete.	But he added the list given was still incomplete.	3526506	1472008048965	1472008049038		8
6895	74144	But he added the list given was still incomplete.	But he added the list given was still incomplete.	3526511	1472008049102	1472008049176		8
6895	74144	But he added the list given was still incomplete.	But he added the list given was still incomplete.	3526520	1472008049263	1472008049327		8
6895	74144	But he added the list given was still incomplete.	But he added the list given was still incomplete.	3526528	1472008049402	1472008049524		8
6895	74144	But he added the list given was still incomplete.	But he added the list given was still incomplete.	3526534	1472008049585	1472008049750		83
6895	74144	But he added the list given was still incomplete.	But he added the list given was still incomplete.	3526586	1472008049697	1472008049862		84
6895	74144	But he added the list given was still incomplete.	But he added the list given was still incomplete.	3526588	1472008049862	1472008049910		73
6895	74144	But he added the list given was still incomplete.	But he added the list given was still incomplete.	3526593	1472008049992	1472008050056		76
6895	74144	But he added the list given was still incomplete.	But he added the list given was still incomplete.	3526597	1472008050127	1472008050233		76
6895	74144	But he added the list given was still incomplete.	But he added the list given was still incomplete.	3526601	1472008050239	1472008050334		32
6895	74144	But he added the list given was still incomplete.	But he added the list given was still incomplete.	3526604	1472008050711	1472008050834		79
6895	74144	But he added the list given was still incomplete.	But he added the list given was still incomplete.	3526657	1472008050829	1472008050893		78
6895	74144	But he added the list given was still incomplete.	But he added the list given was still incomplete.	3526663	1472008051446	1472008051527		8
6895	74144	But he added the list given was still incomplete.	But he added the list given was still incomplete.	3526668	1472008051601	1472008051691		8
6895	74144	But he added the list given was still incomplete.	But he added the list given was still incomplete.	3526672	1472008051829	1472008051962		73
6895	74144	But he added the list given was still incomplete.	But he added the list given was still incomplete.	3526676	1472008051905	1472008052006		78
6895	74144	But he added the list given was still incomplete.	But he added the list given was still incomplete.	3526677	1472008052079	1472008052159		67
6895	74144	But he added the list given was still incomplete.	But he added the list given was still incomplete.	3526701	1472008052143	1472008052267		79
6895	74144	But he added the list given was still incomplete.	But he added the list given was still incomplete.	3526704	1472008052262	1472008052362		77
6895	74144	But he added the list given was still incomplete.	But he added the list given was still incomplete.	3526709	1472008052398	1472008052521		80
6895	74144	But he added the list given was still incomplete.	But he added the list given was still incomplete.	3526715	1472008052510	1472008052617		76
6895	74144	But he added the list given was still incomplete.	But he added the list given was still incomplete.	3526722	1472008052660	1472008052771		69
6895	74144	But he added the list given was still incomplete.	But he added the list given was still incomplete.	3526749	1472008052766	1472008052900		84
6895	74144	But he added the list given was still incomplete.	But he added the list given was still incomplete.	3526753	1472008052862	1472008052981		69
6895	74144	But he added the list given was still incomplete.	But he added the list given was still incomplete.	3526760	1472008053073	1472008053169		190
6895	74170	Talk to you later.	Talk to yiou later.	3527003	1472008057298	1472008057454	SHIFT	16
6895	74170	Talk to you later.	Talk to yiou later.	3527005	1472008057390	1472008057496		84
6895	74170	Talk to you later.	Talk to yiou later.	3527008	1472008057559	1472008057655		65
6895	74170	Talk to you later.	Talk to yiou later.	3527013	1472008057651	1472008057796		76
6895	74170	Talk to you later.	Talk to yiou later.	3527016	1472008057753	1472008057880		75
6895	74170	Talk to you later.	Talk to yiou later.	3527043	1472008057850	1472008057950		32
6895	74170	Talk to you later.	Talk to yiou later.	3527045	1472008057946	1472008058035		84
6895	74170	Talk to you later.	Talk to yiou later.	3527048	1472008058082	1472008058189		79
6895	74170	Talk to you later.	Talk to yiou later.	3527050	1472008058173	1472008058291		32
6895	74170	Talk to you later.	Talk to yiou later.	3527053	1472008058379	1472008058465		89
6895	74170	Talk to you later.	Talk to yiou later.	3527065	1472008058449	1472008058551		73
6895	74170	Talk to you later.	Talk to yiou later.	3527070	1472008058535	1472008058644		85
6895	74170	Talk to you later.	Talk to yiou later.	3527076	1472008058626	1472008058717		32
6895	74170	Talk to you later.	Talk to yiou later.	3527080	1472008058813	1472008058898		76
6895	74170	Talk to you later.	Talk to yiou later.	3527083	1472008058914	1472008059022		65
6895	74170	Talk to you later.	Talk to yiou later.	3527086	1472008059027	1472008059131		84
6895	74170	Talk to you later.	Talk to yiou later.	3527104	1472008059119	1472008059275		69
6895	74170	Talk to you later.	Talk to yiou later.	3527109	1472008059216	1472008059328		82
6895	74170	Talk to you later.	Talk to yiou later.	3527113	1472008059449	1472008059524		190
6895	74178	Let's think out of the box.	Lety's think out of the box.	3527430	1472008064272	1472008064426	SHIFT	16
6895	74178	Let's think out of the box.	Lety's think out of the box.	3527434	1472008064378	1472008064469		76
6895	74178	Let's think out of the box.	Lety's think out of the box.	3527437	1472008064522	1472008064655		69
6895	74178	Let's think out of the box.	Lety's think out of the box.	3527442	1472008064666	1472008064762		84
6895	74178	Let's think out of the box.	Lety's think out of the box.	3527446	1472008064885	1472008064974		222
6895	74178	Let's think out of the box.	Lety's think out of the box.	3527453	1472008065012	1472008065113		83
6895	74178	Let's think out of the box.	Lety's think out of the box.	3527456	1472008065188	1472008065289		32
6895	74178	Let's think out of the box.	Lety's think out of the box.	3527460	1472008065415	1472008065499		84
6895	74178	Let's think out of the box.	Lety's think out of the box.	3527468	1472008065494	1472008065584		72
6895	74178	Let's think out of the box.	Lety's think out of the box.	3527493	1472008065574	1472008065676		73
6895	74178	Let's think out of the box.	Lety's think out of the box.	3527495	1472008065692	1472008065813		78
6895	74178	Let's think out of the box.	Lety's think out of the box.	3527498	1472008065801	1472008065906		75
6895	74178	Let's think out of the box.	Lety's think out of the box.	3527501	1472008065946	1472008066041		32
6895	74178	Let's think out of the box.	Lety's think out of the box.	3527505	1472008066097	1472008066230		79
6895	74178	Let's think out of the box.	Lety's think out of the box.	3527535	1472008066181	1472008066283		85
6895	74178	Let's think out of the box.	Lety's think out of the box.	3527536	1472008066318	1472008066414		84
6895	74178	Let's think out of the box.	Lety's think out of the box.	3527538	1472008066404	1472008066499		32
6895	74178	Let's think out of the box.	Lety's think out of the box.	3527540	1472008066586	1472008066670		79
6895	74178	Let's think out of the box.	Lety's think out of the box.	3527543	1472008066737	1472008066838		70
6895	74178	Let's think out of the box.	Lety's think out of the box.	3527556	1472008066828	1472008066922		32
6895	74178	Let's think out of the box.	Lety's think out of the box.	3527557	1472008066954	1472008067046		84
6895	74178	Let's think out of the box.	Lety's think out of the box.	3527558	1472008067008	1472008067097		72
6895	74178	Let's think out of the box.	Lety's think out of the box.	3527561	1472008067084	1472008067190		69
6895	74178	Let's think out of the box.	Lety's think out of the box.	3527567	1472008067196	1472008067287		32
6895	74178	Let's think out of the box.	Lety's think out of the box.	3527573	1472008067346	1472008067408		66
6895	74178	Let's think out of the box.	Lety's think out of the box.	3527622	1472008067496	1472008067576		79
6895	74178	Let's think out of the box.	Lety's think out of the box.	3527625	1472008067874	1472008067955		88
6895	74178	Let's think out of the box.	Lety's think out of the box.	3527629	1472008068106	1472008068202		190
6895	74188	My husband and I are on a waiting list to give blood.	My husband and I are on a waiting list to give blood.	3528057	1472008075572	1472008075796	SHIFT	16
6895	74188	My husband and I are on a waiting list to give blood.	My husband and I are on a waiting list to give blood.	3528054	1472008075684	1472008075774		77
6895	74188	My husband and I are on a waiting list to give blood.	My husband and I are on a waiting list to give blood.	3528062	1472008075859	1472008075961		89
6895	74188	My husband and I are on a waiting list to give blood.	My husband and I are on a waiting list to give blood.	3528070	1472008075950	1472008076046		32
6895	74188	My husband and I are on a waiting list to give blood.	My husband and I are on a waiting list to give blood.	3528075	1472008076145	1472008076225		72
6895	74188	My husband and I are on a waiting list to give blood.	My husband and I are on a waiting list to give blood.	3528084	1472008076248	1472008076343		85
6895	74188	My husband and I are on a waiting list to give blood.	My husband and I are on a waiting list to give blood.	3528119	1472008076377	1472008076483		83
6895	74188	My husband and I are on a waiting list to give blood.	My husband and I are on a waiting list to give blood.	3528125	1472008076721	1472008076811		66
6895	74188	My husband and I are on a waiting list to give blood.	My husband and I are on a waiting list to give blood.	3528129	1472008076827	1472008076923		65
6895	74188	My husband and I are on a waiting list to give blood.	My husband and I are on a waiting list to give blood.	3528135	1472008076928	1472008077019		78
6895	74188	My husband and I are on a waiting list to give blood.	My husband and I are on a waiting list to give blood.	3528144	1472008077083	1472008077166		68
6895	74188	My husband and I are on a waiting list to give blood.	My husband and I are on a waiting list to give blood.	3528160	1472008077190	1472008077281		32
6895	74188	My husband and I are on a waiting list to give blood.	My husband and I are on a waiting list to give blood.	3528162	1472008077484	1472008077595		65
6895	74188	My husband and I are on a waiting list to give blood.	My husband and I are on a waiting list to give blood.	3528164	1472008077590	1472008077675		78
6895	74188	My husband and I are on a waiting list to give blood.	My husband and I are on a waiting list to give blood.	3528168	1472008077671	1472008077745		68
6895	74188	My husband and I are on a waiting list to give blood.	My husband and I are on a waiting list to give blood.	3528171	1472008077751	1472008077852		32
6895	74188	My husband and I are on a waiting list to give blood.	My husband and I are on a waiting list to give blood.	3528222	1472008077946	1472008078003		73
6895	74188	My husband and I are on a waiting list to give blood.	My husband and I are on a waiting list to give blood.	3528225	1472008078228	1472008078308		8
6895	74188	My husband and I are on a waiting list to give blood.	My husband and I are on a waiting list to give blood.	3528229	1472008078312	1472008078484	SHIFT	16
6895	74188	My husband and I are on a waiting list to give blood.	My husband and I are on a waiting list to give blood.	3528236	1472008078393	1472008078494		73
6895	74188	My husband and I are on a waiting list to give blood.	My husband and I are on a waiting list to give blood.	3528242	1472008078532	1472008078627		32
6895	74188	My husband and I are on a waiting list to give blood.	My husband and I are on a waiting list to give blood.	3528246	1472008078829	1472008078961		65
6895	74188	My husband and I are on a waiting list to give blood.	My husband and I are on a waiting list to give blood.	3528261	1472008078973	1472008079090		82
6895	74188	My husband and I are on a waiting list to give blood.	My husband and I are on a waiting list to give blood.	3528264	1472008079048	1472008079143		69
6895	74188	My husband and I are on a waiting list to give blood.	My husband and I are on a waiting list to give blood.	3528269	1472008079113	1472008079214		32
6895	74188	My husband and I are on a waiting list to give blood.	My husband and I are on a waiting list to give blood.	3528274	1472008079317	1472008079418		79
6895	74188	My husband and I are on a waiting list to give blood.	My husband and I are on a waiting list to give blood.	3528277	1472008079467	1472008079577		78
6895	74188	My husband and I are on a waiting list to give blood.	My husband and I are on a waiting list to give blood.	3528316	1472008079573	1472008079674		32
6895	74188	My husband and I are on a waiting list to give blood.	My husband and I are on a waiting list to give blood.	3528318	1472008079714	1472008079831		65
6895	74188	My husband and I are on a waiting list to give blood.	My husband and I are on a waiting list to give blood.	3528320	1472008079836	1472008079927		32
6895	74188	My husband and I are on a waiting list to give blood.	My husband and I are on a waiting list to give blood.	3528322	1472008080144	1472008080280		87
6895	74188	My husband and I are on a waiting list to give blood.	My husband and I are on a waiting list to give blood.	3528325	1472008080312	1472008080412		65
6895	74188	My husband and I are on a waiting list to give blood.	My husband and I are on a waiting list to give blood.	3528329	1472008080429	1472008080531		73
6895	74188	My husband and I are on a waiting list to give blood.	My husband and I are on a waiting list to give blood.	3528343	1472008080547	1472008080632		84
6895	74188	My husband and I are on a waiting list to give blood.	My husband and I are on a waiting list to give blood.	3528347	1472008080661	1472008080757		73
6895	74188	My husband and I are on a waiting list to give blood.	My husband and I are on a waiting list to give blood.	3528351	1472008080699	1472008080822		78
6895	74188	My husband and I are on a waiting list to give blood.	My husband and I are on a waiting list to give blood.	3528357	1472008080828	1472008080924		71
6895	74188	My husband and I are on a waiting list to give blood.	My husband and I are on a waiting list to give blood.	3528398	1472008080920	1472008081020		32
6895	74188	My husband and I are on a waiting list to give blood.	My husband and I are on a waiting list to give blood.	3528400	1472008081131	1472008081222		76
6895	74188	My husband and I are on a waiting list to give blood.	My husband and I are on a waiting list to give blood.	3528403	1472008081279	1472008081374		73
6895	74188	My husband and I are on a waiting list to give blood.	My husband and I are on a waiting list to give blood.	3528406	1472008081363	1472008081508		83
6895	74188	My husband and I are on a waiting list to give blood.	My husband and I are on a waiting list to give blood.	3528410	1472008081483	1472008081577		84
6895	74188	My husband and I are on a waiting list to give blood.	My husband and I are on a waiting list to give blood.	3528416	1472008081583	1472008081679		32
6895	74188	My husband and I are on a waiting list to give blood.	My husband and I are on a waiting list to give blood.	3528451	1472008081675	1472008081787		84
6895	74188	My husband and I are on a waiting list to give blood.	My husband and I are on a waiting list to give blood.	3528456	1472008081770	1472008081888		79
6895	74188	My husband and I are on a waiting list to give blood.	My husband and I are on a waiting list to give blood.	3528461	1472008081883	1472008081978		32
6895	74188	My husband and I are on a waiting list to give blood.	My husband and I are on a waiting list to give blood.	3528467	1472008082274	1472008082337		71
6895	74188	My husband and I are on a waiting list to give blood.	My husband and I are on a waiting list to give blood.	3528472	1472008082347	1472008082439		73
6895	74188	My husband and I are on a waiting list to give blood.	My husband and I are on a waiting list to give blood.	3528477	1472008082465	1472008082577		86
6895	74188	My husband and I are on a waiting list to give blood.	My husband and I are on a waiting list to give blood.	3528519	1472008082546	1472008082658		69
6895	74188	My husband and I are on a waiting list to give blood.	My husband and I are on a waiting list to give blood.	3528523	1472008082642	1472008082732		32
6895	74188	My husband and I are on a waiting list to give blood.	My husband and I are on a waiting list to give blood.	3528529	1472008082883	1472008082958		66
6895	74188	My husband and I are on a waiting list to give blood.	My husband and I are on a waiting list to give blood.	3528535	1472008083043	1472008083112		76
6895	74188	My husband and I are on a waiting list to give blood.	My husband and I are on a waiting list to give blood.	3528540	1472008083191	1472008083259		79
6895	74188	My husband and I are on a waiting list to give blood.	My husband and I are on a waiting list to give blood.	3528544	1472008083314	1472008083400		79
6895	74188	My husband and I are on a waiting list to give blood.	My husband and I are on a waiting list to give blood.	3528550	1472008083436	1472008083522		68
6895	74188	My husband and I are on a waiting list to give blood.	My husband and I are on a waiting list to give blood.	3528554	1472008083603	1472008083695		190
6895	74208	He was professor emeritus of human development and psychiatry.	He was professor emeritus of human development and psychiatry.	3529210	1472008095347	1472008095549	SHIFT	16
6895	74208	He was professor emeritus of human development and psychiatry.	He was professor emeritus of human development and psychiatry.	3529216	1472008095533	1472008095612		72
6895	74208	He was professor emeritus of human development and psychiatry.	He was professor emeritus of human development and psychiatry.	3529222	1472008095668	1472008095763	SHIFT	16
6895	74208	He was professor emeritus of human development and psychiatry.	He was professor emeritus of human development and psychiatry.	3529228	1472008096113	1472008096236		69
6895	74208	He was professor emeritus of human development and psychiatry.	He was professor emeritus of human development and psychiatry.	3529231	1472008096276	1472008096390		32
6895	74208	He was professor emeritus of human development and psychiatry.	He was professor emeritus of human development and psychiatry.	3529234	1472008096493	1472008096626		87
6895	74208	He was professor emeritus of human development and psychiatry.	He was professor emeritus of human development and psychiatry.	3529252	1472008096615	1472008096760		65
6895	74208	He was professor emeritus of human development and psychiatry.	He was professor emeritus of human development and psychiatry.	3529258	1472008096723	1472008096825		83
6895	74208	He was professor emeritus of human development and psychiatry.	He was professor emeritus of human development and psychiatry.	3529265	1472008096783	1472008096883		32
6895	74208	He was professor emeritus of human development and psychiatry.	He was professor emeritus of human development and psychiatry.	3529271	1472008097001	1472008097090		80
6895	74208	He was professor emeritus of human development and psychiatry.	He was professor emeritus of human development and psychiatry.	3529275	1472008097127	1472008097228		82
6895	74208	He was professor emeritus of human development and psychiatry.	He was professor emeritus of human development and psychiatry.	3529305	1472008097212	1472008097303		79
6895	74208	He was professor emeritus of human development and psychiatry.	He was professor emeritus of human development and psychiatry.	3529308	1472008097402	1472008097509		70
6895	74208	He was professor emeritus of human development and psychiatry.	He was professor emeritus of human development and psychiatry.	3529313	1472008097532	1472008097645		69
6895	74208	He was professor emeritus of human development and psychiatry.	He was professor emeritus of human development and psychiatry.	3529317	1472008097769	1472008097838		83
6895	74208	He was professor emeritus of human development and psychiatry.	He was professor emeritus of human development and psychiatry.	3529322	1472008097885	1472008097986		83
6895	74208	He was professor emeritus of human development and psychiatry.	He was professor emeritus of human development and psychiatry.	3529330	1472008098003	1472008098098		79
6895	74208	He was professor emeritus of human development and psychiatry.	He was professor emeritus of human development and psychiatry.	3529385	1472008098094	1472008098195		82
6895	74208	He was professor emeritus of human development and psychiatry.	He was professor emeritus of human development and psychiatry.	3529387	1472008098222	1472008098301		32
6895	74208	He was professor emeritus of human development and psychiatry.	He was professor emeritus of human development and psychiatry.	3529391	1472008098607	1472008098714		69
6895	74208	He was professor emeritus of human development and psychiatry.	He was professor emeritus of human development and psychiatry.	3529395	1472008098720	1472008098815		77
6895	74208	He was professor emeritus of human development and psychiatry.	He was professor emeritus of human development and psychiatry.	3529399	1472008098847	1472008099061		82
6895	74208	He was professor emeritus of human development and psychiatry.	He was professor emeritus of human development and psychiatry.	3529405	1472008099417	1472008099503		8
6895	74208	He was professor emeritus of human development and psychiatry.	He was professor emeritus of human development and psychiatry.	3529473	1472008099513	1472008099647		69
6895	74208	He was professor emeritus of human development and psychiatry.	He was professor emeritus of human development and psychiatry.	3529475	1472008099594	1472008099711		82
6895	74208	He was professor emeritus of human development and psychiatry.	He was professor emeritus of human development and psychiatry.	3529481	1472008100351	1472008100431		73
6895	74208	He was professor emeritus of human development and psychiatry.	He was professor emeritus of human development and psychiatry.	3529484	1472008100493	1472008100583		84
6895	74208	He was professor emeritus of human development and psychiatry.	He was professor emeritus of human development and psychiatry.	3529486	1472008100664	1472008100755		85
6895	74208	He was professor emeritus of human development and psychiatry.	He was professor emeritus of human development and psychiatry.	3529527	1472008100804	1472008100910		83
6895	74208	He was professor emeritus of human development and psychiatry.	He was professor emeritus of human development and psychiatry.	3529533	1472008101122	1472008101230		32
6895	74208	He was professor emeritus of human development and psychiatry.	He was professor emeritus of human development and psychiatry.	3529541	1472008101258	1472008101358		79
6895	74208	He was professor emeritus of human development and psychiatry.	He was professor emeritus of human development and psychiatry.	3529545	1472008101344	1472008101456		70
6895	74208	He was professor emeritus of human development and psychiatry.	He was professor emeritus of human development and psychiatry.	3529548	1472008101462	1472008101557		32
6895	74208	He was professor emeritus of human development and psychiatry.	He was professor emeritus of human development and psychiatry.	3529591	1472008101650	1472008101784		72
6895	74208	He was professor emeritus of human development and psychiatry.	He was professor emeritus of human development and psychiatry.	3529596	1472008101762	1472008101891		85
6895	74208	He was professor emeritus of human development and psychiatry.	He was professor emeritus of human development and psychiatry.	3529601	1472008101973	1472008102053		77
6895	74208	He was professor emeritus of human development and psychiatry.	He was professor emeritus of human development and psychiatry.	3529608	1472008102111	1472008102207		65
6895	74208	He was professor emeritus of human development and psychiatry.	He was professor emeritus of human development and psychiatry.	3529623	1472008102176	1472008102277		78
6895	74208	He was professor emeritus of human development and psychiatry.	He was professor emeritus of human development and psychiatry.	3529628	1472008102283	1472008102389		32
6895	74208	He was professor emeritus of human development and psychiatry.	He was professor emeritus of human development and psychiatry.	3529634	1472008102564	1472008102704		68
6895	74208	He was professor emeritus of human development and psychiatry.	He was professor emeritus of human development and psychiatry.	3529638	1472008102655	1472008102772		69
6895	74208	He was professor emeritus of human development and psychiatry.	He was professor emeritus of human development and psychiatry.	3529642	1472008102814	1472008102920		86
6895	74208	He was professor emeritus of human development and psychiatry.	He was professor emeritus of human development and psychiatry.	3529702	1472008102905	1472008103022		69
6895	74208	He was professor emeritus of human development and psychiatry.	He was professor emeritus of human development and psychiatry.	3529703	1472008103110	1472008103203		76
6895	74208	He was professor emeritus of human development and psychiatry.	He was professor emeritus of human development and psychiatry.	3529704	1472008103590	1472008103676		79
6895	74208	He was professor emeritus of human development and psychiatry.	He was professor emeritus of human development and psychiatry.	3529705	1472008103750	1472008103841		80
6895	74208	He was professor emeritus of human development and psychiatry.	He was professor emeritus of human development and psychiatry.	3529707	1472008103993	1472008104068		77
6895	74208	He was professor emeritus of human development and psychiatry.	He was professor emeritus of human development and psychiatry.	3529710	1472008104121	1472008104216		69
6895	74208	He was professor emeritus of human development and psychiatry.	He was professor emeritus of human development and psychiatry.	3529732	1472008104190	1472008104275		78
6895	74208	He was professor emeritus of human development and psychiatry.	He was professor emeritus of human development and psychiatry.	3529734	1472008104304	1472008104406		84
6895	74208	He was professor emeritus of human development and psychiatry.	He was professor emeritus of human development and psychiatry.	3529737	1472008104569	1472008104638		32
6895	74208	He was professor emeritus of human development and psychiatry.	He was professor emeritus of human development and psychiatry.	3529741	1472008104628	1472008104751		65
6895	74208	He was professor emeritus of human development and psychiatry.	He was professor emeritus of human development and psychiatry.	3529745	1472008104735	1472008104824		78
6895	74208	He was professor emeritus of human development and psychiatry.	He was professor emeritus of human development and psychiatry.	3529791	1472008104808	1472008104929		68
6895	74208	He was professor emeritus of human development and psychiatry.	He was professor emeritus of human development and psychiatry.	3529794	1472008104921	1472008105012		32
6895	74208	He was professor emeritus of human development and psychiatry.	He was professor emeritus of human development and psychiatry.	3529798	1472008105113	1472008105221		80
6895	74208	He was professor emeritus of human development and psychiatry.	He was professor emeritus of human development and psychiatry.	3529803	1472008105265	1472008105383		83
6895	74208	He was professor emeritus of human development and psychiatry.	He was professor emeritus of human development and psychiatry.	3529808	1472008105520	1472008105606		89
6895	74208	He was professor emeritus of human development and psychiatry.	He was professor emeritus of human development and psychiatry.	3529814	1472008105855	1472008105935		67
6895	74208	He was professor emeritus of human development and psychiatry.	He was professor emeritus of human development and psychiatry.	3529851	1472008105959	1472008106033		72
6895	74208	He was professor emeritus of human development and psychiatry.	He was professor emeritus of human development and psychiatry.	3529855	1472008106051	1472008106146		73
6895	74208	He was professor emeritus of human development and psychiatry.	He was professor emeritus of human development and psychiatry.	3529859	1472008106175	1472008106292		65
6895	74208	He was professor emeritus of human development and psychiatry.	He was professor emeritus of human development and psychiatry.	3529865	1472008106483	1472008106590		84
6895	74208	He was professor emeritus of human development and psychiatry.	He was professor emeritus of human development and psychiatry.	3529869	1472008106903	1472008107009		82
6895	74208	He was professor emeritus of human development and psychiatry.	He was professor emeritus of human development and psychiatry.	3529889	1472008107037	1472008107122		89
6895	74208	He was professor emeritus of human development and psychiatry.	He was professor emeritus of human development and psychiatry.	3529891	1472008107506	1472008107574		190
6895	74240	Seifert said he didn't know if Weinke would practice Thursday.	Seifert said he didn't know if Weike would practice Thursday.	3530429	1472008117361	1472008117671	SHIFT	16
6895	74240	Seifert said he didn't know if Weinke would practice Thursday.	Seifert said he didn't know if Weike would practice Thursday.	3530434	1472008117602	1472008117714		83
6895	74240	Seifert said he didn't know if Weinke would practice Thursday.	Seifert said he didn't know if Weike would practice Thursday.	3530439	1472008117806	1472008117919		69
6895	74240	Seifert said he didn't know if Weinke would practice Thursday.	Seifert said he didn't know if Weike would practice Thursday.	3530445	1472008117914	1472008118031		73
6895	74240	Seifert said he didn't know if Weinke would practice Thursday.	Seifert said he didn't know if Weike would practice Thursday.	3530448	1472008118329	1472008118446		70
6895	74240	Seifert said he didn't know if Weinke would practice Thursday.	Seifert said he didn't know if Weike would practice Thursday.	3530477	1472008118420	1472008118590		69
6895	74240	Seifert said he didn't know if Weinke would practice Thursday.	Seifert said he didn't know if Weike would practice Thursday.	3530481	1472008118541	1472008118611		82
6895	74240	Seifert said he didn't know if Weinke would practice Thursday.	Seifert said he didn't know if Weike would practice Thursday.	3530485	1472008118651	1472008118721		82
6895	74240	Seifert said he didn't know if Weinke would practice Thursday.	Seifert said he didn't know if Weike would practice Thursday.	3530488	1472008118846	1472008118936		84
6895	74240	Seifert said he didn't know if Weinke would practice Thursday.	Seifert said he didn't know if Weike would practice Thursday.	3530494	1472008119061	1472008119135		8
6895	74240	Seifert said he didn't know if Weinke would practice Thursday.	Seifert said he didn't know if Weike would practice Thursday.	3530497	1472008119220	1472008119305		8
6895	74240	Seifert said he didn't know if Weinke would practice Thursday.	Seifert said he didn't know if Weike would practice Thursday.	3530537	1472008119346	1472008119457		84
6895	74240	Seifert said he didn't know if Weinke would practice Thursday.	Seifert said he didn't know if Weike would practice Thursday.	3530540	1472008119553	1472008119650		32
6895	74240	Seifert said he didn't know if Weinke would practice Thursday.	Seifert said he didn't know if Weike would practice Thursday.	3530546	1472008119831	1472008119964		83
6895	74240	Seifert said he didn't know if Weinke would practice Thursday.	Seifert said he didn't know if Weike would practice Thursday.	3530552	1472008119960	1472008120062		65
6895	74240	Seifert said he didn't know if Weinke would practice Thursday.	Seifert said he didn't know if Weike would practice Thursday.	3530607	1472008120045	1472008120135		73
6895	74240	Seifert said he didn't know if Weinke would practice Thursday.	Seifert said he didn't know if Weike would practice Thursday.	3530609	1472008120208	1472008120292		68
6895	74240	Seifert said he didn't know if Weinke would practice Thursday.	Seifert said he didn't know if Weike would practice Thursday.	3530612	1472008120332	1472008120418		32
6895	74240	Seifert said he didn't know if Weinke would practice Thursday.	Seifert said he didn't know if Weike would practice Thursday.	3530614	1472008120498	1472008120577		72
6895	74240	Seifert said he didn't know if Weinke would practice Thursday.	Seifert said he didn't know if Weike would practice Thursday.	3530616	1472008120572	1472008120674		69
6895	74240	Seifert said he didn't know if Weinke would practice Thursday.	Seifert said he didn't know if Weike would practice Thursday.	3530618	1472008120684	1472008120775		32
6895	74240	Seifert said he didn't know if Weinke would practice Thursday.	Seifert said he didn't know if Weike would practice Thursday.	3530655	1472008120920	1472008121057		68
6895	74240	Seifert said he didn't know if Weinke would practice Thursday.	Seifert said he didn't know if Weike would practice Thursday.	3530657	1472008121053	1472008121159		73
6895	74240	Seifert said he didn't know if Weinke would practice Thursday.	Seifert said he didn't know if Weike would practice Thursday.	3530660	1472008121165	1472008121272		68
6895	74240	Seifert said he didn't know if Weinke would practice Thursday.	Seifert said he didn't know if Weike would practice Thursday.	3530662	1472008121569	1472008121650		78
6895	74240	Seifert said he didn't know if Weinke would practice Thursday.	Seifert said he didn't know if Weike would practice Thursday.	3530664	1472008121847	1472008121904		76
6895	74240	Seifert said he didn't know if Weinke would practice Thursday.	Seifert said he didn't know if Weike would practice Thursday.	3530795	1472008122234	1472008122318		8
6895	74240	Seifert said he didn't know if Weinke would practice Thursday.	Seifert said he didn't know if Weike would practice Thursday.	3530797	1472008122707	1472008122782		222
6895	74240	Seifert said he didn't know if Weinke would practice Thursday.	Seifert said he didn't know if Weike would practice Thursday.	3530799	1472008122881	1472008122971		84
6895	74240	Seifert said he didn't know if Weinke would practice Thursday.	Seifert said he didn't know if Weike would practice Thursday.	3530801	1472008122988	1472008123089		32
6895	74240	Seifert said he didn't know if Weinke would practice Thursday.	Seifert said he didn't know if Weike would practice Thursday.	3530803	1472008123121	1472008123264		75
6895	74240	Seifert said he didn't know if Weinke would practice Thursday.	Seifert said he didn't know if Weike would practice Thursday.	3530811	1472008123227	1472008123318		78
6895	74240	Seifert said he didn't know if Weinke would practice Thursday.	Seifert said he didn't know if Weike would practice Thursday.	3530813	1472008123353	1472008123439		79
6895	74240	Seifert said he didn't know if Weinke would practice Thursday.	Seifert said he didn't know if Weike would practice Thursday.	3530816	1472008123491	1472008123608		87
6895	74240	Seifert said he didn't know if Weinke would practice Thursday.	Seifert said he didn't know if Weike would practice Thursday.	3530820	1472008123702	1472008123775		32
6895	74240	Seifert said he didn't know if Weinke would practice Thursday.	Seifert said he didn't know if Weike would practice Thursday.	3530822	1472008123849	1472008123966		73
6895	74240	Seifert said he didn't know if Weinke would practice Thursday.	Seifert said he didn't know if Weike would practice Thursday.	3530837	1472008123962	1472008124083		70
6895	74240	Seifert said he didn't know if Weinke would practice Thursday.	Seifert said he didn't know if Weike would practice Thursday.	3530840	1472008124079	1472008124169		32
6895	74240	Seifert said he didn't know if Weinke would practice Thursday.	Seifert said he didn't know if Weike would practice Thursday.	3530844	1472008124375	1472008124658	SHIFT	16
6895	74240	Seifert said he didn't know if Weinke would practice Thursday.	Seifert said he didn't know if Weike would practice Thursday.	3530846	1472008124589	1472008124705		87
6895	74240	Seifert said he didn't know if Weinke would practice Thursday.	Seifert said he didn't know if Weike would practice Thursday.	3530849	1472008124794	1472008124878		69
6895	74240	Seifert said he didn't know if Weinke would practice Thursday.	Seifert said he didn't know if Weike would practice Thursday.	3530851	1472008124890	1472008124996		73
6895	74240	Seifert said he didn't know if Weinke would practice Thursday.	Seifert said he didn't know if Weike would practice Thursday.	3530853	1472008125175	1472008125243		75
6895	74240	Seifert said he didn't know if Weinke would practice Thursday.	Seifert said he didn't know if Weike would practice Thursday.	3530887	1472008125292	1472008125393		69
6895	74240	Seifert said he didn't know if Weinke would practice Thursday.	Seifert said he didn't know if Weike would practice Thursday.	3530892	1472008125470	1472008125554		32
6895	74240	Seifert said he didn't know if Weinke would practice Thursday.	Seifert said he didn't know if Weike would practice Thursday.	3530895	1472008125686	1472008125797		87
6895	74240	Seifert said he didn't know if Weinke would practice Thursday.	Seifert said he didn't know if Weike would practice Thursday.	3530897	1472008125750	1472008125888		79
6895	74240	Seifert said he didn't know if Weinke would practice Thursday.	Seifert said he didn't know if Weike would practice Thursday.	3530952	1472008125830	1472008125937		85
6895	74240	Seifert said he didn't know if Weinke would practice Thursday.	Seifert said he didn't know if Weike would practice Thursday.	3530956	1472008125999	1472008126078		76
6895	74240	Seifert said he didn't know if Weinke would practice Thursday.	Seifert said he didn't know if Weike would practice Thursday.	3530961	1472008126104	1472008126210		68
6895	74240	Seifert said he didn't know if Weinke would practice Thursday.	Seifert said he didn't know if Weike would practice Thursday.	3530965	1472008126206	1472008126306		32
6895	74240	Seifert said he didn't know if Weinke would practice Thursday.	Seifert said he didn't know if Weike would practice Thursday.	3530968	1472008126501	1472008126602		80
6895	74240	Seifert said he didn't know if Weinke would practice Thursday.	Seifert said he didn't know if Weike would practice Thursday.	3530970	1472008126603	1472008126700		82
6895	74240	Seifert said he didn't know if Weinke would practice Thursday.	Seifert said he didn't know if Weike would practice Thursday.	3530973	1472008126717	1472008126850		65
6895	74240	Seifert said he didn't know if Weinke would practice Thursday.	Seifert said he didn't know if Weike would practice Thursday.	3530976	1472008126856	1472008126957		67
6895	74240	Seifert said he didn't know if Weinke would practice Thursday.	Seifert said he didn't know if Weike would practice Thursday.	3530980	1472008127040	1472008127125		84
6895	74240	Seifert said he didn't know if Weinke would practice Thursday.	Seifert said he didn't know if Weike would practice Thursday.	3530983	1472008127105	1472008127200		73
6895	74240	Seifert said he didn't know if Weinke would practice Thursday.	Seifert said he didn't know if Weike would practice Thursday.	3530986	1472008127251	1472008127363		67
6895	74240	Seifert said he didn't know if Weinke would practice Thursday.	Seifert said he didn't know if Weike would practice Thursday.	3531021	1472008127321	1472008127454		69
6895	74240	Seifert said he didn't know if Weinke would practice Thursday.	Seifert said he didn't know if Weike would practice Thursday.	3531024	1472008127461	1472008127567		32
6895	74240	Seifert said he didn't know if Weinke would practice Thursday.	Seifert said he didn't know if Weike would practice Thursday.	3531029	1472008127755	1472008128005	SHIFT	16
6895	74240	Seifert said he didn't know if Weinke would practice Thursday.	Seifert said he didn't know if Weike would practice Thursday.	3531032	1472008127936	1472008128043		84
6895	74240	Seifert said he didn't know if Weinke would practice Thursday.	Seifert said he didn't know if Weike would practice Thursday.	3531036	1472008128067	1472008128173		72
6895	74240	Seifert said he didn't know if Weinke would practice Thursday.	Seifert said he didn't know if Weike would practice Thursday.	3531039	1472008128231	1472008128316		85
6895	74240	Seifert said he didn't know if Weinke would practice Thursday.	Seifert said he didn't know if Weike would practice Thursday.	3531040	1472008128356	1472008128456		82
6895	74240	Seifert said he didn't know if Weinke would practice Thursday.	Seifert said he didn't know if Weike would practice Thursday.	3531078	1472008128679	1472008128792		83
6895	74240	Seifert said he didn't know if Weinke would practice Thursday.	Seifert said he didn't know if Weike would practice Thursday.	3531080	1472008128954	1472008129034		68
6895	74240	Seifert said he didn't know if Weinke would practice Thursday.	Seifert said he didn't know if Weike would practice Thursday.	3531083	1472008129082	1472008129162		65
6895	74240	Seifert said he didn't know if Weinke would practice Thursday.	Seifert said he didn't know if Weike would practice Thursday.	3531086	1472008129157	1472008129242		89
6895	74240	Seifert said he didn't know if Weinke would practice Thursday.	Seifert said he didn't know if Weike would practice Thursday.	3531092	1472008129469	1472008129553		190
6895	74264	Joel will handle this.	Joel will handle this.	3531400	1472008133201	1472008133741	SHIFT	16
6895	74264	Joel will handle this.	Joel will handle this.	3531397	1472008133635	1472008133714		74
6895	74264	Joel will handle this.	Joel will handle this.	3531408	1472008133805	1472008133879		79
6895	74264	Joel will handle this.	Joel will handle this.	3531414	1472008133897	1472008134003		69
6895	74264	Joel will handle this.	Joel will handle this.	3531421	1472008134007	1472008134105		76
6895	74264	Joel will handle this.	Joel will handle this.	3531430	1472008134133	1472008134250		32
6895	74264	Joel will handle this.	Joel will handle this.	3531451	1472008134311	1472008134424		87
6895	74264	Joel will handle this.	Joel will handle this.	3531454	1472008134392	1472008134481		73
6895	74264	Joel will handle this.	Joel will handle this.	3531457	1472008134578	1472008134636		76
6895	74264	Joel will handle this.	Joel will handle this.	3531460	1472008134694	1472008134811		76
6895	74264	Joel will handle this.	Joel will handle this.	3531499	1472008134791	1472008134886		32
6895	74264	Joel will handle this.	Joel will handle this.	3531503	1472008134935	1472008135014		72
6895	74264	Joel will handle this.	Joel will handle this.	3531507	1472008135004	1472008135105		65
6895	74264	Joel will handle this.	Joel will handle this.	3531514	1472008135101	1472008135186		78
6895	74264	Joel will handle this.	Joel will handle this.	3531520	1472008135214	1472008135310		68
6895	74264	Joel will handle this.	Joel will handle this.	3531529	1472008135335	1472008135414		76
6895	74264	Joel will handle this.	Joel will handle this.	3531557	1472008135410	1472008135520		69
6895	74264	Joel will handle this.	Joel will handle this.	3531559	1472008135505	1472008135607		32
6895	74264	Joel will handle this.	Joel will handle this.	3531562	1472008135637	1472008135729		84
6895	74264	Joel will handle this.	Joel will handle this.	3531564	1472008135724	1472008135830		72
6895	74264	Joel will handle this.	Joel will handle this.	3531567	1472008135782	1472008135905		73
6895	74264	Joel will handle this.	Joel will handle this.	3531570	1472008135916	1472008136018		83
6895	74264	Joel will handle this.	Joel will handle this.	3531668	1472008136193	1472008136273		190
6895	74264	Joel will handle this.	Joel will handle this.	3531674	1472008136373	1472008136454		100
6895	74264	Joel will handle this.	Joel will handle this.	3531680	1472008137374	1472008137491		8
6895	74264	Joel will handle this.	Joel will handle this.	3531687	1472008138050	1472008138114		8
6895	74275	The military refuses to leave power and restore democracy by May 21.	THe military refuses to leave power and restore democracy by May 21.	3532116	1472008145600	1472008145885	SHIFT	16
6895	74275	The military refuses to leave power and restore democracy by May 21.	THe military refuses to leave power and restore democracy by May 21.	3532119	1472008145746	1472008145894		84
6895	74275	The military refuses to leave power and restore democracy by May 21.	THe military refuses to leave power and restore democracy by May 21.	3532124	1472008145869	1472008145954		72
6895	74275	The military refuses to leave power and restore democracy by May 21.	THe military refuses to leave power and restore democracy by May 21.	3532127	1472008146032	1472008146119		69
6895	74275	The military refuses to leave power and restore democracy by May 21.	THe military refuses to leave power and restore democracy by May 21.	3532132	1472008146095	1472008146196		32
6895	74275	The military refuses to leave power and restore democracy by May 21.	THe military refuses to leave power and restore democracy by May 21.	3532136	1472008146407	1472008146503		77
6895	74275	The military refuses to leave power and restore democracy by May 21.	THe military refuses to leave power and restore democracy by May 21.	3532179	1472008146840	1472008146984		76
6895	74275	The military refuses to leave power and restore democracy by May 21.	THe military refuses to leave power and restore democracy by May 21.	3532181	1472008147339	1472008147429		8
6895	74275	The military refuses to leave power and restore democracy by May 21.	THe military refuses to leave power and restore democracy by May 21.	3532183	1472008147492	1472008147581		73
6895	74275	The military refuses to leave power and restore democracy by May 21.	THe military refuses to leave power and restore democracy by May 21.	3532186	1472008147617	1472008147728		76
6895	74275	The military refuses to leave power and restore democracy by May 21.	THe military refuses to leave power and restore democracy by May 21.	3532189	1472008147765	1472008147835		73
6895	74275	The military refuses to leave power and restore democracy by May 21.	THe military refuses to leave power and restore democracy by May 21.	3532233	1472008148034	1472008148126		84
6895	74275	The military refuses to leave power and restore democracy by May 21.	THe military refuses to leave power and restore democracy by May 21.	3532237	1472008148183	1472008148301		65
6895	74275	The military refuses to leave power and restore democracy by May 21.	THe military refuses to leave power and restore democracy by May 21.	3532243	1472008148248	1472008148391		82
6895	74275	The military refuses to leave power and restore democracy by May 21.	THe military refuses to leave power and restore democracy by May 21.	3532246	1472008148387	1472008148488		89
6895	74275	The military refuses to leave power and restore democracy by May 21.	THe military refuses to leave power and restore democracy by May 21.	3532253	1472008148494	1472008148600		32
6895	74275	The military refuses to leave power and restore democracy by May 21.	THe military refuses to leave power and restore democracy by May 21.	3532312	1472008148692	1472008148760		87
6895	74275	The military refuses to leave power and restore democracy by May 21.	THe military refuses to leave power and restore democracy by May 21.	3532319	1472008148996	1472008149089		8
6895	74275	The military refuses to leave power and restore democracy by May 21.	THe military refuses to leave power and restore democracy by May 21.	3532324	1472008149085	1472008149213		82
6895	74275	The military refuses to leave power and restore democracy by May 21.	THe military refuses to leave power and restore democracy by May 21.	3532330	1472008149149	1472008149283		69
6895	74275	The military refuses to leave power and restore democracy by May 21.	THe military refuses to leave power and restore democracy by May 21.	3532332	1472008149538	1472008149619		68
6895	74275	The military refuses to leave power and restore democracy by May 21.	THe military refuses to leave power and restore democracy by May 21.	3532381	1472008149624	1472008149720		85
6895	74275	The military refuses to leave power and restore democracy by May 21.	THe military refuses to leave power and restore democracy by May 21.	3532383	1472008150455	1472008150523		8
6895	74275	The military refuses to leave power and restore democracy by May 21.	THe military refuses to leave power and restore democracy by May 21.	3532387	1472008150587	1472008150699		8
6895	74275	The military refuses to leave power and restore democracy by May 21.	THe military refuses to leave power and restore democracy by May 21.	3532393	1472008150711	1472008150837		70
6895	74275	The military refuses to leave power and restore democracy by May 21.	THe military refuses to leave power and restore democracy by May 21.	3532450	1472008150807	1472008150881		85
6895	74275	The military refuses to leave power and restore democracy by May 21.	THe military refuses to leave power and restore democracy by May 21.	3532454	1472008150969	1472008151156		83
6895	74275	The military refuses to leave power and restore democracy by May 21.	THe military refuses to leave power and restore democracy by May 21.	3532456	1472008151092	1472008151231		69
6895	74275	The military refuses to leave power and restore democracy by May 21.	THe military refuses to leave power and restore democracy by May 21.	3532458	1472008151322	1472008151448		83
6895	74275	The military refuses to leave power and restore democracy by May 21.	THe military refuses to leave power and restore democracy by May 21.	3532459	1472008151472	1472008151584		32
6895	74275	The military refuses to leave power and restore democracy by May 21.	THe military refuses to leave power and restore democracy by May 21.	3532461	1472008151633	1472008151735		84
6895	74275	The military refuses to leave power and restore democracy by May 21.	THe military refuses to leave power and restore democracy by May 21.	3532486	1472008151724	1472008151850		79
6895	74275	The military refuses to leave power and restore democracy by May 21.	THe military refuses to leave power and restore democracy by May 21.	3532490	1472008151830	1472008151927		32
6895	74275	The military refuses to leave power and restore democracy by May 21.	THe military refuses to leave power and restore democracy by May 21.	3532495	1472008151974	1472008152063		76
6895	74275	The military refuses to leave power and restore democracy by May 21.	THe military refuses to leave power and restore democracy by May 21.	3532499	1472008152026	1472008152143		69
6895	74275	The military refuses to leave power and restore democracy by May 21.	THe military refuses to leave power and restore democracy by May 21.	3532503	1472008152149	1472008152261		65
6895	74275	The military refuses to leave power and restore democracy by May 21.	THe military refuses to leave power and restore democracy by May 21.	3532506	1472008152366	1472008152435		86
6895	74275	The military refuses to leave power and restore democracy by May 21.	THe military refuses to leave power and restore democracy by May 21.	3532553	1472008152562	1472008152634		8
6895	74275	The military refuses to leave power and restore democracy by May 21.	THe military refuses to leave power and restore democracy by May 21.	3532556	1472008153057	1472008153173		86
6895	74275	The military refuses to leave power and restore democracy by May 21.	THe military refuses to leave power and restore democracy by May 21.	3532558	1472008153137	1472008153270		69
6895	74275	The military refuses to leave power and restore democracy by May 21.	THe military refuses to leave power and restore democracy by May 21.	3532562	1472008153212	1472008153319		32
6895	74275	The military refuses to leave power and restore democracy by May 21.	THe military refuses to leave power and restore democracy by May 21.	3532567	1472008153478	1472008153627		80
6895	74275	The military refuses to leave power and restore democracy by May 21.	THe military refuses to leave power and restore democracy by May 21.	3532578	1472008153632	1472008153724		79
6895	74275	The military refuses to leave power and restore democracy by May 21.	THe military refuses to leave power and restore democracy by May 21.	3532582	1472008153709	1472008153868		87
6895	74275	The military refuses to leave power and restore democracy by May 21.	THe military refuses to leave power and restore democracy by May 21.	3532587	1472008153825	1472008153917		69
6895	74275	The military refuses to leave power and restore democracy by May 21.	THe military refuses to leave power and restore democracy by May 21.	3532590	1472008153980	1472008154091		82
6895	74275	The military refuses to leave power and restore democracy by May 21.	THe military refuses to leave power and restore democracy by May 21.	3532602	1472008154071	1472008154171		32
6895	74275	The military refuses to leave power and restore democracy by May 21.	THe military refuses to leave power and restore democracy by May 21.	3532603	1472008154242	1472008154348		65
6895	74275	The military refuses to leave power and restore democracy by May 21.	THe military refuses to leave power and restore democracy by May 21.	3532604	1472008154317	1472008154418		78
6895	74275	The military refuses to leave power and restore democracy by May 21.	THe military refuses to leave power and restore democracy by May 21.	3532605	1472008154408	1472008154536		68
6895	74275	The military refuses to leave power and restore democracy by May 21.	THe military refuses to leave power and restore democracy by May 21.	3532608	1472008154515	1472008154616		32
6895	74275	The military refuses to leave power and restore democracy by May 21.	THe military refuses to leave power and restore democracy by May 21.	3532611	1472008154759	1472008154816		82
6895	74275	The military refuses to leave power and restore democracy by May 21.	THe military refuses to leave power and restore democracy by May 21.	3532688	1472008155194	1472008155323		69
6895	74275	The military refuses to leave power and restore democracy by May 21.	THe military refuses to leave power and restore democracy by May 21.	3532693	1472008155458	1472008155575		83
6895	74275	The military refuses to leave power and restore democracy by May 21.	THe military refuses to leave power and restore democracy by May 21.	3532698	1472008155671	1472008155767		84
6895	74275	The military refuses to leave power and restore democracy by May 21.	THe military refuses to leave power and restore democracy by May 21.	3532703	1472008155803	1472008155910		79
6895	74275	The military refuses to leave power and restore democracy by May 21.	THe military refuses to leave power and restore democracy by May 21.	3532708	1472008155942	1472008156064		82
6895	74275	The military refuses to leave power and restore democracy by May 21.	THe military refuses to leave power and restore democracy by May 21.	3532730	1472008156033	1472008156166		69
6895	74275	The military refuses to leave power and restore democracy by May 21.	THe military refuses to leave power and restore democracy by May 21.	3532735	1472008156156	1472008156251		32
6895	74275	The military refuses to leave power and restore democracy by May 21.	THe military refuses to leave power and restore democracy by May 21.	3532740	1472008156680	1472008156796		68
6895	74275	The military refuses to leave power and restore democracy by May 21.	THe military refuses to leave power and restore democracy by May 21.	3532742	1472008156770	1472008156913		69
6895	74275	The military refuses to leave power and restore democracy by May 21.	THe military refuses to leave power and restore democracy by May 21.	3532745	1472008156903	1472008157031		77
6895	74275	The military refuses to leave power and restore democracy by May 21.	THe military refuses to leave power and restore democracy by May 21.	3532776	1472008157005	1472008157112		79
6895	74275	The military refuses to leave power and restore democracy by May 21.	THe military refuses to leave power and restore democracy by May 21.	3532778	1472008157247	1472008157354		67
6895	74275	The military refuses to leave power and restore democracy by May 21.	THe military refuses to leave power and restore democracy by May 21.	3532782	1472008157448	1472008157539		82
6895	74275	The military refuses to leave power and restore democracy by May 21.	THe military refuses to leave power and restore democracy by May 21.	3532784	1472008157569	1472008157704		65
6895	74275	The military refuses to leave power and restore democracy by May 21.	THe military refuses to leave power and restore democracy by May 21.	3532789	1472008157698	1472008157822		67
6895	74275	The military refuses to leave power and restore democracy by May 21.	THe military refuses to leave power and restore democracy by May 21.	3532795	1472008157864	1472008157952		89
6895	74275	The military refuses to leave power and restore democracy by May 21.	THe military refuses to leave power and restore democracy by May 21.	3532834	1472008157994	1472008158096		32
6895	74275	The military refuses to leave power and restore democracy by May 21.	THe military refuses to leave power and restore democracy by May 21.	3532839	1472008158455	1472008158582		66
6895	74275	The military refuses to leave power and restore democracy by May 21.	THe military refuses to leave power and restore democracy by May 21.	3532843	1472008158561	1472008158673		89
6895	74275	The military refuses to leave power and restore democracy by May 21.	THe military refuses to leave power and restore democracy by May 21.	3532848	1472008158685	1472008158791		32
6895	74275	The military refuses to leave power and restore democracy by May 21.	THe military refuses to leave power and restore democracy by May 21.	3532897	1472008158889	1472008159107	SHIFT	16
6895	74275	The military refuses to leave power and restore democracy by May 21.	THe military refuses to leave power and restore democracy by May 21.	3532852	1472008159002	1472008159102		77
6895	74275	The military refuses to leave power and restore democracy by May 21.	THe military refuses to leave power and restore democracy by May 21.	3532900	1472008159228	1472008159319		65
6895	74275	The military refuses to leave power and restore democracy by May 21.	THe military refuses to leave power and restore democracy by May 21.	3532904	1472008159347	1472008159432		89
6895	74275	The military refuses to leave power and restore democracy by May 21.	THe military refuses to leave power and restore democracy by May 21.	3532906	1472008160098	1472008160189		32
6895	74275	The military refuses to leave power and restore democracy by May 21.	THe military refuses to leave power and restore democracy by May 21.	3532908	1472008160168	1472008160297		50
6895	74275	The military refuses to leave power and restore democracy by May 21.	THe military refuses to leave power and restore democracy by May 21.	3532917	1472008160254	1472008160378		49
6895	74275	The military refuses to leave power and restore democracy by May 21.	THe military refuses to leave power and restore democracy by May 21.	3532920	1472008160585	1472008160691		190
6895	74302	I'm going to class.	I'm going to class.	3533182	1472008164315	1472008164551	SHIFT	16
6895	74302	I'm going to class.	I'm going to class.	3533176	1472008164455	1472008164540		73
6895	74302	I'm going to class.	I'm going to class.	3533187	1472008164847	1472008164943		222
6895	74302	I'm going to class.	I'm going to class.	3533194	1472008165076	1472008165182		77
6895	74302	I'm going to class.	I'm going to class.	3533197	1472008165212	1472008165319		32
6895	74302	I'm going to class.	I'm going to class.	3533202	1472008165667	1472008165762		71
6895	74302	I'm going to class.	I'm going to class.	3533213	1472008165737	1472008165880		79
6895	74302	I'm going to class.	I'm going to class.	3533215	1472008165817	1472008165932		73
6895	74302	I'm going to class.	I'm going to class.	3533216	1472008165991	1472008166082		78
6895	74302	I'm going to class.	I'm going to class.	3533218	1472008166088	1472008166196		71
6895	74302	I'm going to class.	I'm going to class.	3533219	1472008166185	1472008166280		32
6895	74302	I'm going to class.	I'm going to class.	3533220	1472008166375	1472008166455		84
6895	74302	I'm going to class.	I'm going to class.	3533236	1472008166429	1472008166578		79
6895	74302	I'm going to class.	I'm going to class.	3533237	1472008166542	1472008166632		32
6895	74302	I'm going to class.	I'm going to class.	3533238	1472008166741	1472008166832		67
6895	74302	I'm going to class.	I'm going to class.	3533239	1472008166848	1472008166952		76
6895	74302	I'm going to class.	I'm going to class.	3533240	1472008166953	1472008167040		65
6895	74302	I'm going to class.	I'm going to class.	3533241	1472008167149	1472008167222		83
6895	74302	I'm going to class.	I'm going to class.	3533309	1472008167273	1472008167363		83
6895	74302	I'm going to class.	I'm going to class.	3533312	1472008167348	1472008167411		190
6895	74302	I'm going to class.	I'm going to class.	3533317	1472008167517	1472008167591		100
6895	74311	We are down to 3 employees here in Denver.	We are down to 3 employees here in Denver.	3533671	1472008174863	1472008175067	SHIFT	16
6895	74311	We are down to 3 employees here in Denver.	We are down to 3 employees here in Denver.	3533672	1472008175035	1472008175164		87
6895	74311	We are down to 3 employees here in Denver.	We are down to 3 employees here in Denver.	3533675	1472008175122	1472008175206		69
6895	74311	We are down to 3 employees here in Denver.	We are down to 3 employees here in Denver.	3533679	1472008175223	1472008175314		32
6895	74311	We are down to 3 employees here in Denver.	We are down to 3 employees here in Denver.	3533683	1472008175337	1472008175450		65
6895	74311	We are down to 3 employees here in Denver.	We are down to 3 employees here in Denver.	3533722	1472008175418	1472008175556		82
6895	74311	We are down to 3 employees here in Denver.	We are down to 3 employees here in Denver.	3533724	1472008175513	1472008175615		69
6895	74311	We are down to 3 employees here in Denver.	We are down to 3 employees here in Denver.	3533726	1472008175573	1472008175680		32
6895	74311	We are down to 3 employees here in Denver.	We are down to 3 employees here in Denver.	3533728	1472008175981	1472008176067		68
6895	74311	We are down to 3 employees here in Denver.	We are down to 3 employees here in Denver.	3533729	1472008176062	1472008176178		79
6895	74311	We are down to 3 employees here in Denver.	We are down to 3 employees here in Denver.	3533753	1472008176175	1472008176293		87
6895	74311	We are down to 3 employees here in Denver.	We are down to 3 employees here in Denver.	3533760	1472008176280	1472008176382		78
6895	74311	We are down to 3 employees here in Denver.	We are down to 3 employees here in Denver.	3533766	1472008176410	1472008176501		32
6895	74311	We are down to 3 employees here in Denver.	We are down to 3 employees here in Denver.	3533772	1472008176976	1472008177074		84
6895	74311	We are down to 3 employees here in Denver.	We are down to 3 employees here in Denver.	3533780	1472008177050	1472008177173		79
6895	74311	We are down to 3 employees here in Denver.	We are down to 3 employees here in Denver.	3533807	1472008177147	1472008177238		32
6895	74311	We are down to 3 employees here in Denver.	We are down to 3 employees here in Denver.	3533808	1472008177610	1472008177701		51
6895	74311	We are down to 3 employees here in Denver.	We are down to 3 employees here in Denver.	3533810	1472008177740	1472008177853		32
6895	74311	We are down to 3 employees here in Denver.	We are down to 3 employees here in Denver.	3533813	1472008177980	1472008178076		69
6895	74311	We are down to 3 employees here in Denver.	We are down to 3 employees here in Denver.	3533818	1472008178071	1472008178173		77
6895	74311	We are down to 3 employees here in Denver.	We are down to 3 employees here in Denver.	3533824	1472008178226	1472008178354		80
6895	74311	We are down to 3 employees here in Denver.	We are down to 3 employees here in Denver.	3533866	1472008178301	1472008178397		76
6895	74311	We are down to 3 employees here in Denver.	We are down to 3 employees here in Denver.	3533872	1472008178482	1472008178572		79
6895	74311	We are down to 3 employees here in Denver.	We are down to 3 employees here in Denver.	3533878	1472008178732	1472008178806		89
6895	74311	We are down to 3 employees here in Denver.	We are down to 3 employees here in Denver.	3533882	1472008178874	1472008178965		69
6895	74311	We are down to 3 employees here in Denver.	We are down to 3 employees here in Denver.	3533886	1472008179027	1472008179120		69
6895	74311	We are down to 3 employees here in Denver.	We are down to 3 employees here in Denver.	3533889	1472008179178	1472008179301		83
6895	74311	We are down to 3 employees here in Denver.	We are down to 3 employees here in Denver.	3533920	1472008179367	1472008179490		32
6895	74311	We are down to 3 employees here in Denver.	We are down to 3 employees here in Denver.	3533923	1472008179825	1472008179922		72
6895	74311	We are down to 3 employees here in Denver.	We are down to 3 employees here in Denver.	3533931	1472008179905	1472008180025		69
6895	74311	We are down to 3 employees here in Denver.	We are down to 3 employees here in Denver.	3533935	1472008179980	1472008180141		82
6895	74311	We are down to 3 employees here in Denver.	We are down to 3 employees here in Denver.	3533983	1472008180105	1472008180211		69
6895	74311	We are down to 3 employees here in Denver.	We are down to 3 employees here in Denver.	3533985	1472008180206	1472008180302		32
6895	74311	We are down to 3 employees here in Denver.	We are down to 3 employees here in Denver.	3533986	1472008180588	1472008180721		73
6895	74311	We are down to 3 employees here in Denver.	We are down to 3 employees here in Denver.	3533988	1472008180652	1472008180791		78
6895	74311	We are down to 3 employees here in Denver.	We are down to 3 employees here in Denver.	3533989	1472008180743	1472008180849		32
6895	74311	We are down to 3 employees here in Denver.	We are down to 3 employees here in Denver.	3533991	1472008180973	1472008181150	SHIFT	16
6895	74311	We are down to 3 employees here in Denver.	We are down to 3 employees here in Denver.	3533999	1472008181096	1472008181202		68
6895	74311	We are down to 3 employees here in Denver.	We are down to 3 employees here in Denver.	3534003	1472008181236	1472008181326		69
6895	74311	We are down to 3 employees here in Denver.	We are down to 3 employees here in Denver.	3534008	1472008181380	1472008181465		78
6895	74311	We are down to 3 employees here in Denver.	We are down to 3 employees here in Denver.	3534012	1472008181461	1472008181557		86
6895	74311	We are down to 3 employees here in Denver.	We are down to 3 employees here in Denver.	3534014	1472008181529	1472008181684		69
6895	74311	We are down to 3 employees here in Denver.	We are down to 3 employees here in Denver.	3534068	1472008181645	1472008181749		82
6895	74311	We are down to 3 employees here in Denver.	We are down to 3 employees here in Denver.	3534071	1472008181897	1472008181972		190
6895	74311	We are down to 3 employees here in Denver.	We are down to 3 employees here in Denver.	3534074	1472008182053	1472008182112		100
