PARTICIPANT_ID	TEST_SECTION_ID	SENTENCE	USER_INPUT	KEYSTROKE_ID	PRESS_TIME	RELEASE_TIME	LETTER	KEYCODE
6898	74068	Foreign insurance firms can file applications to the ministry.	foreign insurance firms can file applications to the ministry	3522110	1472007972604	1472007972705	f	70
6898	74068	Foreign insurance firms can file applications to the ministry.	foreign insurance firms can file applications to the ministry	3522113	1472007972695	1472007972809	o	79
6898	74068	Foreign insurance firms can file applications to the ministry.	foreign insurance firms can file applications to the ministry	3522114	1472007972857	1472007972947	r	82
6898	74068	Foreign insurance firms can file applications to the ministry.	foreign insurance firms can file applications to the ministry	3522117	1472007974078	1472007974162	e	69
6898	74068	Foreign insurance firms can file applications to the ministry.	foreign insurance firms can file applications to the ministry	3522119	1472007975106	1472007975197	i	73
6898	74068	Foreign insurance firms can file applications to the ministry.	foreign insurance firms can file applications to the ministry	3522189	1472007975385	1472007975495	g	71
6898	74068	Foreign insurance firms can file applications to the ministry.	foreign insurance firms can file applications to the ministry	3522192	1472007975584	1472007975721	n	78
6898	74068	Foreign insurance firms can file applications to the ministry.	foreign insurance firms can file applications to the ministry	3522195	1472007975692	1472007975837	 	32
6898	74068	Foreign insurance firms can file applications to the ministry.	foreign insurance firms can file applications to the ministry	3522197	1472007976323	1472007976405	i	73
6898	74068	Foreign insurance firms can file applications to the ministry.	foreign insurance firms can file applications to the ministry	3522202	1472007976499	1472007976609	n	78
6898	74068	Foreign insurance firms can file applications to the ministry.	foreign insurance firms can file applications to the ministry	3522245	1472007976791	1472007976876	s	83
6898	74068	Foreign insurance firms can file applications to the ministry.	foreign insurance firms can file applications to the ministry	3522250	1472007977087	1472007977180	u	85
6898	74068	Foreign insurance firms can file applications to the ministry.	foreign insurance firms can file applications to the ministry	3522254	1472007977262	1472007977349	r	82
6898	74068	Foreign insurance firms can file applications to the ministry.	foreign insurance firms can file applications to the ministry	3522261	1472007977535	1472007977635	a	65
6898	74068	Foreign insurance firms can file applications to the ministry.	foreign insurance firms can file applications to the ministry	3522268	1472007977722	1472007977844	n	78
6898	74068	Foreign insurance firms can file applications to the ministry.	foreign insurance firms can file applications to the ministry	3522364	1472007978010	1472007978203	c	67
6898	74068	Foreign insurance firms can file applications to the ministry.	foreign insurance firms can file applications to the ministry	3522365	1472007978149	1472007978252	e	69
6898	74068	Foreign insurance firms can file applications to the ministry.	foreign insurance firms can file applications to the ministry	3522367	1472007978857	1472007978945	 	32
6898	74068	Foreign insurance firms can file applications to the ministry.	foreign insurance firms can file applications to the ministry	3522370	1472007979238	1472007979330	f	70
6898	74068	Foreign insurance firms can file applications to the ministry.	foreign insurance firms can file applications to the ministry	3522373	1472007979469	1472007979546	i	73
6898	74068	Foreign insurance firms can file applications to the ministry.	foreign insurance firms can file applications to the ministry	3522443	1472007979586	1472007979660	r	82
6898	74068	Foreign insurance firms can file applications to the ministry.	foreign insurance firms can file applications to the ministry	3522447	1472007979810	1472007979933	m	77
6898	74068	Foreign insurance firms can file applications to the ministry.	foreign insurance firms can file applications to the ministry	3522450	1472007979906	1472007980002	s	83
6898	74068	Foreign insurance firms can file applications to the ministry.	foreign insurance firms can file applications to the ministry	3522452	1472007980109	1472007980230	 	32
6898	74068	Foreign insurance firms can file applications to the ministry.	foreign insurance firms can file applications to the ministry	3522455	1472007980701	1472007980804	f	70
6898	74068	Foreign insurance firms can file applications to the ministry.	foreign insurance firms can file applications to the ministry	3522477	1472007981120	1472007981214	BKSP	8
6898	74068	Foreign insurance firms can file applications to the ministry.	foreign insurance firms can file applications to the ministry	3522480	1472007981241	1472007981435	c	67
6898	74068	Foreign insurance firms can file applications to the ministry.	foreign insurance firms can file applications to the ministry	3522484	1472007981370	1472007981495	a	65
6898	74068	Foreign insurance firms can file applications to the ministry.	foreign insurance firms can file applications to the ministry	3522489	1472007981606	1472007981773	n	78
6898	74068	Foreign insurance firms can file applications to the ministry.	foreign insurance firms can file applications to the ministry	3522494	1472007981695	1472007981829	 	32
6898	74068	Foreign insurance firms can file applications to the ministry.	foreign insurance firms can file applications to the ministry	3522496	1472007981907	1472007981997	f	70
6898	74068	Foreign insurance firms can file applications to the ministry.	foreign insurance firms can file applications to the ministry	3522555	1472007982075	1472007982166	i	73
6898	74068	Foreign insurance firms can file applications to the ministry.	foreign insurance firms can file applications to the ministry	3522558	1472007982302	1472007982422	l	76
6898	74068	Foreign insurance firms can file applications to the ministry.	foreign insurance firms can file applications to the ministry	3522560	1472007982433	1472007982509	e	69
6898	74068	Foreign insurance firms can file applications to the ministry.	foreign insurance firms can file applications to the ministry	3522562	1472007982574	1472007982681	 	32
6898	74068	Foreign insurance firms can file applications to the ministry.	foreign insurance firms can file applications to the ministry	3522565	1472007983272	1472007983350	a	65
6898	74068	Foreign insurance firms can file applications to the ministry.	foreign insurance firms can file applications to the ministry	3522628	1472007983536	1472007983613	p	80
6898	74068	Foreign insurance firms can file applications to the ministry.	foreign insurance firms can file applications to the ministry	3522633	1472007983694	1472007983788	p	80
6898	74068	Foreign insurance firms can file applications to the ministry.	foreign insurance firms can file applications to the ministry	3522636	1472007983883	1472007983981	l	76
6898	74068	Foreign insurance firms can file applications to the ministry.	foreign insurance firms can file applications to the ministry	3522640	1472007984124	1472007984199	i	73
6898	74068	Foreign insurance firms can file applications to the ministry.	foreign insurance firms can file applications to the ministry	3522643	1472007984391	1472007984534	c	67
6898	74068	Foreign insurance firms can file applications to the ministry.	foreign insurance firms can file applications to the ministry	3522657	1472007984550	1472007984638	a	65
6898	74068	Foreign insurance firms can file applications to the ministry.	foreign insurance firms can file applications to the ministry	3522660	1472007984811	1472007984877	t	84
6898	74068	Foreign insurance firms can file applications to the ministry.	foreign insurance firms can file applications to the ministry	3522664	1472007984973	1472007985130	i	73
6898	74068	Foreign insurance firms can file applications to the ministry.	foreign insurance firms can file applications to the ministry	3522667	1472007985043	1472007985192	o	79
6898	74068	Foreign insurance firms can file applications to the ministry.	foreign insurance firms can file applications to the ministry	3522672	1472007985317	1472007985413	n	78
6898	74068	Foreign insurance firms can file applications to the ministry.	foreign insurance firms can file applications to the ministry	3522708	1472007985525	1472007985615	s	83
6898	74068	Foreign insurance firms can file applications to the ministry.	foreign insurance firms can file applications to the ministry	3522710	1472007985727	1472007985850	 	32
6898	74068	Foreign insurance firms can file applications to the ministry.	foreign insurance firms can file applications to the ministry	3522712	1472007986121	1472007986189	t	84
6898	74068	Foreign insurance firms can file applications to the ministry.	foreign insurance firms can file applications to the ministry	3522713	1472007986255	1472007986420	o	79
6898	74068	Foreign insurance firms can file applications to the ministry.	foreign insurance firms can file applications to the ministry	3522744	1472007986370	1472007986491	 	32
6898	74068	Foreign insurance firms can file applications to the ministry.	foreign insurance firms can file applications to the ministry	3522745	1472007986573	1472007986652	t	84
6898	74068	Foreign insurance firms can file applications to the ministry.	foreign insurance firms can file applications to the ministry	3522747	1472007986719	1472007986809	h	72
6898	74068	Foreign insurance firms can file applications to the ministry.	foreign insurance firms can file applications to the ministry	3522748	1472007986818	1472007986895	e	69
6898	74068	Foreign insurance firms can file applications to the ministry.	foreign insurance firms can file applications to the ministry	3522749	1472007986945	1472007987062	 	32
6898	74068	Foreign insurance firms can file applications to the ministry.	foreign insurance firms can file applications to the ministry	3522750	1472007987638	1472007987728	m	77
6898	74068	Foreign insurance firms can file applications to the ministry.	foreign insurance firms can file applications to the ministry	3522796	1472007988232	1472007988305	i	73
6898	74068	Foreign insurance firms can file applications to the ministry.	foreign insurance firms can file applications to the ministry	3522798	1472007988406	1472007988493	n	78
6898	74068	Foreign insurance firms can file applications to the ministry.	foreign insurance firms can file applications to the ministry	3522800	1472007988637	1472007988714	i	73
6898	74068	Foreign insurance firms can file applications to the ministry.	foreign insurance firms can file applications to the ministry	3522802	1472007988958	1472007989045	s	83
6898	74068	Foreign insurance firms can file applications to the ministry.	foreign insurance firms can file applications to the ministry	3522804	1472007989213	1472007989284	t	84
6898	74068	Foreign insurance firms can file applications to the ministry.	foreign insurance firms can file applications to the ministry	3522829	1472007989417	1472007989507	r	82
6898	74068	Foreign insurance firms can file applications to the ministry.	foreign insurance firms can file applications to the ministry	3522831	1472007989624	1472007989725	y	89
6898	74093	Juntao is in Washington this week  meeting with lawmakers.	juntao is in washington this week meeting with lawmakers	3523368	1472007997967	1472007998066	j	74
6898	74093	Juntao is in Washington this week  meeting with lawmakers.	juntao is in washington this week meeting with lawmakers	3523371	1472007998152	1472007998236	u	85
6898	74093	Juntao is in Washington this week  meeting with lawmakers.	juntao is in washington this week meeting with lawmakers	3523375	1472007998369	1472007998445	j	74
6898	74093	Juntao is in Washington this week  meeting with lawmakers.	juntao is in washington this week meeting with lawmakers	3523380	1472007999256	1472007999355	BKSP	8
6898	74093	Juntao is in Washington this week  meeting with lawmakers.	juntao is in washington this week meeting with lawmakers	3523384	1472007999932	1472008000014	n	78
6898	74093	Juntao is in Washington this week  meeting with lawmakers.	juntao is in washington this week meeting with lawmakers	3523390	1472008000148	1472008000225	t	84
6898	74093	Juntao is in Washington this week  meeting with lawmakers.	juntao is in washington this week meeting with lawmakers	3523524	1472008000439	1472008000514	e	69
6898	74093	Juntao is in Washington this week  meeting with lawmakers.	juntao is in washington this week meeting with lawmakers	3523529	1472008000762	1472008000849	BKSP	8
6898	74093	Juntao is in Washington this week  meeting with lawmakers.	juntao is in washington this week meeting with lawmakers	3523533	1472008000863	1472008000962	a	65
6898	74093	Juntao is in Washington this week  meeting with lawmakers.	juntao is in washington this week meeting with lawmakers	3523535	1472008001571	1472008001646	o	79
6898	74093	Juntao is in Washington this week  meeting with lawmakers.	juntao is in washington this week meeting with lawmakers	3523536	1472008001753	1472008001855	 	32
6898	74093	Juntao is in Washington this week  meeting with lawmakers.	juntao is in washington this week meeting with lawmakers	3523537	1472008002216	1472008002288	i	73
6898	74093	Juntao is in Washington this week  meeting with lawmakers.	juntao is in washington this week meeting with lawmakers	3523650	1472008002390	1472008002512	n	78
6898	74093	Juntao is in Washington this week  meeting with lawmakers.	juntao is in washington this week meeting with lawmakers	3523654	1472008002510	1472008002602	 	32
6898	74093	Juntao is in Washington this week  meeting with lawmakers.	juntao is in washington this week meeting with lawmakers	3523660	1472008002702	1472008002759	a	65
6898	74093	Juntao is in Washington this week  meeting with lawmakers.	juntao is in washington this week meeting with lawmakers	3523665	1472008003183	1472008003279	BKSP	8
6898	74093	Juntao is in Washington this week  meeting with lawmakers.	juntao is in washington this week meeting with lawmakers	3523670	1472008003456	1472008003535	i	73
6898	74093	Juntao is in Washington this week  meeting with lawmakers.	juntao is in washington this week meeting with lawmakers	3523674	1472008003925	1472008004033	BKSP	8
6898	74093	Juntao is in Washington this week  meeting with lawmakers.	juntao is in washington this week meeting with lawmakers	3523676	1472008004109	1472008004196	BKSP	8
6898	74093	Juntao is in Washington this week  meeting with lawmakers.	juntao is in washington this week meeting with lawmakers	3523679	1472008004278	1472008004357	BKSP	8
6898	74093	Juntao is in Washington this week  meeting with lawmakers.	juntao is in washington this week meeting with lawmakers	3523682	1472008004571	1472008004657	a	65
6898	74093	Juntao is in Washington this week  meeting with lawmakers.	juntao is in washington this week meeting with lawmakers	3523751	1472008004725	1472008004832	 	32
6898	74093	Juntao is in Washington this week  meeting with lawmakers.	juntao is in washington this week meeting with lawmakers	3523754	1472008005177	1472008005251	BKSP	8
6898	74093	Juntao is in Washington this week  meeting with lawmakers.	juntao is in washington this week meeting with lawmakers	3523757	1472008005334	1472008005438	BKSP	8
6898	74093	Juntao is in Washington this week  meeting with lawmakers.	juntao is in washington this week meeting with lawmakers	3523760	1472008005433	1472008005518	s	83
6898	74093	Juntao is in Washington this week  meeting with lawmakers.	juntao is in washington this week meeting with lawmakers	3523762	1472008005553	1472008005651	 	32
6898	74093	Juntao is in Washington this week  meeting with lawmakers.	juntao is in washington this week meeting with lawmakers	3523764	1472008005891	1472008005984	i	73
6898	74093	Juntao is in Washington this week  meeting with lawmakers.	juntao is in washington this week meeting with lawmakers	3523766	1472008006069	1472008006217	n	78
6898	74093	Juntao is in Washington this week  meeting with lawmakers.	juntao is in washington this week meeting with lawmakers	3523816	1472008006136	1472008006255	 	32
6898	74093	Juntao is in Washington this week  meeting with lawmakers.	juntao is in washington this week meeting with lawmakers	3523818	1472008006381	1472008006490	w	87
6898	74093	Juntao is in Washington this week  meeting with lawmakers.	juntao is in washington this week meeting with lawmakers	3523821	1472008006572	1472008006693	a	65
6898	74093	Juntao is in Washington this week  meeting with lawmakers.	juntao is in washington this week meeting with lawmakers	3523825	1472008006803	1472008006894	s	83
6898	74093	Juntao is in Washington this week  meeting with lawmakers.	juntao is in washington this week meeting with lawmakers	3523826	1472008007071	1472008007159	h	72
6898	74093	Juntao is in Washington this week  meeting with lawmakers.	juntao is in washington this week meeting with lawmakers	3523830	1472008007224	1472008007337	i	73
6898	74093	Juntao is in Washington this week  meeting with lawmakers.	juntao is in washington this week meeting with lawmakers	3524020	1472008007374	1472008007501	n	78
6898	74093	Juntao is in Washington this week  meeting with lawmakers.	juntao is in washington this week meeting with lawmakers	3524024	1472008010305	1472008010377	g	71
6898	74093	Juntao is in Washington this week  meeting with lawmakers.	juntao is in washington this week meeting with lawmakers	3524029	1472008010482	1472008010559	t	84
6898	74093	Juntao is in Washington this week  meeting with lawmakers.	juntao is in washington this week meeting with lawmakers	3524036	1472008010651	1472008010733	o	79
6898	74093	Juntao is in Washington this week  meeting with lawmakers.	juntao is in washington this week meeting with lawmakers	3524042	1472008010932	1472008011082	n	78
6898	74093	Juntao is in Washington this week  meeting with lawmakers.	juntao is in washington this week meeting with lawmakers	3524120	1472008010998	1472008011135	 	32
6898	74093	Juntao is in Washington this week  meeting with lawmakers.	juntao is in washington this week meeting with lawmakers	3524124	1472008011226	1472008011320	t	84
6898	74093	Juntao is in Washington this week  meeting with lawmakers.	juntao is in washington this week meeting with lawmakers	3524128	1472008011351	1472008011442	h	72
6898	74093	Juntao is in Washington this week  meeting with lawmakers.	juntao is in washington this week meeting with lawmakers	3524134	1472008011972	1472008012052	i	73
6898	74093	Juntao is in Washington this week  meeting with lawmakers.	juntao is in washington this week meeting with lawmakers	3524137	1472008012084	1472008012164	s	83
6898	74093	Juntao is in Washington this week  meeting with lawmakers.	juntao is in washington this week meeting with lawmakers	3524142	1472008012187	1472008012304	 	32
6898	74093	Juntao is in Washington this week  meeting with lawmakers.	juntao is in washington this week meeting with lawmakers	3524207	1472008013023	1472008013169	w	87
6898	74093	Juntao is in Washington this week  meeting with lawmakers.	juntao is in washington this week meeting with lawmakers	3524210	1472008013133	1472008013240	e	69
6898	74093	Juntao is in Washington this week  meeting with lawmakers.	juntao is in washington this week meeting with lawmakers	3524217	1472008013332	1472008013432	e	69
6898	74093	Juntao is in Washington this week  meeting with lawmakers.	juntao is in washington this week meeting with lawmakers	3524223	1472008013507	1472008013682	k	75
6898	74093	Juntao is in Washington this week  meeting with lawmakers.	juntao is in washington this week meeting with lawmakers	3524282	1472008013619	1472008013736	 	32
6898	74093	Juntao is in Washington this week  meeting with lawmakers.	juntao is in washington this week meeting with lawmakers	3524284	1472008013844	1472008013944	m	77
6898	74093	Juntao is in Washington this week  meeting with lawmakers.	juntao is in washington this week meeting with lawmakers	3524293	1472008013964	1472008014061	e	69
6898	74093	Juntao is in Washington this week  meeting with lawmakers.	juntao is in washington this week meeting with lawmakers	3524299	1472008014142	1472008014238	e	69
6898	74093	Juntao is in Washington this week  meeting with lawmakers.	juntao is in washington this week meeting with lawmakers	3524305	1472008014401	1472008014474	t	84
6898	74093	Juntao is in Washington this week  meeting with lawmakers.	juntao is in washington this week meeting with lawmakers	3524311	1472008014546	1472008014644	i	73
6898	74093	Juntao is in Washington this week  meeting with lawmakers.	juntao is in washington this week meeting with lawmakers	3524390	1472008014725	1472008014821	n	78
6898	74093	Juntao is in Washington this week  meeting with lawmakers.	juntao is in washington this week meeting with lawmakers	3524395	1472008014859	1472008014939	g	71
6898	74093	Juntao is in Washington this week  meeting with lawmakers.	juntao is in washington this week meeting with lawmakers	3524397	1472008014991	1472008015090	 	32
6898	74093	Juntao is in Washington this week  meeting with lawmakers.	juntao is in washington this week meeting with lawmakers	3524398	1472008015571	1472008015656	w	87
6898	74093	Juntao is in Washington this week  meeting with lawmakers.	juntao is in washington this week meeting with lawmakers	3524399	1472008015854	1472008015949	i	73
6898	74093	Juntao is in Washington this week  meeting with lawmakers.	juntao is in washington this week meeting with lawmakers	3524434	1472008016117	1472008016177	t	84
6898	74093	Juntao is in Washington this week  meeting with lawmakers.	juntao is in washington this week meeting with lawmakers	3524436	1472008016266	1472008016403	h	72
6898	74093	Juntao is in Washington this week  meeting with lawmakers.	juntao is in washington this week meeting with lawmakers	3524438	1472008016347	1472008016465	 	32
6898	74093	Juntao is in Washington this week  meeting with lawmakers.	juntao is in washington this week meeting with lawmakers	3524440	1472008016720	1472008016835	l	76
6898	74093	Juntao is in Washington this week  meeting with lawmakers.	juntao is in washington this week meeting with lawmakers	3524478	1472008016831	1472008016970	a	65
6898	74093	Juntao is in Washington this week  meeting with lawmakers.	juntao is in washington this week meeting with lawmakers	3524481	1472008017015	1472008017131	w	87
6898	74093	Juntao is in Washington this week  meeting with lawmakers.	juntao is in washington this week meeting with lawmakers	3524484	1472008017392	1472008017485	m	77
6898	74093	Juntao is in Washington this week  meeting with lawmakers.	juntao is in washington this week meeting with lawmakers	3524488	1472008017511	1472008017605	a	65
6898	74093	Juntao is in Washington this week  meeting with lawmakers.	juntao is in washington this week meeting with lawmakers	3524492	1472008017711	1472008017798	k	75
6898	74093	Juntao is in Washington this week  meeting with lawmakers.	juntao is in washington this week meeting with lawmakers	3524497	1472008017913	1472008017993	i	73
6898	74093	Juntao is in Washington this week  meeting with lawmakers.	juntao is in washington this week meeting with lawmakers	3524596	1472008018422	1472008018518	BKSP	8
6898	74093	Juntao is in Washington this week  meeting with lawmakers.	juntao is in washington this week meeting with lawmakers	3524601	1472008019954	1472008020099	e	69
6898	74093	Juntao is in Washington this week  meeting with lawmakers.	juntao is in washington this week meeting with lawmakers	3524607	1472008020041	1472008020136	r	82
6898	74093	Juntao is in Washington this week  meeting with lawmakers.	juntao is in washington this week meeting with lawmakers	3524612	1472008020228	1472008020343	s	83
6898	74128	I am out of town on business.	i am out of town on buisness	3524853	1472008024232	1472008024440	i	73
6898	74128	I am out of town on business.	i am out of town on buisness	3524859	1472008024353	1472008024484	 	32
6898	74128	I am out of town on business.	i am out of town on buisness	3524864	1472008024561	1472008024650	a	65
6898	74128	I am out of town on business.	i am out of town on buisness	3524870	1472008024779	1472008024936	m	77
6898	74128	I am out of town on business.	i am out of town on buisness	3524907	1472008024841	1472008025000	 	32
6898	74128	I am out of town on business.	i am out of town on buisness	3524911	1472008025136	1472008025241	o	79
6898	74128	I am out of town on business.	i am out of town on buisness	3524915	1472008025319	1472008025410	u	85
6898	74128	I am out of town on business.	i am out of town on buisness	3524918	1472008025447	1472008025523	t	84
6898	74128	I am out of town on business.	i am out of town on buisness	3524921	1472008025552	1472008025663	 	32
6898	74128	I am out of town on business.	i am out of town on buisness	3524924	1472008025705	1472008025807	o	79
6898	74128	I am out of town on business.	i am out of town on buisness	3524955	1472008025872	1472008025951	f	70
6898	74128	I am out of town on business.	i am out of town on buisness	3524956	1472008025959	1472008026083	 	32
6898	74128	I am out of town on business.	i am out of town on buisness	3524958	1472008026513	1472008026590	t	84
6898	74128	I am out of town on business.	i am out of town on buisness	3524960	1472008026652	1472008026738	o	79
6898	74128	I am out of town on business.	i am out of town on buisness	3524964	1472008026795	1472008026871	w	87
6898	74128	I am out of town on business.	i am out of town on buisness	3525023	1472008026980	1472008027134	n	78
6898	74128	I am out of town on business.	i am out of town on buisness	3525026	1472008027051	1472008027197	 	32
6898	74128	I am out of town on business.	i am out of town on buisness	3525032	1472008027339	1472008027471	o	79
6898	74128	I am out of town on business.	i am out of town on buisness	3525037	1472008027652	1472008027815	n	78
6898	74128	I am out of town on business.	i am out of town on buisness	3525145	1472008027724	1472008027871	 	32
6898	74128	I am out of town on business.	i am out of town on buisness	3525151	1472008028202	1472008028305	b	66
6898	74128	I am out of town on business.	i am out of town on buisness	3525155	1472008028415	1472008028511	u	85
6898	74128	I am out of town on business.	i am out of town on buisness	3525157	1472008028754	1472008028839	i	73
6898	74128	I am out of town on business.	i am out of town on buisness	3525160	1472008029188	1472008029277	n	78
6898	74128	I am out of town on business.	i am out of town on buisness	3525163	1472008029576	1472008029656	BKSP	8
6898	74128	I am out of town on business.	i am out of town on buisness	3525165	1472008029724	1472008029813	s	83
6898	74128	I am out of town on business.	i am out of town on buisness	3525211	1472008030133	1472008030216	n	78
6898	74128	I am out of town on business.	i am out of town on buisness	3525215	1472008030302	1472008030388	e	69
6898	74128	I am out of town on business.	i am out of town on buisness	3525218	1472008030498	1472008030585	s	83
6898	74128	I am out of town on business.	i am out of town on buisness	3525222	1472008030651	1472008030732	s	83
6898	74141	Tried to call but couldn't reach you.	tried to call but couldnt reach you 	3525438	1472008034592	1472008034679	t	84
6898	74141	Tried to call but couldn't reach you.	tried to call but couldnt reach you 	3525440	1472008034794	1472008034887	r	82
6898	74141	Tried to call but couldn't reach you.	tried to call but couldnt reach you 	3525444	1472008035003	1472008035086	i	73
6898	74141	Tried to call but couldn't reach you.	tried to call but couldnt reach you 	3525448	1472008035179	1472008035262	e	69
6898	74141	Tried to call but couldn't reach you.	tried to call but couldnt reach you 	3525452	1472008035377	1472008035466	d	68
6898	74141	Tried to call but couldn't reach you.	tried to call but couldnt reach you 	3525472	1472008035503	1472008035626	 	32
6898	74141	Tried to call but couldn't reach you.	tried to call but couldnt reach you 	3525476	1472008035675	1472008035743	t	84
6898	74141	Tried to call but couldn't reach you.	tried to call but couldnt reach you 	3525479	1472008035816	1472008035967	o	79
6898	74141	Tried to call but couldn't reach you.	tried to call but couldnt reach you 	3525483	1472008035889	1472008036015	 	32
6898	74141	Tried to call but couldn't reach you.	tried to call but couldnt reach you 	3525487	1472008036056	1472008036215	c	67
6898	74141	Tried to call but couldn't reach you.	tried to call but couldnt reach you 	3525528	1472008036160	1472008036271	a	65
6898	74141	Tried to call but couldn't reach you.	tried to call but couldnt reach you 	3525533	1472008036334	1472008036430	l	76
6898	74141	Tried to call but couldn't reach you.	tried to call but couldnt reach you 	3525537	1472008036502	1472008036598	 	76
6898	74141	Tried to call but couldn't reach you.	tried to call but couldnt reach you 	3525539	1472008036904	1472008037045	b	66
6898	74141	Tried to call but couldn't reach you.	tried to call but couldnt reach you 	3525603	1472008037021	1472008037144	u	85
6898	74141	Tried to call but couldn't reach you.	tried to call but couldnt reach you 	3525608	1472008037226	1472008037321	t	84
6898	74141	Tried to call but couldn't reach you.	tried to call but couldnt reach you 	3525613	1472008037310	1472008037435	 	32
6898	74141	Tried to call but couldn't reach you.	tried to call but couldnt reach you 	3525619	1472008038087	1472008038167	c	67
6898	74141	Tried to call but couldn't reach you.	tried to call but couldnt reach you 	3525624	1472008038212	1472008038413	o	79
6898	74141	Tried to call but couldn't reach you.	tried to call but couldnt reach you 	3525679	1472008038345	1472008038434	u	85
6898	74141	Tried to call but couldn't reach you.	tried to call but couldnt reach you 	3525684	1472008038560	1472008038665	l	76
6898	74141	Tried to call but couldn't reach you.	tried to call but couldnt reach you 	3525688	1472008038717	1472008038804	d	68
6898	74141	Tried to call but couldn't reach you.	tried to call but couldnt reach you 	3525691	1472008038929	1472008039029	n	78
6898	74141	Tried to call but couldn't reach you.	tried to call but couldnt reach you 	3525694	1472008039101	1472008039170	t	84
6898	74141	Tried to call but couldn't reach you.	tried to call but couldnt reach you 	3525697	1472008039210	1472008039318	 	32
6898	74141	Tried to call but couldn't reach you.	tried to call but couldnt reach you 	3525755	1472008039428	1472008039559	r	82
6898	74141	Tried to call but couldn't reach you.	tried to call but couldnt reach you 	3525760	1472008039584	1472008039758	e	69
6898	74141	Tried to call but couldn't reach you.	tried to call but couldnt reach you 	3525769	1472008039699	1472008039839	a	65
6898	74141	Tried to call but couldn't reach you.	tried to call but couldnt reach you 	3525775	1472008039996	1472008040055	t	84
6898	74141	Tried to call but couldn't reach you.	tried to call but couldnt reach you 	3525784	1472008040346	1472008040433	BKSP	8
6898	74141	Tried to call but couldn't reach you.	tried to call but couldnt reach you 	3525785	1472008040474	1472008040563	c	67
6898	74141	Tried to call but couldn't reach you.	tried to call but couldnt reach you 	3525814	1472008040631	1472008040784	h	72
6898	74141	Tried to call but couldn't reach you.	tried to call but couldnt reach you 	3525816	1472008040725	1472008040849	 	32
6898	74141	Tried to call but couldn't reach you.	tried to call but couldnt reach you 	3525818	1472008040972	1472008041094	y	89
6898	74141	Tried to call but couldn't reach you.	tried to call but couldnt reach you 	3525820	1472008041065	1472008041251	o	79
6898	74141	Tried to call but couldn't reach you.	tried to call but couldnt reach you 	3525822	1472008041193	1472008041301	u	85
6898	74141	Tried to call but couldn't reach you.	tried to call but couldnt reach you 	3525823	1472008041241	1472008041376	 	32
6898	74152	Your prompt attention is appreciated.	your prompt attention is appreciated	3526125	1472008045493	1472008045608	y	89
6898	74152	Your prompt attention is appreciated.	your prompt attention is appreciated	3526128	1472008045604	1472008045798	o	79
6898	74152	Your prompt attention is appreciated.	your prompt attention is appreciated	3526133	1472008045741	1472008045881	u	85
6898	74152	Your prompt attention is appreciated.	your prompt attention is appreciated	3526137	1472008045916	1472008045993	r	82
6898	74152	Your prompt attention is appreciated.	your prompt attention is appreciated	3526139	1472008046024	1472008046129	 	32
6898	74152	Your prompt attention is appreciated.	your prompt attention is appreciated	3526192	1472008046277	1472008046375	p	80
6898	74152	Your prompt attention is appreciated.	your prompt attention is appreciated	3526197	1472008046512	1472008046594	r	82
6898	74152	Your prompt attention is appreciated.	your prompt attention is appreciated	3526204	1472008046760	1472008046843	o	79
6898	74152	Your prompt attention is appreciated.	your prompt attention is appreciated	3526209	1472008046950	1472008047056	m	77
6898	74152	Your prompt attention is appreciated.	your prompt attention is appreciated	3526214	1472008047179	1472008047278	p	80
6898	74152	Your prompt attention is appreciated.	your prompt attention is appreciated	3526282	1472008047549	1472008047616	t	84
6898	74152	Your prompt attention is appreciated.	your prompt attention is appreciated	3526285	1472008047693	1472008047797	 	32
6898	74152	Your prompt attention is appreciated.	your prompt attention is appreciated	3526287	1472008048030	1472008048126	a	65
6898	74152	Your prompt attention is appreciated.	your prompt attention is appreciated	3526291	1472008048317	1472008048396	t	84
6898	74152	Your prompt attention is appreciated.	your prompt attention is appreciated	3526294	1472008048479	1472008048559	t	84
6898	74152	Your prompt attention is appreciated.	your prompt attention is appreciated	3526317	1472008048672	1472008048769	e	69
6898	74152	Your prompt attention is appreciated.	your prompt attention is appreciated	3526318	1472008048998	1472008049085	n	78
6898	74152	Your prompt attention is appreciated.	your prompt attention is appreciated	3526320	1472008049214	1472008049287	t	84
6898	74152	Your prompt attention is appreciated.	your prompt attention is appreciated	3526323	1472008049381	1472008049532	i	73
6898	74152	Your prompt attention is appreciated.	your prompt attention is appreciated	3526366	1472008049451	1472008049585	o	79
6898	74152	Your prompt attention is appreciated.	your prompt attention is appreciated	3526369	1472008049680	1472008049814	n	78
6898	74152	Your prompt attention is appreciated.	your prompt attention is appreciated	3526375	1472008049745	1472008049863	 	32
6898	74152	Your prompt attention is appreciated.	your prompt attention is appreciated	3526381	1472008049972	1472008050074	i	73
6898	74152	Your prompt attention is appreciated.	your prompt attention is appreciated	3526388	1472008050174	1472008050263	s	83
6898	74152	Your prompt attention is appreciated.	your prompt attention is appreciated	3526391	1472008050290	1472008050383	 	32
6898	74152	Your prompt attention is appreciated.	your prompt attention is appreciated	3526504	1472008050411	1472008050506	a	65
6898	74152	Your prompt attention is appreciated.	your prompt attention is appreciated	3526507	1472008050577	1472008050680	 	32
6898	74152	Your prompt attention is appreciated.	your prompt attention is appreciated	3526517	1472008051133	1472008051228	BKSP	8
6898	74152	Your prompt attention is appreciated.	your prompt attention is appreciated	3526527	1472008051739	1472008051845	 	32
6898	74152	Your prompt attention is appreciated.	your prompt attention is appreciated	3526532	1472008052069	1472008052169	BKSP	8
6898	74152	Your prompt attention is appreciated.	your prompt attention is appreciated	3526537	1472008052559	1472008052629	p	80
6898	74152	Your prompt attention is appreciated.	your prompt attention is appreciated	3526546	1472008052696	1472008052786	p	80
6898	74152	Your prompt attention is appreciated.	your prompt attention is appreciated	3526624	1472008052845	1472008052996	r	82
6898	74152	Your prompt attention is appreciated.	your prompt attention is appreciated	3526626	1472008052993	1472008053134	e	69
6898	74152	Your prompt attention is appreciated.	your prompt attention is appreciated	3526630	1472008054068	1472008054164	c	67
6898	74152	Your prompt attention is appreciated.	your prompt attention is appreciated	3526633	1472008054390	1472008054469	i	73
6898	74152	Your prompt attention is appreciated.	your prompt attention is appreciated	3526636	1472008054662	1472008054738	a	65
6898	74152	Your prompt attention is appreciated.	your prompt attention is appreciated	3526758	1472008054972	1472008055040	t	84
6898	74152	Your prompt attention is appreciated.	your prompt attention is appreciated	3526765	1472008055807	1472008055904	e	69
6898	74152	Your prompt attention is appreciated.	your prompt attention is appreciated	3526770	1472008056001	1472008056083	d	68
6898	74167	Where are they hitting the books at?	where are they hitting the books at 	3527004	1472008060220	1472008060322	w	87
6898	74167	Where are they hitting the books at?	where are they hitting the books at 	3527006	1472008060392	1472008060469	h	72
6898	74167	Where are they hitting the books at?	where are they hitting the books at 	3527011	1472008060506	1472008060600	e	69
6898	74167	Where are they hitting the books at?	where are they hitting the books at 	3527014	1472008060699	1472008060797	r	82
6898	74167	Where are they hitting the books at?	where are they hitting the books at 	3527018	1472008060895	1472008060987	e	69
6898	74167	Where are they hitting the books at?	where are they hitting the books at 	3527038	1472008061049	1472008061153	 	32
6898	74167	Where are they hitting the books at?	where are they hitting the books at 	3527040	1472008061178	1472008061274	a	65
6898	74167	Where are they hitting the books at?	where are they hitting the books at 	3527044	1472008061397	1472008061552	r	82
6898	74167	Where are they hitting the books at?	where are they hitting the books at 	3527047	1472008061515	1472008061611	e	69
6898	74167	Where are they hitting the books at?	where are they hitting the books at 	3527051	1472008061629	1472008061764	 	32
6898	74167	Where are they hitting the books at?	where are they hitting the books at 	3527074	1472008061802	1472008061876	t	84
6898	74167	Where are they hitting the books at?	where are they hitting the books at 	3527077	1472008061914	1472008062010	h	72
6898	74167	Where are they hitting the books at?	where are they hitting the books at 	3527082	1472008062040	1472008062116	e	69
6898	74167	Where are they hitting the books at?	where are they hitting the books at 	3527085	1472008062170	1472008062288	y	89
6898	74167	Where are they hitting the books at?	where are they hitting the books at 	3527143	1472008062225	1472008062350	 	32
6898	74167	Where are they hitting the books at?	where are they hitting the books at 	3527146	1472008062654	1472008062751	h	72
6898	74167	Where are they hitting the books at?	where are they hitting the books at 	3527149	1472008062800	1472008062922	i	73
6898	74167	Where are they hitting the books at?	where are they hitting the books at 	3527153	1472008062991	1472008063062	t	84
6898	74167	Where are they hitting the books at?	where are they hitting the books at 	3527155	1472008063141	1472008063221	t	84
6898	74167	Where are they hitting the books at?	where are they hitting the books at 	3527157	1472008063250	1472008063378	i	73
6898	74167	Where are they hitting the books at?	where are they hitting the books at 	3527169	1472008063390	1472008063509	n	78
6898	74167	Where are they hitting the books at?	where are they hitting the books at 	3527174	1472008063506	1472008063590	g	71
6898	74167	Where are they hitting the books at?	where are they hitting the books at 	3527179	1472008063628	1472008063726	 	32
6898	74167	Where are they hitting the books at?	where are they hitting the books at 	3527183	1472008063756	1472008063830	t	84
6898	74167	Where are they hitting the books at?	where are they hitting the books at 	3527186	1472008063908	1472008063985	h	72
6898	74167	Where are they hitting the books at?	where are they hitting the books at 	3527225	1472008064007	1472008064090	e	69
6898	74167	Where are they hitting the books at?	where are they hitting the books at 	3527228	1472008064095	1472008064200	 	32
6898	74167	Where are they hitting the books at?	where are they hitting the books at 	3527231	1472008064397	1472008064469	b	66
6898	74167	Where are they hitting the books at?	where are they hitting the books at 	3527233	1472008064567	1472008064636	o	79
6898	74167	Where are they hitting the books at?	where are they hitting the books at 	3527236	1472008064701	1472008064791	o	79
6898	74167	Where are they hitting the books at?	where are they hitting the books at 	3527281	1472008064894	1472008064995	k	75
6898	74167	Where are they hitting the books at?	where are they hitting the books at 	3527285	1472008065021	1472008065097	s	83
6898	74167	Where are they hitting the books at?	where are they hitting the books at 	3527289	1472008065245	1472008065348	 	32
6898	74167	Where are they hitting the books at?	where are they hitting the books at 	3527296	1472008065382	1472008065480	a	65
6898	74167	Where are they hitting the books at?	where are they hitting the books at 	3527304	1472008065624	1472008065688	t	84
6898	74181	I decided that I am going to stay here!	i decided that i am going to stay here	3527636	1472008065703	1472008070766	 	32
6898	74181	I decided that I am going to stay here!	i decided that i am going to stay here	3527634	1472008070540	1472008070714	i	73
6898	74181	I decided that I am going to stay here!	i decided that i am going to stay here	3527638	1472008070805	1472008070912	d	68
6898	74181	I decided that I am going to stay here!	i decided that i am going to stay here	3527641	1472008070982	1472008071067	e	69
6898	74181	I decided that I am going to stay here!	i decided that i am going to stay here	3527643	1472008071214	1472008071289	c	67
6898	74181	I decided that I am going to stay here!	i decided that i am going to stay here	3527645	1472008071420	1472008071514	i	73
6898	74181	I decided that I am going to stay here!	i decided that i am going to stay here	3527663	1472008071657	1472008071748	d	68
6898	74181	I decided that I am going to stay here!	i decided that i am going to stay here	3527668	1472008071837	1472008071909	e	69
6898	74181	I decided that I am going to stay here!	i decided that i am going to stay here	3527671	1472008072006	1472008072108	d	68
6898	74181	I decided that I am going to stay here!	i decided that i am going to stay here	3527674	1472008072154	1472008072272	 	32
6898	74181	I decided that I am going to stay here!	i decided that i am going to stay here	3527676	1472008072313	1472008072378	t	84
6898	74181	I decided that I am going to stay here!	i decided that i am going to stay here	3527707	1472008072451	1472008072541	h	72
6898	74181	I decided that I am going to stay here!	i decided that i am going to stay here	3527710	1472008072550	1472008072642	a	65
6898	74181	I decided that I am going to stay here!	i decided that i am going to stay here	3527715	1472008072719	1472008072838	t	84
6898	74181	I decided that I am going to stay here!	i decided that i am going to stay here	3527722	1472008072783	1472008072897	 	32
6898	74181	I decided that I am going to stay here!	i decided that i am going to stay here	3527727	1472008073041	1472008073139	i	73
6898	74181	I decided that I am going to stay here!	i decided that i am going to stay here	3527802	1472008073308	1472008073477	m	77
6898	74181	I decided that I am going to stay here!	i decided that i am going to stay here	3527805	1472008073437	1472008073567	 	32
6898	74181	I decided that I am going to stay here!	i decided that i am going to stay here	3527807	1472008073893	1472008073970	BKSP	8
6898	74181	I decided that I am going to stay here!	i decided that i am going to stay here	3527809	1472008074046	1472008074141	BKSP	8
6898	74181	I decided that I am going to stay here!	i decided that i am going to stay here	3527814	1472008074326	1472008074417	 	32
6898	74181	I decided that I am going to stay here!	i decided that i am going to stay here	3527819	1472008074465	1472008074539	a	65
6898	74181	I decided that I am going to stay here!	i decided that i am going to stay here	3527822	1472008074602	1472008074784	m	77
6898	74181	I decided that I am going to stay here!	i decided that i am going to stay here	3527862	1472008074701	1472008074830	 	32
6898	74181	I decided that I am going to stay here!	i decided that i am going to stay here	3527864	1472008075307	1472008075381	g	71
6898	74181	I decided that I am going to stay here!	i decided that i am going to stay here	3527869	1472008075398	1472008075489	o	79
6898	74181	I decided that I am going to stay here!	i decided that i am going to stay here	3527874	1472008075572	1472008075652	i	73
6898	74181	I decided that I am going to stay here!	i decided that i am going to stay here	3527878	1472008075744	1472008075848	n	78
6898	74181	I decided that I am going to stay here!	i decided that i am going to stay here	3527881	1472008075850	1472008075942	g	71
6898	74181	I decided that I am going to stay here!	i decided that i am going to stay here	3527911	1472008075964	1472008076059	 	32
6898	74181	I decided that I am going to stay here!	i decided that i am going to stay here	3527914	1472008076078	1472008076150	t	84
6898	74181	I decided that I am going to stay here!	i decided that i am going to stay here	3527917	1472008076172	1472008076325	o	79
6898	74181	I decided that I am going to stay here!	i decided that i am going to stay here	3527923	1472008076261	1472008076366	 	32
6898	74181	I decided that I am going to stay here!	i decided that i am going to stay here	3527926	1472008076795	1472008076867	s	83
6898	74181	I decided that I am going to stay here!	i decided that i am going to stay here	3527977	1472008076907	1472008076992	t	84
6898	74181	I decided that I am going to stay here!	i decided that i am going to stay here	3527978	1472008077026	1472008077097	a	65
6898	74181	I decided that I am going to stay here!	i decided that i am going to stay here	3527980	1472008077157	1472008077293	y	89
6898	74181	I decided that I am going to stay here!	i decided that i am going to stay here	3527982	1472008077245	1472008077353	 	32
6898	74181	I decided that I am going to stay here!	i decided that i am going to stay here	3527984	1472008077896	1472008077982	h	72
6898	74181	I decided that I am going to stay here!	i decided that i am going to stay here	3528066	1472008078002	1472008078171	e	69
6898	74181	I decided that I am going to stay here!	i decided that i am going to stay here	3528072	1472008078132	1472008078233	r	82
6898	74181	I decided that I am going to stay here!	i decided that i am going to stay here	3528080	1472008078287	1472008078410	e	69
6898	74197	Please leave it to Brian.	please leave it to brian 	3528354	1472008083172	1472008083320	p	80
6898	74197	Please leave it to Brian.	please leave it to brian 	3528359	1472008083266	1472008083406	l	76
6898	74197	Please leave it to Brian.	please leave it to brian 	3528363	1472008083511	1472008083607	e	69
6898	74197	Please leave it to Brian.	please leave it to brian 	3528365	1472008083949	1472008084118	a	65
6898	74197	Please leave it to Brian.	please leave it to brian 	3528439	1472008084076	1472008084192	s	83
6898	74197	Please leave it to Brian.	please leave it to brian 	3528443	1472008084293	1472008084375	e	69
6898	74197	Please leave it to Brian.	please leave it to brian 	3528447	1472008084476	1472008084585	 	32
6898	74197	Please leave it to Brian.	please leave it to brian 	3528452	1472008085092	1472008085204	l	76
6898	74197	Please leave it to Brian.	please leave it to brian 	3528457	1472008085231	1472008085319	e	69
6898	74197	Please leave it to Brian.	please leave it to brian 	3528462	1472008085364	1472008085487	a	65
6898	74197	Please leave it to Brian.	please leave it to brian 	3528553	1472008085596	1472008085690	v	86
6898	74197	Please leave it to Brian.	please leave it to brian 	3528557	1472008085890	1472008085983	e	69
6898	74197	Please leave it to Brian.	please leave it to brian 	3528561	1472008086113	1472008086227	 	32
6898	74197	Please leave it to Brian.	please leave it to brian 	3528565	1472008086771	1472008086851	i	73
6898	74197	Please leave it to Brian.	please leave it to brian 	3528568	1472008086919	1472008086993	t	84
6898	74197	Please leave it to Brian.	please leave it to brian 	3528618	1472008086986	1472008087089	 	32
6898	74197	Please leave it to Brian.	please leave it to brian 	3528623	1472008087131	1472008087209	t	84
6898	74197	Please leave it to Brian.	please leave it to brian 	3528627	1472008087249	1472008087418	o	79
6898	74197	Please leave it to Brian.	please leave it to brian 	3528629	1472008087346	1472008087462	 	32
6898	74197	Please leave it to Brian.	please leave it to brian 	3528632	1472008087823	1472008087904	b	66
6898	74197	Please leave it to Brian.	please leave it to brian 	3528636	1472008087985	1472008088062	r	82
6898	74197	Please leave it to Brian.	please leave it to brian 	3528646	1472008088199	1472008088264	i	73
6898	74197	Please leave it to Brian.	please leave it to brian 	3528651	1472008088247	1472008088330	a	65
6898	74197	Please leave it to Brian.	please leave it to brian 	3528655	1472008088433	1472008088550	n	78
6898	74209	Neither player is going to be a clear-cut starter this week.	neither player is going to be a clear-cut starter this week	3529046	1472008088509	1472008096042	 	32
6898	74209	Neither player is going to be a clear-cut starter this week.	neither player is going to be a clear-cut starter this week	3529000	1472008094968	1472008095074	n	78
6898	74209	Neither player is going to be a clear-cut starter this week.	neither player is going to be a clear-cut starter this week	3529003	1472008095109	1472008095199	e	69
6898	74209	Neither player is going to be a clear-cut starter this week.	neither player is going to be a clear-cut starter this week	3529005	1472008095226	1472008095316	i	73
6898	74209	Neither player is going to be a clear-cut starter this week.	neither player is going to be a clear-cut starter this week	3529006	1472008095451	1472008095529	t	84
6898	74209	Neither player is going to be a clear-cut starter this week.	neither player is going to be a clear-cut starter this week	3529007	1472008095582	1472008095671	h	72
6898	74209	Neither player is going to be a clear-cut starter this week.	neither player is going to be a clear-cut starter this week	3529039	1472008095715	1472008095864	e	69
6898	74209	Neither player is going to be a clear-cut starter this week.	neither player is going to be a clear-cut starter this week	3529043	1472008095822	1472008095904	r	82
6898	74209	Neither player is going to be a clear-cut starter this week.	neither player is going to be a clear-cut starter this week	3529048	1472008096271	1472008096428	p	80
6898	74209	Neither player is going to be a clear-cut starter this week.	neither player is going to be a clear-cut starter this week	3529052	1472008096375	1472008096509	l	76
6898	74209	Neither player is going to be a clear-cut starter this week.	neither player is going to be a clear-cut starter this week	3529110	1472008096482	1472008096595	a	65
6898	74209	Neither player is going to be a clear-cut starter this week.	neither player is going to be a clear-cut starter this week	3529111	1472008096767	1472008096849	y	89
6898	74209	Neither player is going to be a clear-cut starter this week.	neither player is going to be a clear-cut starter this week	3529112	1472008096949	1472008097050	i	73
6898	74209	Neither player is going to be a clear-cut starter this week.	neither player is going to be a clear-cut starter this week	3529113	1472008097351	1472008097439	BKSP	8
6898	74209	Neither player is going to be a clear-cut starter this week.	neither player is going to be a clear-cut starter this week	3529114	1472008097449	1472008097596	e	69
6898	74209	Neither player is going to be a clear-cut starter this week.	neither player is going to be a clear-cut starter this week	3529116	1472008097544	1472008097653	r	82
6898	74209	Neither player is going to be a clear-cut starter this week.	neither player is going to be a clear-cut starter this week	3529117	1472008097699	1472008097804	 	32
6898	74209	Neither player is going to be a clear-cut starter this week.	neither player is going to be a clear-cut starter this week	3529159	1472008098016	1472008098106	i	73
6898	74209	Neither player is going to be a clear-cut starter this week.	neither player is going to be a clear-cut starter this week	3529164	1472008098159	1472008098256	s	83
6898	74209	Neither player is going to be a clear-cut starter this week.	neither player is going to be a clear-cut starter this week	3529170	1472008098275	1472008098376	 	32
6898	74209	Neither player is going to be a clear-cut starter this week.	neither player is going to be a clear-cut starter this week	3529176	1472008098510	1472008098584	g	71
6898	74209	Neither player is going to be a clear-cut starter this week.	neither player is going to be a clear-cut starter this week	3529180	1472008098628	1472008098784	o	79
6898	74209	Neither player is going to be a clear-cut starter this week.	neither player is going to be a clear-cut starter this week	3529199	1472008098714	1472008098897	i	73
6898	74209	Neither player is going to be a clear-cut starter this week.	neither player is going to be a clear-cut starter this week	3529204	1472008098849	1472008099003	n	78
6898	74209	Neither player is going to be a clear-cut starter this week.	neither player is going to be a clear-cut starter this week	3529208	1472008099015	1472008099106	g	71
6898	74209	Neither player is going to be a clear-cut starter this week.	neither player is going to be a clear-cut starter this week	3529215	1472008099140	1472008099249	 	32
6898	74209	Neither player is going to be a clear-cut starter this week.	neither player is going to be a clear-cut starter this week	3529221	1472008099270	1472008099341	t	84
6898	74209	Neither player is going to be a clear-cut starter this week.	neither player is going to be a clear-cut starter this week	3529229	1472008099375	1472008099558	o	79
6898	74209	Neither player is going to be a clear-cut starter this week.	neither player is going to be a clear-cut starter this week	3529249	1472008099482	1472008099601	 	32
6898	74209	Neither player is going to be a clear-cut starter this week.	neither player is going to be a clear-cut starter this week	3529254	1472008099834	1472008099934	b	66
6898	74209	Neither player is going to be a clear-cut starter this week.	neither player is going to be a clear-cut starter this week	3529262	1472008099973	1472008100062	e	69
6898	74209	Neither player is going to be a clear-cut starter this week.	neither player is going to be a clear-cut starter this week	3529268	1472008100079	1472008100172	 	32
6898	74209	Neither player is going to be a clear-cut starter this week.	neither player is going to be a clear-cut starter this week	3529274	1472008100218	1472008100300	a	65
6898	74209	Neither player is going to be a clear-cut starter this week.	neither player is going to be a clear-cut starter this week	3529316	1472008100275	1472008100366	 	32
6898	74209	Neither player is going to be a clear-cut starter this week.	neither player is going to be a clear-cut starter this week	3529320	1472008100506	1472008100594	c	67
6898	74209	Neither player is going to be a clear-cut starter this week.	neither player is going to be a clear-cut starter this week	3529326	1472008100672	1472008100765	l	76
6898	74209	Neither player is going to be a clear-cut starter this week.	neither player is going to be a clear-cut starter this week	3529335	1472008100862	1472008100958	e	69
6898	74209	Neither player is going to be a clear-cut starter this week.	neither player is going to be a clear-cut starter this week	3529342	1472008101065	1472008101186	a	65
6898	74209	Neither player is going to be a clear-cut starter this week.	neither player is going to be a clear-cut starter this week	3529349	1472008101275	1472008101367	r	82
6898	74209	Neither player is going to be a clear-cut starter this week.	neither player is going to be a clear-cut starter this week	3529406	1472008101639	1472008101714	-	189
6898	74209	Neither player is going to be a clear-cut starter this week.	neither player is going to be a clear-cut starter this week	3529409	1472008102026	1472008102113	c	67
6898	74209	Neither player is going to be a clear-cut starter this week.	neither player is going to be a clear-cut starter this week	3529413	1472008102451	1472008102537	u	85
6898	74209	Neither player is going to be a clear-cut starter this week.	neither player is going to be a clear-cut starter this week	3529418	1472008102597	1472008102673	t	84
6898	74209	Neither player is going to be a clear-cut starter this week.	neither player is going to be a clear-cut starter this week	3529424	1472008102729	1472008102829	 	32
6898	74209	Neither player is going to be a clear-cut starter this week.	neither player is going to be a clear-cut starter this week	3529466	1472008103021	1472008103102	s	83
6898	74209	Neither player is going to be a clear-cut starter this week.	neither player is going to be a clear-cut starter this week	3529469	1472008103222	1472008103309	t	84
6898	74209	Neither player is going to be a clear-cut starter this week.	neither player is going to be a clear-cut starter this week	3529474	1472008103364	1472008103444	a	65
6898	74209	Neither player is going to be a clear-cut starter this week.	neither player is going to be a clear-cut starter this week	3529478	1472008103512	1472008103586	r	82
6898	74209	Neither player is going to be a clear-cut starter this week.	neither player is going to be a clear-cut starter this week	3529482	1472008103697	1472008103774	t	84
6898	74209	Neither player is going to be a clear-cut starter this week.	neither player is going to be a clear-cut starter this week	3529577	1472008103833	1472008103916	e	69
6898	74209	Neither player is going to be a clear-cut starter this week.	neither player is going to be a clear-cut starter this week	3529583	1472008104139	1472008104229	r	82
6898	74209	Neither player is going to be a clear-cut starter this week.	neither player is going to be a clear-cut starter this week	3529590	1472008104393	1472008104492	 	32
6898	74209	Neither player is going to be a clear-cut starter this week.	neither player is going to be a clear-cut starter this week	3529597	1472008104928	1472008105003	t	84
6898	74209	Neither player is going to be a clear-cut starter this week.	neither player is going to be a clear-cut starter this week	3529603	1472008105081	1472008105174	h	72
6898	74209	Neither player is going to be a clear-cut starter this week.	neither player is going to be a clear-cut starter this week	3529622	1472008105216	1472008105323	i	73
6898	74209	Neither player is going to be a clear-cut starter this week.	neither player is going to be a clear-cut starter this week	3529627	1472008105351	1472008105434	s	83
6898	74209	Neither player is going to be a clear-cut starter this week.	neither player is going to be a clear-cut starter this week	3529633	1472008105476	1472008105574	 	32
6898	74209	Neither player is going to be a clear-cut starter this week.	neither player is going to be a clear-cut starter this week	3529637	1472008105680	1472008105771	w	87
6898	74209	Neither player is going to be a clear-cut starter this week.	neither player is going to be a clear-cut starter this week	3529643	1472008105897	1472008105973	e	69
6898	74209	Neither player is going to be a clear-cut starter this week.	neither player is going to be a clear-cut starter this week	3529666	1472008106050	1472008106140	e	69
6898	74209	Neither player is going to be a clear-cut starter this week.	neither player is going to be a clear-cut starter this week	3529671	1472008106186	1472008106292	k	75
6898	74229	One of the Hottest Gifts for Holiday 2001.	one of the hottest gifts for holiday 2001	3529930	1472008111277	1472008111371	o	79
6898	74229	One of the Hottest Gifts for Holiday 2001.	one of the hottest gifts for holiday 2001	3529932	1472008111470	1472008111573	n	78
6898	74229	One of the Hottest Gifts for Holiday 2001.	one of the hottest gifts for holiday 2001	3529934	1472008111608	1472008111684	e	69
6898	74229	One of the Hottest Gifts for Holiday 2001.	one of the hottest gifts for holiday 2001	3529938	1472008111695	1472008111798	 	32
6898	74229	One of the Hottest Gifts for Holiday 2001.	one of the hottest gifts for holiday 2001	3529941	1472008111878	1472008111982	o	79
6898	74229	One of the Hottest Gifts for Holiday 2001.	one of the hottest gifts for holiday 2001	3529964	1472008112066	1472008112156	f	70
6898	74229	One of the Hottest Gifts for Holiday 2001.	one of the hottest gifts for holiday 2001	3529967	1472008112164	1472008112263	 	32
6898	74229	One of the Hottest Gifts for Holiday 2001.	one of the hottest gifts for holiday 2001	3529970	1472008112319	1472008112397	t	84
6898	74229	One of the Hottest Gifts for Holiday 2001.	one of the hottest gifts for holiday 2001	3529971	1472008112431	1472008112513	h	72
6898	74229	One of the Hottest Gifts for Holiday 2001.	one of the hottest gifts for holiday 2001	3529974	1472008112539	1472008112609	e	69
6898	74229	One of the Hottest Gifts for Holiday 2001.	one of the hottest gifts for holiday 2001	3530013	1472008112639	1472008112741	 	32
6898	74229	One of the Hottest Gifts for Holiday 2001.	one of the hottest gifts for holiday 2001	3530015	1472008112945	1472008113031	h	72
6898	74229	One of the Hottest Gifts for Holiday 2001.	one of the hottest gifts for holiday 2001	3530018	1472008113128	1472008113212	o	79
6898	74229	One of the Hottest Gifts for Holiday 2001.	one of the hottest gifts for holiday 2001	3530021	1472008113330	1472008113412	t	84
6898	74229	One of the Hottest Gifts for Holiday 2001.	one of the hottest gifts for holiday 2001	3530024	1472008113504	1472008113593	t	84
6898	74229	One of the Hottest Gifts for Holiday 2001.	one of the hottest gifts for holiday 2001	3530064	1472008113696	1472008113789	e	69
6898	74229	One of the Hottest Gifts for Holiday 2001.	one of the hottest gifts for holiday 2001	3530066	1472008113884	1472008113992	s	83
6898	74229	One of the Hottest Gifts for Holiday 2001.	one of the hottest gifts for holiday 2001	3530067	1472008114139	1472008114219	t	84
6898	74229	One of the Hottest Gifts for Holiday 2001.	one of the hottest gifts for holiday 2001	3530069	1472008114317	1472008114426	 	32
6898	74229	One of the Hottest Gifts for Holiday 2001.	one of the hottest gifts for holiday 2001	3530073	1472008114655	1472008114741	g	71
6898	74229	One of the Hottest Gifts for Holiday 2001.	one of the hottest gifts for holiday 2001	3530126	1472008114794	1472008114890	i	73
6898	74229	One of the Hottest Gifts for Holiday 2001.	one of the hottest gifts for holiday 2001	3530130	1472008114995	1472008115093	f	70
6898	74229	One of the Hottest Gifts for Holiday 2001.	one of the hottest gifts for holiday 2001	3530134	1472008115232	1472008115308	t	84
6898	74229	One of the Hottest Gifts for Holiday 2001.	one of the hottest gifts for holiday 2001	3530139	1472008115525	1472008115601	s	83
6898	74229	One of the Hottest Gifts for Holiday 2001.	one of the hottest gifts for holiday 2001	3530144	1472008115714	1472008115806	 	32
6898	74229	One of the Hottest Gifts for Holiday 2001.	one of the hottest gifts for holiday 2001	3530189	1472008116516	1472008116614	f	70
6898	74229	One of the Hottest Gifts for Holiday 2001.	one of the hottest gifts for holiday 2001	3530192	1472008116650	1472008116749	o	79
6898	74229	One of the Hottest Gifts for Holiday 2001.	one of the hottest gifts for holiday 2001	3530195	1472008116764	1472008116844	r	82
6898	74229	One of the Hottest Gifts for Holiday 2001.	one of the hottest gifts for holiday 2001	3530197	1472008116869	1472008116965	 	32
6898	74229	One of the Hottest Gifts for Holiday 2001.	one of the hottest gifts for holiday 2001	3530199	1472008117126	1472008117233	h	72
6898	74229	One of the Hottest Gifts for Holiday 2001.	one of the hottest gifts for holiday 2001	3530264	1472008117292	1472008117382	i	73
6898	74229	One of the Hottest Gifts for Holiday 2001.	one of the hottest gifts for holiday 2001	3530268	1472008117646	1472008117742	BKSP	8
6898	74229	One of the Hottest Gifts for Holiday 2001.	one of the hottest gifts for holiday 2001	3530273	1472008117880	1472008117963	o	79
6898	74229	One of the Hottest Gifts for Holiday 2001.	one of the hottest gifts for holiday 2001	3530278	1472008118071	1472008118160	l	76
6898	74229	One of the Hottest Gifts for Holiday 2001.	one of the hottest gifts for holiday 2001	3530282	1472008118277	1472008118349	i	73
6898	74229	One of the Hottest Gifts for Holiday 2001.	one of the hottest gifts for holiday 2001	3530286	1472008118470	1472008118572	d	68
6898	74229	One of the Hottest Gifts for Holiday 2001.	one of the hottest gifts for holiday 2001	3530337	1472008118715	1472008118803	a	65
6898	74229	One of the Hottest Gifts for Holiday 2001.	one of the hottest gifts for holiday 2001	3530339	1472008118868	1472008118997	y	89
6898	74229	One of the Hottest Gifts for Holiday 2001.	one of the hottest gifts for holiday 2001	3530346	1472008118927	1472008119058	 	32
6898	74229	One of the Hottest Gifts for Holiday 2001.	one of the hottest gifts for holiday 2001	3530350	1472008119672	1472008119744	2	50
6898	74229	One of the Hottest Gifts for Holiday 2001.	one of the hottest gifts for holiday 2001	3530354	1472008119881	1472008119952	0	48
6898	74229	One of the Hottest Gifts for Holiday 2001.	one of the hottest gifts for holiday 2001	3530407	1472008120028	1472008120117	0	48
6898	74229	One of the Hottest Gifts for Holiday 2001.	one of the hottest gifts for holiday 2001	3530409	1472008120165	1472008120237	1	49
6898	74229	One of the Hottest Gifts for Holiday 2001.	one of the hottest gifts for holiday 2001	3530411	1472008120310	1472008120385	\	220
6898	74229	One of the Hottest Gifts for Holiday 2001.	one of the hottest gifts for holiday 2001	3530416	1472008121062	1472008121140	BKSP	8
6898	74229	One of the Hottest Gifts for Holiday 2001.	one of the hottest gifts for holiday 2001	3530414	1472008121083	1472008121097	ARw_DOWN	40
6898	74250	A growing number of US households are joining the middle class.	a growing number of us households are joining the middle class	3530771	1472008125978	1472008126073	a	65
6898	74250	A growing number of US households are joining the middle class.	a growing number of us households are joining the middle class	3530772	1472008126128	1472008126224	 	32
6898	74250	A growing number of US households are joining the middle class.	a growing number of us households are joining the middle class	3530776	1472008126334	1472008126423	g	71
6898	74250	A growing number of US households are joining the middle class.	a growing number of us households are joining the middle class	3530780	1472008126539	1472008126631	r	82
6898	74250	A growing number of US households are joining the middle class.	a growing number of us households are joining the middle class	3530785	1472008126792	1472008126881	o	79
6898	74250	A growing number of US households are joining the middle class.	a growing number of us households are joining the middle class	3530824	1472008126921	1472008127011	w	87
6898	74250	A growing number of US households are joining the middle class.	a growing number of us households are joining the middle class	3530827	1472008127209	1472008127306	i	73
6898	74250	A growing number of US households are joining the middle class.	a growing number of us households are joining the middle class	3530829	1472008127356	1472008127467	n	78
6898	74250	A growing number of US households are joining the middle class.	a growing number of us households are joining the middle class	3530831	1472008127502	1472008127590	g	71
6898	74250	A growing number of US households are joining the middle class.	a growing number of us households are joining the middle class	3530832	1472008127597	1472008127699	 	32
6898	74250	A growing number of US households are joining the middle class.	a growing number of us households are joining the middle class	3530874	1472008127829	1472008127922	n	78
6898	74250	A growing number of US households are joining the middle class.	a growing number of us households are joining the middle class	3530877	1472008127995	1472008128090	u	85
6898	74250	A growing number of US households are joining the middle class.	a growing number of us households are joining the middle class	3530882	1472008128316	1472008128409	m	77
6898	74250	A growing number of US households are joining the middle class.	a growing number of us households are joining the middle class	3530888	1472008128559	1472008128625	b	66
6898	74250	A growing number of US households are joining the middle class.	a growing number of us households are joining the middle class	3530893	1472008128698	1472008128857	e	69
6898	74250	A growing number of US households are joining the middle class.	a growing number of us households are joining the middle class	3530990	1472008128803	1472008128914	r	82
6898	74250	A growing number of US households are joining the middle class.	a growing number of us households are joining the middle class	3530991	1472008128977	1472008129087	 	32
6898	74250	A growing number of US households are joining the middle class.	a growing number of us households are joining the middle class	3530992	1472008129243	1472008129331	o	79
6898	74250	A growing number of US households are joining the middle class.	a growing number of us households are joining the middle class	3530994	1472008129445	1472008129526	f	70
6898	74250	A growing number of US households are joining the middle class.	a growing number of us households are joining the middle class	3530996	1472008129574	1472008129658	 	32
6898	74250	A growing number of US households are joining the middle class.	a growing number of us households are joining the middle class	3530998	1472008130688	1472008130778	u	85
6898	74250	A growing number of US households are joining the middle class.	a growing number of us households are joining the middle class	3531048	1472008130948	1472008131033	s	83
6898	74250	A growing number of US households are joining the middle class.	a growing number of us households are joining the middle class	3531053	1472008131095	1472008131204	 	32
6898	74250	A growing number of US households are joining the middle class.	a growing number of us households are joining the middle class	3531058	1472008131686	1472008131827	h	72
6898	74250	A growing number of US households are joining the middle class.	a growing number of us households are joining the middle class	3531062	1472008131808	1472008131997	o	79
6898	74250	A growing number of US households are joining the middle class.	a growing number of us households are joining the middle class	3531132	1472008131934	1472008132041	u	85
6898	74250	A growing number of US households are joining the middle class.	a growing number of us households are joining the middle class	3531135	1472008132142	1472008132240	s	83
6898	74250	A growing number of US households are joining the middle class.	a growing number of us households are joining the middle class	3531137	1472008132469	1472008132541	e	69
6898	74250	A growing number of US households are joining the middle class.	a growing number of us households are joining the middle class	3531139	1472008133097	1472008133169	h	72
6898	74250	A growing number of US households are joining the middle class.	a growing number of us households are joining the middle class	3531141	1472008133268	1472008133353	o	79
6898	74250	A growing number of US households are joining the middle class.	a growing number of us households are joining the middle class	3531144	1472008133453	1472008133558	l	76
6898	74250	A growing number of US households are joining the middle class.	a growing number of us households are joining the middle class	3531221	1472008133620	1472008133696	d	68
6898	74250	A growing number of US households are joining the middle class.	a growing number of us households are joining the middle class	3531225	1472008133801	1472008133898	s	83
6898	74250	A growing number of US households are joining the middle class.	a growing number of us households are joining the middle class	3531227	1472008134002	1472008134118	 	32
6898	74250	A growing number of US households are joining the middle class.	a growing number of us households are joining the middle class	3531228	1472008134392	1472008134477	a	65
6898	74250	A growing number of US households are joining the middle class.	a growing number of us households are joining the middle class	3531229	1472008134559	1472008134650	 	32
6898	74250	A growing number of US households are joining the middle class.	a growing number of us households are joining the middle class	3531340	1472008135028	1472008135117	BKSP	8
6898	74250	A growing number of US households are joining the middle class.	a growing number of us households are joining the middle class	3531342	1472008135247	1472008135432	r	82
6898	74250	A growing number of US households are joining the middle class.	a growing number of us households are joining the middle class	3531343	1472008135396	1472008135499	e	69
6898	74250	A growing number of US households are joining the middle class.	a growing number of us households are joining the middle class	3531344	1472008135551	1472008135672	 	32
6898	74250	A growing number of US households are joining the middle class.	a growing number of us households are joining the middle class	3531346	1472008136128	1472008136311	j	74
6898	74250	A growing number of US households are joining the middle class.	a growing number of us households are joining the middle class	3531406	1472008136263	1472008136498	o	79
6898	74250	A growing number of US households are joining the middle class.	a growing number of us households are joining the middle class	3531410	1472008136432	1472008136541	i	73
6898	74250	A growing number of US households are joining the middle class.	a growing number of us households are joining the middle class	3531418	1472008136660	1472008136758	n	78
6898	74250	A growing number of US households are joining the middle class.	a growing number of us households are joining the middle class	3531424	1472008137060	1472008137157	i	73
6898	74250	A growing number of US households are joining the middle class.	a growing number of us households are joining the middle class	3531434	1472008137204	1472008137312	n	78
6898	74250	A growing number of US households are joining the middle class.	a growing number of us households are joining the middle class	3531439	1472008137342	1472008137417	g	71
6898	74250	A growing number of US households are joining the middle class.	a growing number of us households are joining the middle class	3531504	1472008137414	1472008137519	 	32
6898	74250	A growing number of US households are joining the middle class.	a growing number of us households are joining the middle class	3531508	1472008137580	1472008137669	t	84
6898	74250	A growing number of US households are joining the middle class.	a growing number of us households are joining the middle class	3531513	1472008137707	1472008137794	h	72
6898	74250	A growing number of US households are joining the middle class.	a growing number of us households are joining the middle class	3531519	1472008137867	1472008137948	e	69
6898	74250	A growing number of US households are joining the middle class.	a growing number of us households are joining the middle class	3531528	1472008137977	1472008138076	 	32
6898	74250	A growing number of US households are joining the middle class.	a growing number of us households are joining the middle class	3531534	1472008138492	1472008138585	m	77
6898	74250	A growing number of US households are joining the middle class.	a growing number of us households are joining the middle class	3531571	1472008138667	1472008138754	i	73
6898	74250	A growing number of US households are joining the middle class.	a growing number of us households are joining the middle class	3531574	1472008138954	1472008139039	d	68
6898	74250	A growing number of US households are joining the middle class.	a growing number of us households are joining the middle class	3531575	1472008139112	1472008139199	d	68
6898	74250	A growing number of US households are joining the middle class.	a growing number of us households are joining the middle class	3531577	1472008139200	1472008139323	l	76
6898	74250	A growing number of US households are joining the middle class.	a growing number of us households are joining the middle class	3531655	1472008139318	1472008139396	e	69
6898	74250	A growing number of US households are joining the middle class.	a growing number of us households are joining the middle class	3531661	1472008139460	1472008139551	 	32
6898	74250	A growing number of US households are joining the middle class.	a growing number of us households are joining the middle class	3531665	1472008140306	1472008140420	c	67
6898	74250	A growing number of US households are joining the middle class.	a growing number of us households are joining the middle class	3531673	1472008140527	1472008140620	l	76
6898	74250	A growing number of US households are joining the middle class.	a growing number of us households are joining the middle class	3531681	1472008140659	1472008140745	a	65
6898	74250	A growing number of US households are joining the middle class.	a growing number of us households are joining the middle class	3531688	1472008141001	1472008141084	s	83
6898	74250	A growing number of US households are joining the middle class.	a growing number of us households are joining the middle class	3531692	1472008141156	1472008141241	s	83
6898	74274	We can discuss options early next week.	we can discuss options early next week 	3531872	1472008145066	1472008145237	w	87
6898	74274	We can discuss options early next week.	we can discuss options early next week 	3531877	1472008145168	1472008145282	e	69
6898	74274	We can discuss options early next week.	we can discuss options early next week 	3531881	1472008145355	1472008145457	 	32
6898	74274	We can discuss options early next week.	we can discuss options early next week 	3531885	1472008145484	1472008145638	c	67
6898	74274	We can discuss options early next week.	we can discuss options early next week 	3531990	1472008145593	1472008145709	a	65
6898	74274	We can discuss options early next week.	we can discuss options early next week 	3531996	1472008145799	1472008145943	n	78
6898	74274	We can discuss options early next week.	we can discuss options early next week 	3532004	1472008145868	1472008146009	 	32
6898	74274	We can discuss options early next week.	we can discuss options early next week 	3532006	1472008146101	1472008146206	d	68
6898	74274	We can discuss options early next week.	we can discuss options early next week 	3532011	1472008147235	1472008147320	i	73
6898	74274	We can discuss options early next week.	we can discuss options early next week 	3532014	1472008147469	1472008147565	s	83
6898	74274	We can discuss options early next week.	we can discuss options early next week 	3532074	1472008147662	1472008147767	c	67
6898	74274	We can discuss options early next week.	we can discuss options early next week 	3532076	1472008148069	1472008148151	u	85
6898	74274	We can discuss options early next week.	we can discuss options early next week 	3532080	1472008148240	1472008148320	s	83
6898	74274	We can discuss options early next week.	we can discuss options early next week 	3532083	1472008148394	1472008148489	s	83
6898	74274	We can discuss options early next week.	we can discuss options early next week 	3532086	1472008148531	1472008148653	 	32
6898	74274	We can discuss options early next week.	we can discuss options early next week 	3532148	1472008149143	1472008149348	o	79
6898	74274	We can discuss options early next week.	we can discuss options early next week 	3532153	1472008149267	1472008149413	p	80
6898	74274	We can discuss options early next week.	we can discuss options early next week 	3532157	1472008149684	1472008149766	t	84
6898	74274	We can discuss options early next week.	we can discuss options early next week 	3532160	1472008149883	1472008150119	i	73
6898	74274	We can discuss options early next week.	we can discuss options early next week 	3532226	1472008150027	1472008150209	o	79
6898	74274	We can discuss options early next week.	we can discuss options early next week 	3532229	1472008150323	1472008150440	n	78
6898	74274	We can discuss options early next week.	we can discuss options early next week 	3532232	1472008150435	1472008150533	s	83
6898	74274	We can discuss options early next week.	we can discuss options early next week 	3532236	1472008150619	1472008150743	 	32
6898	74274	We can discuss options early next week.	we can discuss options early next week 	3532240	1472008151281	1472008151393	e	69
6898	74274	We can discuss options early next week.	we can discuss options early next week 	3532244	1472008151427	1472008151566	a	65
6898	74274	We can discuss options early next week.	we can discuss options early next week 	3532317	1472008151638	1472008151728	r	82
6898	74274	We can discuss options early next week.	we can discuss options early next week 	3532323	1472008151766	1472008151906	l	76
6898	74274	We can discuss options early next week.	we can discuss options early next week 	3532327	1472008151984	1472008152067	y	89
6898	74274	We can discuss options early next week.	we can discuss options early next week 	3532333	1472008152183	1472008152332	 	32
6898	74274	We can discuss options early next week.	we can discuss options early next week 	3532336	1472008152657	1472008152755	n	78
6898	74274	We can discuss options early next week.	we can discuss options early next week 	3532378	1472008152781	1472008152855	e	69
6898	74274	We can discuss options early next week.	we can discuss options early next week 	3532380	1472008153155	1472008153255	x	88
6898	74274	We can discuss options early next week.	we can discuss options early next week 	3532384	1472008153402	1472008153535	t	84
6898	74274	We can discuss options early next week.	we can discuss options early next week 	3532386	1472008153469	1472008153595	 	32
6898	74274	We can discuss options early next week.	we can discuss options early next week 	3532391	1472008153674	1472008153825	w	87
6898	74274	We can discuss options early next week.	we can discuss options early next week 	3532408	1472008153793	1472008153898	e	69
6898	74274	We can discuss options early next week.	we can discuss options early next week 	3532411	1472008153968	1472008154064	e	69
6898	74274	We can discuss options early next week.	we can discuss options early next week 	3532417	1472008154111	1472008154224	k	75
6898	74290	I was planning to attend.	i was planning to attend 	3532617	1472008154161	1472008157557	 	32
6898	74290	I was planning to attend.	i was planning to attend 	3532614	1472008157329	1472008157512	i	73
6898	74290	I was planning to attend.	i was planning to attend 	3532620	1472008157579	1472008157673	w	87
6898	74290	I was planning to attend.	i was planning to attend 	3532622	1472008157661	1472008157888	a	65
6898	74290	I was planning to attend.	i was planning to attend 	3532624	1472008157815	1472008157940	s	83
6898	74290	I was planning to attend.	i was planning to attend 	3532626	1472008157961	1472008158082	 	32
6898	74290	I was planning to attend.	i was planning to attend 	3532652	1472008158180	1472008158332	p	80
6898	74290	I was planning to attend.	i was planning to attend 	3532658	1472008158327	1472008158456	l	76
6898	74290	I was planning to attend.	i was planning to attend 	3532666	1472008158450	1472008158553	a	65
6898	74290	I was planning to attend.	i was planning to attend 	3532672	1472008158643	1472008158718	n	78
6898	74290	I was planning to attend.	i was planning to attend 	3532677	1472008158787	1472008158885	n	78
6898	74290	I was planning to attend.	i was planning to attend 	3532691	1472008158960	1472008159077	i	73
6898	74290	I was planning to attend.	i was planning to attend 	3532695	1472008159102	1472008159217	n	78
6898	74290	I was planning to attend.	i was planning to attend 	3532699	1472008159244	1472008159321	g	71
6898	74290	I was planning to attend.	i was planning to attend 	3532704	1472008159333	1472008159435	 	32
6898	74290	I was planning to attend.	i was planning to attend 	3532710	1472008159471	1472008159538	t	84
6898	74290	I was planning to attend.	i was planning to attend 	3532749	1472008159603	1472008159785	o	79
6898	74290	I was planning to attend.	i was planning to attend 	3532751	1472008159693	1472008159818	 	32
6898	74290	I was planning to attend.	i was planning to attend 	3532754	1472008159906	1472008160002	a	65
6898	74290	I was planning to attend.	i was planning to attend 	3532757	1472008160184	1472008160261	t	84
6898	74290	I was planning to attend.	i was planning to attend 	3532759	1472008160334	1472008160420	t	84
6898	74290	I was planning to attend.	i was planning to attend 	3532785	1472008160513	1472008160593	e	69
6898	74290	I was planning to attend.	i was planning to attend 	3532788	1472008160754	1472008160850	n	78
6898	74290	I was planning to attend.	i was planning to attend 	3532793	1472008161000	1472008161089	d	68
6898	74298	I'll get busy now and hopefully email you later today.	ill getr busy now and hopfully email you later today 	3533157	1472008161158	1472008167783	 	32
6898	74298	I'll get busy now and hopefully email you later today.	ill getr busy now and hopfully email you later today 	3533144	1472008167179	1472008167268	i	73
6898	74298	I'll get busy now and hopefully email you later today.	ill getr busy now and hopfully email you later today 	3533150	1472008167390	1472008167473	l	76
6898	74298	I'll get busy now and hopefully email you later today.	ill getr busy now and hopfully email you later today 	3533154	1472008167542	1472008167672	l	76
6898	74298	I'll get busy now and hopefully email you later today.	ill getr busy now and hopfully email you later today 	3533158	1472008167895	1472008167982	g	71
6898	74298	I'll get busy now and hopefully email you later today.	ill getr busy now and hopfully email you later today 	3533160	1472008168010	1472008168140	e	69
6898	74298	I'll get busy now and hopefully email you later today.	ill getr busy now and hopfully email you later today 	3533163	1472008168180	1472008168262	r	84
6898	74298	I'll get busy now and hopefully email you later today.	ill getr busy now and hopfully email you later today 	3533166	1472008168286	1472008168414	 	32
6898	74298	I'll get busy now and hopefully email you later today.	ill getr busy now and hopfully email you later today 	3533170	1472008168514	1472008168639	b	66
6898	74298	I'll get busy now and hopefully email you later today.	ill getr busy now and hopfully email you later today 	3533246	1472008168622	1472008168767	u	85
6898	74298	I'll get busy now and hopefully email you later today.	ill getr busy now and hopfully email you later today 	3533248	1472008168791	1472008168887	s	83
6898	74298	I'll get busy now and hopefully email you later today.	ill getr busy now and hopfully email you later today 	3533251	1472008169014	1472008169125	y	84
6898	74298	I'll get busy now and hopefully email you later today.	ill getr busy now and hopfully email you later today 	3533254	1472008169393	1472008169492	BKSP	8
6898	74298	I'll get busy now and hopefully email you later today.	ill getr busy now and hopfully email you later today 	3533257	1472008170047	1472008170122	y	89
6898	74298	I'll get busy now and hopefully email you later today.	ill getr busy now and hopfully email you later today 	3533259	1472008170263	1472008170352	BKSP	8
6898	74298	I'll get busy now and hopefully email you later today.	ill getr busy now and hopfully email you later today 	3533262	1472008170414	1472008170521	BKSP	8
6898	74298	I'll get busy now and hopefully email you later today.	ill getr busy now and hopfully email you later today 	3533330	1472008170489	1472008170568	y	89
6898	74298	I'll get busy now and hopefully email you later today.	ill getr busy now and hopfully email you later today 	3533332	1472008170592	1472008170710	 	32
6898	74298	I'll get busy now and hopefully email you later today.	ill getr busy now and hopfully email you later today 	3533335	1472008171186	1472008171319	n	78
6898	74298	I'll get busy now and hopefully email you later today.	ill getr busy now and hopfully email you later today 	3533338	1472008171300	1472008171440	o	79
6898	74298	I'll get busy now and hopefully email you later today.	ill getr busy now and hopfully email you later today 	3533342	1472008171669	1472008171751	w	87
6898	74298	I'll get busy now and hopefully email you later today.	ill getr busy now and hopfully email you later today 	3533347	1472008171816	1472008171916	 	32
6898	74298	I'll get busy now and hopefully email you later today.	ill getr busy now and hopfully email you later today 	3533403	1472008171947	1472008172046	a	65
6898	74298	I'll get busy now and hopefully email you later today.	ill getr busy now and hopfully email you later today 	3533405	1472008172240	1472008172341	n	78
6898	74298	I'll get busy now and hopefully email you later today.	ill getr busy now and hopfully email you later today 	3533407	1472008172831	1472008172919	d	68
6898	74298	I'll get busy now and hopefully email you later today.	ill getr busy now and hopfully email you later today 	3533409	1472008172941	1472008173069	 	32
6898	74298	I'll get busy now and hopefully email you later today.	ill getr busy now and hopfully email you later today 	3533410	1472008173147	1472008173216	h	72
6898	74298	I'll get busy now and hopefully email you later today.	ill getr busy now and hopfully email you later today 	3533466	1472008173396	1472008173615	o	79
6898	74298	I'll get busy now and hopefully email you later today.	ill getr busy now and hopfully email you later today 	3533472	1472008173510	1472008173653	p	80
6898	74298	I'll get busy now and hopefully email you later today.	ill getr busy now and hopfully email you later today 	3533476	1472008173959	1472008174033	f	70
6898	74298	I'll get busy now and hopefully email you later today.	ill getr busy now and hopfully email you later today 	3533480	1472008174256	1472008174330	u	85
6898	74298	I'll get busy now and hopefully email you later today.	ill getr busy now and hopfully email you later today 	3533484	1472008174464	1472008174549	l	76
6898	74298	I'll get busy now and hopefully email you later today.	ill getr busy now and hopfully email you later today 	3533540	1472008174618	1472008174728	l	76
6898	74298	I'll get busy now and hopefully email you later today.	ill getr busy now and hopfully email you later today 	3533545	1472008174741	1472008174807	y	89
6898	74298	I'll get busy now and hopefully email you later today.	ill getr busy now and hopfully email you later today 	3533550	1472008174841	1472008174959	 	32
6898	74298	I'll get busy now and hopefully email you later today.	ill getr busy now and hopfully email you later today 	3533554	1472008175740	1472008175818	e	69
6898	74298	I'll get busy now and hopefully email you later today.	ill getr busy now and hopfully email you later today 	3533558	1472008175907	1472008176009	m	77
6898	74298	I'll get busy now and hopefully email you later today.	ill getr busy now and hopfully email you later today 	3533587	1472008175989	1472008176082	a	65
6898	74298	I'll get busy now and hopefully email you later today.	ill getr busy now and hopfully email you later today 	3533588	1472008176157	1472008176344	i	73
6898	74298	I'll get busy now and hopefully email you later today.	ill getr busy now and hopfully email you later today 	3533590	1472008176217	1472008176429	l	76
6898	74298	I'll get busy now and hopefully email you later today.	ill getr busy now and hopfully email you later today 	3533592	1472008176389	1472008176519	 	32
6898	74298	I'll get busy now and hopefully email you later today.	ill getr busy now and hopfully email you later today 	3533595	1472008176629	1472008176748	y	89
6898	74298	I'll get busy now and hopefully email you later today.	ill getr busy now and hopfully email you later today 	3533660	1472008176727	1472008176925	o	79
6898	74298	I'll get busy now and hopefully email you later today.	ill getr busy now and hopfully email you later today 	3533661	1472008176851	1472008177013	u	85
6898	74298	I'll get busy now and hopefully email you later today.	ill getr busy now and hopfully email you later today 	3533662	1472008176931	1472008177098	 	32
6898	74298	I'll get busy now and hopefully email you later today.	ill getr busy now and hopfully email you later today 	3533663	1472008177459	1472008177567	l	76
6898	74298	I'll get busy now and hopefully email you later today.	ill getr busy now and hopfully email you later today 	3533664	1472008177571	1472008177677	a	65
6898	74298	I'll get busy now and hopefully email you later today.	ill getr busy now and hopfully email you later today 	3533665	1472008177880	1472008177961	t	84
6898	74298	I'll get busy now and hopefully email you later today.	ill getr busy now and hopfully email you later today 	3533704	1472008177980	1472008178068	e	69
6898	74298	I'll get busy now and hopefully email you later today.	ill getr busy now and hopfully email you later today 	3533711	1472008178170	1472008178252	r	82
6898	74298	I'll get busy now and hopefully email you later today.	ill getr busy now and hopfully email you later today 	3533716	1472008178280	1472008178402	 	32
6898	74298	I'll get busy now and hopefully email you later today.	ill getr busy now and hopfully email you later today 	3533719	1472008178737	1472008178802	t	84
6898	74298	I'll get busy now and hopefully email you later today.	ill getr busy now and hopfully email you later today 	3533721	1472008178859	1472008178945	o	79
6898	74298	I'll get busy now and hopefully email you later today.	ill getr busy now and hopfully email you later today 	3533746	1472008179055	1472008179071	s	83
6898	74298	I'll get busy now and hopefully email you later today.	ill getr busy now and hopfully email you later today 	3533749	1472008179234	1472008179346	d	68
6898	74298	I'll get busy now and hopefully email you later today.	ill getr busy now and hopfully email you later today 	3533752	1472008179528	1472008179596	BKSP	8
6898	74298	I'll get busy now and hopefully email you later today.	ill getr busy now and hopfully email you later today 	3533758	1472008179667	1472008179768	BKSP	8
6898	74298	I'll get busy now and hopefully email you later today.	ill getr busy now and hopfully email you later today 	3533764	1472008179794	1472008179947	d	68
6898	74298	I'll get busy now and hopefully email you later today.	ill getr busy now and hopfully email you later today 	3533774	1472008179917	1472008180025	a	65
6898	74298	I'll get busy now and hopefully email you later today.	ill getr busy now and hopfully email you later today 	3533847	1472008180054	1472008180204	t	89
6898	74298	I'll get busy now and hopefully email you later today.	ill getr busy now and hopfully email you later today 	3533849	1472008180178	1472008180355	 	32
6898	74298	I'll get busy now and hopefully email you later today.	ill getr busy now and hopfully email you later today 	3533853	1472008180713	1472008180778	BKSP	8
6898	74298	I'll get busy now and hopefully email you later today.	ill getr busy now and hopfully email you later today 	3533858	1472008180838	1472008180919	BKSP	8
6898	74298	I'll get busy now and hopefully email you later today.	ill getr busy now and hopfully email you later today 	3533862	1472008180987	1472008181079	BKSP	8
6898	74298	I'll get busy now and hopefully email you later today.	ill getr busy now and hopfully email you later today 	3533869	1472008181677	1472008181780	y	89
6898	74298	I'll get busy now and hopefully email you later today.	ill getr busy now and hopfully email you later today 	3533875	1472008181820	1472008181941	 	32
6898	74321	I'm working on a liquidity forecast.	im working on a liquidity foircast	3534171	1472008188582	1472008188664	i	73
6898	74321	I'm working on a liquidity forecast.	im working on a liquidity foircast	3534174	1472008188786	1472008188913	m	77
6898	74321	I'm working on a liquidity forecast.	im working on a liquidity foircast	3534178	1472008188847	1472008188983	 	32
6898	74321	I'm working on a liquidity forecast.	im working on a liquidity foircast	3534184	1472008189088	1472008189176	w	87
6898	74321	I'm working on a liquidity forecast.	im working on a liquidity foircast	3534212	1472008189149	1472008189248	o	79
6898	74321	I'm working on a liquidity forecast.	im working on a liquidity foircast	3534215	1472008189382	1472008189441	r	82
6898	74321	I'm working on a liquidity forecast.	im working on a liquidity foircast	3534219	1472008189527	1472008189614	k	75
6898	74321	I'm working on a liquidity forecast.	im working on a liquidity foircast	3534221	1472008189700	1472008189799	i	73
6898	74321	I'm working on a liquidity forecast.	im working on a liquidity foircast	3534223	1472008189877	1472008189980	n	78
6898	74321	I'm working on a liquidity forecast.	im working on a liquidity foircast	3534225	1472008190000	1472008190084	g	71
6898	74321	I'm working on a liquidity forecast.	im working on a liquidity foircast	3534233	1472008190104	1472008190214	 	32
6898	74321	I'm working on a liquidity forecast.	im working on a liquidity foircast	3534235	1472008190338	1472008190420	o	79
6898	74321	I'm working on a liquidity forecast.	im working on a liquidity foircast	3534237	1472008190526	1472008190665	n	78
6898	74321	I'm working on a liquidity forecast.	im working on a liquidity foircast	3534239	1472008190606	1472008190714	 	32
6898	74321	I'm working on a liquidity forecast.	im working on a liquidity foircast	3534241	1472008190765	1472008190849	a	65
6898	74321	I'm working on a liquidity forecast.	im working on a liquidity foircast	3534306	1472008190843	1472008190940	 	32
6898	74321	I'm working on a liquidity forecast.	im working on a liquidity foircast	3534307	1472008191301	1472008191400	l	76
6898	74321	I'm working on a liquidity forecast.	im working on a liquidity foircast	3534308	1472008191514	1472008191598	i	73
6898	74321	I'm working on a liquidity forecast.	im working on a liquidity foircast	3534309	1472008191823	1472008191906	q	81
6898	74321	I'm working on a liquidity forecast.	im working on a liquidity foircast	3534311	1472008192102	1472008192182	u	85
6898	74321	I'm working on a liquidity forecast.	im working on a liquidity foircast	3534313	1472008192353	1472008192433	i	73
6898	74321	I'm working on a liquidity forecast.	im working on a liquidity foircast	3534403	1472008192582	1472008192669	d	68
6898	74321	I'm working on a liquidity forecast.	im working on a liquidity foircast	3534406	1472008193432	1472008193519	i	73
6898	74321	I'm working on a liquidity forecast.	im working on a liquidity foircast	3534410	1472008193623	1472008193698	t	84
6898	74321	I'm working on a liquidity forecast.	im working on a liquidity foircast	3534413	1472008193812	1472008193957	y	89
6898	74321	I'm working on a liquidity forecast.	im working on a liquidity foircast	3534455	1472008193908	1472008194051	 	32
6898	74321	I'm working on a liquidity forecast.	im working on a liquidity foircast	3534459	1472008194602	1472008194704	f	70
6898	74321	I'm working on a liquidity forecast.	im working on a liquidity foircast	3534464	1472008194709	1472008194803	i	79
6898	74321	I'm working on a liquidity forecast.	im working on a liquidity foircast	3534470	1472008194844	1472008194919	r	82
6898	74321	I'm working on a liquidity forecast.	im working on a liquidity foircast	3534475	1472008195187	1472008195375	c	67
6898	74321	I'm working on a liquidity forecast.	im working on a liquidity foircast	3534496	1472008195294	1472008195470	a	65
6898	74321	I'm working on a liquidity forecast.	im working on a liquidity foircast	3534499	1472008195534	1472008195644	s	83
6898	74321	I'm working on a liquidity forecast.	im working on a liquidity foircast	3534502	1472008195798	1472008195874	t	84
