PARTICIPANT_ID	TEST_SECTION_ID	SENTENCE	USER_INPUT	KEYSTROKE_ID	PRESS_TIME	RELEASE_TIME	LETTER	KEYCODE
1024	10605	It's really just technicalities.	It's really just technicalities.	507624	1471948719488	1471948719814	SHIFT	16
1024	10605	It's really just technicalities.	It's really just technicalities.	507621	1471948719680	1471948719792	O	79
1024	10605	It's really just technicalities.	It's really just technicalities.	507629	1471948720407	1471948720487	BKSP	8
1024	10605	It's really just technicalities.	It's really just technicalities.	507632	1471948720839	1471948721039	SHIFT	16
1024	10605	It's really just technicalities.	It's really just technicalities.	507635	1471948720968	1471948721071	I	73
1024	10605	It's really just technicalities.	It's really just technicalities.	507637	1471948721224	1471948721327	t	84
1024	10605	It's really just technicalities.	It's really just technicalities.	507639	1471948721328	1471948721464	'	222
1024	10605	It's really just technicalities.	It's really just technicalities.	507641	1471948721536	1471948721680	s	83
1024	10605	It's really just technicalities.	It's really just technicalities.	507659	1471948721683	1471948721791	 	32
1024	10605	It's really just technicalities.	It's really just technicalities.	507664	1471948721959	1471948722119	r	82
1024	10605	It's really just technicalities.	It's really just technicalities.	507667	1471948722087	1471948722209	e	69
1024	10605	It's really just technicalities.	It's really just technicalities.	507673	1471948722209	1471948722392	a	65
1024	10605	It's really just technicalities.	It's really just technicalities.	507703	1471948722319	1471948722395	l	76
1024	10605	It's really just technicalities.	It's really just technicalities.	507706	1471948722504	1471948722615	l	76
1024	10605	It's really just technicalities.	It's really just technicalities.	507713	1471948722663	1471948722775	y	89
1024	10605	It's really just technicalities.	It's really just technicalities.	507722	1471948722735	1471948722871	 	32
1024	10605	It's really just technicalities.	It's really just technicalities.	507730	1471948722951	1471948723039	j	74
1024	10605	It's really just technicalities.	It's really just technicalities.	507737	1471948723128	1471948723215	u	85
1024	10605	It's really just technicalities.	It's really just technicalities.	507778	1471948723263	1471948723328	s	83
1024	10605	It's really just technicalities.	It's really just technicalities.	507780	1471948723431	1471948723535	t	84
1024	10605	It's really just technicalities.	It's really just technicalities.	507785	1471948723536	1471948723616	 	32
1024	10605	It's really just technicalities.	It's really just technicalities.	507789	1471948723711	1471948723799	t	84
1024	10605	It's really just technicalities.	It's really just technicalities.	507792	1471948723935	1471948724022	e	69
1024	10605	It's really just technicalities.	It's really just technicalities.	507826	1471948724191	1471948724335	c	67
1024	10605	It's really just technicalities.	It's really just technicalities.	507829	1471948724312	1471948724366	h	72
1024	10605	It's really just technicalities.	It's really just technicalities.	507833	1471948724511	1471948724615	n	78
1024	10605	It's really just technicalities.	It's really just technicalities.	507837	1471948724640	1471948724744	i	73
1024	10605	It's really just technicalities.	It's really just technicalities.	507841	1471948724791	1471948724855	c	67
1024	10605	It's really just technicalities.	It's really just technicalities.	507928	1471948724919	1471948725079	a	65
1024	10605	It's really just technicalities.	It's really just technicalities.	507931	1471948725703	1471948725791	l	76
1024	10605	It's really just technicalities.	It's really just technicalities.	507934	1471948725943	1471948726023	i	73
1024	10605	It's really just technicalities.	It's really just technicalities.	507937	1471948726110	1471948726226	t	84
1024	10605	It's really just technicalities.	It's really just technicalities.	507940	1471948726270	1471948726350	i	73
1024	10605	It's really just technicalities.	It's really just technicalities.	508002	1471948726511	1471948726606	e	69
1024	10605	It's really just technicalities.	It's really just technicalities.	508005	1471948726735	1471948726847	s	83
1024	10605	It's really just technicalities.	It's really just technicalities.	508010	1471948726942	1471948727038	.	190
1024	10614	Please call me if you have any questions.	Please call me if you have any questions.	508127	1471948729110	1471948729431	SHIFT	16
1024	10614	Please call me if you have any questions.	Please call me if you have any questions.	508130	1471948729270	1471948729431	P	80
1024	10614	Please call me if you have any questions.	Please call me if you have any questions.	508132	1471948729511	1471948729630	l	76
1024	10614	Please call me if you have any questions.	Please call me if you have any questions.	508137	1471948729606	1471948729703	e	69
1024	10614	Please call me if you have any questions.	Please call me if you have any questions.	508139	1471948729703	1471948729927	a	65
1024	10614	Please call me if you have any questions.	Please call me if you have any questions.	508159	1471948729870	1471948730038	s	83
1024	10614	Please call me if you have any questions.	Please call me if you have any questions.	508160	1471948729958	1471948730098	e	69
1024	10614	Please call me if you have any questions.	Please call me if you have any questions.	508162	1471948730098	1471948730198	 	32
1024	10614	Please call me if you have any questions.	Please call me if you have any questions.	508164	1471948730246	1471948730302	c	67
1024	10614	Please call me if you have any questions.	Please call me if you have any questions.	508167	1471948730366	1471948730550	a	65
1024	10614	Please call me if you have any questions.	Please call me if you have any questions.	508207	1471948730486	1471948730553	l	76
1024	10614	Please call me if you have any questions.	Please call me if you have any questions.	508210	1471948730687	1471948730807	l	76
1024	10614	Please call me if you have any questions.	Please call me if you have any questions.	508213	1471948730742	1471948730926	 	32
1024	10614	Please call me if you have any questions.	Please call me if you have any questions.	508215	1471948730886	1471948730974	m	77
1024	10614	Please call me if you have any questions.	Please call me if you have any questions.	508216	1471948731006	1471948731094	e	69
1024	10614	Please call me if you have any questions.	Please call me if you have any questions.	508219	1471948731109	1471948731286	 	32
1024	10614	Please call me if you have any questions.	Please call me if you have any questions.	508234	1471948731254	1471948731383	i	73
1024	10614	Please call me if you have any questions.	Please call me if you have any questions.	508236	1471948731422	1471948731550	f	70
1024	10614	Please call me if you have any questions.	Please call me if you have any questions.	508237	1471948731510	1471948731606	 	32
1024	10614	Please call me if you have any questions.	Please call me if you have any questions.	508238	1471948731687	1471948731782	y	89
1024	10614	Please call me if you have any questions.	Please call me if you have any questions.	508239	1471948731791	1471948731958	o	79
1024	10614	Please call me if you have any questions.	Please call me if you have any questions.	508271	1471948731910	1471948732030	u	85
1024	10614	Please call me if you have any questions.	Please call me if you have any questions.	508276	1471948731998	1471948732134	 	32
1024	10614	Please call me if you have any questions.	Please call me if you have any questions.	508278	1471948732166	1471948732312	h	72
1024	10614	Please call me if you have any questions.	Please call me if you have any questions.	508280	1471948732278	1471948732430	a	65
1024	10614	Please call me if you have any questions.	Please call me if you have any questions.	508282	1471948732382	1471948732471	v	86
1024	10614	Please call me if you have any questions.	Please call me if you have any questions.	508283	1471948732576	1471948732678	e	69
1024	10614	Please call me if you have any questions.	Please call me if you have any questions.	508299	1471948732614	1471948732718	 	32
1024	10614	Please call me if you have any questions.	Please call me if you have any questions.	508305	1471948732790	1471948732982	a	65
1024	10614	Please call me if you have any questions.	Please call me if you have any questions.	508301	1471948732870	1471948732958	n	78
1024	10614	Please call me if you have any questions.	Please call me if you have any questions.	508309	1471948733094	1471948733224	y	89
1024	10614	Please call me if you have any questions.	Please call me if you have any questions.	508312	1471948733199	1471948733311	 	32
1024	10614	Please call me if you have any questions.	Please call me if you have any questions.	508316	1471948733373	1471948733534	q	81
1024	10614	Please call me if you have any questions.	Please call me if you have any questions.	508338	1471948733537	1471948733630	u	85
1024	10614	Please call me if you have any questions.	Please call me if you have any questions.	508341	1471948733631	1471948733807	e	69
1024	10614	Please call me if you have any questions.	Please call me if you have any questions.	508346	1471948733808	1471948733941	s	83
1024	10614	Please call me if you have any questions.	Please call me if you have any questions.	508350	1471948733870	1471948734006	t	84
1024	10614	Please call me if you have any questions.	Please call me if you have any questions.	508387	1471948733974	1471948734198	i	73
1024	10614	Please call me if you have any questions.	Please call me if you have any questions.	508388	1471948734078	1471948734198	o	79
1024	10614	Please call me if you have any questions.	Please call me if you have any questions.	508389	1471948734166	1471948734285	n	78
1024	10614	Please call me if you have any questions.	Please call me if you have any questions.	508390	1471948734358	1471948734453	s	83
1024	10614	Please call me if you have any questions.	Please call me if you have any questions.	508392	1471948734501	1471948734598	.	190
1024	10624	He can be explosive, but he is also erratic.	He can be explosive, but he is also erratic.	508513	1471948736422	1471948736669	SHIFT	16
1024	10624	He can be explosive, but he is also erratic.	He can be explosive, but he is also erratic.	508514	1471948736598	1471948736694	H	72
1024	10624	He can be explosive, but he is also erratic.	He can be explosive, but he is also erratic.	508516	1471948736749	1471948736829	e	69
1024	10624	He can be explosive, but he is also erratic.	He can be explosive, but he is also erratic.	508518	1471948736870	1471948736966	 	32
1024	10624	He can be explosive, but he is also erratic.	He can be explosive, but he is also erratic.	508520	1471948736982	1471948737062	c	67
1024	10624	He can be explosive, but he is also erratic.	He can be explosive, but he is also erratic.	508523	1471948737118	1471948737279	a	65
1024	10624	He can be explosive, but he is also erratic.	He can be explosive, but he is also erratic.	508565	1471948737245	1471948737374	n	78
1024	10624	He can be explosive, but he is also erratic.	He can be explosive, but he is also erratic.	508567	1471948737374	1471948737509	 	32
1024	10624	He can be explosive, but he is also erratic.	He can be explosive, but he is also erratic.	508572	1471948737749	1471948737845	b	66
1024	10624	He can be explosive, but he is also erratic.	He can be explosive, but he is also erratic.	508576	1471948737974	1471948738086	e	69
1024	10624	He can be explosive, but he is also erratic.	He can be explosive, but he is also erratic.	508582	1471948738165	1471948738229	 	32
1024	10624	He can be explosive, but he is also erratic.	He can be explosive, but he is also erratic.	508589	1471948738437	1471948738581	e	69
1024	10624	He can be explosive, but he is also erratic.	He can be explosive, but he is also erratic.	508641	1471948738758	1471948738877	x	88
1024	10624	He can be explosive, but he is also erratic.	He can be explosive, but he is also erratic.	508645	1471948738900	1471948739029	p	80
1024	10624	He can be explosive, but he is also erratic.	He can be explosive, but he is also erratic.	508649	1471948739125	1471948739189	l	76
1024	10624	He can be explosive, but he is also erratic.	He can be explosive, but he is also erratic.	508652	1471948739316	1471948739406	o	79
1024	10624	He can be explosive, but he is also erratic.	He can be explosive, but he is also erratic.	508658	1471948739406	1471948739493	s	83
1024	10624	He can be explosive, but he is also erratic.	He can be explosive, but he is also erratic.	508674	1471948739605	1471948739677	i	73
1024	10624	He can be explosive, but he is also erratic.	He can be explosive, but he is also erratic.	508675	1471948739742	1471948739812	v	86
1024	10624	He can be explosive, but he is also erratic.	He can be explosive, but he is also erratic.	508676	1471948739911	1471948740005	e	69
1024	10624	He can be explosive, but he is also erratic.	He can be explosive, but he is also erratic.	508677	1471948740036	1471948740173	,	188
1024	10624	He can be explosive, but he is also erratic.	He can be explosive, but he is also erratic.	508739	1471948740133	1471948740261	 	32
1024	10624	He can be explosive, but he is also erratic.	He can be explosive, but he is also erratic.	508741	1471948740382	1471948740445	b	66
1024	10624	He can be explosive, but he is also erratic.	He can be explosive, but he is also erratic.	508742	1471948740547	1471948740652	e	69
1024	10624	He can be explosive, but he is also erratic.	He can be explosive, but he is also erratic.	508743	1471948740813	1471948740885	u	85
1024	10624	He can be explosive, but he is also erratic.	He can be explosive, but he is also erratic.	508744	1471948741148	1471948741213	BKSP	8
1024	10624	He can be explosive, but he is also erratic.	He can be explosive, but he is also erratic.	508745	1471948741293	1471948741373	BKSP	8
1024	10624	He can be explosive, but he is also erratic.	He can be explosive, but he is also erratic.	508746	1471948741493	1471948741565	u	85
1024	10624	He can be explosive, but he is also erratic.	He can be explosive, but he is also erratic.	508747	1471948741605	1471948741693	t	84
1024	10624	He can be explosive, but he is also erratic.	He can be explosive, but he is also erratic.	508772	1471948741780	1471948741860	 	32
1024	10624	He can be explosive, but he is also erratic.	He can be explosive, but he is also erratic.	508775	1471948741894	1471948742062	h	72
1024	10624	He can be explosive, but he is also erratic.	He can be explosive, but he is also erratic.	508777	1471948742174	1471948742270	e	69
1024	10624	He can be explosive, but he is also erratic.	He can be explosive, but he is also erratic.	508779	1471948742357	1471948742520	 	32
1024	10624	He can be explosive, but he is also erratic.	He can be explosive, but he is also erratic.	508816	1471948742485	1471948742590	i	73
1024	10624	He can be explosive, but he is also erratic.	He can be explosive, but he is also erratic.	508823	1471948742558	1471948742678	s	83
1024	10624	He can be explosive, but he is also erratic.	He can be explosive, but he is also erratic.	508830	1471948742733	1471948742838	 	32
1024	10624	He can be explosive, but he is also erratic.	He can be explosive, but he is also erratic.	508836	1471948742886	1471948743021	a	65
1024	10624	He can be explosive, but he is also erratic.	He can be explosive, but he is also erratic.	508842	1471948743069	1471948743174	l	76
1024	10624	He can be explosive, but he is also erratic.	He can be explosive, but he is also erratic.	508848	1471948743478	1471948743605	s	83
1024	10624	He can be explosive, but he is also erratic.	He can be explosive, but he is also erratic.	508916	1471948743645	1471948743813	o	79
1024	10624	He can be explosive, but he is also erratic.	He can be explosive, but he is also erratic.	508918	1471948743774	1471948743926	 	32
1024	10624	He can be explosive, but he is also erratic.	He can be explosive, but he is also erratic.	508922	1471948744278	1471948744365	e	69
1024	10624	He can be explosive, but he is also erratic.	He can be explosive, but he is also erratic.	508925	1471948744525	1471948744653	r	82
1024	10624	He can be explosive, but he is also erratic.	He can be explosive, but he is also erratic.	508929	1471948744766	1471948744894	r	82
1024	10624	He can be explosive, but he is also erratic.	He can be explosive, but he is also erratic.	508985	1471948744997	1471948745215	a	65
1024	10624	He can be explosive, but he is also erratic.	He can be explosive, but he is also erratic.	508988	1471948745182	1471948745285	t	84
1024	10624	He can be explosive, but he is also erratic.	He can be explosive, but he is also erratic.	508992	1471948745381	1471948745453	i	73
1024	10624	He can be explosive, but he is also erratic.	He can be explosive, but he is also erratic.	508995	1471948745517	1471948745597	c	67
1024	10624	He can be explosive, but he is also erratic.	He can be explosive, but he is also erratic.	508997	1471948745726	1471948745837	.	190
1024	10633	I am trying again.	I am trying again.	509132	1471948747389	1471948748173	SHIFT	16
1024	10633	I am trying again.	I am trying again.	509129	1471948747829	1471948748013	I	73
1024	10633	I am trying again.	I am trying again.	509135	1471948748197	1471948748301	 	32
1024	10633	I am trying again.	I am trying again.	509140	1471948748374	1471948748517	a	65
1024	10633	I am trying again.	I am trying again.	509143	1471948748437	1471948748597	m	77
1024	10633	I am trying again.	I am trying again.	509172	1471948748558	1471948748677	 	32
1024	10633	I am trying again.	I am trying again.	509173	1471948748772	1471948748845	t	84
1024	10633	I am trying again.	I am trying again.	509177	1471948748948	1471948749045	r	82
1024	10633	I am trying again.	I am trying again.	509181	1471948749029	1471948749133	y	89
1024	10633	I am trying again.	I am trying again.	509187	1471948749133	1471948749229	i	73
1024	10633	I am trying again.	I am trying again.	509194	1471948749333	1471948749405	n	78
1024	10633	I am trying again.	I am trying again.	509217	1471948749409	1471948749543	g	71
1024	10633	I am trying again.	I am trying again.	509218	1471948749509	1471948749589	 	32
1024	10633	I am trying again.	I am trying again.	509220	1471948749637	1471948749797	a	65
1024	10633	I am trying again.	I am trying again.	509221	1471948749749	1471948749909	g	71
1024	10633	I am trying again.	I am trying again.	509222	1471948749909	1471948750102	a	65
1024	10633	I am trying again.	I am trying again.	509231	1471948750020	1471948750135	i	73
1024	10633	I am trying again.	I am trying again.	509235	1471948750103	1471948750204	n	78
1024	10633	I am trying again.	I am trying again.	509241	1471948750364	1471948750477	.	190
1024	10640	I appreciate you moving so quickly on this.	I appreciate you moving so quickly on this.	509342	1471948752231	1471948752604	SHIFT	16
1024	10640	I appreciate you moving so quickly on this.	I appreciate you moving so quickly on this.	509339	1471948752429	1471948752549	I	73
1024	10640	I appreciate you moving so quickly on this.	I appreciate you moving so quickly on this.	509345	1471948752685	1471948752797	 	32
1024	10640	I appreciate you moving so quickly on this.	I appreciate you moving so quickly on this.	509350	1471948752820	1471948752949	a	65
1024	10640	I appreciate you moving so quickly on this.	I appreciate you moving so quickly on this.	509355	1471948752885	1471948752965	p	80
1024	10640	I appreciate you moving so quickly on this.	I appreciate you moving so quickly on this.	509359	1471948753068	1471948753205	p	80
1024	10640	I appreciate you moving so quickly on this.	I appreciate you moving so quickly on this.	509387	1471948753208	1471948753349	r	82
1024	10640	I appreciate you moving so quickly on this.	I appreciate you moving so quickly on this.	509389	1471948753349	1471948753468	e	69
1024	10640	I appreciate you moving so quickly on this.	I appreciate you moving so quickly on this.	509394	1471948753637	1471948753725	c	67
1024	10640	I appreciate you moving so quickly on this.	I appreciate you moving so quickly on this.	509402	1471948753868	1471948753933	i	73
1024	10640	I appreciate you moving so quickly on this.	I appreciate you moving so quickly on this.	509409	1471948754020	1471948754197	a	65
1024	10640	I appreciate you moving so quickly on this.	I appreciate you moving so quickly on this.	509441	1471948754200	1471948754316	t	84
1024	10640	I appreciate you moving so quickly on this.	I appreciate you moving so quickly on this.	509443	1471948754364	1471948754468	e	69
1024	10640	I appreciate you moving so quickly on this.	I appreciate you moving so quickly on this.	509446	1471948754580	1471948754636	 	32
1024	10640	I appreciate you moving so quickly on this.	I appreciate you moving so quickly on this.	509451	1471948754765	1471948754844	y	89
1024	10640	I appreciate you moving so quickly on this.	I appreciate you moving so quickly on this.	509456	1471948754868	1471948755052	o	79
1024	10640	I appreciate you moving so quickly on this.	I appreciate you moving so quickly on this.	509484	1471948754988	1471948755098	u	85
1024	10640	I appreciate you moving so quickly on this.	I appreciate you moving so quickly on this.	509488	1471948755062	1471948755196	 	32
1024	10640	I appreciate you moving so quickly on this.	I appreciate you moving so quickly on this.	509491	1471948755260	1471948755381	m	77
1024	10640	I appreciate you moving so quickly on this.	I appreciate you moving so quickly on this.	509495	1471948755356	1471948755492	o	79
1024	10640	I appreciate you moving so quickly on this.	I appreciate you moving so quickly on this.	509499	1471948755493	1471948755572	v	86
1024	10640	I appreciate you moving so quickly on this.	I appreciate you moving so quickly on this.	509503	1471948755653	1471948755821	e	69
1024	10640	I appreciate you moving so quickly on this.	I appreciate you moving so quickly on this.	509559	1471948755823	1471948755948	i	73
1024	10640	I appreciate you moving so quickly on this.	I appreciate you moving so quickly on this.	509562	1471948755908	1471948756060	n	78
1024	10640	I appreciate you moving so quickly on this.	I appreciate you moving so quickly on this.	509564	1471948756316	1471948756372	BKSP	8
1024	10640	I appreciate you moving so quickly on this.	I appreciate you moving so quickly on this.	509567	1471948756484	1471948756540	BKSP	8
1024	10640	I appreciate you moving so quickly on this.	I appreciate you moving so quickly on this.	509570	1471948756645	1471948756725	BKSP	8
1024	10640	I appreciate you moving so quickly on this.	I appreciate you moving so quickly on this.	509573	1471948756900	1471948756973	i	73
1024	10640	I appreciate you moving so quickly on this.	I appreciate you moving so quickly on this.	509577	1471948757053	1471948757164	n	78
1024	10640	I appreciate you moving so quickly on this.	I appreciate you moving so quickly on this.	509581	1471948757228	1471948757351	g	71
1024	10640	I appreciate you moving so quickly on this.	I appreciate you moving so quickly on this.	509598	1471948757332	1471948757428	 	32
1024	10640	I appreciate you moving so quickly on this.	I appreciate you moving so quickly on this.	509600	1471948757532	1471948757651	s	83
1024	10640	I appreciate you moving so quickly on this.	I appreciate you moving so quickly on this.	509602	1471948757612	1471948757732	o	79
1024	10640	I appreciate you moving so quickly on this.	I appreciate you moving so quickly on this.	509604	1471948757732	1471948757844	 	32
1024	10640	I appreciate you moving so quickly on this.	I appreciate you moving so quickly on this.	509606	1471948758284	1471948758412	q	81
1024	10640	I appreciate you moving so quickly on this.	I appreciate you moving so quickly on this.	509632	1471948758372	1471948758532	u	85
1024	10640	I appreciate you moving so quickly on this.	I appreciate you moving so quickly on this.	509633	1471948758509	1471948758645	i	73
1024	10640	I appreciate you moving so quickly on this.	I appreciate you moving so quickly on this.	509636	1471948758731	1471948758892	c	67
1024	10640	I appreciate you moving so quickly on this.	I appreciate you moving so quickly on this.	509643	1471948758924	1471948759012	k	75
1024	10640	I appreciate you moving so quickly on this.	I appreciate you moving so quickly on this.	509647	1471948759084	1471948759195	l	76
1024	10640	I appreciate you moving so quickly on this.	I appreciate you moving so quickly on this.	509656	1471948759315	1471948759436	y	89
1024	10640	I appreciate you moving so quickly on this.	I appreciate you moving so quickly on this.	509677	1471948759412	1471948759540	 	32
1024	10640	I appreciate you moving so quickly on this.	I appreciate you moving so quickly on this.	509680	1471948759676	1471948759812	o	79
1024	10640	I appreciate you moving so quickly on this.	I appreciate you moving so quickly on this.	509684	1471948759788	1471948759892	n	78
1024	10640	I appreciate you moving so quickly on this.	I appreciate you moving so quickly on this.	509688	1471948759893	1471948759973	 	32
1024	10640	I appreciate you moving so quickly on this.	I appreciate you moving so quickly on this.	509692	1471948759996	1471948760107	t	84
1024	10640	I appreciate you moving so quickly on this.	I appreciate you moving so quickly on this.	509715	1471948760067	1471948760195	h	72
1024	10640	I appreciate you moving so quickly on this.	I appreciate you moving so quickly on this.	509718	1471948760173	1471948760269	i	73
1024	10640	I appreciate you moving so quickly on this.	I appreciate you moving so quickly on this.	509723	1471948760269	1471948760379	s	83
1024	10640	I appreciate you moving so quickly on this.	I appreciate you moving so quickly on this.	509729	1471948760436	1471948760604	.	190
1024	10649	Senate ratification would be a matter of humanity.	Senate ratification would be a matter of humanity.	509869	1471948762403	1471948762699	SHIFT	16
1024	10649	Senate ratification would be a matter of humanity.	Senate ratification would be a matter of humanity.	509872	1471948762619	1471948762747	S	83
1024	10649	Senate ratification would be a matter of humanity.	Senate ratification would be a matter of humanity.	509874	1471948762843	1471948762956	e	69
1024	10649	Senate ratification would be a matter of humanity.	Senate ratification would be a matter of humanity.	509878	1471948762987	1471948763083	n	78
1024	10649	Senate ratification would be a matter of humanity.	Senate ratification would be a matter of humanity.	509882	1471948763146	1471948763259	t	84
1024	10649	Senate ratification would be a matter of humanity.	Senate ratification would be a matter of humanity.	509886	1471948763627	1471948763707	BKSP	8
1024	10649	Senate ratification would be a matter of humanity.	Senate ratification would be a matter of humanity.	509891	1471948763708	1471948763883	a	65
1024	10649	Senate ratification would be a matter of humanity.	Senate ratification would be a matter of humanity.	509954	1471948763835	1471948763972	t	84
1024	10649	Senate ratification would be a matter of humanity.	Senate ratification would be a matter of humanity.	509956	1471948764003	1471948764168	e	69
1024	10649	Senate ratification would be a matter of humanity.	Senate ratification would be a matter of humanity.	509960	1471948764308	1471948764419	 	32
1024	10649	Senate ratification would be a matter of humanity.	Senate ratification would be a matter of humanity.	509963	1471948764764	1471948764892	r	82
1024	10649	Senate ratification would be a matter of humanity.	Senate ratification would be a matter of humanity.	509966	1471948765075	1471948765227	a	65
1024	10649	Senate ratification would be a matter of humanity.	Senate ratification would be a matter of humanity.	509969	1471948765451	1471948765539	t	84
1024	10649	Senate ratification would be a matter of humanity.	Senate ratification would be a matter of humanity.	510006	1471948765644	1471948765723	i	73
1024	10649	Senate ratification would be a matter of humanity.	Senate ratification would be a matter of humanity.	510008	1471948765786	1471948765891	f	70
1024	10649	Senate ratification would be a matter of humanity.	Senate ratification would be a matter of humanity.	510010	1471948765954	1471948766035	i	73
1024	10649	Senate ratification would be a matter of humanity.	Senate ratification would be a matter of humanity.	510012	1471948766107	1471948766187	c	67
1024	10649	Senate ratification would be a matter of humanity.	Senate ratification would be a matter of humanity.	510015	1471948766252	1471948766419	a	65
1024	10649	Senate ratification would be a matter of humanity.	Senate ratification would be a matter of humanity.	510029	1471948766371	1471948766490	t	84
1024	10649	Senate ratification would be a matter of humanity.	Senate ratification would be a matter of humanity.	510032	1471948766436	1471948766621	i	73
1024	10649	Senate ratification would be a matter of humanity.	Senate ratification would be a matter of humanity.	510035	1471948766522	1471948766716	o	79
1024	10649	Senate ratification would be a matter of humanity.	Senate ratification would be a matter of humanity.	510038	1471948766597	1471948766771	n	78
1024	10649	Senate ratification would be a matter of humanity.	Senate ratification would be a matter of humanity.	510041	1471948766690	1471948766803	 	32
1024	10649	Senate ratification would be a matter of humanity.	Senate ratification would be a matter of humanity.	510043	1471948766859	1471948766964	w	87
1024	10649	Senate ratification would be a matter of humanity.	Senate ratification would be a matter of humanity.	510108	1471948766939	1471948767060	o	79
1024	10649	Senate ratification would be a matter of humanity.	Senate ratification would be a matter of humanity.	510110	1471948767212	1471948767355	u	85
1024	10649	Senate ratification would be a matter of humanity.	Senate ratification would be a matter of humanity.	510113	1471948767492	1471948767571	l	76
1024	10649	Senate ratification would be a matter of humanity.	Senate ratification would be a matter of humanity.	510115	1471948767651	1471948767779	d	68
1024	10649	Senate ratification would be a matter of humanity.	Senate ratification would be a matter of humanity.	510116	1471948767803	1471948767907	 	32
1024	10649	Senate ratification would be a matter of humanity.	Senate ratification would be a matter of humanity.	510118	1471948768092	1471948768180	b	66
1024	10649	Senate ratification would be a matter of humanity.	Senate ratification would be a matter of humanity.	510129	1471948768315	1471948768419	e	69
1024	10649	Senate ratification would be a matter of humanity.	Senate ratification would be a matter of humanity.	510133	1471948768483	1471948768556	 	32
1024	10649	Senate ratification would be a matter of humanity.	Senate ratification would be a matter of humanity.	510135	1471948768587	1471948768716	a	65
1024	10649	Senate ratification would be a matter of humanity.	Senate ratification would be a matter of humanity.	510137	1471948768730	1471948768836	 	32
1024	10649	Senate ratification would be a matter of humanity.	Senate ratification would be a matter of humanity.	510140	1471948768995	1471948769132	m	77
1024	10649	Senate ratification would be a matter of humanity.	Senate ratification would be a matter of humanity.	510161	1471948769155	1471948769299	a	65
1024	10649	Senate ratification would be a matter of humanity.	Senate ratification would be a matter of humanity.	510166	1471948769275	1471948769380	t	84
1024	10649	Senate ratification would be a matter of humanity.	Senate ratification would be a matter of humanity.	510171	1471948769491	1471948769571	t	84
1024	10649	Senate ratification would be a matter of humanity.	Senate ratification would be a matter of humanity.	510176	1471948769636	1471948769771	e	69
1024	10649	Senate ratification would be a matter of humanity.	Senate ratification would be a matter of humanity.	510193	1471948769731	1471948769812	r	82
1024	10649	Senate ratification would be a matter of humanity.	Senate ratification would be a matter of humanity.	510197	1471948769851	1471948769939	 	32
1024	10649	Senate ratification would be a matter of humanity.	Senate ratification would be a matter of humanity.	510201	1471948769939	1471948770060	o	79
1024	10649	Senate ratification would be a matter of humanity.	Senate ratification would be a matter of humanity.	510204	1471948770126	1471948770220	f	70
1024	10649	Senate ratification would be a matter of humanity.	Senate ratification would be a matter of humanity.	510207	1471948770234	1471948770331	 	32
1024	10649	Senate ratification would be a matter of humanity.	Senate ratification would be a matter of humanity.	510210	1471948770387	1471948770476	h	72
1024	10649	Senate ratification would be a matter of humanity.	Senate ratification would be a matter of humanity.	510237	1471948770556	1471948770651	u	85
1024	10649	Senate ratification would be a matter of humanity.	Senate ratification would be a matter of humanity.	510242	1471948770819	1471948770892	m	77
1024	10649	Senate ratification would be a matter of humanity.	Senate ratification would be a matter of humanity.	510249	1471948770947	1471948771067	a	65
1024	10649	Senate ratification would be a matter of humanity.	Senate ratification would be a matter of humanity.	510251	1471948771043	1471948771123	n	78
1024	10649	Senate ratification would be a matter of humanity.	Senate ratification would be a matter of humanity.	510255	1471948771205	1471948771317	i	73
1024	10649	Senate ratification would be a matter of humanity.	Senate ratification would be a matter of humanity.	510271	1471948771380	1471948771475	t	84
1024	10649	Senate ratification would be a matter of humanity.	Senate ratification would be a matter of humanity.	510273	1471948771523	1471948771611	y	89
1024	10649	Senate ratification would be a matter of humanity.	Senate ratification would be a matter of humanity.	510274	1471948771818	1471948771939	.	190
1024	10660	This came as a shock to me.	This came as a shock to me.	510398	1471948773811	1471948774085	SHIFT	16
1024	10660	This came as a shock to me.	This came as a shock to me.	510402	1471948774051	1471948774154	T	84
1024	10660	This came as a shock to me.	This came as a shock to me.	510407	1471948774659	1471948774763	h	72
1024	10660	This came as a shock to me.	This came as a shock to me.	510410	1471948774764	1471948774898	i	73
1024	10660	This came as a shock to me.	This came as a shock to me.	510414	1471948774931	1471948775026	s	83
1024	10660	This came as a shock to me.	This came as a shock to me.	510420	1471948775114	1471948775211	 	32
1024	10660	This came as a shock to me.	This came as a shock to me.	510457	1471948775219	1471948775307	c	67
1024	10660	This came as a shock to me.	This came as a shock to me.	510464	1471948775402	1471948775538	a	65
1024	10660	This came as a shock to me.	This came as a shock to me.	510469	1471948775684	1471948775763	m	77
1024	10660	This came as a shock to me.	This came as a shock to me.	510475	1471948775874	1471948775954	e	69
1024	10660	This came as a shock to me.	This came as a shock to me.	510479	1471948776034	1471948776106	 	32
1024	10660	This came as a shock to me.	This came as a shock to me.	510511	1471948776146	1471948776315	a	65
1024	10660	This came as a shock to me.	This came as a shock to me.	510515	1471948776259	1471948776402	s	83
1024	10660	This came as a shock to me.	This came as a shock to me.	510517	1471948776402	1471948776498	 	32
1024	10660	This came as a shock to me.	This came as a shock to me.	510520	1471948776514	1471948776675	a	65
1024	10660	This came as a shock to me.	This came as a shock to me.	510522	1471948776676	1471948776779	 	32
1024	10660	This came as a shock to me.	This came as a shock to me.	510567	1471948776907	1471948777043	s	83
1024	10660	This came as a shock to me.	This came as a shock to me.	510570	1471948777043	1471948777122	h	72
1024	10660	This came as a shock to me.	This came as a shock to me.	510573	1471948777235	1471948777346	o	79
1024	10660	This came as a shock to me.	This came as a shock to me.	510576	1471948777410	1471948777505	c	67
1024	10660	This came as a shock to me.	This came as a shock to me.	510578	1471948777561	1471948777714	k	75
1024	10660	This came as a shock to me.	This came as a shock to me.	510597	1471948777689	1471948777809	 	32
1024	10660	This came as a shock to me.	This came as a shock to me.	510603	1471948777865	1471948777985	t	84
1024	10660	This came as a shock to me.	This came as a shock to me.	510609	1471948777922	1471948778049	o	79
1024	10660	This came as a shock to me.	This came as a shock to me.	510615	1471948778025	1471948778121	 	32
1024	10660	This came as a shock to me.	This came as a shock to me.	510621	1471948778258	1471948778386	m	77
1024	10660	This came as a shock to me.	This came as a shock to me.	510624	1471948778442	1471948778537	e	69
1024	10660	This came as a shock to me.	This came as a shock to me.	510625	1471948778569	1471948778689	.	190
1024	10662	He has made progress in his recovery and might play this week.	He has made progress in his recovery and might play this week. 	510780	1471948780217	1471948780721	SHIFT	16
1024	10662	He has made progress in his recovery and might play this week.	He has made progress in his recovery and might play this week. 	510775	1471948780545	1471948780688	H	72
1024	10662	He has made progress in his recovery and might play this week.	He has made progress in his recovery and might play this week. 	510784	1471948780857	1471948780921	e	69
1024	10662	He has made progress in his recovery and might play this week.	He has made progress in his recovery and might play this week. 	510788	1471948780969	1471948781073	 	32
1024	10662	He has made progress in his recovery and might play this week.	He has made progress in his recovery and might play this week. 	510792	1471948781161	1471948781241	h	72
1024	10662	He has made progress in his recovery and might play this week.	He has made progress in his recovery and might play this week. 	510796	1471948781394	1471948781641	a	65
1024	10662	He has made progress in his recovery and might play this week.	He has made progress in his recovery and might play this week. 	510844	1471948781593	1471948781745	s	83
1024	10662	He has made progress in his recovery and might play this week.	He has made progress in his recovery and might play this week. 	510846	1471948781745	1471948781841	 	32
1024	10662	He has made progress in his recovery and might play this week.	He has made progress in his recovery and might play this week. 	510847	1471948782105	1471948782233	m	77
1024	10662	He has made progress in his recovery and might play this week.	He has made progress in his recovery and might play this week. 	510848	1471948782297	1471948782418	a	65
1024	10662	He has made progress in his recovery and might play this week.	He has made progress in his recovery and might play this week. 	510849	1471948782514	1471948782594	d	68
1024	10662	He has made progress in his recovery and might play this week.	He has made progress in his recovery and might play this week. 	510850	1471948782705	1471948782801	e	69
1024	10662	He has made progress in his recovery and might play this week.	He has made progress in his recovery and might play this week. 	510869	1471948782833	1471948782913	 	32
1024	10662	He has made progress in his recovery and might play this week.	He has made progress in his recovery and might play this week. 	510872	1471948782913	1471948783081	p	80
1024	10662	He has made progress in his recovery and might play this week.	He has made progress in his recovery and might play this week. 	510875	1471948783081	1471948783177	r	82
1024	10662	He has made progress in his recovery and might play this week.	He has made progress in his recovery and might play this week. 	510876	1471948783240	1471948783369	o	79
1024	10662	He has made progress in his recovery and might play this week.	He has made progress in his recovery and might play this week. 	510879	1471948783633	1471948783728	g	71
1024	10662	He has made progress in his recovery and might play this week.	He has made progress in his recovery and might play this week. 	510920	1471948783833	1471948783944	r	82
1024	10662	He has made progress in his recovery and might play this week.	He has made progress in his recovery and might play this week. 	510923	1471948784033	1471948784121	e	69
1024	10662	He has made progress in his recovery and might play this week.	He has made progress in his recovery and might play this week. 	510926	1471948784322	1471948784409	s	83
1024	10662	He has made progress in his recovery and might play this week.	He has made progress in his recovery and might play this week. 	510930	1471948784529	1471948784681	s	83
1024	10662	He has made progress in his recovery and might play this week.	He has made progress in his recovery and might play this week. 	510933	1471948784682	1471948784769	 	32
1024	10662	He has made progress in his recovery and might play this week.	He has made progress in his recovery and might play this week. 	510950	1471948784773	1471948784849	i	73
1024	10662	He has made progress in his recovery and might play this week.	He has made progress in his recovery and might play this week. 	510952	1471948784904	1471948785025	n	78
1024	10662	He has made progress in his recovery and might play this week.	He has made progress in his recovery and might play this week. 	510956	1471948785001	1471948785104	 	32
1024	10662	He has made progress in his recovery and might play this week.	He has made progress in his recovery and might play this week. 	510961	1471948785152	1471948785265	h	72
1024	10662	He has made progress in his recovery and might play this week.	He has made progress in his recovery and might play this week. 	511037	1471948785240	1471948785368	i	73
1024	10662	He has made progress in his recovery and might play this week.	He has made progress in his recovery and might play this week. 	511041	1471948785369	1471948785523	s	83
1024	10662	He has made progress in his recovery and might play this week.	He has made progress in his recovery and might play this week. 	511047	1471948785523	1471948785608	 	32
1024	10662	He has made progress in his recovery and might play this week.	He has made progress in his recovery and might play this week. 	511051	1471948785984	1471948786097	r	82
1024	10662	He has made progress in his recovery and might play this week.	He has made progress in his recovery and might play this week. 	511053	1471948786163	1471948786298	e	69
1024	10662	He has made progress in his recovery and might play this week.	He has made progress in his recovery and might play this week. 	511055	1471948786360	1471948786440	o	79
1024	10662	He has made progress in his recovery and might play this week.	He has made progress in his recovery and might play this week. 	511147	1471948786464	1471948786545	v	86
1024	10662	He has made progress in his recovery and might play this week.	He has made progress in his recovery and might play this week. 	511150	1471948786649	1471948786809	e	69
1024	10662	He has made progress in his recovery and might play this week.	He has made progress in his recovery and might play this week. 	511153	1471948786760	1471948786872	r	82
1024	10662	He has made progress in his recovery and might play this week.	He has made progress in his recovery and might play this week. 	511157	1471948787435	1471948787512	BKSP	8
1024	10662	He has made progress in his recovery and might play this week.	He has made progress in his recovery and might play this week. 	511160	1471948787609	1471948787673	BKSP	8
1024	10662	He has made progress in his recovery and might play this week.	He has made progress in his recovery and might play this week. 	511162	1471948787785	1471948787850	BKSP	8
1024	10662	He has made progress in his recovery and might play this week.	He has made progress in his recovery and might play this week. 	511165	1471948787977	1471948788064	c	67
1024	10662	He has made progress in his recovery and might play this week.	He has made progress in his recovery and might play this week. 	511167	1471948788161	1471948788249	BKSP	8
1024	10662	He has made progress in his recovery and might play this week.	He has made progress in his recovery and might play this week. 	511168	1471948788385	1471948788457	BKSP	8
1024	10662	He has made progress in his recovery and might play this week.	He has made progress in his recovery and might play this week. 	511170	1471948788585	1471948788688	c	67
1024	10662	He has made progress in his recovery and might play this week.	He has made progress in his recovery and might play this week. 	511200	1471948788921	1471948789024	o	79
1024	10662	He has made progress in his recovery and might play this week.	He has made progress in his recovery and might play this week. 	511202	1471948789328	1471948789464	v	86
1024	10662	He has made progress in his recovery and might play this week.	He has made progress in his recovery and might play this week. 	511204	1471948789641	1471948789800	e	69
1024	10662	He has made progress in his recovery and might play this week.	He has made progress in his recovery and might play this week. 	511206	1471948789720	1471948789904	r	82
1024	10662	He has made progress in his recovery and might play this week.	He has made progress in his recovery and might play this week. 	511209	1471948789904	1471948790041	y	89
1024	10662	He has made progress in his recovery and might play this week.	He has made progress in his recovery and might play this week. 	511240	1471948790044	1471948790152	 	32
1024	10662	He has made progress in his recovery and might play this week.	He has made progress in his recovery and might play this week. 	511242	1471948790296	1471948790442	a	65
1024	10662	He has made progress in his recovery and might play this week.	He has made progress in his recovery and might play this week. 	511244	1471948790418	1471948790495	n	78
1024	10662	He has made progress in his recovery and might play this week.	He has made progress in his recovery and might play this week. 	511245	1471948790519	1471948790648	d	68
1024	10662	He has made progress in his recovery and might play this week.	He has made progress in his recovery and might play this week. 	511246	1471948790649	1471948790817	 	32
1024	10662	He has made progress in his recovery and might play this week.	He has made progress in his recovery and might play this week. 	511247	1471948790800	1471948790904	m	77
1024	10662	He has made progress in his recovery and might play this week.	He has made progress in his recovery and might play this week. 	511250	1471948790904	1471948791008	i	73
1024	10662	He has made progress in his recovery and might play this week.	He has made progress in his recovery and might play this week. 	511254	1471948791047	1471948791145	g	71
1024	10662	He has made progress in his recovery and might play this week.	He has made progress in his recovery and might play this week. 	511258	1471948791112	1471948791209	h	72
1024	10662	He has made progress in his recovery and might play this week.	He has made progress in his recovery and might play this week. 	511262	1471948791264	1471948791360	t	84
1024	10662	He has made progress in his recovery and might play this week.	He has made progress in his recovery and might play this week. 	511266	1471948791360	1471948791448	 	32
1024	10662	He has made progress in his recovery and might play this week.	He has made progress in his recovery and might play this week. 	511281	1471948791519	1471948791648	p	80
1024	10662	He has made progress in his recovery and might play this week.	He has made progress in his recovery and might play this week. 	511284	1471948791760	1471948791855	l	76
1024	10662	He has made progress in his recovery and might play this week.	He has made progress in his recovery and might play this week. 	511289	1471948791903	1471948792081	a	65
1024	10662	He has made progress in his recovery and might play this week.	He has made progress in his recovery and might play this week. 	511292	1471948792016	1471948792114	y	89
1024	10662	He has made progress in his recovery and might play this week.	He has made progress in his recovery and might play this week. 	511318	1471948792081	1471948792208	 	32
1024	10662	He has made progress in his recovery and might play this week.	He has made progress in his recovery and might play this week. 	511320	1471948792288	1471948792384	t	84
1024	10662	He has made progress in his recovery and might play this week.	He has made progress in his recovery and might play this week. 	511322	1471948792344	1471948792472	h	72
1024	10662	He has made progress in his recovery and might play this week.	He has made progress in his recovery and might play this week. 	511324	1471948792439	1471948792578	i	73
1024	10662	He has made progress in his recovery and might play this week.	He has made progress in his recovery and might play this week. 	511325	1471948792544	1471948792672	s	83
1024	10662	He has made progress in his recovery and might play this week.	He has made progress in his recovery and might play this week. 	511326	1471948792703	1471948792816	 	32
1024	10662	He has made progress in his recovery and might play this week.	He has made progress in his recovery and might play this week. 	511365	1471948792864	1471948792992	w	87
1024	10662	He has made progress in his recovery and might play this week.	He has made progress in his recovery and might play this week. 	511368	1471948793017	1471948793129	e	69
1024	10662	He has made progress in his recovery and might play this week.	He has made progress in his recovery and might play this week. 	511371	1471948793249	1471948793353	e	69
1024	10662	He has made progress in his recovery and might play this week.	He has made progress in his recovery and might play this week. 	511376	1471948793473	1471948793545	k	75
1024	10662	He has made progress in his recovery and might play this week.	He has made progress in his recovery and might play this week. 	511380	1471948793714	1471948793800	.	190
1024	10662	He has made progress in his recovery and might play this week.	He has made progress in his recovery and might play this week. 	511390	1471948794009	1471948794080	 	32
1024	10684	Give it some time.	Give it some time.	511536	1471948795824	1471948796096	SHIFT	16
1024	10684	Give it some time.	Give it some time.	511540	1471948796040	1471948796176	G	71
1024	10684	Give it some time.	Give it some time.	511545	1471948796290	1471948796384	i	73
1024	10684	Give it some time.	Give it some time.	511548	1471948796721	1471948796809	e	69
1024	10684	Give it some time.	Give it some time.	511550	1471948797232	1471948797314	BKSP	8
1024	10684	Give it some time.	Give it some time.	511552	1471948797314	1471948797416	v	86
1024	10684	Give it some time.	Give it some time.	511553	1471948797496	1471948797607	e	69
1024	10684	Give it some time.	Give it some time.	511558	1471948797624	1471948797744	 	32
1024	10684	Give it some time.	Give it some time.	511560	1471948797769	1471948797880	i	73
1024	10684	Give it some time.	Give it some time.	511568	1471948797881	1471948798000	t	84
1024	10684	Give it some time.	Give it some time.	511571	1471948798016	1471948798111	 	32
1024	10684	Give it some time.	Give it some time.	511576	1471948798151	1471948798272	s	83
1024	10684	Give it some time.	Give it some time.	511604	1471948798275	1471948798336	o	79
1024	10684	Give it some time.	Give it some time.	511608	1471948798306	1471948798416	m	77
1024	10684	Give it some time.	Give it some time.	511611	1471948798440	1471948798552	e	69
1024	10684	Give it some time.	Give it some time.	511613	1471948798607	1471948798728	 	32
1024	10684	Give it some time.	Give it some time.	511616	1471948798800	1471948798904	t	84
1024	10684	Give it some time.	Give it some time.	511647	1471948798880	1471948799016	i	73
1024	10684	Give it some time.	Give it some time.	511652	1471948798960	1471948799088	m	77
1024	10684	Give it some time.	Give it some time.	511655	1471948799089	1471948799159	e	69
1024	10684	Give it some time.	Give it some time.	511659	1471948799359	1471948799472	.	190
1024	10688	We will be managing our rates and we need to plan on software.	We will be managing our rates and we need to plan on software.	511799	1471948801399	1471948802035	SHIFT	16
1024	10688	We will be managing our rates and we need to plan on software.	We will be managing our rates and we need to plan on software.	511801	1471948801652	1471948802042	W	87
1024	10688	We will be managing our rates and we need to plan on software.	We will be managing our rates and we need to plan on software.	511803	1471948802035	1471948802042	e	69
1024	10688	We will be managing our rates and we need to plan on software.	We will be managing our rates and we need to plan on software.	511805	1471948802070	1471948802176	 	32
1024	10688	We will be managing our rates and we need to plan on software.	We will be managing our rates and we need to plan on software.	511808	1471948802682	1471948802793	w	87
1024	10688	We will be managing our rates and we need to plan on software.	We will be managing our rates and we need to plan on software.	511852	1471948802732	1471948802877	i	73
1024	10688	We will be managing our rates and we need to plan on software.	We will be managing our rates and we need to plan on software.	511855	1471948802934	1471948803019	l	76
1024	10688	We will be managing our rates and we need to plan on software.	We will be managing our rates and we need to plan on software.	511857	1471948803170	1471948803328	l	76
1024	10688	We will be managing our rates and we need to plan on software.	We will be managing our rates and we need to plan on software.	511859	1471948803278	1471948803403	 	32
1024	10688	We will be managing our rates and we need to plan on software.	We will be managing our rates and we need to plan on software.	511861	1471948803444	1471948803527	b	66
1024	10688	We will be managing our rates and we need to plan on software.	We will be managing our rates and we need to plan on software.	511863	1471948803672	1471948803783	e	69
1024	10688	We will be managing our rates and we need to plan on software.	We will be managing our rates and we need to plan on software.	511908	1471948803873	1471948803960	 	32
1024	10688	We will be managing our rates and we need to plan on software.	We will be managing our rates and we need to plan on software.	511912	1471948804048	1471948804167	m	77
1024	10688	We will be managing our rates and we need to plan on software.	We will be managing our rates and we need to plan on software.	511918	1471948804199	1471948804295	a	65
1024	10688	We will be managing our rates and we need to plan on software.	We will be managing our rates and we need to plan on software.	511922	1471948804344	1471948804455	n	78
1024	10688	We will be managing our rates and we need to plan on software.	We will be managing our rates and we need to plan on software.	511927	1471948804488	1471948804682	a	65
1024	10688	We will be managing our rates and we need to plan on software.	We will be managing our rates and we need to plan on software.	511999	1471948804647	1471948804800	g	71
1024	10688	We will be managing our rates and we need to plan on software.	We will be managing our rates and we need to plan on software.	512001	1471948804943	1471948804975	e	69
1024	10688	We will be managing our rates and we need to plan on software.	We will be managing our rates and we need to plan on software.	512005	1471948805376	1471948805455	BKSP	8
1024	10688	We will be managing our rates and we need to plan on software.	We will be managing our rates and we need to plan on software.	512010	1471948805615	1471948805703	i	73
1024	10688	We will be managing our rates and we need to plan on software.	We will be managing our rates and we need to plan on software.	512016	1471948805848	1471948805888	n	78
1024	10688	We will be managing our rates and we need to plan on software.	We will be managing our rates and we need to plan on software.	512019	1471948805888	1471948806008	g	71
1024	10688	We will be managing our rates and we need to plan on software.	We will be managing our rates and we need to plan on software.	512025	1471948806008	1471948806111	 	32
1024	10688	We will be managing our rates and we need to plan on software.	We will be managing our rates and we need to plan on software.	512045	1471948806144	1471948806296	o	79
1024	10688	We will be managing our rates and we need to plan on software.	We will be managing our rates and we need to plan on software.	512046	1471948806263	1471948806327	u	85
1024	10688	We will be managing our rates and we need to plan on software.	We will be managing our rates and we need to plan on software.	512047	1471948806335	1471948806447	r	82
1024	10688	We will be managing our rates and we need to plan on software.	We will be managing our rates and we need to plan on software.	512049	1471948806487	1471948806601	 	32
1024	10688	We will be managing our rates and we need to plan on software.	We will be managing our rates and we need to plan on software.	512051	1471948806672	1471948806801	r	82
1024	10688	We will be managing our rates and we need to plan on software.	We will be managing our rates and we need to plan on software.	512088	1471948806895	1471948807088	a	65
1024	10688	We will be managing our rates and we need to plan on software.	We will be managing our rates and we need to plan on software.	512089	1471948807071	1471948807199	t	84
1024	10688	We will be managing our rates and we need to plan on software.	We will be managing our rates and we need to plan on software.	512090	1471948807295	1471948807367	e	69
1024	10688	We will be managing our rates and we need to plan on software.	We will be managing our rates and we need to plan on software.	512091	1471948807495	1471948807614	s	83
1024	10688	We will be managing our rates and we need to plan on software.	We will be managing our rates and we need to plan on software.	512092	1471948807654	1471948807751	 	32
1024	10688	We will be managing our rates and we need to plan on software.	We will be managing our rates and we need to plan on software.	512115	1471948807791	1471948807943	a	65
1024	10688	We will be managing our rates and we need to plan on software.	We will be managing our rates and we need to plan on software.	512117	1471948807919	1471948807982	n	78
1024	10688	We will be managing our rates and we need to plan on software.	We will be managing our rates and we need to plan on software.	512121	1471948808031	1471948808160	d	68
1024	10688	We will be managing our rates and we need to plan on software.	We will be managing our rates and we need to plan on software.	512122	1471948808160	1471948808238	 	32
1024	10688	We will be managing our rates and we need to plan on software.	We will be managing our rates and we need to plan on software.	512123	1471948808495	1471948808671	w	87
1024	10688	We will be managing our rates and we need to plan on software.	We will be managing our rates and we need to plan on software.	512156	1471948808694	1471948808854	e	69
1024	10688	We will be managing our rates and we need to plan on software.	We will be managing our rates and we need to plan on software.	512158	1471948808894	1471948808959	 	32
1024	10688	We will be managing our rates and we need to plan on software.	We will be managing our rates and we need to plan on software.	512160	1471948809047	1471948809176	n	78
1024	10688	We will be managing our rates and we need to plan on software.	We will be managing our rates and we need to plan on software.	512163	1471948809176	1471948809239	e	69
1024	10688	We will be managing our rates and we need to plan on software.	We will be managing our rates and we need to plan on software.	512167	1471948809351	1471948809423	e	69
1024	10688	We will be managing our rates and we need to plan on software.	We will be managing our rates and we need to plan on software.	512196	1471948809606	1471948809719	d	68
1024	10688	We will be managing our rates and we need to plan on software.	We will be managing our rates and we need to plan on software.	512198	1471948809751	1471948809847	 	32
1024	10688	We will be managing our rates and we need to plan on software.	We will be managing our rates and we need to plan on software.	512199	1471948809950	1471948810078	t	84
1024	10688	We will be managing our rates and we need to plan on software.	We will be managing our rates and we need to plan on software.	512204	1471948810022	1471948810127	o	79
1024	10688	We will be managing our rates and we need to plan on software.	We will be managing our rates and we need to plan on software.	512210	1471948810127	1471948810263	 	32
1024	10688	We will be managing our rates and we need to plan on software.	We will be managing our rates and we need to plan on software.	512270	1471948810374	1471948810494	p	80
1024	10688	We will be managing our rates and we need to plan on software.	We will be managing our rates and we need to plan on software.	512275	1471948810583	1471948810694	l	76
1024	10688	We will be managing our rates and we need to plan on software.	We will be managing our rates and we need to plan on software.	512281	1471948810710	1471948810878	a	65
1024	10688	We will be managing our rates and we need to plan on software.	We will be managing our rates and we need to plan on software.	512283	1471948810902	1471948811095	n	78
1024	10688	We will be managing our rates and we need to plan on software.	We will be managing our rates and we need to plan on software.	512286	1471948811096	1471948811230	 	32
1024	10688	We will be managing our rates and we need to plan on software.	We will be managing our rates and we need to plan on software.	512334	1471948811327	1471948811534	o	79
1024	10688	We will be managing our rates and we need to plan on software.	We will be managing our rates and we need to plan on software.	512335	1471948811454	1471948811614	n	78
1024	10688	We will be managing our rates and we need to plan on software.	We will be managing our rates and we need to plan on software.	512338	1471948811535	1471948811678	 	32
1024	10688	We will be managing our rates and we need to plan on software.	We will be managing our rates and we need to plan on software.	512342	1471948811998	1471948812087	s	83
1024	10688	We will be managing our rates and we need to plan on software.	We will be managing our rates and we need to plan on software.	512348	1471948812150	1471948812246	o	79
1024	10688	We will be managing our rates and we need to plan on software.	We will be managing our rates and we need to plan on software.	512399	1471948812367	1471948812486	f	70
1024	10688	We will be managing our rates and we need to plan on software.	We will be managing our rates and we need to plan on software.	512402	1471948812606	1471948812718	t	84
1024	10688	We will be managing our rates and we need to plan on software.	We will be managing our rates and we need to plan on software.	512404	1471948812862	1471948812934	w	87
1024	10688	We will be managing our rates and we need to plan on software.	We will be managing our rates and we need to plan on software.	512406	1471948813078	1471948813246	a	65
1024	10688	We will be managing our rates and we need to plan on software.	We will be managing our rates and we need to plan on software.	512408	1471948813286	1471948813407	r	82
1024	10688	We will be managing our rates and we need to plan on software.	We will be managing our rates and we need to plan on software.	512431	1471948813726	1471948813821	e	69
1024	10688	We will be managing our rates and we need to plan on software.	We will be managing our rates and we need to plan on software.	512436	1471948814070	1471948814199	.	190
1024	10704	Wang said that his release was a miracle.	Wang said that his release was a miracle.	512594	1471948816534	1471948816886	SHIFT	16
1024	10704	Wang said that his release was a miracle.	Wang said that his release was a miracle.	512596	1471948816806	1471948816965	W	87
1024	10704	Wang said that his release was a miracle.	Wang said that his release was a miracle.	512599	1471948817077	1471948817238	a	65
1024	10704	Wang said that his release was a miracle.	Wang said that his release was a miracle.	512601	1471948817238	1471948817325	n	78
1024	10704	Wang said that his release was a miracle.	Wang said that his release was a miracle.	512610	1471948817397	1471948817478	g	71
1024	10704	Wang said that his release was a miracle.	Wang said that his release was a miracle.	512616	1471948817550	1471948817661	 	32
1024	10704	Wang said that his release was a miracle.	Wang said that his release was a miracle.	512698	1471948817694	1471948817798	s	83
1024	10704	Wang said that his release was a miracle.	Wang said that his release was a miracle.	512700	1471948817886	1471948818021	i	73
1024	10704	Wang said that his release was a miracle.	Wang said that his release was a miracle.	512702	1471948817959	1471948818126	a	65
1024	10704	Wang said that his release was a miracle.	Wang said that his release was a miracle.	512706	1471948818582	1471948818654	BKSP	8
1024	10704	Wang said that his release was a miracle.	Wang said that his release was a miracle.	512712	1471948818799	1471948818814	BKSP	8
1024	10704	Wang said that his release was a miracle.	Wang said that his release was a miracle.	512718	1471948819335	1471948819486	a	65
1024	10704	Wang said that his release was a miracle.	Wang said that his release was a miracle.	512723	1471948819510	1471948819599	i	73
1024	10704	Wang said that his release was a miracle.	Wang said that his release was a miracle.	512753	1471948820038	1471948820167	d	68
1024	10704	Wang said that his release was a miracle.	Wang said that his release was a miracle.	512755	1471948820246	1471948820326	 	32
1024	10704	Wang said that his release was a miracle.	Wang said that his release was a miracle.	512757	1471948820383	1471948820510	t	84
1024	10704	Wang said that his release was a miracle.	Wang said that his release was a miracle.	512759	1471948820462	1471948820566	h	72
1024	10704	Wang said that his release was a miracle.	Wang said that his release was a miracle.	512761	1471948820605	1471948820773	a	65
1024	10704	Wang said that his release was a miracle.	Wang said that his release was a miracle.	512788	1471948820686	1471948820818	t	84
1024	10704	Wang said that his release was a miracle.	Wang said that his release was a miracle.	512791	1471948820790	1471948820894	 	32
1024	10704	Wang said that his release was a miracle.	Wang said that his release was a miracle.	512794	1471948820949	1471948821070	h	72
1024	10704	Wang said that his release was a miracle.	Wang said that his release was a miracle.	512799	1471948821070	1471948821190	i	73
1024	10704	Wang said that his release was a miracle.	Wang said that his release was a miracle.	512803	1471948821143	1471948821254	s	83
1024	10704	Wang said that his release was a miracle.	Wang said that his release was a miracle.	512807	1471948821294	1471948821422	 	32
1024	10704	Wang said that his release was a miracle.	Wang said that his release was a miracle.	512847	1471948821550	1471948821694	r	82
1024	10704	Wang said that his release was a miracle.	Wang said that his release was a miracle.	512848	1471948821694	1471948821830	e	69
1024	10704	Wang said that his release was a miracle.	Wang said that his release was a miracle.	512849	1471948821870	1471948822022	l	76
1024	10704	Wang said that his release was a miracle.	Wang said that his release was a miracle.	512850	1471948822023	1471948822134	e	69
1024	10704	Wang said that his release was a miracle.	Wang said that his release was a miracle.	512851	1471948822182	1471948822414	a	65
1024	10704	Wang said that his release was a miracle.	Wang said that his release was a miracle.	512895	1471948822374	1471948822590	s	83
1024	10704	Wang said that his release was a miracle.	Wang said that his release was a miracle.	512896	1471948822542	1471948822687	e	69
1024	10704	Wang said that his release was a miracle.	Wang said that his release was a miracle.	512898	1471948822798	1471948822878	 	32
1024	10704	Wang said that his release was a miracle.	Wang said that his release was a miracle.	512900	1471948823078	1471948823214	w	87
1024	10704	Wang said that his release was a miracle.	Wang said that his release was a miracle.	512902	1471948823310	1471948823518	a	65
1024	10704	Wang said that his release was a miracle.	Wang said that his release was a miracle.	512904	1471948823541	1471948823710	s	83
1024	10704	Wang said that his release was a miracle.	Wang said that his release was a miracle.	512928	1471948823726	1471948823838	 	32
1024	10704	Wang said that his release was a miracle.	Wang said that his release was a miracle.	512930	1471948823942	1471948824109	a	65
1024	10704	Wang said that his release was a miracle.	Wang said that his release was a miracle.	512932	1471948824054	1471948824222	 	32
1024	10704	Wang said that his release was a miracle.	Wang said that his release was a miracle.	512935	1471948824431	1471948824559	m	77
1024	10704	Wang said that his release was a miracle.	Wang said that his release was a miracle.	512938	1471948824560	1471948824645	i	73
1024	10704	Wang said that his release was a miracle.	Wang said that his release was a miracle.	512963	1471948824751	1471948824886	r	82
1024	10704	Wang said that his release was a miracle.	Wang said that his release was a miracle.	512967	1471948825263	1471948825374	a	65
1024	10704	Wang said that his release was a miracle.	Wang said that his release was a miracle.	512969	1471948825526	1471948825646	c	67
1024	10704	Wang said that his release was a miracle.	Wang said that his release was a miracle.	512971	1471948825733	1471948825813	l	76
1024	10704	Wang said that his release was a miracle.	Wang said that his release was a miracle.	512975	1471948825886	1471948825966	e	69
1024	10704	Wang said that his release was a miracle.	Wang said that his release was a miracle.	512990	1471948826046	1471948826159	.	190
1024	10715	I am monitoring email.	I am monitoring email. 	513483	1471948838102	1471948838374	SHIFT	16
1024	10715	I am monitoring email.	I am monitoring email. 	513484	1471948838237	1471948838406	I	73
1024	10715	I am monitoring email.	I am monitoring email. 	513485	1471948838375	1471948838511	 	32
1024	10715	I am monitoring email.	I am monitoring email. 	513487	1471948838511	1471948838646	a	65
1024	10715	I am monitoring email.	I am monitoring email. 	513489	1471948838583	1471948838742	m	77
1024	10715	I am monitoring email.	I am monitoring email. 	513533	1471948838702	1471948838830	 	32
1024	10715	I am monitoring email.	I am monitoring email. 	513534	1471948838991	1471948839109	m	77
1024	10715	I am monitoring email.	I am monitoring email. 	513537	1471948839135	1471948839277	o	79
1024	10715	I am monitoring email.	I am monitoring email. 	513541	1471948839254	1471948839390	n	78
1024	10715	I am monitoring email.	I am monitoring email. 	513545	1471948839413	1471948839573	i	73
1024	10715	I am monitoring email.	I am monitoring email. 	513549	1471948839605	1471948839693	t	84
1024	10715	I am monitoring email.	I am monitoring email. 	513571	1471948839773	1471948839863	o	79
1024	10715	I am monitoring email.	I am monitoring email. 	513575	1471948839863	1471948840007	r	82
1024	10715	I am monitoring email.	I am monitoring email. 	513577	1471948840008	1471948840118	i	73
1024	10715	I am monitoring email.	I am monitoring email. 	513579	1471948840134	1471948840261	n	78
1024	10715	I am monitoring email.	I am monitoring email. 	513601	1471948840237	1471948840342	g	71
1024	10715	I am monitoring email.	I am monitoring email. 	513603	1471948840342	1471948840430	 	32
1024	10715	I am monitoring email.	I am monitoring email. 	513605	1471948840552	1471948840662	e	69
1024	10715	I am monitoring email.	I am monitoring email. 	513607	1471948840687	1471948840789	m	77
1024	10715	I am monitoring email.	I am monitoring email. 	513609	1471948840837	1471948841014	a	65
1024	10715	I am monitoring email.	I am monitoring email. 	513633	1471948840941	1471948841030	i	73
1024	10715	I am monitoring email.	I am monitoring email. 	513634	1471948841102	1471948841198	l	76
1024	10715	I am monitoring email.	I am monitoring email. 	513636	1471948841317	1471948841462	.	190
1024	10715	I am monitoring email.	I am monitoring email. 	513638	1471948841438	1471948841550	 	32
1024	10726	he Fed will continue to have oversight over 38 US banks.	he Fed will continue to have oversight over 38 US banks.	513807	1471948844166	1471948844238	h	72
1024	10726	he Fed will continue to have oversight over 38 US banks.	he Fed will continue to have oversight over 38 US banks.	513812	1471948844286	1471948844390	e	69
1024	10726	he Fed will continue to have oversight over 38 US banks.	he Fed will continue to have oversight over 38 US banks.	513814	1471948844438	1471948844542	 	32
1024	10726	he Fed will continue to have oversight over 38 US banks.	he Fed will continue to have oversight over 38 US banks.	513817	1471948844582	1471948844766	SHIFT	16
1024	10726	he Fed will continue to have oversight over 38 US banks.	he Fed will continue to have oversight over 38 US banks.	513820	1471948844693	1471948844830	F	70
1024	10726	he Fed will continue to have oversight over 38 US banks.	he Fed will continue to have oversight over 38 US banks.	513823	1471948844901	1471948845015	e	69
1024	10726	he Fed will continue to have oversight over 38 US banks.	he Fed will continue to have oversight over 38 US banks.	513840	1471948845182	1471948845310	d	68
1024	10726	he Fed will continue to have oversight over 38 US banks.	he Fed will continue to have oversight over 38 US banks.	513844	1471948845374	1471948845462	 	32
1024	10726	he Fed will continue to have oversight over 38 US banks.	he Fed will continue to have oversight over 38 US banks.	513849	1471948845518	1471948845622	w	87
1024	10726	he Fed will continue to have oversight over 38 US banks.	he Fed will continue to have oversight over 38 US banks.	513855	1471948845590	1471948845679	i	73
1024	10726	he Fed will continue to have oversight over 38 US banks.	he Fed will continue to have oversight over 38 US banks.	513857	1471948845759	1471948845821	l	76
1024	10726	he Fed will continue to have oversight over 38 US banks.	he Fed will continue to have oversight over 38 US banks.	513880	1471948845926	1471948846094	l	76
1024	10726	he Fed will continue to have oversight over 38 US banks.	he Fed will continue to have oversight over 38 US banks.	513882	1471948846021	1471948846142	 	32
1024	10726	he Fed will continue to have oversight over 38 US banks.	he Fed will continue to have oversight over 38 US banks.	513884	1471948846454	1471948846604	c	67
1024	10726	he Fed will continue to have oversight over 38 US banks.	he Fed will continue to have oversight over 38 US banks.	513885	1471948846605	1471948846715	o	79
1024	10726	he Fed will continue to have oversight over 38 US banks.	he Fed will continue to have oversight over 38 US banks.	513906	1471948846678	1471948846781	n	78
1024	10726	he Fed will continue to have oversight over 38 US banks.	he Fed will continue to have oversight over 38 US banks.	513909	1471948846910	1471948847030	t	84
1024	10726	he Fed will continue to have oversight over 38 US banks.	he Fed will continue to have oversight over 38 US banks.	513911	1471948847030	1471948847126	i	73
1024	10726	he Fed will continue to have oversight over 38 US banks.	he Fed will continue to have oversight over 38 US banks.	513914	1471948847189	1471948847278	n	78
1024	10726	he Fed will continue to have oversight over 38 US banks.	he Fed will continue to have oversight over 38 US banks.	513919	1471948847478	1471948847573	u	85
1024	10726	he Fed will continue to have oversight over 38 US banks.	he Fed will continue to have oversight over 38 US banks.	513923	1471948847632	1471948847726	e	69
1024	10726	he Fed will continue to have oversight over 38 US banks.	he Fed will continue to have oversight over 38 US banks.	513938	1471948847759	1471948847838	 	32
1024	10726	he Fed will continue to have oversight over 38 US banks.	he Fed will continue to have oversight over 38 US banks.	513940	1471948847869	1471948847981	t	84
1024	10726	he Fed will continue to have oversight over 38 US banks.	he Fed will continue to have oversight over 38 US banks.	513941	1471948847926	1471948848045	o	79
1024	10726	he Fed will continue to have oversight over 38 US banks.	he Fed will continue to have oversight over 38 US banks.	513942	1471948848021	1471948848166	 	32
1024	10726	he Fed will continue to have oversight over 38 US banks.	he Fed will continue to have oversight over 38 US banks.	513945	1471948848166	1471948848262	h	72
1024	10726	he Fed will continue to have oversight over 38 US banks.	he Fed will continue to have oversight over 38 US banks.	513960	1471948848265	1471948848397	a	65
1024	10726	he Fed will continue to have oversight over 38 US banks.	he Fed will continue to have oversight over 38 US banks.	513964	1471948848350	1471948848421	v	86
1024	10726	he Fed will continue to have oversight over 38 US banks.	he Fed will continue to have oversight over 38 US banks.	513969	1471948848485	1471948848605	e	69
1024	10726	he Fed will continue to have oversight over 38 US banks.	he Fed will continue to have oversight over 38 US banks.	513973	1471948848565	1471948848678	 	32
1024	10726	he Fed will continue to have oversight over 38 US banks.	he Fed will continue to have oversight over 38 US banks.	513975	1471948848720	1471948848830	o	79
1024	10726	he Fed will continue to have oversight over 38 US banks.	he Fed will continue to have oversight over 38 US banks.	513983	1471948848878	1471948848949	v	86
1024	10726	he Fed will continue to have oversight over 38 US banks.	he Fed will continue to have oversight over 38 US banks.	513985	1471948849021	1471948849166	e	69
1024	10726	he Fed will continue to have oversight over 38 US banks.	he Fed will continue to have oversight over 38 US banks.	513987	1471948849118	1471948849230	r	82
1024	10726	he Fed will continue to have oversight over 38 US banks.	he Fed will continue to have oversight over 38 US banks.	513989	1471948849341	1471948849462	s	83
1024	10726	he Fed will continue to have oversight over 38 US banks.	he Fed will continue to have oversight over 38 US banks.	513991	1471948849462	1471948849541	i	73
1024	10726	he Fed will continue to have oversight over 38 US banks.	he Fed will continue to have oversight over 38 US banks.	514020	1471948849605	1471948849693	g	71
1024	10726	he Fed will continue to have oversight over 38 US banks.	he Fed will continue to have oversight over 38 US banks.	514024	1471948849701	1471948849806	h	72
1024	10726	he Fed will continue to have oversight over 38 US banks.	he Fed will continue to have oversight over 38 US banks.	514027	1471948849806	1471948849901	t	84
1024	10726	he Fed will continue to have oversight over 38 US banks.	he Fed will continue to have oversight over 38 US banks.	514031	1471948849957	1471948850029	 	32
1024	10726	he Fed will continue to have oversight over 38 US banks.	he Fed will continue to have oversight over 38 US banks.	514034	1471948850102	1471948850222	o	79
1024	10726	he Fed will continue to have oversight over 38 US banks.	he Fed will continue to have oversight over 38 US banks.	514078	1471948850225	1471948850310	v	86
1024	10726	he Fed will continue to have oversight over 38 US banks.	he Fed will continue to have oversight over 38 US banks.	514079	1471948850373	1471948850525	e	69
1024	10726	he Fed will continue to have oversight over 38 US banks.	he Fed will continue to have oversight over 38 US banks.	514080	1471948850470	1471948850598	r	82
1024	10726	he Fed will continue to have oversight over 38 US banks.	he Fed will continue to have oversight over 38 US banks.	514081	1471948850573	1471948850714	 	32
1024	10726	he Fed will continue to have oversight over 38 US banks.	he Fed will continue to have oversight over 38 US banks.	514180	1471948851701	1471948851798	4	51
1024	10726	he Fed will continue to have oversight over 38 US banks.	he Fed will continue to have oversight over 38 US banks.	514182	1471948851981	1471948852077	8	56
1024	10726	he Fed will continue to have oversight over 38 US banks.	he Fed will continue to have oversight over 38 US banks.	514185	1471948852117	1471948852205	 	32
1024	10726	he Fed will continue to have oversight over 38 US banks.	he Fed will continue to have oversight over 38 US banks.	514188	1471948852766	1471948852837	BKSP	8
1024	10726	he Fed will continue to have oversight over 38 US banks.	he Fed will continue to have oversight over 38 US banks.	514191	1471948852941	1471948853029	BKSP	8
1024	10726	he Fed will continue to have oversight over 38 US banks.	he Fed will continue to have oversight over 38 US banks.	514194	1471948853598	1471948853677	BKSP	8
1024	10726	he Fed will continue to have oversight over 38 US banks.	he Fed will continue to have oversight over 38 US banks.	514197	1471948853900	1471948853980	8	56
1024	10726	he Fed will continue to have oversight over 38 US banks.	he Fed will continue to have oversight over 38 US banks.	514200	1471948854076	1471948854173	 	32
1024	10726	he Fed will continue to have oversight over 38 US banks.	he Fed will continue to have oversight over 38 US banks.	514255	1471948854373	1471948855021	SHIFT	16
1024	10726	he Fed will continue to have oversight over 38 US banks.	he Fed will continue to have oversight over 38 US banks.	514205	1471948854509	1471948854605	U	85
1024	10726	he Fed will continue to have oversight over 38 US banks.	he Fed will continue to have oversight over 38 US banks.	514256	1471948854909	1471948855108	S	83
1024	10726	he Fed will continue to have oversight over 38 US banks.	he Fed will continue to have oversight over 38 US banks.	514257	1471948855333	1471948855445	 	32
1024	10726	he Fed will continue to have oversight over 38 US banks.	he Fed will continue to have oversight over 38 US banks.	514258	1471948855629	1471948855726	b	66
1024	10726	he Fed will continue to have oversight over 38 US banks.	he Fed will continue to have oversight over 38 US banks.	514259	1471948855765	1471948855908	a	65
1024	10726	he Fed will continue to have oversight over 38 US banks.	he Fed will continue to have oversight over 38 US banks.	514270	1471948855869	1471948855957	n	78
1024	10726	he Fed will continue to have oversight over 38 US banks.	he Fed will continue to have oversight over 38 US banks.	514272	1471948855980	1471948856077	k	75
1024	10726	he Fed will continue to have oversight over 38 US banks.	he Fed will continue to have oversight over 38 US banks.	514274	1471948856141	1471948856246	s	83
1024	10726	he Fed will continue to have oversight over 38 US banks.	he Fed will continue to have oversight over 38 US banks.	514281	1471948856246	1471948856373	.	190
1024	10736	The meteor shower was incredible last night.	The meteor shower was incredible last night.	514389	1471948858412	1471948858652	SHIFT	16
1024	10736	The meteor shower was incredible last night.	The meteor shower was incredible last night.	514394	1471948858598	1471948858717	T	84
1024	10736	The meteor shower was incredible last night.	The meteor shower was incredible last night.	514397	1471948858732	1471948858821	h	72
1024	10736	The meteor shower was incredible last night.	The meteor shower was incredible last night.	514399	1471948858860	1471948858948	e	69
1024	10736	The meteor shower was incredible last night.	The meteor shower was incredible last night.	514401	1471948859004	1471948859116	 	32
1024	10736	The meteor shower was incredible last night.	The meteor shower was incredible last night.	514403	1471948859148	1471948859288	m	77
1024	10736	The meteor shower was incredible last night.	The meteor shower was incredible last night.	514432	1471948859276	1471948859349	e	69
1024	10736	The meteor shower was incredible last night.	The meteor shower was incredible last night.	514435	1471948859517	1471948859549	t	84
1024	10736	The meteor shower was incredible last night.	The meteor shower was incredible last night.	514438	1471948859973	1471948860068	e	69
1024	10736	The meteor shower was incredible last night.	The meteor shower was incredible last night.	514441	1471948860164	1471948860261	o	79
1024	10736	The meteor shower was incredible last night.	The meteor shower was incredible last night.	514444	1471948860356	1471948860460	r	82
1024	10736	The meteor shower was incredible last night.	The meteor shower was incredible last night.	514449	1471948860533	1471948860636	 	32
1024	10736	The meteor shower was incredible last night.	The meteor shower was incredible last night.	514458	1471948860718	1471948860821	s	83
1024	10736	The meteor shower was incredible last night.	The meteor shower was incredible last night.	514461	1471948860821	1471948860909	h	72
1024	10736	The meteor shower was incredible last night.	The meteor shower was incredible last night.	514464	1471948860916	1471948861044	o	79
1024	10736	The meteor shower was incredible last night.	The meteor shower was incredible last night.	514466	1471948861021	1471948861221	w	87
1024	10736	The meteor shower was incredible last night.	The meteor shower was incredible last night.	514492	1471948861125	1471948861284	e	69
1024	10736	The meteor shower was incredible last night.	The meteor shower was incredible last night.	514495	1471948861223	1471948861372	r	82
1024	10736	The meteor shower was incredible last night.	The meteor shower was incredible last night.	514499	1471948861340	1471948861444	 	32
1024	10736	The meteor shower was incredible last night.	The meteor shower was incredible last night.	514503	1471948861541	1471948861637	w	87
1024	10736	The meteor shower was incredible last night.	The meteor shower was incredible last night.	514506	1471948861732	1471948861884	a	65
1024	10736	The meteor shower was incredible last night.	The meteor shower was incredible last night.	514519	1471948861860	1471948862028	s	83
1024	10736	The meteor shower was incredible last night.	The meteor shower was incredible last night.	514522	1471948861908	1471948862029	 	32
1024	10736	The meteor shower was incredible last night.	The meteor shower was incredible last night.	514526	1471948862043	1471948862148	i	73
1024	10736	The meteor shower was incredible last night.	The meteor shower was incredible last night.	514533	1471948862244	1471948862340	n	78
1024	10736	The meteor shower was incredible last night.	The meteor shower was incredible last night.	514538	1471948862420	1471948862509	c	67
1024	10736	The meteor shower was incredible last night.	The meteor shower was incredible last night.	514542	1471948862669	1471948862749	r	82
1024	10736	The meteor shower was incredible last night.	The meteor shower was incredible last night.	514570	1471948862837	1471948862917	e	69
1024	10736	The meteor shower was incredible last night.	The meteor shower was incredible last night.	514572	1471948863068	1471948863180	d	68
1024	10736	The meteor shower was incredible last night.	The meteor shower was incredible last night.	514574	1471948863275	1471948863341	i	73
1024	10736	The meteor shower was incredible last night.	The meteor shower was incredible last night.	514577	1471948863421	1471948863492	b	66
1024	10736	The meteor shower was incredible last night.	The meteor shower was incredible last night.	514578	1471948863540	1471948863637	l	76
1024	10736	The meteor shower was incredible last night.	The meteor shower was incredible last night.	514588	1471948863639	1471948863731	e	69
1024	10736	The meteor shower was incredible last night.	The meteor shower was incredible last night.	514592	1471948863772	1471948863860	 	32
1024	10736	The meteor shower was incredible last night.	The meteor shower was incredible last night.	514595	1471948863973	1471948864101	l	76
1024	10736	The meteor shower was incredible last night.	The meteor shower was incredible last night.	514597	1471948864028	1471948864181	a	65
1024	10736	The meteor shower was incredible last night.	The meteor shower was incredible last night.	514611	1471948864141	1471948864244	s	83
1024	10736	The meteor shower was incredible last night.	The meteor shower was incredible last night.	514613	1471948864340	1471948864437	t	84
1024	10736	The meteor shower was incredible last night.	The meteor shower was incredible last night.	514616	1471948864460	1471948864597	 	32
1024	10736	The meteor shower was incredible last night.	The meteor shower was incredible last night.	514621	1471948864597	1471948864677	n	78
1024	10736	The meteor shower was incredible last night.	The meteor shower was incredible last night.	514624	1471948864700	1471948864805	i	73
1024	10736	The meteor shower was incredible last night.	The meteor shower was incredible last night.	514629	1471948864805	1471948864877	g	71
1024	10736	The meteor shower was incredible last night.	The meteor shower was incredible last night.	514640	1471948864909	1471948864980	h	72
1024	10736	The meteor shower was incredible last night.	The meteor shower was incredible last night.	514641	1471948864996	1471948865068	t	84
1024	10736	The meteor shower was incredible last night.	The meteor shower was incredible last night.	514643	1471948865148	1471948865260	.	190
1024	10748	Please let me know if you need any additional information.	Please let me know if you need any additional information.	514728	1471948866939	1471948867228	SHIFT	16
1024	10748	Please let me know if you need any additional information.	Please let me know if you need any additional information.	514732	1471948867091	1471948867228	P	80
1024	10748	Please let me know if you need any additional information.	Please let me know if you need any additional information.	514735	1471948867299	1471948867443	l	76
1024	10748	Please let me know if you need any additional information.	Please let me know if you need any additional information.	514736	1471948867396	1471948867508	e	69
1024	10748	Please let me know if you need any additional information.	Please let me know if you need any additional information.	514738	1471948867515	1471948867772	a	65
1024	10748	Please let me know if you need any additional information.	Please let me know if you need any additional information.	514740	1471948867659	1471948867859	s	83
1024	10748	Please let me know if you need any additional information.	Please let me know if you need any additional information.	514741	1471948867774	1471948867898	e	69
1024	10748	Please let me know if you need any additional information.	Please let me know if you need any additional information.	514742	1471948867915	1471948867995	 	32
1024	10748	Please let me know if you need any additional information.	Please let me know if you need any additional information.	514743	1471948868051	1471948868195	l	76
1024	10748	Please let me know if you need any additional information.	Please let me know if you need any additional information.	514744	1471948868171	1471948868308	e	69
1024	10748	Please let me know if you need any additional information.	Please let me know if you need any additional information.	514775	1471948868276	1471948868411	t	84
1024	10748	Please let me know if you need any additional information.	Please let me know if you need any additional information.	514777	1471948868451	1471948868595	 	32
1024	10748	Please let me know if you need any additional information.	Please let me know if you need any additional information.	514779	1471948868572	1471948868675	m	77
1024	10748	Please let me know if you need any additional information.	Please let me know if you need any additional information.	514781	1471948868730	1471948868827	e	69
1024	10748	Please let me know if you need any additional information.	Please let me know if you need any additional information.	514784	1471948868828	1471948868939	 	32
1024	10748	Please let me know if you need any additional information.	Please let me know if you need any additional information.	514787	1471948869003	1471948869140	k	75
1024	10748	Please let me know if you need any additional information.	Please let me know if you need any additional information.	514808	1471948869101	1471948869244	n	78
1024	10748	Please let me know if you need any additional information.	Please let me know if you need any additional information.	514810	1471948869220	1471948869341	o	79
1024	10748	Please let me know if you need any additional information.	Please let me know if you need any additional information.	514812	1471948869316	1471948869428	w	87
1024	10748	Please let me know if you need any additional information.	Please let me know if you need any additional information.	514815	1471948869451	1471948869598	 	32
1024	10748	Please let me know if you need any additional information.	Please let me know if you need any additional information.	514818	1471948869564	1471948869668	i	73
1024	10748	Please let me know if you need any additional information.	Please let me know if you need any additional information.	514820	1471948869739	1471948869892	f	70
1024	10748	Please let me know if you need any additional information.	Please let me know if you need any additional information.	514850	1471948869860	1471948869988	 	32
1024	10748	Please let me know if you need any additional information.	Please let me know if you need any additional information.	514852	1471948870012	1471948870133	y	89
1024	10748	Please let me know if you need any additional information.	Please let me know if you need any additional information.	514854	1471948870133	1471948870309	o	79
1024	10748	Please let me know if you need any additional information.	Please let me know if you need any additional information.	514857	1471948870252	1471948870364	u	85
1024	10748	Please let me know if you need any additional information.	Please let me know if you need any additional information.	514859	1471948870309	1471948870468	 	32
1024	10748	Please let me know if you need any additional information.	Please let me know if you need any additional information.	514861	1471948870523	1471948870620	h	72
1024	10748	Please let me know if you need any additional information.	Please let me know if you need any additional information.	514890	1471948870676	1471948870708	e	69
1024	10748	Please let me know if you need any additional information.	Please let me know if you need any additional information.	514891	1471948871147	1471948871220	BKSP	8
1024	10748	Please let me know if you need any additional information.	Please let me know if you need any additional information.	514892	1471948871315	1471948871380	BKSP	8
1024	10748	Please let me know if you need any additional information.	Please let me know if you need any additional information.	514893	1471948871548	1471948871619	n	78
1024	10748	Please let me know if you need any additional information.	Please let me know if you need any additional information.	514894	1471948871636	1471948871724	e	69
1024	10748	Please let me know if you need any additional information.	Please let me know if you need any additional information.	514895	1471948871844	1471948871908	e	69
1024	10748	Please let me know if you need any additional information.	Please let me know if you need any additional information.	514896	1471948872044	1471948872132	d	68
1024	10748	Please let me know if you need any additional information.	Please let me know if you need any additional information.	514905	1471948872156	1471948872252	 	32
1024	10748	Please let me know if you need any additional information.	Please let me know if you need any additional information.	514912	1471948872300	1471948872459	a	65
1024	10748	Please let me know if you need any additional information.	Please let me know if you need any additional information.	514908	1471948872348	1471948872436	n	78
1024	10748	Please let me know if you need any additional information.	Please let me know if you need any additional information.	514917	1471948872563	1471948872686	y	89
1024	10748	Please let me know if you need any additional information.	Please let me know if you need any additional information.	514971	1471948872651	1471948872772	 	32
1024	10748	Please let me know if you need any additional information.	Please let me know if you need any additional information.	514972	1471948872852	1471948872980	a	65
1024	10748	Please let me know if you need any additional information.	Please let me know if you need any additional information.	514974	1471948873027	1471948873132	d	68
1024	10748	Please let me know if you need any additional information.	Please let me know if you need any additional information.	514979	1471948873235	1471948873382	d	68
1024	10748	Please let me know if you need any additional information.	Please let me know if you need any additional information.	514983	1471948873348	1471948873483	i	73
1024	10748	Please let me know if you need any additional information.	Please let me know if you need any additional information.	514985	1471948873563	1471948873699	t	84
1024	10748	Please let me know if you need any additional information.	Please let me know if you need any additional information.	515006	1471948873725	1471948873876	i	73
1024	10748	Please let me know if you need any additional information.	Please let me know if you need any additional information.	515010	1471948873836	1471948874012	o	79
1024	10748	Please let me know if you need any additional information.	Please let me know if you need any additional information.	515013	1471948873972	1471948874092	n	78
1024	10748	Please let me know if you need any additional information.	Please let me know if you need any additional information.	515014	1471948874147	1471948874323	a	65
1024	10748	Please let me know if you need any additional information.	Please let me know if you need any additional information.	515037	1471948874275	1471948874451	l	76
1024	10748	Please let me know if you need any additional information.	Please let me know if you need any additional information.	515042	1471948874396	1471948874508	 	32
1024	10748	Please let me know if you need any additional information.	Please let me know if you need any additional information.	515046	1471948874651	1471948874756	i	73
1024	10748	Please let me know if you need any additional information.	Please let me know if you need any additional information.	515051	1471948874852	1471948874915	n	78
1024	10748	Please let me know if you need any additional information.	Please let me know if you need any additional information.	515056	1471948874947	1471948875044	f	70
1024	10748	Please let me know if you need any additional information.	Please let me know if you need any additional information.	515061	1471948875044	1471948875155	o	79
1024	10748	Please let me know if you need any additional information.	Please let me know if you need any additional information.	515062	1471948875188	1471948875268	m	82
1024	10748	Please let me know if you need any additional information.	Please let me know if you need any additional information.	515064	1471948875339	1471948875476	a	65
1024	10748	Please let me know if you need any additional information.	Please let me know if you need any additional information.	515142	1471948875436	1471948875563	i	84
1024	10748	Please let me know if you need any additional information.	Please let me know if you need any additional information.	515144	1471948875564	1471948875707	n	78
1024	10748	Please let me know if you need any additional information.	Please let me know if you need any additional information.	515150	1471948875915	1471948876035	.	190
1024	10748	Please let me know if you need any additional information.	Please let me know if you need any additional information.	515156	1471948876363	1471948876427	BKSP	8
1024	10748	Please let me know if you need any additional information.	Please let me know if you need any additional information.	515163	1471948876523	1471948876604	BKSP	8
1024	10748	Please let me know if you need any additional information.	Please let me know if you need any additional information.	515167	1471948876716	1471948876779	BKSP	8
1024	10748	Please let me know if you need any additional information.	Please let me know if you need any additional information.	515172	1471948877379	1471948877491	i	73
1024	10748	Please let me know if you need any additional information.	Please let me know if you need any additional information.	515177	1471948877611	1471948877715	o	79
1024	10748	Please let me know if you need any additional information.	Please let me know if you need any additional information.	515179	1471948877786	1471948877867	n	78
1024	10748	Please let me know if you need any additional information.	Please let me know if you need any additional information.	515181	1471948878012	1471948878123	.	190
