PARTICIPANT_ID	TEST_SECTION_ID	SENTENCE	USER_INPUT	KEYSTROKE_ID	PRESS_TIME	RELEASE_TIME	LETTER	KEYCODE
1027	10601	Let me know if I can help.	Lwt me know if I can Help.	507515	1471948722864	1471948723217	SHIFT	16
1027	10601	Let me know if I can help.	Lwt me know if I can Help.	507519	1471948723129	1471948723358	L	76
1027	10601	Let me know if I can help.	Lwt me know if I can Help.	507524	1471948723373	1471948723560	w	87
1027	10601	Let me know if I can help.	Lwt me know if I can Help.	507528	1471948723654	1471948723780	r	82
1027	10601	Let me know if I can help.	Lwt me know if I can Help.	507530	1471948723858	1471948724030	 	32
1027	10601	Let me know if I can help.	Lwt me know if I can Help.	507536	1471948724733	1471948724831	BKSP	8
1027	10601	Let me know if I can help.	Lwt me know if I can Help.	507542	1471948724909	1471948725031	BKSP	8
1027	10601	Let me know if I can help.	Lwt me know if I can Help.	507552	1471948725296	1471948725430	t	84
1027	10601	Let me know if I can help.	Lwt me know if I can Help.	507609	1471948725539	1471948725648	 	32
1027	10601	Let me know if I can help.	Lwt me know if I can Help.	507614	1471948726370	1471948726483	m	77
1027	10601	Let me know if I can help.	Lwt me know if I can Help.	507618	1471948726498	1471948726672	e	69
1027	10601	Let me know if I can help.	Lwt me know if I can Help.	507625	1471948726631	1471948726718	 	32
1027	10601	Let me know if I can help.	Lwt me know if I can Help.	507630	1471948726796	1471948726883	k	75
1027	10601	Let me know if I can help.	Lwt me know if I can Help.	507669	1471948726932	1471948727017	n	78
1027	10601	Let me know if I can help.	Lwt me know if I can Help.	507678	1471948727095	1471948727224	o	79
1027	10601	Let me know if I can help.	Lwt me know if I can Help.	507682	1471948727271	1471948727432	w	87
1027	10601	Let me know if I can help.	Lwt me know if I can Help.	507686	1471948727447	1471948727519	 	32
1027	10601	Let me know if I can help.	Lwt me know if I can Help.	507690	1471948727659	1471948727797	i	73
1027	10601	Let me know if I can help.	Lwt me know if I can Help.	507744	1471948727828	1471948727964	f	70
1027	10601	Let me know if I can help.	Lwt me know if I can Help.	507751	1471948727964	1471948728052	 	32
1027	10601	Let me know if I can help.	Lwt me know if I can Help.	507757	1471948728192	1471948728469	SHIFT	16
1027	10601	Let me know if I can help.	Lwt me know if I can Help.	507762	1471948728395	1471948728531	I	73
1027	10601	Let me know if I can help.	Lwt me know if I can Help.	507767	1471948728687	1471948728800	 	32
1027	10601	Let me know if I can help.	Lwt me know if I can Help.	507810	1471948728784	1471948728925	c	67
1027	10601	Let me know if I can help.	Lwt me know if I can Help.	507813	1471948728883	1471948729071	a	65
1027	10601	Let me know if I can help.	Lwt me know if I can Help.	507816	1471948729029	1471948729117	n	78
1027	10601	Let me know if I can help.	Lwt me know if I can Help.	507818	1471948729291	1471948729353	 	32
1027	10601	Let me know if I can help.	Lwt me know if I can Help.	507820	1471948729571	1471948729786	SHIFT	16
1027	10601	Let me know if I can help.	Lwt me know if I can Help.	507823	1471948729727	1471948729870	H	72
1027	10601	Let me know if I can help.	Lwt me know if I can Help.	507888	1471948729833	1471948729981	e	69
1027	10601	Let me know if I can help.	Lwt me know if I can Help.	507890	1471948730059	1471948730150	l	76
1027	10601	Let me know if I can help.	Lwt me know if I can Help.	507892	1471948730291	1471948730398	p	80
1027	10601	Let me know if I can help.	Lwt me know if I can Help.	507895	1471948730632	1471948730719	.	190
1027	10613	These factors dictate clear limits to the concept of safe areas.	These factors dicarate cleat limits to the concept of sage areas	508070	1471948733388	1471948733668	SHIFT	16
1027	10613	These factors dictate clear limits to the concept of safe areas.	These factors dicarate cleat limits to the concept of sage areas	508074	1471948733591	1471948733731	T	84
1027	10613	These factors dictate clear limits to the concept of safe areas.	These factors dicarate cleat limits to the concept of sage areas	508080	1471948733793	1471948733920	h	72
1027	10613	These factors dictate clear limits to the concept of safe areas.	These factors dicarate cleat limits to the concept of sage areas	508086	1471948733883	1471948733983	e	69
1027	10613	These factors dictate clear limits to the concept of safe areas.	These factors dicarate cleat limits to the concept of sage areas	508093	1471948734076	1471948734220	s	83
1027	10613	These factors dictate clear limits to the concept of safe areas.	These factors dicarate cleat limits to the concept of sage areas	508174	1471948734183	1471948734316	e	69
1027	10613	These factors dictate clear limits to the concept of safe areas.	These factors dicarate cleat limits to the concept of sage areas	508177	1471948734363	1471948734451	 	32
1027	10613	These factors dictate clear limits to the concept of safe areas.	These factors dicarate cleat limits to the concept of sage areas	508179	1471948734701	1471948734783	f	70
1027	10613	These factors dictate clear limits to the concept of safe areas.	These factors dicarate cleat limits to the concept of sage areas	508184	1471948734830	1471948734995	a	65
1027	10613	These factors dictate clear limits to the concept of safe areas.	These factors dicarate cleat limits to the concept of sage areas	508188	1471948735560	1471948735697	c	67
1027	10613	These factors dictate clear limits to the concept of safe areas.	These factors dicarate cleat limits to the concept of sage areas	508192	1471948736041	1471948736157	t	84
1027	10613	These factors dictate clear limits to the concept of safe areas.	These factors dicarate cleat limits to the concept of sage areas	508311	1471948736189	1471948736331	o	79
1027	10613	These factors dictate clear limits to the concept of safe areas.	These factors dicarate cleat limits to the concept of sage areas	508318	1471948736596	1471948736746	r	82
1027	10613	These factors dictate clear limits to the concept of safe areas.	These factors dicarate cleat limits to the concept of sage areas	508322	1471948736777	1471948736914	i	73
1027	10613	These factors dictate clear limits to the concept of safe areas.	These factors dicarate cleat limits to the concept of sage areas	508326	1471948737588	1471948737746	BKSP	8
1027	10613	These factors dictate clear limits to the concept of safe areas.	These factors dicarate cleat limits to the concept of sage areas	508330	1471948738121	1471948738216	r	82
1027	10613	These factors dictate clear limits to the concept of safe areas.	These factors dicarate cleat limits to the concept of sage areas	508337	1471948738720	1471948738847	BKSP	8
1027	10613	These factors dictate clear limits to the concept of safe areas.	These factors dicarate cleat limits to the concept of sage areas	508343	1471948738879	1471948739013	s	83
1027	10613	These factors dictate clear limits to the concept of safe areas.	These factors dicarate cleat limits to the concept of sage areas	508486	1471948739139	1471948739202	 	32
1027	10613	These factors dictate clear limits to the concept of safe areas.	These factors dicarate cleat limits to the concept of sage areas	508492	1471948740518	1471948740679	d	68
1027	10613	These factors dictate clear limits to the concept of safe areas.	These factors dicarate cleat limits to the concept of sage areas	508496	1471948740679	1471948740860	i	73
1027	10613	These factors dictate clear limits to the concept of safe areas.	These factors dicarate cleat limits to the concept of sage areas	508500	1471948741706	1471948741847	c	67
1027	10613	These factors dictate clear limits to the concept of safe areas.	These factors dicarate cleat limits to the concept of sage areas	508504	1471948742003	1471948742150	a	65
1027	10613	These factors dictate clear limits to the concept of safe areas.	These factors dicarate cleat limits to the concept of sage areas	508547	1471948742578	1471948742729	r	82
1027	10613	These factors dictate clear limits to the concept of safe areas.	These factors dicarate cleat limits to the concept of sage areas	508550	1471948742823	1471948742949	a	65
1027	10613	These factors dictate clear limits to the concept of safe areas.	These factors dicarate cleat limits to the concept of sage areas	508553	1471948743012	1471948743131	t	84
1027	10613	These factors dictate clear limits to the concept of safe areas.	These factors dicarate cleat limits to the concept of sage areas	508555	1471948743162	1471948743266	e	69
1027	10613	These factors dictate clear limits to the concept of safe areas.	These factors dicarate cleat limits to the concept of sage areas	508556	1471948743313	1471948743432	 	32
1027	10613	These factors dictate clear limits to the concept of safe areas.	These factors dicarate cleat limits to the concept of sage areas	508598	1471948743481	1471948743598	c	67
1027	10613	These factors dictate clear limits to the concept of safe areas.	These factors dicarate cleat limits to the concept of sage areas	508606	1471948743629	1471948743786	l	76
1027	10613	These factors dictate clear limits to the concept of safe areas.	These factors dicarate cleat limits to the concept of sage areas	508613	1471948743732	1471948743867	e	69
1027	10613	These factors dictate clear limits to the concept of safe areas.	These factors dicarate cleat limits to the concept of sage areas	508617	1471948743913	1471948744032	a	65
1027	10613	These factors dictate clear limits to the concept of safe areas.	These factors dicarate cleat limits to the concept of sage areas	508621	1471948744125	1471948744248	t	84
1027	10613	These factors dictate clear limits to the concept of safe areas.	These factors dicarate cleat limits to the concept of sage areas	508704	1471948744343	1471948744434	 	32
1027	10613	These factors dictate clear limits to the concept of safe areas.	These factors dicarate cleat limits to the concept of sage areas	508707	1471948744559	1471948744683	l	76
1027	10613	These factors dictate clear limits to the concept of safe areas.	These factors dicarate cleat limits to the concept of sage areas	508709	1471948744746	1471948744818	i	73
1027	10613	These factors dictate clear limits to the concept of safe areas.	These factors dicarate cleat limits to the concept of sage areas	508711	1471948745885	1471948745983	m	77
1027	10613	These factors dictate clear limits to the concept of safe areas.	These factors dicarate cleat limits to the concept of sage areas	508712	1471948746045	1471948746197	i	73
1027	10613	These factors dictate clear limits to the concept of safe areas.	These factors dicarate cleat limits to the concept of sage areas	508748	1471948746164	1471948746283	t	84
1027	10613	These factors dictate clear limits to the concept of safe areas.	These factors dicarate cleat limits to the concept of sage areas	508749	1471948746424	1471948746595	s	83
1027	10613	These factors dictate clear limits to the concept of safe areas.	These factors dicarate cleat limits to the concept of sage areas	508750	1471948746610	1471948746716	 	32
1027	10613	These factors dictate clear limits to the concept of safe areas.	These factors dicarate cleat limits to the concept of sage areas	508752	1471948746794	1471948746884	t	84
1027	10613	These factors dictate clear limits to the concept of safe areas.	These factors dicarate cleat limits to the concept of sage areas	508754	1471948746884	1471948746982	o	79
1027	10613	These factors dictate clear limits to the concept of safe areas.	These factors dicarate cleat limits to the concept of sage areas	508756	1471948747138	1471948747218	 	32
1027	10613	These factors dictate clear limits to the concept of safe areas.	These factors dicarate cleat limits to the concept of sage areas	508784	1471948747233	1471948747349	t	84
1027	10613	These factors dictate clear limits to the concept of safe areas.	These factors dicarate cleat limits to the concept of sage areas	508785	1471948747349	1471948747467	h	72
1027	10613	These factors dictate clear limits to the concept of safe areas.	These factors dicarate cleat limits to the concept of sage areas	508786	1471948747483	1471948747582	e	69
1027	10613	These factors dictate clear limits to the concept of safe areas.	These factors dicarate cleat limits to the concept of sage areas	508787	1471948747676	1471948747784	 	32
1027	10613	These factors dictate clear limits to the concept of safe areas.	These factors dicarate cleat limits to the concept of sage areas	508788	1471948748080	1471948748182	c	67
1027	10613	These factors dictate clear limits to the concept of safe areas.	These factors dicarate cleat limits to the concept of sage areas	508822	1471948748182	1471948748267	o	79
1027	10613	These factors dictate clear limits to the concept of safe areas.	These factors dicarate cleat limits to the concept of sage areas	508827	1471948748376	1471948748502	n	78
1027	10613	These factors dictate clear limits to the concept of safe areas.	These factors dicarate cleat limits to the concept of sage areas	508835	1471948748436	1471948748595	c	67
1027	10613	These factors dictate clear limits to the concept of safe areas.	These factors dicarate cleat limits to the concept of sage areas	508840	1471948748580	1471948748729	e	69
1027	10613	These factors dictate clear limits to the concept of safe areas.	These factors dicarate cleat limits to the concept of sage areas	508846	1471948748713	1471948748847	p	80
1027	10613	These factors dictate clear limits to the concept of safe areas.	These factors dicarate cleat limits to the concept of sage areas	508851	1471948748847	1471948748965	t	84
1027	10613	These factors dictate clear limits to the concept of safe areas.	These factors dicarate cleat limits to the concept of sage areas	508893	1471948748999	1471948749101	 	32
1027	10613	These factors dictate clear limits to the concept of safe areas.	These factors dicarate cleat limits to the concept of sage areas	508896	1471948749195	1471948749330	o	79
1027	10613	These factors dictate clear limits to the concept of safe areas.	These factors dicarate cleat limits to the concept of sage areas	508900	1471948749315	1471948749462	f	70
1027	10613	These factors dictate clear limits to the concept of safe areas.	These factors dicarate cleat limits to the concept of sage areas	508904	1471948749509	1471948749631	 	32
1027	10613	These factors dictate clear limits to the concept of safe areas.	These factors dicarate cleat limits to the concept of sage areas	508909	1471948749709	1471948749898	s	83
1027	10613	These factors dictate clear limits to the concept of safe areas.	These factors dicarate cleat limits to the concept of sage areas	508965	1471948749883	1471948749998	a	65
1027	10613	These factors dictate clear limits to the concept of safe areas.	These factors dicarate cleat limits to the concept of sage areas	508971	1471948750076	1471948750183	g	71
1027	10613	These factors dictate clear limits to the concept of safe areas.	These factors dicarate cleat limits to the concept of sage areas	508977	1471948750263	1471948750396	e	69
1027	10613	These factors dictate clear limits to the concept of safe areas.	These factors dicarate cleat limits to the concept of sage areas	508982	1471948750428	1471948750501	 	32
1027	10613	These factors dictate clear limits to the concept of safe areas.	These factors dicarate cleat limits to the concept of sage areas	508990	1471948750626	1471948750748	a	65
1027	10613	These factors dictate clear limits to the concept of safe areas.	These factors dicarate cleat limits to the concept of sage areas	508993	1471948750810	1471948750980	r	82
1027	10613	These factors dictate clear limits to the concept of safe areas.	These factors dicarate cleat limits to the concept of sage areas	509048	1471948750915	1471948751039	e	69
1027	10613	These factors dictate clear limits to the concept of safe areas.	These factors dicarate cleat limits to the concept of sage areas	509053	1471948751148	1471948751386	a	65
1027	10613	These factors dictate clear limits to the concept of safe areas.	These factors dicarate cleat limits to the concept of sage areas	509055	1471948751344	1471948751480	s	83
1027	10634	I would not say I have guaranteed my final place.	I would not say I have guranteed my final place	509223	1471948753816	1471948754102	SHIFT	16
1027	10634	I would not say I have guaranteed my final place.	I would not say I have guranteed my final place	509224	1471948754050	1471948754195	I	73
1027	10634	I would not say I have guaranteed my final place.	I would not say I have guranteed my final place	509225	1471948754367	1471948754467	 	32
1027	10634	I would not say I have guaranteed my final place.	I would not say I have guranteed my final place	509226	1471948754483	1471948754653	w	87
1027	10634	I would not say I have guaranteed my final place.	I would not say I have guranteed my final place	509228	1471948754614	1471948754715	o	79
1027	10634	I would not say I have guaranteed my final place.	I would not say I have guranteed my final place	509230	1471948755562	1471948755673	u	85
1027	10634	I would not say I have guaranteed my final place.	I would not say I have guranteed my final place	509287	1471948756033	1471948756132	l	76
1027	10634	I would not say I have guaranteed my final place.	I would not say I have guranteed my final place	509292	1471948756132	1471948756280	d	68
1027	10634	I would not say I have guaranteed my final place.	I would not say I have guranteed my final place	509295	1471948756265	1471948756367	 	32
1027	10634	I would not say I have guaranteed my final place.	I would not say I have guranteed my final place	509297	1471948756476	1471948756551	n	78
1027	10634	I would not say I have guaranteed my final place.	I would not say I have guranteed my final place	509299	1471948756661	1471948756781	o	79
1027	10634	I would not say I have guaranteed my final place.	I would not say I have guranteed my final place	509323	1471948756765	1471948756884	t	84
1027	10634	I would not say I have guaranteed my final place.	I would not say I have guranteed my final place	509325	1471948756978	1471948757067	 	32
1027	10634	I would not say I have guaranteed my final place.	I would not say I have guranteed my final place	509329	1471948757254	1471948757468	s	83
1027	10634	I would not say I have guaranteed my final place.	I would not say I have guranteed my final place	509332	1471948757396	1471948757561	a	65
1027	10634	I would not say I have guaranteed my final place.	I would not say I have guranteed my final place	509333	1471948757733	1471948757817	y	89
1027	10634	I would not say I have guaranteed my final place.	I would not say I have guranteed my final place	509334	1471948757973	1471948758067	 	32
1027	10634	I would not say I have guaranteed my final place.	I would not say I have guranteed my final place	509379	1471948758177	1471948758465	SHIFT	16
1027	10634	I would not say I have guaranteed my final place.	I would not say I have guranteed my final place	509381	1471948758364	1471948758559	I	73
1027	10634	I would not say I have guaranteed my final place.	I would not say I have guranteed my final place	509384	1471948758761	1471948758835	 	32
1027	10634	I would not say I have guaranteed my final place.	I would not say I have guranteed my final place	509390	1471948758944	1471948759064	h	72
1027	10634	I would not say I have guaranteed my final place.	I would not say I have guranteed my final place	509396	1471948759049	1471948759180	a	65
1027	10634	I would not say I have guaranteed my final place.	I would not say I have guranteed my final place	509403	1471948759274	1471948759382	v	86
1027	10634	I would not say I have guaranteed my final place.	I would not say I have guranteed my final place	509472	1471948759445	1471948759595	e	69
1027	10634	I would not say I have guaranteed my final place.	I would not say I have guranteed my final place	509475	1471948759658	1471948759733	 	32
1027	10634	I would not say I have guaranteed my final place.	I would not say I have guranteed my final place	509479	1471948760160	1471948760266	g	71
1027	10634	I would not say I have guaranteed my final place.	I would not say I have guranteed my final place	509482	1471948760783	1471948760898	u	85
1027	10634	I would not say I have guaranteed my final place.	I would not say I have guranteed my final place	509708	1471948760898	1471948760999	r	82
1027	10634	I would not say I have guaranteed my final place.	I would not say I have guranteed my final place	509710	1471948761061	1471948761197	a	65
1027	10634	I would not say I have guaranteed my final place.	I would not say I have guranteed my final place	509711	1471948761244	1471948761365	n	78
1027	10634	I would not say I have guaranteed my final place.	I would not say I have guranteed my final place	509714	1471948765316	1471948765449	t	84
1027	10634	I would not say I have guaranteed my final place.	I would not say I have guranteed my final place	509717	1471948765613	1471948765716	e	69
1027	10634	I would not say I have guaranteed my final place.	I would not say I have guranteed my final place	509722	1471948765809	1471948765915	e	69
1027	10634	I would not say I have guaranteed my final place.	I would not say I have guranteed my final place	509818	1471948765995	1471948766130	d	68
1027	10634	I would not say I have guaranteed my final place.	I would not say I have guranteed my final place	509820	1471948766177	1471948766268	 	32
1027	10634	I would not say I have guaranteed my final place.	I would not say I have guranteed my final place	509821	1471948766408	1471948766515	m	77
1027	10634	I would not say I have guaranteed my final place.	I would not say I have guranteed my final place	509822	1471948766624	1471948766747	u	85
1027	10634	I would not say I have guaranteed my final place.	I would not say I have guranteed my final place	509823	1471948767563	1471948767665	BKSP	8
1027	10634	I would not say I have guaranteed my final place.	I would not say I have guranteed my final place	509824	1471948767884	1471948767967	y	89
1027	10634	I would not say I have guaranteed my final place.	I would not say I have guranteed my final place	509854	1471948768139	1471948768250	 	32
1027	10634	I would not say I have guaranteed my final place.	I would not say I have guranteed my final place	509857	1471948768297	1471948768430	f	70
1027	10634	I would not say I have guaranteed my final place.	I would not say I have guranteed my final place	509861	1471948768430	1471948768532	i	73
1027	10634	I would not say I have guaranteed my final place.	I would not say I have guranteed my final place	509865	1471948768657	1471948768750	n	78
1027	10634	I would not say I have guaranteed my final place.	I would not say I have guranteed my final place	509870	1471948768765	1471948768914	a	65
1027	10634	I would not say I have guaranteed my final place.	I would not say I have guranteed my final place	509909	1471948768899	1471948769000	l	76
1027	10634	I would not say I have guaranteed my final place.	I would not say I have guranteed my final place	509912	1471948769109	1471948769200	 	32
1027	10634	I would not say I have guaranteed my final place.	I would not say I have guranteed my final place	509917	1471948769325	1471948769416	p	80
1027	10634	I would not say I have guaranteed my final place.	I would not say I have guranteed my final place	509922	1471948769385	1471948769503	l	76
1027	10634	I would not say I have guaranteed my final place.	I would not say I have guranteed my final place	509926	1471948769467	1471948769612	a	65
1027	10634	I would not say I have guaranteed my final place.	I would not say I have guranteed my final place	509930	1471948769644	1471948769764	c	67
1027	10634	I would not say I have guaranteed my final place.	I would not say I have guranteed my final place	509932	1471948769797	1471948769945	e	69
1027	10650	Newly-signed Tony Simmons might work as the third receiver.	Newly-signed Tony Simmons might work as the third receiver	510111	1471948772047	1471948772484	SHIFT	16
1027	10650	Newly-signed Tony Simmons might work as the third receiver.	Newly-signed Tony Simmons might work as the third receiver	510112	1471948772425	1471948772594	N	78
1027	10650	Newly-signed Tony Simmons might work as the third receiver.	Newly-signed Tony Simmons might work as the third receiver	510114	1471948772672	1471948772867	e	69
1027	10650	Newly-signed Tony Simmons might work as the third receiver.	Newly-signed Tony Simmons might work as the third receiver	510117	1471948772831	1471948773010	w	87
1027	10650	Newly-signed Tony Simmons might work as the third receiver.	Newly-signed Tony Simmons might work as the third receiver	510119	1471948773119	1471948773232	l	76
1027	10650	Newly-signed Tony Simmons might work as the third receiver.	Newly-signed Tony Simmons might work as the third receiver	510121	1471948773372	1471948773491	y	89
1027	10650	Newly-signed Tony Simmons might work as the third receiver.	Newly-signed Tony Simmons might work as the third receiver	510170	1471948774421	1471948774548	-	189
1027	10650	Newly-signed Tony Simmons might work as the third receiver.	Newly-signed Tony Simmons might work as the third receiver	510173	1471948774564	1471948774728	s	83
1027	10650	Newly-signed Tony Simmons might work as the third receiver.	Newly-signed Tony Simmons might work as the third receiver	510177	1471948774728	1471948774848	i	73
1027	10650	Newly-signed Tony Simmons might work as the third receiver.	Newly-signed Tony Simmons might work as the third receiver	510178	1471948774879	1471948775013	g	71
1027	10650	Newly-signed Tony Simmons might work as the third receiver.	Newly-signed Tony Simmons might work as the third receiver	510179	1471948775028	1471948775148	n	78
1027	10650	Newly-signed Tony Simmons might work as the third receiver.	Newly-signed Tony Simmons might work as the third receiver	510240	1471948775180	1471948775313	e	69
1027	10650	Newly-signed Tony Simmons might work as the third receiver.	Newly-signed Tony Simmons might work as the third receiver	510245	1471948775406	1471948775562	d	68
1027	10650	Newly-signed Tony Simmons might work as the third receiver.	Newly-signed Tony Simmons might work as the third receiver	510250	1471948775562	1471948775665	 	32
1027	10650	Newly-signed Tony Simmons might work as the third receiver.	Newly-signed Tony Simmons might work as the third receiver	510254	1471948775868	1471948776347	SHIFT	16
1027	10650	Newly-signed Tony Simmons might work as the third receiver.	Newly-signed Tony Simmons might work as the third receiver	510258	1471948776231	1471948776363	T	84
1027	10650	Newly-signed Tony Simmons might work as the third receiver.	Newly-signed Tony Simmons might work as the third receiver	510261	1471948776535	1471948776632	o	79
1027	10650	Newly-signed Tony Simmons might work as the third receiver.	Newly-signed Tony Simmons might work as the third receiver	510292	1471948776758	1471948776850	n	78
1027	10650	Newly-signed Tony Simmons might work as the third receiver.	Newly-signed Tony Simmons might work as the third receiver	510296	1471948776959	1471948777080	y	89
1027	10650	Newly-signed Tony Simmons might work as the third receiver.	Newly-signed Tony Simmons might work as the third receiver	510299	1471948777283	1471948777391	 	32
1027	10650	Newly-signed Tony Simmons might work as the third receiver.	Newly-signed Tony Simmons might work as the third receiver	510302	1471948777688	1471948777899	SHIFT	16
1027	10650	Newly-signed Tony Simmons might work as the third receiver.	Newly-signed Tony Simmons might work as the third receiver	510306	1471948777812	1471948777962	S	83
1027	10650	Newly-signed Tony Simmons might work as the third receiver.	Newly-signed Tony Simmons might work as the third receiver	510309	1471948778024	1471948778116	i	73
1027	10650	Newly-signed Tony Simmons might work as the third receiver.	Newly-signed Tony Simmons might work as the third receiver	510347	1471948778243	1471948778317	m	77
1027	10650	Newly-signed Tony Simmons might work as the third receiver.	Newly-signed Tony Simmons might work as the third receiver	510348	1471948778380	1471948778466	m	77
1027	10650	Newly-signed Tony Simmons might work as the third receiver.	Newly-signed Tony Simmons might work as the third receiver	510349	1471948778544	1471948778648	o	79
1027	10650	Newly-signed Tony Simmons might work as the third receiver.	Newly-signed Tony Simmons might work as the third receiver	510350	1471948778758	1471948778864	n	78
1027	10650	Newly-signed Tony Simmons might work as the third receiver.	Newly-signed Tony Simmons might work as the third receiver	510351	1471948778926	1471948779094	s	83
1027	10650	Newly-signed Tony Simmons might work as the third receiver.	Newly-signed Tony Simmons might work as the third receiver	510489	1471948780099	1471948780231	BKSP	8
1027	10650	Newly-signed Tony Simmons might work as the third receiver.	Newly-signed Tony Simmons might work as the third receiver	510495	1471948780543	1471948780679	s	83
1027	10650	Newly-signed Tony Simmons might work as the third receiver.	Newly-signed Tony Simmons might work as the third receiver	510498	1471948780710	1471948780768	 	32
1027	10650	Newly-signed Tony Simmons might work as the third receiver.	Newly-signed Tony Simmons might work as the third receiver	510501	1471948781389	1471948781483	m	77
1027	10650	Newly-signed Tony Simmons might work as the third receiver.	Newly-signed Tony Simmons might work as the third receiver	510506	1471948781545	1471948781664	i	73
1027	10650	Newly-signed Tony Simmons might work as the third receiver.	Newly-signed Tony Simmons might work as the third receiver	510512	1471948781664	1471948781765	g	71
1027	10650	Newly-signed Tony Simmons might work as the third receiver.	Newly-signed Tony Simmons might work as the third receiver	510536	1471948781780	1471948781898	h	72
1027	10650	Newly-signed Tony Simmons might work as the third receiver.	Newly-signed Tony Simmons might work as the third receiver	510540	1471948781945	1471948782096	t	84
1027	10650	Newly-signed Tony Simmons might work as the third receiver.	Newly-signed Tony Simmons might work as the third receiver	510543	1471948782298	1471948782414	 	32
1027	10650	Newly-signed Tony Simmons might work as the third receiver.	Newly-signed Tony Simmons might work as the third receiver	510550	1471948782477	1471948782644	w	87
1027	10650	Newly-signed Tony Simmons might work as the third receiver.	Newly-signed Tony Simmons might work as the third receiver	510714	1471948782628	1471948782779	o	79
1027	10650	Newly-signed Tony Simmons might work as the third receiver.	Newly-signed Tony Simmons might work as the third receiver	510716	1471948782966	1471948783111	d	68
1027	10650	Newly-signed Tony Simmons might work as the third receiver.	Newly-signed Tony Simmons might work as the third receiver	510718	1471948783599	1471948783700	l	76
1027	10650	Newly-signed Tony Simmons might work as the third receiver.	Newly-signed Tony Simmons might work as the third receiver	510722	1471948784075	1471948784181	BKSP	8
1027	10650	Newly-signed Tony Simmons might work as the third receiver.	Newly-signed Tony Simmons might work as the third receiver	510727	1471948784259	1471948784396	BKSP	8
1027	10650	Newly-signed Tony Simmons might work as the third receiver.	Newly-signed Tony Simmons might work as the third receiver	510733	1471948784867	1471948785013	r	82
1027	10650	Newly-signed Tony Simmons might work as the third receiver.	Newly-signed Tony Simmons might work as the third receiver	510738	1471948785309	1471948785384	k	75
1027	10650	Newly-signed Tony Simmons might work as the third receiver.	Newly-signed Tony Simmons might work as the third receiver	510743	1471948785555	1471948785667	 	32
1027	10650	Newly-signed Tony Simmons might work as the third receiver.	Newly-signed Tony Simmons might work as the third receiver	510754	1471948785651	1471948785834	a	65
1027	10650	Newly-signed Tony Simmons might work as the third receiver.	Newly-signed Tony Simmons might work as the third receiver	510755	1471948785764	1471948785928	s	83
1027	10650	Newly-signed Tony Simmons might work as the third receiver.	Newly-signed Tony Simmons might work as the third receiver	510756	1471948785944	1471948786048	 	32
1027	10650	Newly-signed Tony Simmons might work as the third receiver.	Newly-signed Tony Simmons might work as the third receiver	510757	1471948786095	1471948786229	t	84
1027	10650	Newly-signed Tony Simmons might work as the third receiver.	Newly-signed Tony Simmons might work as the third receiver	510758	1471948786213	1471948786315	h	72
1027	10650	Newly-signed Tony Simmons might work as the third receiver.	Newly-signed Tony Simmons might work as the third receiver	510759	1471948786346	1471948786463	e	69
1027	10650	Newly-signed Tony Simmons might work as the third receiver.	Newly-signed Tony Simmons might work as the third receiver	510804	1471948786527	1471948786615	 	32
1027	10650	Newly-signed Tony Simmons might work as the third receiver.	Newly-signed Tony Simmons might work as the third receiver	510805	1471948786896	1471948787014	t	84
1027	10650	Newly-signed Tony Simmons might work as the third receiver.	Newly-signed Tony Simmons might work as the third receiver	510807	1471948787014	1471948787114	h	72
1027	10650	Newly-signed Tony Simmons might work as the third receiver.	Newly-signed Tony Simmons might work as the third receiver	510809	1471948787177	1471948787320	i	73
1027	10650	Newly-signed Tony Simmons might work as the third receiver.	Newly-signed Tony Simmons might work as the third receiver	510857	1471948787281	1471948787399	r	82
1027	10650	Newly-signed Tony Simmons might work as the third receiver.	Newly-signed Tony Simmons might work as the third receiver	510858	1471948787586	1471948787745	d	68
1027	10650	Newly-signed Tony Simmons might work as the third receiver.	Newly-signed Tony Simmons might work as the third receiver	510860	1471948787854	1471948787981	 	32
1027	10650	Newly-signed Tony Simmons might work as the third receiver.	Newly-signed Tony Simmons might work as the third receiver	510862	1471948788059	1471948788229	r	82
1027	10650	Newly-signed Tony Simmons might work as the third receiver.	Newly-signed Tony Simmons might work as the third receiver	510864	1471948788196	1471948788345	e	69
1027	10650	Newly-signed Tony Simmons might work as the third receiver.	Newly-signed Tony Simmons might work as the third receiver	510866	1471948788485	1471948788613	c	67
1027	10650	Newly-signed Tony Simmons might work as the third receiver.	Newly-signed Tony Simmons might work as the third receiver	510985	1471948788801	1471948788913	v	86
1027	10650	Newly-signed Tony Simmons might work as the third receiver.	Newly-signed Tony Simmons might work as the third receiver	510987	1471948789585	1471948789745	BKSP	8
1027	10650	Newly-signed Tony Simmons might work as the third receiver.	Newly-signed Tony Simmons might work as the third receiver	510991	1471948790373	1471948790499	e	69
1027	10650	Newly-signed Tony Simmons might work as the third receiver.	Newly-signed Tony Simmons might work as the third receiver	510996	1471948790499	1471948790631	i	73
1027	10650	Newly-signed Tony Simmons might work as the third receiver.	Newly-signed Tony Simmons might work as the third receiver	510999	1471948790662	1471948790765	v	86
1027	10650	Newly-signed Tony Simmons might work as the third receiver.	Newly-signed Tony Simmons might work as the third receiver	511005	1471948790843	1471948791017	e	69
1027	10650	Newly-signed Tony Simmons might work as the third receiver.	Newly-signed Tony Simmons might work as the third receiver	511001	1471948790985	1471948791098	r	82
1027	10672	Estrada recently returned from Johannesburg.	Estarda recentlu returned from Johansberg	511219	1471948793394	1471948793845	SHIFT	16
1027	10672	Estrada recently returned from Johannesburg.	Estarda recentlu returned from Johansberg	511217	1471948793690	1471948793829	E	69
1027	10672	Estrada recently returned from Johannesburg.	Estarda recentlu returned from Johansberg	511225	1471948793923	1471948794050	s	83
1027	10672	Estrada recently returned from Johannesburg.	Estarda recentlu returned from Johansberg	511227	1471948794096	1471948794221	t	84
1027	10672	Estrada recently returned from Johannesburg.	Estarda recentlu returned from Johansberg	511231	1471948794330	1471948794494	a	65
1027	10672	Estrada recently returned from Johannesburg.	Estarda recentlu returned from Johansberg	511236	1471948795670	1471948795781	r	82
1027	10672	Estrada recently returned from Johannesburg.	Estarda recentlu returned from Johansberg	511253	1471948795907	1471948796086	d	68
1027	10672	Estrada recently returned from Johannesburg.	Estarda recentlu returned from Johansberg	511257	1471948796034	1471948796211	a	65
1027	10672	Estrada recently returned from Johannesburg.	Estarda recentlu returned from Johansberg	511260	1471948796289	1471948796429	 	32
1027	10672	Estrada recently returned from Johannesburg.	Estarda recentlu returned from Johansberg	511264	1471948796572	1471948796728	r	82
1027	10672	Estrada recently returned from Johannesburg.	Estarda recentlu returned from Johansberg	511268	1471948796728	1471948796846	e	69
1027	10672	Estrada recently returned from Johannesburg.	Estarda recentlu returned from Johansberg	511298	1471948796941	1471948797063	c	67
1027	10672	Estrada recently returned from Johannesburg.	Estarda recentlu returned from Johansberg	511299	1471948797079	1471948797244	e	69
1027	10672	Estrada recently returned from Johannesburg.	Estarda recentlu returned from Johansberg	511301	1471948797244	1471948797380	n	78
1027	10672	Estrada recently returned from Johannesburg.	Estarda recentlu returned from Johansberg	511303	1471948797380	1471948797512	t	84
1027	10672	Estrada recently returned from Johannesburg.	Estarda recentlu returned from Johansberg	511306	1471948797546	1471948797711	l	76
1027	10672	Estrada recently returned from Johannesburg.	Estarda recentlu returned from Johansberg	511355	1471948797822	1471948797947	u	85
1027	10672	Estrada recently returned from Johannesburg.	Estarda recentlu returned from Johansberg	511356	1471948798165	1471948798266	 	32
1027	10672	Estrada recently returned from Johannesburg.	Estarda recentlu returned from Johansberg	511357	1471948798375	1471948798482	r	82
1027	10672	Estrada recently returned from Johannesburg.	Estarda recentlu returned from Johansberg	511359	1471948798450	1471948798580	e	69
1027	10672	Estrada recently returned from Johannesburg.	Estarda recentlu returned from Johansberg	511362	1471948798689	1471948798814	t	84
1027	10672	Estrada recently returned from Johannesburg.	Estarda recentlu returned from Johansberg	511391	1471948798845	1471948798975	u	85
1027	10672	Estrada recently returned from Johannesburg.	Estarda recentlu returned from Johansberg	511392	1471948798932	1471948799081	r	82
1027	10672	Estrada recently returned from Johannesburg.	Estarda recentlu returned from Johansberg	511393	1471948799127	1471948799247	n	78
1027	10672	Estrada recently returned from Johannesburg.	Estarda recentlu returned from Johansberg	511395	1471948799247	1471948799395	e	69
1027	10672	Estrada recently returned from Johannesburg.	Estarda recentlu returned from Johansberg	511397	1471948799457	1471948799612	d	68
1027	10672	Estrada recently returned from Johannesburg.	Estarda recentlu returned from Johansberg	511419	1471948799627	1471948799732	 	32
1027	10672	Estrada recently returned from Johannesburg.	Estarda recentlu returned from Johansberg	511420	1471948799779	1471948799969	f	70
1027	10672	Estrada recently returned from Johannesburg.	Estarda recentlu returned from Johansberg	511422	1471948799897	1471948800068	r	82
1027	10672	Estrada recently returned from Johannesburg.	Estarda recentlu returned from Johansberg	511424	1471948800031	1471948800178	o	79
1027	10672	Estrada recently returned from Johannesburg.	Estarda recentlu returned from Johansberg	511426	1471948800288	1471948800384	m	77
1027	10672	Estrada recently returned from Johannesburg.	Estarda recentlu returned from Johansberg	511504	1471948800526	1471948800617	 	32
1027	10672	Estrada recently returned from Johannesburg.	Estarda recentlu returned from Johansberg	511505	1471948800773	1471948801534	SHIFT	16
1027	10672	Estrada recently returned from Johannesburg.	Estarda recentlu returned from Johansberg	511506	1471948801461	1471948801627	J	74
1027	10672	Estrada recently returned from Johannesburg.	Estarda recentlu returned from Johansberg	511507	1471948801768	1471948801865	o	79
1027	10672	Estrada recently returned from Johannesburg.	Estarda recentlu returned from Johansberg	511508	1471948801958	1471948802065	h	72
1027	10672	Estrada recently returned from Johannesburg.	Estarda recentlu returned from Johansberg	511509	1471948802065	1471948802252	a	65
1027	10672	Estrada recently returned from Johannesburg.	Estarda recentlu returned from Johansberg	511557	1471948802196	1471948802300	n	78
1027	10672	Estrada recently returned from Johannesburg.	Estarda recentlu returned from Johansberg	511561	1471948802583	1471948802713	s	83
1027	10672	Estrada recently returned from Johannesburg.	Estarda recentlu returned from Johansberg	511565	1471948802838	1471948802965	b	66
1027	10672	Estrada recently returned from Johannesburg.	Estarda recentlu returned from Johansberg	511572	1471948802949	1471948803136	e	69
1027	10672	Estrada recently returned from Johannesburg.	Estarda recentlu returned from Johansberg	511577	1471948803094	1471948803214	r	82
1027	10672	Estrada recently returned from Johannesburg.	Estarda recentlu returned from Johansberg	511583	1471948803401	1471948803545	g	71
1027	10687	Next time ask Jim to call me.	Next time ask Jim to call me.	511836	1471948807461	1471948807769	SHIFT	16
1027	10687	Next time ask Jim to call me.	Next time ask Jim to call me.	511837	1471948807711	1471948807925	N	78
1027	10687	Next time ask Jim to call me.	Next time ask Jim to call me.	511840	1471948807940	1471948808079	e	69
1027	10687	Next time ask Jim to call me.	Next time ask Jim to call me.	511841	1471948808251	1471948808395	x	88
1027	10687	Next time ask Jim to call me.	Next time ask Jim to call me.	511845	1471948808504	1471948808647	t	84
1027	10687	Next time ask Jim to call me.	Next time ask Jim to call me.	511849	1471948808693	1471948808814	 	32
1027	10687	Next time ask Jim to call me.	Next time ask Jim to call me.	511958	1471948808814	1471948808930	t	84
1027	10687	Next time ask Jim to call me.	Next time ask Jim to call me.	511964	1471948808961	1471948809049	o	79
1027	10687	Next time ask Jim to call me.	Next time ask Jim to call me.	511969	1471948809221	1471948809332	m	77
1027	10687	Next time ask Jim to call me.	Next time ask Jim to call me.	511973	1471948809332	1471948809480	e	69
1027	10687	Next time ask Jim to call me.	Next time ask Jim to call me.	511975	1471948809886	1471948809983	BKSP	8
1027	10687	Next time ask Jim to call me.	Next time ask Jim to call me.	511977	1471948810092	1471948810187	BKSP	8
1027	10687	Next time ask Jim to call me.	Next time ask Jim to call me.	511979	1471948810234	1471948810363	BKSP	8
1027	10687	Next time ask Jim to call me.	Next time ask Jim to call me.	511983	1471948810707	1471948810787	i	73
1027	10687	Next time ask Jim to call me.	Next time ask Jim to call me.	512011	1471948810913	1471948811015	m	77
1027	10687	Next time ask Jim to call me.	Next time ask Jim to call me.	512015	1471948810999	1471948811131	e	69
1027	10687	Next time ask Jim to call me.	Next time ask Jim to call me.	512020	1471948811177	1471948811283	 	32
1027	10687	Next time ask Jim to call me.	Next time ask Jim to call me.	512024	1471948811299	1471948811518	a	65
1027	10687	Next time ask Jim to call me.	Next time ask Jim to call me.	512103	1471948811462	1471948811612	s	83
1027	10687	Next time ask Jim to call me.	Next time ask Jim to call me.	512104	1471948812381	1471948812481	k	75
1027	10687	Next time ask Jim to call me.	Next time ask Jim to call me.	512105	1471948812684	1471948812781	 	32
1027	10687	Next time ask Jim to call me.	Next time ask Jim to call me.	512106	1471948812890	1471948813168	SHIFT	16
1027	10687	Next time ask Jim to call me.	Next time ask Jim to call me.	512107	1471948813124	1471948813246	J	74
1027	10687	Next time ask Jim to call me.	Next time ask Jim to call me.	512108	1471948813324	1471948813452	i	73
1027	10687	Next time ask Jim to call me.	Next time ask Jim to call me.	512109	1471948813561	1471948813649	m	77
1027	10687	Next time ask Jim to call me.	Next time ask Jim to call me.	512141	1471948813774	1471948813881	 	32
1027	10687	Next time ask Jim to call me.	Next time ask Jim to call me.	512144	1471948813927	1471948814109	t	84
1027	10687	Next time ask Jim to call me.	Next time ask Jim to call me.	512147	1471948814093	1471948814214	o	79
1027	10687	Next time ask Jim to call me.	Next time ask Jim to call me.	512150	1471948814370	1471948814481	 	32
1027	10687	Next time ask Jim to call me.	Next time ask Jim to call me.	512193	1471948814466	1471948814659	c	67
1027	10687	Next time ask Jim to call me.	Next time ask Jim to call me.	512195	1471948814659	1471948814812	a	65
1027	10687	Next time ask Jim to call me.	Next time ask Jim to call me.	512197	1471948814796	1471948814882	l	76
1027	10687	Next time ask Jim to call me.	Next time ask Jim to call me.	512201	1471948814976	1471948815050	l	76
1027	10687	Next time ask Jim to call me.	Next time ask Jim to call me.	512206	1471948815159	1471948815255	 	32
1027	10687	Next time ask Jim to call me.	Next time ask Jim to call me.	512214	1471948815380	1471948815481	m	77
1027	10687	Next time ask Jim to call me.	Next time ask Jim to call me.	512276	1471948815497	1471948815629	e	69
1027	10687	Next time ask Jim to call me.	Next time ask Jim to call me.	512280	1471948816289	1471948816353	.	190
1027	10701	OK to make changes, change out original.	Ok to make changes, change out original.	512474	1471948819033	1471948819401	SHIFT	16
1027	10701	OK to make changes, change out original.	Ok to make changes, change out original.	512475	1471948819345	1471948819479	O	79
1027	10701	OK to make changes, change out original.	Ok to make changes, change out original.	512476	1471948819604	1471948819700	k	75
1027	10701	OK to make changes, change out original.	Ok to make changes, change out original.	512477	1471948819824	1471948819917	 	32
1027	10701	OK to make changes, change out original.	Ok to make changes, change out original.	512478	1471948819964	1471948820112	t	84
1027	10701	OK to make changes, change out original.	Ok to make changes, change out original.	512498	1471948820097	1471948820197	o	79
1027	10701	OK to make changes, change out original.	Ok to make changes, change out original.	512502	1471948820338	1471948820432	 	32
1027	10701	OK to make changes, change out original.	Ok to make changes, change out original.	512507	1471948820494	1471948820629	m	77
1027	10701	OK to make changes, change out original.	Ok to make changes, change out original.	512512	1471948820677	1471948820857	a	65
1027	10701	OK to make changes, change out original.	Ok to make changes, change out original.	512726	1471948820824	1471948820918	l	76
1027	10701	OK to make changes, change out original.	Ok to make changes, change out original.	512515	1471948820863	1471948820898	k	75
1027	10701	OK to make changes, change out original.	Ok to make changes, change out original.	512729	1471948823552	1471948823679	BKSP	8
1027	10701	OK to make changes, change out original.	Ok to make changes, change out original.	512731	1471948824022	1471948824178	BKSP	8
1027	10701	OK to make changes, change out original.	Ok to make changes, change out original.	512734	1471948824521	1471948824631	k	75
1027	10701	OK to make changes, change out original.	Ok to make changes, change out original.	512737	1471948824662	1471948824795	e	69
1027	10701	OK to make changes, change out original.	Ok to make changes, change out original.	512739	1471948825044	1471948825148	 	32
1027	10701	OK to make changes, change out original.	Ok to make changes, change out original.	512741	1471948825179	1471948825335	c	67
1027	10701	OK to make changes, change out original.	Ok to make changes, change out original.	512762	1471948825296	1471948825400	h	72
1027	10701	OK to make changes, change out original.	Ok to make changes, change out original.	512765	1471948825431	1471948825585	a	65
1027	10701	OK to make changes, change out original.	Ok to make changes, change out original.	512767	1471948825546	1471948825679	n	78
1027	10701	OK to make changes, change out original.	Ok to make changes, change out original.	512770	1471948825679	1471948825859	g	71
1027	10701	OK to make changes, change out original.	Ok to make changes, change out original.	512773	1471948825859	1471948825964	e	69
1027	10701	OK to make changes, change out original.	Ok to make changes, change out original.	512775	1471948826042	1471948826215	s	83
1027	10701	OK to make changes, change out original.	Ok to make changes, change out original.	512813	1471948826179	1471948826298	,	188
1027	10701	OK to make changes, change out original.	Ok to make changes, change out original.	512816	1471948826446	1471948826532	 	32
1027	10701	OK to make changes, change out original.	Ok to make changes, change out original.	512820	1471948826548	1471948826681	c	67
1027	10701	OK to make changes, change out original.	Ok to make changes, change out original.	512824	1471948826681	1471948826766	h	72
1027	10701	OK to make changes, change out original.	Ok to make changes, change out original.	512828	1471948826782	1471948826897	a	65
1027	10701	OK to make changes, change out original.	Ok to make changes, change out original.	512831	1471948826944	1471948827051	n	78
1027	10701	OK to make changes, change out original.	Ok to make changes, change out original.	512857	1471948827016	1471948827146	g	71
1027	10701	OK to make changes, change out original.	Ok to make changes, change out original.	512858	1471948827224	1471948827335	e	69
1027	10701	OK to make changes, change out original.	Ok to make changes, change out original.	512859	1471948827351	1471948827433	 	32
1027	10701	OK to make changes, change out original.	Ok to make changes, change out original.	512860	1471948827636	1471948827826	o	79
1027	10701	OK to make changes, change out original.	Ok to make changes, change out original.	512861	1471948827811	1471948827946	u	85
1027	10701	OK to make changes, change out original.	Ok to make changes, change out original.	512862	1471948827961	1471948828111	t	84
1027	10701	OK to make changes, change out original.	Ok to make changes, change out original.	512906	1471948828190	1471948828299	 	32
1027	10701	OK to make changes, change out original.	Ok to make changes, change out original.	512909	1471948828785	1471948828896	o	79
1027	10701	OK to make changes, change out original.	Ok to make changes, change out original.	512912	1471948828881	1471948829012	r	82
1027	10701	OK to make changes, change out original.	Ok to make changes, change out original.	512916	1471948829027	1471948829131	i	73
1027	10701	OK to make changes, change out original.	Ok to make changes, change out original.	512921	1471948829380	1471948829528	f	70
1027	10701	OK to make changes, change out original.	Ok to make changes, change out original.	513019	1471948829512	1471948829599	i	73
1027	10701	OK to make changes, change out original.	Ok to make changes, change out original.	513023	1471948829693	1471948829782	n	78
1027	10701	OK to make changes, change out original.	Ok to make changes, change out original.	513027	1471948829813	1471948829947	a	65
1027	10701	OK to make changes, change out original.	Ok to make changes, change out original.	513031	1471948830196	1471948830298	BKSP	8
1027	10701	OK to make changes, change out original.	Ok to make changes, change out original.	513033	1471948830392	1471948830482	BKSP	8
1027	10701	OK to make changes, change out original.	Ok to make changes, change out original.	513034	1471948830560	1471948830648	BKSP	8
1027	10701	OK to make changes, change out original.	Ok to make changes, change out original.	513035	1471948830710	1471948830830	BKSP	8
1027	10701	OK to make changes, change out original.	Ok to make changes, change out original.	513036	1471948831800	1471948831961	g	71
1027	10701	OK to make changes, change out original.	Ok to make changes, change out original.	513037	1471948831961	1471948832049	i	73
1027	10701	OK to make changes, change out original.	Ok to make changes, change out original.	513038	1471948832142	1471948832231	n	78
1027	10701	OK to make changes, change out original.	Ok to make changes, change out original.	513059	1471948832231	1471948832381	a	65
1027	10701	OK to make changes, change out original.	Ok to make changes, change out original.	513062	1471948832709	1471948832798	l	76
1027	10701	OK to make changes, change out original.	Ok to make changes, change out original.	513064	1471948832956	1471948833034	.	190
1027	10718	Then we lit our candles and just stood there silently, holding them.	Then we lit our candles and just stood there silently, holding them.	513169	1471948835467	1471948835832	SHIFT	16
1027	10718	Then we lit our candles and just stood there silently, holding them.	Then we lit our candles and just stood there silently, holding them.	513170	1471948835732	1471948835879	T	84
1027	10718	Then we lit our candles and just stood there silently, holding them.	Then we lit our candles and just stood there silently, holding them.	513171	1471948835973	1471948836096	h	72
1027	10718	Then we lit our candles and just stood there silently, holding them.	Then we lit our candles and just stood there silently, holding them.	513172	1471948836080	1471948836228	e	69
1027	10718	Then we lit our candles and just stood there silently, holding them.	Then we lit our candles and just stood there silently, holding them.	513173	1471948836243	1471948836316	n	78
1027	10718	Then we lit our candles and just stood there silently, holding them.	Then we lit our candles and just stood there silently, holding them.	513174	1471948836441	1471948836563	 	32
1027	10718	Then we lit our candles and just stood there silently, holding them.	Then we lit our candles and just stood there silently, holding them.	513220	1471948836563	1471948836768	w	87
1027	10718	Then we lit our candles and just stood there silently, holding them.	Then we lit our candles and just stood there silently, holding them.	513222	1471948836726	1471948836862	e	69
1027	10718	Then we lit our candles and just stood there silently, holding them.	Then we lit our candles and just stood there silently, holding them.	513225	1471948836893	1471948836982	 	32
1027	10718	Then we lit our candles and just stood there silently, holding them.	Then we lit our candles and just stood there silently, holding them.	513227	1471948837107	1471948837249	l	76
1027	10718	Then we lit our candles and just stood there silently, holding them.	Then we lit our candles and just stood there silently, holding them.	513229	1471948837311	1471948837445	i	73
1027	10718	Then we lit our candles and just stood there silently, holding them.	Then we lit our candles and just stood there silently, holding them.	513291	1471948837430	1471948837582	t	84
1027	10718	Then we lit our candles and just stood there silently, holding them.	Then we lit our candles and just stood there silently, holding them.	513293	1471948837676	1471948837780	 	32
1027	10718	Then we lit our candles and just stood there silently, holding them.	Then we lit our candles and just stood there silently, holding them.	513296	1471948837889	1471948838039	o	79
1027	10718	Then we lit our candles and just stood there silently, holding them.	Then we lit our candles and just stood there silently, holding them.	513299	1471948838102	1471948838213	u	85
1027	10718	Then we lit our candles and just stood there silently, holding them.	Then we lit our candles and just stood there silently, holding them.	513302	1471948838887	1471948839029	r	82
1027	10718	Then we lit our candles and just stood there silently, holding them.	Then we lit our candles and just stood there silently, holding them.	513306	1471948839640	1471948839767	 	32
1027	10718	Then we lit our candles and just stood there silently, holding them.	Then we lit our candles and just stood there silently, holding them.	513318	1471948839800	1471948839929	c	67
1027	10718	Then we lit our candles and just stood there silently, holding them.	Then we lit our candles and just stood there silently, holding them.	513320	1471948839929	1471948840082	a	65
1027	10718	Then we lit our candles and just stood there silently, holding them.	Then we lit our candles and just stood there silently, holding them.	513322	1471948840015	1471948840115	n	78
1027	10718	Then we lit our candles and just stood there silently, holding them.	Then we lit our candles and just stood there silently, holding them.	513323	1471948840161	1471948840311	d	68
1027	10718	Then we lit our candles and just stood there silently, holding them.	Then we lit our candles and just stood there silently, holding them.	513324	1471948840327	1471948840462	l	76
1027	10718	Then we lit our candles and just stood there silently, holding them.	Then we lit our candles and just stood there silently, holding them.	513356	1471948840477	1471948840611	e	69
1027	10718	Then we lit our candles and just stood there silently, holding them.	Then we lit our candles and just stood there silently, holding them.	513358	1471948840705	1471948840845	s	83
1027	10718	Then we lit our candles and just stood there silently, holding them.	Then we lit our candles and just stood there silently, holding them.	513361	1471948840845	1471948840932	 	32
1027	10718	Then we lit our candles and just stood there silently, holding them.	Then we lit our candles and just stood there silently, holding them.	513364	1471948841026	1471948841161	a	65
1027	10718	Then we lit our candles and just stood there silently, holding them.	Then we lit our candles and just stood there silently, holding them.	513425	1471948841146	1471948841265	n	78
1027	10718	Then we lit our candles and just stood there silently, holding them.	Then we lit our candles and just stood there silently, holding them.	513429	1471948841312	1471948841446	d	68
1027	10718	Then we lit our candles and just stood there silently, holding them.	Then we lit our candles and just stood there silently, holding them.	513435	1471948841477	1471948841565	 	32
1027	10718	Then we lit our candles and just stood there silently, holding them.	Then we lit our candles and just stood there silently, holding them.	513441	1471948842310	1471948842398	j	74
1027	10718	Then we lit our candles and just stood there silently, holding them.	Then we lit our candles and just stood there silently, holding them.	513444	1471948842492	1471948842617	u	85
1027	10718	Then we lit our candles and just stood there silently, holding them.	Then we lit our candles and just stood there silently, holding them.	513474	1471948842551	1471948842680	s	83
1027	10718	Then we lit our candles and just stood there silently, holding them.	Then we lit our candles and just stood there silently, holding them.	513475	1471948842711	1471948842845	t	84
1027	10718	Then we lit our candles and just stood there silently, holding them.	Then we lit our candles and just stood there silently, holding them.	513477	1471948842923	1471948843015	 	32
1027	10718	Then we lit our candles and just stood there silently, holding them.	Then we lit our candles and just stood there silently, holding them.	513478	1471948843171	1471948843329	s	83
1027	10718	Then we lit our candles and just stood there silently, holding them.	Then we lit our candles and just stood there silently, holding them.	513480	1471948843391	1471948843513	t	84
1027	10718	Then we lit our candles and just stood there silently, holding them.	Then we lit our candles and just stood there silently, holding them.	513481	1471948843653	1471948843748	o	79
1027	10718	Then we lit our candles and just stood there silently, holding them.	Then we lit our candles and just stood there silently, holding them.	513572	1471948843844	1471948843963	o	79
1027	10718	Then we lit our candles and just stood there silently, holding them.	Then we lit our candles and just stood there silently, holding them.	513576	1471948844166	1471948844295	d	68
1027	10718	Then we lit our candles and just stood there silently, holding them.	Then we lit our candles and just stood there silently, holding them.	513580	1471948844985	1471948845066	 	32
1027	10718	Then we lit our candles and just stood there silently, holding them.	Then we lit our candles and just stood there silently, holding them.	513582	1471948845300	1471948845414	t	84
1027	10718	Then we lit our candles and just stood there silently, holding them.	Then we lit our candles and just stood there silently, holding them.	513583	1471948845414	1471948845562	h	72
1027	10718	Then we lit our candles and just stood there silently, holding them.	Then we lit our candles and just stood there silently, holding them.	513658	1471948845547	1471948845663	e	69
1027	10718	Then we lit our candles and just stood there silently, holding them.	Then we lit our candles and just stood there silently, holding them.	513660	1471948846242	1471948846393	r	82
1027	10718	Then we lit our candles and just stood there silently, holding them.	Then we lit our candles and just stood there silently, holding them.	513663	1471948846377	1471948846526	e	69
1027	10718	Then we lit our candles and just stood there silently, holding them.	Then we lit our candles and just stood there silently, holding them.	513667	1471948846670	1471948846748	 	32
1027	10718	Then we lit our candles and just stood there silently, holding them.	Then we lit our candles and just stood there silently, holding them.	513671	1471948846873	1471948846953	s	83
1027	10718	Then we lit our candles and just stood there silently, holding them.	Then we lit our candles and just stood there silently, holding them.	513674	1471948847343	1471948847447	i	73
1027	10718	Then we lit our candles and just stood there silently, holding them.	Then we lit our candles and just stood there silently, holding them.	513695	1471948847588	1471948847725	l	76
1027	10718	Then we lit our candles and just stood there silently, holding them.	Then we lit our candles and just stood there silently, holding them.	513702	1471948847680	1471948847795	e	69
1027	10718	Then we lit our candles and just stood there silently, holding them.	Then we lit our candles and just stood there silently, holding them.	513711	1471948847873	1471948847980	n	78
1027	10718	Then we lit our candles and just stood there silently, holding them.	Then we lit our candles and just stood there silently, holding them.	513720	1471948848136	1471948848292	t	84
1027	10718	Then we lit our candles and just stood there silently, holding them.	Then we lit our candles and just stood there silently, holding them.	513729	1471948848292	1471948848412	l	76
1027	10718	Then we lit our candles and just stood there silently, holding them.	Then we lit our candles and just stood there silently, holding them.	513799	1471948848647	1471948848762	y	89
1027	10718	Then we lit our candles and just stood there silently, holding them.	Then we lit our candles and just stood there silently, holding them.	513801	1471948849421	1471948849514	,	188
1027	10718	Then we lit our candles and just stood there silently, holding them.	Then we lit our candles and just stood there silently, holding them.	513803	1471948849623	1471948849714	 	32
1027	10718	Then we lit our candles and just stood there silently, holding them.	Then we lit our candles and just stood there silently, holding them.	513805	1471948849839	1471948849930	h	72
1027	10718	Then we lit our candles and just stood there silently, holding them.	Then we lit our candles and just stood there silently, holding them.	513809	1471948850070	1471948850119	o	79
1027	10718	Then we lit our candles and just stood there silently, holding them.	Then we lit our candles and just stood there silently, holding them.	513886	1471948850916	1471948851013	l	76
1027	10718	Then we lit our candles and just stood there silently, holding them.	Then we lit our candles and just stood there silently, holding them.	513888	1471948851091	1471948851227	d	68
1027	10718	Then we lit our candles and just stood there silently, holding them.	Then we lit our candles and just stood there silently, holding them.	513889	1471948851886	1471948851965	i	73
1027	10718	Then we lit our candles and just stood there silently, holding them.	Then we lit our candles and just stood there silently, holding them.	513891	1471948852105	1471948852181	n	78
1027	10718	Then we lit our candles and just stood there silently, holding them.	Then we lit our candles and just stood there silently, holding them.	513892	1471948852181	1471948852312	g	71
1027	10718	Then we lit our candles and just stood there silently, holding them.	Then we lit our candles and just stood there silently, holding them.	513908	1471948852360	1471948852447	 	32
1027	10718	Then we lit our candles and just stood there silently, holding them.	Then we lit our candles and just stood there silently, holding them.	513913	1471948852510	1471948852675	t	84
1027	10718	Then we lit our candles and just stood there silently, holding them.	Then we lit our candles and just stood there silently, holding them.	513917	1471948852644	1471948852748	h	72
1027	10718	Then we lit our candles and just stood there silently, holding them.	Then we lit our candles and just stood there silently, holding them.	513921	1471948852794	1471948852928	e	69
1027	10718	Then we lit our candles and just stood there silently, holding them.	Then we lit our candles and just stood there silently, holding them.	513924	1471948852975	1471948853048	m	77
1027	10718	Then we lit our candles and just stood there silently, holding them.	Then we lit our candles and just stood there silently, holding them.	513954	1471948853597	1471948853681	.	190
1027	10730	Good to know it exists.	Good to know it exists.	514063	1471948855645	1471948856079	SHIFT	16
1027	10730	Good to know it exists.	Good to know it exists.	514066	1471948855973	1471948856110	G	71
1027	10730	Good to know it exists.	Good to know it exists.	514070	1471948856251	1471948856331	o	79
1027	10730	Good to know it exists.	Good to know it exists.	514072	1471948856425	1471948856529	o	79
1027	10730	Good to know it exists.	Good to know it exists.	514074	1471948856561	1471948856725	d	68
1027	10730	Good to know it exists.	Good to know it exists.	514127	1471948856709	1471948856813	 	32
1027	10730	Good to know it exists.	Good to know it exists.	514130	1471948856891	1471948856996	t	84
1027	10730	Good to know it exists.	Good to know it exists.	514134	1471948856996	1471948857096	o	79
1027	10730	Good to know it exists.	Good to know it exists.	514137	1471948857267	1471948857362	 	32
1027	10730	Good to know it exists.	Good to know it exists.	514140	1471948858209	1471948858266	k	75
1027	10730	Good to know it exists.	Good to know it exists.	514142	1471948858344	1471948858431	n	78
1027	10730	Good to know it exists.	Good to know it exists.	514169	1471948858525	1471948858644	o	79
1027	10730	Good to know it exists.	Good to know it exists.	514170	1471948858644	1471948858778	w	87
1027	10730	Good to know it exists.	Good to know it exists.	514171	1471948858809	1471948858897	 	32
1027	10730	Good to know it exists.	Good to know it exists.	514172	1471948859335	1471948859445	i	73
1027	10730	Good to know it exists.	Good to know it exists.	514240	1471948859430	1471948859593	t	84
1027	10730	Good to know it exists.	Good to know it exists.	514245	1471948859687	1471948859780	 	32
1027	10730	Good to know it exists.	Good to know it exists.	514249	1471948860000	1471948860128	e	69
1027	10730	Good to know it exists.	Good to know it exists.	514251	1471948860600	1471948860743	x	88
1027	10730	Good to know it exists.	Good to know it exists.	514253	1471948860759	1471948860909	i	73
1027	10730	Good to know it exists.	Good to know it exists.	514282	1471948860894	1471948861028	s	83
1027	10730	Good to know it exists.	Good to know it exists.	514286	1471948861075	1471948861211	t	84
1027	10730	Good to know it exists.	Good to know it exists.	514290	1471948861367	1471948861542	s	83
1027	10730	Good to know it exists.	Good to know it exists.	514295	1471948861698	1471948861781	.	190
1027	10737	I will call you Monday morning to discuss.	I will call you Monday morning to discuss.	514412	1471948863963	1471948864264	SHIFT	16
1027	10737	I will call you Monday morning to discuss.	I will call you Monday morning to discuss.	514414	1471948864182	1471948864342	I	73
1027	10737	I will call you Monday morning to discuss.	I will call you Monday morning to discuss.	514415	1471948864514	1471948864628	 	32
1027	10737	I will call you Monday morning to discuss.	I will call you Monday morning to discuss.	514417	1471948864659	1471948864810	w	87
1027	10737	I will call you Monday morning to discuss.	I will call you Monday morning to discuss.	514418	1471948864825	1471948864929	i	73
1027	10737	I will call you Monday morning to discuss.	I will call you Monday morning to discuss.	514420	1471948865085	1471948865165	l	76
1027	10737	I will call you Monday morning to discuss.	I will call you Monday morning to discuss.	514434	1471948865245	1471948865330	l	76
1027	10737	I will call you Monday morning to discuss.	I will call you Monday morning to discuss.	514437	1471948865455	1471948865562	 	32
1027	10737	I will call you Monday morning to discuss.	I will call you Monday morning to discuss.	514440	1471948865547	1471948865678	c	67
1027	10737	I will call you Monday morning to discuss.	I will call you Monday morning to discuss.	514443	1471948865694	1471948865859	a	65
1027	10737	I will call you Monday morning to discuss.	I will call you Monday morning to discuss.	514447	1471948865859	1471948865963	l	76
1027	10737	I will call you Monday morning to discuss.	I will call you Monday morning to discuss.	514486	1471948866042	1471948866130	l	76
1027	10737	I will call you Monday morning to discuss.	I will call you Monday morning to discuss.	514488	1471948866286	1471948866381	 	32
1027	10737	I will call you Monday morning to discuss.	I will call you Monday morning to discuss.	514490	1471948866553	1471948866647	y	89
1027	10737	I will call you Monday morning to discuss.	I will call you Monday morning to discuss.	514494	1471948866803	1471948866914	o	79
1027	10737	I will call you Monday morning to discuss.	I will call you Monday morning to discuss.	514498	1471948866945	1471948867030	u	85
1027	10737	I will call you Monday morning to discuss.	I will call you Monday morning to discuss.	514514	1471948867188	1471948867280	 	32
1027	10737	I will call you Monday morning to discuss.	I will call you Monday morning to discuss.	514518	1471948867374	1471948867619	SHIFT	16
1027	10737	I will call you Monday morning to discuss.	I will call you Monday morning to discuss.	514523	1471948867514	1471948867650	M	77
1027	10737	I will call you Monday morning to discuss.	I will call you Monday morning to discuss.	514527	1471948867666	1471948867779	o	79
1027	10737	I will call you Monday morning to discuss.	I will call you Monday morning to discuss.	514532	1471948867857	1471948867984	n	78
1027	10737	I will call you Monday morning to discuss.	I will call you Monday morning to discuss.	514600	1471948867984	1471948868127	d	68
1027	10737	I will call you Monday morning to discuss.	I will call you Monday morning to discuss.	514602	1471948868173	1471948868346	a	65
1027	10737	I will call you Monday morning to discuss.	I will call you Monday morning to discuss.	514603	1471948868310	1471948868443	y	89
1027	10737	I will call you Monday morning to discuss.	I will call you Monday morning to discuss.	514605	1471948869243	1471948869330	 	32
1027	10737	I will call you Monday morning to discuss.	I will call you Monday morning to discuss.	514606	1471948869486	1471948869550	m	77
1027	10737	I will call you Monday morning to discuss.	I will call you Monday morning to discuss.	514608	1471948869628	1471948869729	o	79
1027	10737	I will call you Monday morning to discuss.	I will call you Monday morning to discuss.	514674	1471948869808	1471948869928	n	78
1027	10737	I will call you Monday morning to discuss.	I will call you Monday morning to discuss.	514676	1471948869913	1471948870060	d	68
1027	10737	I will call you Monday morning to discuss.	I will call you Monday morning to discuss.	514679	1471948870671	1471948870810	BKSP	8
1027	10737	I will call you Monday morning to discuss.	I will call you Monday morning to discuss.	514681	1471948871106	1471948871244	BKSP	8
1027	10737	I will call you Monday morning to discuss.	I will call you Monday morning to discuss.	514683	1471948871259	1471948871409	r	82
1027	10737	I will call you Monday morning to discuss.	I will call you Monday morning to discuss.	514685	1471948871534	1471948871614	n	78
1027	10737	I will call you Monday morning to discuss.	I will call you Monday morning to discuss.	514687	1471948871692	1471948871780	i	73
1027	10737	I will call you Monday morning to discuss.	I will call you Monday morning to discuss.	514704	1471948871859	1471948871947	n	78
1027	10737	I will call you Monday morning to discuss.	I will call you Monday morning to discuss.	514708	1471948871993	1471948872127	g	71
1027	10737	I will call you Monday morning to discuss.	I will call you Monday morning to discuss.	514711	1471948872143	1471948872245	 	32
1027	10737	I will call you Monday morning to discuss.	I will call you Monday morning to discuss.	514715	1471948872341	1471948872448	t	84
1027	10737	I will call you Monday morning to discuss.	I will call you Monday morning to discuss.	514719	1471948872463	1471948872568	o	79
1027	10737	I will call you Monday morning to discuss.	I will call you Monday morning to discuss.	514759	1471948872756	1471948872831	 	32
1027	10737	I will call you Monday morning to discuss.	I will call you Monday morning to discuss.	514762	1471948873034	1471948873193	d	68
1027	10737	I will call you Monday morning to discuss.	I will call you Monday morning to discuss.	514765	1471948873632	1471948873744	i	73
1027	10737	I will call you Monday morning to discuss.	I will call you Monday morning to discuss.	514768	1471948873728	1471948873907	s	83
1027	10737	I will call you Monday morning to discuss.	I will call you Monday morning to discuss.	514770	1471948873953	1471948874096	c	67
1027	10737	I will call you Monday morning to discuss.	I will call you Monday morning to discuss.	514817	1471948874301	1471948874428	u	85
1027	10737	I will call you Monday morning to discuss.	I will call you Monday morning to discuss.	514822	1471948874553	1471948874662	s	83
1027	10737	I will call you Monday morning to discuss.	I will call you Monday morning to discuss.	514824	1471948874740	1471948874893	s	83
1027	10737	I will call you Monday morning to discuss.	I will call you Monday morning to discuss.	514828	1471948875080	1471948875147	.	190
1027	10752	Can you rough out a slide on rating agencies?	Can you rough out a slide on rating agencies?	514950	1471948877277	1471948877580	SHIFT	16
1027	10752	Can you rough out a slide on rating agencies?	Can you rough out a slide on rating agencies?	514958	1471948877643	1471948877792	a	65
1027	10752	Can you rough out a slide on rating agencies?	Can you rough out a slide on rating agencies?	514962	1471948877776	1471948877864	n	78
1027	10752	Can you rough out a slide on rating agencies?	Can you rough out a slide on rating agencies?	514966	1471948877974	1471948878063	 	32
1027	10752	Can you rough out a slide on rating agencies?	Can you rough out a slide on rating agencies?	514969	1471948878203	1471948878283	y	89
1027	10752	Can you rough out a slide on rating agencies?	Can you rough out a slide on rating agencies?	514970	1471948878377	1471948878494	o	79
1027	10752	Can you rough out a slide on rating agencies?	Can you rough out a slide on rating agencies?	515004	1471948878527	1471948878648	u	85
1027	10752	Can you rough out a slide on rating agencies?	Can you rough out a slide on rating agencies?	515005	1471948878882	1471948878995	 	32
1027	10752	Can you rough out a slide on rating agencies?	Can you rough out a slide on rating agencies?	515009	1471948879137	1471948879292	r	82
1027	10752	Can you rough out a slide on rating agencies?	Can you rough out a slide on rating agencies?	515011	1471948879292	1471948879396	o	79
1027	10752	Can you rough out a slide on rating agencies?	Can you rough out a slide on rating agencies?	515012	1471948879458	1471948879546	u	85
1027	10752	Can you rough out a slide on rating agencies?	Can you rough out a slide on rating agencies?	515039	1471948879610	1471948879713	g	71
1027	10752	Can you rough out a slide on rating agencies?	Can you rough out a slide on rating agencies?	515043	1471948879698	1471948879797	h	72
1027	10752	Can you rough out a slide on rating agencies?	Can you rough out a slide on rating agencies?	515048	1471948879968	1471948880053	 	32
1027	10752	Can you rough out a slide on rating agencies?	Can you rough out a slide on rating agencies?	515053	1471948880178	1471948880294	o	79
1027	10752	Can you rough out a slide on rating agencies?	Can you rough out a slide on rating agencies?	515058	1471948880356	1471948880493	u	85
1027	10752	Can you rough out a slide on rating agencies?	Can you rough out a slide on rating agencies?	515070	1471948880493	1471948880643	t	84
1027	10752	Can you rough out a slide on rating agencies?	Can you rough out a slide on rating agencies?	515071	1471948880721	1471948880813	 	32
1027	10752	Can you rough out a slide on rating agencies?	Can you rough out a slide on rating agencies?	515072	1471948880891	1471948881042	a	65
1027	10752	Can you rough out a slide on rating agencies?	Can you rough out a slide on rating agencies?	515074	1471948881042	1471948881140	 	32
1027	10752	Can you rough out a slide on rating agencies?	Can you rough out a slide on rating agencies?	515077	1471948881203	1471948881359	s	83
1027	10752	Can you rough out a slide on rating agencies?	Can you rough out a slide on rating agencies?	515110	1471948881343	1471948881476	l	76
1027	10752	Can you rough out a slide on rating agencies?	Can you rough out a slide on rating agencies?	515112	1471948881554	1471948881693	i	73
1027	10752	Can you rough out a slide on rating agencies?	Can you rough out a slide on rating agencies?	515115	1471948881677	1471948881880	d	68
1027	10752	Can you rough out a slide on rating agencies?	Can you rough out a slide on rating agencies?	515118	1471948881795	1471948881958	e	69
1027	10752	Can you rough out a slide on rating agencies?	Can you rough out a slide on rating agencies?	515120	1471948882020	1471948882113	 	32
1027	10752	Can you rough out a slide on rating agencies?	Can you rough out a slide on rating agencies?	515122	1471948882222	1471948882329	o	79
1027	10752	Can you rough out a slide on rating agencies?	Can you rough out a slide on rating agencies?	515151	1471948882424	1471948882513	n	78
1027	10752	Can you rough out a slide on rating agencies?	Can you rough out a slide on rating agencies?	515157	1471948882638	1471948882745	 	32
1027	10752	Can you rough out a slide on rating agencies?	Can you rough out a slide on rating agencies?	515162	1471948882729	1471948882829	r	82
1027	10752	Can you rough out a slide on rating agencies?	Can you rough out a slide on rating agencies?	515168	1471948882891	1471948883011	a	65
1027	10752	Can you rough out a slide on rating agencies?	Can you rough out a slide on rating agencies?	515173	1471948883104	1471948883261	t	84
1027	10752	Can you rough out a slide on rating agencies?	Can you rough out a slide on rating agencies?	515208	1471948883212	1471948883299	i	73
1027	10752	Can you rough out a slide on rating agencies?	Can you rough out a slide on rating agencies?	515209	1471948883408	1471948883497	n	78
1027	10752	Can you rough out a slide on rating agencies?	Can you rough out a slide on rating agencies?	515210	1471948883512	1471948883674	g	71
1027	10752	Can you rough out a slide on rating agencies?	Can you rough out a slide on rating agencies?	515212	1471948883706	1471948883799	 	32
1027	10752	Can you rough out a slide on rating agencies?	Can you rough out a slide on rating agencies?	515214	1471948883923	1471948884060	a	65
1027	10752	Can you rough out a slide on rating agencies?	Can you rough out a slide on rating agencies?	515217	1471948884154	1471948884262	g	71
1027	10752	Can you rough out a slide on rating agencies?	Can you rough out a slide on rating agencies?	515232	1471948884327	1471948884466	e	69
1027	10752	Can you rough out a slide on rating agencies?	Can you rough out a slide on rating agencies?	515234	1471948884429	1471948884544	n	78
1027	10752	Can you rough out a slide on rating agencies?	Can you rough out a slide on rating agencies?	515239	1471948884622	1471948884744	c	67
1027	10752	Can you rough out a slide on rating agencies?	Can you rough out a slide on rating agencies?	515242	1471948884744	1471948884846	i	73
1027	10752	Can you rough out a slide on rating agencies?	Can you rough out a slide on rating agencies?	515246	1471948884908	1471948885043	e	69
1027	10752	Can you rough out a slide on rating agencies?	Can you rough out a slide on rating agencies?	515264	1471948885138	1471948885292	s	83
1027	10752	Can you rough out a slide on rating agencies?	Can you rough out a slide on rating agencies?	515266	1471948885401	1471948885565	SHIFT	16
1027	10752	Can you rough out a slide on rating agencies?	Can you rough out a slide on rating agencies?	515268	1471948885510	1471948885643	?	191
1027	10762	The Senate vote undercut him the day before the Geneva talks.	The Senate vore undercut him the day bedore the Geneva talks.	515318	1471948887792	1471948888047	SHIFT	16
1027	10762	The Senate vote undercut him the day before the Geneva talks.	The Senate vore undercut him the day bedore the Geneva talks.	515320	1471948887964	1471948888110	T	84
1027	10762	The Senate vote undercut him the day before the Geneva talks.	The Senate vore undercut him the day bedore the Geneva talks.	515322	1471948888174	1471948888277	h	72
1027	10762	The Senate vote undercut him the day before the Geneva talks.	The Senate vore undercut him the day bedore the Geneva talks.	515324	1471948888262	1471948888393	e	69
1027	10762	The Senate vote undercut him the day before the Geneva talks.	The Senate vore undercut him the day bedore the Geneva talks.	515325	1471948888440	1471948888553	 	32
1027	10762	The Senate vote undercut him the day before the Geneva talks.	The Senate vore undercut him the day bedore the Geneva talks.	515429	1471948888520	1471948888710	s	83
1027	10762	The Senate vote undercut him the day before the Geneva talks.	The Senate vore undercut him the day bedore the Geneva talks.	515430	1471948889511	1471948889543	SHIFT	16
1027	10762	The Senate vote undercut him the day before the Geneva talks.	The Senate vore undercut him the day bedore the Geneva talks.	515432	1471948889747	1471948889909	BKSP	8
1027	10762	The Senate vote undercut him the day before the Geneva talks.	The Senate vore undercut him the day bedore the Geneva talks.	515434	1471948890314	1471948890745	SHIFT	16
1027	10762	The Senate vote undercut him the day before the Geneva talks.	The Senate vore undercut him the day bedore the Geneva talks.	515436	1471948890629	1471948890776	S	83
1027	10762	The Senate vote undercut him the day before the Geneva talks.	The Senate vore undercut him the day bedore the Geneva talks.	515438	1471948890823	1471948890959	e	69
1027	10762	The Senate vote undercut him the day before the Geneva talks.	The Senate vore undercut him the day bedore the Geneva talks.	515440	1471948891131	1471948891213	a	65
1027	10762	The Senate vote undercut him the day before the Geneva talks.	The Senate vore undercut him the day bedore the Geneva talks.	515441	1471948891747	1471948891861	BKSP	8
1027	10762	The Senate vote undercut him the day before the Geneva talks.	The Senate vore undercut him the day bedore the Geneva talks.	515442	1471948892079	1471948892198	n	78
1027	10762	The Senate vote undercut him the day before the Geneva talks.	The Senate vore undercut him the day bedore the Geneva talks.	515466	1471948892147	1471948892263	a	65
1027	10762	The Senate vote undercut him the day before the Geneva talks.	The Senate vore undercut him the day bedore the Geneva talks.	515469	1471948892325	1471948892444	t	84
1027	10762	The Senate vote undercut him the day before the Geneva talks.	The Senate vore undercut him the day bedore the Geneva talks.	515470	1471948892475	1471948892610	e	69
1027	10762	The Senate vote undercut him the day before the Geneva talks.	The Senate vore undercut him the day bedore the Geneva talks.	515471	1471948892641	1471948892761	 	32
1027	10762	The Senate vote undercut him the day before the Geneva talks.	The Senate vore undercut him the day bedore the Geneva talks.	515472	1471948892823	1471948892960	v	86
1027	10762	The Senate vote undercut him the day before the Geneva talks.	The Senate vore undercut him the day bedore the Geneva talks.	515473	1471948893022	1471948893176	o	79
1027	10762	The Senate vote undercut him the day before the Geneva talks.	The Senate vore undercut him the day bedore the Geneva talks.	515494	1471948893176	1471948893359	r	82
1027	10762	The Senate vote undercut him the day before the Geneva talks.	The Senate vore undercut him the day bedore the Geneva talks.	515495	1471948893325	1471948893460	e	69
1027	10762	The Senate vote undercut him the day before the Geneva talks.	The Senate vore undercut him the day bedore the Geneva talks.	515496	1471948893616	1471948893697	 	32
1027	10762	The Senate vote undercut him the day before the Geneva talks.	The Senate vore undercut him the day bedore the Geneva talks.	515497	1471948893900	1471948893996	u	85
1027	10762	The Senate vote undercut him the day before the Geneva talks.	The Senate vore undercut him the day bedore the Geneva talks.	515498	1471948894074	1471948894219	n	78
1027	10762	The Senate vote undercut him the day before the Geneva talks.	The Senate vore undercut him the day bedore the Geneva talks.	515510	1471948894163	1471948894300	d	68
1027	10762	The Senate vote undercut him the day before the Geneva talks.	The Senate vore undercut him the day bedore the Geneva talks.	515511	1471948894264	1471948894461	e	69
1027	10762	The Senate vote undercut him the day before the Geneva talks.	The Senate vore undercut him the day bedore the Geneva talks.	515513	1471948894424	1471948894528	r	82
1027	10762	The Senate vote undercut him the day before the Geneva talks.	The Senate vore undercut him the day bedore the Geneva talks.	515515	1471948894733	1471948894860	c	67
1027	10762	The Senate vote undercut him the day before the Geneva talks.	The Senate vore undercut him the day bedore the Geneva talks.	515517	1471948894876	1471948895025	u	85
1027	10762	The Senate vote undercut him the day before the Geneva talks.	The Senate vore undercut him the day bedore the Geneva talks.	515519	1471948895041	1471948895192	t	84
1027	10762	The Senate vote undercut him the day before the Geneva talks.	The Senate vore undercut him the day bedore the Geneva talks.	515521	1471948895240	1471948895313	 	32
1027	10762	The Senate vote undercut him the day before the Geneva talks.	The Senate vore undercut him the day bedore the Geneva talks.	515523	1471948895422	1471948895528	h	72
1027	10762	The Senate vote undercut him the day before the Geneva talks.	The Senate vore undercut him the day bedore the Geneva talks.	515525	1471948895622	1471948895759	i	73
1027	10762	The Senate vote undercut him the day before the Geneva talks.	The Senate vore undercut him the day bedore the Geneva talks.	515529	1471948895884	1471948895964	m	77
1027	10762	The Senate vote undercut him the day before the Geneva talks.	The Senate vore undercut him the day bedore the Geneva talks.	515532	1471948896120	1471948896230	 	32
1027	10762	The Senate vote undercut him the day before the Geneva talks.	The Senate vore undercut him the day bedore the Geneva talks.	515571	1471948896372	1471948896526	t	84
1027	10762	The Senate vote undercut him the day before the Geneva talks.	The Senate vore undercut him the day bedore the Geneva talks.	515573	1471948896511	1471948896627	h	72
1027	10762	The Senate vote undercut him the day before the Geneva talks.	The Senate vore undercut him the day bedore the Geneva talks.	515576	1471948896674	1471948896796	e	69
1027	10762	The Senate vote undercut him the day before the Geneva talks.	The Senate vore undercut him the day bedore the Geneva talks.	515578	1471948896828	1471948896945	 	32
1027	10762	The Senate vote undercut him the day before the Geneva talks.	The Senate vore undercut him the day bedore the Geneva talks.	515581	1471948897479	1471948897641	d	68
1027	10762	The Senate vote undercut him the day before the Geneva talks.	The Senate vore undercut him the day bedore the Geneva talks.	515617	1471948897641	1471948897808	a	65
1027	10762	The Senate vote undercut him the day before the Geneva talks.	The Senate vore undercut him the day bedore the Geneva talks.	515618	1471948897808	1471948897928	y	89
1027	10762	The Senate vote undercut him the day before the Geneva talks.	The Senate vore undercut him the day bedore the Geneva talks.	515620	1471948898193	1471948898296	 	32
1027	10762	The Senate vote undercut him the day before the Geneva talks.	The Senate vore undercut him the day bedore the Geneva talks.	515622	1471948898421	1471948898544	b	66
1027	10762	The Senate vote undercut him the day before the Geneva talks.	The Senate vore undercut him the day bedore the Geneva talks.	515624	1471948898528	1471948898628	e	69
1027	10762	The Senate vote undercut him the day before the Geneva talks.	The Senate vore undercut him the day bedore the Geneva talks.	515626	1471948898753	1471948898895	d	68
1027	10762	The Senate vote undercut him the day before the Geneva talks.	The Senate vore undercut him the day bedore the Geneva talks.	515640	1471948898895	1471948899057	o	79
1027	10762	The Senate vote undercut him the day before the Geneva talks.	The Senate vore undercut him the day bedore the Geneva talks.	515641	1471948899042	1471948899214	r	82
1027	10762	The Senate vote undercut him the day before the Geneva talks.	The Senate vore undercut him the day bedore the Geneva talks.	515642	1471948899176	1471948899310	e	69
1027	10762	The Senate vote undercut him the day before the Geneva talks.	The Senate vore undercut him the day bedore the Geneva talks.	515643	1471948899434	1471948899545	 	32
1027	10762	The Senate vote undercut him the day before the Geneva talks.	The Senate vore undercut him the day bedore the Geneva talks.	515644	1471948899607	1471948899712	t	84
1027	10762	The Senate vote undercut him the day before the Geneva talks.	The Senate vore undercut him the day bedore the Geneva talks.	515657	1471948899712	1471948899812	h	72
1027	10762	The Senate vote undercut him the day before the Geneva talks.	The Senate vore undercut him the day bedore the Geneva talks.	515659	1471948899843	1471948899961	e	69
1027	10762	The Senate vote undercut him the day before the Geneva talks.	The Senate vore undercut him the day bedore the Geneva talks.	515661	1471948900008	1471948900096	 	32
1027	10762	The Senate vote undercut him the day before the Geneva talks.	The Senate vore undercut him the day bedore the Geneva talks.	515665	1471948900252	1471948900597	SHIFT	16
1027	10762	The Senate vote undercut him the day before the Geneva talks.	The Senate vore undercut him the day bedore the Geneva talks.	515669	1471948900517	1471948900765	G	71
1027	10762	The Senate vote undercut him the day before the Geneva talks.	The Senate vore undercut him the day bedore the Geneva talks.	515697	1471948900722	1471948900860	e	69
1027	10762	The Senate vote undercut him the day before the Geneva talks.	The Senate vore undercut him the day bedore the Geneva talks.	515700	1471948901425	1471948901565	n	78
1027	10762	The Senate vote undercut him the day before the Geneva talks.	The Senate vore undercut him the day bedore the Geneva talks.	515703	1471948901497	1471948901643	e	69
1027	10762	The Senate vote undercut him the day before the Geneva talks.	The Senate vore undercut him the day bedore the Geneva talks.	515706	1471948901768	1471948901878	v	86
1027	10762	The Senate vote undercut him the day before the Geneva talks.	The Senate vore undercut him the day bedore the Geneva talks.	515709	1471948902003	1471948902183	a	65
1027	10762	The Senate vote undercut him the day before the Geneva talks.	The Senate vore undercut him the day bedore the Geneva talks.	515711	1471948902245	1471948902332	 	32
1027	10762	The Senate vote undercut him the day before the Geneva talks.	The Senate vore undercut him the day bedore the Geneva talks.	515788	1471948902583	1471948902739	SHIFT	16
1027	10762	The Senate vote undercut him the day before the Geneva talks.	The Senate vore undercut him the day bedore the Geneva talks.	515790	1471948903009	1471948903096	t	84
1027	10762	The Senate vote undercut him the day before the Geneva talks.	The Senate vore undercut him the day bedore the Geneva talks.	515792	1471948903236	1471948903394	a	65
1027	10762	The Senate vote undercut him the day before the Geneva talks.	The Senate vore undercut him the day bedore the Geneva talks.	515794	1471948903360	1471948903466	l	76
1027	10762	The Senate vote undercut him the day before the Geneva talks.	The Senate vore undercut him the day bedore the Geneva talks.	515796	1471948903431	1471948903544	k	75
1027	10762	The Senate vote undercut him the day before the Geneva talks.	The Senate vore undercut him the day bedore the Geneva talks.	515798	1471948904985	1471948905157	s	83
1027	10762	The Senate vote undercut him the day before the Geneva talks.	The Senate vore undercut him the day bedore the Geneva talks.	515802	1471948905157	1471948905232	.	190
1027	10770	Normally we just eat and run.	Normally we just eat and run.	515863	1471948907460	1471948907764	SHIFT	16
1027	10770	Normally we just eat and run.	Normally we just eat and run.	515866	1471948907696	1471948907826	N	78
1027	10770	Normally we just eat and run.	Normally we just eat and run.	515868	1471948907935	1471948908047	o	79
1027	10770	Normally we just eat and run.	Normally we just eat and run.	515870	1471948908047	1471948908161	r	82
1027	10770	Normally we just eat and run.	Normally we just eat and run.	515872	1471948908176	1471948908278	m	77
1027	10770	Normally we just eat and run.	Normally we just eat and run.	515874	1471948908325	1471948908475	a	65
1027	10770	Normally we just eat and run.	Normally we just eat and run.	515886	1471948908460	1471948908546	l	76
1027	10770	Normally we just eat and run.	Normally we just eat and run.	515887	1471948908624	1471948908713	l	76
1027	10770	Normally we just eat and run.	Normally we just eat and run.	515888	1471948908837	1471948908961	y	89
1027	10770	Normally we just eat and run.	Normally we just eat and run.	515889	1471948909212	1471948909327	 	32
1027	10770	Normally we just eat and run.	Normally we just eat and run.	515890	1471948909359	1471948909598	w	87
1027	10770	Normally we just eat and run.	Normally we just eat and run.	515928	1471948909555	1471948909662	e	69
1027	10770	Normally we just eat and run.	Normally we just eat and run.	515929	1471948909709	1471948909811	 	32
1027	10770	Normally we just eat and run.	Normally we just eat and run.	515931	1471948910108	1471948910196	j	74
1027	10770	Normally we just eat and run.	Normally we just eat and run.	515933	1471948910352	1471948910492	u	85
1027	10770	Normally we just eat and run.	Normally we just eat and run.	515936	1471948910477	1471948910610	s	83
1027	10770	Normally we just eat and run.	Normally we just eat and run.	515939	1471948910656	1471948910808	t	84
1027	10770	Normally we just eat and run.	Normally we just eat and run.	515980	1471948910823	1471948910975	 	32
1027	10770	Normally we just eat and run.	Normally we just eat and run.	515983	1471948911024	1471948911128	e	69
1027	10770	Normally we just eat and run.	Normally we just eat and run.	515985	1471948911786	1471948911894	a	65
1027	10770	Normally we just eat and run.	Normally we just eat and run.	515988	1471948911988	1471948912126	t	84
1027	10770	Normally we just eat and run.	Normally we just eat and run.	515990	1471948912141	1471948912261	 	32
1027	10770	Normally we just eat and run.	Normally we just eat and run.	516006	1471948912309	1471948912458	a	65
1027	10770	Normally we just eat and run.	Normally we just eat and run.	516007	1471948912442	1471948912529	n	78
1027	10770	Normally we just eat and run.	Normally we just eat and run.	516008	1471948912576	1471948912724	d	68
1027	10770	Normally we just eat and run.	Normally we just eat and run.	516010	1471948912756	1471948912846	 	32
1027	10770	Normally we just eat and run.	Normally we just eat and run.	516012	1471948913080	1471948913225	r	82
1027	10770	Normally we just eat and run.	Normally we just eat and run.	516033	1471948913225	1471948913329	u	85
1027	10770	Normally we just eat and run.	Normally we just eat and run.	516037	1471948913422	1471948913528	n	78
1027	10770	Normally we just eat and run.	Normally we just eat and run.	516041	1471948913981	1471948914063	.	190
1027	10776	Let us not invite unnecessary irritants to this relationship.	Let us not invite unnecessary irratants to this relationship.	516124	1471948916226	1471948916481	SHIFT	16
1027	10776	Let us not invite unnecessary irritants to this relationship.	Let us not invite unnecessary irratants to this relationship.	516125	1471948916429	1471948916590	L	76
1027	10776	Let us not invite unnecessary irritants to this relationship.	Let us not invite unnecessary irratants to this relationship.	516126	1471948916699	1471948916826	e	69
1027	10776	Let us not invite unnecessary irritants to this relationship.	Let us not invite unnecessary irratants to this relationship.	516127	1471948916873	1471948917043	t	84
1027	10776	Let us not invite unnecessary irritants to this relationship.	Let us not invite unnecessary irratants to this relationship.	516128	1471948917010	1471948917097	 	32
1027	10776	Let us not invite unnecessary irritants to this relationship.	Let us not invite unnecessary irratants to this relationship.	516129	1471948917351	1471948917478	s	83
1027	10776	Let us not invite unnecessary irritants to this relationship.	Let us not invite unnecessary irratants to this relationship.	516171	1471948917870	1471948917993	BKSP	8
1027	10776	Let us not invite unnecessary irritants to this relationship.	Let us not invite unnecessary irratants to this relationship.	516174	1471948918196	1471948918279	u	85
1027	10776	Let us not invite unnecessary irritants to this relationship.	Let us not invite unnecessary irratants to this relationship.	516176	1471948918279	1471948918440	s	83
1027	10776	Let us not invite unnecessary irritants to this relationship.	Let us not invite unnecessary irratants to this relationship.	516178	1471948918455	1471948918530	 	32
1027	10776	Let us not invite unnecessary irritants to this relationship.	Let us not invite unnecessary irratants to this relationship.	516179	1471948918639	1471948918729	n	78
1027	10776	Let us not invite unnecessary irritants to this relationship.	Let us not invite unnecessary irratants to this relationship.	516180	1471948918807	1471948918958	o	79
1027	10776	Let us not invite unnecessary irritants to this relationship.	Let us not invite unnecessary irratants to this relationship.	516190	1471948918958	1471948919077	t	84
1027	10776	Let us not invite unnecessary irritants to this relationship.	Let us not invite unnecessary irratants to this relationship.	516192	1471948919513	1471948919612	 	32
1027	10776	Let us not invite unnecessary irritants to this relationship.	Let us not invite unnecessary irratants to this relationship.	516194	1471948919752	1471948919817	i	73
1027	10776	Let us not invite unnecessary irritants to this relationship.	Let us not invite unnecessary irratants to this relationship.	516196	1471948919910	1471948920011	n	78
1027	10776	Let us not invite unnecessary irritants to this relationship.	Let us not invite unnecessary irratants to this relationship.	516198	1471948920042	1471948920199	v	86
1027	10776	Let us not invite unnecessary irritants to this relationship.	Let us not invite unnecessary irratants to this relationship.	516216	1471948920160	1471948920293	i	73
1027	10776	Let us not invite unnecessary irritants to this relationship.	Let us not invite unnecessary irratants to this relationship.	516220	1471948920340	1471948920492	t	84
1027	10776	Let us not invite unnecessary irritants to this relationship.	Let us not invite unnecessary irratants to this relationship.	516225	1471948920554	1471948920676	e	69
1027	10776	Let us not invite unnecessary irritants to this relationship.	Let us not invite unnecessary irratants to this relationship.	516229	1471948920739	1471948920844	 	32
1027	10776	Let us not invite unnecessary irritants to this relationship.	Let us not invite unnecessary irratants to this relationship.	516232	1471948921187	1471948921294	u	85
1027	10776	Let us not invite unnecessary irritants to this relationship.	Let us not invite unnecessary irratants to this relationship.	516234	1471948921450	1471948921530	n	78
1027	10776	Let us not invite unnecessary irritants to this relationship.	Let us not invite unnecessary irratants to this relationship.	516247	1471948921625	1471948921728	n	78
1027	10776	Let us not invite unnecessary irritants to this relationship.	Let us not invite unnecessary irratants to this relationship.	516249	1471948921837	1471948921960	e	69
1027	10776	Let us not invite unnecessary irritants to this relationship.	Let us not invite unnecessary irratants to this relationship.	516252	1471948922116	1471948922229	c	67
1027	10776	Let us not invite unnecessary irritants to this relationship.	Let us not invite unnecessary irratants to this relationship.	516254	1471948922354	1471948922462	e	69
1027	10776	Let us not invite unnecessary irritants to this relationship.	Let us not invite unnecessary irratants to this relationship.	516257	1471948922571	1471948922677	e	69
1027	10776	Let us not invite unnecessary irritants to this relationship.	Let us not invite unnecessary irratants to this relationship.	516285	1471948922837	1471948923010	s	83
1027	10776	Let us not invite unnecessary irritants to this relationship.	Let us not invite unnecessary irratants to this relationship.	516287	1471948922975	1471948923109	a	65
1027	10776	Let us not invite unnecessary irritants to this relationship.	Let us not invite unnecessary irratants to this relationship.	516288	1471948923437	1471948923544	r	82
1027	10776	Let us not invite unnecessary irritants to this relationship.	Let us not invite unnecessary irratants to this relationship.	516289	1471948923560	1471948923677	y	89
1027	10776	Let us not invite unnecessary irritants to this relationship.	Let us not invite unnecessary irratants to this relationship.	516290	1471948923895	1471948923997	 	32
1027	10776	Let us not invite unnecessary irritants to this relationship.	Let us not invite unnecessary irratants to this relationship.	516570	1471948924999	1471948925111	BKSP	8
1027	10776	Let us not invite unnecessary irritants to this relationship.	Let us not invite unnecessary irratants to this relationship.	516572	1471948925220	1471948925315	BKSP	8
1027	10776	Let us not invite unnecessary irritants to this relationship.	Let us not invite unnecessary irratants to this relationship.	516573	1471948927651	1471948927745	y	89
1027	10776	Let us not invite unnecessary irritants to this relationship.	Let us not invite unnecessary irratants to this relationship.	516574	1471948927917	1471948927965	 	32
1027	10776	Let us not invite unnecessary irritants to this relationship.	Let us not invite unnecessary irratants to this relationship.	516575	1471948929034	1471948929130	ARW_LEFT	37
1027	10776	Let us not invite unnecessary irritants to this relationship.	Let us not invite unnecessary irratants to this relationship.	516576	1471948930322	1471948930417	ARW_RIGHT	39
1027	10776	Let us not invite unnecessary irritants to this relationship.	Let us not invite unnecessary irratants to this relationship.	516577	1471948930838	1471948930928	BKSP	8
1027	10776	Let us not invite unnecessary irritants to this relationship.	Let us not invite unnecessary irratants to this relationship.	516578	1471948931022	1471948931112	BKSP	8
1027	10776	Let us not invite unnecessary irritants to this relationship.	Let us not invite unnecessary irratants to this relationship.	516579	1471948931206	1471948931296	BKSP	8
1027	10776	Let us not invite unnecessary irritants to this relationship.	Let us not invite unnecessary irratants to this relationship.	516580	1471948931389	1471948931479	BKSP	8
1027	10776	Let us not invite unnecessary irritants to this relationship.	Let us not invite unnecessary irratants to this relationship.	516581	1471948931588	1471948931647	BKSP	8
1027	10776	Let us not invite unnecessary irritants to this relationship.	Let us not invite unnecessary irratants to this relationship.	516582	1471948932650	1471948932839	BKSP	8
1027	10776	Let us not invite unnecessary irritants to this relationship.	Let us not invite unnecessary irratants to this relationship.	516583	1471948933860	1471948933992	s	83
1027	10776	Let us not invite unnecessary irritants to this relationship.	Let us not invite unnecessary irratants to this relationship.	516584	1471948934086	1471948934260	s	83
1027	10776	Let us not invite unnecessary irritants to this relationship.	Let us not invite unnecessary irratants to this relationship.	516585	1471948934260	1471948934424	a	65
1027	10776	Let us not invite unnecessary irritants to this relationship.	Let us not invite unnecessary irratants to this relationship.	516597	1471948934549	1471948934692	r	82
1027	10776	Let us not invite unnecessary irritants to this relationship.	Let us not invite unnecessary irratants to this relationship.	516599	1471948934739	1471948934844	y	89
1027	10776	Let us not invite unnecessary irritants to this relationship.	Let us not invite unnecessary irratants to this relationship.	516601	1471948935156	1471948935266	 	32
1027	10776	Let us not invite unnecessary irritants to this relationship.	Let us not invite unnecessary irratants to this relationship.	516603	1471948935485	1471948935611	i	73
1027	10776	Let us not invite unnecessary irritants to this relationship.	Let us not invite unnecessary irratants to this relationship.	516605	1471948935970	1471948936062	r	82
1027	10776	Let us not invite unnecessary irritants to this relationship.	Let us not invite unnecessary irratants to this relationship.	516624	1471948936142	1471948936260	r	82
1027	10776	Let us not invite unnecessary irritants to this relationship.	Let us not invite unnecessary irratants to this relationship.	516626	1471948936338	1471948936460	a	65
1027	10776	Let us not invite unnecessary irritants to this relationship.	Let us not invite unnecessary irratants to this relationship.	516629	1471948936569	1471948936674	t	84
1027	10776	Let us not invite unnecessary irritants to this relationship.	Let us not invite unnecessary irratants to this relationship.	516633	1471948937212	1471948937360	a	65
1027	10776	Let us not invite unnecessary irritants to this relationship.	Let us not invite unnecessary irratants to this relationship.	516635	1471948937375	1471948937509	n	78
1027	10776	Let us not invite unnecessary irritants to this relationship.	Let us not invite unnecessary irratants to this relationship.	516649	1471948937558	1471948937676	t	84
1027	10776	Let us not invite unnecessary irritants to this relationship.	Let us not invite unnecessary irratants to this relationship.	516651	1471948937801	1471948937959	s	83
1027	10776	Let us not invite unnecessary irritants to this relationship.	Let us not invite unnecessary irratants to this relationship.	516653	1471948937943	1471948938045	 	32
1027	10776	Let us not invite unnecessary irritants to this relationship.	Let us not invite unnecessary irratants to this relationship.	516654	1471948938108	1471948938227	t	84
1027	10776	Let us not invite unnecessary irritants to this relationship.	Let us not invite unnecessary irratants to this relationship.	516655	1471948938243	1471948938360	o	79
1027	10776	Let us not invite unnecessary irritants to this relationship.	Let us not invite unnecessary irratants to this relationship.	516674	1471948938532	1471948938613	 	32
1027	10776	Let us not invite unnecessary irritants to this relationship.	Let us not invite unnecessary irratants to this relationship.	516676	1471948938628	1471948938777	t	84
1027	10776	Let us not invite unnecessary irritants to this relationship.	Let us not invite unnecessary irratants to this relationship.	516679	1471948938745	1471948938831	h	72
1027	10776	Let us not invite unnecessary irritants to this relationship.	Let us not invite unnecessary irratants to this relationship.	516680	1471948938925	1471948939056	i	73
1027	10776	Let us not invite unnecessary irritants to this relationship.	Let us not invite unnecessary irratants to this relationship.	516694	1471948939012	1471948939176	s	83
1027	10776	Let us not invite unnecessary irritants to this relationship.	Let us not invite unnecessary irratants to this relationship.	516696	1471948939222	1471948939313	 	32
1027	10776	Let us not invite unnecessary irritants to this relationship.	Let us not invite unnecessary irratants to this relationship.	516699	1471948939438	1471948939585	r	82
1027	10776	Let us not invite unnecessary irritants to this relationship.	Let us not invite unnecessary irratants to this relationship.	516700	1471948939552	1471948939677	e	69
1027	10776	Let us not invite unnecessary irritants to this relationship.	Let us not invite unnecessary irratants to this relationship.	516701	1471948939724	1471948939860	l	76
1027	10776	Let us not invite unnecessary irritants to this relationship.	Let us not invite unnecessary irratants to this relationship.	516729	1471948939827	1471948939928	a	65
1027	10776	Let us not invite unnecessary irritants to this relationship.	Let us not invite unnecessary irratants to this relationship.	516733	1471948940023	1471948940166	t	84
1027	10776	Let us not invite unnecessary irritants to this relationship.	Let us not invite unnecessary irratants to this relationship.	516736	1471948940127	1471948940244	i	73
1027	10776	Let us not invite unnecessary irritants to this relationship.	Let us not invite unnecessary irratants to this relationship.	516738	1471948940244	1471948940313	o	79
1027	10776	Let us not invite unnecessary irritants to this relationship.	Let us not invite unnecessary irratants to this relationship.	516740	1471948940391	1471948940495	n	78
1027	10776	Let us not invite unnecessary irritants to this relationship.	Let us not invite unnecessary irratants to this relationship.	516777	1471948940479	1471948940647	s	83
1027	10776	Let us not invite unnecessary irritants to this relationship.	Let us not invite unnecessary irratants to this relationship.	516779	1471948941211	1471948941296	h	72
1027	10776	Let us not invite unnecessary irritants to this relationship.	Let us not invite unnecessary irratants to this relationship.	516784	1471948941420	1471948941622	i	73
1027	10776	Let us not invite unnecessary irritants to this relationship.	Let us not invite unnecessary irratants to this relationship.	516786	1471948941731	1471948941844	p	80
1027	10776	Let us not invite unnecessary irritants to this relationship.	Let us not invite unnecessary irratants to this relationship.	516790	1471948942265	1471948942331	.	190
1027	10793	Please pass along my thanks, though.	Please pass along my thanks, though.	516893	1471948944526	1471948944813	SHIFT	16
1027	10793	Please pass along my thanks, though.	Please pass along my thanks, though.	516898	1471948944775	1471948944863	{	80
1027	10793	Please pass along my thanks, though.	Please pass along my thanks, though.	516902	1471948945315	1471948945459	BKSP	8
1027	10793	Please pass along my thanks, though.	Please pass along my thanks, though.	516906	1471948946007	1471948946144	l	76
1027	10793	Please pass along my thanks, though.	Please pass along my thanks, though.	516908	1471948946111	1471948946227	e	69
1027	10793	Please pass along my thanks, though.	Please pass along my thanks, though.	516910	1471948946305	1471948946480	a	65
1027	10793	Please pass along my thanks, though.	Please pass along my thanks, though.	516938	1471948946410	1471948946591	s	83
1027	10793	Please pass along my thanks, though.	Please pass along my thanks, though.	516941	1471948946607	1471948946774	e	69
1027	10793	Please pass along my thanks, though.	Please pass along my thanks, though.	516945	1471948946992	1471948947094	 	32
1027	10793	Please pass along my thanks, though.	Please pass along my thanks, though.	516948	1471948947218	1471948947365	p	80
1027	10793	Please pass along my thanks, though.	Please pass along my thanks, though.	516952	1471948947330	1471948947458	a	65
1027	10793	Please pass along my thanks, though.	Please pass along my thanks, though.	516955	1471948947536	1471948947613	s	83
1027	10793	Please pass along my thanks, though.	Please pass along my thanks, though.	516965	1471948947676	1471948947793	s	83
1027	10793	Please pass along my thanks, though.	Please pass along my thanks, though.	516967	1471948947840	1471948947944	 	32
1027	10793	Please pass along my thanks, though.	Please pass along my thanks, though.	516971	1471948947975	1471948948109	a	65
1027	10793	Please pass along my thanks, though.	Please pass along my thanks, though.	516976	1471948948093	1471948948194	l	76
1027	10793	Please pass along my thanks, though.	Please pass along my thanks, though.	516980	1471948948303	1471948948411	o	79
1027	10793	Please pass along my thanks, though.	Please pass along my thanks, though.	517037	1471948948537	1471948948629	n	78
1027	10793	Please pass along my thanks, though.	Please pass along my thanks, though.	517038	1471948948644	1471948948760	g	71
1027	10793	Please pass along my thanks, though.	Please pass along my thanks, though.	517039	1471948948822	1471948948896	 	32
1027	10793	Please pass along my thanks, though.	Please pass along my thanks, though.	517040	1471948949036	1471948949128	m	77
1027	10793	Please pass along my thanks, though.	Please pass along my thanks, though.	517042	1471948950005	1471948950095	y	89
1027	10793	Please pass along my thanks, though.	Please pass along my thanks, though.	517064	1471948950267	1471948950393	 	32
1027	10793	Please pass along my thanks, though.	Please pass along my thanks, though.	517066	1471948950424	1471948950559	t	84
1027	10793	Please pass along my thanks, though.	Please pass along my thanks, though.	517067	1471948950574	1471948950677	h	72
1027	10793	Please pass along my thanks, though.	Please pass along my thanks, though.	517068	1471948950724	1471948950858	a	65
1027	10793	Please pass along my thanks, though.	Please pass along my thanks, though.	517152	1471948950843	1471948950915	n	78
1027	10793	Please pass along my thanks, though.	Please pass along my thanks, though.	517155	1471948951071	1471948951167	k	75
1027	10793	Please pass along my thanks, though.	Please pass along my thanks, though.	517157	1471948951198	1471948951356	s	83
1027	10793	Please pass along my thanks, though.	Please pass along my thanks, though.	517161	1471948952078	1471948952162	,	188
1027	10793	Please pass along my thanks, though.	Please pass along my thanks, though.	517163	1471948952396	1471948952479	 	32
1027	10793	Please pass along my thanks, though.	Please pass along my thanks, though.	517164	1471948952791	1471948952925	t	84
1027	10793	Please pass along my thanks, though.	Please pass along my thanks, though.	517183	1471948952910	1471948953010	h	72
1027	10793	Please pass along my thanks, though.	Please pass along my thanks, though.	517185	1471948953104	1471948953264	r	82
1027	10793	Please pass along my thanks, though.	Please pass along my thanks, though.	517187	1471948953211	1471948953329	o	79
1027	10793	Please pass along my thanks, though.	Please pass along my thanks, though.	517189	1471948953360	1471948953460	u	85
1027	10793	Please pass along my thanks, though.	Please pass along my thanks, though.	517192	1471948953507	1471948953675	g	71
1027	10793	Please pass along my thanks, though.	Please pass along my thanks, though.	517337	1471948953626	1471948953728	h	72
1027	10793	Please pass along my thanks, though.	Please pass along my thanks, though.	517339	1471948954936	1471948955059	.	190
1027	10793	Please pass along my thanks, though.	Please pass along my thanks, though.	517342	1471948955373	1471948955493	BKSP	8
1027	10793	Please pass along my thanks, though.	Please pass along my thanks, though.	517345	1471948955602	1471948955679	BKSP	8
1027	10793	Please pass along my thanks, though.	Please pass along my thanks, though.	517348	1471948955757	1471948955845	BKSP	8
1027	10793	Please pass along my thanks, though.	Please pass along my thanks, though.	517350	1471948955938	1471948956013	BKSP	8
1027	10793	Please pass along my thanks, though.	Please pass along my thanks, though.	517352	1471948956107	1471948956195	BKSP	8
1027	10793	Please pass along my thanks, though.	Please pass along my thanks, though.	517354	1471948956273	1471948956362	BKSP	8
1027	10793	Please pass along my thanks, though.	Please pass along my thanks, though.	517357	1471948956830	1471948956959	o	79
1027	10793	Please pass along my thanks, though.	Please pass along my thanks, though.	517358	1471948957006	1471948957090	u	85
1027	10793	Please pass along my thanks, though.	Please pass along my thanks, though.	517363	1471948957184	1471948957294	g	71
1027	10793	Please pass along my thanks, though.	Please pass along my thanks, though.	517367	1471948957294	1471948957381	h	72
1027	10793	Please pass along my thanks, though.	Please pass along my thanks, though.	517374	1471948957915	1471948957981	.	190
