PARTICIPANT_ID	TEST_SECTION_ID	SENTENCE	USER_INPUT	KEYSTROKE_ID	PRESS_TIME	RELEASE_TIME	LETTER	KEYCODE
1077	11145	I'll call you when I get to the office.	I'll call you when I get to the office	534456	1471949443019	1471949443256	SHIFT	16
1077	11145	I'll call you when I get to the office.	I'll call you when I get to the office	534457	1471949443193	1471949443297	I	73
1077	11145	I'll call you when I get to the office.	I'll call you when I get to the office	534458	1471949444417	1471949444577	'	222
1077	11145	I'll call you when I get to the office.	I'll call you when I get to the office	534459	1471949444905	1471949444985	l	76
1077	11145	I'll call you when I get to the office.	I'll call you when I get to the office	534460	1471949445041	1471949445121	l	76
1077	11145	I'll call you when I get to the office.	I'll call you when I get to the office	534461	1471949445169	1471949445304	 	32
1077	11145	I'll call you when I get to the office.	I'll call you when I get to the office	534483	1471949445265	1471949445409	c	67
1077	11145	I'll call you when I get to the office.	I'll call you when I get to the office	534484	1471949445345	1471949445505	a	65
1077	11145	I'll call you when I get to the office.	I'll call you when I get to the office	534485	1471949445520	1471949445624	l	76
1077	11145	I'll call you when I get to the office.	I'll call you when I get to the office	534486	1471949445688	1471949445768	l	76
1077	11145	I'll call you when I get to the office.	I'll call you when I get to the office	534487	1471949445920	1471949446040	 	32
1077	11145	I'll call you when I get to the office.	I'll call you when I get to the office	534488	1471949446448	1471949446545	y	89
1077	11145	I'll call you when I get to the office.	I'll call you when I get to the office	534500	1471949446601	1471949446801	o	79
1077	11145	I'll call you when I get to the office.	I'll call you when I get to the office	534501	1471949446737	1471949446841	u	85
1077	11145	I'll call you when I get to the office.	I'll call you when I get to the office	534502	1471949446897	1471949447017	 	32
1077	11145	I'll call you when I get to the office.	I'll call you when I get to the office	534504	1471949447057	1471949447137	e	69
1077	11145	I'll call you when I get to the office.	I'll call you when I get to the office	534570	1471949447113	1471949447193	h	72
1077	11145	I'll call you when I get to the office.	I'll call you when I get to the office	534571	1471949447641	1471949447721	BKSP	8
1077	11145	I'll call you when I get to the office.	I'll call you when I get to the office	534572	1471949447785	1471949447905	BKSP	8
1077	11145	I'll call you when I get to the office.	I'll call you when I get to the office	534573	1471949447929	1471949448025	w	87
1077	11145	I'll call you when I get to the office.	I'll call you when I get to the office	534574	1471949448417	1471949448617	e	69
1077	11145	I'll call you when I get to the office.	I'll call you when I get to the office	534575	1471949449129	1471949449249	BKSP	8
1077	11145	I'll call you when I get to the office.	I'll call you when I get to the office	534576	1471949449433	1471949449553	h	72
1077	11145	I'll call you when I get to the office.	I'll call you when I get to the office	534578	1471949449569	1471949449673	e	69
1077	11145	I'll call you when I get to the office.	I'll call you when I get to the office	534580	1471949449690	1471949449809	n	78
1077	11145	I'll call you when I get to the office.	I'll call you when I get to the office	534611	1471949449986	1471949450121	 	32
1077	11145	I'll call you when I get to the office.	I'll call you when I get to the office	534615	1471949450209	1471949450385	SHIFT	16
1077	11145	I'll call you when I get to the office.	I'll call you when I get to the office	534619	1471949450305	1471949450425	I	73
1077	11145	I'll call you when I get to the office.	I'll call you when I get to the office	534623	1471949450449	1471949450585	 	32
1077	11145	I'll call you when I get to the office.	I'll call you when I get to the office	534626	1471949450665	1471949450801	g	71
1077	11145	I'll call you when I get to the office.	I'll call you when I get to the office	534668	1471949450785	1471949450881	e	69
1077	11145	I'll call you when I get to the office.	I'll call you when I get to the office	534669	1471949450921	1471949451057	t	84
1077	11145	I'll call you when I get to the office.	I'll call you when I get to the office	534670	1471949451401	1471949451537	 	32
1077	11145	I'll call you when I get to the office.	I'll call you when I get to the office	534671	1471949451889	1471949452025	t	84
1077	11145	I'll call you when I get to the office.	I'll call you when I get to the office	534672	1471949452009	1471949452145	o	79
1077	11145	I'll call you when I get to the office.	I'll call you when I get to the office	534673	1471949452169	1471949452265	 	32
1077	11145	I'll call you when I get to the office.	I'll call you when I get to the office	534689	1471949452345	1471949452449	t	84
1077	11145	I'll call you when I get to the office.	I'll call you when I get to the office	534690	1471949452521	1471949452641	h	72
1077	11145	I'll call you when I get to the office.	I'll call you when I get to the office	534691	1471949452625	1471949452777	e	69
1077	11145	I'll call you when I get to the office.	I'll call you when I get to the office	534692	1471949452665	1471949452801	 	32
1077	11145	I'll call you when I get to the office.	I'll call you when I get to the office	534693	1471949452841	1471949452961	o	79
1077	11145	I'll call you when I get to the office.	I'll call you when I get to the office	534703	1471949452985	1471949453041	f	70
1077	11145	I'll call you when I get to the office.	I'll call you when I get to the office	534704	1471949453513	1471949453633	f	70
1077	11145	I'll call you when I get to the office.	I'll call you when I get to the office	534705	1471949453681	1471949453841	i	73
1077	11145	I'll call you when I get to the office.	I'll call you when I get to the office	534706	1471949453857	1471949454001	c	67
1077	11145	I'll call you when I get to the office.	I'll call you when I get to the office	534758	1471949453921	1471949454081	e	69
1077	11160	It's going to be a tough weekend.	It's going to be a tough weekend	534870	1471949460697	1471949461128	SHIFT	16
1077	11160	It's going to be a tough weekend.	It's going to be a tough weekend	534871	1471949461033	1471949461168	I	73
1077	11160	It's going to be a tough weekend.	It's going to be a tough weekend	534873	1471949461401	1471949461520	t	84
1077	11160	It's going to be a tough weekend.	It's going to be a tough weekend	534875	1471949461648	1471949461784	'	222
1077	11160	It's going to be a tough weekend.	It's going to be a tough weekend	534877	1471949461744	1471949461888	s	83
1077	11160	It's going to be a tough weekend.	It's going to be a tough weekend	534897	1471949461864	1471949462024	 	32
1077	11160	It's going to be a tough weekend.	It's going to be a tough weekend	534900	1471949462064	1471949462200	g	71
1077	11160	It's going to be a tough weekend.	It's going to be a tough weekend	534902	1471949462185	1471949462360	o	79
1077	11160	It's going to be a tough weekend.	It's going to be a tough weekend	534903	1471949462318	1471949462400	i	73
1077	11160	It's going to be a tough weekend.	It's going to be a tough weekend	534904	1471949462512	1471949462632	n	78
1077	11160	It's going to be a tough weekend.	It's going to be a tough weekend	534909	1471949462552	1471949462688	g	71
1077	11160	It's going to be a tough weekend.	It's going to be a tough weekend	534912	1471949462704	1471949462824	 	32
1077	11160	It's going to be a tough weekend.	It's going to be a tough weekend	534914	1471949462784	1471949462904	t	84
1077	11160	It's going to be a tough weekend.	It's going to be a tough weekend	534918	1471949462928	1471949463048	o	79
1077	11160	It's going to be a tough weekend.	It's going to be a tough weekend	534921	1471949463088	1471949463184	 	32
1077	11160	It's going to be a tough weekend.	It's going to be a tough weekend	534924	1471949463232	1471949463368	b	66
1077	11160	It's going to be a tough weekend.	It's going to be a tough weekend	534937	1471949463328	1471949463472	e	69
1077	11160	It's going to be a tough weekend.	It's going to be a tough weekend	534939	1471949463488	1471949463592	 	32
1077	11160	It's going to be a tough weekend.	It's going to be a tough weekend	534941	1471949463568	1471949463688	a	65
1077	11160	It's going to be a tough weekend.	It's going to be a tough weekend	534943	1471949463728	1471949463872	 	32
1077	11160	It's going to be a tough weekend.	It's going to be a tough weekend	534944	1471949463888	1471949464009	t	84
1077	11160	It's going to be a tough weekend.	It's going to be a tough weekend	534945	1471949464033	1471949464225	o	79
1077	11160	It's going to be a tough weekend.	It's going to be a tough weekend	534963	1471949464169	1471949464290	u	85
1077	11160	It's going to be a tough weekend.	It's going to be a tough weekend	534969	1471949464409	1471949464529	g	71
1077	11160	It's going to be a tough weekend.	It's going to be a tough weekend	534975	1471949464473	1471949464625	h	72
1077	11160	It's going to be a tough weekend.	It's going to be a tough weekend	534978	1471949464729	1471949464849	 	32
1077	11160	It's going to be a tough weekend.	It's going to be a tough weekend	534981	1471949464977	1471949465097	w	87
1077	11160	It's going to be a tough weekend.	It's going to be a tough weekend	534984	1471949465241	1471949465313	e	69
1077	11160	It's going to be a tough weekend.	It's going to be a tough weekend	535018	1471949465385	1471949465505	e	69
1077	11160	It's going to be a tough weekend.	It's going to be a tough weekend	535021	1471949465657	1471949465793	k	75
1077	11160	It's going to be a tough weekend.	It's going to be a tough weekend	535025	1471949465993	1471949466097	e	69
1077	11160	It's going to be a tough weekend.	It's going to be a tough weekend	535028	1471949466153	1471949466305	n	78
1077	11160	It's going to be a tough weekend.	It's going to be a tough weekend	535029	1471949466265	1471949466409	d	68
1077	11165	Thanks so much for the message.	Thanks so much for the message	535186	1471949470113	1471949470585	SHIFT	16
1077	11165	Thanks so much for the message.	Thanks so much for the message	535183	1471949470449	1471949470569	T	84
1077	11165	Thanks so much for the message.	Thanks so much for the message	535188	1471949470929	1471949471025	h	72
1077	11165	Thanks so much for the message.	Thanks so much for the message	535191	1471949471065	1471949471209	a	65
1077	11165	Thanks so much for the message.	Thanks so much for the message	535195	1471949471145	1471949471329	n	78
1077	11165	Thanks so much for the message.	Thanks so much for the message	535232	1471949471249	1471949471385	k	75
1077	11165	Thanks so much for the message.	Thanks so much for the message	535233	1471949471345	1471949471441	s	83
1077	11165	Thanks so much for the message.	Thanks so much for the message	535234	1471949471633	1471949471777	 	32
1077	11165	Thanks so much for the message.	Thanks so much for the message	535235	1471949472064	1471949472169	s	83
1077	11165	Thanks so much for the message.	Thanks so much for the message	535236	1471949472129	1471949472265	o	79
1077	11165	Thanks so much for the message.	Thanks so much for the message	535237	1471949472312	1471949472433	 	32
1077	11165	Thanks so much for the message.	Thanks so much for the message	535264	1471949472497	1471949472713	m	77
1077	11165	Thanks so much for the message.	Thanks so much for the message	535267	1471949472633	1471949472753	u	85
1077	11165	Thanks so much for the message.	Thanks so much for the message	535270	1471949472673	1471949472833	c	67
1077	11165	Thanks so much for the message.	Thanks so much for the message	535273	1471949472793	1471949472936	h	72
1077	11165	Thanks so much for the message.	Thanks so much for the message	535275	1471949472992	1471949473112	 	32
1077	11165	Thanks so much for the message.	Thanks so much for the message	535283	1471949473088	1471949473209	f	70
1077	11165	Thanks so much for the message.	Thanks so much for the message	535287	1471949473169	1471949473289	o	79
1077	11165	Thanks so much for the message.	Thanks so much for the message	535290	1471949473305	1471949473408	r	82
1077	11165	Thanks so much for the message.	Thanks so much for the message	535294	1471949473345	1471949473464	 	32
1077	11165	Thanks so much for the message.	Thanks so much for the message	535298	1471949473561	1471949473664	t	84
1077	11165	Thanks so much for the message.	Thanks so much for the message	535302	1471949473728	1471949473864	h	72
1077	11165	Thanks so much for the message.	Thanks so much for the message	535326	1471949473832	1471949473985	e	69
1077	11165	Thanks so much for the message.	Thanks so much for the message	535328	1471949473969	1471949474145	 	32
1077	11165	Thanks so much for the message.	Thanks so much for the message	535330	1471949474129	1471949474289	m	77
1077	11165	Thanks so much for the message.	Thanks so much for the message	535332	1471949474265	1471949474361	e	69
1077	11165	Thanks so much for the message.	Thanks so much for the message	535334	1471949474480	1471949474536	s	83
1077	11165	Thanks so much for the message.	Thanks so much for the message	535335	1471949474608	1471949474744	s	83
1077	11165	Thanks so much for the message.	Thanks so much for the message	535362	1471949474704	1471949474841	a	65
1077	11165	Thanks so much for the message.	Thanks so much for the message	535364	1471949474825	1471949474960	g	71
1077	11165	Thanks so much for the message.	Thanks so much for the message	535365	1471949474985	1471949475081	e	69
1077	11172	I am hoping to complete them today or tomorrow morning.	I am hooing to complere them todat or tomorrow morning.	535513	1471949479176	1471949479496	SHIFT	16
1077	11172	I am hoping to complete them today or tomorrow morning.	I am hooing to complere them todat or tomorrow morning.	535512	1471949479376	1471949479472	I	73
1077	11172	I am hoping to complete them today or tomorrow morning.	I am hooing to complere them todat or tomorrow morning.	535514	1471949479560	1471949479656	 	32
1077	11172	I am hoping to complete them today or tomorrow morning.	I am hooing to complere them todat or tomorrow morning.	535516	1471949479616	1471949479720	a	65
1077	11172	I am hoping to complete them today or tomorrow morning.	I am hooing to complere them todat or tomorrow morning.	535518	1471949479736	1471949479856	m	77
1077	11172	I am hoping to complete them today or tomorrow morning.	I am hooing to complere them todat or tomorrow morning.	535520	1471949479880	1471949479952	 	32
1077	11172	I am hoping to complete them today or tomorrow morning.	I am hooing to complere them todat or tomorrow morning.	535540	1471949480040	1471949480176	h	72
1077	11172	I am hoping to complete them today or tomorrow morning.	I am hooing to complere them todat or tomorrow morning.	535544	1471949480112	1471949480256	o	79
1077	11172	I am hoping to complete them today or tomorrow morning.	I am hooing to complere them todat or tomorrow morning.	535548	1471949480368	1471949480512	o	79
1077	11172	I am hoping to complete them today or tomorrow morning.	I am hooing to complere them todat or tomorrow morning.	535552	1471949480472	1471949480584	i	73
1077	11172	I am hoping to complete them today or tomorrow morning.	I am hooing to complere them todat or tomorrow morning.	535555	1471949480720	1471949480816	n	78
1077	11172	I am hoping to complete them today or tomorrow morning.	I am hooing to complere them todat or tomorrow morning.	535571	1471949480800	1471949480896	g	71
1077	11172	I am hoping to complete them today or tomorrow morning.	I am hooing to complere them todat or tomorrow morning.	535573	1471949480912	1471949481017	 	32
1077	11172	I am hoping to complete them today or tomorrow morning.	I am hooing to complere them todat or tomorrow morning.	535577	1471949481007	1471949481097	t	84
1077	11172	I am hoping to complete them today or tomorrow morning.	I am hooing to complere them todat or tomorrow morning.	535579	1471949481073	1471949481192	o	79
1077	11172	I am hoping to complete them today or tomorrow morning.	I am hooing to complere them todat or tomorrow morning.	535580	1471949481240	1471949481376	 	32
1077	11172	I am hoping to complete them today or tomorrow morning.	I am hooing to complere them todat or tomorrow morning.	535583	1471949481432	1471949481593	c	67
1077	11172	I am hoping to complete them today or tomorrow morning.	I am hooing to complere them todat or tomorrow morning.	535602	1471949481566	1471949481673	o	79
1077	11172	I am hoping to complete them today or tomorrow morning.	I am hooing to complere them todat or tomorrow morning.	535603	1471949481737	1471949481833	m	77
1077	11172	I am hoping to complete them today or tomorrow morning.	I am hooing to complere them todat or tomorrow morning.	535604	1471949481889	1471949482009	p	80
1077	11172	I am hoping to complete them today or tomorrow morning.	I am hooing to complere them todat or tomorrow morning.	535605	1471949482033	1471949482153	l	76
1077	11172	I am hoping to complete them today or tomorrow morning.	I am hooing to complere them todat or tomorrow morning.	535606	1471949482201	1471949482337	e	69
1077	11172	I am hoping to complete them today or tomorrow morning.	I am hooing to complere them todat or tomorrow morning.	535607	1471949482361	1471949482521	r	82
1077	11172	I am hoping to complete them today or tomorrow morning.	I am hooing to complere them todat or tomorrow morning.	535631	1471949482497	1471949482577	e	69
1077	11172	I am hoping to complete them today or tomorrow morning.	I am hooing to complere them todat or tomorrow morning.	535632	1471949482833	1471949482977	 	32
1077	11172	I am hoping to complete them today or tomorrow morning.	I am hooing to complere them todat or tomorrow morning.	535633	1471949483161	1471949483257	t	84
1077	11172	I am hoping to complete them today or tomorrow morning.	I am hooing to complere them todat or tomorrow morning.	535634	1471949483329	1471949483425	h	72
1077	11172	I am hoping to complete them today or tomorrow morning.	I am hooing to complere them todat or tomorrow morning.	535635	1471949483409	1471949483529	e	69
1077	11172	I am hoping to complete them today or tomorrow morning.	I am hooing to complere them todat or tomorrow morning.	535637	1471949483545	1471949483689	m	77
1077	11172	I am hoping to complete them today or tomorrow morning.	I am hooing to complere them todat or tomorrow morning.	535654	1471949483737	1471949483857	 	32
1077	11172	I am hoping to complete them today or tomorrow morning.	I am hooing to complere them todat or tomorrow morning.	535655	1471949483817	1471949483938	t	84
1077	11172	I am hoping to complete them today or tomorrow morning.	I am hooing to complere them todat or tomorrow morning.	535657	1471949483913	1471949484073	o	79
1077	11172	I am hoping to complete them today or tomorrow morning.	I am hooing to complere them todat or tomorrow morning.	535659	1471949484121	1471949484281	d	68
1077	11172	I am hoping to complete them today or tomorrow morning.	I am hooing to complere them todat or tomorrow morning.	535687	1471949484217	1471949484361	a	65
1077	11172	I am hoping to complete them today or tomorrow morning.	I am hooing to complere them todat or tomorrow morning.	535688	1471949484473	1471949484577	t	84
1077	11172	I am hoping to complete them today or tomorrow morning.	I am hooing to complere them todat or tomorrow morning.	535689	1471949485113	1471949485289	 	32
1077	11172	I am hoping to complete them today or tomorrow morning.	I am hooing to complere them todat or tomorrow morning.	535691	1471949485369	1471949485513	o	79
1077	11172	I am hoping to complete them today or tomorrow morning.	I am hooing to complere them todat or tomorrow morning.	535695	1471949485529	1471949485609	r	82
1077	11172	I am hoping to complete them today or tomorrow morning.	I am hooing to complere them todat or tomorrow morning.	535698	1471949485633	1471949485745	 	32
1077	11172	I am hoping to complete them today or tomorrow morning.	I am hooing to complere them todat or tomorrow morning.	535727	1471949485729	1471949485849	t	84
1077	11172	I am hoping to complete them today or tomorrow morning.	I am hooing to complere them todat or tomorrow morning.	535730	1471949485865	1471949485985	o	79
1077	11172	I am hoping to complete them today or tomorrow morning.	I am hooing to complere them todat or tomorrow morning.	535736	1471949486089	1471949486344	m	77
1077	11172	I am hoping to complete them today or tomorrow morning.	I am hooing to complere them todat or tomorrow morning.	535741	1471949486305	1471949486505	o	79
1077	11172	I am hoping to complete them today or tomorrow morning.	I am hooing to complere them todat or tomorrow morning.	535743	1471949487001	1471949487081	r	82
1077	11172	I am hoping to complete them today or tomorrow morning.	I am hooing to complere them todat or tomorrow morning.	535745	1471949487137	1471949487233	r	82
1077	11172	I am hoping to complete them today or tomorrow morning.	I am hooing to complere them todat or tomorrow morning.	535747	1471949487273	1471949487393	o	79
1077	11172	I am hoping to complete them today or tomorrow morning.	I am hooing to complere them todat or tomorrow morning.	535749	1471949487409	1471949487513	w	87
1077	11172	I am hoping to complete them today or tomorrow morning.	I am hooing to complere them todat or tomorrow morning.	535750	1471949487569	1471949487664	 	32
1077	11172	I am hoping to complete them today or tomorrow morning.	I am hooing to complere them todat or tomorrow morning.	535752	1471949487785	1471949487984	m	77
1077	11172	I am hoping to complete them today or tomorrow morning.	I am hooing to complere them todat or tomorrow morning.	535755	1471949487880	1471949488081	o	79
1077	11172	I am hoping to complete them today or tomorrow morning.	I am hooing to complere them todat or tomorrow morning.	535756	1471949488041	1471949488185	r	82
1077	11172	I am hoping to complete them today or tomorrow morning.	I am hooing to complere them todat or tomorrow morning.	535757	1471949488201	1471949488318	n	78
1077	11172	I am hoping to complete them today or tomorrow morning.	I am hooing to complere them todat or tomorrow morning.	535759	1471949488281	1471949488416	i	73
1077	11172	I am hoping to complete them today or tomorrow morning.	I am hooing to complere them todat or tomorrow morning.	535762	1471949488400	1471949488536	n	78
1077	11172	I am hoping to complete them today or tomorrow morning.	I am hooing to complere them todat or tomorrow morning.	535829	1471949488480	1471949488600	g	71
1077	11172	I am hoping to complete them today or tomorrow morning.	I am hooing to complere them todat or tomorrow morning.	535832	1471949489159	1471949489288	/	191
1077	11172	I am hoping to complete them today or tomorrow morning.	I am hooing to complere them todat or tomorrow morning.	535836	1471949489529	1471949489649	BKSP	8
1077	11172	I am hoping to complete them today or tomorrow morning.	I am hooing to complere them todat or tomorrow morning.	535839	1471949489801	1471949489896	.	190
1077	11180	I'll presume it is dead until I hear otherwise.	I'll presume it is dead until I hear otherwise.	536028	1471949493961	1471949494216	SHIFT	16
1077	11180	I'll presume it is dead until I hear otherwise.	I'll presume it is dead until I hear otherwise.	536029	1471949494145	1471949494240	I	73
1077	11180	I'll presume it is dead until I hear otherwise.	I'll presume it is dead until I hear otherwise.	536030	1471949494888	1471949495032	'	222
1077	11180	I'll presume it is dead until I hear otherwise.	I'll presume it is dead until I hear otherwise.	536031	1471949495256	1471949495336	l	76
1077	11180	I'll presume it is dead until I hear otherwise.	I'll presume it is dead until I hear otherwise.	536033	1471949495392	1471949495488	l	76
1077	11180	I'll presume it is dead until I hear otherwise.	I'll presume it is dead until I hear otherwise.	536035	1471949495568	1471949495672	 	32
1077	11180	I'll presume it is dead until I hear otherwise.	I'll presume it is dead until I hear otherwise.	536051	1471949495736	1471949495872	p	80
1077	11180	I'll presume it is dead until I hear otherwise.	I'll presume it is dead until I hear otherwise.	536052	1471949495896	1471949496016	r	82
1077	11180	I'll presume it is dead until I hear otherwise.	I'll presume it is dead until I hear otherwise.	536053	1471949495952	1471949496072	e	69
1077	11180	I'll presume it is dead until I hear otherwise.	I'll presume it is dead until I hear otherwise.	536054	1471949496176	1471949496320	s	83
1077	11180	I'll presume it is dead until I hear otherwise.	I'll presume it is dead until I hear otherwise.	536075	1471949496256	1471949496360	u	85
1077	11180	I'll presume it is dead until I hear otherwise.	I'll presume it is dead until I hear otherwise.	536077	1471949496488	1471949496624	m	77
1077	11180	I'll presume it is dead until I hear otherwise.	I'll presume it is dead until I hear otherwise.	536080	1471949496608	1471949496704	e	69
1077	11180	I'll presume it is dead until I hear otherwise.	I'll presume it is dead until I hear otherwise.	536082	1471949496904	1471949497024	 	32
1077	11180	I'll presume it is dead until I hear otherwise.	I'll presume it is dead until I hear otherwise.	536086	1471949497248	1471949497368	i	73
1077	11180	I'll presume it is dead until I hear otherwise.	I'll presume it is dead until I hear otherwise.	536090	1471949497472	1471949497568	t	84
1077	11180	I'll presume it is dead until I hear otherwise.	I'll presume it is dead until I hear otherwise.	536102	1471949497664	1471949497760	 	32
1077	11180	I'll presume it is dead until I hear otherwise.	I'll presume it is dead until I hear otherwise.	536105	1471949497840	1471949497977	i	73
1077	11180	I'll presume it is dead until I hear otherwise.	I'll presume it is dead until I hear otherwise.	536109	1471949497960	1471949498096	s	83
1077	11180	I'll presume it is dead until I hear otherwise.	I'll presume it is dead until I hear otherwise.	536112	1471949498312	1471949498408	 	32
1077	11180	I'll presume it is dead until I hear otherwise.	I'll presume it is dead until I hear otherwise.	536116	1471949498593	1471949498752	d	68
1077	11180	I'll presume it is dead until I hear otherwise.	I'll presume it is dead until I hear otherwise.	536138	1471949498672	1471949498808	e	69
1077	11180	I'll presume it is dead until I hear otherwise.	I'll presume it is dead until I hear otherwise.	536139	1471949498872	1471949499017	a	65
1077	11180	I'll presume it is dead until I hear otherwise.	I'll presume it is dead until I hear otherwise.	536140	1471949499033	1471949499137	d	68
1077	11180	I'll presume it is dead until I hear otherwise.	I'll presume it is dead until I hear otherwise.	536141	1471949499321	1471949499441	 	32
1077	11180	I'll presume it is dead until I hear otherwise.	I'll presume it is dead until I hear otherwise.	536142	1471949499641	1471949499721	u	85
1077	11180	I'll presume it is dead until I hear otherwise.	I'll presume it is dead until I hear otherwise.	536143	1471949499841	1471949499961	n	78
1077	11180	I'll presume it is dead until I hear otherwise.	I'll presume it is dead until I hear otherwise.	536164	1471949499945	1471949500041	t	84
1077	11180	I'll presume it is dead until I hear otherwise.	I'll presume it is dead until I hear otherwise.	536167	1471949500105	1471949500185	i	73
1077	11180	I'll presume it is dead until I hear otherwise.	I'll presume it is dead until I hear otherwise.	536172	1471949500321	1471949500441	l	76
1077	11180	I'll presume it is dead until I hear otherwise.	I'll presume it is dead until I hear otherwise.	536178	1471949500625	1471949500705	 	32
1077	11180	I'll presume it is dead until I hear otherwise.	I'll presume it is dead until I hear otherwise.	536184	1471949500825	1471949501081	SHIFT	16
1077	11180	I'll presume it is dead until I hear otherwise.	I'll presume it is dead until I hear otherwise.	536189	1471949501025	1471949501137	I	73
1077	11180	I'll presume it is dead until I hear otherwise.	I'll presume it is dead until I hear otherwise.	536194	1471949501233	1471949501369	 	32
1077	11180	I'll presume it is dead until I hear otherwise.	I'll presume it is dead until I hear otherwise.	536196	1471949501441	1471949501577	h	72
1077	11180	I'll presume it is dead until I hear otherwise.	I'll presume it is dead until I hear otherwise.	536197	1471949501537	1471949501681	e	69
1077	11180	I'll presume it is dead until I hear otherwise.	I'll presume it is dead until I hear otherwise.	536198	1471949501617	1471949501761	a	65
1077	11180	I'll presume it is dead until I hear otherwise.	I'll presume it is dead until I hear otherwise.	536200	1471949501801	1471949501913	r	82
1077	11180	I'll presume it is dead until I hear otherwise.	I'll presume it is dead until I hear otherwise.	536202	1471949501961	1471949502072	 	32
1077	11180	I'll presume it is dead until I hear otherwise.	I'll presume it is dead until I hear otherwise.	536224	1471949502169	1471949502288	o	79
1077	11180	I'll presume it is dead until I hear otherwise.	I'll presume it is dead until I hear otherwise.	536226	1471949502401	1471949502497	t	84
1077	11180	I'll presume it is dead until I hear otherwise.	I'll presume it is dead until I hear otherwise.	536228	1471949502569	1471949502688	h	72
1077	11180	I'll presume it is dead until I hear otherwise.	I'll presume it is dead until I hear otherwise.	536230	1471949502649	1471949502728	e	69
1077	11180	I'll presume it is dead until I hear otherwise.	I'll presume it is dead until I hear otherwise.	536232	1471949502801	1471949502905	r	82
1077	11180	I'll presume it is dead until I hear otherwise.	I'll presume it is dead until I hear otherwise.	536250	1471949503249	1471949503344	w	87
1077	11180	I'll presume it is dead until I hear otherwise.	I'll presume it is dead until I hear otherwise.	536253	1471949503368	1471949503504	i	73
1077	11180	I'll presume it is dead until I hear otherwise.	I'll presume it is dead until I hear otherwise.	536256	1471949503489	1471949503601	s	83
1077	11180	I'll presume it is dead until I hear otherwise.	I'll presume it is dead until I hear otherwise.	536257	1471949503705	1471949503808	e	69
1077	11180	I'll presume it is dead until I hear otherwise.	I'll presume it is dead until I hear otherwise.	536258	1471949503912	1471949504032	.	190
1077	11189	How's the share price?	How's the share price?	536393	1471949508169	1471949508544	SHIFT	16
1077	11189	How's the share price?	How's the share price?	536396	1471949508464	1471949508560	H	72
1077	11189	How's the share price?	How's the share price?	536399	1471949508697	1471949508808	o	79
1077	11189	How's the share price?	How's the share price?	536402	1471949508904	1471949509024	w	87
1077	11189	How's the share price?	How's the share price?	536405	1471949509240	1471949509376	'	222
1077	11189	How's the share price?	How's the share price?	536433	1471949509360	1471949509496	s	83
1077	11189	How's the share price?	How's the share price?	536434	1471949509624	1471949509736	 	32
1077	11189	How's the share price?	How's the share price?	536436	1471949510120	1471949510216	t	84
1077	11189	How's the share price?	How's the share price?	536437	1471949510240	1471949510360	h	72
1077	11189	How's the share price?	How's the share price?	536439	1471949510376	1471949510456	e	69
1077	11189	How's the share price?	How's the share price?	536440	1471949510536	1471949510656	 	32
1077	11189	How's the share price?	How's the share price?	536486	1471949510856	1471949510992	s	83
1077	11189	How's the share price?	How's the share price?	536487	1471949511056	1471949511152	h	72
1077	11189	How's the share price?	How's the share price?	536488	1471949511488	1471949511632	a	65
1077	11189	How's the share price?	How's the share price?	536489	1471949511776	1471949511920	r	82
1077	11189	How's the share price?	How's the share price?	536491	1471949511880	1471949511992	e	69
1077	11189	How's the share price?	How's the share price?	536492	1471949512016	1471949512136	 	32
1077	11189	How's the share price?	How's the share price?	536493	1471949512216	1471949512296	p	80
1077	11189	How's the share price?	How's the share price?	536494	1471949512240	1471949512320	o	79
1077	11189	How's the share price?	How's the share price?	536496	1471949512280	1471949512392	r	82
1077	11189	How's the share price?	How's the share price?	536499	1471949512488	1471949512624	i	73
1077	11189	How's the share price?	How's the share price?	536628	1471949512640	1471949512784	c	67
1077	11189	How's the share price?	How's the share price?	536629	1471949512720	1471949512864	e	69
1077	11189	How's the share price?	How's the share price?	536630	1471949514784	1471949514920	SHIFT	16
1077	11189	How's the share price?	How's the share price?	536631	1471949514856	1471949515000	?	191
1077	11189	How's the share price?	How's the share price?	536632	1471949515680	1471949515760	BKSP	8
1077	11189	How's the share price?	How's the share price?	536633	1471949515816	1471949515896	BKSP	8
1077	11189	How's the share price?	How's the share price?	536634	1471949515960	1471949516024	BKSP	8
1077	11189	How's the share price?	How's the share price?	536635	1471949516080	1471949516160	BKSP	8
1077	11189	How's the share price?	How's the share price?	536637	1471949516208	1471949516288	BKSP	8
1077	11189	How's the share price?	How's the share price?	536639	1471949516633	1471949516729	BKSP	8
1077	11189	How's the share price?	How's the share price?	536641	1471949517025	1471949517129	r	82
1077	11189	How's the share price?	How's the share price?	536644	1471949517145	1471949517289	i	73
1077	11189	How's the share price?	How's the share price?	536664	1471949517265	1471949517441	c	67
1077	11189	How's the share price?	How's the share price?	536665	1471949517409	1471949517545	e	69
1077	11189	How's the share price?	How's the share price?	536666	1471949517609	1471949517969	SHIFT	16
1077	11189	How's the share price?	How's the share price?	536667	1471949517889	1471949518064	?	191
1077	11196	We will work on the car and try to go a little quicker yet.	We will work on the car and try to go a little quicker yet.	536790	1471949521839	1471949522080	SHIFT	16
1077	11196	We will work on the car and try to go a little quicker yet.	We will work on the car and try to go a little quicker yet.	536793	1471949521984	1471949522103	W	87
1077	11196	We will work on the car and try to go a little quicker yet.	We will work on the car and try to go a little quicker yet.	536797	1471949522184	1471949522304	e	69
1077	11196	We will work on the car and try to go a little quicker yet.	We will work on the car and try to go a little quicker yet.	536801	1471949522352	1471949522487	 	32
1077	11196	We will work on the car and try to go a little quicker yet.	We will work on the car and try to go a little quicker yet.	536805	1471949522472	1471949522568	w	87
1077	11196	We will work on the car and try to go a little quicker yet.	We will work on the car and try to go a little quicker yet.	536809	1471949522583	1471949522688	i	73
1077	11196	We will work on the car and try to go a little quicker yet.	We will work on the car and try to go a little quicker yet.	536821	1471949522800	1471949522879	l	76
1077	11196	We will work on the car and try to go a little quicker yet.	We will work on the car and try to go a little quicker yet.	536822	1471949522904	1471949522999	l	76
1077	11196	We will work on the car and try to go a little quicker yet.	We will work on the car and try to go a little quicker yet.	536823	1471949523088	1471949523207	 	32
1077	11196	We will work on the car and try to go a little quicker yet.	We will work on the car and try to go a little quicker yet.	536824	1471949523168	1471949523303	w	87
1077	11196	We will work on the car and try to go a little quicker yet.	We will work on the car and try to go a little quicker yet.	536868	1471949523263	1471949523423	o	79
1077	11196	We will work on the car and try to go a little quicker yet.	We will work on the car and try to go a little quicker yet.	536872	1471949523399	1471949523479	r	82
1077	11196	We will work on the car and try to go a little quicker yet.	We will work on the car and try to go a little quicker yet.	536877	1471949523583	1471949523703	k	75
1077	11196	We will work on the car and try to go a little quicker yet.	We will work on the car and try to go a little quicker yet.	536882	1471949524004	1471949524119	 	32
1077	11196	We will work on the car and try to go a little quicker yet.	We will work on the car and try to go a little quicker yet.	536888	1471949524344	1471949524439	o	79
1077	11196	We will work on the car and try to go a little quicker yet.	We will work on the car and try to go a little quicker yet.	536892	1471949524503	1471949524623	n	78
1077	11196	We will work on the car and try to go a little quicker yet.	We will work on the car and try to go a little quicker yet.	536899	1471949524703	1471949524839	 	32
1077	11196	We will work on the car and try to go a little quicker yet.	We will work on the car and try to go a little quicker yet.	536902	1471949524815	1471949524919	t	84
1077	11196	We will work on the car and try to go a little quicker yet.	We will work on the car and try to go a little quicker yet.	536905	1471949524895	1471949525039	h	72
1077	11196	We will work on the car and try to go a little quicker yet.	We will work on the car and try to go a little quicker yet.	536909	1471949525015	1471949525119	e	69
1077	11196	We will work on the car and try to go a little quicker yet.	We will work on the car and try to go a little quicker yet.	536912	1471949525199	1471949525319	 	32
1077	11196	We will work on the car and try to go a little quicker yet.	We will work on the car and try to go a little quicker yet.	536938	1471949525359	1471949525519	c	67
1077	11196	We will work on the car and try to go a little quicker yet.	We will work on the car and try to go a little quicker yet.	536940	1471949525439	1471949525615	a	65
1077	11196	We will work on the car and try to go a little quicker yet.	We will work on the car and try to go a little quicker yet.	536941	1471949525655	1471949525791	r	82
1077	11196	We will work on the car and try to go a little quicker yet.	We will work on the car and try to go a little quicker yet.	536942	1471949526193	1471949526311	 	32
1077	11196	We will work on the car and try to go a little quicker yet.	We will work on the car and try to go a little quicker yet.	536943	1471949526487	1471949526624	a	65
1077	11196	We will work on the car and try to go a little quicker yet.	We will work on the car and try to go a little quicker yet.	536958	1471949526599	1471949526719	n	78
1077	11196	We will work on the car and try to go a little quicker yet.	We will work on the car and try to go a little quicker yet.	536961	1471949526679	1471949526783	d	68
1077	11196	We will work on the car and try to go a little quicker yet.	We will work on the car and try to go a little quicker yet.	536964	1471949526823	1471949526959	 	32
1077	11196	We will work on the car and try to go a little quicker yet.	We will work on the car and try to go a little quicker yet.	536967	1471949526983	1471949527119	t	84
1077	11196	We will work on the car and try to go a little quicker yet.	We will work on the car and try to go a little quicker yet.	536970	1471949527055	1471949527175	r	82
1077	11196	We will work on the car and try to go a little quicker yet.	We will work on the car and try to go a little quicker yet.	536972	1471949527199	1471949527319	y	89
1077	11196	We will work on the car and try to go a little quicker yet.	We will work on the car and try to go a little quicker yet.	536980	1471949527503	1471949527607	 	32
1077	11196	We will work on the car and try to go a little quicker yet.	We will work on the car and try to go a little quicker yet.	536982	1471949527967	1471949528063	t	84
1077	11196	We will work on the car and try to go a little quicker yet.	We will work on the car and try to go a little quicker yet.	536984	1471949528079	1471949528199	o	79
1077	11196	We will work on the car and try to go a little quicker yet.	We will work on the car and try to go a little quicker yet.	536986	1471949528239	1471949528399	 	32
1077	11196	We will work on the car and try to go a little quicker yet.	We will work on the car and try to go a little quicker yet.	537029	1471949528383	1471949528479	g	71
1077	11196	We will work on the car and try to go a little quicker yet.	We will work on the car and try to go a little quicker yet.	537031	1471949528503	1471949528655	o	79
1077	11196	We will work on the car and try to go a little quicker yet.	We will work on the car and try to go a little quicker yet.	537034	1471949528815	1471949528951	 	32
1077	11196	We will work on the car and try to go a little quicker yet.	We will work on the car and try to go a little quicker yet.	537037	1471949529191	1471949529311	a	65
1077	11196	We will work on the car and try to go a little quicker yet.	We will work on the car and try to go a little quicker yet.	537039	1471949529327	1471949529472	 	32
1077	11196	We will work on the car and try to go a little quicker yet.	We will work on the car and try to go a little quicker yet.	537040	1471949529591	1471949529711	l	76
1077	11196	We will work on the car and try to go a little quicker yet.	We will work on the car and try to go a little quicker yet.	537048	1471949529855	1471949529975	i	73
1077	11196	We will work on the car and try to go a little quicker yet.	We will work on the car and try to go a little quicker yet.	537051	1471949530175	1471949530255	t	84
1077	11196	We will work on the car and try to go a little quicker yet.	We will work on the car and try to go a little quicker yet.	537053	1471949530311	1471949530415	t	84
1077	11196	We will work on the car and try to go a little quicker yet.	We will work on the car and try to go a little quicker yet.	537054	1471949530391	1471949530535	l	76
1077	11196	We will work on the car and try to go a little quicker yet.	We will work on the car and try to go a little quicker yet.	537096	1471949530512	1471949530615	e	69
1077	11196	We will work on the car and try to go a little quicker yet.	We will work on the car and try to go a little quicker yet.	537097	1471949530695	1471949530831	 	32
1077	11196	We will work on the car and try to go a little quicker yet.	We will work on the car and try to go a little quicker yet.	537099	1471949531063	1471949531183	q	81
1077	11196	We will work on the car and try to go a little quicker yet.	We will work on the car and try to go a little quicker yet.	537101	1471949531287	1471949531447	u	85
1077	11196	We will work on the car and try to go a little quicker yet.	We will work on the car and try to go a little quicker yet.	537103	1471949531367	1471949531527	i	73
1077	11196	We will work on the car and try to go a little quicker yet.	We will work on the car and try to go a little quicker yet.	537105	1471949531543	1471949531703	c	67
1077	11196	We will work on the car and try to go a little quicker yet.	We will work on the car and try to go a little quicker yet.	537125	1471949531687	1471949531823	k	75
1077	11196	We will work on the car and try to go a little quicker yet.	We will work on the car and try to go a little quicker yet.	537129	1471949531799	1471949531943	e	69
1077	11196	We will work on the car and try to go a little quicker yet.	We will work on the car and try to go a little quicker yet.	537133	1471949532015	1471949532111	r	82
1077	11196	We will work on the car and try to go a little quicker yet.	We will work on the car and try to go a little quicker yet.	537139	1471949532407	1471949532551	 	32
1077	11196	We will work on the car and try to go a little quicker yet.	We will work on the car and try to go a little quicker yet.	537144	1471949532823	1471949532959	y	89
1077	11196	We will work on the car and try to go a little quicker yet.	We will work on the car and try to go a little quicker yet.	537161	1471949532919	1471949533039	e	69
1077	11196	We will work on the car and try to go a little quicker yet.	We will work on the car and try to go a little quicker yet.	537162	1471949533167	1471949533239	t	84
1077	11196	We will work on the car and try to go a little quicker yet.	We will work on the car and try to go a little quicker yet.	537163	1471949533535	1471949533638	.	190
1077	11206	He is expected to miss six weeks of action due to the procedure.	He is expected to miss six weeks of action due to the procedure.	537244	1471949536912	1471949537128	SHIFT	16
1077	11206	He is expected to miss six weeks of action due to the procedure.	He is expected to miss six weeks of action due to the procedure.	537245	1471949537056	1471949537191	H	72
1077	11206	He is expected to miss six weeks of action due to the procedure.	He is expected to miss six weeks of action due to the procedure.	537247	1471949537207	1471949537288	e	69
1077	11206	He is expected to miss six weeks of action due to the procedure.	He is expected to miss six weeks of action due to the procedure.	537250	1471949537312	1471949537392	 	32
1077	11206	He is expected to miss six weeks of action due to the procedure.	He is expected to miss six weeks of action due to the procedure.	537253	1471949537456	1471949537576	i	73
1077	11206	He is expected to miss six weeks of action due to the procedure.	He is expected to miss six weeks of action due to the procedure.	537268	1471949537560	1471949537696	s	83
1077	11206	He is expected to miss six weeks of action due to the procedure.	He is expected to miss six weeks of action due to the procedure.	537269	1471949537680	1471949537800	 	32
1077	11206	He is expected to miss six weeks of action due to the procedure.	He is expected to miss six weeks of action due to the procedure.	537271	1471949537816	1471949537896	e	69
1077	11206	He is expected to miss six weeks of action due to the procedure.	He is expected to miss six weeks of action due to the procedure.	537274	1471949538024	1471949538143	x	88
1077	11206	He is expected to miss six weeks of action due to the procedure.	He is expected to miss six weeks of action due to the procedure.	537277	1471949538119	1471949538279	p	80
1077	11206	He is expected to miss six weeks of action due to the procedure.	He is expected to miss six weeks of action due to the procedure.	537294	1471949538242	1471949538319	e	69
1077	11206	He is expected to miss six weeks of action due to the procedure.	He is expected to miss six weeks of action due to the procedure.	537296	1471949538400	1471949538576	c	67
1077	11206	He is expected to miss six weeks of action due to the procedure.	He is expected to miss six weeks of action due to the procedure.	537298	1471949538560	1471949538679	t	84
1077	11206	He is expected to miss six weeks of action due to the procedure.	He is expected to miss six weeks of action due to the procedure.	537300	1471949538615	1471949538711	e	69
1077	11206	He is expected to miss six weeks of action due to the procedure.	He is expected to miss six weeks of action due to the procedure.	537302	1471949538815	1471949538911	d	68
1077	11206	He is expected to miss six weeks of action due to the procedure.	He is expected to miss six weeks of action due to the procedure.	537306	1471949539104	1471949539223	 	32
1077	11206	He is expected to miss six weeks of action due to the procedure.	He is expected to miss six weeks of action due to the procedure.	537333	1471949539520	1471949539639	t	84
1077	11206	He is expected to miss six weeks of action due to the procedure.	He is expected to miss six weeks of action due to the procedure.	537335	1471949539679	1471949539799	o	79
1077	11206	He is expected to miss six weeks of action due to the procedure.	He is expected to miss six weeks of action due to the procedure.	537339	1471949539895	1471949540039	 	32
1077	11206	He is expected to miss six weeks of action due to the procedure.	He is expected to miss six weeks of action due to the procedure.	537341	1471949540112	1471949540295	m	77
1077	11206	He is expected to miss six weeks of action due to the procedure.	He is expected to miss six weeks of action due to the procedure.	537367	1471949540232	1471949540391	i	73
1077	11206	He is expected to miss six weeks of action due to the procedure.	He is expected to miss six weeks of action due to the procedure.	537369	1471949540311	1471949540431	s	83
1077	11206	He is expected to miss six weeks of action due to the procedure.	He is expected to miss six weeks of action due to the procedure.	537371	1471949540495	1471949540639	s	83
1077	11206	He is expected to miss six weeks of action due to the procedure.	He is expected to miss six weeks of action due to the procedure.	537373	1471949540775	1471949540895	 	32
1077	11206	He is expected to miss six weeks of action due to the procedure.	He is expected to miss six weeks of action due to the procedure.	537375	1471949541263	1471949541383	s	83
1077	11206	He is expected to miss six weeks of action due to the procedure.	He is expected to miss six weeks of action due to the procedure.	537376	1471949541423	1471949541583	i	73
1077	11206	He is expected to miss six weeks of action due to the procedure.	He is expected to miss six weeks of action due to the procedure.	537388	1471949541679	1471949541799	x	88
1077	11206	He is expected to miss six weeks of action due to the procedure.	He is expected to miss six weeks of action due to the procedure.	537389	1471949541815	1471949541935	 	32
1077	11206	He is expected to miss six weeks of action due to the procedure.	He is expected to miss six weeks of action due to the procedure.	537391	1471949541959	1471949542055	w	87
1077	11206	He is expected to miss six weeks of action due to the procedure.	He is expected to miss six weeks of action due to the procedure.	537394	1471949542127	1471949542207	e	69
1077	11206	He is expected to miss six weeks of action due to the procedure.	He is expected to miss six weeks of action due to the procedure.	537397	1471949542255	1471949542351	e	69
1077	11206	He is expected to miss six weeks of action due to the procedure.	He is expected to miss six weeks of action due to the procedure.	537452	1471949542391	1471949542551	k	75
1077	11206	He is expected to miss six weeks of action due to the procedure.	He is expected to miss six weeks of action due to the procedure.	537454	1471949542535	1471949542687	s	83
1077	11206	He is expected to miss six weeks of action due to the procedure.	He is expected to miss six weeks of action due to the procedure.	537456	1471949544231	1471949544375	 	32
1077	11206	He is expected to miss six weeks of action due to the procedure.	He is expected to miss six weeks of action due to the procedure.	537459	1471949544559	1471949544695	o	79
1077	11206	He is expected to miss six weeks of action due to the procedure.	He is expected to miss six weeks of action due to the procedure.	537472	1471949544655	1471949544815	f	70
1077	11206	He is expected to miss six weeks of action due to the procedure.	He is expected to miss six weeks of action due to the procedure.	537473	1471949544799	1471949544922	 	32
1077	11206	He is expected to miss six weeks of action due to the procedure.	He is expected to miss six weeks of action due to the procedure.	537474	1471949544855	1471949544975	a	65
1077	11206	He is expected to miss six weeks of action due to the procedure.	He is expected to miss six weeks of action due to the procedure.	537475	1471949544999	1471949545111	c	67
1077	11206	He is expected to miss six weeks of action due to the procedure.	He is expected to miss six weeks of action due to the procedure.	537476	1471949545223	1471949545319	t	84
1077	11206	He is expected to miss six weeks of action due to the procedure.	He is expected to miss six weeks of action due to the procedure.	537477	1471949545343	1471949545503	i	73
1077	11206	He is expected to miss six weeks of action due to the procedure.	He is expected to miss six weeks of action due to the procedure.	537505	1471949545439	1471949545559	o	79
1077	11206	He is expected to miss six weeks of action due to the procedure.	He is expected to miss six weeks of action due to the procedure.	537506	1471949545719	1471949545815	n	78
1077	11206	He is expected to miss six weeks of action due to the procedure.	He is expected to miss six weeks of action due to the procedure.	537507	1471949546655	1471949546815	 	32
1077	11206	He is expected to miss six weeks of action due to the procedure.	He is expected to miss six weeks of action due to the procedure.	537508	1471949546879	1471949546983	d	68
1077	11206	He is expected to miss six weeks of action due to the procedure.	He is expected to miss six weeks of action due to the procedure.	537509	1471949547023	1471949547159	u	85
1077	11206	He is expected to miss six weeks of action due to the procedure.	He is expected to miss six weeks of action due to the procedure.	537510	1471949547175	1471949547295	e	69
1077	11206	He is expected to miss six weeks of action due to the procedure.	He is expected to miss six weeks of action due to the procedure.	537529	1471949547623	1471949547743	 	32
1077	11206	He is expected to miss six weeks of action due to the procedure.	He is expected to miss six weeks of action due to the procedure.	537531	1471949547959	1471949548095	t	84
1077	11206	He is expected to miss six weeks of action due to the procedure.	He is expected to miss six weeks of action due to the procedure.	537535	1471949548079	1471949548199	o	79
1077	11206	He is expected to miss six weeks of action due to the procedure.	He is expected to miss six weeks of action due to the procedure.	537539	1471949548239	1471949548359	 	32
1077	11206	He is expected to miss six weeks of action due to the procedure.	He is expected to miss six weeks of action due to the procedure.	537561	1471949548335	1471949548455	t	84
1077	11206	He is expected to miss six weeks of action due to the procedure.	He is expected to miss six weeks of action due to the procedure.	537563	1471949548415	1471949548551	h	72
1077	11206	He is expected to miss six weeks of action due to the procedure.	He is expected to miss six weeks of action due to the procedure.	537565	1471949548599	1471949548703	e	69
1077	11206	He is expected to miss six weeks of action due to the procedure.	He is expected to miss six weeks of action due to the procedure.	537566	1471949548831	1471949548950	 	32
1077	11206	He is expected to miss six weeks of action due to the procedure.	He is expected to miss six weeks of action due to the procedure.	537568	1471949549391	1471949549550	p	80
1077	11206	He is expected to miss six weeks of action due to the procedure.	He is expected to miss six weeks of action due to the procedure.	537602	1471949549511	1471949549646	r	82
1077	11206	He is expected to miss six weeks of action due to the procedure.	He is expected to miss six weeks of action due to the procedure.	537604	1471949549718	1471949549838	o	79
1077	11206	He is expected to miss six weeks of action due to the procedure.	He is expected to miss six weeks of action due to the procedure.	537606	1471949549886	1471949550023	c	67
1077	11206	He is expected to miss six weeks of action due to the procedure.	He is expected to miss six weeks of action due to the procedure.	537608	1471949550767	1471949550871	e	69
1077	11206	He is expected to miss six weeks of action due to the procedure.	He is expected to miss six weeks of action due to the procedure.	537609	1471949550967	1471949551087	d	68
1077	11206	He is expected to miss six weeks of action due to the procedure.	He is expected to miss six weeks of action due to the procedure.	537611	1471949551151	1471949551295	u	85
1077	11206	He is expected to miss six weeks of action due to the procedure.	He is expected to miss six weeks of action due to the procedure.	537633	1471949551255	1471949551392	r	82
1077	11206	He is expected to miss six weeks of action due to the procedure.	He is expected to miss six weeks of action due to the procedure.	537635	1471949551351	1471949551495	e	69
1077	11206	He is expected to miss six weeks of action due to the procedure.	He is expected to miss six weeks of action due to the procedure.	537637	1471949552184	1471949552304	/	191
1077	11206	He is expected to miss six weeks of action due to the procedure.	He is expected to miss six weeks of action due to the procedure.	537639	1471949552528	1471949552647	BKSP	8
1077	11206	He is expected to miss six weeks of action due to the procedure.	He is expected to miss six weeks of action due to the procedure.	537641	1471949552760	1471949552856	.	190
1077	11216	Have not added Westport on yet.	Have not added Westport on yet.	537743	1471949556624	1471949556863	SHIFT	16
1077	11216	Have not added Westport on yet.	Have not added Westport on yet.	537745	1471949556783	1471949556903	H	72
1077	11216	Have not added Westport on yet.	Have not added Westport on yet.	537747	1471949556975	1471949557095	a	65
1077	11216	Have not added Westport on yet.	Have not added Westport on yet.	537749	1471949557031	1471949557151	v	86
1077	11216	Have not added Westport on yet.	Have not added Westport on yet.	537750	1471949557239	1471949557375	e	69
1077	11216	Have not added Westport on yet.	Have not added Westport on yet.	537751	1471949557599	1471949557719	 	32
1077	11216	Have not added Westport on yet.	Have not added Westport on yet.	537767	1471949558071	1471949558247	n	78
1077	11216	Have not added Westport on yet.	Have not added Westport on yet.	537768	1471949558207	1471949558447	o	79
1077	11216	Have not added Westport on yet.	Have not added Westport on yet.	537769	1471949558687	1471949558783	t	84
1077	11216	Have not added Westport on yet.	Have not added Westport on yet.	537770	1471949558871	1471949558975	 	32
1077	11216	Have not added Westport on yet.	Have not added Westport on yet.	537781	1471949558951	1471949559071	a	65
1077	11216	Have not added Westport on yet.	Have not added Westport on yet.	537782	1471949559095	1471949559175	d	68
1077	11216	Have not added Westport on yet.	Have not added Westport on yet.	537783	1471949559255	1471949559335	d	68
1077	11216	Have not added Westport on yet.	Have not added Westport on yet.	537784	1471949559455	1471949559535	e	69
1077	11216	Have not added Westport on yet.	Have not added Westport on yet.	537785	1471949559663	1471949559759	d	68
1077	11216	Have not added Westport on yet.	Have not added Westport on yet.	537786	1471949560079	1471949560199	 	32
1077	11216	Have not added Westport on yet.	Have not added Westport on yet.	537805	1471949560231	1471949560455	SHIFT	16
1077	11216	Have not added Westport on yet.	Have not added Westport on yet.	537806	1471949560375	1471949560495	W	87
1077	11216	Have not added Westport on yet.	Have not added Westport on yet.	537807	1471949560599	1471949560679	e	69
1077	11216	Have not added Westport on yet.	Have not added Westport on yet.	537808	1471949560791	1471949560887	s	83
1077	11216	Have not added Westport on yet.	Have not added Westport on yet.	537809	1471949561071	1471949561151	t	84
1077	11216	Have not added Westport on yet.	Have not added Westport on yet.	537810	1471949561207	1471949561367	p	80
1077	11216	Have not added Westport on yet.	Have not added Westport on yet.	537827	1471949561311	1471949561463	o	79
1077	11216	Have not added Westport on yet.	Have not added Westport on yet.	537829	1471949561503	1471949561583	r	82
1077	11216	Have not added Westport on yet.	Have not added Westport on yet.	537831	1471949561719	1471949561839	t	84
1077	11216	Have not added Westport on yet.	Have not added Westport on yet.	537833	1471949562207	1471949562327	 	32
1077	11216	Have not added Westport on yet.	Have not added Westport on yet.	537835	1471949562455	1471949562591	o	79
1077	11216	Have not added Westport on yet.	Have not added Westport on yet.	537836	1471949562671	1471949562807	n	78
1077	11216	Have not added Westport on yet.	Have not added Westport on yet.	537857	1471949562863	1471949562983	 	32
1077	11216	Have not added Westport on yet.	Have not added Westport on yet.	537859	1471949563071	1471949563207	y	89
1077	11216	Have not added Westport on yet.	Have not added Westport on yet.	537861	1471949563191	1471949563311	e	69
1077	11216	Have not added Westport on yet.	Have not added Westport on yet.	537862	1471949563327	1471949563447	t	84
1077	11216	Have not added Westport on yet.	Have not added Westport on yet.	537863	1471949563839	1471949563975	.	190
1077	11220	US vessels will form two separate training units.	US vessels will form two separate training units.	537939	1471949567647	1471949568063	SHIFT	16
1077	11220	US vessels will form two separate training units.	US vessels will form two separate training units.	537938	1471949567799	1471949567919	U	85
1077	11220	US vessels will form two separate training units.	US vessels will form two separate training units.	537940	1471949567903	1471949568079	S	83
1077	11220	US vessels will form two separate training units.	US vessels will form two separate training units.	537941	1471949568055	1471949568183	 	32
1077	11220	US vessels will form two separate training units.	US vessels will form two separate training units.	537942	1471949568359	1471949568495	v	86
1077	11220	US vessels will form two separate training units.	US vessels will form two separate training units.	537952	1471949568479	1471949568598	e	69
1077	11220	US vessels will form two separate training units.	US vessels will form two separate training units.	537954	1471949568695	1471949568775	s	83
1077	11220	US vessels will form two separate training units.	US vessels will form two separate training units.	537955	1471949568822	1471949568919	s	83
1077	11220	US vessels will form two separate training units.	US vessels will form two separate training units.	537956	1471949569007	1471949569103	e	69
1077	11220	US vessels will form two separate training units.	US vessels will form two separate training units.	537957	1471949569143	1471949569263	l	76
1077	11220	US vessels will form two separate training units.	US vessels will form two separate training units.	537958	1471949569487	1471949569607	s	83
1077	11220	US vessels will form two separate training units.	US vessels will form two separate training units.	537982	1471949569839	1471949569999	 	32
1077	11220	US vessels will form two separate training units.	US vessels will form two separate training units.	537983	1471949570015	1471949570139	w	87
1077	11220	US vessels will form two separate training units.	US vessels will form two separate training units.	537984	1471949570152	1471949570271	i	73
1077	11220	US vessels will form two separate training units.	US vessels will form two separate training units.	537985	1471949570399	1471949570455	l	76
1077	11220	US vessels will form two separate training units.	US vessels will form two separate training units.	537986	1471949570519	1471949570623	l	76
1077	11220	US vessels will form two separate training units.	US vessels will form two separate training units.	537992	1471949570775	1471949570911	 	32
1077	11220	US vessels will form two separate training units.	US vessels will form two separate training units.	537993	1471949570951	1471949571167	f	70
1077	11220	US vessels will form two separate training units.	US vessels will form two separate training units.	537994	1471949571247	1471949571367	o	79
1077	11220	US vessels will form two separate training units.	US vessels will form two separate training units.	537995	1471949571391	1471949571511	r	82
1077	11220	US vessels will form two separate training units.	US vessels will form two separate training units.	537996	1471949571615	1471949571751	m	77
1077	11220	US vessels will form two separate training units.	US vessels will form two separate training units.	538032	1471949571895	1471949572031	 	32
1077	11220	US vessels will form two separate training units.	US vessels will form two separate training units.	538034	1471949572359	1471949572456	t	84
1077	11220	US vessels will form two separate training units.	US vessels will form two separate training units.	538035	1471949572568	1471949572663	w	87
1077	11220	US vessels will form two separate training units.	US vessels will form two separate training units.	538036	1471949572711	1471949572831	o	79
1077	11220	US vessels will form two separate training units.	US vessels will form two separate training units.	538037	1471949572879	1471949573031	 	32
1077	11220	US vessels will form two separate training units.	US vessels will form two separate training units.	538039	1471949573015	1471949573135	s	83
1077	11220	US vessels will form two separate training units.	US vessels will form two separate training units.	538041	1471949573247	1471949573428	e	69
1077	11220	US vessels will form two separate training units.	US vessels will form two separate training units.	538043	1471949573383	1471949573487	p	80
1077	11220	US vessels will form two separate training units.	US vessels will form two separate training units.	538045	1471949573428	1471949573543	a	65
1077	11220	US vessels will form two separate training units.	US vessels will form two separate training units.	538048	1471949573607	1471949573823	r	82
1077	11220	US vessels will form two separate training units.	US vessels will form two separate training units.	538089	1471949573807	1471949573983	a	65
1077	11220	US vessels will form two separate training units.	US vessels will form two separate training units.	538091	1471949574207	1471949574343	t	84
1077	11220	US vessels will form two separate training units.	US vessels will form two separate training units.	538093	1471949575727	1471949575847	e	69
1077	11220	US vessels will form two separate training units.	US vessels will form two separate training units.	538095	1471949576119	1471949576279	 	32
1077	11220	US vessels will form two separate training units.	US vessels will form two separate training units.	538097	1471949576767	1471949576847	t	84
1077	11220	US vessels will form two separate training units.	US vessels will form two separate training units.	538099	1471949576951	1471949577111	r	82
1077	11220	US vessels will form two separate training units.	US vessels will form two separate training units.	538110	1471949577047	1471949577247	a	65
1077	11220	US vessels will form two separate training units.	US vessels will form two separate training units.	538112	1471949577223	1471949577343	i	73
1077	11220	US vessels will form two separate training units.	US vessels will form two separate training units.	538115	1471949577439	1471949577535	n	78
1077	11220	US vessels will form two separate training units.	US vessels will form two separate training units.	538118	1471949577575	1471949577679	i	73
1077	11220	US vessels will form two separate training units.	US vessels will form two separate training units.	538120	1471949577639	1471949577775	n	78
1077	11220	US vessels will form two separate training units.	US vessels will form two separate training units.	538147	1471949577759	1471949577855	g	71
1077	11220	US vessels will form two separate training units.	US vessels will form two separate training units.	538148	1471949577959	1471949578071	 	32
1077	11220	US vessels will form two separate training units.	US vessels will form two separate training units.	538149	1471949578575	1471949578647	y	89
1077	11220	US vessels will form two separate training units.	US vessels will form two separate training units.	538150	1471949579007	1471949579103	BKSP	8
1077	11220	US vessels will form two separate training units.	US vessels will form two separate training units.	538151	1471949579271	1471949579367	u	85
1077	11220	US vessels will form two separate training units.	US vessels will form two separate training units.	538152	1471949579831	1471949579991	n	78
1077	11220	US vessels will form two separate training units.	US vessels will form two separate training units.	538158	1471949579911	1471949580046	i	73
1077	11220	US vessels will form two separate training units.	US vessels will form two separate training units.	538159	1471949580135	1471949580247	t	84
1077	11220	US vessels will form two separate training units.	US vessels will form two separate training units.	538160	1471949580231	1471949580351	s	83
1077	11220	US vessels will form two separate training units.	US vessels will form two separate training units.	538161	1471949580638	1471949580759	.	190
1077	11226	Even if it were approved, Clinton could veto the measure.	Even if it were approved, Clinton could veto the measure.	538234	1471949584304	1471949584680	SHIFT	16
1077	11226	Even if it were approved, Clinton could veto the measure.	Even if it were approved, Clinton could veto the measure.	538235	1471949584560	1471949584704	E	69
1077	11226	Even if it were approved, Clinton could veto the measure.	Even if it were approved, Clinton could veto the measure.	538236	1471949584840	1471949585031	v	86
1077	11226	Even if it were approved, Clinton could veto the measure.	Even if it were approved, Clinton could veto the measure.	538237	1471949584960	1471949585136	e	69
1077	11226	Even if it were approved, Clinton could veto the measure.	Even if it were approved, Clinton could veto the measure.	538238	1471949585191	1471949585303	n	78
1077	11226	Even if it were approved, Clinton could veto the measure.	Even if it were approved, Clinton could veto the measure.	538239	1471949585384	1471949585519	 	32
1077	11226	Even if it were approved, Clinton could veto the measure.	Even if it were approved, Clinton could veto the measure.	538272	1471949585607	1471949585720	i	73
1077	11226	Even if it were approved, Clinton could veto the measure.	Even if it were approved, Clinton could veto the measure.	538274	1471949585799	1471949585935	f	70
1077	11226	Even if it were approved, Clinton could veto the measure.	Even if it were approved, Clinton could veto the measure.	538277	1471949586345	1471949586464	 	32
1077	11226	Even if it were approved, Clinton could veto the measure.	Even if it were approved, Clinton could veto the measure.	538280	1471949586841	1471949586960	i	73
1077	11226	Even if it were approved, Clinton could veto the measure.	Even if it were approved, Clinton could veto the measure.	538282	1471949587112	1471949587216	t	84
1077	11226	Even if it were approved, Clinton could veto the measure.	Even if it were approved, Clinton could veto the measure.	538285	1471949587337	1471949587432	 	32
1077	11226	Even if it were approved, Clinton could veto the measure.	Even if it were approved, Clinton could veto the measure.	538286	1471949587376	1471949587512	w	87
1077	11226	Even if it were approved, Clinton could veto the measure.	Even if it were approved, Clinton could veto the measure.	538287	1471949587472	1471949587592	e	69
1077	11226	Even if it were approved, Clinton could veto the measure.	Even if it were approved, Clinton could veto the measure.	538288	1471949587721	1471949587840	r	82
1077	11226	Even if it were approved, Clinton could veto the measure.	Even if it were approved, Clinton could veto the measure.	538294	1471949587776	1471949587936	e	69
1077	11226	Even if it were approved, Clinton could veto the measure.	Even if it were approved, Clinton could veto the measure.	538296	1471949587896	1471949588032	 	32
1077	11226	Even if it were approved, Clinton could veto the measure.	Even if it were approved, Clinton could veto the measure.	538297	1471949588056	1471949588192	a	65
1077	11226	Even if it were approved, Clinton could veto the measure.	Even if it were approved, Clinton could veto the measure.	538298	1471949588177	1471949588256	p	80
1077	11226	Even if it were approved, Clinton could veto the measure.	Even if it were approved, Clinton could veto the measure.	538299	1471949588312	1471949588416	p	80
1077	11226	Even if it were approved, Clinton could veto the measure.	Even if it were approved, Clinton could veto the measure.	538309	1471949588392	1471949588512	r	82
1077	11226	Even if it were approved, Clinton could veto the measure.	Even if it were approved, Clinton could veto the measure.	538312	1471949588536	1471949588672	o	79
1077	11226	Even if it were approved, Clinton could veto the measure.	Even if it were approved, Clinton could veto the measure.	538314	1471949588688	1471949588872	v	86
1077	11226	Even if it were approved, Clinton could veto the measure.	Even if it were approved, Clinton could veto the measure.	538316	1471949588808	1471949588968	e	69
1077	11226	Even if it were approved, Clinton could veto the measure.	Even if it were approved, Clinton could veto the measure.	538318	1471949589048	1471949589184	d	68
1077	11226	Even if it were approved, Clinton could veto the measure.	Even if it were approved, Clinton could veto the measure.	538320	1471949589792	1471949589936	,	188
1077	11226	Even if it were approved, Clinton could veto the measure.	Even if it were approved, Clinton could veto the measure.	538335	1471949589952	1471949590072	 	32
1077	11226	Even if it were approved, Clinton could veto the measure.	Even if it were approved, Clinton could veto the measure.	538336	1471949589976	1471949590192	SHIFT	16
1077	11226	Even if it were approved, Clinton could veto the measure.	Even if it were approved, Clinton could veto the measure.	538337	1471949590112	1471949590251	C	67
1077	11226	Even if it were approved, Clinton could veto the measure.	Even if it were approved, Clinton could veto the measure.	538338	1471949590232	1471949590353	l	76
1077	11226	Even if it were approved, Clinton could veto the measure.	Even if it were approved, Clinton could veto the measure.	538339	1471949590432	1471949590512	i	73
1077	11226	Even if it were approved, Clinton could veto the measure.	Even if it were approved, Clinton could veto the measure.	538340	1471949590640	1471949590760	n	78
1077	11226	Even if it were approved, Clinton could veto the measure.	Even if it were approved, Clinton could veto the measure.	538347	1471949590736	1471949590840	t	84
1077	11226	Even if it were approved, Clinton could veto the measure.	Even if it were approved, Clinton could veto the measure.	538348	1471949590856	1471949590976	o	79
1077	11226	Even if it were approved, Clinton could veto the measure.	Even if it were approved, Clinton could veto the measure.	538349	1471949591072	1471949591192	n	78
1077	11226	Even if it were approved, Clinton could veto the measure.	Even if it were approved, Clinton could veto the measure.	538350	1471949591368	1471949591488	 	32
1077	11226	Even if it were approved, Clinton could veto the measure.	Even if it were approved, Clinton could veto the measure.	538351	1471949591648	1471949591792	c	67
1077	11226	Even if it were approved, Clinton could veto the measure.	Even if it were approved, Clinton could veto the measure.	538352	1471949591808	1471949591992	o	79
1077	11226	Even if it were approved, Clinton could veto the measure.	Even if it were approved, Clinton could veto the measure.	538384	1471949591952	1471949592064	u	85
1077	11226	Even if it were approved, Clinton could veto the measure.	Even if it were approved, Clinton could veto the measure.	538385	1471949592464	1471949592584	l	76
1077	11226	Even if it were approved, Clinton could veto the measure.	Even if it were approved, Clinton could veto the measure.	538386	1471949593264	1471949593400	d	68
1077	11226	Even if it were approved, Clinton could veto the measure.	Even if it were approved, Clinton could veto the measure.	538387	1471949593704	1471949593848	 	32
1077	11226	Even if it were approved, Clinton could veto the measure.	Even if it were approved, Clinton could veto the measure.	538388	1471949594176	1471949594336	v	86
1077	11226	Even if it were approved, Clinton could veto the measure.	Even if it were approved, Clinton could veto the measure.	538420	1471949594320	1471949594416	e	69
1077	11226	Even if it were approved, Clinton could veto the measure.	Even if it were approved, Clinton could veto the measure.	538421	1471949594536	1471949594632	t	84
1077	11226	Even if it were approved, Clinton could veto the measure.	Even if it were approved, Clinton could veto the measure.	538422	1471949594699	1471949594840	o	79
1077	11226	Even if it were approved, Clinton could veto the measure.	Even if it were approved, Clinton could veto the measure.	538423	1471949595072	1471949595208	 	32
1077	11226	Even if it were approved, Clinton could veto the measure.	Even if it were approved, Clinton could veto the measure.	538424	1471949595464	1471949595560	t	84
1077	11226	Even if it were approved, Clinton could veto the measure.	Even if it were approved, Clinton could veto the measure.	538426	1471949595640	1471949595776	h	72
1077	11226	Even if it were approved, Clinton could veto the measure.	Even if it were approved, Clinton could veto the measure.	538430	1471949595760	1471949595856	e	69
1077	11226	Even if it were approved, Clinton could veto the measure.	Even if it were approved, Clinton could veto the measure.	538431	1471949595840	1471949595959	 	32
1077	11226	Even if it were approved, Clinton could veto the measure.	Even if it were approved, Clinton could veto the measure.	538432	1471949596007	1471949596151	m	77
1077	11226	Even if it were approved, Clinton could veto the measure.	Even if it were approved, Clinton could veto the measure.	538433	1471949596071	1471949596231	e	69
1077	11226	Even if it were approved, Clinton could veto the measure.	Even if it were approved, Clinton could veto the measure.	538435	1471949596168	1471949596391	a	65
1077	11226	Even if it were approved, Clinton could veto the measure.	Even if it were approved, Clinton could veto the measure.	538462	1471949596368	1471949596503	s	83
1077	11226	Even if it were approved, Clinton could veto the measure.	Even if it were approved, Clinton could veto the measure.	538463	1471949596552	1471949596695	u	85
1077	11226	Even if it were approved, Clinton could veto the measure.	Even if it were approved, Clinton could veto the measure.	538464	1471949596712	1471949596831	r	82
1077	11226	Even if it were approved, Clinton could veto the measure.	Even if it were approved, Clinton could veto the measure.	538465	1471949596775	1471949596951	e	69
1077	11226	Even if it were approved, Clinton could veto the measure.	Even if it were approved, Clinton could veto the measure.	538466	1471949597616	1471949597736	.	190
1077	11231	Now go get washed up for dinner.	Now go get washed up for dinner.	538554	1471949600967	1471949601543	SHIFT	16
1077	11231	Now go get washed up for dinner.	Now go get washed up for dinner.	538556	1471949601400	1471949601583	N	78
1077	11231	Now go get washed up for dinner.	Now go get washed up for dinner.	538557	1471949601560	1471949601679	o	79
1077	11231	Now go get washed up for dinner.	Now go get washed up for dinner.	538559	1471949601719	1471949601823	w	87
1077	11231	Now go get washed up for dinner.	Now go get washed up for dinner.	538560	1471949601959	1471949602095	 	32
1077	11231	Now go get washed up for dinner.	Now go get washed up for dinner.	538597	1471949602055	1471949602151	t	84
1077	11231	Now go get washed up for dinner.	Now go get washed up for dinner.	538598	1471949602351	1471949602511	o	79
1077	11231	Now go get washed up for dinner.	Now go get washed up for dinner.	538599	1471949602639	1471949602759	 	32
1077	11231	Now go get washed up for dinner.	Now go get washed up for dinner.	538601	1471949602847	1471949602927	BKSP	8
1077	11231	Now go get washed up for dinner.	Now go get washed up for dinner.	538603	1471949603007	1471949603087	BKSP	8
1077	11231	Now go get washed up for dinner.	Now go get washed up for dinner.	538605	1471949603151	1471949603247	BKSP	8
1077	11231	Now go get washed up for dinner.	Now go get washed up for dinner.	538609	1471949603799	1471949603880	f	70
1077	11231	Now go get washed up for dinner.	Now go get washed up for dinner.	538612	1471949604080	1471949604216	BKSP	8
1077	11231	Now go get washed up for dinner.	Now go get washed up for dinner.	538614	1471949604240	1471949604336	g	71
1077	11231	Now go get washed up for dinner.	Now go get washed up for dinner.	538616	1471949604440	1471949604536	o	79
1077	11231	Now go get washed up for dinner.	Now go get washed up for dinner.	538623	1471949604656	1471949604768	 	32
1077	11231	Now go get washed up for dinner.	Now go get washed up for dinner.	538624	1471949604968	1471949605104	g	71
1077	11231	Now go get washed up for dinner.	Now go get washed up for dinner.	538625	1471949605088	1471949605184	e	69
1077	11231	Now go get washed up for dinner.	Now go get washed up for dinner.	538626	1471949605264	1471949605384	t	84
1077	11231	Now go get washed up for dinner.	Now go get washed up for dinner.	538627	1471949605552	1471949605672	 	32
1077	11231	Now go get washed up for dinner.	Now go get washed up for dinner.	538632	1471949605784	1471949605888	w	87
1077	11231	Now go get washed up for dinner.	Now go get washed up for dinner.	538633	1471949605864	1471949606064	a	65
1077	11231	Now go get washed up for dinner.	Now go get washed up for dinner.	538634	1471949606008	1471949606184	s	83
1077	11231	Now go get washed up for dinner.	Now go get washed up for dinner.	538635	1471949606200	1471949606344	h	72
1077	11231	Now go get washed up for dinner.	Now go get washed up for dinner.	538658	1471949606304	1471949606400	e	69
1077	11231	Now go get washed up for dinner.	Now go get washed up for dinner.	538659	1471949606488	1471949606632	d	68
1077	11231	Now go get washed up for dinner.	Now go get washed up for dinner.	538660	1471949606800	1471949606920	 	32
1077	11231	Now go get washed up for dinner.	Now go get washed up for dinner.	538661	1471949607304	1471949607440	u	85
1077	11231	Now go get washed up for dinner.	Now go get washed up for dinner.	538662	1471949607465	1471949607616	p	80
1077	11231	Now go get washed up for dinner.	Now go get washed up for dinner.	538663	1471949607640	1471949607800	 	32
1077	11231	Now go get washed up for dinner.	Now go get washed up for dinner.	538664	1471949607816	1471949607936	f	70
1077	11231	Now go get washed up for dinner.	Now go get washed up for dinner.	538665	1471949607920	1471949608072	o	79
1077	11231	Now go get washed up for dinner.	Now go get washed up for dinner.	538666	1471949608032	1471949608176	r	82
1077	11231	Now go get washed up for dinner.	Now go get washed up for dinner.	538667	1471949608152	1471949608312	 	32
1077	11231	Now go get washed up for dinner.	Now go get washed up for dinner.	538668	1471949608296	1471949608456	d	68
1077	11231	Now go get washed up for dinner.	Now go get washed up for dinner.	538669	1471949608416	1471949608512	i	73
1077	11231	Now go get washed up for dinner.	Now go get washed up for dinner.	538670	1471949608616	1471949608696	n	78
1077	11231	Now go get washed up for dinner.	Now go get washed up for dinner.	538671	1471949608752	1471949608832	n	78
1077	11231	Now go get washed up for dinner.	Now go get washed up for dinner.	538673	1471949608856	1471949608952	e	69
1077	11231	Now go get washed up for dinner.	Now go get washed up for dinner.	538675	1471949609024	1471949609128	r	82
1077	11231	Now go get washed up for dinner.	Now go get washed up for dinner.	538680	1471949609704	1471949609800	.	190
1077	11236	I think Citation should be good now.	I think citation should be good now.	538712	1471949613071	1471949613336	SHIFT	16
1077	11236	I think Citation should be good now.	I think citation should be good now.	538711	1471949613194	1471949613312	I	73
1077	11236	I think Citation should be good now.	I think citation should be good now.	538713	1471949613440	1471949613576	 	32
1077	11236	I think Citation should be good now.	I think citation should be good now.	538714	1471949613560	1471949613656	t	84
1077	11236	I think Citation should be good now.	I think citation should be good now.	538715	1471949613704	1471949613824	h	72
1077	11236	I think Citation should be good now.	I think citation should be good now.	538721	1471949613784	1471949613920	i	73
1077	11236	I think Citation should be good now.	I think citation should be good now.	538722	1471949614008	1471949614187	n	78
1077	11236	I think Citation should be good now.	I think citation should be good now.	538723	1471949614128	1471949614279	k	75
1077	11236	I think Citation should be good now.	I think citation should be good now.	538724	1471949614303	1471949614463	 	32
1077	11236	I think Citation should be good now.	I think citation should be good now.	538725	1471949614479	1471949614640	c	67
1077	11236	I think Citation should be good now.	I think citation should be good now.	538733	1471949614624	1471949614744	i	73
1077	11236	I think Citation should be good now.	I think citation should be good now.	538736	1471949614800	1471949614920	a	65
1077	11236	I think Citation should be good now.	I think citation should be good now.	538739	1471949615023	1471949615127	t	84
1077	11236	I think Citation should be good now.	I think citation should be good now.	538742	1471949615199	1471949615351	i	73
1077	11236	I think Citation should be good now.	I think citation should be good now.	538744	1471949615320	1471949615456	o	79
1077	11236	I think Citation should be good now.	I think citation should be good now.	538748	1471949615544	1471949615640	n	78
1077	11236	I think Citation should be good now.	I think citation should be good now.	538775	1471949615864	1471949615960	 	32
1077	11236	I think Citation should be good now.	I think citation should be good now.	538776	1471949616176	1471949616255	BKSP	8
1077	11236	I think Citation should be good now.	I think citation should be good now.	538777	1471949616329	1471949616383	BKSP	8
1077	11236	I think Citation should be good now.	I think citation should be good now.	538778	1471949616447	1471949616527	BKSP	8
1077	11236	I think Citation should be good now.	I think citation should be good now.	538779	1471949616591	1471949616671	BKSP	8
1077	11236	I think Citation should be good now.	I think citation should be good now.	538780	1471949616719	1471949616799	BKSP	8
1077	11236	I think Citation should be good now.	I think citation should be good now.	538781	1471949616855	1471949616935	BKSP	8
1077	11236	I think Citation should be good now.	I think citation should be good now.	538782	1471949617455	1471949617575	t	84
1077	11236	I think Citation should be good now.	I think citation should be good now.	538783	1471949617615	1471949617751	a	65
1077	11236	I think Citation should be good now.	I think citation should be good now.	538784	1471949617793	1471949617911	t	84
1077	11236	I think Citation should be good now.	I think citation should be good now.	538790	1471949617895	1471949618015	i	73
1077	11236	I think Citation should be good now.	I think citation should be good now.	538791	1471949617975	1471949618127	o	79
1077	11236	I think Citation should be good now.	I think citation should be good now.	538792	1471949618305	1471949618399	n	78
1077	11236	I think Citation should be good now.	I think citation should be good now.	538793	1471949618639	1471949618815	 	32
1077	11236	I think Citation should be good now.	I think citation should be good now.	538795	1471949618799	1471949618911	s	83
1077	11236	I think Citation should be good now.	I think citation should be good now.	538797	1471949619007	1471949619143	h	72
1077	11236	I think Citation should be good now.	I think citation should be good now.	538807	1471949619127	1471949619303	o	79
1077	11236	I think Citation should be good now.	I think citation should be good now.	538808	1471949619263	1471949619367	u	85
1077	11236	I think Citation should be good now.	I think citation should be good now.	538810	1471949619535	1471949619639	l	76
1077	11236	I think Citation should be good now.	I think citation should be good now.	538812	1471949619655	1471949619759	d	68
1077	11236	I think Citation should be good now.	I think citation should be good now.	538814	1471949620071	1471949620207	 	32
1077	11236	I think Citation should be good now.	I think citation should be good now.	538816	1471949620327	1471949620447	b	66
1077	11236	I think Citation should be good now.	I think citation should be good now.	538818	1471949620431	1471949620567	e	69
1077	11236	I think Citation should be good now.	I think citation should be good now.	538819	1471949620543	1471949620703	 	32
1077	11236	I think Citation should be good now.	I think citation should be good now.	538820	1471949620727	1471949620823	g	71
1077	11236	I think Citation should be good now.	I think citation should be good now.	538821	1471949620871	1471949620967	o	79
1077	11236	I think Citation should be good now.	I think citation should be good now.	538822	1471949621007	1471949621151	o	79
1077	11236	I think Citation should be good now.	I think citation should be good now.	538849	1471949621112	1471949621271	d	68
1077	11236	I think Citation should be good now.	I think citation should be good now.	538850	1471949621504	1471949621640	 	32
1077	11236	I think Citation should be good now.	I think citation should be good now.	538851	1471949621856	1471949622016	n	78
1077	11236	I think Citation should be good now.	I think citation should be good now.	538852	1471949621976	1471949622120	o	79
1077	11236	I think Citation should be good now.	I think citation should be good now.	538853	1471949622096	1471949622216	w	87
1077	11236	I think Citation should be good now.	I think citation should be good now.	538854	1471949622336	1471949622456	.	190
1077	11240	The cause of the fire was under investigation, police said.	The cause of the fire was under investigation, police said.	538900	1471949625704	1471949626000	SHIFT	16
1077	11240	The cause of the fire was under investigation, police said.	The cause of the fire was under investigation, police said.	538901	1471949625936	1471949626040	T	84
1077	11240	The cause of the fire was under investigation, police said.	The cause of the fire was under investigation, police said.	538902	1471949626016	1471949626160	h	72
1077	11240	The cause of the fire was under investigation, police said.	The cause of the fire was under investigation, police said.	538903	1471949626176	1471949626272	e	69
1077	11240	The cause of the fire was under investigation, police said.	The cause of the fire was under investigation, police said.	538904	1471949626320	1471949626440	 	32
1077	11240	The cause of the fire was under investigation, police said.	The cause of the fire was under investigation, police said.	538905	1471949626464	1471949626584	c	67
1077	11240	The cause of the fire was under investigation, police said.	The cause of the fire was under investigation, police said.	538922	1471949626520	1471949626704	a	65
1077	11240	The cause of the fire was under investigation, police said.	The cause of the fire was under investigation, police said.	538923	1471949626664	1471949626776	u	85
1077	11240	The cause of the fire was under investigation, police said.	The cause of the fire was under investigation, police said.	538924	1471949626760	1471949626880	s	83
1077	11240	The cause of the fire was under investigation, police said.	The cause of the fire was under investigation, police said.	538925	1471949626976	1471949627055	e	69
1077	11240	The cause of the fire was under investigation, police said.	The cause of the fire was under investigation, police said.	538926	1471949627272	1471949627416	 	32
1077	11240	The cause of the fire was under investigation, police said.	The cause of the fire was under investigation, police said.	538927	1471949627656	1471949627776	o	79
1077	11240	The cause of the fire was under investigation, police said.	The cause of the fire was under investigation, police said.	538931	1471949627760	1471949627856	f	70
1077	11240	The cause of the fire was under investigation, police said.	The cause of the fire was under investigation, police said.	538933	1471949627872	1471949628016	 	32
1077	11240	The cause of the fire was under investigation, police said.	The cause of the fire was under investigation, police said.	538935	1471949627976	1471949628072	t	84
1077	11240	The cause of the fire was under investigation, police said.	The cause of the fire was under investigation, police said.	538937	1471949628096	1471949628192	h	72
1077	11240	The cause of the fire was under investigation, police said.	The cause of the fire was under investigation, police said.	538940	1471949628215	1471949628287	e	69
1077	11240	The cause of the fire was under investigation, police said.	The cause of the fire was under investigation, police said.	538942	1471949628318	1471949628431	 	32
1077	11240	The cause of the fire was under investigation, police said.	The cause of the fire was under investigation, police said.	538958	1471949628407	1471949628528	f	70
1077	11240	The cause of the fire was under investigation, police said.	The cause of the fire was under investigation, police said.	538960	1471949628608	1471949628728	i	73
1077	11240	The cause of the fire was under investigation, police said.	The cause of the fire was under investigation, police said.	538961	1471949628712	1471949628832	r	82
1077	11240	The cause of the fire was under investigation, police said.	The cause of the fire was under investigation, police said.	538963	1471949628792	1471949628928	e	69
1077	11240	The cause of the fire was under investigation, police said.	The cause of the fire was under investigation, police said.	538966	1471949629119	1471949629231	 	32
1077	11240	The cause of the fire was under investigation, police said.	The cause of the fire was under investigation, police said.	538968	1471949629376	1471949629511	w	87
1077	11240	The cause of the fire was under investigation, police said.	The cause of the fire was under investigation, police said.	538978	1471949629472	1471949629672	a	65
1077	11240	The cause of the fire was under investigation, police said.	The cause of the fire was under investigation, police said.	538979	1471949629632	1471949629792	s	83
1077	11240	The cause of the fire was under investigation, police said.	The cause of the fire was under investigation, police said.	538980	1471949629880	1471949630023	 	32
1077	11240	The cause of the fire was under investigation, police said.	The cause of the fire was under investigation, police said.	538981	1471949630288	1471949630391	u	85
1077	11240	The cause of the fire was under investigation, police said.	The cause of the fire was under investigation, police said.	538982	1471949630456	1471949630639	n	78
1077	11240	The cause of the fire was under investigation, police said.	The cause of the fire was under investigation, police said.	539001	1471949630520	1471949630655	d	68
1077	11240	The cause of the fire was under investigation, police said.	The cause of the fire was under investigation, police said.	539003	1471949630615	1471949630840	e	69
1077	11240	The cause of the fire was under investigation, police said.	The cause of the fire was under investigation, police said.	539005	1471949630776	1471949630920	r	82
1077	11240	The cause of the fire was under investigation, police said.	The cause of the fire was under investigation, police said.	539009	1471949631175	1471949631312	 	32
1077	11240	The cause of the fire was under investigation, police said.	The cause of the fire was under investigation, police said.	539011	1471949631512	1471949631607	i	73
1077	11240	The cause of the fire was under investigation, police said.	The cause of the fire was under investigation, police said.	539014	1471949631696	1471949631831	n	78
1077	11240	The cause of the fire was under investigation, police said.	The cause of the fire was under investigation, police said.	539024	1471949631815	1471949631951	v	86
1077	11240	The cause of the fire was under investigation, police said.	The cause of the fire was under investigation, police said.	539025	1471949631912	1471949632072	e	69
1077	11240	The cause of the fire was under investigation, police said.	The cause of the fire was under investigation, police said.	539026	1471949632095	1471949632176	r	82
1077	11240	The cause of the fire was under investigation, police said.	The cause of the fire was under investigation, police said.	539027	1471949632479	1471949632583	BKSP	8
1077	11240	The cause of the fire was under investigation, police said.	The cause of the fire was under investigation, police said.	539028	1471949632647	1471949632783	s	83
1077	11240	The cause of the fire was under investigation, police said.	The cause of the fire was under investigation, police said.	539029	1471949633255	1471949633359	t	84
1077	11240	The cause of the fire was under investigation, police said.	The cause of the fire was under investigation, police said.	539030	1471949633456	1471949633575	i	73
1077	11240	The cause of the fire was under investigation, police said.	The cause of the fire was under investigation, police said.	539035	1471949633687	1471949633791	g	71
1077	11240	The cause of the fire was under investigation, police said.	The cause of the fire was under investigation, police said.	539037	1471949633727	1471949633871	a	65
1077	11240	The cause of the fire was under investigation, police said.	The cause of the fire was under investigation, police said.	539039	1471949633951	1471949634047	t	84
1077	11240	The cause of the fire was under investigation, police said.	The cause of the fire was under investigation, police said.	539041	1471949634031	1471949634167	i	73
1077	11240	The cause of the fire was under investigation, police said.	The cause of the fire was under investigation, police said.	539055	1471949634111	1471949634247	o	79
1077	11240	The cause of the fire was under investigation, police said.	The cause of the fire was under investigation, police said.	539056	1471949634439	1471949634535	n	78
1077	11240	The cause of the fire was under investigation, police said.	The cause of the fire was under investigation, police said.	539058	1471949635079	1471949635175	,	188
1077	11240	The cause of the fire was under investigation, police said.	The cause of the fire was under investigation, police said.	539060	1471949635247	1471949635343	 	32
1077	11240	The cause of the fire was under investigation, police said.	The cause of the fire was under investigation, police said.	539062	1471949635359	1471949635503	p	80
1077	11240	The cause of the fire was under investigation, police said.	The cause of the fire was under investigation, police said.	539076	1471949635423	1471949635543	o	79
1077	11240	The cause of the fire was under investigation, police said.	The cause of the fire was under investigation, police said.	539077	1471949635647	1471949635743	l	76
1077	11240	The cause of the fire was under investigation, police said.	The cause of the fire was under investigation, police said.	539078	1471949635831	1471949635927	i	73
1077	11240	The cause of the fire was under investigation, police said.	The cause of the fire was under investigation, police said.	539079	1471949635951	1471949636063	c	67
1077	11240	The cause of the fire was under investigation, police said.	The cause of the fire was under investigation, police said.	539080	1471949636007	1471949636143	e	69
1077	11240	The cause of the fire was under investigation, police said.	The cause of the fire was under investigation, police said.	539096	1471949636103	1471949636263	 	32
1077	11240	The cause of the fire was under investigation, police said.	The cause of the fire was under investigation, police said.	539099	1471949636247	1471949636423	s	83
1077	11240	The cause of the fire was under investigation, police said.	The cause of the fire was under investigation, police said.	539101	1471949636343	1471949636519	a	65
1077	11240	The cause of the fire was under investigation, police said.	The cause of the fire was under investigation, police said.	539102	1471949636463	1471949636599	i	73
1077	11240	The cause of the fire was under investigation, police said.	The cause of the fire was under investigation, police said.	539103	1471949636623	1471949636743	d	68
1077	11240	The cause of the fire was under investigation, police said.	The cause of the fire was under investigation, police said.	539104	1471949636855	1471949636951	.	190
1077	11245	I'm fully recovered and back on pace.	I'm fully recovered and back on pace.	539183	1471949640480	1471949640704	SHIFT	16
1077	11245	I'm fully recovered and back on pace.	I'm fully recovered and back on pace.	539184	1471949640600	1471949640720	I	73
1077	11245	I'm fully recovered and back on pace.	I'm fully recovered and back on pace.	539185	1471949641224	1471949641320	'	222
1077	11245	I'm fully recovered and back on pace.	I'm fully recovered and back on pace.	539186	1471949641488	1471949641584	m	77
1077	11245	I'm fully recovered and back on pace.	I'm fully recovered and back on pace.	539187	1471949641696	1471949641872	 	32
1077	11245	I'm fully recovered and back on pace.	I'm fully recovered and back on pace.	539188	1471949641976	1471949642119	f	70
1077	11245	I'm fully recovered and back on pace.	I'm fully recovered and back on pace.	539213	1471949642191	1471949642287	u	85
1077	11245	I'm fully recovered and back on pace.	I'm fully recovered and back on pace.	539214	1471949642463	1471949642542	l	76
1077	11245	I'm fully recovered and back on pace.	I'm fully recovered and back on pace.	539215	1471949642606	1471949642678	l	76
1077	11245	I'm fully recovered and back on pace.	I'm fully recovered and back on pace.	539216	1471949643510	1471949643614	y	89
1077	11245	I'm fully recovered and back on pace.	I'm fully recovered and back on pace.	539217	1471949643702	1471949643846	 	32
1077	11245	I'm fully recovered and back on pace.	I'm fully recovered and back on pace.	539228	1471949643806	1471949643926	r	82
1077	11245	I'm fully recovered and back on pace.	I'm fully recovered and back on pace.	539230	1471949643887	1471949643982	e	69
1077	11245	I'm fully recovered and back on pace.	I'm fully recovered and back on pace.	539232	1471949644095	1471949644190	c	67
1077	11245	I'm fully recovered and back on pace.	I'm fully recovered and back on pace.	539233	1471949644246	1471949644342	o	79
1077	11245	I'm fully recovered and back on pace.	I'm fully recovered and back on pace.	539234	1471949644366	1471949644478	v	86
1077	11245	I'm fully recovered and back on pace.	I'm fully recovered and back on pace.	539245	1471949644438	1471949644598	e	69
1077	11245	I'm fully recovered and back on pace.	I'm fully recovered and back on pace.	539246	1471949644638	1471949644786	r	82
1077	11245	I'm fully recovered and back on pace.	I'm fully recovered and back on pace.	539247	1471949644798	1471949644948	e	69
1077	11245	I'm fully recovered and back on pace.	I'm fully recovered and back on pace.	539248	1471949645007	1471949645126	d	68
1077	11245	I'm fully recovered and back on pace.	I'm fully recovered and back on pace.	539249	1471949645342	1471949645502	 	32
1077	11245	I'm fully recovered and back on pace.	I'm fully recovered and back on pace.	539250	1471949645518	1471949645622	a	65
1077	11245	I'm fully recovered and back on pace.	I'm fully recovered and back on pace.	539264	1471949645582	1471949645742	n	78
1077	11245	I'm fully recovered and back on pace.	I'm fully recovered and back on pace.	539266	1471949645942	1471949646062	d	68
1077	11245	I'm fully recovered and back on pace.	I'm fully recovered and back on pace.	539270	1471949646183	1471949646318	 	32
1077	11245	I'm fully recovered and back on pace.	I'm fully recovered and back on pace.	539273	1471949646502	1471949646622	b	66
1077	11245	I'm fully recovered and back on pace.	I'm fully recovered and back on pace.	539279	1471949646542	1471949646718	a	65
1077	11245	I'm fully recovered and back on pace.	I'm fully recovered and back on pace.	539295	1471949646702	1471949646840	c	67
1077	11245	I'm fully recovered and back on pace.	I'm fully recovered and back on pace.	539296	1471949646903	1471949646983	k	75
1077	11245	I'm fully recovered and back on pace.	I'm fully recovered and back on pace.	539297	1471949647142	1471949647262	 	32
1077	11245	I'm fully recovered and back on pace.	I'm fully recovered and back on pace.	539298	1471949647358	1471949647478	o	79
1077	11245	I'm fully recovered and back on pace.	I'm fully recovered and back on pace.	539299	1471949647599	1471949647702	n	78
1077	11245	I'm fully recovered and back on pace.	I'm fully recovered and back on pace.	539300	1471949647959	1471949648118	 	32
1077	11245	I'm fully recovered and back on pace.	I'm fully recovered and back on pace.	539319	1471949648334	1471949648470	p	80
1077	11245	I'm fully recovered and back on pace.	I'm fully recovered and back on pace.	539320	1471949648390	1471949648511	a	65
1077	11245	I'm fully recovered and back on pace.	I'm fully recovered and back on pace.	539321	1471949648598	1471949648750	c	67
1077	11245	I'm fully recovered and back on pace.	I'm fully recovered and back on pace.	539322	1471949648694	1471949648830	e	69
1077	11245	I'm fully recovered and back on pace.	I'm fully recovered and back on pace.	539323	1471949648894	1471949648998	.	190
