PARTICIPANT_ID	TEST_SECTION_ID	SENTENCE	USER_INPUT	KEYSTROKE_ID	PRESS_TIME	RELEASE_TIME	LETTER	KEYCODE
1124	11460	Below is the intended version.	Below is the intended version.	548934	1472004222656	1472004222849	SHIFT	16
1124	11460	Below is the intended version.	Below is the intended version.	548938	1472004222805	1472004222913	B	66
1124	11460	Below is the intended version.	Below is the intended version.	548941	1472004223069	1472004223288	e	69
1124	11460	Below is the intended version.	Below is the intended version.	548944	1472004223304	1472004223366	l	76
1124	11460	Below is the intended version.	Below is the intended version.	548947	1472004223444	1472004223509	l	76
1124	11460	Below is the intended version.	Below is the intended version.	548949	1472004223839	1472004223907	BKSP	8
1124	11460	Below is the intended version.	Below is the intended version.	548950	1472004224313	1472004224374	p	80
1124	11460	Below is the intended version.	Below is the intended version.	549019	1472004224390	1472004224504	w	87
1124	11460	Below is the intended version.	Below is the intended version.	549023	1472004224962	1472004225047	BKSP	8
1124	11460	Below is the intended version.	Below is the intended version.	549029	1472004225110	1472004225206	BKSP	8
1124	11460	Below is the intended version.	Below is the intended version.	549035	1472004225456	1472004225515	o	79
1124	11460	Below is the intended version.	Below is the intended version.	549042	1472004225546	1472004225640	w	87
1124	11460	Below is the intended version.	Below is the intended version.	549046	1472004225703	1472004225874	 	32
1124	11460	Below is the intended version.	Below is the intended version.	549049	1472004225889	1472004225973	o	79
1124	11460	Below is the intended version.	Below is the intended version.	549102	1472004226020	1472004226128	s	83
1124	11460	Below is the intended version.	Below is the intended version.	549109	1472004226175	1472004226320	 	32
1124	11460	Below is the intended version.	Below is the intended version.	549114	1472004226805	1472004226864	t	84
1124	11460	Below is the intended version.	Below is the intended version.	549118	1472004226989	1472004227081	h	72
1124	11460	Below is the intended version.	Below is the intended version.	549123	1472004227097	1472004227211	e	69
1124	11460	Below is the intended version.	Below is the intended version.	549226	1472004227243	1472004227402	 	32
1124	11460	Below is the intended version.	Below is the intended version.	549229	1472004227820	1472004227906	BKSP	8
1124	11460	Below is the intended version.	Below is the intended version.	549230	1472004227953	1472004228051	BKSP	8
1124	11460	Below is the intended version.	Below is the intended version.	549233	1472004228098	1472004228180	BKSP	8
1124	11460	Below is the intended version.	Below is the intended version.	549236	1472004228227	1472004228308	BKSP	8
1124	11460	Below is the intended version.	Below is the intended version.	549237	1472004228354	1472004228414	BKSP	8
1124	11460	Below is the intended version.	Below is the intended version.	549238	1472004228477	1472004228535	BKSP	8
1124	11460	Below is the intended version.	Below is the intended version.	549239	1472004228589	1472004228684	BKSP	8
1124	11460	Below is the intended version.	Below is the intended version.	549240	1472004229107	1472004229190	i	73
1124	11460	Below is the intended version.	Below is the intended version.	549241	1472004229299	1472004229427	s	83
1124	11460	Below is the intended version.	Below is the intended version.	549242	1472004229474	1472004229618	 	32
1124	11460	Below is the intended version.	Below is the intended version.	549266	1472004229602	1472004229681	t	84
1124	11460	Below is the intended version.	Below is the intended version.	549270	1472004229759	1472004229831	h	72
1124	11460	Below is the intended version.	Below is the intended version.	549273	1472004229846	1472004229954	e	69
1124	11460	Below is the intended version.	Below is the intended version.	549276	1472004229970	1472004230124	 	32
1124	11460	Below is the intended version.	Below is the intended version.	549278	1472004230313	1472004230390	i	73
1124	11460	Below is the intended version.	Below is the intended version.	549282	1472004230470	1472004230563	n	78
1124	11460	Below is the intended version.	Below is the intended version.	549319	1472004231033	1472004231160	t	84
1124	11460	Below is the intended version.	Below is the intended version.	549322	1472004231254	1472004231393	e	69
1124	11460	Below is the intended version.	Below is the intended version.	549327	1472004231753	1472004231846	n	78
1124	11460	Below is the intended version.	Below is the intended version.	549331	1472004231861	1472004231956	d	68
1124	11460	Below is the intended version.	Below is the intended version.	549334	1472004232034	1472004232130	e	69
1124	11460	Below is the intended version.	Below is the intended version.	549409	1472004232240	1472004232370	d	68
1124	11460	Below is the intended version.	Below is the intended version.	549412	1472004232559	1472004232641	s	83
1124	11460	Below is the intended version.	Below is the intended version.	549419	1472004233131	1472004233229	BKSP	8
1124	11460	Below is the intended version.	Below is the intended version.	549425	1472004233323	1472004233453	 	32
1124	11460	Below is the intended version.	Below is the intended version.	549430	1472004233956	1472004234070	v	86
1124	11460	Below is the intended version.	Below is the intended version.	549434	1472004234180	1472004234279	e	69
1124	11460	Below is the intended version.	Below is the intended version.	549447	1472004234342	1472004234423	r	82
1124	11460	Below is the intended version.	Below is the intended version.	549448	1472004234579	1472004234689	s	83
1124	11460	Below is the intended version.	Below is the intended version.	549449	1472004234768	1472004234897	i	73
1124	11460	Below is the intended version.	Below is the intended version.	549450	1472004234862	1472004234956	o	79
1124	11460	Below is the intended version.	Below is the intended version.	549453	1472004235065	1472004235161	n	78
1124	11460	Below is the intended version.	Below is the intended version.	549582	1472004235287	1472004235396	s	83
1124	11460	Below is the intended version.	Below is the intended version.	549583	1472004235630	1472004235729	BKSP	8
1124	11460	Below is the intended version.	Below is the intended version.	549586	1472004236104	1472004236181	.	190
1124	11476	The reserve wideout is day-to-day.	The reserve wideout is day-to-day.	549730	1472004240965	1472004241220	SHIFT	16
1124	11476	The reserve wideout is day-to-day.	The reserve wideout is day-to-day.	549732	1472004241156	1472004241286	T	84
1124	11476	The reserve wideout is day-to-day.	The reserve wideout is day-to-day.	549734	1472004241396	1472004241472	h	72
1124	11476	The reserve wideout is day-to-day.	The reserve wideout is day-to-day.	549736	1472004241457	1472004241618	e	69
1124	11476	The reserve wideout is day-to-day.	The reserve wideout is day-to-day.	549738	1472004241664	1472004241807	 	32
1124	11476	The reserve wideout is day-to-day.	The reserve wideout is day-to-day.	549807	1472004242166	1472004242345	t	82
1124	11476	The reserve wideout is day-to-day.	The reserve wideout is day-to-day.	549808	1472004242263	1472004242392	e	69
1124	11476	The reserve wideout is day-to-day.	The reserve wideout is day-to-day.	549809	1472004242673	1472004242771	BKSP	8
1124	11476	The reserve wideout is day-to-day.	The reserve wideout is day-to-day.	549810	1472004242943	1472004243038	BKSP	8
1124	11476	The reserve wideout is day-to-day.	The reserve wideout is day-to-day.	549811	1472004243147	1472004243236	e	69
1124	11476	The reserve wideout is day-to-day.	The reserve wideout is day-to-day.	549812	1472004243548	1472004243645	s	83
1124	11476	The reserve wideout is day-to-day.	The reserve wideout is day-to-day.	549813	1472004243723	1472004243821	e	69
1124	11476	The reserve wideout is day-to-day.	The reserve wideout is day-to-day.	549814	1472004243899	1472004243996	r	82
1124	11476	The reserve wideout is day-to-day.	The reserve wideout is day-to-day.	549938	1472004244496	1472004244579	v	86
1124	11476	The reserve wideout is day-to-day.	The reserve wideout is day-to-day.	549943	1472004244563	1472004244661	e	69
1124	11476	The reserve wideout is day-to-day.	The reserve wideout is day-to-day.	549948	1472004244770	1472004244924	 	32
1124	11476	The reserve wideout is day-to-day.	The reserve wideout is day-to-day.	549952	1472004245220	1472004245297	BKSP	8
1124	11476	The reserve wideout is day-to-day.	The reserve wideout is day-to-day.	549955	1472004245375	1472004245456	BKSP	8
1124	11476	The reserve wideout is day-to-day.	The reserve wideout is day-to-day.	549957	1472004245534	1472004245612	BKSP	8
1124	11476	The reserve wideout is day-to-day.	The reserve wideout is day-to-day.	549959	1472004245846	1472004245928	BKSP	8
1124	11476	The reserve wideout is day-to-day.	The reserve wideout is day-to-day.	549961	1472004246742	1472004246822	v	86
1124	11476	The reserve wideout is day-to-day.	The reserve wideout is day-to-day.	549962	1472004247071	1472004247169	BKSP	8
1124	11476	The reserve wideout is day-to-day.	The reserve wideout is day-to-day.	549965	1472004247216	1472004247343	r	82
1124	11476	The reserve wideout is day-to-day.	The reserve wideout is day-to-day.	550000	1472004247765	1472004247845	v	86
1124	11476	The reserve wideout is day-to-day.	The reserve wideout is day-to-day.	550003	1472004247861	1472004247970	e	69
1124	11476	The reserve wideout is day-to-day.	The reserve wideout is day-to-day.	550005	1472004247985	1472004248108	 	32
1124	11476	The reserve wideout is day-to-day.	The reserve wideout is day-to-day.	550007	1472004248201	1472004248294	w	87
1124	11476	The reserve wideout is day-to-day.	The reserve wideout is day-to-day.	550014	1472004248624	1472004248706	i	73
1124	11476	The reserve wideout is day-to-day.	The reserve wideout is day-to-day.	550077	1472004248753	1472004248875	d	68
1124	11476	The reserve wideout is day-to-day.	The reserve wideout is day-to-day.	550080	1472004248999	1472004249095	r	82
1124	11476	The reserve wideout is day-to-day.	The reserve wideout is day-to-day.	550083	1472004249407	1472004249489	BKSP	8
1124	11476	The reserve wideout is day-to-day.	The reserve wideout is day-to-day.	550085	1472004249520	1472004249627	e	69
1124	11476	The reserve wideout is day-to-day.	The reserve wideout is day-to-day.	550087	1472004250001	1472004250095	o	79
1124	11476	The reserve wideout is day-to-day.	The reserve wideout is day-to-day.	550089	1472004250174	1472004250255	u	85
1124	11476	The reserve wideout is day-to-day.	The reserve wideout is day-to-day.	550164	1472004250365	1472004250430	t	84
1124	11476	The reserve wideout is day-to-day.	The reserve wideout is day-to-day.	550167	1472004250508	1472004250619	 	32
1124	11476	The reserve wideout is day-to-day.	The reserve wideout is day-to-day.	550172	1472004251341	1472004251382	i	73
1124	11476	The reserve wideout is day-to-day.	The reserve wideout is day-to-day.	550174	1472004251703	1472004251795	BKSP	8
1124	11476	The reserve wideout is day-to-day.	The reserve wideout is day-to-day.	550176	1472004252247	1472004252314	i	73
1124	11476	The reserve wideout is day-to-day.	The reserve wideout is day-to-day.	550178	1472004252330	1472004252474	s	83
1124	11476	The reserve wideout is day-to-day.	The reserve wideout is day-to-day.	550216	1472004252474	1472004252602	 	32
1124	11476	The reserve wideout is day-to-day.	The reserve wideout is day-to-day.	550218	1472004252680	1472004252776	d	68
1124	11476	The reserve wideout is day-to-day.	The reserve wideout is day-to-day.	550220	1472004252792	1472004252903	a	65
1124	11476	The reserve wideout is day-to-day.	The reserve wideout is day-to-day.	550222	1472004253363	1472004253429	y	89
1124	11476	The reserve wideout is day-to-day.	The reserve wideout is day-to-day.	550291	1472004254031	1472004254097	=	189
1124	11476	The reserve wideout is day-to-day.	The reserve wideout is day-to-day.	550294	1472004254862	1472004254961	BKSP	8
1124	11476	The reserve wideout is day-to-day.	The reserve wideout is day-to-day.	550297	1472004255366	1472004255444	t	84
1124	11476	The reserve wideout is day-to-day.	The reserve wideout is day-to-day.	550300	1472004255506	1472004255572	o	79
1124	11476	The reserve wideout is day-to-day.	The reserve wideout is day-to-day.	550303	1472004255635	1472004255742	 	32
1124	11476	The reserve wideout is day-to-day.	The reserve wideout is day-to-day.	550305	1472004255961	1472004256044	BKSP	8
1124	11476	The reserve wideout is day-to-day.	The reserve wideout is day-to-day.	550307	1472004256419	1472004256495	-	189
1124	11476	The reserve wideout is day-to-day.	The reserve wideout is day-to-day.	550309	1472004256495	1472004256594	d	68
1124	11476	The reserve wideout is day-to-day.	The reserve wideout is day-to-day.	550355	1472004256609	1472004256727	a	65
1124	11476	The reserve wideout is day-to-day.	The reserve wideout is day-to-day.	550357	1472004257164	1472004257213	y	89
1124	11476	The reserve wideout is day-to-day.	The reserve wideout is day-to-day.	550359	1472004257666	1472004257745	.	190
1124	11494	The directors see significant prospects for growth.	The directors see significant prospects for growth.	550538	1472004260369	1472004260794	SHIFT	16
1124	11494	The directors see significant prospects for growth.	The directors see significant prospects for growth.	550541	1472004260700	1472004260809	T	84
1124	11494	The directors see significant prospects for growth.	The directors see significant prospects for growth.	550546	1472004261012	1472004261079	h	72
1124	11494	The directors see significant prospects for growth.	The directors see significant prospects for growth.	550548	1472004261126	1472004261237	e	69
1124	11494	The directors see significant prospects for growth.	The directors see significant prospects for growth.	550550	1472004261502	1472004261578	BKSP	8
1124	11494	The directors see significant prospects for growth.	The directors see significant prospects for growth.	550553	1472004262112	1472004262241	e	69
1124	11494	The directors see significant prospects for growth.	The directors see significant prospects for growth.	550556	1472004262303	1472004262410	 	32
1124	11494	The directors see significant prospects for growth.	The directors see significant prospects for growth.	550591	1472004262661	1472004262791	d	68
1124	11494	The directors see significant prospects for growth.	The directors see significant prospects for growth.	550594	1472004262853	1472004262912	i	73
1124	11494	The directors see significant prospects for growth.	The directors see significant prospects for growth.	550597	1472004263084	1472004263167	r	82
1124	11494	The directors see significant prospects for growth.	The directors see significant prospects for growth.	550600	1472004263245	1472004263329	e	69
1124	11494	The directors see significant prospects for growth.	The directors see significant prospects for growth.	550603	1472004263500	1472004263624	c	67
1124	11494	The directors see significant prospects for growth.	The directors see significant prospects for growth.	550658	1472004263733	1472004263812	t	84
1124	11494	The directors see significant prospects for growth.	The directors see significant prospects for growth.	550660	1472004263874	1472004263938	o	79
1124	11494	The directors see significant prospects for growth.	The directors see significant prospects for growth.	550663	1472004264407	1472004264519	BKSP	8
1124	11494	The directors see significant prospects for growth.	The directors see significant prospects for growth.	550666	1472004265364	1472004265428	o	79
1124	11494	The directors see significant prospects for growth.	The directors see significant prospects for growth.	550669	1472004265475	1472004265569	r	82
1124	11494	The directors see significant prospects for growth.	The directors see significant prospects for growth.	550672	1472004265694	1472004265793	s	83
1124	11494	The directors see significant prospects for growth.	The directors see significant prospects for growth.	550745	1472004266389	1472004266471	 	32
1124	11494	The directors see significant prospects for growth.	The directors see significant prospects for growth.	550749	1472004266518	1472004266657	a	65
1124	11494	The directors see significant prospects for growth.	The directors see significant prospects for growth.	550753	1472004266891	1472004266987	BKSP	8
1124	11494	The directors see significant prospects for growth.	The directors see significant prospects for growth.	550756	1472004267052	1472004267158	s	83
1124	11494	The directors see significant prospects for growth.	The directors see significant prospects for growth.	550758	1472004267501	1472004267577	e	69
1124	11494	The directors see significant prospects for growth.	The directors see significant prospects for growth.	550759	1472004267639	1472004267721	e	69
1124	11494	The directors see significant prospects for growth.	The directors see significant prospects for growth.	550793	1472004267847	1472004267960	 	32
1124	11494	The directors see significant prospects for growth.	The directors see significant prospects for growth.	550797	1472004268053	1472004268152	s	83
1124	11494	The directors see significant prospects for growth.	The directors see significant prospects for growth.	550801	1472004268418	1472004268480	i	73
1124	11494	The directors see significant prospects for growth.	The directors see significant prospects for growth.	550804	1472004268605	1472004268704	g	71
1124	11494	The directors see significant prospects for growth.	The directors see significant prospects for growth.	550808	1472004268891	1472004268971	n	78
1124	11494	The directors see significant prospects for growth.	The directors see significant prospects for growth.	550843	1472004269162	1472004269291	i	73
1124	11494	The directors see significant prospects for growth.	The directors see significant prospects for growth.	550846	1472004269525	1472004269604	g	71
1124	11494	The directors see significant prospects for growth.	The directors see significant prospects for growth.	550849	1472004269822	1472004269920	BKSP	8
1124	11494	The directors see significant prospects for growth.	The directors see significant prospects for growth.	550853	1472004270076	1472004270186	f	70
1124	11494	The directors see significant prospects for growth.	The directors see significant prospects for growth.	550856	1472004270232	1472004270295	i	73
1124	11494	The directors see significant prospects for growth.	The directors see significant prospects for growth.	550858	1472004270404	1472004270502	c	67
1124	11494	The directors see significant prospects for growth.	The directors see significant prospects for growth.	550916	1472004270518	1472004270642	a	65
1124	11494	The directors see significant prospects for growth.	The directors see significant prospects for growth.	550917	1472004271048	1472004271113	n	78
1124	11494	The directors see significant prospects for growth.	The directors see significant prospects for growth.	550918	1472004271285	1472004271360	t	84
1124	11494	The directors see significant prospects for growth.	The directors see significant prospects for growth.	550919	1472004271422	1472004271504	 	32
1124	11494	The directors see significant prospects for growth.	The directors see significant prospects for growth.	550920	1472004272303	1472004272377	p	80
1124	11494	The directors see significant prospects for growth.	The directors see significant prospects for growth.	550957	1472004272456	1472004272552	r	82
1124	11494	The directors see significant prospects for growth.	The directors see significant prospects for growth.	550959	1472004272724	1472004272788	o	79
1124	11494	The directors see significant prospects for growth.	The directors see significant prospects for growth.	550961	1472004272819	1472004272918	s	83
1124	11494	The directors see significant prospects for growth.	The directors see significant prospects for growth.	550963	1472004273396	1472004273462	p	80
1124	11494	The directors see significant prospects for growth.	The directors see significant prospects for growth.	550967	1472004273462	1472004273544	e	69
1124	11494	The directors see significant prospects for growth.	The directors see significant prospects for growth.	551013	1472004273670	1472004273831	c	67
1124	11494	The directors see significant prospects for growth.	The directors see significant prospects for growth.	551015	1472004273862	1472004273913	t	84
1124	11494	The directors see significant prospects for growth.	The directors see significant prospects for growth.	551018	1472004273975	1472004274070	s	83
1124	11494	The directors see significant prospects for growth.	The directors see significant prospects for growth.	551020	1472004274477	1472004274575	 	32
1124	11494	The directors see significant prospects for growth.	The directors see significant prospects for growth.	551022	1472004274747	1472004274921	f	70
1124	11494	The directors see significant prospects for growth.	The directors see significant prospects for growth.	551069	1472004274984	1472004275044	o	79
1124	11494	The directors see significant prospects for growth.	The directors see significant prospects for growth.	551071	1472004275107	1472004275203	r	82
1124	11494	The directors see significant prospects for growth.	The directors see significant prospects for growth.	551075	1472004275265	1472004275391	 	32
1124	11494	The directors see significant prospects for growth.	The directors see significant prospects for growth.	551079	1472004275485	1472004275577	g	71
1124	11494	The directors see significant prospects for growth.	The directors see significant prospects for growth.	551084	1472004276076	1472004276192	r	82
1124	11494	The directors see significant prospects for growth.	The directors see significant prospects for growth.	551136	1472004276254	1472004276321	o	79
1124	11494	The directors see significant prospects for growth.	The directors see significant prospects for growth.	551139	1472004276337	1472004276427	w	87
1124	11494	The directors see significant prospects for growth.	The directors see significant prospects for growth.	551143	1472004277039	1472004277121	t	84
1124	11494	The directors see significant prospects for growth.	The directors see significant prospects for growth.	551147	1472004277137	1472004277212	h	72
1124	11494	The directors see significant prospects for growth.	The directors see significant prospects for growth.	551151	1472004277744	1472004277811	.	190
1124	11512	But I hope to see you at Kari's house.	But I hope to see you at Kari's house.	551316	1472004281261	1472004281720	SHIFT	16
1124	11512	But I hope to see you at Kari's house.	But I hope to see you at Kari's house.	551320	1472004281623	1472004281751	B	66
1124	11512	But I hope to see you at Kari's house.	But I hope to see you at Kari's house.	551329	1472004281891	1472004281970	u	85
1124	11512	But I hope to see you at Kari's house.	But I hope to see you at Kari's house.	551336	1472004282095	1472004282224	t	84
1124	11512	But I hope to see you at Kari's house.	But I hope to see you at Kari's house.	551342	1472004282271	1472004282401	 	32
1124	11512	But I hope to see you at Kari's house.	But I hope to see you at Kari's house.	551440	1472004282588	1472004283060	SHIFT	16
1124	11512	But I hope to see you at Kari's house.	But I hope to see you at Kari's house.	551347	1472004282806	1472004282872	I	85
1124	11512	But I hope to see you at Kari's house.	But I hope to see you at Kari's house.	551444	1472004283231	1472004283341	BKSP	8
1124	11512	But I hope to see you at Kari's house.	But I hope to see you at Kari's house.	551447	1472004283403	1472004283477	BKSP	8
1124	11512	But I hope to see you at Kari's house.	But I hope to see you at Kari's house.	551451	1472004283711	1472004284221	SHIFT	16
1124	11512	But I hope to see you at Kari's house.	But I hope to see you at Kari's house.	551450	1472004284047	1472004284159	I	73
1124	11512	But I hope to see you at Kari's house.	But I hope to see you at Kari's house.	551452	1472004284284	1472004284422	 	32
1124	11512	But I hope to see you at Kari's house.	But I hope to see you at Kari's house.	551453	1472004285098	1472004285255	h	72
1124	11512	But I hope to see you at Kari's house.	But I hope to see you at Kari's house.	551454	1472004285255	1472004285322	o	79
1124	11512	But I hope to see you at Kari's house.	But I hope to see you at Kari's house.	551538	1472004285478	1472004285556	[	80
1124	11512	But I hope to see you at Kari's house.	But I hope to see you at Kari's house.	551539	1472004285967	1472004286058	BKSP	8
1124	11512	But I hope to see you at Kari's house.	But I hope to see you at Kari's house.	551542	1472004286121	1472004286189	BKSP	8
1124	11512	But I hope to see you at Kari's house.	But I hope to see you at Kari's house.	551545	1472004286893	1472004286971	p	80
1124	11512	But I hope to see you at Kari's house.	But I hope to see you at Kari's house.	551548	1472004286986	1472004287124	e	69
1124	11512	But I hope to see you at Kari's house.	But I hope to see you at Kari's house.	551551	1472004287140	1472004287267	 	32
1124	11512	But I hope to see you at Kari's house.	But I hope to see you at Kari's house.	551554	1472004287723	1472004287826	y	89
1124	11512	But I hope to see you at Kari's house.	But I hope to see you at Kari's house.	551557	1472004287920	1472004288003	o	79
1124	11512	But I hope to see you at Kari's house.	But I hope to see you at Kari's house.	551636	1472004288114	1472004288242	 	32
1124	11512	But I hope to see you at Kari's house.	But I hope to see you at Kari's house.	551638	1472004288304	1472004288434	s	83
1124	11512	But I hope to see you at Kari's house.	But I hope to see you at Kari's house.	551640	1472004288512	1472004288595	e	69
1124	11512	But I hope to see you at Kari's house.	But I hope to see you at Kari's house.	551642	1472004288673	1472004288753	e	69
1124	11512	But I hope to see you at Kari's house.	But I hope to see you at Kari's house.	551644	1472004288894	1472004289003	BKSP	8
1124	11512	But I hope to see you at Kari's house.	But I hope to see you at Kari's house.	551646	1472004289065	1472004289161	BKSP	8
1124	11512	But I hope to see you at Kari's house.	But I hope to see you at Kari's house.	551647	1472004289223	1472004289288	BKSP	8
1124	11512	But I hope to see you at Kari's house.	But I hope to see you at Kari's house.	551648	1472004289351	1472004289427	BKSP	8
1124	11512	But I hope to see you at Kari's house.	But I hope to see you at Kari's house.	551649	1472004289490	1472004289555	BKSP	8
1124	11512	But I hope to see you at Kari's house.	But I hope to see you at Kari's house.	551650	1472004289617	1472004289693	BKSP	8
1124	11512	But I hope to see you at Kari's house.	But I hope to see you at Kari's house.	551651	1472004290114	1472004290209	t	84
1124	11512	But I hope to see you at Kari's house.	But I hope to see you at Kari's house.	551671	1472004290288	1472004290354	o	79
1124	11512	But I hope to see you at Kari's house.	But I hope to see you at Kari's house.	551675	1472004290432	1472004290542	 	32
1124	11512	But I hope to see you at Kari's house.	But I hope to see you at Kari's house.	551680	1472004290620	1472004290734	s	83
1124	11512	But I hope to see you at Kari's house.	But I hope to see you at Kari's house.	551685	1472004290812	1472004290877	e	69
1124	11512	But I hope to see you at Kari's house.	But I hope to see you at Kari's house.	551689	1472004290940	1472004291020	e	69
1124	11512	But I hope to see you at Kari's house.	But I hope to see you at Kari's house.	551756	1472004291114	1472004291242	 	32
1124	11512	But I hope to see you at Kari's house.	But I hope to see you at Kari's house.	551759	1472004292070	1472004292169	y	89
1124	11512	But I hope to see you at Kari's house.	But I hope to see you at Kari's house.	551762	1472004292231	1472004292326	o	79
1124	11512	But I hope to see you at Kari's house.	But I hope to see you at Kari's house.	551767	1472004292843	1472004292910	u	85
1124	11512	But I hope to see you at Kari's house.	But I hope to see you at Kari's house.	551773	1472004293019	1472004293165	 	32
1124	11512	But I hope to see you at Kari's house.	But I hope to see you at Kari's house.	551847	1472004293291	1472004293416	SHIFT	16
1124	11512	But I hope to see you at Kari's house.	But I hope to see you at Kari's house.	551848	1472004293809	1472004293903	a	65
1124	11512	But I hope to see you at Kari's house.	But I hope to see you at Kari's house.	551849	1472004294592	1472004294654	t	84
1124	11512	But I hope to see you at Kari's house.	But I hope to see you at Kari's house.	551850	1472004294717	1472004294840	 	32
1124	11512	But I hope to see you at Kari's house.	But I hope to see you at Kari's house.	551851	1472004294949	1472004295551	SHIFT	16
1124	11512	But I hope to see you at Kari's house.	But I hope to see you at Kari's house.	551852	1472004295437	1472004295567	K	75
1124	11512	But I hope to see you at Kari's house.	But I hope to see you at Kari's house.	551853	1472004295692	1472004295841	a	65
1124	11512	But I hope to see you at Kari's house.	But I hope to see you at Kari's house.	551876	1472004296276	1472004296406	r	82
1124	11512	But I hope to see you at Kari's house.	But I hope to see you at Kari's house.	551877	1472004296531	1472004296595	i	73
1124	11512	But I hope to see you at Kari's house.	But I hope to see you at Kari's house.	551879	1472004297269	1472004297360	'	222
1124	11512	But I hope to see you at Kari's house.	But I hope to see you at Kari's house.	551882	1472004297375	1472004297484	s	83
1124	11512	But I hope to see you at Kari's house.	But I hope to see you at Kari's house.	551886	1472004297531	1472004297656	 	32
1124	11512	But I hope to see you at Kari's house.	But I hope to see you at Kari's house.	551913	1472004298128	1472004298212	h	72
1124	11512	But I hope to see you at Kari's house.	But I hope to see you at Kari's house.	551915	1472004298290	1472004298372	o	79
1124	11512	But I hope to see you at Kari's house.	But I hope to see you at Kari's house.	551918	1472004298465	1472004298545	u	85
1124	11512	But I hope to see you at Kari's house.	But I hope to see you at Kari's house.	551922	1472004298591	1472004298708	s	83
1124	11512	But I hope to see you at Kari's house.	But I hope to see you at Kari's house.	551924	1472004298770	1472004298853	e	69
1124	11512	But I hope to see you at Kari's house.	But I hope to see you at Kari's house.	551941	1472004299307	1472004299371	.	190
1124	11529	Treatment options consist of rest, an injection, or surgery.	Treatment options consist of rest, an injection, or surgery.	552048	1472004301597	1472004302101	SHIFT	16
1124	11529	Treatment options consist of rest, an injection, or surgery.	Treatment options consist of rest, an injection, or surgery.	552045	1472004301974	1472004302054	T	84
1124	11529	Treatment options consist of rest, an injection, or surgery.	Treatment options consist of rest, an injection, or surgery.	552050	1472004302226	1472004302366	r	82
1124	11529	Treatment options consist of rest, an injection, or surgery.	Treatment options consist of rest, an injection, or surgery.	552051	1472004302444	1472004302543	e	69
1124	11529	Treatment options consist of rest, an injection, or surgery.	Treatment options consist of rest, an injection, or surgery.	552052	1472004302668	1472004302729	a	65
1124	11529	Treatment options consist of rest, an injection, or surgery.	Treatment options consist of rest, an injection, or surgery.	552053	1472004303278	1472004303361	t	84
1124	11529	Treatment options consist of rest, an injection, or surgery.	Treatment options consist of rest, an injection, or surgery.	552083	1472004303485	1472004303560	m	77
1124	11529	Treatment options consist of rest, an injection, or surgery.	Treatment options consist of rest, an injection, or surgery.	552085	1472004303560	1472004303653	e	69
1124	11529	Treatment options consist of rest, an injection, or surgery.	Treatment options consist of rest, an injection, or surgery.	552086	1472004303700	1472004303793	n	78
1124	11529	Treatment options consist of rest, an injection, or surgery.	Treatment options consist of rest, an injection, or surgery.	552089	1472004304311	1472004304409	t	84
1124	11529	Treatment options consist of rest, an injection, or surgery.	Treatment options consist of rest, an injection, or surgery.	552092	1472004304472	1472004304586	 	32
1124	11529	Treatment options consist of rest, an injection, or surgery.	Treatment options consist of rest, an injection, or surgery.	552131	1472004304914	1472004305009	o	79
1124	11529	Treatment options consist of rest, an injection, or surgery.	Treatment options consist of rest, an injection, or surgery.	552132	1472004305181	1472004305276	p	80
1124	11529	Treatment options consist of rest, an injection, or surgery.	Treatment options consist of rest, an injection, or surgery.	552133	1472004305728	1472004305810	t	84
1124	11529	Treatment options consist of rest, an injection, or surgery.	Treatment options consist of rest, an injection, or surgery.	552135	1472004305919	1472004306046	i	73
1124	11529	Treatment options consist of rest, an injection, or surgery.	Treatment options consist of rest, an injection, or surgery.	552202	1472004306003	1472004306105	o	79
1124	11529	Treatment options consist of rest, an injection, or surgery.	Treatment options consist of rest, an injection, or surgery.	552203	1472004306183	1472004306292	n	78
1124	11529	Treatment options consist of rest, an injection, or surgery.	Treatment options consist of rest, an injection, or surgery.	552204	1472004306495	1472004306624	s	83
1124	11529	Treatment options consist of rest, an injection, or surgery.	Treatment options consist of rest, an injection, or surgery.	552206	1472004306844	1472004306943	 	32
1124	11529	Treatment options consist of rest, an injection, or surgery.	Treatment options consist of rest, an injection, or surgery.	552208	1472004307301	1472004307408	c	67
1124	11529	Treatment options consist of rest, an injection, or surgery.	Treatment options consist of rest, an injection, or surgery.	552210	1472004307455	1472004307522	o	79
1124	11529	Treatment options consist of rest, an injection, or surgery.	Treatment options consist of rest, an injection, or surgery.	552255	1472004307585	1472004307675	s	83
1124	11529	Treatment options consist of rest, an injection, or surgery.	Treatment options consist of rest, an injection, or surgery.	552257	1472004308129	1472004308192	i	73
1124	11529	Treatment options consist of rest, an injection, or surgery.	Treatment options consist of rest, an injection, or surgery.	552258	1472004308274	1472004308354	s	83
1124	11529	Treatment options consist of rest, an injection, or surgery.	Treatment options consist of rest, an injection, or surgery.	552261	1472004308729	1472004308812	BKSP	8
1124	11529	Treatment options consist of rest, an injection, or surgery.	Treatment options consist of rest, an injection, or surgery.	552264	1472004308890	1472004308970	BKSP	8
1124	11529	Treatment options consist of rest, an injection, or surgery.	Treatment options consist of rest, an injection, or surgery.	552267	1472004309032	1472004309112	BKSP	8
1124	11529	Treatment options consist of rest, an injection, or surgery.	Treatment options consist of rest, an injection, or surgery.	552270	1472004309455	1472004309521	n	78
1124	11529	Treatment options consist of rest, an injection, or surgery.	Treatment options consist of rest, an injection, or surgery.	552277	1472004309740	1472004309883	s	83
1124	11529	Treatment options consist of rest, an injection, or surgery.	Treatment options consist of rest, an injection, or surgery.	552322	1472004310447	1472004310520	i	73
1124	11529	Treatment options consist of rest, an injection, or surgery.	Treatment options consist of rest, an injection, or surgery.	552323	1472004310536	1472004310641	s	83
1124	11529	Treatment options consist of rest, an injection, or surgery.	Treatment options consist of rest, an injection, or surgery.	552324	1472004311207	1472004311334	t	84
1124	11529	Treatment options consist of rest, an injection, or surgery.	Treatment options consist of rest, an injection, or surgery.	552325	1472004311428	1472004311541	 	32
1124	11529	Treatment options consist of rest, an injection, or surgery.	Treatment options consist of rest, an injection, or surgery.	552326	1472004311572	1472004311670	o	79
1124	11529	Treatment options consist of rest, an injection, or surgery.	Treatment options consist of rest, an injection, or surgery.	552378	1472004311842	1472004312014	f	70
1124	11529	Treatment options consist of rest, an injection, or surgery.	Treatment options consist of rest, an injection, or surgery.	552380	1472004312061	1472004312167	 	32
1124	11529	Treatment options consist of rest, an injection, or surgery.	Treatment options consist of rest, an injection, or surgery.	552382	1472004313296	1472004313440	r	82
1124	11529	Treatment options consist of rest, an injection, or surgery.	Treatment options consist of rest, an injection, or surgery.	552384	1472004313424	1472004313518	e	69
1124	11529	Treatment options consist of rest, an injection, or surgery.	Treatment options consist of rest, an injection, or surgery.	552385	1472004313723	1472004313819	s	83
1124	11529	Treatment options consist of rest, an injection, or surgery.	Treatment options consist of rest, an injection, or surgery.	552435	1472004314337	1472004314403	t	84
1124	11529	Treatment options consist of rest, an injection, or surgery.	Treatment options consist of rest, an injection, or surgery.	552438	1472004315062	1472004315145	,	188
1124	11529	Treatment options consist of rest, an injection, or surgery.	Treatment options consist of rest, an injection, or surgery.	552442	1472004315176	1472004315268	 	32
1124	11529	Treatment options consist of rest, an injection, or surgery.	Treatment options consist of rest, an injection, or surgery.	552446	1472004315346	1472004315457	a	65
1124	11529	Treatment options consist of rest, an injection, or surgery.	Treatment options consist of rest, an injection, or surgery.	552450	1472004315926	1472004315994	n	78
1124	11529	Treatment options consist of rest, an injection, or surgery.	Treatment options consist of rest, an injection, or surgery.	552515	1472004316385	1472004316476	 	32
1124	11529	Treatment options consist of rest, an injection, or surgery.	Treatment options consist of rest, an injection, or surgery.	552519	1472004316928	1472004316995	i	73
1124	11529	Treatment options consist of rest, an injection, or surgery.	Treatment options consist of rest, an injection, or surgery.	552523	1472004317088	1472004317170	n	78
1124	11529	Treatment options consist of rest, an injection, or surgery.	Treatment options consist of rest, an injection, or surgery.	552526	1472004317592	1472004317654	j	74
1124	11529	Treatment options consist of rest, an injection, or surgery.	Treatment options consist of rest, an injection, or surgery.	552528	1472004317654	1472004317737	e	69
1124	11529	Treatment options consist of rest, an injection, or surgery.	Treatment options consist of rest, an injection, or surgery.	552546	1472004317988	1472004318086	v	86
1124	11529	Treatment options consist of rest, an injection, or surgery.	Treatment options consist of rest, an injection, or surgery.	552547	1472004318336	1472004318426	BKSP	8
1124	11529	Treatment options consist of rest, an injection, or surgery.	Treatment options consist of rest, an injection, or surgery.	552549	1472004318457	1472004318553	c	67
1124	11529	Treatment options consist of rest, an injection, or surgery.	Treatment options consist of rest, an injection, or surgery.	552552	1472004318695	1472004318761	t	84
1124	11529	Treatment options consist of rest, an injection, or surgery.	Treatment options consist of rest, an injection, or surgery.	552555	1472004318870	1472004318985	i	73
1124	11529	Treatment options consist of rest, an injection, or surgery.	Treatment options consist of rest, an injection, or surgery.	552621	1472004318953	1472004319036	o	79
1124	11529	Treatment options consist of rest, an injection, or surgery.	Treatment options consist of rest, an injection, or surgery.	552625	1472004319145	1472004319227	n	78
1124	11529	Treatment options consist of rest, an injection, or surgery.	Treatment options consist of rest, an injection, or surgery.	552629	1472004320135	1472004320195	,	188
1124	11529	Treatment options consist of rest, an injection, or surgery.	Treatment options consist of rest, an injection, or surgery.	552632	1472004320257	1472004320368	 	32
1124	11529	Treatment options consist of rest, an injection, or surgery.	Treatment options consist of rest, an injection, or surgery.	552637	1472004320524	1472004320603	o	79
1124	11529	Treatment options consist of rest, an injection, or surgery.	Treatment options consist of rest, an injection, or surgery.	552640	1472004320681	1472004320790	r	82
1124	11529	Treatment options consist of rest, an injection, or surgery.	Treatment options consist of rest, an injection, or surgery.	552689	1472004320854	1472004320999	 	32
1124	11529	Treatment options consist of rest, an injection, or surgery.	Treatment options consist of rest, an injection, or surgery.	552691	1472004321093	1472004321207	s	83
1124	11529	Treatment options consist of rest, an injection, or surgery.	Treatment options consist of rest, an injection, or surgery.	552693	1472004321974	1472004322053	u	85
1124	11529	Treatment options consist of rest, an injection, or surgery.	Treatment options consist of rest, an injection, or surgery.	552696	1472004322178	1472004322275	r	82
1124	11529	Treatment options consist of rest, an injection, or surgery.	Treatment options consist of rest, an injection, or surgery.	552699	1472004322571	1472004322635	g	71
1124	11529	Treatment options consist of rest, an injection, or surgery.	Treatment options consist of rest, an injection, or surgery.	552752	1472004322670	1472004322752	e	69
1124	11529	Treatment options consist of rest, an injection, or surgery.	Treatment options consist of rest, an injection, or surgery.	552754	1472004323017	1472004323094	r	82
1124	11529	Treatment options consist of rest, an injection, or surgery.	Treatment options consist of rest, an injection, or surgery.	552756	1472004323265	1472004323343	y	89
1124	11529	Treatment options consist of rest, an injection, or surgery.	Treatment options consist of rest, an injection, or surgery.	552758	1472004324001	1472004324076	.	190
1124	11544	We need to talk about this month.	We need to talk about this month.	552855	1472004327333	1472004327556	SHIFT	16
1124	11544	We need to talk about this month.	We need to talk about this month.	552853	1472004327427	1472004327541	W	87
1124	11544	We need to talk about this month.	We need to talk about this month.	552857	1472004327591	1472004327702	e	69
1124	11544	We need to talk about this month.	We need to talk about this month.	552859	1472004327811	1472004327909	 	32
1124	11544	We need to talk about this month.	We need to talk about this month.	552861	1472004328207	1472004328286	n	78
1124	11544	We need to talk about this month.	We need to talk about this month.	552863	1472004328364	1472004328428	e	69
1124	11544	We need to talk about this month.	We need to talk about this month.	552889	1472004328490	1472004328554	e	69
1124	11544	We need to talk about this month.	We need to talk about this month.	552891	1472004328648	1472004328758	d	68
1124	11544	We need to talk about this month.	We need to talk about this month.	552896	1472004328820	1472004328933	 	32
1124	11544	We need to talk about this month.	We need to talk about this month.	552899	1472004329390	1472004329492	t	84
1124	11544	We need to talk about this month.	We need to talk about this month.	552902	1472004329539	1472004329619	o	79
1124	11544	We need to talk about this month.	We need to talk about this month.	552937	1472004329635	1472004329766	 	32
1124	11544	We need to talk about this month.	We need to talk about this month.	552941	1472004330064	1472004330144	t	84
1124	11544	We need to talk about this month.	We need to talk about this month.	552945	1472004330191	1472004330285	a	65
1124	11544	We need to talk about this month.	We need to talk about this month.	552949	1472004330882	1472004331008	l	76
1124	11544	We need to talk about this month.	We need to talk about this month.	552953	1472004331055	1472004331136	k	75
1124	11544	We need to talk about this month.	We need to talk about this month.	552974	1472004331184	1472004331291	 	32
1124	11544	We need to talk about this month.	We need to talk about this month.	552976	1472004331384	1472004331506	a	65
1124	11544	We need to talk about this month.	We need to talk about this month.	552978	1472004331833	1472004331925	b	66
1124	11544	We need to talk about this month.	We need to talk about this month.	552980	1472004331989	1472004332085	o	79
1124	11544	We need to talk about this month.	We need to talk about this month.	552982	1472004332147	1472004332242	u	85
1124	11544	We need to talk about this month.	We need to talk about this month.	553006	1472004332352	1472004332434	t	84
1124	11544	We need to talk about this month.	We need to talk about this month.	553007	1472004332528	1472004332641	 	32
1124	11544	We need to talk about this month.	We need to talk about this month.	553009	1472004332922	1472004333003	t	84
1124	11544	We need to talk about this month.	We need to talk about this month.	553011	1472004333050	1472004333111	h	72
1124	11544	We need to talk about this month.	We need to talk about this month.	553014	1472004333189	1472004333270	i	73
1124	11544	We need to talk about this month.	We need to talk about this month.	553075	1472004333317	1472004333454	s	83
1124	11544	We need to talk about this month.	We need to talk about this month.	553079	1472004333501	1472004333623	 	32
1124	11544	We need to talk about this month.	We need to talk about this month.	553083	1472004333686	1472004333758	m	78
1124	11544	We need to talk about this month.	We need to talk about this month.	553087	1472004334053	1472004334168	BKSP	8
1124	11544	We need to talk about this month.	We need to talk about this month.	553089	1472004334857	1472004334937	BKSP	8
1124	11544	We need to talk about this month.	We need to talk about this month.	553091	1472004335093	1472004335176	m	77
1124	11544	We need to talk about this month.	We need to talk about this month.	553156	1472004335239	1472004335335	o	79
1124	11544	We need to talk about this month.	We need to talk about this month.	553159	1472004335900	1472004335961	n	78
1124	11544	We need to talk about this month.	We need to talk about this month.	553164	1472004335993	1472004336076	t	84
1124	11544	We need to talk about this month.	We need to talk about this month.	553165	1472004336578	1472004336645	h	72
1124	11544	We need to talk about this month.	We need to talk about this month.	553168	1472004337178	1472004337261	.	190
1124	11552	I was a bit rusty but I didn't want to miss the elections back home.	I was a bit rusty but I didn't want to miss the elections back home.	553272	1472004339562	1472004340436	SHIFT	16
1124	11552	I was a bit rusty but I didn't want to miss the elections back home.	I was a bit rusty but I didn't want to miss the elections back home.	553275	1472004340331	1472004340451	O	73
1124	11552	I was a bit rusty but I didn't want to miss the elections back home.	I was a bit rusty but I didn't want to miss the elections back home.	553281	1472004340561	1472004340720	 	32
1124	11552	I was a bit rusty but I didn't want to miss the elections back home.	I was a bit rusty but I didn't want to miss the elections back home.	553286	1472004341063	1472004341143	BKSP	8
1124	11552	I was a bit rusty but I didn't want to miss the elections back home.	I was a bit rusty but I didn't want to miss the elections back home.	553290	1472004341221	1472004341287	BKSP	8
1124	11552	I was a bit rusty but I didn't want to miss the elections back home.	I was a bit rusty but I didn't want to miss the elections back home.	553294	1472004341568	1472004341690	 	32
1124	11552	I was a bit rusty but I didn't want to miss the elections back home.	I was a bit rusty but I didn't want to miss the elections back home.	553298	1472004341784	1472004341890	w	87
1124	11552	I was a bit rusty but I didn't want to miss the elections back home.	I was a bit rusty but I didn't want to miss the elections back home.	553308	1472004341923	1472004342034	a	65
1124	11552	I was a bit rusty but I didn't want to miss the elections back home.	I was a bit rusty but I didn't want to miss the elections back home.	553309	1472004342080	1472004342206	s	83
1124	11552	I was a bit rusty but I didn't want to miss the elections back home.	I was a bit rusty but I didn't want to miss the elections back home.	553310	1472004342268	1472004342374	 	32
1124	11552	I was a bit rusty but I didn't want to miss the elections back home.	I was a bit rusty but I didn't want to miss the elections back home.	553311	1472004342467	1472004342589	a	65
1124	11552	I was a bit rusty but I didn't want to miss the elections back home.	I was a bit rusty but I didn't want to miss the elections back home.	553312	1472004342636	1472004342733	 	32
1124	11552	I was a bit rusty but I didn't want to miss the elections back home.	I was a bit rusty but I didn't want to miss the elections back home.	553345	1472004343015	1472004343108	b	66
1124	11552	I was a bit rusty but I didn't want to miss the elections back home.	I was a bit rusty but I didn't want to miss the elections back home.	553347	1472004343233	1472004343372	i	73
1124	11552	I was a bit rusty but I didn't want to miss the elections back home.	I was a bit rusty but I didn't want to miss the elections back home.	553349	1472004343481	1472004343544	t	84
1124	11552	I was a bit rusty but I didn't want to miss the elections back home.	I was a bit rusty but I didn't want to miss the elections back home.	553351	1472004343793	1472004343908	 	32
1124	11552	I was a bit rusty but I didn't want to miss the elections back home.	I was a bit rusty but I didn't want to miss the elections back home.	553352	1472004344364	1472004344426	r	82
1124	11552	I was a bit rusty but I didn't want to miss the elections back home.	I was a bit rusty but I didn't want to miss the elections back home.	553382	1472004344630	1472004344710	u	85
1124	11552	I was a bit rusty but I didn't want to miss the elections back home.	I was a bit rusty but I didn't want to miss the elections back home.	553385	1472004344741	1472004344850	s	83
1124	11552	I was a bit rusty but I didn't want to miss the elections back home.	I was a bit rusty but I didn't want to miss the elections back home.	553387	1472004344899	1472004344960	t	84
1124	11552	I was a bit rusty but I didn't want to miss the elections back home.	I was a bit rusty but I didn't want to miss the elections back home.	553390	1472004345287	1472004345369	y	89
1124	11552	I was a bit rusty but I didn't want to miss the elections back home.	I was a bit rusty but I didn't want to miss the elections back home.	553393	1472004345494	1472004345591	 	32
1124	11552	I was a bit rusty but I didn't want to miss the elections back home.	I was a bit rusty but I didn't want to miss the elections back home.	553450	1472004346342	1472004346435	b	66
1124	11552	I was a bit rusty but I didn't want to miss the elections back home.	I was a bit rusty but I didn't want to miss the elections back home.	553452	1472004346544	1472004346641	u	85
1124	11552	I was a bit rusty but I didn't want to miss the elections back home.	I was a bit rusty but I didn't want to miss the elections back home.	553455	1472004346719	1472004346787	t	84
1124	11552	I was a bit rusty but I didn't want to miss the elections back home.	I was a bit rusty but I didn't want to miss the elections back home.	553458	1472004346834	1472004346939	 	32
1124	11552	I was a bit rusty but I didn't want to miss the elections back home.	I was a bit rusty but I didn't want to miss the elections back home.	553517	1472004347095	1472004347667	SHIFT	16
1124	11552	I was a bit rusty but I didn't want to miss the elections back home.	I was a bit rusty but I didn't want to miss the elections back home.	553461	1472004347552	1472004347651	I	73
1124	11552	I was a bit rusty but I didn't want to miss the elections back home.	I was a bit rusty but I didn't want to miss the elections back home.	553520	1472004347762	1472004347889	 	32
1124	11552	I was a bit rusty but I didn't want to miss the elections back home.	I was a bit rusty but I didn't want to miss the elections back home.	553523	1472004348170	1472004348252	i	73
1124	11552	I was a bit rusty but I didn't want to miss the elections back home.	I was a bit rusty but I didn't want to miss the elections back home.	553525	1472004348673	1472004348768	BKSP	8
1124	11552	I was a bit rusty but I didn't want to miss the elections back home.	I was a bit rusty but I didn't want to miss the elections back home.	553528	1472004349095	1472004349207	d	68
1124	11552	I was a bit rusty but I didn't want to miss the elections back home.	I was a bit rusty but I didn't want to miss the elections back home.	553529	1472004349222	1472004349284	i	73
1124	11552	I was a bit rusty but I didn't want to miss the elections back home.	I was a bit rusty but I didn't want to miss the elections back home.	553530	1472004349396	1472004349523	d	68
1124	11552	I was a bit rusty but I didn't want to miss the elections back home.	I was a bit rusty but I didn't want to miss the elections back home.	553589	1472004350352	1472004350435	n	78
1124	11552	I was a bit rusty but I didn't want to miss the elections back home.	I was a bit rusty but I didn't want to miss the elections back home.	553591	1472004350924	1472004351003	'	222
1124	11552	I was a bit rusty but I didn't want to miss the elections back home.	I was a bit rusty but I didn't want to miss the elections back home.	553596	1472004351361	1472004351490	t	84
1124	11552	I was a bit rusty but I didn't want to miss the elections back home.	I was a bit rusty but I didn't want to miss the elections back home.	553599	1472004351599	1472004351706	 	32
1124	11552	I was a bit rusty but I didn't want to miss the elections back home.	I was a bit rusty but I didn't want to miss the elections back home.	553605	1472004351987	1472004352069	w	87
1124	11552	I was a bit rusty but I didn't want to miss the elections back home.	I was a bit rusty but I didn't want to miss the elections back home.	553634	1472004352179	1472004352290	a	65
1124	11552	I was a bit rusty but I didn't want to miss the elections back home.	I was a bit rusty but I didn't want to miss the elections back home.	553635	1472004352695	1472004352776	n	78
1124	11552	I was a bit rusty but I didn't want to miss the elections back home.	I was a bit rusty but I didn't want to miss the elections back home.	553636	1472004352870	1472004352937	t	89
1124	11552	I was a bit rusty but I didn't want to miss the elections back home.	I was a bit rusty but I didn't want to miss the elections back home.	553637	1472004353343	1472004353441	BKSP	8
1124	11552	I was a bit rusty but I didn't want to miss the elections back home.	I was a bit rusty but I didn't want to miss the elections back home.	553638	1472004353565	1472004353657	 	32
1124	11552	I was a bit rusty but I didn't want to miss the elections back home.	I was a bit rusty but I didn't want to miss the elections back home.	553692	1472004353830	1472004353908	BKSP	8
1124	11552	I was a bit rusty but I didn't want to miss the elections back home.	I was a bit rusty but I didn't want to miss the elections back home.	553694	1472004353986	1472004354084	BKSP	8
1124	11552	I was a bit rusty but I didn't want to miss the elections back home.	I was a bit rusty but I didn't want to miss the elections back home.	553696	1472004354287	1472004354384	t	84
1124	11552	I was a bit rusty but I didn't want to miss the elections back home.	I was a bit rusty but I didn't want to miss the elections back home.	553700	1472004354493	1472004354622	 	32
1124	11552	I was a bit rusty but I didn't want to miss the elections back home.	I was a bit rusty but I didn't want to miss the elections back home.	553706	1472004355264	1472004355372	t	84
1124	11552	I was a bit rusty but I didn't want to miss the elections back home.	I was a bit rusty but I didn't want to miss the elections back home.	553711	1472004355419	1472004355486	o	79
1124	11552	I was a bit rusty but I didn't want to miss the elections back home.	I was a bit rusty but I didn't want to miss the elections back home.	553715	1472004355532	1472004355670	 	32
1124	11552	I was a bit rusty but I didn't want to miss the elections back home.	I was a bit rusty but I didn't want to miss the elections back home.	553737	1472004355718	1472004355808	m	77
1124	11552	I was a bit rusty but I didn't want to miss the elections back home.	I was a bit rusty but I didn't want to miss the elections back home.	553739	1472004355980	1472004356058	i	73
1124	11552	I was a bit rusty but I didn't want to miss the elections back home.	I was a bit rusty but I didn't want to miss the elections back home.	553741	1472004356183	1472004356275	s	83
1124	11552	I was a bit rusty but I didn't want to miss the elections back home.	I was a bit rusty but I didn't want to miss the elections back home.	553743	1472004356339	1472004356418	s	83
1124	11552	I was a bit rusty but I didn't want to miss the elections back home.	I was a bit rusty but I didn't want to miss the elections back home.	553745	1472004356528	1472004356624	 	32
1124	11552	I was a bit rusty but I didn't want to miss the elections back home.	I was a bit rusty but I didn't want to miss the elections back home.	553767	1472004356983	1472004357042	t	84
1124	11552	I was a bit rusty but I didn't want to miss the elections back home.	I was a bit rusty but I didn't want to miss the elections back home.	553770	1472004357136	1472004357218	h	72
1124	11552	I was a bit rusty but I didn't want to miss the elections back home.	I was a bit rusty but I didn't want to miss the elections back home.	553772	1472004357203	1472004357363	e	69
1124	11552	I was a bit rusty but I didn't want to miss the elections back home.	I was a bit rusty but I didn't want to miss the elections back home.	553775	1472004357363	1472004357488	 	32
1124	11552	I was a bit rusty but I didn't want to miss the elections back home.	I was a bit rusty but I didn't want to miss the elections back home.	553778	1472004357597	1472004357690	e	69
1124	11552	I was a bit rusty but I didn't want to miss the elections back home.	I was a bit rusty but I didn't want to miss the elections back home.	553809	1472004357738	1472004357802	l	76
1124	11552	I was a bit rusty but I didn't want to miss the elections back home.	I was a bit rusty but I didn't want to miss the elections back home.	553811	1472004358054	1472004358135	e	69
1124	11552	I was a bit rusty but I didn't want to miss the elections back home.	I was a bit rusty but I didn't want to miss the elections back home.	553813	1472004358260	1472004358406	c	67
1124	11552	I was a bit rusty but I didn't want to miss the elections back home.	I was a bit rusty but I didn't want to miss the elections back home.	553815	1472004358531	1472004358610	t	84
1124	11552	I was a bit rusty but I didn't want to miss the elections back home.	I was a bit rusty but I didn't want to miss the elections back home.	553817	1472004358672	1472004358768	i	73
1124	11552	I was a bit rusty but I didn't want to miss the elections back home.	I was a bit rusty but I didn't want to miss the elections back home.	553845	1472004358737	1472004358834	o	79
1124	11552	I was a bit rusty but I didn't want to miss the elections back home.	I was a bit rusty but I didn't want to miss the elections back home.	553847	1472004358927	1472004359025	n	78
1124	11552	I was a bit rusty but I didn't want to miss the elections back home.	I was a bit rusty but I didn't want to miss the elections back home.	553849	1472004359290	1472004359368	s	83
1124	11552	I was a bit rusty but I didn't want to miss the elections back home.	I was a bit rusty but I didn't want to miss the elections back home.	553851	1472004359462	1472004359564	 	32
1124	11552	I was a bit rusty but I didn't want to miss the elections back home.	I was a bit rusty but I didn't want to miss the elections back home.	553853	1472004359861	1472004359927	b	66
1124	11552	I was a bit rusty but I didn't want to miss the elections back home.	I was a bit rusty but I didn't want to miss the elections back home.	553855	1472004359958	1472004360057	a	65
1124	11552	I was a bit rusty but I didn't want to miss the elections back home.	I was a bit rusty but I didn't want to miss the elections back home.	553887	1472004360152	1472004360296	c	67
1124	11552	I was a bit rusty but I didn't want to miss the elections back home.	I was a bit rusty but I didn't want to miss the elections back home.	553888	1472004360296	1472004360375	k	75
1124	11552	I was a bit rusty but I didn't want to miss the elections back home.	I was a bit rusty but I didn't want to miss the elections back home.	553890	1472004360422	1472004360533	 	32
1124	11552	I was a bit rusty but I didn't want to miss the elections back home.	I was a bit rusty but I didn't want to miss the elections back home.	553892	1472004360705	1472004360808	h	72
1124	11552	I was a bit rusty but I didn't want to miss the elections back home.	I was a bit rusty but I didn't want to miss the elections back home.	553894	1472004360824	1472004360917	o	79
1124	11552	I was a bit rusty but I didn't want to miss the elections back home.	I was a bit rusty but I didn't want to miss the elections back home.	553912	1472004361090	1472004361168	m	77
1124	11552	I was a bit rusty but I didn't want to miss the elections back home.	I was a bit rusty but I didn't want to miss the elections back home.	553914	1472004361199	1472004361291	e	69
1124	11552	I was a bit rusty but I didn't want to miss the elections back home.	I was a bit rusty but I didn't want to miss the elections back home.	553916	1472004361856	1472004361935	.	190
1124	11565	Has Dynegy made a specific request?	Has Dynegy made a specific request?	554086	1472004367321	1472004367386	h	72
1124	11565	Has Dynegy made a specific request?	Has Dynegy made a specific request?	554089	1472004367402	1472004367532	a	65
1124	11565	Has Dynegy made a specific request?	Has Dynegy made a specific request?	554093	1472004367735	1472004367818	BKSP	8
1124	11565	Has Dynegy made a specific request?	Has Dynegy made a specific request?	554095	1472004367896	1472004367980	BKSP	8
1124	11565	Has Dynegy made a specific request?	Has Dynegy made a specific request?	554097	1472004368214	1472004368615	SHIFT	16
1124	11565	Has Dynegy made a specific request?	Has Dynegy made a specific request?	554098	1472004368501	1472004368630	H	72
1124	11565	Has Dynegy made a specific request?	Has Dynegy made a specific request?	554099	1472004368739	1472004368865	a	65
1124	11565	Has Dynegy made a specific request?	Has Dynegy made a specific request?	554100	1472004368912	1472004369007	s	83
1124	11565	Has Dynegy made a specific request?	Has Dynegy made a specific request?	554258	1472004369086	1472004369199	 	32
1124	11565	Has Dynegy made a specific request?	Has Dynegy made a specific request?	554261	1472004369701	1472004373070	SHIFT	16
1124	11565	Has Dynegy made a specific request?	Has Dynegy made a specific request?	554264	1472004374247	1472004374343	BKSP	8
1124	11565	Has Dynegy made a specific request?	Has Dynegy made a specific request?	554269	1472004374577	1472004374690	 	32
1124	11565	Has Dynegy made a specific request?	Has Dynegy made a specific request?	554272	1472004374799	1472004375084	SHIFT	16
1124	11565	Has Dynegy made a specific request?	Has Dynegy made a specific request?	554276	1472004374986	1472004375115	D	68
1124	11565	Has Dynegy made a specific request?	Has Dynegy made a specific request?	554278	1472004375695	1472004375759	y	89
1124	11565	Has Dynegy made a specific request?	Has Dynegy made a specific request?	554280	1472004376071	1472004376151	n	78
1124	11565	Has Dynegy made a specific request?	Has Dynegy made a specific request?	554324	1472004376136	1472004376265	e	69
1124	11565	Has Dynegy made a specific request?	Has Dynegy made a specific request?	554326	1472004376969	1472004377035	g	71
1124	11565	Has Dynegy made a specific request?	Has Dynegy made a specific request?	554328	1472004377740	1472004377818	y	89
1124	11565	Has Dynegy made a specific request?	Has Dynegy made a specific request?	554331	1472004377896	1472004378037	 	32
1124	11565	Has Dynegy made a specific request?	Has Dynegy made a specific request?	554334	1472004378427	1472004378493	m	77
1124	11565	Has Dynegy made a specific request?	Has Dynegy made a specific request?	554336	1472004378493	1472004378637	a	65
1124	11565	Has Dynegy made a specific request?	Has Dynegy made a specific request?	554363	1472004378652	1472004378750	d	68
1124	11565	Has Dynegy made a specific request?	Has Dynegy made a specific request?	554364	1472004378828	1472004378925	e	69
1124	11565	Has Dynegy made a specific request?	Has Dynegy made a specific request?	554365	1472004379083	1472004379188	 	32
1124	11565	Has Dynegy made a specific request?	Has Dynegy made a specific request?	554366	1472004379344	1472004379472	a	65
1124	11565	Has Dynegy made a specific request?	Has Dynegy made a specific request?	554367	1472004379503	1472004379631	 	32
1124	11565	Has Dynegy made a specific request?	Has Dynegy made a specific request?	554395	1472004379881	1472004379990	s	83
1124	11565	Has Dynegy made a specific request?	Has Dynegy made a specific request?	554396	1472004380006	1472004380085	p	80
1124	11565	Has Dynegy made a specific request?	Has Dynegy made a specific request?	554397	1472004380147	1472004380224	e	69
1124	11565	Has Dynegy made a specific request?	Has Dynegy made a specific request?	554398	1472004380490	1472004380615	c	67
1124	11565	Has Dynegy made a specific request?	Has Dynegy made a specific request?	554399	1472004380756	1472004380834	i	73
1124	11565	Has Dynegy made a specific request?	Has Dynegy made a specific request?	554424	1472004380991	1472004381090	f	70
1124	11565	Has Dynegy made a specific request?	Has Dynegy made a specific request?	554425	1472004381184	1472004381252	i	73
1124	11565	Has Dynegy made a specific request?	Has Dynegy made a specific request?	554427	1472004381314	1472004381470	c	67
1124	11565	Has Dynegy made a specific request?	Has Dynegy made a specific request?	554431	1472004381517	1472004381639	 	32
1124	11565	Has Dynegy made a specific request?	Has Dynegy made a specific request?	554434	1472004382188	1472004382355	r	82
1124	11565	Has Dynegy made a specific request?	Has Dynegy made a specific request?	554465	1472004382314	1472004382429	e	69
1124	11565	Has Dynegy made a specific request?	Has Dynegy made a specific request?	554466	1472004382523	1472004382601	a	65
1124	11565	Has Dynegy made a specific request?	Has Dynegy made a specific request?	554467	1472004382975	1472004383059	BKSP	8
1124	11565	Has Dynegy made a specific request?	Has Dynegy made a specific request?	554468	1472004383106	1472004383200	q	81
1124	11565	Has Dynegy made a specific request?	Has Dynegy made a specific request?	554469	1472004383732	1472004383808	u	85
1124	11565	Has Dynegy made a specific request?	Has Dynegy made a specific request?	554472	1472004383808	1472004383892	e	69
1124	11565	Has Dynegy made a specific request?	Has Dynegy made a specific request?	554475	1472004384283	1472004384357	s	83
1124	11565	Has Dynegy made a specific request?	Has Dynegy made a specific request?	554533	1472004384795	1472004384875	t	84
1124	11565	Has Dynegy made a specific request?	Has Dynegy made a specific request?	554536	1472004385829	1472004386175	SHIFT	16
1124	11565	Has Dynegy made a specific request?	Has Dynegy made a specific request?	554539	1472004386096	1472004386206	?	191
1124	11578	But his father likes what he sees from his son's engine.	But his father likes what he sees from his son's engine.	554630	1472004388644	1472004389081	SHIFT	16
1124	11578	But his father likes what he sees from his son's engine.	But his father likes what he sees from his son's engine.	554631	1472004388972	1472004389113	B	66
1124	11578	But his father likes what he sees from his son's engine.	But his father likes what he sees from his son's engine.	554632	1472004389237	1472004389317	u	85
1124	11578	But his father likes what he sees from his son's engine.	But his father likes what he sees from his son's engine.	554633	1472004389458	1472004389581	t	84
1124	11578	But his father likes what he sees from his son's engine.	But his father likes what he sees from his son's engine.	554634	1472004389643	1472004389755	 	32
1124	11578	But his father likes what he sees from his son's engine.	But his father likes what he sees from his son's engine.	554635	1472004390351	1472004390434	h	72
1124	11578	But his father likes what he sees from his son's engine.	But his father likes what he sees from his son's engine.	554668	1472004390513	1472004390621	i	73
1124	11578	But his father likes what he sees from his son's engine.	But his father likes what he sees from his son's engine.	554670	1472004390684	1472004390797	s	83
1124	11578	But his father likes what he sees from his son's engine.	But his father likes what he sees from his son's engine.	554673	1472004390860	1472004390988	 	32
1124	11578	But his father likes what he sees from his son's engine.	But his father likes what he sees from his son's engine.	554677	1472004391364	1472004391926	SHIFT	16
1124	11578	But his father likes what he sees from his son's engine.	But his father likes what he sees from his son's engine.	554682	1472004392101	1472004392200	f	70
1124	11578	But his father likes what he sees from his son's engine.	But his father likes what he sees from his son's engine.	554687	1472004392216	1472004392323	a	65
1124	11578	But his father likes what he sees from his son's engine.	But his father likes what he sees from his son's engine.	554697	1472004392729	1472004392791	t	84
1124	11578	But his father likes what he sees from his son's engine.	But his father likes what he sees from his son's engine.	554698	1472004392900	1472004393000	h	69
1124	11578	But his father likes what he sees from his son's engine.	But his father likes what he sees from his son's engine.	554699	1472004393094	1472004393142	r	82
1124	11578	But his father likes what he sees from his son's engine.	But his father likes what he sees from his son's engine.	554753	1472004393439	1472004393533	BKSP	8
1124	11578	But his father likes what he sees from his son's engine.	But his father likes what he sees from his son's engine.	554756	1472004393580	1472004393689	BKSP	8
1124	11578	But his father likes what he sees from his son's engine.	But his father likes what he sees from his son's engine.	554758	1472004393798	1472004393889	BKSP	8
1124	11578	But his father likes what he sees from his son's engine.	But his father likes what he sees from his son's engine.	554760	1472004394736	1472004394833	BKSP	8
1124	11578	But his father likes what he sees from his son's engine.	But his father likes what he sees from his son's engine.	554761	1472004395318	1472004395384	h	72
1124	11578	But his father likes what he sees from his son's engine.	But his father likes what he sees from his son's engine.	554762	1472004395373	1472004395442	e	69
1124	11578	But his father likes what he sees from his son's engine.	But his father likes what he sees from his son's engine.	554763	1472004395520	1472004395600	r	82
1124	11578	But his father likes what he sees from his son's engine.	But his father likes what he sees from his son's engine.	554764	1472004395663	1472004395787	 	32
1124	11578	But his father likes what he sees from his son's engine.	But his father likes what he sees from his son's engine.	554765	1472004396083	1472004396157	l	76
1124	11578	But his father likes what he sees from his son's engine.	But his father likes what he sees from his son's engine.	554801	1472004396267	1472004396318	i	73
1124	11578	But his father likes what he sees from his son's engine.	But his father likes what he sees from his son's engine.	554802	1472004396567	1472004396663	BKSP	8
1124	11578	But his father likes what he sees from his son's engine.	But his father likes what he sees from his son's engine.	554803	1472004397261	1472004397325	i	73
1124	11578	But his father likes what he sees from his son's engine.	But his father likes what he sees from his son's engine.	554804	1472004397435	1472004397502	l	76
1124	11578	But his father likes what he sees from his son's engine.	But his father likes what he sees from his son's engine.	554805	1472004397751	1472004397833	BKSP	8
1124	11578	But his father likes what he sees from his son's engine.	But his father likes what he sees from his son's engine.	554806	1472004398098	1472004398177	k	75
1124	11578	But his father likes what he sees from his son's engine.	But his father likes what he sees from his son's engine.	554830	1472004398162	1472004398240	e	69
1124	11578	But his father likes what he sees from his son's engine.	But his father likes what he sees from his son's engine.	554832	1472004398319	1472004398431	s	83
1124	11578	But his father likes what he sees from his son's engine.	But his father likes what he sees from his son's engine.	554834	1472004398493	1472004398588	 	32
1124	11578	But his father likes what he sees from his son's engine.	But his father likes what he sees from his son's engine.	554835	1472004398698	1472004398789	w	87
1124	11578	But his father likes what he sees from his son's engine.	But his father likes what he sees from his son's engine.	554836	1472004398931	1472004399006	h	72
1124	11578	But his father likes what he sees from his son's engine.	But his father likes what he sees from his son's engine.	554838	1472004399038	1472004399149	a	65
1124	11578	But his father likes what he sees from his son's engine.	But his father likes what he sees from his son's engine.	554865	1472004399180	1472004399257	t	84
1124	11578	But his father likes what he sees from his son's engine.	But his father likes what he sees from his son's engine.	554866	1472004399288	1472004399399	 	32
1124	11578	But his father likes what he sees from his son's engine.	But his father likes what he sees from his son's engine.	554867	1472004399870	1472004399957	e	69
1124	11578	But his father likes what he sees from his son's engine.	But his father likes what he sees from his son's engine.	554868	1472004400409	1472004400506	BKSP	8
1124	11578	But his father likes what he sees from his son's engine.	But his father likes what he sees from his son's engine.	554869	1472004400694	1472004400791	h	72
1124	11578	But his father likes what he sees from his son's engine.	But his father likes what he sees from his son's engine.	554870	1472004400791	1472004400873	e	69
1124	11578	But his father likes what he sees from his son's engine.	But his father likes what he sees from his son's engine.	554887	1472004400999	1472004401168	 	32
1124	11578	But his father likes what he sees from his son's engine.	But his father likes what he sees from his son's engine.	554888	1472004401293	1472004401389	s	83
1124	11578	But his father likes what he sees from his son's engine.	But his father likes what he sees from his son's engine.	554889	1472004401561	1472004401624	e	69
1124	11578	But his father likes what he sees from his son's engine.	But his father likes what he sees from his son's engine.	554890	1472004401687	1472004401768	e	69
1124	11578	But his father likes what he sees from his son's engine.	But his father likes what he sees from his son's engine.	554891	1472004401877	1472004401972	s	83
1124	11578	But his father likes what he sees from his son's engine.	But his father likes what he sees from his son's engine.	554922	1472004402082	1472004402189	 	32
1124	11578	But his father likes what he sees from his son's engine.	But his father likes what he sees from his son's engine.	554925	1472004402517	1472004402599	f	70
1124	11578	But his father likes what he sees from his son's engine.	But his father likes what he sees from his son's engine.	554926	1472004402708	1472004402791	r	82
1124	11578	But his father likes what he sees from his son's engine.	But his father likes what he sees from his son's engine.	554927	1472004402853	1472004402917	o	79
1124	11578	But his father likes what he sees from his son's engine.	But his father likes what he sees from his son's engine.	554928	1472004403026	1472004403123	m	77
1124	11578	But his father likes what he sees from his son's engine.	But his father likes what he sees from his son's engine.	554951	1472004403186	1472004403283	 	32
1124	11578	But his father likes what he sees from his son's engine.	But his father likes what he sees from his son's engine.	554953	1472004403956	1472004404058	j	72
1124	11578	But his father likes what he sees from his son's engine.	But his father likes what he sees from his son's engine.	554955	1472004404292	1472004404379	BKSP	8
1124	11578	But his father likes what he sees from his son's engine.	But his father likes what he sees from his son's engine.	554957	1472004404567	1472004404656	h	72
1124	11578	But his father likes what he sees from his son's engine.	But his father likes what he sees from his son's engine.	554959	1472004404703	1472004404768	i	73
1124	11578	But his father likes what he sees from his son's engine.	But his father likes what he sees from his son's engine.	554992	1472004404925	1472004405054	s	83
1124	11578	But his father likes what he sees from his son's engine.	But his father likes what he sees from his son's engine.	554993	1472004405335	1472004405432	BKSP	8
1124	11578	But his father likes what he sees from his son's engine.	But his father likes what he sees from his son's engine.	554994	1472004405494	1472004405574	BKSP	8
1124	11578	But his father likes what he sees from his son's engine.	But his father likes what he sees from his son's engine.	554995	1472004405652	1472004405734	BKSP	8
1124	11578	But his father likes what he sees from his son's engine.	But his father likes what he sees from his son's engine.	554996	1472004406231	1472004406300	i	73
1124	11578	But his father likes what he sees from his son's engine.	But his father likes what he sees from his son's engine.	554998	1472004406300	1472004406415	s	83
1124	11578	But his father likes what he sees from his son's engine.	But his father likes what he sees from his son's engine.	555001	1472004406446	1472004406617	 	32
1124	11578	But his father likes what he sees from his son's engine.	But his father likes what he sees from his son's engine.	555004	1472004406742	1472004406855	s	83
1124	11578	But his father likes what he sees from his son's engine.	But his father likes what he sees from his son's engine.	555027	1472004407198	1472004407289	o	79
1124	11578	But his father likes what he sees from his son's engine.	But his father likes what he sees from his son's engine.	555028	1472004407398	1472004407466	n	78
1124	11578	But his father likes what he sees from his son's engine.	But his father likes what he sees from his son's engine.	555029	1472004407591	1472004407704	s	83
1124	11578	But his father likes what he sees from his son's engine.	But his father likes what he sees from his son's engine.	555030	1472004408001	1472004408068	BKSP	8
1124	11578	But his father likes what he sees from his son's engine.	But his father likes what he sees from his son's engine.	555031	1472004408255	1472004408317	'	222
1124	11578	But his father likes what he sees from his son's engine.	But his father likes what he sees from his son's engine.	555032	1472004408380	1472004408489	s	83
1124	11578	But his father likes what he sees from his son's engine.	But his father likes what he sees from his son's engine.	555061	1472004408583	1472004408697	 	32
1124	11578	But his father likes what he sees from his son's engine.	But his father likes what he sees from his son's engine.	555062	1472004409134	1472004409216	e	69
1124	11578	But his father likes what he sees from his son's engine.	But his father likes what he sees from his son's engine.	555063	1472004409388	1472004409466	n	78
1124	11578	But his father likes what he sees from his son's engine.	But his father likes what he sees from his son's engine.	555064	1472004409686	1472004409782	g	71
1124	11578	But his father likes what he sees from his son's engine.	But his father likes what he sees from his son's engine.	555065	1472004409876	1472004409956	i	73
1124	11578	But his father likes what he sees from his son's engine.	But his father likes what he sees from his son's engine.	555084	1472004410051	1472004410134	n	78
1124	11578	But his father likes what he sees from his son's engine.	But his father likes what he sees from his son's engine.	555090	1472004410165	1472004410239	e	69
1124	11578	But his father likes what he sees from his son's engine.	But his father likes what he sees from his son's engine.	555095	1472004410723	1472004410791	.	190
1124	11587	Here's your Gas Daily pricing.	Here's your Gas Daily pricing.	555179	1472004413255	1472004413708	SHIFT	16
1124	11587	Here's your Gas Daily pricing.	Here's your Gas Daily pricing.	555184	1472004413645	1472004413724	H	72
1124	11587	Here's your Gas Daily pricing.	Here's your Gas Daily pricing.	555187	1472004414052	1472004414149	e	69
1124	11587	Here's your Gas Daily pricing.	Here's your Gas Daily pricing.	555190	1472004414211	1472004414351	r	82
1124	11587	Here's your Gas Daily pricing.	Here's your Gas Daily pricing.	555191	1472004414336	1472004414479	e	69
1124	11587	Here's your Gas Daily pricing.	Here's your Gas Daily pricing.	555192	1472004415355	1472004415435	'	222
1124	11587	Here's your Gas Daily pricing.	Here's your Gas Daily pricing.	555202	1472004415435	1472004415547	s	83
1124	11587	Here's your Gas Daily pricing.	Here's your Gas Daily pricing.	555203	1472004415578	1472004415703	 	32
1124	11587	Here's your Gas Daily pricing.	Here's your Gas Daily pricing.	555204	1472004416361	1472004416488	y	89
1124	11587	Here's your Gas Daily pricing.	Here's your Gas Daily pricing.	555205	1472004416534	1472004416632	o	79
1124	11587	Here's your Gas Daily pricing.	Here's your Gas Daily pricing.	555206	1472004416694	1472004416790	u	85
1124	11587	Here's your Gas Daily pricing.	Here's your Gas Daily pricing.	555228	1472004416869	1472004417043	r	82
1124	11587	Here's your Gas Daily pricing.	Here's your Gas Daily pricing.	555229	1472004417489	1472004417604	 	32
1124	11587	Here's your Gas Daily pricing.	Here's your Gas Daily pricing.	555231	1472004417728	1472004418030	SHIFT	16
1124	11587	Here's your Gas Daily pricing.	Here's your Gas Daily pricing.	555230	1472004417900	1472004417998	G	71
1124	11587	Here's your Gas Daily pricing.	Here's your Gas Daily pricing.	555232	1472004418123	1472004418244	a	65
1124	11587	Here's your Gas Daily pricing.	Here's your Gas Daily pricing.	555233	1472004418290	1472004418387	s	83
1124	11587	Here's your Gas Daily pricing.	Here's your Gas Daily pricing.	555260	1472004418481	1472004418587	 	32
1124	11587	Here's your Gas Daily pricing.	Here's your Gas Daily pricing.	555261	1472004418932	1472004419124	SHIFT	16
1124	11587	Here's your Gas Daily pricing.	Here's your Gas Daily pricing.	555262	1472004419074	1472004419171	D	68
1124	11587	Here's your Gas Daily pricing.	Here's your Gas Daily pricing.	555263	1472004419202	1472004419329	a	65
1124	11587	Here's your Gas Daily pricing.	Here's your Gas Daily pricing.	555264	1472004420018	1472004420082	i	73
1124	11587	Here's your Gas Daily pricing.	Here's your Gas Daily pricing.	555265	1472004420176	1472004420271	l	76
1124	11587	Here's your Gas Daily pricing.	Here's your Gas Daily pricing.	555303	1472004420475	1472004420540	y	89
1124	11587	Here's your Gas Daily pricing.	Here's your Gas Daily pricing.	555305	1472004420602	1472004420697	 	32
1124	11587	Here's your Gas Daily pricing.	Here's your Gas Daily pricing.	555308	1472004421652	1472004421715	p	80
1124	11587	Here's your Gas Daily pricing.	Here's your Gas Daily pricing.	555309	1472004421747	1472004421838	r	82
1124	11587	Here's your Gas Daily pricing.	Here's your Gas Daily pricing.	555310	1472004422386	1472004422444	i	73
1124	11587	Here's your Gas Daily pricing.	Here's your Gas Daily pricing.	555327	1472004422487	1472004422581	c	67
1124	11587	Here's your Gas Daily pricing.	Here's your Gas Daily pricing.	555329	1472004422659	1472004422723	i	73
1124	11587	Here's your Gas Daily pricing.	Here's your Gas Daily pricing.	555335	1472004422817	1472004422914	n	78
1124	11587	Here's your Gas Daily pricing.	Here's your Gas Daily pricing.	555339	1472004423008	1472004423072	g	71
1124	11587	Here's your Gas Daily pricing.	Here's your Gas Daily pricing.	555343	1472004423621	1472004423699	.	190
1124	11594	I am sorry you had to come in.	I am sorry you had to come in.	555408	1472004425957	1472004426505	SHIFT	16
1124	11594	I am sorry you had to come in.	I am sorry you had to come in.	555409	1472004426428	1472004426536	I	73
1124	11594	I am sorry you had to come in.	I am sorry you had to come in.	555410	1472004426629	1472004426751	 	32
1124	11594	I am sorry you had to come in.	I am sorry you had to come in.	555411	1472004426860	1472004427001	a	65
1124	11594	I am sorry you had to come in.	I am sorry you had to come in.	555412	1472004427016	1472004427082	m	77
1124	11594	I am sorry you had to come in.	I am sorry you had to come in.	555413	1472004427192	1472004427343	 	32
1124	11594	I am sorry you had to come in.	I am sorry you had to come in.	555436	1472004427438	1472004427531	s	83
1124	11594	I am sorry you had to come in.	I am sorry you had to come in.	555438	1472004427843	1472004427905	o	79
1124	11594	I am sorry you had to come in.	I am sorry you had to come in.	555440	1472004427999	1472004428066	r	82
1124	11594	I am sorry you had to come in.	I am sorry you had to come in.	555442	1472004428144	1472004428221	r	82
1124	11594	I am sorry you had to come in.	I am sorry you had to come in.	555444	1472004428268	1472004428348	y	89
1124	11594	I am sorry you had to come in.	I am sorry you had to come in.	555465	1472004428396	1472004428502	 	32
1124	11594	I am sorry you had to come in.	I am sorry you had to come in.	555469	1472004429178	1472004429285	y	89
1124	11594	I am sorry you had to come in.	I am sorry you had to come in.	555472	1472004429332	1472004429430	o	79
1124	11594	I am sorry you had to come in.	I am sorry you had to come in.	555474	1472004429508	1472004429604	u	85
1124	11594	I am sorry you had to come in.	I am sorry you had to come in.	555477	1472004429651	1472004429763	 	32
1124	11594	I am sorry you had to come in.	I am sorry you had to come in.	555508	1472004429826	1472004429906	a	65
1124	11594	I am sorry you had to come in.	I am sorry you had to come in.	555509	1472004430124	1472004430220	BKSP	8
1124	11594	I am sorry you had to come in.	I am sorry you had to come in.	555511	1472004430392	1472004430472	h	72
1124	11594	I am sorry you had to come in.	I am sorry you had to come in.	555513	1472004430487	1472004430595	a	65
1124	11594	I am sorry you had to come in.	I am sorry you had to come in.	555515	1472004430642	1472004430769	d	68
1124	11594	I am sorry you had to come in.	I am sorry you had to come in.	555517	1472004430815	1472004430929	 	32
1124	11594	I am sorry you had to come in.	I am sorry you had to come in.	555558	1472004431320	1472004431445	t	84
1124	11594	I am sorry you had to come in.	I am sorry you had to come in.	555559	1472004431726	1472004431837	BKSP	8
1124	11594	I am sorry you had to come in.	I am sorry you had to come in.	555561	1472004432369	1472004432495	t	84
1124	11594	I am sorry you had to come in.	I am sorry you had to come in.	555563	1472004432526	1472004432588	o	79
1124	11594	I am sorry you had to come in.	I am sorry you had to come in.	555565	1472004432651	1472004432763	 	32
1124	11594	I am sorry you had to come in.	I am sorry you had to come in.	555567	1472004432919	1472004433061	c	67
1124	11594	I am sorry you had to come in.	I am sorry you had to come in.	555580	1472004433124	1472004433205	o	79
1124	11594	I am sorry you had to come in.	I am sorry you had to come in.	555582	1472004433283	1472004433380	m	77
1124	11594	I am sorry you had to come in.	I am sorry you had to come in.	555583	1472004433442	1472004433521	e	69
1124	11594	I am sorry you had to come in.	I am sorry you had to come in.	555584	1472004433646	1472004433768	 	32
1124	11594	I am sorry you had to come in.	I am sorry you had to come in.	555586	1472004433815	1472004433882	i	73
1124	11594	I am sorry you had to come in.	I am sorry you had to come in.	555613	1472004433977	1472004434054	n	78
1124	11594	I am sorry you had to come in.	I am sorry you had to come in.	555614	1472004434413	1472004434487	.	190
1124	11598	Hopefully this can wait until Monday.	Hopefully this can wait until Monday.	555686	1472004437542	1472004437885	SHIFT	16
1124	11598	Hopefully this can wait until Monday.	Hopefully this can wait until Monday.	555687	1472004437779	1472004437932	H	72
1124	11598	Hopefully this can wait until Monday.	Hopefully this can wait until Monday.	555688	1472004438026	1472004438105	o	79
1124	11598	Hopefully this can wait until Monday.	Hopefully this can wait until Monday.	555689	1472004438292	1472004438355	p	80
1124	11598	Hopefully this can wait until Monday.	Hopefully this can wait until Monday.	555690	1472004438417	1472004438528	e	69
1124	11598	Hopefully this can wait until Monday.	Hopefully this can wait until Monday.	555691	1472004439047	1472004439177	f	70
1124	11598	Hopefully this can wait until Monday.	Hopefully this can wait until Monday.	555715	1472004439192	1472004439255	u	85
1124	11598	Hopefully this can wait until Monday.	Hopefully this can wait until Monday.	555717	1472004439426	1472004439505	l	76
1124	11598	Hopefully this can wait until Monday.	Hopefully this can wait until Monday.	555719	1472004439583	1472004439664	l	76
1124	11598	Hopefully this can wait until Monday.	Hopefully this can wait until Monday.	555720	1472004439804	1472004439872	y	89
1124	11598	Hopefully this can wait until Monday.	Hopefully this can wait until Monday.	555721	1472004440373	1472004440454	 	32
1124	11598	Hopefully this can wait until Monday.	Hopefully this can wait until Monday.	555729	1472004440892	1472004441023	t	84
1124	11598	Hopefully this can wait until Monday.	Hopefully this can wait until Monday.	555731	1472004440970	1472004441047	h	72
1124	11598	Hopefully this can wait until Monday.	Hopefully this can wait until Monday.	555733	1472004441140	1472004441206	u	73
1124	11598	Hopefully this can wait until Monday.	Hopefully this can wait until Monday.	555735	1472004441252	1472004441378	s	83
1124	11598	Hopefully this can wait until Monday.	Hopefully this can wait until Monday.	555763	1472004441551	1472004441631	BKSP	8
1124	11598	Hopefully this can wait until Monday.	Hopefully this can wait until Monday.	555765	1472004441709	1472004441787	BKSP	8
1124	11598	Hopefully this can wait until Monday.	Hopefully this can wait until Monday.	555767	1472004442255	1472004442353	s	83
1124	11598	Hopefully this can wait until Monday.	Hopefully this can wait until Monday.	555770	1472004442416	1472004442560	 	32
1124	11598	Hopefully this can wait until Monday.	Hopefully this can wait until Monday.	555775	1472004443000	1472004443087	c	67
1124	11598	Hopefully this can wait until Monday.	Hopefully this can wait until Monday.	555779	1472004443103	1472004443228	a	65
1124	11598	Hopefully this can wait until Monday.	Hopefully this can wait until Monday.	555784	1472004443291	1472004443370	n	78
1124	11598	Hopefully this can wait until Monday.	Hopefully this can wait until Monday.	555808	1472004443449	1472004443562	 	32
1124	11598	Hopefully this can wait until Monday.	Hopefully this can wait until Monday.	555810	1472004443671	1472004443754	w	87
1124	11598	Hopefully this can wait until Monday.	Hopefully this can wait until Monday.	555812	1472004443817	1472004443960	a	65
1124	11598	Hopefully this can wait until Monday.	Hopefully this can wait until Monday.	555814	1472004444432	1472004444514	i	73
1124	11598	Hopefully this can wait until Monday.	Hopefully this can wait until Monday.	555816	1472004444624	1472004444688	t	84
1124	11598	Hopefully this can wait until Monday.	Hopefully this can wait until Monday.	555829	1472004444752	1472004444878	 	32
1124	11598	Hopefully this can wait until Monday.	Hopefully this can wait until Monday.	555831	1472004445050	1472004445114	u	85
1124	11598	Hopefully this can wait until Monday.	Hopefully this can wait until Monday.	555833	1472004445209	1472004445287	n	78
1124	11598	Hopefully this can wait until Monday.	Hopefully this can wait until Monday.	555835	1472004445459	1472004445537	t	84
1124	11598	Hopefully this can wait until Monday.	Hopefully this can wait until Monday.	555837	1472004445646	1472004445706	i	73
1124	11598	Hopefully this can wait until Monday.	Hopefully this can wait until Monday.	555871	1472004445831	1472004445897	l	76
1124	11598	Hopefully this can wait until Monday.	Hopefully this can wait until Monday.	555873	1472004445960	1472004446069	 	32
1124	11598	Hopefully this can wait until Monday.	Hopefully this can wait until Monday.	555875	1472004446350	1472004446402	m	77
1124	11598	Hopefully this can wait until Monday.	Hopefully this can wait until Monday.	555877	1472004446648	1472004446730	BKSP	8
1124	11598	Hopefully this can wait until Monday.	Hopefully this can wait until Monday.	555879	1472004446933	1472004447246	SHIFT	16
1124	11598	Hopefully this can wait until Monday.	Hopefully this can wait until Monday.	555880	1472004447136	1472004447246	M	77
1124	11598	Hopefully this can wait until Monday.	Hopefully this can wait until Monday.	555881	1472004447370	1472004447453	o	79
1124	11598	Hopefully this can wait until Monday.	Hopefully this can wait until Monday.	555906	1472004448128	1472004448189	n	78
1124	11598	Hopefully this can wait until Monday.	Hopefully this can wait until Monday.	555907	1472004448220	1472004448303	d	68
1124	11598	Hopefully this can wait until Monday.	Hopefully this can wait until Monday.	555908	1472004448318	1472004448445	a	65
1124	11598	Hopefully this can wait until Monday.	Hopefully this can wait until Monday.	555909	1472004448882	1472004448940	y	89
1124	11598	Hopefully this can wait until Monday.	Hopefully this can wait until Monday.	555910	1472004449340	1472004449404	.	190
1124	11606	Jane, what about this Thursday for lunch?	Jane, what about this Thursday for lunch?	556001	1472004451671	1472004452173	SHIFT	16
1124	11606	Jane, what about this Thursday for lunch?	Jane, what about this Thursday for lunch?	556000	1472004451968	1472004452080	G	71
1124	11606	Jane, what about this Thursday for lunch?	Jane, what about this Thursday for lunch?	556002	1472004452329	1472004452421	BKSP	8
1124	11606	Jane, what about this Thursday for lunch?	Jane, what about this Thursday for lunch?	556003	1472004452561	1472004452950	SHIFT	16
1124	11606	Jane, what about this Thursday for lunch?	Jane, what about this Thursday for lunch?	556004	1472004452828	1472004452950	H	72
1124	11606	Jane, what about this Thursday for lunch?	Jane, what about this Thursday for lunch?	556005	1472004453184	1472004453264	BKSP	8
1124	11606	Jane, what about this Thursday for lunch?	Jane, what about this Thursday for lunch?	556007	1472004453407	1472004453660	SHIFT	16
1124	11606	Jane, what about this Thursday for lunch?	Jane, what about this Thursday for lunch?	556006	1472004453516	1472004453645	J	74
1124	11606	Jane, what about this Thursday for lunch?	Jane, what about this Thursday for lunch?	556008	1472004453769	1472004453894	a	65
1124	11606	Jane, what about this Thursday for lunch?	Jane, what about this Thursday for lunch?	556055	1472004454300	1472004454367	b	78
1124	11606	Jane, what about this Thursday for lunch?	Jane, what about this Thursday for lunch?	556058	1472004454367	1472004454463	e	69
1124	11606	Jane, what about this Thursday for lunch?	Jane, what about this Thursday for lunch?	556060	1472004455418	1472004455497	BKSP	8
1124	11606	Jane, what about this Thursday for lunch?	Jane, what about this Thursday for lunch?	556063	1472004455560	1472004455638	BKSP	8
1124	11606	Jane, what about this Thursday for lunch?	Jane, what about this Thursday for lunch?	556065	1472004455872	1472004455953	e	69
1124	11606	Jane, what about this Thursday for lunch?	Jane, what about this Thursday for lunch?	556068	1472004456249	1472004456315	,	188
1124	11606	Jane, what about this Thursday for lunch?	Jane, what about this Thursday for lunch?	556070	1472004456377	1472004456500	 	32
1124	11606	Jane, what about this Thursday for lunch?	Jane, what about this Thursday for lunch?	556071	1472004456781	1472004456895	w	87
1124	11606	Jane, what about this Thursday for lunch?	Jane, what about this Thursday for lunch?	556081	1472004457051	1472004457130	h	72
1124	11606	Jane, what about this Thursday for lunch?	Jane, what about this Thursday for lunch?	556083	1472004457146	1472004457267	a	65
1124	11606	Jane, what about this Thursday for lunch?	Jane, what about this Thursday for lunch?	556088	1472004457314	1472004457397	t	84
1124	11606	Jane, what about this Thursday for lunch?	Jane, what about this Thursday for lunch?	556091	1472004457459	1472004457554	 	32
1124	11606	Jane, what about this Thursday for lunch?	Jane, what about this Thursday for lunch?	556095	1472004457898	1472004457996	a	65
1124	11606	Jane, what about this Thursday for lunch?	Jane, what about this Thursday for lunch?	556102	1472004458169	1472004458263	b	66
1124	11606	Jane, what about this Thursday for lunch?	Jane, what about this Thursday for lunch?	556103	1472004458326	1472004458420	o	79
1124	11606	Jane, what about this Thursday for lunch?	Jane, what about this Thursday for lunch?	556104	1472004458498	1472004458564	u	85
1124	11606	Jane, what about this Thursday for lunch?	Jane, what about this Thursday for lunch?	556105	1472004458720	1472004458788	t	84
1124	11606	Jane, what about this Thursday for lunch?	Jane, what about this Thursday for lunch?	556106	1472004458835	1472004458960	 	32
1124	11606	Jane, what about this Thursday for lunch?	Jane, what about this Thursday for lunch?	556139	1472004459525	1472004459619	t	84
1124	11606	Jane, what about this Thursday for lunch?	Jane, what about this Thursday for lunch?	556140	1472004459619	1472004459698	h	72
1124	11606	Jane, what about this Thursday for lunch?	Jane, what about this Thursday for lunch?	556141	1472004459776	1472004459853	i	73
1124	11606	Jane, what about this Thursday for lunch?	Jane, what about this Thursday for lunch?	556142	1472004459884	1472004460025	s	83
1124	11606	Jane, what about this Thursday for lunch?	Jane, what about this Thursday for lunch?	556143	1472004460088	1472004460233	 	32
1124	11606	Jane, what about this Thursday for lunch?	Jane, what about this Thursday for lunch?	556181	1472004460421	1472004460753	SHIFT	16
1124	11606	Jane, what about this Thursday for lunch?	Jane, what about this Thursday for lunch?	556183	1472004460666	1472004460753	T	84
1124	11606	Jane, what about this Thursday for lunch?	Jane, what about this Thursday for lunch?	556185	1472004460987	1472004461070	h	72
1124	11606	Jane, what about this Thursday for lunch?	Jane, what about this Thursday for lunch?	556187	1472004461117	1472004461214	u	85
1124	11606	Jane, what about this Thursday for lunch?	Jane, what about this Thursday for lunch?	556188	1472004461354	1472004461452	r	82
1124	11606	Jane, what about this Thursday for lunch?	Jane, what about this Thursday for lunch?	556189	1472004461577	1472004461669	s	83
1124	11606	Jane, what about this Thursday for lunch?	Jane, what about this Thursday for lunch?	556224	1472004462013	1472004462103	d	68
1124	11606	Jane, what about this Thursday for lunch?	Jane, what about this Thursday for lunch?	556226	1472004462135	1472004462229	a	65
1124	11606	Jane, what about this Thursday for lunch?	Jane, what about this Thursday for lunch?	556229	1472004462619	1472004462680	y	89
1124	11606	Jane, what about this Thursday for lunch?	Jane, what about this Thursday for lunch?	556231	1472004463148	1472004463246	 	32
1124	11606	Jane, what about this Thursday for lunch?	Jane, what about this Thursday for lunch?	556232	1472004463417	1472004463527	f	70
1124	11606	Jane, what about this Thursday for lunch?	Jane, what about this Thursday for lunch?	556248	1472004463559	1472004463637	o	79
1124	11606	Jane, what about this Thursday for lunch?	Jane, what about this Thursday for lunch?	556250	1472004463746	1472004463836	r	82
1124	11606	Jane, what about this Thursday for lunch?	Jane, what about this Thursday for lunch?	556252	1472004463977	1472004464084	 	32
1124	11606	Jane, what about this Thursday for lunch?	Jane, what about this Thursday for lunch?	556254	1472004464572	1472004464653	l	76
1124	11606	Jane, what about this Thursday for lunch?	Jane, what about this Thursday for lunch?	556256	1472004464778	1472004464853	u	85
1124	11606	Jane, what about this Thursday for lunch?	Jane, what about this Thursday for lunch?	556286	1472004465010	1472004465088	n	78
1124	11606	Jane, what about this Thursday for lunch?	Jane, what about this Thursday for lunch?	556287	1472004465135	1472004465260	c	67
1124	11606	Jane, what about this Thursday for lunch?	Jane, what about this Thursday for lunch?	556288	1472004465401	1472004465465	h	72
1124	11606	Jane, what about this Thursday for lunch?	Jane, what about this Thursday for lunch?	556289	1472004465904	1472004466138	SHIFT	16
1124	11606	Jane, what about this Thursday for lunch?	Jane, what about this Thursday for lunch?	556290	1472004466092	1472004466185	?	191
1124	11611	Sunday tickets have been on sale for weeks.	Sunday tickets have been on sale for weeks.	556372	1472004468823	1472004469147	SHIFT	16
1124	11611	Sunday tickets have been on sale for weeks.	Sunday tickets have been on sale for weeks.	556371	1472004468979	1472004469132	S	83
1124	11611	Sunday tickets have been on sale for weeks.	Sunday tickets have been on sale for weeks.	556373	1472004469303	1472004469380	u	85
1124	11611	Sunday tickets have been on sale for weeks.	Sunday tickets have been on sale for weeks.	556374	1472004469474	1472004469553	n	78
1124	11611	Sunday tickets have been on sale for weeks.	Sunday tickets have been on sale for weeks.	556375	1472004469631	1472004469744	d	68
1124	11611	Sunday tickets have been on sale for weeks.	Sunday tickets have been on sale for weeks.	556376	1472004469760	1472004469868	a	65
1124	11611	Sunday tickets have been on sale for weeks.	Sunday tickets have been on sale for weeks.	556401	1472004470418	1472004470496	y	89
1124	11611	Sunday tickets have been on sale for weeks.	Sunday tickets have been on sale for weeks.	556404	1472004470559	1472004470669	 	32
1124	11611	Sunday tickets have been on sale for weeks.	Sunday tickets have been on sale for weeks.	556407	1472004471263	1472004471361	t	84
1124	11611	Sunday tickets have been on sale for weeks.	Sunday tickets have been on sale for weeks.	556410	1472004471486	1472004471548	i	73
1124	11611	Sunday tickets have been on sale for weeks.	Sunday tickets have been on sale for weeks.	556413	1472004471657	1472004471799	c	67
1124	11611	Sunday tickets have been on sale for weeks.	Sunday tickets have been on sale for weeks.	556455	1472004471799	1472004471864	k	75
1124	11611	Sunday tickets have been on sale for weeks.	Sunday tickets have been on sale for weeks.	556456	1472004471942	1472004472019	e	69
1124	11611	Sunday tickets have been on sale for weeks.	Sunday tickets have been on sale for weeks.	556457	1472004472456	1472004472521	t	84
1124	11611	Sunday tickets have been on sale for weeks.	Sunday tickets have been on sale for weeks.	556458	1472004472693	1472004472816	s	83
1124	11611	Sunday tickets have been on sale for weeks.	Sunday tickets have been on sale for weeks.	556459	1472004472941	1472004473035	 	32
1124	11611	Sunday tickets have been on sale for weeks.	Sunday tickets have been on sale for weeks.	556460	1472004473393	1472004473469	h	72
1124	11611	Sunday tickets have been on sale for weeks.	Sunday tickets have been on sale for weeks.	556466	1472004473469	1472004473593	a	65
1124	11611	Sunday tickets have been on sale for weeks.	Sunday tickets have been on sale for weeks.	556468	1472004473625	1472004473702	v	86
1124	11611	Sunday tickets have been on sale for weeks.	Sunday tickets have been on sale for weeks.	556471	1472004473733	1472004473829	e	69
1124	11611	Sunday tickets have been on sale for weeks.	Sunday tickets have been on sale for weeks.	556474	1472004473891	1472004474016	 	32
1124	11611	Sunday tickets have been on sale for weeks.	Sunday tickets have been on sale for weeks.	556477	1472004474424	1472004474488	b	66
1124	11611	Sunday tickets have been on sale for weeks.	Sunday tickets have been on sale for weeks.	556509	1472004474536	1472004474619	e	69
1124	11611	Sunday tickets have been on sale for weeks.	Sunday tickets have been on sale for weeks.	556511	1472004474900	1472004474963	e	69
1124	11611	Sunday tickets have been on sale for weeks.	Sunday tickets have been on sale for weeks.	556516	1472004475026	1472004475093	n	78
1124	11611	Sunday tickets have been on sale for weeks.	Sunday tickets have been on sale for weeks.	556521	1472004475186	1472004475284	 	32
1124	11611	Sunday tickets have been on sale for weeks.	Sunday tickets have been on sale for weeks.	556523	1472004475787	1472004475871	o	79
1124	11611	Sunday tickets have been on sale for weeks.	Sunday tickets have been on sale for weeks.	556534	1472004475981	1472004476064	n	78
1124	11611	Sunday tickets have been on sale for weeks.	Sunday tickets have been on sale for weeks.	556536	1472004476095	1472004476201	 	32
1124	11611	Sunday tickets have been on sale for weeks.	Sunday tickets have been on sale for weeks.	556539	1472004476232	1472004476360	s	83
1124	11611	Sunday tickets have been on sale for weeks.	Sunday tickets have been on sale for weeks.	556541	1472004476360	1472004476467	a	65
1124	11611	Sunday tickets have been on sale for weeks.	Sunday tickets have been on sale for weeks.	556544	1472004476873	1472004476937	l	76
1124	11611	Sunday tickets have been on sale for weeks.	Sunday tickets have been on sale for weeks.	556557	1472004476952	1472004477060	e	69
1124	11611	Sunday tickets have been on sale for weeks.	Sunday tickets have been on sale for weeks.	556558	1472004477123	1472004477249	 	32
1124	11611	Sunday tickets have been on sale for weeks.	Sunday tickets have been on sale for weeks.	556559	1472004477736	1472004477804	f	70
1124	11611	Sunday tickets have been on sale for weeks.	Sunday tickets have been on sale for weeks.	556560	1472004478131	1472004478197	o	79
1124	11611	Sunday tickets have been on sale for weeks.	Sunday tickets have been on sale for weeks.	556561	1472004478292	1472004478370	r	82
1124	11611	Sunday tickets have been on sale for weeks.	Sunday tickets have been on sale for weeks.	556578	1472004478481	1472004478596	 	32
1124	11611	Sunday tickets have been on sale for weeks.	Sunday tickets have been on sale for weeks.	556579	1472004478705	1472004478788	w	87
1124	11611	Sunday tickets have been on sale for weeks.	Sunday tickets have been on sale for weeks.	556580	1472004478881	1472004478964	e	69
1124	11611	Sunday tickets have been on sale for weeks.	Sunday tickets have been on sale for weeks.	556581	1472004479026	1472004479087	e	69
1124	11611	Sunday tickets have been on sale for weeks.	Sunday tickets have been on sale for weeks.	556582	1472004479510	1472004479573	k	75
1124	11611	Sunday tickets have been on sale for weeks.	Sunday tickets have been on sale for weeks.	556596	1472004479605	1472004479687	s	83
1124	11611	Sunday tickets have been on sale for weeks.	Sunday tickets have been on sale for weeks.	556597	1472004480093	1472004480202	.	190
1124	11619	John, please send this to Shelly.	John, please send this to Shelly.	556649	1472004482410	1472004483073	SHIFT	16
1124	11619	John, please send this to Shelly.	John, please send this to Shelly.	556648	1472004482864	1472004482963	H	72
1124	11619	John, please send this to Shelly.	John, please send this to Shelly.	556650	1472004483197	1472004483310	BKSP	8
1124	11619	John, please send this to Shelly.	John, please send this to Shelly.	556651	1472004483482	1472004484429	SHIFT	16
1124	11619	John, please send this to Shelly.	John, please send this to Shelly.	556652	1472004484332	1472004484429	J	74
1124	11619	John, please send this to Shelly.	John, please send this to Shelly.	556653	1472004484647	1472004484744	o	79
1124	11619	John, please send this to Shelly.	John, please send this to Shelly.	556654	1472004485166	1472004485247	h	72
1124	11619	John, please send this to Shelly.	John, please send this to Shelly.	556655	1472004485890	1472004485970	n	78
1124	11619	John, please send this to Shelly.	John, please send this to Shelly.	556701	1472004486018	1472004486128	 	32
1124	11619	John, please send this to Shelly.	John, please send this to Shelly.	556703	1472004486424	1472004486503	BKSP	8
1124	11619	John, please send this to Shelly.	John, please send this to Shelly.	556704	1472004486848	1472004486914	,	188
1124	11619	John, please send this to Shelly.	John, please send this to Shelly.	556705	1472004486961	1472004487068	 	32
1124	11619	John, please send this to Shelly.	John, please send this to Shelly.	556706	1472004487270	1472004487337	p	80
1124	11619	John, please send this to Shelly.	John, please send this to Shelly.	556707	1472004487462	1472004487552	l	76
1124	11619	John, please send this to Shelly.	John, please send this to Shelly.	556729	1472004487600	1472004487712	e	69
1124	11619	John, please send this to Shelly.	John, please send this to Shelly.	556731	1472004487805	1472004487917	s	83
1124	11619	John, please send this to Shelly.	John, please send this to Shelly.	556733	1472004488137	1472004488234	BKSP	8
1124	11619	John, please send this to Shelly.	John, please send this to Shelly.	556735	1472004488344	1472004488466	a	65
1124	11619	John, please send this to Shelly.	John, please send this to Shelly.	556737	1472004488481	1472004488594	s	83
1124	11619	John, please send this to Shelly.	John, please send this to Shelly.	556739	1472004488672	1472004488768	e	69
1124	11619	John, please send this to Shelly.	John, please send this to Shelly.	556763	1472004488910	1472004489017	 	32
1124	11619	John, please send this to Shelly.	John, please send this to Shelly.	556766	1472004489173	1472004489253	s	83
1124	11619	John, please send this to Shelly.	John, please send this to Shelly.	556768	1472004489331	1472004489414	e	69
1124	11619	John, please send this to Shelly.	John, please send this to Shelly.	556770	1472004489806	1472004489886	n	78
1124	11619	John, please send this to Shelly.	John, please send this to Shelly.	556774	1472004489933	1472004490029	d	68
1124	11619	John, please send this to Shelly.	John, please send this to Shelly.	556783	1472004490093	1472004490202	 	32
1124	11619	John, please send this to Shelly.	John, please send this to Shelly.	556785	1472004490343	1472004490435	t	84
1124	11619	John, please send this to Shelly.	John, please send this to Shelly.	556787	1472004490637	1472004490705	h	72
1124	11619	John, please send this to Shelly.	John, please send this to Shelly.	556789	1472004490767	1472004490861	i	73
1124	11619	John, please send this to Shelly.	John, please send this to Shelly.	556791	1472004490908	1472004491011	s	83
1124	11619	John, please send this to Shelly.	John, please send this to Shelly.	556829	1472004491090	1472004491216	 	32
1124	11619	John, please send this to Shelly.	John, please send this to Shelly.	556830	1472004491719	1472004491858	t	84
1124	11619	John, please send this to Shelly.	John, please send this to Shelly.	556831	1472004491889	1472004491969	o	79
1124	11619	John, please send this to Shelly.	John, please send this to Shelly.	556832	1472004492016	1472004492128	 	32
1124	11619	John, please send this to Shelly.	John, please send this to Shelly.	556833	1472004492268	1472004492377	s	83
1124	11619	John, please send this to Shelly.	John, please send this to Shelly.	556874	1472004492706	1472004492772	h	72
1124	11619	John, please send this to Shelly.	John, please send this to Shelly.	556875	1472004493053	1472004493136	BKSP	8
1124	11619	John, please send this to Shelly.	John, please send this to Shelly.	556876	1472004493214	1472004493280	BKSP	8
1124	11619	John, please send this to Shelly.	John, please send this to Shelly.	556878	1472004493421	1472004493659	SHIFT	16
1124	11619	John, please send this to Shelly.	John, please send this to Shelly.	556877	1472004493499	1472004493596	S	83
1124	11619	John, please send this to Shelly.	John, please send this to Shelly.	556879	1472004494075	1472004494131	h	72
1124	11619	John, please send this to Shelly.	John, please send this to Shelly.	556880	1472004494147	1472004494230	e	69
1124	11619	John, please send this to Shelly.	John, please send this to Shelly.	556881	1472004494496	1472004494548	l	76
1124	11619	John, please send this to Shelly.	John, please send this to Shelly.	556896	1472004494610	1472004494687	l	76
1124	11619	John, please send this to Shelly.	John, please send this to Shelly.	556899	1472004494811	1472004494870	y	89
1124	11619	John, please send this to Shelly.	John, please send this to Shelly.	556904	1472004495324	1472004495403	.	190
