PARTICIPANT_ID	TEST_SECTION_ID	SENTENCE	USER_INPUT	KEYSTROKE_ID	PRESS_TIME	RELEASE_TIME	LETTER	KEYCODE
1195	12207	History repeated itself last season when Tenerife beat Madrid.	History repeated itself last season when Tenerife beat Madrid.	584561	1471951241400	1471951241601	SHIFT	16
1195	12207	History repeated itself last season when Tenerife beat Madrid.	History repeated itself last season when Tenerife beat Madrid.	584563	1471951241521	1471951241651	H	72
1195	12207	History repeated itself last season when Tenerife beat Madrid.	History repeated itself last season when Tenerife beat Madrid.	584565	1471951241654	1471951241779	i	73
1195	12207	History repeated itself last season when Tenerife beat Madrid.	History repeated itself last season when Tenerife beat Madrid.	584566	1471951241741	1471951241863	s	83
1195	12207	History repeated itself last season when Tenerife beat Madrid.	History repeated itself last season when Tenerife beat Madrid.	584567	1471951241820	1471951241931	t	84
1195	12207	History repeated itself last season when Tenerife beat Madrid.	History repeated itself last season when Tenerife beat Madrid.	584568	1471951241919	1471951242070	o	79
1195	12207	History repeated itself last season when Tenerife beat Madrid.	History repeated itself last season when Tenerife beat Madrid.	584570	1471951242014	1471951242184	r	82
1195	12207	History repeated itself last season when Tenerife beat Madrid.	History repeated itself last season when Tenerife beat Madrid.	584572	1471951242102	1471951242200	y	89
1195	12207	History repeated itself last season when Tenerife beat Madrid.	History repeated itself last season when Tenerife beat Madrid.	584575	1471951242222	1471951242378	 	32
1195	12207	History repeated itself last season when Tenerife beat Madrid.	History repeated itself last season when Tenerife beat Madrid.	584579	1471951242312	1471951242454	r	82
1195	12207	History repeated itself last season when Tenerife beat Madrid.	History repeated itself last season when Tenerife beat Madrid.	584592	1471951242389	1471951242482	e	69
1195	12207	History repeated itself last season when Tenerife beat Madrid.	History repeated itself last season when Tenerife beat Madrid.	584594	1471951242461	1471951242611	p	80
1195	12207	History repeated itself last season when Tenerife beat Madrid.	History repeated itself last season when Tenerife beat Madrid.	584596	1471951242573	1471951242740	e	69
1195	12207	History repeated itself last season when Tenerife beat Madrid.	History repeated itself last season when Tenerife beat Madrid.	584599	1471951242899	1471951243035	a	65
1195	12207	History repeated itself last season when Tenerife beat Madrid.	History repeated itself last season when Tenerife beat Madrid.	584601	1471951243012	1471951243153	t	84
1195	12207	History repeated itself last season when Tenerife beat Madrid.	History repeated itself last season when Tenerife beat Madrid.	584613	1471951243109	1471951243187	e	69
1195	12207	History repeated itself last season when Tenerife beat Madrid.	History repeated itself last season when Tenerife beat Madrid.	584614	1471951243268	1471951243375	d	68
1195	12207	History repeated itself last season when Tenerife beat Madrid.	History repeated itself last season when Tenerife beat Madrid.	584615	1471951243342	1471951243492	 	32
1195	12207	History repeated itself last season when Tenerife beat Madrid.	History repeated itself last season when Tenerife beat Madrid.	584616	1471951243401	1471951243537	i	73
1195	12207	History repeated itself last season when Tenerife beat Madrid.	History repeated itself last season when Tenerife beat Madrid.	584617	1471951243549	1471951243643	t	84
1195	12207	History repeated itself last season when Tenerife beat Madrid.	History repeated itself last season when Tenerife beat Madrid.	584618	1471951243674	1471951243780	s	83
1195	12207	History repeated itself last season when Tenerife beat Madrid.	History repeated itself last season when Tenerife beat Madrid.	584623	1471951243737	1471951243848	e	69
1195	12207	History repeated itself last season when Tenerife beat Madrid.	History repeated itself last season when Tenerife beat Madrid.	584625	1471951243836	1471951243967	l	76
1195	12207	History repeated itself last season when Tenerife beat Madrid.	History repeated itself last season when Tenerife beat Madrid.	584627	1471951243910	1471951244022	f	70
1195	12207	History repeated itself last season when Tenerife beat Madrid.	History repeated itself last season when Tenerife beat Madrid.	584630	1471951243988	1471951244091	 	32
1195	12207	History repeated itself last season when Tenerife beat Madrid.	History repeated itself last season when Tenerife beat Madrid.	584633	1471951244058	1471951244183	l	76
1195	12207	History repeated itself last season when Tenerife beat Madrid.	History repeated itself last season when Tenerife beat Madrid.	584643	1471951244131	1471951244263	a	65
1195	12207	History repeated itself last season when Tenerife beat Madrid.	History repeated itself last season when Tenerife beat Madrid.	584646	1471951244174	1471951244320	s	83
1195	12207	History repeated itself last season when Tenerife beat Madrid.	History repeated itself last season when Tenerife beat Madrid.	584649	1471951244267	1471951244379	t	84
1195	12207	History repeated itself last season when Tenerife beat Madrid.	History repeated itself last season when Tenerife beat Madrid.	584654	1471951244325	1471951244477	 	32
1195	12207	History repeated itself last season when Tenerife beat Madrid.	History repeated itself last season when Tenerife beat Madrid.	584657	1471951244440	1471951244568	s	83
1195	12207	History repeated itself last season when Tenerife beat Madrid.	History repeated itself last season when Tenerife beat Madrid.	584659	1471951244591	1471951244718	e	69
1195	12207	History repeated itself last season when Tenerife beat Madrid.	History repeated itself last season when Tenerife beat Madrid.	584662	1471951244701	1471951244833	a	65
1195	12207	History repeated itself last season when Tenerife beat Madrid.	History repeated itself last season when Tenerife beat Madrid.	584663	1471951244789	1471951244911	s	83
1195	12207	History repeated itself last season when Tenerife beat Madrid.	History repeated itself last season when Tenerife beat Madrid.	584664	1471951244900	1471951245044	o	79
1195	12207	History repeated itself last season when Tenerife beat Madrid.	History repeated itself last season when Tenerife beat Madrid.	584665	1471951244956	1471951245081	n	78
1195	12207	History repeated itself last season when Tenerife beat Madrid.	History repeated itself last season when Tenerife beat Madrid.	584671	1471951245017	1471951245134	 	32
1195	12207	History repeated itself last season when Tenerife beat Madrid.	History repeated itself last season when Tenerife beat Madrid.	584673	1471951245064	1471951245147	w	87
1195	12207	History repeated itself last season when Tenerife beat Madrid.	History repeated itself last season when Tenerife beat Madrid.	584676	1471951245183	1471951245281	h	72
1195	12207	History repeated itself last season when Tenerife beat Madrid.	History repeated itself last season when Tenerife beat Madrid.	584679	1471951245223	1471951245313	e	69
1195	12207	History repeated itself last season when Tenerife beat Madrid.	History repeated itself last season when Tenerife beat Madrid.	584682	1471951245347	1471951245478	n	78
1195	12207	History repeated itself last season when Tenerife beat Madrid.	History repeated itself last season when Tenerife beat Madrid.	584685	1471951245379	1471951245525	 	32
1195	12207	History repeated itself last season when Tenerife beat Madrid.	History repeated itself last season when Tenerife beat Madrid.	584722	1471951245420	1471951245568	SHIFT	16
1195	12207	History repeated itself last season when Tenerife beat Madrid.	History repeated itself last season when Tenerife beat Madrid.	584724	1471951245500	1471951245603	T	84
1195	12207	History repeated itself last season when Tenerife beat Madrid.	History repeated itself last season when Tenerife beat Madrid.	584726	1471951245832	1471951245934	e	69
1195	12207	History repeated itself last season when Tenerife beat Madrid.	History repeated itself last season when Tenerife beat Madrid.	584729	1471951245959	1471951246101	n	78
1195	12207	History repeated itself last season when Tenerife beat Madrid.	History repeated itself last season when Tenerife beat Madrid.	584732	1471951246132	1471951246217	e	69
1195	12207	History repeated itself last season when Tenerife beat Madrid.	History repeated itself last season when Tenerife beat Madrid.	584735	1471951246434	1471951246517	r	82
1195	12207	History repeated itself last season when Tenerife beat Madrid.	History repeated itself last season when Tenerife beat Madrid.	584738	1471951246542	1471951246669	i	73
1195	12207	History repeated itself last season when Tenerife beat Madrid.	History repeated itself last season when Tenerife beat Madrid.	584741	1471951246661	1471951246793	f	70
1195	12207	History repeated itself last season when Tenerife beat Madrid.	History repeated itself last season when Tenerife beat Madrid.	584743	1471951246728	1471951246827	e	69
1195	12207	History repeated itself last season when Tenerife beat Madrid.	History repeated itself last season when Tenerife beat Madrid.	584745	1471951246841	1471951246954	 	32
1195	12207	History repeated itself last season when Tenerife beat Madrid.	History repeated itself last season when Tenerife beat Madrid.	584747	1471951247017	1471951247155	b	66
1195	12207	History repeated itself last season when Tenerife beat Madrid.	History repeated itself last season when Tenerife beat Madrid.	584782	1471951247066	1471951247212	e	69
1195	12207	History repeated itself last season when Tenerife beat Madrid.	History repeated itself last season when Tenerife beat Madrid.	584784	1471951247137	1471951247255	a	65
1195	12207	History repeated itself last season when Tenerife beat Madrid.	History repeated itself last season when Tenerife beat Madrid.	584786	1471951247187	1471951247296	t	84
1195	12207	History repeated itself last season when Tenerife beat Madrid.	History repeated itself last season when Tenerife beat Madrid.	584788	1471951247280	1471951247392	 	32
1195	12207	History repeated itself last season when Tenerife beat Madrid.	History repeated itself last season when Tenerife beat Madrid.	584791	1471951247384	1471951247525	SHIFT	16
1195	12207	History repeated itself last season when Tenerife beat Madrid.	History repeated itself last season when Tenerife beat Madrid.	584794	1471951247454	1471951247606	M	77
1195	12207	History repeated itself last season when Tenerife beat Madrid.	History repeated itself last season when Tenerife beat Madrid.	584797	1471951247568	1471951247637	a	65
1195	12207	History repeated itself last season when Tenerife beat Madrid.	History repeated itself last season when Tenerife beat Madrid.	584800	1471951247710	1471951247836	d	68
1195	12207	History repeated itself last season when Tenerife beat Madrid.	History repeated itself last season when Tenerife beat Madrid.	584802	1471951247812	1471951247921	r	82
1195	12207	History repeated itself last season when Tenerife beat Madrid.	History repeated itself last season when Tenerife beat Madrid.	584804	1471951247925	1471951248023	i	73
1195	12207	History repeated itself last season when Tenerife beat Madrid.	History repeated itself last season when Tenerife beat Madrid.	584806	1471951248004	1471951248113	d	68
1195	12207	History repeated itself last season when Tenerife beat Madrid.	History repeated itself last season when Tenerife beat Madrid.	584810	1471951248188	1471951248300	.	190
1195	12211	I'll talk to you on Monday.	I'll talk to you on Monday.	584937	1471951251440	1471951251610	SHIFT	16
1195	12211	I'll talk to you on Monday.	I'll talk to you on Monday.	584934	1471951251497	1471951251570	I	73
1195	12211	I'll talk to you on Monday.	I'll talk to you on Monday.	584942	1471951251718	1471951251781	;	186
1195	12211	I'll talk to you on Monday.	I'll talk to you on Monday.	584946	1471951251995	1471951252089	BKSP	8
1195	12211	I'll talk to you on Monday.	I'll talk to you on Monday.	584948	1471951252154	1471951252237	'	222
1195	12211	I'll talk to you on Monday.	I'll talk to you on Monday.	584950	1471951252347	1471951252411	l	76
1195	12211	I'll talk to you on Monday.	I'll talk to you on Monday.	584953	1471951252484	1471951252572	l	76
1195	12211	I'll talk to you on Monday.	I'll talk to you on Monday.	584952	1471951252562	1471951252712	 	32
1195	12211	I'll talk to you on Monday.	I'll talk to you on Monday.	584955	1471951252610	1471951252735	t	84
1195	12211	I'll talk to you on Monday.	I'll talk to you on Monday.	584956	1471951252690	1471951252811	l	65
1195	12211	I'll talk to you on Monday.	I'll talk to you on Monday.	584960	1471951252760	1471951252881	k	75
1195	12211	I'll talk to you on Monday.	I'll talk to you on Monday.	584963	1471951252826	1471951252934	 	32
1195	12211	I'll talk to you on Monday.	I'll talk to you on Monday.	584966	1471951252874	1471951252981	t	84
1195	12211	I'll talk to you on Monday.	I'll talk to you on Monday.	584969	1471951252939	1471951253032	o	79
1195	12211	I'll talk to you on Monday.	I'll talk to you on Monday.	584971	1471951253016	1471951253130	 	32
1195	12211	I'll talk to you on Monday.	I'll talk to you on Monday.	584972	1471951253083	1471951253198	y	89
1195	12211	I'll talk to you on Monday.	I'll talk to you on Monday.	584973	1471951253116	1471951253247	o	79
1195	12211	I'll talk to you on Monday.	I'll talk to you on Monday.	584975	1471951253194	1471951253271	u	85
1195	12211	I'll talk to you on Monday.	I'll talk to you on Monday.	584977	1471951253240	1471951253348	 	32
1195	12211	I'll talk to you on Monday.	I'll talk to you on Monday.	584979	1471951253334	1471951253475	o	79
1195	12211	I'll talk to you on Monday.	I'll talk to you on Monday.	584981	1471951253439	1471951253547	n	78
1195	12211	I'll talk to you on Monday.	I'll talk to you on Monday.	584984	1471951253560	1471951253680	 	32
1195	12211	I'll talk to you on Monday.	I'll talk to you on Monday.	584988	1471951253599	1471951253722	SHIFT	16
1195	12211	I'll talk to you on Monday.	I'll talk to you on Monday.	584990	1471951253646	1471951253750	M	77
1195	12211	I'll talk to you on Monday.	I'll talk to you on Monday.	584992	1471951253764	1471951253917	o	79
1195	12211	I'll talk to you on Monday.	I'll talk to you on Monday.	584996	1471951253835	1471951253930	n	78
1195	12211	I'll talk to you on Monday.	I'll talk to you on Monday.	585000	1471951253888	1471951254015	d	68
1195	12211	I'll talk to you on Monday.	I'll talk to you on Monday.	585004	1471951253959	1471951254091	a	65
1195	12211	I'll talk to you on Monday.	I'll talk to you on Monday.	585003	1471951254039	1471951254132	y	89
1195	12211	I'll talk to you on Monday.	I'll talk to you on Monday.	585006	1471951254099	1471951254187	.	190
1195	12214	We need to bring them along slowly.	We need to bring them along slowly.	585144	1471951256117	1471951258893	SHIFT	16
1195	12214	We need to bring them along slowly.	We need to bring them along slowly.	585141	1471951258777	1471951258879	W	87
1195	12214	We need to bring them along slowly.	We need to bring them along slowly.	585148	1471951258947	1471951259060	e	69
1195	12214	We need to bring them along slowly.	We need to bring them along slowly.	585152	1471951259064	1471951259181	 	32
1195	12214	We need to bring them along slowly.	We need to bring them along slowly.	585156	1471951259156	1471951259289	n	78
1195	12214	We need to bring them along slowly.	We need to bring them along slowly.	585163	1471951259224	1471951259303	e	69
1195	12214	We need to bring them along slowly.	We need to bring them along slowly.	585164	1471951259384	1471951259448	e	69
1195	12214	We need to bring them along slowly.	We need to bring them along slowly.	585165	1471951259529	1471951259652	d	68
1195	12214	We need to bring them along slowly.	We need to bring them along slowly.	585166	1471951259686	1471951259833	 	32
1195	12214	We need to bring them along slowly.	We need to bring them along slowly.	585167	1471951259799	1471951259910	t	84
1195	12214	We need to bring them along slowly.	We need to bring them along slowly.	585181	1471951259877	1471951259969	o	79
1195	12214	We need to bring them along slowly.	We need to bring them along slowly.	585183	1471951259962	1471951260094	 	32
1195	12214	We need to bring them along slowly.	We need to bring them along slowly.	585186	1471951260039	1471951260137	b	66
1195	12214	We need to bring them along slowly.	We need to bring them along slowly.	585190	1471951260111	1471951260214	r	82
1195	12214	We need to bring them along slowly.	We need to bring them along slowly.	585195	1471951260171	1471951260336	i	73
1195	12214	We need to bring them along slowly.	We need to bring them along slowly.	585198	1471951260248	1471951260389	n	78
1195	12214	We need to bring them along slowly.	We need to bring them along slowly.	585199	1471951260328	1471951260412	g	71
1195	12214	We need to bring them along slowly.	We need to bring them along slowly.	585200	1471951260427	1471951260575	 	32
1195	12214	We need to bring them along slowly.	We need to bring them along slowly.	585201	1471951260518	1471951260646	t	84
1195	12214	We need to bring them along slowly.	We need to bring them along slowly.	585202	1471951260552	1471951260651	h	72
1195	12214	We need to bring them along slowly.	We need to bring them along slowly.	585203	1471951260639	1471951260745	e	69
1195	12214	We need to bring them along slowly.	We need to bring them along slowly.	585210	1471951260723	1471951260845	m	77
1195	12214	We need to bring them along slowly.	We need to bring them along slowly.	585211	1471951260791	1471951260941	 	32
1195	12214	We need to bring them along slowly.	We need to bring them along slowly.	585212	1471951260865	1471951261016	a	65
1195	12214	We need to bring them along slowly.	We need to bring them along slowly.	585213	1471951260945	1471951261035	l	76
1195	12214	We need to bring them along slowly.	We need to bring them along slowly.	585214	1471951261116	1471951261258	o	79
1195	12214	We need to bring them along slowly.	We need to bring them along slowly.	585215	1471951261170	1471951261305	n	78
1195	12214	We need to bring them along slowly.	We need to bring them along slowly.	585216	1471951261221	1471951261318	g	71
1195	12214	We need to bring them along slowly.	We need to bring them along slowly.	585217	1471951261279	1471951261416	 	32
1195	12214	We need to bring them along slowly.	We need to bring them along slowly.	585218	1471951261359	1471951261462	s	83
1195	12214	We need to bring them along slowly.	We need to bring them along slowly.	585219	1471951261421	1471951261500	l	76
1195	12214	We need to bring them along slowly.	We need to bring them along slowly.	585220	1471951261582	1471951261688	o	79
1195	12214	We need to bring them along slowly.	We need to bring them along slowly.	585224	1471951261669	1471951261778	w	87
1195	12214	We need to bring them along slowly.	We need to bring them along slowly.	585226	1471951261784	1471951261897	l	76
1195	12214	We need to bring them along slowly.	We need to bring them along slowly.	585228	1471951261938	1471951262036	y	89
1195	12214	We need to bring them along slowly.	We need to bring them along slowly.	585229	1471951262021	1471951262120	.	190
1195	12218	He is listed as probable for this week's game.	HE is listed as probable for this week's game.	585272	1471951264020	1471951264188	SHIFT	16
1195	12218	He is listed as probable for this week's game.	HE is listed as probable for this week's game.	585273	1471951264105	1471951264226	H	72
1195	12218	He is listed as probable for this week's game.	HE is listed as probable for this week's game.	585274	1471951264174	1471951264312	E	69
1195	12218	He is listed as probable for this week's game.	HE is listed as probable for this week's game.	585275	1471951264268	1471951264400	 	32
1195	12218	He is listed as probable for this week's game.	HE is listed as probable for this week's game.	585276	1471951264337	1471951264440	i	73
1195	12218	He is listed as probable for this week's game.	HE is listed as probable for this week's game.	585277	1471951264421	1471951264536	s	83
1195	12218	He is listed as probable for this week's game.	HE is listed as probable for this week's game.	585278	1471951264502	1471951264603	 	32
1195	12218	He is listed as probable for this week's game.	HE is listed as probable for this week's game.	585279	1471951264550	1471951264712	l	76
1195	12218	He is listed as probable for this week's game.	HE is listed as probable for this week's game.	585281	1471951264646	1471951264779	i	73
1195	12218	He is listed as probable for this week's game.	HE is listed as probable for this week's game.	585283	1471951264760	1471951264873	s	83
1195	12218	He is listed as probable for this week's game.	HE is listed as probable for this week's game.	585284	1471951264849	1471951264962	t	84
1195	12218	He is listed as probable for this week's game.	HE is listed as probable for this week's game.	585285	1471951264926	1471951265024	e	69
1195	12218	He is listed as probable for this week's game.	HE is listed as probable for this week's game.	585286	1471951265066	1471951265184	d	68
1195	12218	He is listed as probable for this week's game.	HE is listed as probable for this week's game.	585287	1471951265140	1471951265281	 	32
1195	12218	He is listed as probable for this week's game.	HE is listed as probable for this week's game.	585288	1471951265234	1471951265355	a	65
1195	12218	He is listed as probable for this week's game.	HE is listed as probable for this week's game.	585289	1471951265293	1471951265425	s	83
1195	12218	He is listed as probable for this week's game.	HE is listed as probable for this week's game.	585290	1471951265372	1471951265513	 	32
1195	12218	He is listed as probable for this week's game.	HE is listed as probable for this week's game.	585291	1471951265442	1471951265564	p	80
1195	12218	He is listed as probable for this week's game.	HE is listed as probable for this week's game.	585292	1471951265525	1471951265638	r	82
1195	12218	He is listed as probable for this week's game.	HE is listed as probable for this week's game.	585293	1471951265605	1471951265766	o	79
1195	12218	He is listed as probable for this week's game.	HE is listed as probable for this week's game.	585296	1471951265709	1471951265803	b	66
1195	12218	He is listed as probable for this week's game.	HE is listed as probable for this week's game.	585299	1471951265794	1471951265926	a	65
1195	12218	He is listed as probable for this week's game.	HE is listed as probable for this week's game.	585302	1471951265885	1471951265991	b	66
1195	12218	He is listed as probable for this week's game.	HE is listed as probable for this week's game.	585305	1471951266007	1471951266143	l	76
1195	12218	He is listed as probable for this week's game.	HE is listed as probable for this week's game.	585308	1471951266116	1471951266217	e	69
1195	12218	He is listed as probable for this week's game.	HE is listed as probable for this week's game.	585316	1471951266194	1471951266349	 	32
1195	12218	He is listed as probable for this week's game.	HE is listed as probable for this week's game.	585318	1471951266280	1471951266372	f	70
1195	12218	He is listed as probable for this week's game.	HE is listed as probable for this week's game.	585320	1471951266335	1471951266461	o	79
1195	12218	He is listed as probable for this week's game.	HE is listed as probable for this week's game.	585324	1471951266395	1471951266489	r	82
1195	12218	He is listed as probable for this week's game.	HE is listed as probable for this week's game.	585326	1471951266473	1471951266609	 	32
1195	12218	He is listed as probable for this week's game.	HE is listed as probable for this week's game.	585342	1471951266541	1471951266656	t	84
1195	12218	He is listed as probable for this week's game.	HE is listed as probable for this week's game.	585344	1471951266575	1471951266701	h	72
1195	12218	He is listed as probable for this week's game.	HE is listed as probable for this week's game.	585347	1471951266633	1471951266764	i	73
1195	12218	He is listed as probable for this week's game.	HE is listed as probable for this week's game.	585350	1471951266712	1471951266785	s	83
1195	12218	He is listed as probable for this week's game.	HE is listed as probable for this week's game.	585353	1471951266757	1471951266923	 	32
1195	12218	He is listed as probable for this week's game.	HE is listed as probable for this week's game.	585354	1471951266877	1471951266976	w	87
1195	12218	He is listed as probable for this week's game.	HE is listed as probable for this week's game.	585355	1471951267008	1471951267121	e	69
1195	12218	He is listed as probable for this week's game.	HE is listed as probable for this week's game.	585358	1471951267193	1471951267310	e	69
1195	12218	He is listed as probable for this week's game.	HE is listed as probable for this week's game.	585361	1471951267267	1471951267336	k	75
1195	12218	He is listed as probable for this week's game.	HE is listed as probable for this week's game.	585363	1471951267457	1471951267545	'	222
1195	12218	He is listed as probable for this week's game.	HE is listed as probable for this week's game.	585364	1471951267525	1471951267617	s	83
1195	12218	He is listed as probable for this week's game.	HE is listed as probable for this week's game.	585365	1471951267605	1471951267755	 	32
1195	12218	He is listed as probable for this week's game.	HE is listed as probable for this week's game.	585366	1471951267690	1471951267836	g	71
1195	12218	He is listed as probable for this week's game.	HE is listed as probable for this week's game.	585367	1471951267766	1471951267878	a	65
1195	12218	He is listed as probable for this week's game.	HE is listed as probable for this week's game.	585368	1471951267822	1471951267896	m	77
1195	12218	He is listed as probable for this week's game.	HE is listed as probable for this week's game.	585369	1471951267937	1471951268030	e	69
1195	12218	He is listed as probable for this week's game.	HE is listed as probable for this week's game.	585370	1471951268066	1471951268158	.	190
1195	12222	Go for the dollars.	GO for the dollars.	585399	1471951269698	1471951269964	SHIFT	16
1195	12222	Go for the dollars.	GO for the dollars.	585401	1471951269860	1471951269983	G	71
1195	12222	Go for the dollars.	GO for the dollars.	585403	1471951269954	1471951270081	O	79
1195	12222	Go for the dollars.	GO for the dollars.	585411	1471951270044	1471951270204	 	32
1195	12222	Go for the dollars.	GO for the dollars.	585405	1471951270120	1471951270201	f	70
1195	12222	Go for the dollars.	GO for the dollars.	585413	1471951270185	1471951270316	o	79
1195	12222	Go for the dollars.	GO for the dollars.	585414	1471951270236	1471951270328	r	82
1195	12222	Go for the dollars.	GO for the dollars.	585415	1471951270298	1471951270430	 	32
1195	12222	Go for the dollars.	GO for the dollars.	585416	1471951270351	1471951270487	t	84
1195	12222	Go for the dollars.	GO for the dollars.	585425	1471951270405	1471951270543	h	72
1195	12222	Go for the dollars.	GO for the dollars.	585423	1471951270442	1471951270530	e	69
1195	12222	Go for the dollars.	GO for the dollars.	585427	1471951270536	1471951270641	 	32
1195	12222	Go for the dollars.	GO for the dollars.	585429	1471951270601	1471951270723	d	68
1195	12222	Go for the dollars.	GO for the dollars.	585431	1471951270629	1471951270731	o	79
1195	12222	Go for the dollars.	GO for the dollars.	585432	1471951270794	1471951270857	l	76
1195	12222	Go for the dollars.	GO for the dollars.	585433	1471951270929	1471951271029	l	76
1195	12222	Go for the dollars.	GO for the dollars.	585434	1471951271008	1471951271091	a	65
1195	12222	Go for the dollars.	GO for the dollars.	585435	1471951271067	1471951271203	r	82
1195	12222	Go for the dollars.	GO for the dollars.	585436	1471951271124	1471951271245	s	83
1195	12222	Go for the dollars.	GO for the dollars.	585437	1471951271190	1471951271285	.	190
1195	12224	Reserve Heap on your roster this week.	Reserve Heap on your roster this week.	585522	1471951274297	1471951274531	SHIFT	16
1195	12224	Reserve Heap on your roster this week.	Reserve Heap on your roster this week.	585524	1471951274440	1471951274568	R	82
1195	12224	Reserve Heap on your roster this week.	Reserve Heap on your roster this week.	585527	1471951274619	1471951274722	e	69
1195	12224	Reserve Heap on your roster this week.	Reserve Heap on your roster this week.	585531	1471951274793	1471951274909	s	83
1195	12224	Reserve Heap on your roster this week.	Reserve Heap on your roster this week.	585533	1471951274856	1471951274977	e	69
1195	12224	Reserve Heap on your roster this week.	Reserve Heap on your roster this week.	585534	1471951274924	1471951275023	r	82
1195	12224	Reserve Heap on your roster this week.	Reserve Heap on your roster this week.	585536	1471951275117	1471951275211	v	86
1195	12224	Reserve Heap on your roster this week.	Reserve Heap on your roster this week.	585538	1471951275176	1471951275288	e	69
1195	12224	Reserve Heap on your roster this week.	Reserve Heap on your roster this week.	585539	1471951275264	1471951275405	 	32
1195	12224	Reserve Heap on your roster this week.	Reserve Heap on your roster this week.	585540	1471951275367	1471951275499	SHIFT	16
1195	12224	Reserve Heap on your roster this week.	Reserve Heap on your roster this week.	585541	1471951275419	1471951275560	H	72
1195	12224	Reserve Heap on your roster this week.	Reserve Heap on your roster this week.	585544	1471951275543	1471951275684	e	69
1195	12224	Reserve Heap on your roster this week.	Reserve Heap on your roster this week.	585545	1471951275609	1471951275751	a	65
1195	12224	Reserve Heap on your roster this week.	Reserve Heap on your roster this week.	585546	1471951275721	1471951275813	p	80
1195	12224	Reserve Heap on your roster this week.	Reserve Heap on your roster this week.	585547	1471951275805	1471951275918	 	32
1195	12224	Reserve Heap on your roster this week.	Reserve Heap on your roster this week.	585548	1471951275903	1471951276030	o	79
1195	12224	Reserve Heap on your roster this week.	Reserve Heap on your roster this week.	585553	1471951275960	1471951276084	n	78
1195	12224	Reserve Heap on your roster this week.	Reserve Heap on your roster this week.	585555	1471951276003	1471951276147	 	32
1195	12224	Reserve Heap on your roster this week.	Reserve Heap on your roster this week.	585558	1471951276080	1471951276195	y	89
1195	12224	Reserve Heap on your roster this week.	Reserve Heap on your roster this week.	585561	1471951276152	1471951276317	o	79
1195	12224	Reserve Heap on your roster this week.	Reserve Heap on your roster this week.	585574	1471951276208	1471951276349	u	85
1195	12224	Reserve Heap on your roster this week.	Reserve Heap on your roster this week.	585563	1471951276250	1471951276343	r	82
1195	12224	Reserve Heap on your roster this week.	Reserve Heap on your roster this week.	585576	1471951276328	1471951276504	 	32
1195	12224	Reserve Heap on your roster this week.	Reserve Heap on your roster this week.	585579	1471951276458	1471951276552	r	82
1195	12224	Reserve Heap on your roster this week.	Reserve Heap on your roster this week.	585582	1471951276519	1471951276647	o	79
1195	12224	Reserve Heap on your roster this week.	Reserve Heap on your roster this week.	585587	1471951276675	1471951276822	s	83
1195	12224	Reserve Heap on your roster this week.	Reserve Heap on your roster this week.	585592	1471951276798	1471951276895	t	84
1195	12224	Reserve Heap on your roster this week.	Reserve Heap on your roster this week.	585595	1471951276951	1471951277102	e	69
1195	12224	Reserve Heap on your roster this week.	Reserve Heap on your roster this week.	585593	1471951277023	1471951277105	r	82
1195	12224	Reserve Heap on your roster this week.	Reserve Heap on your roster this week.	585597	1471951277085	1471951277264	 	32
1195	12224	Reserve Heap on your roster this week.	Reserve Heap on your roster this week.	585599	1471951277197	1471951277321	t	84
1195	12224	Reserve Heap on your roster this week.	Reserve Heap on your roster this week.	585600	1471951277230	1471951277362	h	72
1195	12224	Reserve Heap on your roster this week.	Reserve Heap on your roster this week.	585601	1471951277299	1471951277430	i	73
1195	12224	Reserve Heap on your roster this week.	Reserve Heap on your roster this week.	585607	1471951277353	1471951277442	s	83
1195	12224	Reserve Heap on your roster this week.	Reserve Heap on your roster this week.	585608	1471951277422	1471951277579	 	32
1195	12224	Reserve Heap on your roster this week.	Reserve Heap on your roster this week.	585609	1471951277523	1471951277634	w	87
1195	12224	Reserve Heap on your roster this week.	Reserve Heap on your roster this week.	585610	1471951277591	1471951277699	e	69
1195	12224	Reserve Heap on your roster this week.	Reserve Heap on your roster this week.	585611	1471951277780	1471951277893	e	69
1195	12224	Reserve Heap on your roster this week.	Reserve Heap on your roster this week.	585612	1471951277957	1471951278052	k	75
1195	12226	He was in great shape last night.	HE was in great shape last night.	585718	1471951278123	1471951283291	.	190
1195	12226	He was in great shape last night.	HE was in great shape last night.	585655	1471951280457	1471951280647	SHIFT	16
1195	12226	He was in great shape last night.	HE was in great shape last night.	585657	1471951280563	1471951280704	H	72
1195	12226	He was in great shape last night.	HE was in great shape last night.	585659	1471951280633	1471951280748	E	69
1195	12226	He was in great shape last night.	HE was in great shape last night.	585661	1471951280751	1471951280920	 	32
1195	12226	He was in great shape last night.	HE was in great shape last night.	585663	1471951280841	1471951280943	w	87
1195	12226	He was in great shape last night.	HE was in great shape last night.	585664	1471951280912	1471951281049	a	65
1195	12226	He was in great shape last night.	HE was in great shape last night.	585665	1471951280995	1471951281117	s	83
1195	12226	He was in great shape last night.	HE was in great shape last night.	585666	1471951281074	1471951281176	 	32
1195	12226	He was in great shape last night.	HE was in great shape last night.	585667	1471951281133	1471951281302	i	73
1195	12226	He was in great shape last night.	HE was in great shape last night.	585672	1471951281200	1471951281355	n	78
1195	12226	He was in great shape last night.	HE was in great shape last night.	585678	1471951281252	1471951281385	 	32
1195	12226	He was in great shape last night.	HE was in great shape last night.	585674	1471951281286	1471951281369	g	71
1195	12226	He was in great shape last night.	HE was in great shape last night.	585680	1471951281455	1471951281581	r	82
1195	12226	He was in great shape last night.	HE was in great shape last night.	585681	1471951281527	1471951281707	e	69
1195	12226	He was in great shape last night.	HE was in great shape last night.	585682	1471951281671	1471951281834	a	65
1195	12226	He was in great shape last night.	HE was in great shape last night.	585683	1471951281762	1471951281892	t	84
1195	12226	He was in great shape last night.	HE was in great shape last night.	585684	1471951281868	1471951282041	 	32
1195	12226	He was in great shape last night.	HE was in great shape last night.	585685	1471951281953	1471951282056	s	83
1195	12226	He was in great shape last night.	HE was in great shape last night.	585686	1471951282043	1471951282145	h	72
1195	12226	He was in great shape last night.	HE was in great shape last night.	585687	1471951282136	1471951282248	a	65
1195	12226	He was in great shape last night.	HE was in great shape last night.	585688	1471951282228	1471951282364	p	80
1195	12226	He was in great shape last night.	HE was in great shape last night.	585693	1471951282282	1471951282404	e	69
1195	12226	He was in great shape last night.	HE was in great shape last night.	585695	1471951282356	1471951282479	 	32
1195	12226	He was in great shape last night.	HE was in great shape last night.	585698	1471951282494	1471951282634	l	76
1195	12226	He was in great shape last night.	HE was in great shape last night.	585702	1471951282552	1471951282705	a	65
1195	12226	He was in great shape last night.	HE was in great shape last night.	585705	1471951282605	1471951282775	s	83
1195	12226	He was in great shape last night.	HE was in great shape last night.	585709	1471951282673	1471951282811	t	84
1195	12226	He was in great shape last night.	HE was in great shape last night.	585711	1471951282761	1471951282869	 	32
1195	12226	He was in great shape last night.	HE was in great shape last night.	585713	1471951282815	1471951282937	n	78
1195	12226	He was in great shape last night.	HE was in great shape last night.	585714	1471951282873	1471951282976	i	73
1195	12226	He was in great shape last night.	HE was in great shape last night.	585715	1471951282948	1471951283027	g	71
1195	12226	He was in great shape last night.	HE was in great shape last night.	585716	1471951283032	1471951283100	h	72
1195	12226	He was in great shape last night.	HE was in great shape last night.	585717	1471951283094	1471951283201	t	84
1195	12229	Please look over and let me know.	Please look over and let me know.	585755	1471951284771	1471951284956	SHIFT	16
1195	12229	Please look over and let me know.	Please look over and let me know.	585757	1471951284858	1471951285029	P	80
1195	12229	Please look over and let me know.	Please look over and let me know.	585759	1471951284973	1471951285113	l	76
1195	12229	Please look over and let me know.	Please look over and let me know.	585761	1471951285142	1471951285257	e	69
1195	12229	Please look over and let me know.	Please look over and let me know.	585762	1471951285269	1471951285385	a	65
1195	12229	Please look over and let me know.	Please look over and let me know.	585769	1471951285341	1471951285494	s	83
1195	12229	Please look over and let me know.	Please look over and let me know.	585770	1471951285430	1471951285543	e	69
1195	12229	Please look over and let me know.	Please look over and let me know.	585771	1471951285499	1471951285641	 	32
1195	12229	Please look over and let me know.	Please look over and let me know.	585772	1471951285578	1471951285648	l	76
1195	12229	Please look over and let me know.	Please look over and let me know.	585773	1471951285739	1471951285803	o	79
1195	12229	Please look over and let me know.	Please look over and let me know.	585774	1471951285886	1471951286041	o	79
1195	12229	Please look over and let me know.	Please look over and let me know.	585783	1471951285975	1471951286098	k	75
1195	12229	Please look over and let me know.	Please look over and let me know.	585785	1471951286053	1471951286185	 	32
1195	12229	Please look over and let me know.	Please look over and let me know.	585792	1471951286132	1471951286278	o	79
1195	12229	Please look over and let me know.	Please look over and let me know.	585788	1471951286195	1471951286271	v	86
1195	12229	Please look over and let me know.	Please look over and let me know.	585794	1471951286337	1471951286493	e	69
1195	12229	Please look over and let me know.	Please look over and let me know.	585797	1471951286420	1471951286551	r	82
1195	12229	Please look over and let me know.	Please look over and let me know.	585798	1471951286507	1471951286625	 	32
1195	12229	Please look over and let me know.	Please look over and let me know.	585800	1471951286635	1471951286742	a	65
1195	12229	Please look over and let me know.	Please look over and let me know.	585802	1471951286711	1471951286823	n	78
1195	12229	Please look over and let me know.	Please look over and let me know.	585804	1471951286786	1471951286912	d	68
1195	12229	Please look over and let me know.	Please look over and let me know.	585811	1471951286856	1471951286976	 	32
1195	12229	Please look over and let me know.	Please look over and let me know.	585813	1471951286900	1471951287048	l	76
1195	12229	Please look over and let me know.	Please look over and let me know.	585814	1471951287000	1471951287137	e	69
1195	12229	Please look over and let me know.	Please look over and let me know.	585816	1471951287058	1471951287185	t	84
1195	12229	Please look over and let me know.	Please look over and let me know.	585817	1471951287102	1471951287248	 	32
1195	12229	Please look over and let me know.	Please look over and let me know.	585819	1471951287170	1471951287307	m	77
1195	12229	Please look over and let me know.	Please look over and let me know.	585824	1471951287262	1471951287392	e	69
1195	12229	Please look over and let me know.	Please look over and let me know.	585826	1471951287349	1471951287480	 	32
1195	12229	Please look over and let me know.	Please look over and let me know.	585825	1471951287398	1471951287466	k	75
1195	12229	Please look over and let me know.	Please look over and let me know.	585828	1471951287442	1471951287577	n	78
1195	12229	Please look over and let me know.	Please look over and let me know.	585830	1471951287543	1471951287636	o	79
1195	12229	Please look over and let me know.	Please look over and let me know.	585832	1471951287607	1471951287719	w	87
1195	12229	Please look over and let me know.	Please look over and let me know.	585834	1471951287707	1471951287805	.	190
1195	12231	I'll give it to you tomorrow.	I'll give it to you tomorrow	585875	1471951289101	1471951289329	SHIFT	16
1195	12231	I'll give it to you tomorrow.	I'll give it to you tomorrow	585874	1471951289205	1471951289289	I	73
1195	12231	I'll give it to you tomorrow.	I'll give it to you tomorrow	585876	1471951289435	1471951289529	'	222
1195	12231	I'll give it to you tomorrow.	I'll give it to you tomorrow	585877	1471951289619	1471951289703	l	76
1195	12231	I'll give it to you tomorrow.	I'll give it to you tomorrow	585878	1471951289774	1471951289842	l	76
1195	12231	I'll give it to you tomorrow.	I'll give it to you tomorrow	585886	1471951289834	1471951289994	 	32
1195	12231	I'll give it to you tomorrow.	I'll give it to you tomorrow	585889	1471951289911	1471951290007	g	71
1195	12231	I'll give it to you tomorrow.	I'll give it to you tomorrow	585893	1471951289966	1471951290059	u	73
1195	12231	I'll give it to you tomorrow.	I'll give it to you tomorrow	585897	1471951290070	1471951290177	v	86
1195	12231	I'll give it to you tomorrow.	I'll give it to you tomorrow	585933	1471951290122	1471951290260	e	69
1195	12231	I'll give it to you tomorrow.	I'll give it to you tomorrow	585935	1471951290478	1471951290552	BKSP	8
1195	12231	I'll give it to you tomorrow.	I'll give it to you tomorrow	585936	1471951290623	1471951290688	BKSP	8
1195	12231	I'll give it to you tomorrow.	I'll give it to you tomorrow	585938	1471951290779	1471951290852	BKSP	8
1195	12231	I'll give it to you tomorrow.	I'll give it to you tomorrow	585940	1471951290935	1471951290990	i	73
1195	12231	I'll give it to you tomorrow.	I'll give it to you tomorrow	585943	1471951291030	1471951291115	v	86
1195	12231	I'll give it to you tomorrow.	I'll give it to you tomorrow	585946	1471951291137	1471951291221	BKSP	8
1195	12231	I'll give it to you tomorrow.	I'll give it to you tomorrow	585949	1471951291292	1471951291366	BKSP	8
1195	12231	I'll give it to you tomorrow.	I'll give it to you tomorrow	585952	1471951291506	1471951291632	v	86
1195	12231	I'll give it to you tomorrow.	I'll give it to you tomorrow	585956	1471951291577	1471951291728	e	69
1195	12231	I'll give it to you tomorrow.	I'll give it to you tomorrow	585955	1471951291695	1471951291836	 	32
1195	12231	I'll give it to you tomorrow.	I'll give it to you tomorrow	585957	1471951291773	1471951291894	i	73
1195	12231	I'll give it to you tomorrow.	I'll give it to you tomorrow	585959	1471951291858	1471951291970	t	84
1195	12231	I'll give it to you tomorrow.	I'll give it to you tomorrow	585961	1471951291945	1471951292087	 	32
1195	12231	I'll give it to you tomorrow.	I'll give it to you tomorrow	585963	1471951292042	1471951292154	t	84
1195	12231	I'll give it to you tomorrow.	I'll give it to you tomorrow	585965	1471951292112	1471951292204	o	79
1195	12231	I'll give it to you tomorrow.	I'll give it to you tomorrow	585967	1471951292188	1471951292309	 	32
1195	12231	I'll give it to you tomorrow.	I'll give it to you tomorrow	585969	1471951292255	1471951292381	y	89
1195	12231	I'll give it to you tomorrow.	I'll give it to you tomorrow	585972	1471951292315	1471951292438	o	79
1195	12231	I'll give it to you tomorrow.	I'll give it to you tomorrow	585984	1471951292375	1471951292462	u	85
1195	12231	I'll give it to you tomorrow.	I'll give it to you tomorrow	585985	1471951292430	1471951292536	 	32
1195	12231	I'll give it to you tomorrow.	I'll give it to you tomorrow	585986	1471951292596	1471951292692	t	84
1195	12231	I'll give it to you tomorrow.	I'll give it to you tomorrow	585987	1471951292641	1471951292733	o	79
1195	12231	I'll give it to you tomorrow.	I'll give it to you tomorrow	585988	1471951292707	1471951292877	m	77
1195	12231	I'll give it to you tomorrow.	I'll give it to you tomorrow	585990	1471951292815	1471951292965	o	79
1195	12231	I'll give it to you tomorrow.	I'll give it to you tomorrow	585997	1471951292889	1471951292978	r	82
1195	12231	I'll give it to you tomorrow.	I'll give it to you tomorrow	585998	1471951293030	1471951293135	r	82
1195	12231	I'll give it to you tomorrow.	I'll give it to you tomorrow	586000	1471951293094	1471951293192	o	79
1195	12234	Parking at the walk site will be free.	Parking at the walk site will be free.	586119	1471951293202	1471951297093	w	87
1195	12234	Parking at the walk site will be free.	Parking at the walk site will be free.	586062	1471951294926	1471951295794	SHIFT	16
1195	12234	Parking at the walk site will be free.	Parking at the walk site will be free.	586064	1471951295648	1471951295815	P	80
1195	12234	Parking at the walk site will be free.	Parking at the walk site will be free.	586066	1471951295852	1471951295983	a	65
1195	12234	Parking at the walk site will be free.	Parking at the walk site will be free.	586071	1471951295925	1471951296057	r	82
1195	12234	Parking at the walk site will be free.	Parking at the walk site will be free.	586077	1471951295971	1471951296065	k	75
1195	12234	Parking at the walk site will be free.	Parking at the walk site will be free.	586079	1471951296107	1471951296309	i	73
1195	12234	Parking at the walk site will be free.	Parking at the walk site will be free.	586085	1471951296169	1471951296343	n	78
1195	12234	Parking at the walk site will be free.	Parking at the walk site will be free.	586088	1471951296230	1471951296356	g	71
1195	12234	Parking at the walk site will be free.	Parking at the walk site will be free.	586090	1471951296302	1471951296445	 	32
1195	12234	Parking at the walk site will be free.	Parking at the walk site will be free.	586094	1471951296369	1471951296539	a	65
1195	12234	Parking at the walk site will be free.	Parking at the walk site will be free.	586098	1471951296476	1471951296598	t	84
1195	12234	Parking at the walk site will be free.	Parking at the walk site will be free.	586101	1471951296564	1471951296728	 	32
1195	12234	Parking at the walk site will be free.	Parking at the walk site will be free.	586109	1471951296660	1471951296816	t	84
1195	12234	Parking at the walk site will be free.	Parking at the walk site will be free.	586113	1471951296713	1471951296850	h	72
1195	12234	Parking at the walk site will be free.	Parking at the walk site will be free.	586116	1471951296789	1471951296888	e	69
1195	12234	Parking at the walk site will be free.	Parking at the walk site will be free.	586118	1471951296872	1471951297047	 	32
1195	12234	Parking at the walk site will be free.	Parking at the walk site will be free.	586121	1471951297039	1471951297150	a	65
1195	12234	Parking at the walk site will be free.	Parking at the walk site will be free.	586125	1471951297062	1471951297218	l	76
1195	12234	Parking at the walk site will be free.	Parking at the walk site will be free.	586126	1471951297119	1471951297256	k	75
1195	12234	Parking at the walk site will be free.	Parking at the walk site will be free.	586127	1471951297239	1471951297413	 	32
1195	12234	Parking at the walk site will be free.	Parking at the walk site will be free.	586128	1471951297324	1471951297445	s	83
1195	12234	Parking at the walk site will be free.	Parking at the walk site will be free.	586129	1471951297389	1471951297549	i	73
1195	12234	Parking at the walk site will be free.	Parking at the walk site will be free.	586155	1471951297480	1471951297623	t	84
1195	12234	Parking at the walk site will be free.	Parking at the walk site will be free.	586157	1471951297541	1471951297658	e	69
1195	12234	Parking at the walk site will be free.	Parking at the walk site will be free.	586160	1471951297625	1471951297800	 	32
1195	12234	Parking at the walk site will be free.	Parking at the walk site will be free.	586163	1471951297691	1471951297813	w	87
1195	12234	Parking at the walk site will be free.	Parking at the walk site will be free.	586167	1471951297775	1471951297922	i	73
1195	12234	Parking at the walk site will be free.	Parking at the walk site will be free.	586170	1471951297868	1471951297947	l	76
1195	12234	Parking at the walk site will be free.	Parking at the walk site will be free.	586172	1471951298049	1471951298199	l	76
1195	12234	Parking at the walk site will be free.	Parking at the walk site will be free.	586204	1471951298513	1471951299465	BKSP	8
1195	12234	Parking at the walk site will be free.	Parking at the walk site will be free.	586205	1471951299761	1471951299917	 	32
1195	12234	Parking at the walk site will be free.	Parking at the walk site will be free.	586206	1471951299861	1471951299996	w	87
1195	12234	Parking at the walk site will be free.	Parking at the walk site will be free.	586207	1471951299927	1471951300073	l	65
1195	12234	Parking at the walk site will be free.	Parking at the walk site will be free.	586219	1471951300032	1471951300142	k	75
1195	12234	Parking at the walk site will be free.	Parking at the walk site will be free.	586222	1471951300132	1471951300270	 	32
1195	12234	Parking at the walk site will be free.	Parking at the walk site will be free.	586224	1471951300311	1471951300427	s	83
1195	12234	Parking at the walk site will be free.	Parking at the walk site will be free.	586227	1471951300395	1471951300560	i	73
1195	12234	Parking at the walk site will be free.	Parking at the walk site will be free.	586232	1471951300481	1471951300602	t	84
1195	12234	Parking at the walk site will be free.	Parking at the walk site will be free.	586234	1471951300533	1471951300669	e	69
1195	12234	Parking at the walk site will be free.	Parking at the walk site will be free.	586236	1471951300625	1471951300767	 	32
1195	12234	Parking at the walk site will be free.	Parking at the walk site will be free.	586239	1471951300750	1471951300858	w	87
1195	12234	Parking at the walk site will be free.	Parking at the walk site will be free.	586242	1471951300864	1471951301003	i	73
1195	12234	Parking at the walk site will be free.	Parking at the walk site will be free.	586244	1471951300937	1471951301007	l	76
1195	12234	Parking at the walk site will be free.	Parking at the walk site will be free.	586245	1471951301088	1471951301237	l	76
1195	12234	Parking at the walk site will be free.	Parking at the walk site will be free.	586248	1471951301139	1471951301303	 	32
1195	12234	Parking at the walk site will be free.	Parking at the walk site will be free.	586250	1471951301210	1471951301337	b	66
1195	12234	Parking at the walk site will be free.	Parking at the walk site will be free.	586252	1471951301277	1471951301361	e	69
1195	12234	Parking at the walk site will be free.	Parking at the walk site will be free.	586256	1471951301375	1471951301527	 	32
1195	12234	Parking at the walk site will be free.	Parking at the walk site will be free.	586254	1471951301468	1471951301523	f	70
1195	12234	Parking at the walk site will be free.	Parking at the walk site will be free.	586257	1471951301597	1471951301706	r	82
1195	12234	Parking at the walk site will be free.	Parking at the walk site will be free.	586258	1471951301671	1471951301749	e	69
1195	12234	Parking at the walk site will be free.	Parking at the walk site will be free.	586260	1471951301823	1471951301919	e	69
1195	12240	They are more efficiently pooled.	They are most efficiently pooled.	586455	1471951301898	1471951309396	.	190
1195	12240	They are more efficiently pooled.	They are most efficiently pooled.	586296	1471951303642	1471951303813	SHIFT	16
1195	12240	They are more efficiently pooled.	They are most efficiently pooled.	586297	1471951303738	1471951303860	T	84
1195	12240	They are more efficiently pooled.	They are most efficiently pooled.	586298	1471951303782	1471951303919	H	72
1195	12240	They are more efficiently pooled.	They are most efficiently pooled.	586299	1471951303903	1471951304020	e	69
1195	12240	They are more efficiently pooled.	They are most efficiently pooled.	586300	1471951304054	1471951304156	y	89
1195	12240	They are more efficiently pooled.	They are most efficiently pooled.	586301	1471951304170	1471951304319	 	32
1195	12240	They are more efficiently pooled.	They are most efficiently pooled.	586332	1471951304239	1471951304385	a	65
1195	12240	They are more efficiently pooled.	They are most efficiently pooled.	586336	1471951304303	1471951304450	r	82
1195	12240	They are more efficiently pooled.	They are most efficiently pooled.	586339	1471951304371	1471951304507	e	69
1195	12240	They are more efficiently pooled.	They are most efficiently pooled.	586346	1471951304493	1471951304552	 	32
1195	12240	They are more efficiently pooled.	They are most efficiently pooled.	586349	1471951304703	1471951304775	BKSP	8
1195	12240	They are more efficiently pooled.	They are most efficiently pooled.	586356	1471951304857	1471951304940	BKSP	8
1195	12240	They are more efficiently pooled.	They are most efficiently pooled.	586362	1471951305002	1471951305615	BKSP	8
1195	12240	They are more efficiently pooled.	They are most efficiently pooled.	586368	1471951305715	1471951305810	BKSP	8
1195	12240	They are more efficiently pooled.	They are most efficiently pooled.	586371	1471951305910	1471951305994	BKSP	8
1195	12240	They are more efficiently pooled.	They are most efficiently pooled.	586373	1471951306195	1471951306259	h	72
1195	12240	They are more efficiently pooled.	They are most efficiently pooled.	586375	1471951306289	1471951306425	e	69
1195	12240	They are more efficiently pooled.	They are most efficiently pooled.	586355	1471951306353	1471951306475	y	89
1195	12240	They are more efficiently pooled.	They are most efficiently pooled.	586359	1471951306440	1471951306591	 	32
1195	12240	They are more efficiently pooled.	They are most efficiently pooled.	586365	1471951306534	1471951306689	a	65
1195	12240	They are more efficiently pooled.	They are most efficiently pooled.	586369	1471951306614	1471951306748	r	82
1195	12240	They are more efficiently pooled.	They are most efficiently pooled.	586374	1471951306675	1471951306806	e	69
1195	12240	They are more efficiently pooled.	They are most efficiently pooled.	586376	1471951306734	1471951306874	 	32
1195	12240	They are more efficiently pooled.	They are most efficiently pooled.	586377	1471951306794	1471951306923	m	77
1195	12240	They are more efficiently pooled.	They are most efficiently pooled.	586379	1471951306861	1471951307030	o	79
1195	12240	They are more efficiently pooled.	They are most efficiently pooled.	586378	1471951306895	1471951307017	s	83
1195	12240	They are more efficiently pooled.	They are most efficiently pooled.	586381	1471951306954	1471951307081	t	84
1195	12240	They are more efficiently pooled.	They are most efficiently pooled.	586383	1471951307023	1471951307150	 	32
1195	12240	They are more efficiently pooled.	They are most efficiently pooled.	586386	1471951307094	1471951307226	e	69
1195	12240	They are more efficiently pooled.	They are most efficiently pooled.	586389	1471951307202	1471951307290	f	70
1195	12240	They are more efficiently pooled.	They are most efficiently pooled.	586392	1471951307343	1471951307436	f	70
1195	12240	They are more efficiently pooled.	They are most efficiently pooled.	586394	1471951307441	1471951307548	i	73
1195	12240	They are more efficiently pooled.	They are most efficiently pooled.	586412	1471951307531	1471951307629	c	67
1195	12240	They are more efficiently pooled.	They are most efficiently pooled.	586415	1471951307634	1471951307751	i	73
1195	12240	They are more efficiently pooled.	They are most efficiently pooled.	586419	1471951307733	1471951307822	e	69
1195	12240	They are more efficiently pooled.	They are most efficiently pooled.	586422	1471951307827	1471951307949	n	78
1195	12240	They are more efficiently pooled.	They are most efficiently pooled.	586424	1471951308010	1471951308132	t	84
1195	12240	They are more efficiently pooled.	They are most efficiently pooled.	586426	1471951308148	1471951308265	l	76
1195	12240	They are more efficiently pooled.	They are most efficiently pooled.	586437	1471951308248	1471951308346	y	89
1195	12240	They are more efficiently pooled.	They are most efficiently pooled.	586440	1471951308497	1471951308604	 	32
1195	12240	They are more efficiently pooled.	They are most efficiently pooled.	586442	1471951308572	1471951308713	p	80
1195	12240	They are more efficiently pooled.	They are most efficiently pooled.	586445	1471951308667	1471951308776	o	79
1195	12240	They are more efficiently pooled.	They are most efficiently pooled.	586447	1471951308828	1471951308921	o	79
1195	12240	They are more efficiently pooled.	They are most efficiently pooled.	586449	1471951308993	1471951309099	l	76
1195	12240	They are more efficiently pooled.	They are most efficiently pooled.	586452	1471951309093	1471951309190	e	69
1195	12240	They are more efficiently pooled.	They are most efficiently pooled.	586454	1471951309262	1471951309370	d	68
1195	12246	I will add this to the folder and let you know when we get into it.	I will add this to the folder and let you know when we get into it.	586487	1471951310974	1471951311232	SHIFT	16
1195	12246	I will add this to the folder and let you know when we get into it.	I will add this to the folder and let you know when we get into it.	586486	1471951311079	1471951311202	I	73
1195	12246	I will add this to the folder and let you know when we get into it.	I will add this to the folder and let you know when we get into it.	586488	1471951311287	1471951311447	 	32
1195	12246	I will add this to the folder and let you know when we get into it.	I will add this to the folder and let you know when we get into it.	586490	1471951311368	1471951311479	w	87
1195	12246	I will add this to the folder and let you know when we get into it.	I will add this to the folder and let you know when we get into it.	586492	1471951311433	1471951311570	i	73
1195	12246	I will add this to the folder and let you know when we get into it.	I will add this to the folder and let you know when we get into it.	586498	1471951311516	1471951311594	l	76
1195	12246	I will add this to the folder and let you know when we get into it.	I will add this to the folder and let you know when we get into it.	586499	1471951311675	1471951311807	l	76
1195	12246	I will add this to the folder and let you know when we get into it.	I will add this to the folder and let you know when we get into it.	586500	1471951311727	1471951311878	 	32
1195	12246	I will add this to the folder and let you know when we get into it.	I will add this to the folder and let you know when we get into it.	586501	1471951311795	1471951311924	a	65
1195	12246	I will add this to the folder and let you know when we get into it.	I will add this to the folder and let you know when we get into it.	586502	1471951311890	1471951311970	d	68
1195	12246	I will add this to the folder and let you know when we get into it.	I will add this to the folder and let you know when we get into it.	586503	1471951312041	1471951312138	d	68
1195	12246	I will add this to the folder and let you know when we get into it.	I will add this to the folder and let you know when we get into it.	586504	1471951312104	1471951312258	 	32
1195	12246	I will add this to the folder and let you know when we get into it.	I will add this to the folder and let you know when we get into it.	586506	1471951312190	1471951312322	t	84
1195	12246	I will add this to the folder and let you know when we get into it.	I will add this to the folder and let you know when we get into it.	586508	1471951312260	1471951312404	h	72
1195	12246	I will add this to the folder and let you know when we get into it.	I will add this to the folder and let you know when we get into it.	586510	1471951312327	1471951312443	i	73
1195	12246	I will add this to the folder and let you know when we get into it.	I will add this to the folder and let you know when we get into it.	586514	1471951312367	1471951312465	s	83
1195	12246	I will add this to the folder and let you know when we get into it.	I will add this to the folder and let you know when we get into it.	586516	1471951312425	1471951312595	 	32
1195	12246	I will add this to the folder and let you know when we get into it.	I will add this to the folder and let you know when we get into it.	586518	1471951312539	1471951312642	t	84
1195	12246	I will add this to the folder and let you know when we get into it.	I will add this to the folder and let you know when we get into it.	586520	1471951312574	1471951312702	o	79
1195	12246	I will add this to the folder and let you know when we get into it.	I will add this to the folder and let you know when we get into it.	586521	1471951312666	1471951312811	 	32
1195	12246	I will add this to the folder and let you know when we get into it.	I will add this to the folder and let you know when we get into it.	586523	1471951312722	1471951312859	t	84
1195	12246	I will add this to the folder and let you know when we get into it.	I will add this to the folder and let you know when we get into it.	586524	1471951312766	1471951312896	h	72
1195	12246	I will add this to the folder and let you know when we get into it.	I will add this to the folder and let you know when we get into it.	586525	1471951312833	1471951312941	e	69
1195	12246	I will add this to the folder and let you know when we get into it.	I will add this to the folder and let you know when we get into it.	586526	1471951312908	1471951313044	 	32
1195	12246	I will add this to the folder and let you know when we get into it.	I will add this to the folder and let you know when we get into it.	586528	1471951312975	1471951313102	f	70
1195	12246	I will add this to the folder and let you know when we get into it.	I will add this to the folder and let you know when we get into it.	586527	1471951313010	1471951313089	o	79
1195	12246	I will add this to the folder and let you know when we get into it.	I will add this to the folder and let you know when we get into it.	586535	1471951313156	1471951313307	l	76
1195	12246	I will add this to the folder and let you know when we get into it.	I will add this to the folder and let you know when we get into it.	586529	1471951313216	1471951313289	d	68
1195	12246	I will add this to the folder and let you know when we get into it.	I will add this to the folder and let you know when we get into it.	586536	1471951313386	1471951313503	e	69
1195	12246	I will add this to the folder and let you know when we get into it.	I will add this to the folder and let you know when we get into it.	586537	1471951313439	1471951313551	r	82
1195	12246	I will add this to the folder and let you know when we get into it.	I will add this to the folder and let you know when we get into it.	586538	1471951313505	1471951313620	 	32
1195	12246	I will add this to the folder and let you know when we get into it.	I will add this to the folder and let you know when we get into it.	586539	1471951313572	1471951313703	a	65
1195	12246	I will add this to the folder and let you know when we get into it.	I will add this to the folder and let you know when we get into it.	586540	1471951313642	1471951313764	n	78
1195	12246	I will add this to the folder and let you know when we get into it.	I will add this to the folder and let you know when we get into it.	586541	1471951313708	1471951313802	d	68
1195	12246	I will add this to the folder and let you know when we get into it.	I will add this to the folder and let you know when we get into it.	586542	1471951313777	1471951313922	 	32
1195	12246	I will add this to the folder and let you know when we get into it.	I will add this to the folder and let you know when we get into it.	586543	1471951313836	1471951313972	l	76
1195	12246	I will add this to the folder and let you know when we get into it.	I will add this to the folder and let you know when we get into it.	586549	1471951313897	1471951314032	e	69
1195	12246	I will add this to the folder and let you know when we get into it.	I will add this to the folder and let you know when we get into it.	586552	1471951313963	1471951314052	t	84
1195	12246	I will add this to the folder and let you know when we get into it.	I will add this to the folder and let you know when we get into it.	586554	1471951314037	1471951314188	 	32
1195	12246	I will add this to the folder and let you know when we get into it.	I will add this to the folder and let you know when we get into it.	586557	1471951314143	1471951314265	y	89
1195	12246	I will add this to the folder and let you know when we get into it.	I will add this to the folder and let you know when we get into it.	586560	1471951314193	1471951314340	o	79
1195	12246	I will add this to the folder and let you know when we get into it.	I will add this to the folder and let you know when we get into it.	586568	1471951314279	1471951314372	u	85
1195	12246	I will add this to the folder and let you know when we get into it.	I will add this to the folder and let you know when we get into it.	586571	1471951314331	1471951314468	 	32
1195	12246	I will add this to the folder and let you know when we get into it.	I will add this to the folder and let you know when we get into it.	586574	1471951314453	1471951314529	k	75
1195	12246	I will add this to the folder and let you know when we get into it.	I will add this to the folder and let you know when we get into it.	586577	1471951314501	1471951314676	n	78
1195	12246	I will add this to the folder and let you know when we get into it.	I will add this to the folder and let you know when we get into it.	586579	1471951314608	1471951314775	o	79
1195	12246	I will add this to the folder and let you know when we get into it.	I will add this to the folder and let you know when we get into it.	586590	1471951314667	1471951314784	w	87
1195	12246	I will add this to the folder and let you know when we get into it.	I will add this to the folder and let you know when we get into it.	586593	1471951314765	1471951314892	 	32
1195	12246	I will add this to the folder and let you know when we get into it.	I will add this to the folder and let you know when we get into it.	586594	1471951314856	1471951314939	w	87
1195	12246	I will add this to the folder and let you know when we get into it.	I will add this to the folder and let you know when we get into it.	586595	1471951314916	1471951315047	h	72
1195	12246	I will add this to the folder and let you know when we get into it.	I will add this to the folder and let you know when we get into it.	586596	1471951315030	1471951315142	e	69
1195	12246	I will add this to the folder and let you know when we get into it.	I will add this to the folder and let you know when we get into it.	586597	1471951315109	1471951315241	n	78
1195	12246	I will add this to the folder and let you know when we get into it.	I will add this to the folder and let you know when we get into it.	586600	1471951315196	1471951315333	 	32
1195	12246	I will add this to the folder and let you know when we get into it.	I will add this to the folder and let you know when we get into it.	586603	1471951315251	1471951315358	w	87
1195	12246	I will add this to the folder and let you know when we get into it.	I will add this to the folder and let you know when we get into it.	586605	1471951315316	1471951315414	e	69
1195	12246	I will add this to the folder and let you know when we get into it.	I will add this to the folder and let you know when we get into it.	586611	1471951315399	1471951315536	 	32
1195	12246	I will add this to the folder and let you know when we get into it.	I will add this to the folder and let you know when we get into it.	586608	1471951315486	1471951315532	g	71
1195	12246	I will add this to the folder and let you know when we get into it.	I will add this to the folder and let you know when we get into it.	586614	1471951315567	1471951315704	e	69
1195	12246	I will add this to the folder and let you know when we get into it.	I will add this to the folder and let you know when we get into it.	586628	1471951315631	1471951315762	t	84
1195	12246	I will add this to the folder and let you know when we get into it.	I will add this to the folder and let you know when we get into it.	586632	1471951315708	1471951315840	 	32
1195	12246	I will add this to the folder and let you know when we get into it.	I will add this to the folder and let you know when we get into it.	586635	1471951315797	1471951315909	i	73
1195	12246	I will add this to the folder and let you know when we get into it.	I will add this to the folder and let you know when we get into it.	586638	1471951315874	1471951316049	n	78
1195	12246	I will add this to the folder and let you know when we get into it.	I will add this to the folder and let you know when we get into it.	586694	1471951315991	1471951316093	o	79
1195	12246	I will add this to the folder and let you know when we get into it.	I will add this to the folder and let you know when we get into it.	586697	1471951316021	1471951316144	t	84
1195	12246	I will add this to the folder and let you know when we get into it.	I will add this to the folder and let you know when we get into it.	586701	1471951316170	1471951316253	i	73
1195	12246	I will add this to the folder and let you know when we get into it.	I will add this to the folder and let you know when we get into it.	586704	1471951316557	1471951316640	BKSP	8
1195	12246	I will add this to the folder and let you know when we get into it.	I will add this to the folder and let you know when we get into it.	586707	1471951316712	1471951316795	BKSP	8
1195	12246	I will add this to the folder and let you know when we get into it.	I will add this to the folder and let you know when we get into it.	586710	1471951316886	1471951317009	BKSP	8
1195	12246	I will add this to the folder and let you know when we get into it.	I will add this to the folder and let you know when we get into it.	586713	1471951317245	1471951317359	BKSP	8
1195	12246	I will add this to the folder and let you know when we get into it.	I will add this to the folder and let you know when we get into it.	586714	1471951317371	1471951317493	t	84
1195	12246	I will add this to the folder and let you know when we get into it.	I will add this to the folder and let you know when we get into it.	586715	1471951317712	1471951317786	BKSP	8
1195	12246	I will add this to the folder and let you know when we get into it.	I will add this to the folder and let you know when we get into it.	586716	1471951317877	1471951318004	n	78
1195	12246	I will add this to the folder and let you know when we get into it.	I will add this to the folder and let you know when we get into it.	586718	1471951317968	1471951318086	t	84
1195	12246	I will add this to the folder and let you know when we get into it.	I will add this to the folder and let you know when we get into it.	586720	1471951318111	1471951318236	o	79
1195	12246	I will add this to the folder and let you know when we get into it.	I will add this to the folder and let you know when we get into it.	586717	1471951318229	1471951318380	 	32
1195	12246	I will add this to the folder and let you know when we get into it.	I will add this to the folder and let you know when we get into it.	586719	1471951318346	1471951318419	i	73
1195	12246	I will add this to the folder and let you know when we get into it.	I will add this to the folder and let you know when we get into it.	586721	1471951318412	1471951318545	t	84
1195	12246	I will add this to the folder and let you know when we get into it.	I will add this to the folder and let you know when we get into it.	586724	1471951318533	1471951318620	.	190
1195	12251	What information, if any, do we owe him?	What information, if any, do we owe him?	586799	1471951320326	1471951321054	SHIFT	16
1195	12251	What information, if any, do we owe him?	What information, if any, do we owe him?	586795	1471951320584	1471951320678	T	84
1195	12251	What information, if any, do we owe him?	What information, if any, do we owe him?	586797	1471951320867	1471951320959	BKSP	8
1195	12251	What information, if any, do we owe him?	What information, if any, do we owe him?	586803	1471951320972	1471951321060	W	87
1195	12251	What information, if any, do we owe him?	What information, if any, do we owe him?	586805	1471951321065	1471951321192	h	72
1195	12251	What information, if any, do we owe him?	What information, if any, do we owe him?	586807	1471951321164	1471951321320	a	65
1195	12251	What information, if any, do we owe him?	What information, if any, do we owe him?	586813	1471951321243	1471951321356	t	84
1195	12251	What information, if any, do we owe him?	What information, if any, do we owe him?	586815	1471951321307	1471951321434	 	32
1195	12251	What information, if any, do we owe him?	What information, if any, do we owe him?	586819	1471951321381	1471951321516	i	73
1195	12251	What information, if any, do we owe him?	What information, if any, do we owe him?	586822	1471951321448	1471951321560	n	78
1195	12251	What information, if any, do we owe him?	What information, if any, do we owe him?	586823	1471951321509	1471951321593	f	70
1195	12251	What information, if any, do we owe him?	What information, if any, do we owe him?	586826	1471951321599	1471951321686	o	79
1195	12251	What information, if any, do we owe him?	What information, if any, do we owe him?	586827	1471951321620	1471951321732	r	82
1195	12251	What information, if any, do we owe him?	What information, if any, do we owe him?	586829	1471951321718	1471951321812	m	77
1195	12251	What information, if any, do we owe him?	What information, if any, do we owe him?	586831	1471951321793	1471951321914	a	65
1195	12251	What information, if any, do we owe him?	What information, if any, do we owe him?	586833	1471951321832	1471951321955	t	84
1195	12251	What information, if any, do we owe him?	What information, if any, do we owe him?	586835	1471951321921	1471951322014	i	73
1195	12251	What information, if any, do we owe him?	What information, if any, do we owe him?	586837	1471951321970	1471951322068	o	79
1195	12251	What information, if any, do we owe him?	What information, if any, do we owe him?	586838	1471951322099	1471951322163	n	78
1195	12251	What information, if any, do we owe him?	What information, if any, do we owe him?	586839	1471951322275	1471951322354	,	188
1195	12251	What information, if any, do we owe him?	What information, if any, do we owe him?	586840	1471951322345	1471951322477	 	32
1195	12251	What information, if any, do we owe him?	What information, if any, do we owe him?	586841	1471951322433	1471951322572	i	73
1195	12251	What information, if any, do we owe him?	What information, if any, do we owe him?	586842	1471951322499	1471951322623	f	70
1195	12251	What information, if any, do we owe him?	What information, if any, do we owe him?	586843	1471951322563	1471951322701	 	32
1195	12251	What information, if any, do we owe him?	What information, if any, do we owe him?	586845	1471951322642	1471951322810	a	65
1195	12251	What information, if any, do we owe him?	What information, if any, do we owe him?	586844	1471951322704	1471951322796	n	78
1195	12251	What information, if any, do we owe him?	What information, if any, do we owe him?	586846	1471951322815	1471951322901	y	89
1195	12251	What information, if any, do we owe him?	What information, if any, do we owe him?	586847	1471951322903	1471951323005	,	188
1195	12251	What information, if any, do we owe him?	What information, if any, do we owe him?	586849	1471951323066	1471951323189	 	32
1195	12251	What information, if any, do we owe him?	What information, if any, do we owe him?	586854	1471951323280	1471951323404	d	68
1195	12251	What information, if any, do we owe him?	What information, if any, do we owe him?	586855	1471951323354	1471951323485	o	79
1195	12251	What information, if any, do we owe him?	What information, if any, do we owe him?	586856	1471951323429	1471951323594	 	32
1195	12251	What information, if any, do we owe him?	What information, if any, do we owe him?	586861	1471951323514	1471951323616	w	87
1195	12251	What information, if any, do we owe him?	What information, if any, do we owe him?	586862	1471951323567	1471951323694	e	69
1195	12251	What information, if any, do we owe him?	What information, if any, do we owe him?	586863	1471951323660	1471951323815	 	32
1195	12251	What information, if any, do we owe him?	What information, if any, do we owe him?	586864	1471951323729	1471951323885	o	79
1195	12251	What information, if any, do we owe him?	What information, if any, do we owe him?	586865	1471951323789	1471951323906	w	87
1195	12251	What information, if any, do we owe him?	What information, if any, do we owe him?	586866	1471951323856	1471951323960	e	69
1195	12251	What information, if any, do we owe him?	What information, if any, do we owe him?	586867	1471951323964	1471951324120	 	32
1195	12251	What information, if any, do we owe him?	What information, if any, do we owe him?	586880	1471951324067	1471951324188	h	72
1195	12251	What information, if any, do we owe him?	What information, if any, do we owe him?	586881	1471951324135	1471951324248	i	73
1195	12251	What information, if any, do we owe him?	What information, if any, do we owe him?	586884	1471951324201	1471951324271	m	77
1195	12251	What information, if any, do we owe him?	What information, if any, do we owe him?	586890	1471951324348	1471951324500	SHIFT	16
1195	12251	What information, if any, do we owe him?	What information, if any, do we owe him?	586887	1471951324416	1471951324480	?	191
1195	12255	I know he's working on it.	I know he's working on it.	586941	1471951326697	1471951326882	SHIFT	16
1195	12255	I know he's working on it.	I know he's working on it.	586944	1471951326783	1471951326897	I	73
1195	12255	I know he's working on it.	I know he's working on it.	586947	1471951326889	1471951327053	 	32
1195	12255	I know he's working on it.	I know he's working on it.	586949	1471951326967	1471951327069	k	75
1195	12255	I know he's working on it.	I know he's working on it.	586951	1471951327054	1471951327214	n	78
1195	12255	I know he's working on it.	I know he's working on it.	586957	1471951327141	1471951327287	o	79
1195	12255	I know he's working on it.	I know he's working on it.	586959	1471951327225	1471951327348	w	87
1195	12255	I know he's working on it.	I know he's working on it.	586962	1471951327279	1471951327455	 	32
1195	12255	I know he's working on it.	I know he's working on it.	586961	1471951327354	1471951327428	h	72
1195	12255	I know he's working on it.	I know he's working on it.	586963	1471951327439	1471951327537	e	69
1195	12255	I know he's working on it.	I know he's working on it.	586964	1471951327573	1471951327660	'	222
1195	12255	I know he's working on it.	I know he's working on it.	586969	1471951327632	1471951327710	s	83
1195	12255	I know he's working on it.	I know he's working on it.	586972	1471951327725	1471951327877	 	32
1195	12255	I know he's working on it.	I know he's working on it.	586975	1471951327786	1471951327890	w	87
1195	12255	I know he's working on it.	I know he's working on it.	586977	1471951327864	1471951327958	o	79
1195	12255	I know he's working on it.	I know he's working on it.	586979	1471951327978	1471951328095	r	82
1195	12255	I know he's working on it.	I know he's working on it.	586982	1471951328023	1471951328111	k	75
1195	12255	I know he's working on it.	I know he's working on it.	586983	1471951328164	1471951328313	i	73
1195	12255	I know he's working on it.	I know he's working on it.	586984	1471951328235	1471951328348	n	78
1195	12255	I know he's working on it.	I know he's working on it.	586985	1471951328306	1471951328427	g	71
1195	12255	I know he's working on it.	I know he's working on it.	586988	1471951328360	1471951328464	 	32
1195	12255	I know he's working on it.	I know he's working on it.	586991	1471951328404	1471951328521	o	79
1195	12255	I know he's working on it.	I know he's working on it.	586994	1471951328467	1471951328570	n	78
1195	12255	I know he's working on it.	I know he's working on it.	587002	1471951328562	1471951328674	 	32
1195	12255	I know he's working on it.	I know he's working on it.	586998	1471951328592	1471951328646	i	73
1195	12255	I know he's working on it.	I know he's working on it.	587004	1471951328657	1471951328766	t	84
1195	12255	I know he's working on it.	I know he's working on it.	587007	1471951328772	1471951328836	.	190
1195	12259	A bad thing has been turned into a good thing.	A bad thing has been turned into a good thing.	587071	1471951331673	1471951331920	SHIFT	16
1195	12259	A bad thing has been turned into a good thing.	A bad thing has been turned into a good thing.	587072	1471951331794	1471951331922	A	65
1195	12259	A bad thing has been turned into a good thing.	A bad thing has been turned into a good thing.	587073	1471951331938	1471951332074	 	32
1195	12259	A bad thing has been turned into a good thing.	A bad thing has been turned into a good thing.	587074	1471951332000	1471951332141	b	66
1195	12259	A bad thing has been turned into a good thing.	A bad thing has been turned into a good thing.	587075	1471951332113	1471951332255	a	65
1195	12259	A bad thing has been turned into a good thing.	A bad thing has been turned into a good thing.	587083	1471951332163	1471951332261	d	68
1195	12259	A bad thing has been turned into a good thing.	A bad thing has been turned into a good thing.	587087	1471951332266	1471951332386	 	32
1195	12259	A bad thing has been turned into a good thing.	A bad thing has been turned into a good thing.	587091	1471951332308	1471951332434	t	84
1195	12259	A bad thing has been turned into a good thing.	A bad thing has been turned into a good thing.	587094	1471951332352	1471951332469	h	72
1195	12259	A bad thing has been turned into a good thing.	A bad thing has been turned into a good thing.	587096	1471951332411	1471951332610	i	73
1195	12259	A bad thing has been turned into a good thing.	A bad thing has been turned into a good thing.	587101	1471951332532	1471951332663	n	78
1195	12259	A bad thing has been turned into a good thing.	A bad thing has been turned into a good thing.	587104	1471951332583	1471951332710	g	71
1195	12259	A bad thing has been turned into a good thing.	A bad thing has been turned into a good thing.	587108	1471951332675	1471951332801	 	32
1195	12259	A bad thing has been turned into a good thing.	A bad thing has been turned into a good thing.	587111	1471951332744	1471951332869	h	72
1195	12259	A bad thing has been turned into a good thing.	A bad thing has been turned into a good thing.	587113	1471951332783	1471951332945	a	65
1195	12259	A bad thing has been turned into a good thing.	A bad thing has been turned into a good thing.	587122	1471951332841	1471951332949	s	83
1195	12259	A bad thing has been turned into a good thing.	A bad thing has been turned into a good thing.	587124	1471951332911	1471951333057	 	32
1195	12259	A bad thing has been turned into a good thing.	A bad thing has been turned into a good thing.	587126	1471951332985	1471951333106	b	66
1195	12259	A bad thing has been turned into a good thing.	A bad thing has been turned into a good thing.	587129	1471951333048	1471951333140	e	69
1195	12259	A bad thing has been turned into a good thing.	A bad thing has been turned into a good thing.	587132	1471951333212	1471951333318	e	69
1195	12259	A bad thing has been turned into a good thing.	A bad thing has been turned into a good thing.	587134	1471951333276	1471951333388	n	78
1195	12259	A bad thing has been turned into a good thing.	A bad thing has been turned into a good thing.	587138	1471951333372	1471951333526	 	32
1195	12259	A bad thing has been turned into a good thing.	A bad thing has been turned into a good thing.	587140	1471951333459	1471951333580	t	84
1195	12259	A bad thing has been turned into a good thing.	A bad thing has been turned into a good thing.	587143	1471951333502	1471951333648	u	85
1195	12259	A bad thing has been turned into a good thing.	A bad thing has been turned into a good thing.	587146	1471951333632	1471951333715	r	82
1195	12259	A bad thing has been turned into a good thing.	A bad thing has been turned into a good thing.	587149	1471951333701	1471951333861	n	78
1195	12259	A bad thing has been turned into a good thing.	A bad thing has been turned into a good thing.	587155	1471951333805	1471951333894	e	69
1195	12259	A bad thing has been turned into a good thing.	A bad thing has been turned into a good thing.	587158	1471951333968	1471951334084	d	68
1195	12259	A bad thing has been turned into a good thing.	A bad thing has been turned into a good thing.	587161	1471951334021	1471951334174	 	32
1195	12259	A bad thing has been turned into a good thing.	A bad thing has been turned into a good thing.	587164	1471951334090	1471951334245	i	73
1195	12259	A bad thing has been turned into a good thing.	A bad thing has been turned into a good thing.	587173	1471951334177	1471951334342	n	78
1195	12259	A bad thing has been turned into a good thing.	A bad thing has been turned into a good thing.	587175	1471951334237	1471951334366	t	84
1195	12259	A bad thing has been turned into a good thing.	A bad thing has been turned into a good thing.	587177	1471951334319	1471951334475	o	79
1195	12259	A bad thing has been turned into a good thing.	A bad thing has been turned into a good thing.	587179	1471951334390	1471951334501	 	32
1195	12259	A bad thing has been turned into a good thing.	A bad thing has been turned into a good thing.	587181	1471951334483	1471951334625	a	65
1195	12259	A bad thing has been turned into a good thing.	A bad thing has been turned into a good thing.	587184	1471951334573	1471951334718	 	32
1195	12259	A bad thing has been turned into a good thing.	A bad thing has been turned into a good thing.	587192	1471951334630	1471951334752	g	71
1195	12259	A bad thing has been turned into a good thing.	A bad thing has been turned into a good thing.	587194	1471951334686	1471951334771	o	79
1195	12259	A bad thing has been turned into a good thing.	A bad thing has been turned into a good thing.	587197	1471951334851	1471951334969	o	79
1195	12259	A bad thing has been turned into a good thing.	A bad thing has been turned into a good thing.	587198	1471951334881	1471951335004	d	68
1195	12259	A bad thing has been turned into a good thing.	A bad thing has been turned into a good thing.	587200	1471951334980	1471951335106	 	32
1195	12259	A bad thing has been turned into a good thing.	A bad thing has been turned into a good thing.	587219	1471951335027	1471951335163	t	84
1195	12259	A bad thing has been turned into a good thing.	A bad thing has been turned into a good thing.	587222	1471951335081	1471951335179	h	72
1195	12259	A bad thing has been turned into a good thing.	A bad thing has been turned into a good thing.	587226	1471951335130	1471951335286	i	73
1195	12259	A bad thing has been turned into a good thing.	A bad thing has been turned into a good thing.	587231	1471951335250	1471951335324	n	78
1195	12259	A bad thing has been turned into a good thing.	A bad thing has been turned into a good thing.	587234	1471951335316	1471951335425	g	71
1195	12259	A bad thing has been turned into a good thing.	A bad thing has been turned into a good thing.	587237	1471951335441	1471951335514	.	190
