PARTICIPANT_ID	TEST_SECTION_ID	SENTENCE	USER_INPUT	KEYSTROKE_ID	PRESS_TIME	RELEASE_TIME	LETTER	KEYCODE
1238	12645	Lance and I have the same chance to win.	Lance and I have the same chance to win.	605817	1471951769605	1471951769803	SHIFT	16
1238	12645	Lance and I have the same chance to win.	Lance and I have the same chance to win.	605820	1471951769723	1471951769907	L	76
1238	12645	Lance and I have the same chance to win.	Lance and I have the same chance to win.	605823	1471951769915	1471951770043	a	65
1238	12645	Lance and I have the same chance to win.	Lance and I have the same chance to win.	605826	1471951770083	1471951770227	n	78
1238	12645	Lance and I have the same chance to win.	Lance and I have the same chance to win.	605829	1471951770644	1471951770827	c	67
1238	12645	Lance and I have the same chance to win.	Lance and I have the same chance to win.	605833	1471951770899	1471951770995	e	69
1238	12645	Lance and I have the same chance to win.	Lance and I have the same chance to win.	605863	1471951771035	1471951771211	 	32
1238	12645	Lance and I have the same chance to win.	Lance and I have the same chance to win.	605867	1471951771195	1471951771379	a	65
1238	12645	Lance and I have the same chance to win.	Lance and I have the same chance to win.	605870	1471951771315	1471951771483	n	78
1238	12645	Lance and I have the same chance to win.	Lance and I have the same chance to win.	605874	1471951771435	1471951771595	d	68
1238	12645	Lance and I have the same chance to win.	Lance and I have the same chance to win.	605878	1471951771611	1471951771803	 	32
1238	12645	Lance and I have the same chance to win.	Lance and I have the same chance to win.	605917	1471951771851	1471951772043	SHIFT	16
1238	12645	Lance and I have the same chance to win.	Lance and I have the same chance to win.	605919	1471951771947	1471951772083	I	73
1238	12645	Lance and I have the same chance to win.	Lance and I have the same chance to win.	605922	1471951772115	1471951772259	 	32
1238	12645	Lance and I have the same chance to win.	Lance and I have the same chance to win.	605924	1471951772291	1471951772427	h	72
1238	12645	Lance and I have the same chance to win.	Lance and I have the same chance to win.	605926	1471951772403	1471951772571	a	65
1238	12645	Lance and I have the same chance to win.	Lance and I have the same chance to win.	605928	1471951772651	1471951772779	v	86
1238	12645	Lance and I have the same chance to win.	Lance and I have the same chance to win.	605959	1471951772971	1471951773107	e	69
1238	12645	Lance and I have the same chance to win.	Lance and I have the same chance to win.	605962	1471951773163	1471951773315	 	32
1238	12645	Lance and I have the same chance to win.	Lance and I have the same chance to win.	605966	1471951773363	1471951773475	t	84
1238	12645	Lance and I have the same chance to win.	Lance and I have the same chance to win.	605971	1471951773436	1471951773571	h	72
1238	12645	Lance and I have the same chance to win.	Lance and I have the same chance to win.	605973	1471951773572	1471951773699	e	69
1238	12645	Lance and I have the same chance to win.	Lance and I have the same chance to win.	606014	1471951773691	1471951773899	 	32
1238	12645	Lance and I have the same chance to win.	Lance and I have the same chance to win.	606017	1471951773956	1471951774107	s	83
1238	12645	Lance and I have the same chance to win.	Lance and I have the same chance to win.	606020	1471951774179	1471951774323	a	65
1238	12645	Lance and I have the same chance to win.	Lance and I have the same chance to win.	606022	1471951774307	1471951774483	m	77
1238	12645	Lance and I have the same chance to win.	Lance and I have the same chance to win.	606025	1471951774467	1471951774619	e	69
1238	12645	Lance and I have the same chance to win.	Lance and I have the same chance to win.	606029	1471951774627	1471951774811	 	32
1238	12645	Lance and I have the same chance to win.	Lance and I have the same chance to win.	606049	1471951774875	1471951775043	c	67
1238	12645	Lance and I have the same chance to win.	Lance and I have the same chance to win.	606050	1471951775051	1471951775179	h	72
1238	12645	Lance and I have the same chance to win.	Lance and I have the same chance to win.	606051	1471951775227	1471951775348	a	65
1238	12645	Lance and I have the same chance to win.	Lance and I have the same chance to win.	606052	1471951775395	1471951775547	n	78
1238	12645	Lance and I have the same chance to win.	Lance and I have the same chance to win.	606053	1471951775979	1471951776067	e	69
1238	12645	Lance and I have the same chance to win.	Lance and I have the same chance to win.	606085	1471951776452	1471951776595	BKSP	8
1238	12645	Lance and I have the same chance to win.	Lance and I have the same chance to win.	606087	1471951776579	1471951776723	c	67
1238	12645	Lance and I have the same chance to win.	Lance and I have the same chance to win.	606090	1471951776803	1471951776923	e	69
1238	12645	Lance and I have the same chance to win.	Lance and I have the same chance to win.	606095	1471951776963	1471951777123	 	32
1238	12645	Lance and I have the same chance to win.	Lance and I have the same chance to win.	606100	1471951777139	1471951777275	t	84
1238	12645	Lance and I have the same chance to win.	Lance and I have the same chance to win.	606159	1471951777259	1471951777420	o	79
1238	12645	Lance and I have the same chance to win.	Lance and I have the same chance to win.	606161	1471951777427	1471951777603	 	32
1238	12645	Lance and I have the same chance to win.	Lance and I have the same chance to win.	606165	1471951777690	1471951777866	w	87
1238	12645	Lance and I have the same chance to win.	Lance and I have the same chance to win.	606170	1471951777874	1471951778034	i	73
1238	12645	Lance and I have the same chance to win.	Lance and I have the same chance to win.	606175	1471951778130	1471951778266	n	78
1238	12645	Lance and I have the same chance to win.	Lance and I have the same chance to win.	606181	1471951778506	1471951778610	.	190
1238	12654	I have an electric knife.	I have an electric knife.	606437	1471951784122	1471951784282	SHIFT	16
1238	12654	I have an electric knife.	I have an electric knife.	606439	1471951784186	1471951784306	I	73
1238	12654	I have an electric knife.	I have an electric knife.	606441	1471951784322	1471951784474	 	32
1238	12654	I have an electric knife.	I have an electric knife.	606443	1471951784498	1471951784634	h	72
1238	12654	I have an electric knife.	I have an electric knife.	606445	1471951784626	1471951784810	a	65
1238	12654	I have an electric knife.	I have an electric knife.	606447	1471951784890	1471951785034	v	86
1238	12654	I have an electric knife.	I have an electric knife.	606472	1471951785098	1471951785210	e	69
1238	12654	I have an electric knife.	I have an electric knife.	606474	1471951785242	1471951785394	 	32
1238	12654	I have an electric knife.	I have an electric knife.	606475	1471951785410	1471951785562	a	65
1238	12654	I have an electric knife.	I have an electric knife.	606477	1471951785546	1471951785690	n	78
1238	12654	I have an electric knife.	I have an electric knife.	606478	1471951785714	1471951785898	 	32
1238	12654	I have an electric knife.	I have an electric knife.	606513	1471951785962	1471951786162	e	69
1238	12654	I have an electric knife.	I have an electric knife.	606515	1471951786258	1471951786386	l	76
1238	12654	I have an electric knife.	I have an electric knife.	606518	1471951786418	1471951786586	e	69
1238	12654	I have an electric knife.	I have an electric knife.	606521	1471951786722	1471951786850	c	67
1238	12654	I have an electric knife.	I have an electric knife.	606525	1471951787066	1471951787194	t	84
1238	12654	I have an electric knife.	I have an electric knife.	606593	1471951787282	1471951787402	r	82
1238	12654	I have an electric knife.	I have an electric knife.	606597	1471951787506	1471951787610	u	85
1238	12654	I have an electric knife.	I have an electric knife.	606600	1471951788146	1471951788258	BKSP	8
1238	12654	I have an electric knife.	I have an electric knife.	606602	1471951788378	1471951788490	i	73
1238	12654	I have an electric knife.	I have an electric knife.	606603	1471951788491	1471951788618	c	67
1238	12654	I have an electric knife.	I have an electric knife.	606605	1471951788722	1471951788890	 	32
1238	12654	I have an electric knife.	I have an electric knife.	606660	1471951789106	1471951789202	k	75
1238	12654	I have an electric knife.	I have an electric knife.	606664	1471951789314	1471951789466	n	78
1238	12654	I have an electric knife.	I have an electric knife.	606666	1471951789594	1471951789706	i	73
1238	12654	I have an electric knife.	I have an electric knife.	606668	1471951789850	1471951790002	f	70
1238	12654	I have an electric knife.	I have an electric knife.	606669	1471951790082	1471951790210	e	69
1238	12654	I have an electric knife.	I have an electric knife.	606731	1471951790370	1471951790490	.	190
1238	12667	The qualifying continues on the west side of town.	The qualifying continues on the west side of town.	606885	1471951793762	1471951793962	SHIFT	16
1238	12667	The qualifying continues on the west side of town.	The qualifying continues on the west side of town.	606888	1471951793866	1471951794042	T	84
1238	12667	The qualifying continues on the west side of town.	The qualifying continues on the west side of town.	606891	1471951794018	1471951794170	h	72
1238	12667	The qualifying continues on the west side of town.	The qualifying continues on the west side of town.	606894	1471951794146	1471951794266	e	69
1238	12667	The qualifying continues on the west side of town.	The qualifying continues on the west side of town.	606897	1471951794434	1471951794586	 	32
1238	12667	The qualifying continues on the west side of town.	The qualifying continues on the west side of town.	606900	1471951794706	1471951794866	q	81
1238	12667	The qualifying continues on the west side of town.	The qualifying continues on the west side of town.	606995	1471951795506	1471951795586	u	85
1238	12667	The qualifying continues on the west side of town.	The qualifying continues on the west side of town.	606997	1471951795954	1471951796074	a	65
1238	12667	The qualifying continues on the west side of town.	The qualifying continues on the west side of town.	606999	1471951796122	1471951796282	l	76
1238	12667	The qualifying continues on the west side of town.	The qualifying continues on the west side of town.	607002	1471951796378	1471951796546	i	73
1238	12667	The qualifying continues on the west side of town.	The qualifying continues on the west side of town.	607007	1471951796786	1471951796906	f	70
1238	12667	The qualifying continues on the west side of town.	The qualifying continues on the west side of town.	607049	1471951797225	1471951797362	y	89
1238	12667	The qualifying continues on the west side of town.	The qualifying continues on the west side of town.	607053	1471951797649	1471951797761	i	73
1238	12667	The qualifying continues on the west side of town.	The qualifying continues on the west side of town.	607060	1471951797842	1471951797970	n	78
1238	12667	The qualifying continues on the west side of town.	The qualifying continues on the west side of town.	607067	1471951797929	1471951798066	g	71
1238	12667	The qualifying continues on the west side of town.	The qualifying continues on the west side of town.	607070	1471951798098	1471951798274	 	32
1238	12667	The qualifying continues on the west side of town.	The qualifying continues on the west side of town.	607117	1471951798394	1471951798498	c	67
1238	12667	The qualifying continues on the west side of town.	The qualifying continues on the west side of town.	607119	1471951798482	1471951798642	o	79
1238	12667	The qualifying continues on the west side of town.	The qualifying continues on the west side of town.	607120	1471951798697	1471951798857	n	78
1238	12667	The qualifying continues on the west side of town.	The qualifying continues on the west side of town.	607121	1471951798954	1471951799082	t	84
1238	12667	The qualifying continues on the west side of town.	The qualifying continues on the west side of town.	607122	1471951799122	1471951799234	i	73
1238	12667	The qualifying continues on the west side of town.	The qualifying continues on the west side of town.	607145	1471951799306	1471951799442	n	78
1238	12667	The qualifying continues on the west side of town.	The qualifying continues on the west side of town.	607148	1471951799554	1471951799657	u	85
1238	12667	The qualifying continues on the west side of town.	The qualifying continues on the west side of town.	607150	1471951799737	1471951799874	e	69
1238	12667	The qualifying continues on the west side of town.	The qualifying continues on the west side of town.	607152	1471951800009	1471951800161	s	83
1238	12667	The qualifying continues on the west side of town.	The qualifying continues on the west side of town.	607165	1471951800138	1471951800282	 	32
1238	12667	The qualifying continues on the west side of town.	The qualifying continues on the west side of town.	607169	1471951800305	1471951800466	o	79
1238	12667	The qualifying continues on the west side of town.	The qualifying continues on the west side of town.	607170	1471951800458	1471951800602	n	78
1238	12667	The qualifying continues on the west side of town.	The qualifying continues on the west side of town.	607174	1471951800553	1471951800706	 	32
1238	12667	The qualifying continues on the west side of town.	The qualifying continues on the west side of town.	607176	1471951800697	1471951800818	t	84
1238	12667	The qualifying continues on the west side of town.	The qualifying continues on the west side of town.	607217	1471951800794	1471951800954	h	72
1238	12667	The qualifying continues on the west side of town.	The qualifying continues on the west side of town.	607219	1471951800897	1471951801002	e	69
1238	12667	The qualifying continues on the west side of town.	The qualifying continues on the west side of town.	607224	1471951800994	1471951801177	 	32
1238	12667	The qualifying continues on the west side of town.	The qualifying continues on the west side of town.	607227	1471951801265	1471951801434	w	87
1238	12667	The qualifying continues on the west side of town.	The qualifying continues on the west side of town.	607230	1471951801722	1471951801873	s	83
1238	12667	The qualifying continues on the west side of town.	The qualifying continues on the west side of town.	607234	1471951802330	1471951802465	BKSP	8
1238	12667	The qualifying continues on the west side of town.	The qualifying continues on the west side of town.	607238	1471951802489	1471951802650	e	69
1238	12667	The qualifying continues on the west side of town.	The qualifying continues on the west side of town.	607273	1471951802801	1471951802978	s	83
1238	12667	The qualifying continues on the west side of town.	The qualifying continues on the west side of town.	607276	1471951803106	1471951803242	t	84
1238	12667	The qualifying continues on the west side of town.	The qualifying continues on the west side of town.	607278	1471951803282	1471951803434	 	32
1238	12667	The qualifying continues on the west side of town.	The qualifying continues on the west side of town.	607280	1471951803553	1471951803705	s	83
1238	12667	The qualifying continues on the west side of town.	The qualifying continues on the west side of town.	607322	1471951803682	1471951803825	i	73
1238	12667	The qualifying continues on the west side of town.	The qualifying continues on the west side of town.	607326	1471951803921	1471951804073	d	68
1238	12667	The qualifying continues on the west side of town.	The qualifying continues on the west side of town.	607331	1471951804162	1471951804297	e	69
1238	12667	The qualifying continues on the west side of town.	The qualifying continues on the west side of town.	607335	1471951804378	1471951804593	 	32
1238	12667	The qualifying continues on the west side of town.	The qualifying continues on the west side of town.	607339	1471951804561	1471951804713	o	79
1238	12667	The qualifying continues on the west side of town.	The qualifying continues on the west side of town.	607384	1471951804690	1471951804826	f	70
1238	12667	The qualifying continues on the west side of town.	The qualifying continues on the west side of town.	607390	1471951804889	1471951805042	 	32
1238	12667	The qualifying continues on the west side of town.	The qualifying continues on the west side of town.	607396	1471951805185	1471951805321	t	84
1238	12667	The qualifying continues on the west side of town.	The qualifying continues on the west side of town.	607402	1471951805361	1471951805530	o	79
1238	12667	The qualifying continues on the west side of town.	The qualifying continues on the west side of town.	607407	1471951805577	1471951805721	w	87
1238	12667	The qualifying continues on the west side of town.	The qualifying continues on the west side of town.	607411	1471951805818	1471951805914	n	78
1238	12667	The qualifying continues on the west side of town.	The qualifying continues on the west side of town.	607461	1471951806129	1471951806249	.	190
1238	12682	If you need John speak up now.	If you need John speak up now.	607538	1471951809018	1471951809298	SHIFT	16
1238	12682	If you need John speak up now.	If you need John speak up now.	607540	1471951809193	1471951809337	I	73
1238	12682	If you need John speak up now.	If you need John speak up now.	607545	1471951809394	1471951809538	f	70
1238	12682	If you need John speak up now.	If you need John speak up now.	607551	1471951809545	1471951809698	 	32
1238	12682	If you need John speak up now.	If you need John speak up now.	607558	1471951809914	1471951810058	y	89
1238	12682	If you need John speak up now.	If you need John speak up now.	607565	1471951810066	1471951810274	o	79
1238	12682	If you need John speak up now.	If you need John speak up now.	607605	1471951810169	1471951810361	u	85
1238	12682	If you need John speak up now.	If you need John speak up now.	607607	1471951810337	1471951810474	 	32
1238	12682	If you need John speak up now.	If you need John speak up now.	607610	1471951810554	1471951810697	n	78
1238	12682	If you need John speak up now.	If you need John speak up now.	607613	1471951810714	1471951810833	e	69
1238	12682	If you need John speak up now.	If you need John speak up now.	607616	1471951810914	1471951811026	e	69
1238	12682	If you need John speak up now.	If you need John speak up now.	607620	1471951811129	1471951811258	d	68
1238	12682	If you need John speak up now.	If you need John speak up now.	607682	1471951811259	1471951811434	 	32
1238	12682	If you need John speak up now.	If you need John speak up now.	607686	1471951811690	1471951811906	SHIFT	16
1238	12682	If you need John speak up now.	If you need John speak up now.	607684	1471951811761	1471951811898	J	74
1238	12682	If you need John speak up now.	If you need John speak up now.	607690	1471951812010	1471951812138	o	79
1238	12682	If you need John speak up now.	If you need John speak up now.	607693	1471951812313	1471951812434	h	72
1238	12682	If you need John speak up now.	If you need John speak up now.	607696	1471951812578	1471951812681	n	78
1238	12682	If you need John speak up now.	If you need John speak up now.	607750	1471951812793	1471951812937	 	32
1238	12682	If you need John speak up now.	If you need John speak up now.	607752	1471951813025	1471951813162	s	83
1238	12682	If you need John speak up now.	If you need John speak up now.	607755	1471951813257	1471951813425	p	80
1238	12682	If you need John speak up now.	If you need John speak up now.	607759	1471951813497	1471951813634	e	69
1238	12682	If you need John speak up now.	If you need John speak up now.	607763	1471951813793	1471951813889	a	65
1238	12682	If you need John speak up now.	If you need John speak up now.	607798	1471951813961	1471951814130	k	75
1238	12682	If you need John speak up now.	If you need John speak up now.	607801	1471951814138	1471951814283	 	32
1238	12682	If you need John speak up now.	If you need John speak up now.	607803	1471951814329	1471951814497	u	85
1238	12682	If you need John speak up now.	If you need John speak up now.	607808	1471951814578	1471951814745	p	80
1238	12682	If you need John speak up now.	If you need John speak up now.	607920	1471951814730	1471951814914	 	32
1238	12682	If you need John speak up now.	If you need John speak up now.	607925	1471951815193	1471951815330	n	78
1238	12682	If you need John speak up now.	If you need John speak up now.	607930	1471951815370	1471951815498	o	79
1238	12682	If you need John speak up now.	If you need John speak up now.	607935	1471951815738	1471951815897	w	87
1238	12682	If you need John speak up now.	If you need John speak up now.	607940	1471951816017	1471951816138	.	190
1238	12692	Every Enron employee has an internet email address.	Every Enron employee has an internet email address.	608069	1471951819322	1471951819594	SHIFT	16
1238	12692	Every Enron employee has an internet email address.	Every Enron employee has an internet email address.	608071	1471951819449	1471951819610	E	69
1238	12692	Every Enron employee has an internet email address.	Every Enron employee has an internet email address.	608073	1471951819745	1471951819882	v	86
1238	12692	Every Enron employee has an internet email address.	Every Enron employee has an internet email address.	608075	1471951819969	1471951820106	e	69
1238	12692	Every Enron employee has an internet email address.	Every Enron employee has an internet email address.	608077	1471951820217	1471951820361	y	89
1238	12692	Every Enron employee has an internet email address.	Every Enron employee has an internet email address.	608078	1471951820874	1471951821001	BKSP	8
1238	12692	Every Enron employee has an internet email address.	Every Enron employee has an internet email address.	608079	1471951821002	1471951821130	r	82
1238	12692	Every Enron employee has an internet email address.	Every Enron employee has an internet email address.	608111	1471951821209	1471951821345	y	89
1238	12692	Every Enron employee has an internet email address.	Every Enron employee has an internet email address.	608112	1471951821361	1471951821554	 	32
1238	12692	Every Enron employee has an internet email address.	Every Enron employee has an internet email address.	608114	1471951821897	1471951822218	SHIFT	16
1238	12692	Every Enron employee has an internet email address.	Every Enron employee has an internet email address.	608117	1471951822073	1471951822226	E	69
1238	12692	Every Enron employee has an internet email address.	Every Enron employee has an internet email address.	608124	1471951822313	1471951822442	n	78
1238	12692	Every Enron employee has an internet email address.	Every Enron employee has an internet email address.	608129	1471951822617	1471951822754	r	82
1238	12692	Every Enron employee has an internet email address.	Every Enron employee has an internet email address.	608177	1471951822850	1471951822994	o	79
1238	12692	Every Enron employee has an internet email address.	Every Enron employee has an internet email address.	608178	1471951823098	1471951823194	n	78
1238	12692	Every Enron employee has an internet email address.	Every Enron employee has an internet email address.	608179	1471951823265	1471951823441	 	32
1238	12692	Every Enron employee has an internet email address.	Every Enron employee has an internet email address.	608181	1471951823570	1471951823690	e	69
1238	12692	Every Enron employee has an internet email address.	Every Enron employee has an internet email address.	608183	1471951823761	1471951823898	m	77
1238	12692	Every Enron employee has an internet email address.	Every Enron employee has an internet email address.	608237	1471951824009	1471951824161	p	80
1238	12692	Every Enron employee has an internet email address.	Every Enron employee has an internet email address.	608239	1471951824281	1471951824409	l	76
1238	12692	Every Enron employee has an internet email address.	Every Enron employee has an internet email address.	608242	1471951824545	1471951824657	o	79
1238	12692	Every Enron employee has an internet email address.	Every Enron employee has an internet email address.	608243	1471951824793	1471951824913	y	89
1238	12692	Every Enron employee has an internet email address.	Every Enron employee has an internet email address.	608245	1471951825202	1471951825306	n	78
1238	12692	Every Enron employee has an internet email address.	Every Enron employee has an internet email address.	608285	1471951825674	1471951825786	BKSP	8
1238	12692	Every Enron employee has an internet email address.	Every Enron employee has an internet email address.	608288	1471951825826	1471951825921	e	69
1238	12692	Every Enron employee has an internet email address.	Every Enron employee has an internet email address.	608289	1471951826017	1471951826105	e	69
1238	12692	Every Enron employee has an internet email address.	Every Enron employee has an internet email address.	608290	1471951826106	1471951826274	 	32
1238	12692	Every Enron employee has an internet email address.	Every Enron employee has an internet email address.	608292	1471951826361	1471951826474	h	72
1238	12692	Every Enron employee has an internet email address.	Every Enron employee has an internet email address.	608297	1471951826521	1471951826673	a	65
1238	12692	Every Enron employee has an internet email address.	Every Enron employee has an internet email address.	608340	1471951826801	1471951826953	s	83
1238	12692	Every Enron employee has an internet email address.	Every Enron employee has an internet email address.	608342	1471951826977	1471951827121	 	32
1238	12692	Every Enron employee has an internet email address.	Every Enron employee has an internet email address.	608345	1471951827281	1471951827418	a	65
1238	12692	Every Enron employee has an internet email address.	Every Enron employee has an internet email address.	608348	1471951827450	1471951827601	n	78
1238	12692	Every Enron employee has an internet email address.	Every Enron employee has an internet email address.	608351	1471951827650	1471951827793	 	32
1238	12692	Every Enron employee has an internet email address.	Every Enron employee has an internet email address.	608406	1471951827889	1471951828001	i	73
1238	12692	Every Enron employee has an internet email address.	Every Enron employee has an internet email address.	608411	1471951828082	1471951828210	n	78
1238	12692	Every Enron employee has an internet email address.	Every Enron employee has an internet email address.	608415	1471951828329	1471951828466	t	84
1238	12692	Every Enron employee has an internet email address.	Every Enron employee has an internet email address.	608421	1471951828537	1471951828754	e	69
1238	12692	Every Enron employee has an internet email address.	Every Enron employee has an internet email address.	608506	1471951828713	1471951828850	r	82
1238	12692	Every Enron employee has an internet email address.	Every Enron employee has an internet email address.	608507	1471951828945	1471951829082	n	78
1238	12692	Every Enron employee has an internet email address.	Every Enron employee has an internet email address.	608508	1471951829217	1471951829434	e	69
1238	12692	Every Enron employee has an internet email address.	Every Enron employee has an internet email address.	608510	1471951829530	1471951829682	t	84
1238	12692	Every Enron employee has an internet email address.	Every Enron employee has an internet email address.	608512	1471951829857	1471951830041	 	32
1238	12692	Every Enron employee has an internet email address.	Every Enron employee has an internet email address.	608514	1471951830241	1471951830386	e	69
1238	12692	Every Enron employee has an internet email address.	Every Enron employee has an internet email address.	608550	1471951830578	1471951830738	m	77
1238	12692	Every Enron employee has an internet email address.	Every Enron employee has an internet email address.	608552	1471951830746	1471951830873	a	65
1238	12692	Every Enron employee has an internet email address.	Every Enron employee has an internet email address.	608555	1471951830977	1471951831105	i	73
1238	12692	Every Enron employee has an internet email address.	Every Enron employee has an internet email address.	608557	1471951831193	1471951831386	l	76
1238	12692	Every Enron employee has an internet email address.	Every Enron employee has an internet email address.	608559	1471951831393	1471951831569	 	32
1238	12692	Every Enron employee has an internet email address.	Every Enron employee has an internet email address.	608617	1471951831561	1471951831722	a	65
1238	12692	Every Enron employee has an internet email address.	Every Enron employee has an internet email address.	608623	1471951831873	1471951832002	d	68
1238	12692	Every Enron employee has an internet email address.	Every Enron employee has an internet email address.	608628	1471951832098	1471951832217	d	68
1238	12692	Every Enron employee has an internet email address.	Every Enron employee has an internet email address.	608633	1471951832298	1471951832474	r	82
1238	12692	Every Enron employee has an internet email address.	Every Enron employee has an internet email address.	608638	1471951832521	1471951832674	e	69
1238	12692	Every Enron employee has an internet email address.	Every Enron employee has an internet email address.	608642	1471951832794	1471951832938	s	83
1238	12692	Every Enron employee has an internet email address.	Every Enron employee has an internet email address.	608689	1471951832977	1471951833122	s	83
1238	12692	Every Enron employee has an internet email address.	Every Enron employee has an internet email address.	608691	1471951833161	1471951833305	.	190
1238	12706	We had some measurement of gas from Quantum throughout the month.	We had some measurement of gas from Quantum throughout the month.	608781	1471951836306	1471951836649	SHIFT	16
1238	12706	We had some measurement of gas from Quantum throughout the month.	We had some measurement of gas from Quantum throughout the month.	608780	1471951836450	1471951836626	W	87
1238	12706	We had some measurement of gas from Quantum throughout the month.	We had some measurement of gas from Quantum throughout the month.	608784	1471951836713	1471951836850	e	69
1238	12706	We had some measurement of gas from Quantum throughout the month.	We had some measurement of gas from Quantum throughout the month.	608787	1471951836873	1471951837034	 	32
1238	12706	We had some measurement of gas from Quantum throughout the month.	We had some measurement of gas from Quantum throughout the month.	608793	1471951837106	1471951837217	h	72
1238	12706	We had some measurement of gas from Quantum throughout the month.	We had some measurement of gas from Quantum throughout the month.	608797	1471951837258	1471951837458	a	65
1238	12706	We had some measurement of gas from Quantum throughout the month.	We had some measurement of gas from Quantum throughout the month.	608846	1471951837762	1471951837881	d	68
1238	12706	We had some measurement of gas from Quantum throughout the month.	We had some measurement of gas from Quantum throughout the month.	608851	1471951837970	1471951838130	 	32
1238	12706	We had some measurement of gas from Quantum throughout the month.	We had some measurement of gas from Quantum throughout the month.	608854	1471951838225	1471951838393	s	83
1238	12706	We had some measurement of gas from Quantum throughout the month.	We had some measurement of gas from Quantum throughout the month.	608855	1471951838401	1471951838530	o	79
1238	12706	We had some measurement of gas from Quantum throughout the month.	We had some measurement of gas from Quantum throughout the month.	608856	1471951838602	1471951838769	m	77
1238	12706	We had some measurement of gas from Quantum throughout the month.	We had some measurement of gas from Quantum throughout the month.	608899	1471951838746	1471951838889	e	69
1238	12706	We had some measurement of gas from Quantum throughout the month.	We had some measurement of gas from Quantum throughout the month.	608902	1471951838953	1471951839138	 	32
1238	12706	We had some measurement of gas from Quantum throughout the month.	We had some measurement of gas from Quantum throughout the month.	608905	1471951839441	1471951839601	m	77
1238	12706	We had some measurement of gas from Quantum throughout the month.	We had some measurement of gas from Quantum throughout the month.	608907	1471951839594	1471951839793	e	69
1238	12706	We had some measurement of gas from Quantum throughout the month.	We had some measurement of gas from Quantum throughout the month.	608909	1471951839945	1471951840098	a	65
1238	12706	We had some measurement of gas from Quantum throughout the month.	We had some measurement of gas from Quantum throughout the month.	608910	1471951840233	1471951840370	s	83
1238	12706	We had some measurement of gas from Quantum throughout the month.	We had some measurement of gas from Quantum throughout the month.	608922	1471951840425	1471951840562	u	85
1238	12706	We had some measurement of gas from Quantum throughout the month.	We had some measurement of gas from Quantum throughout the month.	608924	1471951840689	1471951840881	r	82
1238	12706	We had some measurement of gas from Quantum throughout the month.	We had some measurement of gas from Quantum throughout the month.	608927	1471951840929	1471951841090	e	69
1238	12706	We had some measurement of gas from Quantum throughout the month.	We had some measurement of gas from Quantum throughout the month.	608932	1471951841193	1471951841345	m	77
1238	12706	We had some measurement of gas from Quantum throughout the month.	We had some measurement of gas from Quantum throughout the month.	608963	1471951841337	1471951841489	e	69
1238	12706	We had some measurement of gas from Quantum throughout the month.	We had some measurement of gas from Quantum throughout the month.	608965	1471951841529	1471951841665	n	78
1238	12706	We had some measurement of gas from Quantum throughout the month.	We had some measurement of gas from Quantum throughout the month.	608968	1471951841698	1471951841833	t	84
1238	12706	We had some measurement of gas from Quantum throughout the month.	We had some measurement of gas from Quantum throughout the month.	608970	1471951841857	1471951842026	 	32
1238	12706	We had some measurement of gas from Quantum throughout the month.	We had some measurement of gas from Quantum throughout the month.	608972	1471951842042	1471951842218	o	79
1238	12706	We had some measurement of gas from Quantum throughout the month.	We had some measurement of gas from Quantum throughout the month.	609034	1471951842178	1471951842353	f	70
1238	12706	We had some measurement of gas from Quantum throughout the month.	We had some measurement of gas from Quantum throughout the month.	609035	1471951842345	1471951842522	 	32
1238	12706	We had some measurement of gas from Quantum throughout the month.	We had some measurement of gas from Quantum throughout the month.	609036	1471951842697	1471951842850	g	71
1238	12706	We had some measurement of gas from Quantum throughout the month.	We had some measurement of gas from Quantum throughout the month.	609037	1471951842929	1471951843082	a	65
1238	12706	We had some measurement of gas from Quantum throughout the month.	We had some measurement of gas from Quantum throughout the month.	609038	1471951843258	1471951843401	s	83
1238	12706	We had some measurement of gas from Quantum throughout the month.	We had some measurement of gas from Quantum throughout the month.	609040	1471951844049	1471951844234	 	32
1238	12706	We had some measurement of gas from Quantum throughout the month.	We had some measurement of gas from Quantum throughout the month.	609056	1471951844273	1471951844401	f	70
1238	12706	We had some measurement of gas from Quantum throughout the month.	We had some measurement of gas from Quantum throughout the month.	609060	1471951844497	1471951844578	r	82
1238	12706	We had some measurement of gas from Quantum throughout the month.	We had some measurement of gas from Quantum throughout the month.	609065	1471951844521	1471951844753	o	79
1238	12706	We had some measurement of gas from Quantum throughout the month.	We had some measurement of gas from Quantum throughout the month.	609069	1471951844706	1471951844890	m	77
1238	12706	We had some measurement of gas from Quantum throughout the month.	We had some measurement of gas from Quantum throughout the month.	609110	1471951844882	1471951845065	 	32
1238	12706	We had some measurement of gas from Quantum throughout the month.	We had some measurement of gas from Quantum throughout the month.	609114	1471951845346	1471951845609	SHIFT	16
1238	12706	We had some measurement of gas from Quantum throughout the month.	We had some measurement of gas from Quantum throughout the month.	609113	1471951845433	1471951845586	Q	81
1238	12706	We had some measurement of gas from Quantum throughout the month.	We had some measurement of gas from Quantum throughout the month.	609115	1471951845713	1471951845841	u	85
1238	12706	We had some measurement of gas from Quantum throughout the month.	We had some measurement of gas from Quantum throughout the month.	609116	1471951846057	1471951846201	a	65
1238	12706	We had some measurement of gas from Quantum throughout the month.	We had some measurement of gas from Quantum throughout the month.	609117	1471951846242	1471951846377	n	78
1238	12706	We had some measurement of gas from Quantum throughout the month.	We had some measurement of gas from Quantum throughout the month.	609119	1471951846481	1471951846618	t	84
1238	12706	We had some measurement of gas from Quantum throughout the month.	We had some measurement of gas from Quantum throughout the month.	609157	1471951846713	1471951846857	u	85
1238	12706	We had some measurement of gas from Quantum throughout the month.	We had some measurement of gas from Quantum throughout the month.	609161	1471951847010	1471951847153	m	77
1238	12706	We had some measurement of gas from Quantum throughout the month.	We had some measurement of gas from Quantum throughout the month.	609164	1471951847201	1471951847370	 	32
1238	12706	We had some measurement of gas from Quantum throughout the month.	We had some measurement of gas from Quantum throughout the month.	609168	1471951847505	1471951847625	t	84
1238	12706	We had some measurement of gas from Quantum throughout the month.	We had some measurement of gas from Quantum throughout the month.	609171	1471951847650	1471951847802	h	72
1238	12706	We had some measurement of gas from Quantum throughout the month.	We had some measurement of gas from Quantum throughout the month.	609195	1471951847873	1471951848009	r	82
1238	12706	We had some measurement of gas from Quantum throughout the month.	We had some measurement of gas from Quantum throughout the month.	609197	1471951848025	1471951848273	o	79
1238	12706	We had some measurement of gas from Quantum throughout the month.	We had some measurement of gas from Quantum throughout the month.	609200	1471951848170	1471951848353	u	85
1238	12706	We had some measurement of gas from Quantum throughout the month.	We had some measurement of gas from Quantum throughout the month.	609203	1471951848473	1471951848641	g	71
1238	12706	We had some measurement of gas from Quantum throughout the month.	We had some measurement of gas from Quantum throughout the month.	609205	1471951848689	1471951848834	h	72
1238	12706	We had some measurement of gas from Quantum throughout the month.	We had some measurement of gas from Quantum throughout the month.	609298	1471951848826	1471951848985	t	84
1238	12706	We had some measurement of gas from Quantum throughout the month.	We had some measurement of gas from Quantum throughout the month.	609299	1471951849185	1471951849290	o	79
1238	12706	We had some measurement of gas from Quantum throughout the month.	We had some measurement of gas from Quantum throughout the month.	609301	1471951849577	1471951849673	BKSP	8
1238	12706	We had some measurement of gas from Quantum throughout the month.	We had some measurement of gas from Quantum throughout the month.	609302	1471951849729	1471951849818	BKSP	8
1238	12706	We had some measurement of gas from Quantum throughout the month.	We had some measurement of gas from Quantum throughout the month.	609305	1471951849946	1471951850162	o	79
1238	12706	We had some measurement of gas from Quantum throughout the month.	We had some measurement of gas from Quantum throughout the month.	609306	1471951850961	1471951851050	u	85
1238	12706	We had some measurement of gas from Quantum throughout the month.	We had some measurement of gas from Quantum throughout the month.	609309	1471951851129	1471951851226	t	84
1238	12706	We had some measurement of gas from Quantum throughout the month.	We had some measurement of gas from Quantum throughout the month.	609310	1471951851305	1471951851474	 	32
1238	12706	We had some measurement of gas from Quantum throughout the month.	We had some measurement of gas from Quantum throughout the month.	609335	1471951851553	1471951851666	t	84
1238	12706	We had some measurement of gas from Quantum throughout the month.	We had some measurement of gas from Quantum throughout the month.	609336	1471951851857	1471951851985	h	72
1238	12706	We had some measurement of gas from Quantum throughout the month.	We had some measurement of gas from Quantum throughout the month.	609338	1471951852033	1471951852161	e	69
1238	12706	We had some measurement of gas from Quantum throughout the month.	We had some measurement of gas from Quantum throughout the month.	609340	1471951852185	1471951852346	 	32
1238	12706	We had some measurement of gas from Quantum throughout the month.	We had some measurement of gas from Quantum throughout the month.	609342	1471951852569	1471951852690	m	77
1238	12706	We had some measurement of gas from Quantum throughout the month.	We had some measurement of gas from Quantum throughout the month.	609392	1471951852769	1471951852986	o	79
1238	12706	We had some measurement of gas from Quantum throughout the month.	We had some measurement of gas from Quantum throughout the month.	609394	1471951853289	1471951853402	n	78
1238	12706	We had some measurement of gas from Quantum throughout the month.	We had some measurement of gas from Quantum throughout the month.	609397	1471951853569	1471951853706	t	84
1238	12706	We had some measurement of gas from Quantum throughout the month.	We had some measurement of gas from Quantum throughout the month.	609399	1471951853745	1471951853850	h	72
1238	12706	We had some measurement of gas from Quantum throughout the month.	We had some measurement of gas from Quantum throughout the month.	609401	1471951854033	1471951854170	.	190
1238	12722	He is expected to play in Sunday's game and is listed as probable.	He is expected to play in Sunday's game and is listed as probable.	609613	1471951857465	1471951857698	SHIFT	16
1238	12722	He is expected to play in Sunday's game and is listed as probable.	He is expected to play in Sunday's game and is listed as probable.	609615	1471951857777	1471951857898	e	69
1238	12722	He is expected to play in Sunday's game and is listed as probable.	He is expected to play in Sunday's game and is listed as probable.	609618	1471951858393	1471951858538	BKSP	8
1238	12722	He is expected to play in Sunday's game and is listed as probable.	He is expected to play in Sunday's game and is listed as probable.	609623	1471951858689	1471951858937	SHIFT	16
1238	12722	He is expected to play in Sunday's game and is listed as probable.	He is expected to play in Sunday's game and is listed as probable.	609620	1471951858801	1471951858922	J	74
1238	12722	He is expected to play in Sunday's game and is listed as probable.	He is expected to play in Sunday's game and is listed as probable.	609626	1471951859394	1471951859537	BKSP	8
1238	12722	He is expected to play in Sunday's game and is listed as probable.	He is expected to play in Sunday's game and is listed as probable.	609634	1471951859673	1471951860002	SHIFT	16
1238	12722	He is expected to play in Sunday's game and is listed as probable.	He is expected to play in Sunday's game and is listed as probable.	609629	1471951859849	1471951859954	H	72
1238	12722	He is expected to play in Sunday's game and is listed as probable.	He is expected to play in Sunday's game and is listed as probable.	609636	1471951860033	1471951860186	e	69
1238	12722	He is expected to play in Sunday's game and is listed as probable.	He is expected to play in Sunday's game and is listed as probable.	609642	1471951860585	1471951860745	 	32
1238	12722	He is expected to play in Sunday's game and is listed as probable.	He is expected to play in Sunday's game and is listed as probable.	609665	1471951860785	1471951860945	i	73
1238	12722	He is expected to play in Sunday's game and is listed as probable.	He is expected to play in Sunday's game and is listed as probable.	609667	1471951860906	1471951861065	s	83
1238	12722	He is expected to play in Sunday's game and is listed as probable.	He is expected to play in Sunday's game and is listed as probable.	609669	1471951861066	1471951861241	 	32
1238	12722	He is expected to play in Sunday's game and is listed as probable.	He is expected to play in Sunday's game and is listed as probable.	609671	1471951861265	1471951861465	e	69
1238	12722	He is expected to play in Sunday's game and is listed as probable.	He is expected to play in Sunday's game and is listed as probable.	609675	1471951861625	1471951861793	x	88
1238	12722	He is expected to play in Sunday's game and is listed as probable.	He is expected to play in Sunday's game and is listed as probable.	609711	1471951861897	1471951862033	p	80
1238	12722	He is expected to play in Sunday's game and is listed as probable.	He is expected to play in Sunday's game and is listed as probable.	609714	1471951862049	1471951862233	e	69
1238	12722	He is expected to play in Sunday's game and is listed as probable.	He is expected to play in Sunday's game and is listed as probable.	609718	1471951862441	1471951862609	c	67
1238	12722	He is expected to play in Sunday's game and is listed as probable.	He is expected to play in Sunday's game and is listed as probable.	609748	1471951862801	1471951862905	g	84
1238	12722	He is expected to play in Sunday's game and is listed as probable.	He is expected to play in Sunday's game and is listed as probable.	609751	1471951862985	1471951863129	e	69
1238	12722	He is expected to play in Sunday's game and is listed as probable.	He is expected to play in Sunday's game and is listed as probable.	609755	1471951863226	1471951863345	d	68
1238	12722	He is expected to play in Sunday's game and is listed as probable.	He is expected to play in Sunday's game and is listed as probable.	609758	1471951863353	1471951863497	 	32
1238	12722	He is expected to play in Sunday's game and is listed as probable.	He is expected to play in Sunday's game and is listed as probable.	609761	1471951863489	1471951863609	t	84
1238	12722	He is expected to play in Sunday's game and is listed as probable.	He is expected to play in Sunday's game and is listed as probable.	609764	1471951863610	1471951863777	o	79
1238	12722	He is expected to play in Sunday's game and is listed as probable.	He is expected to play in Sunday's game and is listed as probable.	609856	1471951863793	1471951863921	 	32
1238	12722	He is expected to play in Sunday's game and is listed as probable.	He is expected to play in Sunday's game and is listed as probable.	609858	1471951864337	1471951864433	BKSP	8
1238	12722	He is expected to play in Sunday's game and is listed as probable.	He is expected to play in Sunday's game and is listed as probable.	609861	1471951864489	1471951864601	BKSP	8
1238	12722	He is expected to play in Sunday's game and is listed as probable.	He is expected to play in Sunday's game and is listed as probable.	609866	1471951864673	1471951864753	BKSP	8
1238	12722	He is expected to play in Sunday's game and is listed as probable.	He is expected to play in Sunday's game and is listed as probable.	609873	1471951864833	1471951864929	BKSP	8
1238	12722	He is expected to play in Sunday's game and is listed as probable.	He is expected to play in Sunday's game and is listed as probable.	609878	1471951865009	1471951865105	BKSP	8
1238	12722	He is expected to play in Sunday's game and is listed as probable.	He is expected to play in Sunday's game and is listed as probable.	609881	1471951865169	1471951865273	BKSP	8
1238	12722	He is expected to play in Sunday's game and is listed as probable.	He is expected to play in Sunday's game and is listed as probable.	609885	1471951865329	1471951865465	BKSP	8
1238	12722	He is expected to play in Sunday's game and is listed as probable.	He is expected to play in Sunday's game and is listed as probable.	609888	1471951865625	1471951865738	e	69
1238	12722	He is expected to play in Sunday's game and is listed as probable.	He is expected to play in Sunday's game and is listed as probable.	609890	1471951865889	1471951866017	d	68
1238	12722	He is expected to play in Sunday's game and is listed as probable.	He is expected to play in Sunday's game and is listed as probable.	609893	1471951866049	1471951866209	 	32
1238	12722	He is expected to play in Sunday's game and is listed as probable.	He is expected to play in Sunday's game and is listed as probable.	609897	1471951866249	1471951866378	t	84
1238	12722	He is expected to play in Sunday's game and is listed as probable.	He is expected to play in Sunday's game and is listed as probable.	609919	1471951866369	1471951866537	o	79
1238	12722	He is expected to play in Sunday's game and is listed as probable.	He is expected to play in Sunday's game and is listed as probable.	609920	1471951866553	1471951866705	 	32
1238	12722	He is expected to play in Sunday's game and is listed as probable.	He is expected to play in Sunday's game and is listed as probable.	609921	1471951866729	1471951866873	p	80
1238	12722	He is expected to play in Sunday's game and is listed as probable.	He is expected to play in Sunday's game and is listed as probable.	609922	1471951866969	1471951867121	l	76
1238	12722	He is expected to play in Sunday's game and is listed as probable.	He is expected to play in Sunday's game and is listed as probable.	609923	1471951867161	1471951867313	a	65
1238	12722	He is expected to play in Sunday's game and is listed as probable.	He is expected to play in Sunday's game and is listed as probable.	609924	1471951867337	1471951867490	y	89
1238	12722	He is expected to play in Sunday's game and is listed as probable.	He is expected to play in Sunday's game and is listed as probable.	609979	1471951867553	1471951867713	 	32
1238	12722	He is expected to play in Sunday's game and is listed as probable.	He is expected to play in Sunday's game and is listed as probable.	609980	1471951867721	1471951867865	i	73
1238	12722	He is expected to play in Sunday's game and is listed as probable.	He is expected to play in Sunday's game and is listed as probable.	609982	1471951867929	1471951868065	n	78
1238	12722	He is expected to play in Sunday's game and is listed as probable.	He is expected to play in Sunday's game and is listed as probable.	609984	1471951868057	1471951868241	 	32
1238	12722	He is expected to play in Sunday's game and is listed as probable.	He is expected to play in Sunday's game and is listed as probable.	609990	1471951868385	1471951868617	SHIFT	16
1238	12722	He is expected to play in Sunday's game and is listed as probable.	He is expected to play in Sunday's game and is listed as probable.	610068	1471951868497	1471951868641	S	83
1238	12722	He is expected to play in Sunday's game and is listed as probable.	He is expected to play in Sunday's game and is listed as probable.	610072	1471951868681	1471951868793	u	85
1238	12722	He is expected to play in Sunday's game and is listed as probable.	He is expected to play in Sunday's game and is listed as probable.	610075	1471951868889	1471951869001	n	78
1238	12722	He is expected to play in Sunday's game and is listed as probable.	He is expected to play in Sunday's game and is listed as probable.	610077	1471951869089	1471951869257	d	68
1238	12722	He is expected to play in Sunday's game and is listed as probable.	He is expected to play in Sunday's game and is listed as probable.	610079	1471951870041	1471951870177	t	84
1238	12722	He is expected to play in Sunday's game and is listed as probable.	He is expected to play in Sunday's game and is listed as probable.	610082	1471951870625	1471951870761	BKSP	8
1238	12722	He is expected to play in Sunday's game and is listed as probable.	He is expected to play in Sunday's game and is listed as probable.	610162	1471951870753	1471951870897	a	65
1238	12722	He is expected to play in Sunday's game and is listed as probable.	He is expected to play in Sunday's game and is listed as probable.	610164	1471951870921	1471951871049	t	84
1238	12722	He is expected to play in Sunday's game and is listed as probable.	He is expected to play in Sunday's game and is listed as probable.	610165	1471951871041	1471951871193	y	89
1238	12722	He is expected to play in Sunday's game and is listed as probable.	He is expected to play in Sunday's game and is listed as probable.	610166	1471951871545	1471951871689	BKSP	8
1238	12722	He is expected to play in Sunday's game and is listed as probable.	He is expected to play in Sunday's game and is listed as probable.	610168	1471951871825	1471951871905	BKSP	8
1238	12722	He is expected to play in Sunday's game and is listed as probable.	He is expected to play in Sunday's game and is listed as probable.	610171	1471951872337	1471951872449	y	89
1238	12722	He is expected to play in Sunday's game and is listed as probable.	He is expected to play in Sunday's game and is listed as probable.	610174	1471951873545	1471951873665	'	222
1238	12722	He is expected to play in Sunday's game and is listed as probable.	He is expected to play in Sunday's game and is listed as probable.	610177	1471951873689	1471951873825	s	83
1238	12722	He is expected to play in Sunday's game and is listed as probable.	He is expected to play in Sunday's game and is listed as probable.	610201	1471951873865	1471951874073	 	32
1238	12722	He is expected to play in Sunday's game and is listed as probable.	He is expected to play in Sunday's game and is listed as probable.	610202	1471951874321	1471951874465	g	71
1238	12722	He is expected to play in Sunday's game and is listed as probable.	He is expected to play in Sunday's game and is listed as probable.	610203	1471951874545	1471951874673	a	65
1238	12722	He is expected to play in Sunday's game and is listed as probable.	He is expected to play in Sunday's game and is listed as probable.	610204	1471951874697	1471951874857	m	77
1238	12722	He is expected to play in Sunday's game and is listed as probable.	He is expected to play in Sunday's game and is listed as probable.	610236	1471951874849	1471951875001	e	69
1238	12722	He is expected to play in Sunday's game and is listed as probable.	He is expected to play in Sunday's game and is listed as probable.	610237	1471951875041	1471951875209	 	32
1238	12722	He is expected to play in Sunday's game and is listed as probable.	He is expected to play in Sunday's game and is listed as probable.	610238	1471951875257	1471951875385	a	65
1238	12722	He is expected to play in Sunday's game and is listed as probable.	He is expected to play in Sunday's game and is listed as probable.	610239	1471951875401	1471951875553	n	78
1238	12722	He is expected to play in Sunday's game and is listed as probable.	He is expected to play in Sunday's game and is listed as probable.	610242	1471951875545	1471951875705	d	68
1238	12722	He is expected to play in Sunday's game and is listed as probable.	He is expected to play in Sunday's game and is listed as probable.	610244	1471951875745	1471951875914	 	32
1238	12722	He is expected to play in Sunday's game and is listed as probable.	He is expected to play in Sunday's game and is listed as probable.	610271	1471951875977	1471951876121	i	73
1238	12722	He is expected to play in Sunday's game and is listed as probable.	He is expected to play in Sunday's game and is listed as probable.	610272	1471951876129	1471951876258	s	83
1238	12722	He is expected to play in Sunday's game and is listed as probable.	He is expected to play in Sunday's game and is listed as probable.	610275	1471951876289	1471951876433	 	32
1238	12722	He is expected to play in Sunday's game and is listed as probable.	He is expected to play in Sunday's game and is listed as probable.	610280	1471951876505	1471951876625	l	76
1238	12722	He is expected to play in Sunday's game and is listed as probable.	He is expected to play in Sunday's game and is listed as probable.	610283	1471951876705	1471951876849	i	73
1238	12722	He is expected to play in Sunday's game and is listed as probable.	He is expected to play in Sunday's game and is listed as probable.	610329	1471951876825	1471951876945	s	83
1238	12722	He is expected to play in Sunday's game and is listed as probable.	He is expected to play in Sunday's game and is listed as probable.	610333	1471951877057	1471951877225	t	84
1238	12722	He is expected to play in Sunday's game and is listed as probable.	He is expected to play in Sunday's game and is listed as probable.	610336	1471951877329	1471951877457	e	69
1238	12722	He is expected to play in Sunday's game and is listed as probable.	He is expected to play in Sunday's game and is listed as probable.	610338	1471951877593	1471951877673	d	68
1238	12722	He is expected to play in Sunday's game and is listed as probable.	He is expected to play in Sunday's game and is listed as probable.	610340	1471951877705	1471951877857	 	32
1238	12722	He is expected to play in Sunday's game and is listed as probable.	He is expected to play in Sunday's game and is listed as probable.	610342	1471951877921	1471951878097	a	65
1238	12722	He is expected to play in Sunday's game and is listed as probable.	He is expected to play in Sunday's game and is listed as probable.	610368	1471951878265	1471951878417	s	83
1238	12722	He is expected to play in Sunday's game and is listed as probable.	He is expected to play in Sunday's game and is listed as probable.	610369	1471951878473	1471951878617	 	32
1238	12722	He is expected to play in Sunday's game and is listed as probable.	He is expected to play in Sunday's game and is listed as probable.	610370	1471951878729	1471951878881	p	80
1238	12722	He is expected to play in Sunday's game and is listed as probable.	He is expected to play in Sunday's game and is listed as probable.	610371	1471951878937	1471951879081	r	82
1238	12722	He is expected to play in Sunday's game and is listed as probable.	He is expected to play in Sunday's game and is listed as probable.	610372	1471951879161	1471951879297	o	79
1238	12722	He is expected to play in Sunday's game and is listed as probable.	He is expected to play in Sunday's game and is listed as probable.	610410	1471951879482	1471951879649	b	66
1238	12722	He is expected to play in Sunday's game and is listed as probable.	He is expected to play in Sunday's game and is listed as probable.	610415	1471951879737	1471951879873	a	65
1238	12722	He is expected to play in Sunday's game and is listed as probable.	He is expected to play in Sunday's game and is listed as probable.	610420	1471951880058	1471951880217	b	66
1238	12722	He is expected to play in Sunday's game and is listed as probable.	He is expected to play in Sunday's game and is listed as probable.	610422	1471951880241	1471951880369	l	76
1238	12722	He is expected to play in Sunday's game and is listed as probable.	He is expected to play in Sunday's game and is listed as probable.	610424	1471951880401	1471951880561	e	69
1238	12722	He is expected to play in Sunday's game and is listed as probable.	He is expected to play in Sunday's game and is listed as probable.	610570	1471951881705	1471951881793	,	188
1238	12722	He is expected to play in Sunday's game and is listed as probable.	He is expected to play in Sunday's game and is listed as probable.	610572	1471951883601	1471951883681	BKSP	8
1238	12722	He is expected to play in Sunday's game and is listed as probable.	He is expected to play in Sunday's game and is listed as probable.	610576	1471951884465	1471951884553	.	190
1238	12742	I need a little more stability in my work environment.	I need a little more stability in my work environment.	610730	1471951887105	1471951887313	SHIFT	16
1238	12742	I need a little more stability in my work environment.	I need a little more stability in my work environment.	610733	1471951887217	1471951887353	I	73
1238	12742	I need a little more stability in my work environment.	I need a little more stability in my work environment.	610736	1471951887385	1471951887529	 	32
1238	12742	I need a little more stability in my work environment.	I need a little more stability in my work environment.	610738	1471951887697	1471951887817	n	78
1238	12742	I need a little more stability in my work environment.	I need a little more stability in my work environment.	610740	1471951887849	1471951887961	e	69
1238	12742	I need a little more stability in my work environment.	I need a little more stability in my work environment.	610744	1471951888041	1471951888145	e	69
1238	12742	I need a little more stability in my work environment.	I need a little more stability in my work environment.	610773	1471951888265	1471951888401	d	68
1238	12742	I need a little more stability in my work environment.	I need a little more stability in my work environment.	610777	1471951888441	1471951888570	 	32
1238	12742	I need a little more stability in my work environment.	I need a little more stability in my work environment.	610781	1471951888561	1471951888713	a	65
1238	12742	I need a little more stability in my work environment.	I need a little more stability in my work environment.	610787	1471951888769	1471951888929	 	32
1238	12742	I need a little more stability in my work environment.	I need a little more stability in my work environment.	610790	1471951888937	1471951889073	l	76
1238	12742	I need a little more stability in my work environment.	I need a little more stability in my work environment.	610817	1471951889377	1471951889521	i	73
1238	12742	I need a little more stability in my work environment.	I need a little more stability in my work environment.	610821	1471951889609	1471951889729	t	84
1238	12742	I need a little more stability in my work environment.	I need a little more stability in my work environment.	610824	1471951889793	1471951889905	t	84
1238	12742	I need a little more stability in my work environment.	I need a little more stability in my work environment.	610826	1471951889929	1471951890121	l	76
1238	12742	I need a little more stability in my work environment.	I need a little more stability in my work environment.	610863	1471951890041	1471951890201	e	69
1238	12742	I need a little more stability in my work environment.	I need a little more stability in my work environment.	610865	1471951890233	1471951890401	 	32
1238	12742	I need a little more stability in my work environment.	I need a little more stability in my work environment.	610866	1471951890561	1471951890721	m	77
1238	12742	I need a little more stability in my work environment.	I need a little more stability in my work environment.	610867	1471951890753	1471951890913	o	79
1238	12742	I need a little more stability in my work environment.	I need a little more stability in my work environment.	610868	1471951890898	1471951891049	r	82
1238	12742	I need a little more stability in my work environment.	I need a little more stability in my work environment.	610869	1471951891113	1471951891265	e	69
1238	12742	I need a little more stability in my work environment.	I need a little more stability in my work environment.	610890	1471951891377	1471951891601	 	32
1238	12742	I need a little more stability in my work environment.	I need a little more stability in my work environment.	610892	1471951891825	1471951891953	s	83
1238	12742	I need a little more stability in my work environment.	I need a little more stability in my work environment.	610894	1471951892097	1471951892265	t	84
1238	12742	I need a little more stability in my work environment.	I need a little more stability in my work environment.	610896	1471951892337	1471951892521	a	65
1238	12742	I need a little more stability in my work environment.	I need a little more stability in my work environment.	610900	1471951892657	1471951892793	b	66
1238	12742	I need a little more stability in my work environment.	I need a little more stability in my work environment.	610932	1471951892873	1471951893001	i	73
1238	12742	I need a little more stability in my work environment.	I need a little more stability in my work environment.	610934	1471951893089	1471951893321	l	76
1238	12742	I need a little more stability in my work environment.	I need a little more stability in my work environment.	610935	1471951893313	1471951893473	i	73
1238	12742	I need a little more stability in my work environment.	I need a little more stability in my work environment.	610936	1471951893521	1471951893641	t	84
1238	12742	I need a little more stability in my work environment.	I need a little more stability in my work environment.	610937	1471951893649	1471951893809	y	89
1238	12742	I need a little more stability in my work environment.	I need a little more stability in my work environment.	610947	1471951893817	1471951893985	 	32
1238	12742	I need a little more stability in my work environment.	I need a little more stability in my work environment.	610949	1471951893993	1471951894129	i	73
1238	12742	I need a little more stability in my work environment.	I need a little more stability in my work environment.	610951	1471951894193	1471951894321	n	78
1238	12742	I need a little more stability in my work environment.	I need a little more stability in my work environment.	610953	1471951894306	1471951894481	 	32
1238	12742	I need a little more stability in my work environment.	I need a little more stability in my work environment.	610955	1471951894729	1471951894849	m	77
1238	12742	I need a little more stability in my work environment.	I need a little more stability in my work environment.	610987	1471951894977	1471951895113	y	89
1238	12742	I need a little more stability in my work environment.	I need a little more stability in my work environment.	610988	1471951895145	1471951895329	 	32
1238	12742	I need a little more stability in my work environment.	I need a little more stability in my work environment.	610989	1471951895649	1471951895793	w	87
1238	12742	I need a little more stability in my work environment.	I need a little more stability in my work environment.	610990	1471951895881	1471951896025	o	79
1238	12742	I need a little more stability in my work environment.	I need a little more stability in my work environment.	611057	1471951896017	1471951896169	r	82
1238	12742	I need a little more stability in my work environment.	I need a little more stability in my work environment.	611059	1471951896313	1471951896481	k	75
1238	12742	I need a little more stability in my work environment.	I need a little more stability in my work environment.	611062	1471951896609	1471951896745	 	32
1238	12742	I need a little more stability in my work environment.	I need a little more stability in my work environment.	611068	1471951896889	1471951897082	e	69
1238	12742	I need a little more stability in my work environment.	I need a little more stability in my work environment.	611071	1471951897177	1471951897313	n	78
1238	12742	I need a little more stability in my work environment.	I need a little more stability in my work environment.	611078	1471951897962	1471951898114	v	86
1238	12742	I need a little more stability in my work environment.	I need a little more stability in my work environment.	611198	1471951898450	1471951898578	i	73
1238	12742	I need a little more stability in my work environment.	I need a little more stability in my work environment.	611200	1471951898626	1471951898754	r	82
1238	12742	I need a little more stability in my work environment.	I need a little more stability in my work environment.	611204	1471951899610	1471951899730	o	79
1238	12742	I need a little more stability in my work environment.	I need a little more stability in my work environment.	611206	1471951900746	1471951900842	n	78
1238	12742	I need a little more stability in my work environment.	I need a little more stability in my work environment.	611208	1471951900970	1471951901066	m	77
1238	12742	I need a little more stability in my work environment.	I need a little more stability in my work environment.	611244	1471951901162	1471951901266	e	69
1238	12742	I need a little more stability in my work environment.	I need a little more stability in my work environment.	611248	1471951901290	1471951901394	n	78
1238	12742	I need a little more stability in my work environment.	I need a little more stability in my work environment.	611252	1471951901410	1471951901554	t	84
1238	12742	I need a little more stability in my work environment.	I need a little more stability in my work environment.	611256	1471951901842	1471951901970	.	190
1238	12756	If it needs to be paid, we will need to add the day to the deal.	If it needs to be paid, we will need to add the day to the deal.	611348	1471951904810	1471951905090	SHIFT	16
1238	12756	If it needs to be paid, we will need to add the day to the deal.	If it needs to be paid, we will need to add the day to the deal.	611350	1471951904953	1471951905097	I	73
1238	12756	If it needs to be paid, we will need to add the day to the deal.	If it needs to be paid, we will need to add the day to the deal.	611352	1471951905098	1471951905249	f	70
1238	12756	If it needs to be paid, we will need to add the day to the deal.	If it needs to be paid, we will need to add the day to the deal.	611354	1471951905257	1471951905394	 	32
1238	12756	If it needs to be paid, we will need to add the day to the deal.	If it needs to be paid, we will need to add the day to the deal.	611356	1471951905434	1471951905578	i	73
1238	12756	If it needs to be paid, we will need to add the day to the deal.	If it needs to be paid, we will need to add the day to the deal.	611359	1471951905594	1471951905738	t	84
1238	12756	If it needs to be paid, we will need to add the day to the deal.	If it needs to be paid, we will need to add the day to the deal.	611392	1471951905745	1471951905913	 	32
1238	12756	If it needs to be paid, we will need to add the day to the deal.	If it needs to be paid, we will need to add the day to the deal.	611393	1471951906001	1471951906130	n	78
1238	12756	If it needs to be paid, we will need to add the day to the deal.	If it needs to be paid, we will need to add the day to the deal.	611394	1471951906106	1471951906266	e	69
1238	12756	If it needs to be paid, we will need to add the day to the deal.	If it needs to be paid, we will need to add the day to the deal.	611395	1471951906329	1471951906434	e	69
1238	12756	If it needs to be paid, we will need to add the day to the deal.	If it needs to be paid, we will need to add the day to the deal.	611396	1471951906529	1471951906681	d	68
1238	12756	If it needs to be paid, we will need to add the day to the deal.	If it needs to be paid, we will need to add the day to the deal.	611428	1471951906761	1471951906929	s	83
1238	12756	If it needs to be paid, we will need to add the day to the deal.	If it needs to be paid, we will need to add the day to the deal.	611430	1471951906969	1471951907130	 	32
1238	12756	If it needs to be paid, we will need to add the day to the deal.	If it needs to be paid, we will need to add the day to the deal.	611433	1471951907137	1471951907274	t	84
1238	12756	If it needs to be paid, we will need to add the day to the deal.	If it needs to be paid, we will need to add the day to the deal.	611436	1471951907305	1471951907482	o	79
1238	12756	If it needs to be paid, we will need to add the day to the deal.	If it needs to be paid, we will need to add the day to the deal.	611452	1471951907434	1471951907634	 	32
1238	12756	If it needs to be paid, we will need to add the day to the deal.	If it needs to be paid, we will need to add the day to the deal.	611454	1471951907745	1471951907889	b	66
1238	12756	If it needs to be paid, we will need to add the day to the deal.	If it needs to be paid, we will need to add the day to the deal.	611456	1471951908001	1471951908161	e	69
1238	12756	If it needs to be paid, we will need to add the day to the deal.	If it needs to be paid, we will need to add the day to the deal.	611458	1471951908185	1471951908346	 	32
1238	12756	If it needs to be paid, we will need to add the day to the deal.	If it needs to be paid, we will need to add the day to the deal.	611460	1471951908401	1471951908554	p	80
1238	12756	If it needs to be paid, we will need to add the day to the deal.	If it needs to be paid, we will need to add the day to the deal.	611462	1471951908570	1471951908697	a	65
1238	12756	If it needs to be paid, we will need to add the day to the deal.	If it needs to be paid, we will need to add the day to the deal.	611483	1471951908769	1471951908938	i	73
1238	12756	If it needs to be paid, we will need to add the day to the deal.	If it needs to be paid, we will need to add the day to the deal.	611485	1471951908946	1471951909106	d	68
1238	12756	If it needs to be paid, we will need to add the day to the deal.	If it needs to be paid, we will need to add the day to the deal.	611488	1471951909193	1471951909394	,	188
1238	12756	If it needs to be paid, we will need to add the day to the deal.	If it needs to be paid, we will need to add the day to the deal.	611493	1471951909385	1471951909569	 	32
1238	12756	If it needs to be paid, we will need to add the day to the deal.	If it needs to be paid, we will need to add the day to the deal.	611495	1471951909713	1471951909874	w	87
1238	12756	If it needs to be paid, we will need to add the day to the deal.	If it needs to be paid, we will need to add the day to the deal.	611521	1471951910001	1471951910129	e	69
1238	12756	If it needs to be paid, we will need to add the day to the deal.	If it needs to be paid, we will need to add the day to the deal.	611522	1471951910193	1471951910354	 	32
1238	12756	If it needs to be paid, we will need to add the day to the deal.	If it needs to be paid, we will need to add the day to the deal.	611523	1471951910553	1471951910609	i	73
1238	12756	If it needs to be paid, we will need to add the day to the deal.	If it needs to be paid, we will need to add the day to the deal.	611524	1471951911090	1471951911202	BKSP	8
1238	12756	If it needs to be paid, we will need to add the day to the deal.	If it needs to be paid, we will need to add the day to the deal.	611525	1471951911210	1471951911346	w	87
1238	12756	If it needs to be paid, we will need to add the day to the deal.	If it needs to be paid, we will need to add the day to the deal.	611526	1471951911378	1471951911513	i	73
1238	12756	If it needs to be paid, we will need to add the day to the deal.	If it needs to be paid, we will need to add the day to the deal.	611548	1471951911601	1471951911706	l	76
1238	12756	If it needs to be paid, we will need to add the day to the deal.	If it needs to be paid, we will need to add the day to the deal.	611549	1471951911778	1471951911914	l	76
1238	12756	If it needs to be paid, we will need to add the day to the deal.	If it needs to be paid, we will need to add the day to the deal.	611550	1471951911922	1471951912090	 	32
1238	12756	If it needs to be paid, we will need to add the day to the deal.	If it needs to be paid, we will need to add the day to the deal.	611552	1471951912185	1471951912322	n	78
1238	12756	If it needs to be paid, we will need to add the day to the deal.	If it needs to be paid, we will need to add the day to the deal.	611555	1471951912323	1471951912473	e	69
1238	12756	If it needs to be paid, we will need to add the day to the deal.	If it needs to be paid, we will need to add the day to the deal.	611607	1471951912649	1471951912762	d	68
1238	12756	If it needs to be paid, we will need to add the day to the deal.	If it needs to be paid, we will need to add the day to the deal.	611609	1471951912865	1471951912953	d	68
1238	12756	If it needs to be paid, we will need to add the day to the deal.	If it needs to be paid, we will need to add the day to the deal.	611611	1471951913241	1471951913361	BKSP	8
1238	12756	If it needs to be paid, we will need to add the day to the deal.	If it needs to be paid, we will need to add the day to the deal.	611614	1471951913434	1471951913586	e	69
1238	12756	If it needs to be paid, we will need to add the day to the deal.	If it needs to be paid, we will need to add the day to the deal.	611617	1471951913921	1471951914017	BKSP	8
1238	12756	If it needs to be paid, we will need to add the day to the deal.	If it needs to be paid, we will need to add the day to the deal.	611620	1471951914098	1471951914201	BKSP	8
1238	12756	If it needs to be paid, we will need to add the day to the deal.	If it needs to be paid, we will need to add the day to the deal.	611623	1471951914194	1471951914345	e	69
1238	12756	If it needs to be paid, we will need to add the day to the deal.	If it needs to be paid, we will need to add the day to the deal.	611626	1471951914465	1471951914594	d	68
1238	12756	If it needs to be paid, we will need to add the day to the deal.	If it needs to be paid, we will need to add the day to the deal.	611644	1471951914857	1471951915034	 	32
1238	12756	If it needs to be paid, we will need to add the day to the deal.	If it needs to be paid, we will need to add the day to the deal.	611651	1471951915049	1471951915185	t	84
1238	12756	If it needs to be paid, we will need to add the day to the deal.	If it needs to be paid, we will need to add the day to the deal.	611656	1471951915202	1471951915362	o	79
1238	12756	If it needs to be paid, we will need to add the day to the deal.	If it needs to be paid, we will need to add the day to the deal.	611660	1471951915337	1471951915546	 	32
1238	12756	If it needs to be paid, we will need to add the day to the deal.	If it needs to be paid, we will need to add the day to the deal.	611664	1471951915570	1471951915754	a	65
1238	12756	If it needs to be paid, we will need to add the day to the deal.	If it needs to be paid, we will need to add the day to the deal.	611676	1471951915890	1471951916042	d	68
1238	12756	If it needs to be paid, we will need to add the day to the deal.	If it needs to be paid, we will need to add the day to the deal.	611678	1471951916129	1471951916242	d	68
1238	12756	If it needs to be paid, we will need to add the day to the deal.	If it needs to be paid, we will need to add the day to the deal.	611679	1471951916234	1471951916394	 	32
1238	12756	If it needs to be paid, we will need to add the day to the deal.	If it needs to be paid, we will need to add the day to the deal.	611681	1471951916378	1471951916529	t	84
1238	12756	If it needs to be paid, we will need to add the day to the deal.	If it needs to be paid, we will need to add the day to the deal.	611719	1471951916522	1471951916634	h	72
1238	12756	If it needs to be paid, we will need to add the day to the deal.	If it needs to be paid, we will need to add the day to the deal.	611722	1471951916546	1471951916730	e	69
1238	12756	If it needs to be paid, we will need to add the day to the deal.	If it needs to be paid, we will need to add the day to the deal.	611724	1471951916753	1471951916937	 	32
1238	12756	If it needs to be paid, we will need to add the day to the deal.	If it needs to be paid, we will need to add the day to the deal.	611726	1471951917065	1471951917202	d	68
1238	12756	If it needs to be paid, we will need to add the day to the deal.	If it needs to be paid, we will need to add the day to the deal.	611728	1471951917337	1471951917489	a	65
1238	12756	If it needs to be paid, we will need to add the day to the deal.	If it needs to be paid, we will need to add the day to the deal.	611730	1471951917641	1471951917818	t	84
1238	12756	If it needs to be paid, we will need to add the day to the deal.	If it needs to be paid, we will need to add the day to the deal.	611765	1471951917946	1471951918122	 	32
1238	12756	If it needs to be paid, we will need to add the day to the deal.	If it needs to be paid, we will need to add the day to the deal.	611766	1471951918465	1471951918553	BKSP	8
1238	12756	If it needs to be paid, we will need to add the day to the deal.	If it needs to be paid, we will need to add the day to the deal.	611768	1471951918649	1471951918721	BKSP	8
1238	12756	If it needs to be paid, we will need to add the day to the deal.	If it needs to be paid, we will need to add the day to the deal.	611769	1471951918866	1471951919002	y	89
1238	12756	If it needs to be paid, we will need to add the day to the deal.	If it needs to be paid, we will need to add the day to the deal.	611772	1471951919049	1471951919210	 	32
1238	12756	If it needs to be paid, we will need to add the day to the deal.	If it needs to be paid, we will need to add the day to the deal.	611774	1471951919218	1471951919355	t	84
1238	12756	If it needs to be paid, we will need to add the day to the deal.	If it needs to be paid, we will need to add the day to the deal.	611782	1471951919337	1471951919506	o	79
1238	12756	If it needs to be paid, we will need to add the day to the deal.	If it needs to be paid, we will need to add the day to the deal.	611783	1471951919521	1471951919674	 	32
1238	12756	If it needs to be paid, we will need to add the day to the deal.	If it needs to be paid, we will need to add the day to the deal.	611784	1471951919666	1471951919817	t	84
1238	12756	If it needs to be paid, we will need to add the day to the deal.	If it needs to be paid, we will need to add the day to the deal.	611785	1471951919769	1471951919922	h	72
1238	12756	If it needs to be paid, we will need to add the day to the deal.	If it needs to be paid, we will need to add the day to the deal.	611787	1471951919882	1471951920033	e	69
1238	12756	If it needs to be paid, we will need to add the day to the deal.	If it needs to be paid, we will need to add the day to the deal.	611833	1471951920025	1471951920210	 	32
1238	12756	If it needs to be paid, we will need to add the day to the deal.	If it needs to be paid, we will need to add the day to the deal.	611836	1471951920282	1471951920449	d	68
1238	12756	If it needs to be paid, we will need to add the day to the deal.	If it needs to be paid, we will need to add the day to the deal.	611839	1471951920833	1471951920953	e	69
1238	12756	If it needs to be paid, we will need to add the day to the deal.	If it needs to be paid, we will need to add the day to the deal.	611842	1471951921089	1471951921225	a	65
1238	12756	If it needs to be paid, we will need to add the day to the deal.	If it needs to be paid, we will need to add the day to the deal.	611844	1471951921353	1471951921482	l	76
1238	12756	If it needs to be paid, we will need to add the day to the deal.	If it needs to be paid, we will need to add the day to the deal.	611845	1471951921729	1471951921881	.	190
1238	12770	Europe has lost a great ally.	Europe has lost a great ally.	611972	1471951924170	1471951924489	SHIFT	16
1238	12770	Europe has lost a great ally.	Europe has lost a great ally.	611969	1471951924289	1471951924449	E	69
1238	12770	Europe has lost a great ally.	Europe has lost a great ally.	611974	1471951924705	1471951924842	r	82
1238	12770	Europe has lost a great ally.	Europe has lost a great ally.	611978	1471951924882	1471951925034	u	85
1238	12770	Europe has lost a great ally.	Europe has lost a great ally.	611981	1471951925321	1471951925410	BKSP	8
1238	12770	Europe has lost a great ally.	Europe has lost a great ally.	611986	1471951925466	1471951925562	BKSP	8
1238	12770	Europe has lost a great ally.	Europe has lost a great ally.	611989	1471951925666	1471951925794	u	85
1238	12770	Europe has lost a great ally.	Europe has lost a great ally.	611994	1471951925810	1471951925962	r	82
1238	12770	Europe has lost a great ally.	Europe has lost a great ally.	612009	1471951926137	1471951926250	o	79
1238	12770	Europe has lost a great ally.	Europe has lost a great ally.	612012	1471951926490	1471951926682	p	80
1238	12770	Europe has lost a great ally.	Europe has lost a great ally.	612013	1471951926737	1471951926866	e	69
1238	12770	Europe has lost a great ally.	Europe has lost a great ally.	612016	1471951926913	1471951927082	 	32
1238	12770	Europe has lost a great ally.	Europe has lost a great ally.	612017	1471951927185	1471951927306	h	72
1238	12770	Europe has lost a great ally.	Europe has lost a great ally.	612040	1471951927346	1471951927458	a	65
1238	12770	Europe has lost a great ally.	Europe has lost a great ally.	612042	1471951927617	1471951927754	s	83
1238	12770	Europe has lost a great ally.	Europe has lost a great ally.	612044	1471951927762	1471951927906	 	32
1238	12770	Europe has lost a great ally.	Europe has lost a great ally.	612045	1471951927969	1471951928082	l	76
1238	12770	Europe has lost a great ally.	Europe has lost a great ally.	612047	1471951928178	1471951928330	o	79
1238	12770	Europe has lost a great ally.	Europe has lost a great ally.	612076	1471951928361	1471951928538	s	83
1238	12770	Europe has lost a great ally.	Europe has lost a great ally.	612077	1471951928666	1471951928793	t	84
1238	12770	Europe has lost a great ally.	Europe has lost a great ally.	612078	1471951928833	1471951929025	 	32
1238	12770	Europe has lost a great ally.	Europe has lost a great ally.	612079	1471951929090	1471951929242	a	65
1238	12770	Europe has lost a great ally.	Europe has lost a great ally.	612080	1471951929433	1471951929593	 	32
1238	12770	Europe has lost a great ally.	Europe has lost a great ally.	612102	1471951929769	1471951929905	g	71
1238	12770	Europe has lost a great ally.	Europe has lost a great ally.	612103	1471951930049	1471951930217	r	82
1238	12770	Europe has lost a great ally.	Europe has lost a great ally.	612104	1471951930273	1471951930433	e	69
1238	12770	Europe has lost a great ally.	Europe has lost a great ally.	612105	1471951930562	1471951930706	a	65
1238	12770	Europe has lost a great ally.	Europe has lost a great ally.	612106	1471951930721	1471951930865	t	84
1238	12770	Europe has lost a great ally.	Europe has lost a great ally.	612128	1471951930857	1471951931049	 	32
1238	12770	Europe has lost a great ally.	Europe has lost a great ally.	612129	1471951931129	1471951931281	a	65
1238	12770	Europe has lost a great ally.	Europe has lost a great ally.	612130	1471951931305	1471951931401	l	76
1238	12770	Europe has lost a great ally.	Europe has lost a great ally.	612132	1471951931498	1471951931666	l	76
1238	12770	Europe has lost a great ally.	Europe has lost a great ally.	612134	1471951931642	1471951931754	y	89
1238	12770	Europe has lost a great ally.	Europe has lost a great ally.	612136	1471951932010	1471951932186	.	190
1238	12775	Will let you know how call goes in morning.	Will let you know how call goes in morning.	612197	1471951935098	1471951935377	SHIFT	16
1238	12775	Will let you know how call goes in morning.	Will let you know how call goes in morning.	612198	1471951935249	1471951935409	W	87
1238	12775	Will let you know how call goes in morning.	Will let you know how call goes in morning.	612199	1471951935457	1471951935561	i	73
1238	12775	Will let you know how call goes in morning.	Will let you know how call goes in morning.	612200	1471951935665	1471951935746	l	76
1238	12775	Will let you know how call goes in morning.	Will let you know how call goes in morning.	612201	1471951935817	1471951935970	l	76
1238	12775	Will let you know how call goes in morning.	Will let you know how call goes in morning.	612227	1471951935946	1471951936145	 	32
1238	12775	Will let you know how call goes in morning.	Will let you know how call goes in morning.	612229	1471951936377	1471951936538	l	76
1238	12775	Will let you know how call goes in morning.	Will let you know how call goes in morning.	612231	1471951936970	1471951937122	e	69
1238	12775	Will let you know how call goes in morning.	Will let you know how call goes in morning.	612232	1471951937257	1471951937410	t	84
1238	12775	Will let you know how call goes in morning.	Will let you know how call goes in morning.	612233	1471951937465	1471951937665	 	32
1238	12775	Will let you know how call goes in morning.	Will let you know how call goes in morning.	612246	1471951937649	1471951937817	y	89
1238	12775	Will let you know how call goes in morning.	Will let you know how call goes in morning.	612248	1471951937825	1471951938089	o	79
1238	12775	Will let you know how call goes in morning.	Will let you know how call goes in morning.	612250	1471951937969	1471951938153	u	85
1238	12775	Will let you know how call goes in morning.	Will let you know how call goes in morning.	612252	1471951938145	1471951938297	 	32
1238	12775	Will let you know how call goes in morning.	Will let you know how call goes in morning.	612254	1471951938369	1471951938505	k	75
1238	12775	Will let you know how call goes in morning.	Will let you know how call goes in morning.	612256	1471951938609	1471951938770	n	78
1238	12775	Will let you know how call goes in morning.	Will let you know how call goes in morning.	612272	1471951938833	1471951938986	o	79
1238	12775	Will let you know how call goes in morning.	Will let you know how call goes in morning.	612273	1471951939105	1471951939242	w	87
1238	12775	Will let you know how call goes in morning.	Will let you know how call goes in morning.	612274	1471951939313	1471951939450	 	32
1238	12775	Will let you know how call goes in morning.	Will let you know how call goes in morning.	612275	1471951939665	1471951939817	h	72
1238	12775	Will let you know how call goes in morning.	Will let you know how call goes in morning.	612276	1471951939865	1471951940009	o	79
1238	12775	Will let you know how call goes in morning.	Will let you know how call goes in morning.	612302	1471951940065	1471951940209	w	87
1238	12775	Will let you know how call goes in morning.	Will let you know how call goes in morning.	612305	1471951940265	1471951940433	 	32
1238	12775	Will let you know how call goes in morning.	Will let you know how call goes in morning.	612308	1471951941090	1471951941170	v	67
1238	12775	Will let you know how call goes in morning.	Will let you know how call goes in morning.	612310	1471951941329	1471951941441	a	65
1238	12775	Will let you know how call goes in morning.	Will let you know how call goes in morning.	612344	1471951941769	1471951941850	BKSP	8
1238	12775	Will let you know how call goes in morning.	Will let you know how call goes in morning.	612348	1471951941929	1471951942050	BKSP	8
1238	12775	Will let you know how call goes in morning.	Will let you know how call goes in morning.	612351	1471951942090	1471951942177	a	65
1238	12775	Will let you know how call goes in morning.	Will let you know how call goes in morning.	612353	1471951942209	1471951942346	l	76
1238	12775	Will let you know how call goes in morning.	Will let you know how call goes in morning.	612356	1471951942426	1471951942578	l	76
1238	12775	Will let you know how call goes in morning.	Will let you know how call goes in morning.	612358	1471951942586	1471951942778	 	32
1238	12775	Will let you know how call goes in morning.	Will let you know how call goes in morning.	612359	1471951942890	1471951943010	g	71
1238	12775	Will let you know how call goes in morning.	Will let you know how call goes in morning.	612382	1471951943034	1471951943186	o	79
1238	12775	Will let you know how call goes in morning.	Will let you know how call goes in morning.	612385	1471951943425	1471951943449	e	69
1238	12775	Will let you know how call goes in morning.	Will let you know how call goes in morning.	612389	1471951943881	1471951944025	s	83
1238	12775	Will let you know how call goes in morning.	Will let you know how call goes in morning.	612392	1471951944017	1471951944169	 	32
1238	12775	Will let you know how call goes in morning.	Will let you know how call goes in morning.	612394	1471951944178	1471951944329	i	73
1238	12775	Will let you know how call goes in morning.	Will let you know how call goes in morning.	612406	1471951944426	1471951944562	n	78
1238	12775	Will let you know how call goes in morning.	Will let you know how call goes in morning.	612408	1471951944522	1471951944721	 	32
1238	12775	Will let you know how call goes in morning.	Will let you know how call goes in morning.	612410	1471951944841	1471951944962	m	77
1238	12775	Will let you know how call goes in morning.	Will let you know how call goes in morning.	612412	1471951945009	1471951945226	o	79
1238	12775	Will let you know how call goes in morning.	Will let you know how call goes in morning.	612427	1471951945202	1471951945330	r	82
1238	12775	Will let you know how call goes in morning.	Will let you know how call goes in morning.	612428	1471951945449	1471951945585	n	78
1238	12775	Will let you know how call goes in morning.	Will let you know how call goes in morning.	612429	1471951945641	1471951945769	i	73
1238	12775	Will let you know how call goes in morning.	Will let you know how call goes in morning.	612430	1471951945794	1471951945962	n	78
1238	12775	Will let you know how call goes in morning.	Will let you know how call goes in morning.	612431	1471951945929	1471951946074	g	71
1238	12775	Will let you know how call goes in morning.	Will let you know how call goes in morning.	612432	1471951946193	1471951946330	.	190
1238	12785	Bob, I'll take Oakland as my winner this week.	Bob, I'll take Oakland as my winner this week.	612563	1471951948882	1471951949138	SHIFT	16
1238	12785	Bob, I'll take Oakland as my winner this week.	Bob, I'll take Oakland as my winner this week.	612561	1471951948977	1471951949130	B	66
1238	12785	Bob, I'll take Oakland as my winner this week.	Bob, I'll take Oakland as my winner this week.	612565	1471951949282	1471951949417	o	79
1238	12785	Bob, I'll take Oakland as my winner this week.	Bob, I'll take Oakland as my winner this week.	612567	1471951949577	1471951949689	h	71
1238	12785	Bob, I'll take Oakland as my winner this week.	Bob, I'll take Oakland as my winner this week.	612569	1471951950122	1471951950209	BKSP	8
1238	12785	Bob, I'll take Oakland as my winner this week.	Bob, I'll take Oakland as my winner this week.	612571	1471951950273	1471951950377	BKSP	8
1238	12785	Bob, I'll take Oakland as my winner this week.	Bob, I'll take Oakland as my winner this week.	612574	1471951950425	1471951950554	g	71
1238	12785	Bob, I'll take Oakland as my winner this week.	Bob, I'll take Oakland as my winner this week.	612663	1471951951002	1471951951137	BKSP	8
1238	12785	Bob, I'll take Oakland as my winner this week.	Bob, I'll take Oakland as my winner this week.	612664	1471951951513	1471951951618	b	66
1238	12785	Bob, I'll take Oakland as my winner this week.	Bob, I'll take Oakland as my winner this week.	612665	1471951951705	1471951951788	,	188
1238	12785	Bob, I'll take Oakland as my winner this week.	Bob, I'll take Oakland as my winner this week.	612668	1471951952209	1471951952369	 	32
1238	12785	Bob, I'll take Oakland as my winner this week.	Bob, I'll take Oakland as my winner this week.	612673	1471951952730	1471951952961	SHIFT	16
1238	12785	Bob, I'll take Oakland as my winner this week.	Bob, I'll take Oakland as my winner this week.	612670	1471951952834	1471951952945	I	73
1238	12785	Bob, I'll take Oakland as my winner this week.	Bob, I'll take Oakland as my winner this week.	612677	1471951953770	1471951953881	'	222
1238	12785	Bob, I'll take Oakland as my winner this week.	Bob, I'll take Oakland as my winner this week.	612694	1471951954225	1471951954297	l	76
1238	12785	Bob, I'll take Oakland as my winner this week.	Bob, I'll take Oakland as my winner this week.	612696	1471951954377	1471951954498	l	76
1238	12785	Bob, I'll take Oakland as my winner this week.	Bob, I'll take Oakland as my winner this week.	612698	1471951954498	1471951954698	 	32
1238	12785	Bob, I'll take Oakland as my winner this week.	Bob, I'll take Oakland as my winner this week.	612701	1471951955001	1471951955138	t	84
1238	12785	Bob, I'll take Oakland as my winner this week.	Bob, I'll take Oakland as my winner this week.	612703	1471951955257	1471951955418	a	65
1238	12785	Bob, I'll take Oakland as my winner this week.	Bob, I'll take Oakland as my winner this week.	612743	1471951955410	1471951955553	k	75
1238	12785	Bob, I'll take Oakland as my winner this week.	Bob, I'll take Oakland as my winner this week.	612745	1471951955601	1471951955769	e	69
1238	12785	Bob, I'll take Oakland as my winner this week.	Bob, I'll take Oakland as my winner this week.	612747	1471951955801	1471951955937	 	32
1238	12785	Bob, I'll take Oakland as my winner this week.	Bob, I'll take Oakland as my winner this week.	612751	1471951956161	1471951956441	SHIFT	16
1238	12785	Bob, I'll take Oakland as my winner this week.	Bob, I'll take Oakland as my winner this week.	612749	1471951956265	1471951956378	O	79
1238	12785	Bob, I'll take Oakland as my winner this week.	Bob, I'll take Oakland as my winner this week.	612754	1471951956689	1471951956849	a	65
1238	12785	Bob, I'll take Oakland as my winner this week.	Bob, I'll take Oakland as my winner this week.	612758	1471951956961	1471951957090	k	75
1238	12785	Bob, I'll take Oakland as my winner this week.	Bob, I'll take Oakland as my winner this week.	612772	1471951957257	1471951957394	l	76
1238	12785	Bob, I'll take Oakland as my winner this week.	Bob, I'll take Oakland as my winner this week.	612775	1471951957394	1471951957562	a	65
1238	12785	Bob, I'll take Oakland as my winner this week.	Bob, I'll take Oakland as my winner this week.	612778	1471951957625	1471951957770	n	78
1238	12785	Bob, I'll take Oakland as my winner this week.	Bob, I'll take Oakland as my winner this week.	612781	1471951957897	1471951958057	d	68
1238	12785	Bob, I'll take Oakland as my winner this week.	Bob, I'll take Oakland as my winner this week.	612784	1471951958089	1471951958233	 	32
1238	12785	Bob, I'll take Oakland as my winner this week.	Bob, I'll take Oakland as my winner this week.	612807	1471951958297	1471951958465	a	65
1238	12785	Bob, I'll take Oakland as my winner this week.	Bob, I'll take Oakland as my winner this week.	612808	1471951958569	1471951958721	s	83
1238	12785	Bob, I'll take Oakland as my winner this week.	Bob, I'll take Oakland as my winner this week.	612809	1471951958722	1471951958850	 	32
1238	12785	Bob, I'll take Oakland as my winner this week.	Bob, I'll take Oakland as my winner this week.	612810	1471951958913	1471951959058	m	77
1238	12785	Bob, I'll take Oakland as my winner this week.	Bob, I'll take Oakland as my winner this week.	612811	1471951959185	1471951959281	y	89
1238	12785	Bob, I'll take Oakland as my winner this week.	Bob, I'll take Oakland as my winner this week.	612835	1471951959337	1471951959529	 	32
1238	12785	Bob, I'll take Oakland as my winner this week.	Bob, I'll take Oakland as my winner this week.	612836	1471951959553	1471951959721	w	87
1238	12785	Bob, I'll take Oakland as my winner this week.	Bob, I'll take Oakland as my winner this week.	612838	1471951959705	1471951959865	i	73
1238	12785	Bob, I'll take Oakland as my winner this week.	Bob, I'll take Oakland as my winner this week.	612840	1471951960033	1471951960145	n	78
1238	12785	Bob, I'll take Oakland as my winner this week.	Bob, I'll take Oakland as my winner this week.	612841	1471951960233	1471951960345	n	78
1238	12785	Bob, I'll take Oakland as my winner this week.	Bob, I'll take Oakland as my winner this week.	612890	1471951960418	1471951960626	e	69
1238	12785	Bob, I'll take Oakland as my winner this week.	Bob, I'll take Oakland as my winner this week.	612893	1471951960699	1471951960841	r	82
1238	12785	Bob, I'll take Oakland as my winner this week.	Bob, I'll take Oakland as my winner this week.	612895	1471951960857	1471951961001	 	32
1238	12785	Bob, I'll take Oakland as my winner this week.	Bob, I'll take Oakland as my winner this week.	612897	1471951961273	1471951961393	t	84
1238	12785	Bob, I'll take Oakland as my winner this week.	Bob, I'll take Oakland as my winner this week.	612899	1471951961401	1471951961553	h	72
1238	12785	Bob, I'll take Oakland as my winner this week.	Bob, I'll take Oakland as my winner this week.	612935	1471951961601	1471951961737	i	73
1238	12785	Bob, I'll take Oakland as my winner this week.	Bob, I'll take Oakland as my winner this week.	612938	1471951961761	1471951961913	s	83
1238	12785	Bob, I'll take Oakland as my winner this week.	Bob, I'll take Oakland as my winner this week.	612942	1471951961969	1471951962185	 	32
1238	12785	Bob, I'll take Oakland as my winner this week.	Bob, I'll take Oakland as my winner this week.	612946	1471951962345	1471951962522	w	87
1238	12785	Bob, I'll take Oakland as my winner this week.	Bob, I'll take Oakland as my winner this week.	612949	1471951962641	1471951962794	e	69
1238	12785	Bob, I'll take Oakland as my winner this week.	Bob, I'll take Oakland as my winner this week.	612976	1471951962857	1471951962962	e	69
1238	12785	Bob, I'll take Oakland as my winner this week.	Bob, I'll take Oakland as my winner this week.	612977	1471951963025	1471951963154	k	75
1238	12785	Bob, I'll take Oakland as my winner this week.	Bob, I'll take Oakland as my winner this week.	612978	1471951963409	1471951963538	.	190
1238	12797	Bob,I'll take Denver to Win.	Bob, I'll take Denver to Win.	613122	1471951965913	1471951966145	SHIFT	16
1238	12797	Bob,I'll take Denver to Win.	Bob, I'll take Denver to Win.	613124	1471951966025	1471951966177	B	66
1238	12797	Bob,I'll take Denver to Win.	Bob, I'll take Denver to Win.	613126	1471951966273	1471951966401	o	79
1238	12797	Bob,I'll take Denver to Win.	Bob, I'll take Denver to Win.	613128	1471951966866	1471951967026	b	66
1238	12797	Bob,I'll take Denver to Win.	Bob, I'll take Denver to Win.	613130	1471951967201	1471951967369	,	188
1238	12797	Bob,I'll take Denver to Win.	Bob, I'll take Denver to Win.	613132	1471951967481	1471951967617	 	32
1238	12797	Bob,I'll take Denver to Win.	Bob, I'll take Denver to Win.	613213	1471951968393	1471951968697	SHIFT	16
1238	12797	Bob,I'll take Denver to Win.	Bob, I'll take Denver to Win.	613211	1471951968498	1471951968585	I	73
1238	12797	Bob,I'll take Denver to Win.	Bob, I'll take Denver to Win.	613215	1471951970121	1471951970193	'	222
1238	12797	Bob,I'll take Denver to Win.	Bob, I'll take Denver to Win.	613216	1471951970409	1471951970489	l	76
1238	12797	Bob,I'll take Denver to Win.	Bob, I'll take Denver to Win.	613217	1471951970569	1471951970681	l	76
1238	12797	Bob,I'll take Denver to Win.	Bob, I'll take Denver to Win.	613218	1471951970721	1471951970897	 	32
1238	12797	Bob,I'll take Denver to Win.	Bob, I'll take Denver to Win.	613244	1471951971121	1471951971265	t	84
1238	12797	Bob,I'll take Denver to Win.	Bob, I'll take Denver to Win.	613246	1471951971345	1471951971481	a	65
1238	12797	Bob,I'll take Denver to Win.	Bob, I'll take Denver to Win.	613248	1471951971497	1471951971665	k	75
1238	12797	Bob,I'll take Denver to Win.	Bob, I'll take Denver to Win.	613250	1471951971681	1471951971833	e	69
1238	12797	Bob,I'll take Denver to Win.	Bob, I'll take Denver to Win.	613252	1471951971865	1471951972025	 	32
1238	12797	Bob,I'll take Denver to Win.	Bob, I'll take Denver to Win.	613320	1471951972369	1471951972778	SHIFT	16
1238	12797	Bob,I'll take Denver to Win.	Bob, I'll take Denver to Win.	613319	1471951972465	1471951972601	D	68
1238	12797	Bob,I'll take Denver to Win.	Bob, I'll take Denver to Win.	613321	1471951972729	1471951972865	E	69
1238	12797	Bob,I'll take Denver to Win.	Bob, I'll take Denver to Win.	613323	1471951973121	1471951973209	n	78
1238	12797	Bob,I'll take Denver to Win.	Bob, I'll take Denver to Win.	613326	1471951973473	1471951973553	BKSP	8
1238	12797	Bob,I'll take Denver to Win.	Bob, I'll take Denver to Win.	613329	1471951973609	1471951973722	BKSP	8
1238	12797	Bob,I'll take Denver to Win.	Bob, I'll take Denver to Win.	613332	1471951973729	1471951973849	e	69
1238	12797	Bob,I'll take Denver to Win.	Bob, I'll take Denver to Win.	613335	1471951973945	1471951974089	n	78
1238	12797	Bob,I'll take Denver to Win.	Bob, I'll take Denver to Win.	613369	1471951974363	1471951974537	v	86
1238	12797	Bob,I'll take Denver to Win.	Bob, I'll take Denver to Win.	613370	1471951974665	1471951974914	e	69
1238	12797	Bob,I'll take Denver to Win.	Bob, I'll take Denver to Win.	613372	1471951974857	1471951975033	r	82
1238	12797	Bob,I'll take Denver to Win.	Bob, I'll take Denver to Win.	613374	1471951975049	1471951975201	 	32
1238	12797	Bob,I'll take Denver to Win.	Bob, I'll take Denver to Win.	613458	1471951975169	1471951975321	t	84
1238	12797	Bob,I'll take Denver to Win.	Bob, I'll take Denver to Win.	613461	1471951975329	1471951975489	o	79
1238	12797	Bob,I'll take Denver to Win.	Bob, I'll take Denver to Win.	613466	1471951975457	1471951975681	 	32
1238	12797	Bob,I'll take Denver to Win.	Bob, I'll take Denver to Win.	613469	1471951975953	1471951976257	SHIFT	16
1238	12797	Bob,I'll take Denver to Win.	Bob, I'll take Denver to Win.	613476	1471951976953	1471951977305	SHIFT	16
1238	12797	Bob,I'll take Denver to Win.	Bob, I'll take Denver to Win.	613474	1471951977177	1471951977281	W	87
1238	12797	Bob,I'll take Denver to Win.	Bob, I'll take Denver to Win.	613477	1471951977425	1471951977545	i	73
1238	12797	Bob,I'll take Denver to Win.	Bob, I'll take Denver to Win.	613478	1471951977681	1471951977801	n	78
1238	12797	Bob,I'll take Denver to Win.	Bob, I'll take Denver to Win.	613497	1471951978129	1471951978241	.	190
1238	12808	I'm still in FW.	I'm still in FW.	613617	1471951980489	1471951980785	SHIFT	16
1238	12808	I'm still in FW.	I'm still in FW.	613616	1471951980617	1471951980729	I	73
1238	12808	I'm still in FW.	I'm still in FW.	613620	1471951980985	1471951981153	'	222
1238	12808	I'm still in FW.	I'm still in FW.	613623	1471951981553	1471951981681	m	77
1238	12808	I'm still in FW.	I'm still in FW.	613627	1471951981841	1471951982001	 	32
1238	12808	I'm still in FW.	I'm still in FW.	613631	1471951982169	1471951982297	s	83
1238	12808	I'm still in FW.	I'm still in FW.	613689	1471951982393	1471951982521	t	84
1238	12808	I'm still in FW.	I'm still in FW.	613691	1471951982553	1471951982689	i	73
1238	12808	I'm still in FW.	I'm still in FW.	613692	1471951983329	1471951983426	l	76
1238	12808	I'm still in FW.	I'm still in FW.	613693	1471951983553	1471951983657	l	76
1238	12808	I'm still in FW.	I'm still in FW.	613695	1471951983713	1471951983905	 	32
1238	12808	I'm still in FW.	I'm still in FW.	613825	1471951983953	1471951984089	i	73
1238	12808	I'm still in FW.	I'm still in FW.	613827	1471951984185	1471951984321	n	78
1238	12808	I'm still in FW.	I'm still in FW.	613829	1471951984345	1471951984521	 	32
1238	12808	I'm still in FW.	I'm still in FW.	613901	1471951984985	1471951988522	SHIFT	16
1238	12808	I'm still in FW.	I'm still in FW.	613834	1471951987569	1471951987665	F	70
1238	12808	I'm still in FW.	I'm still in FW.	613838	1471951988209	1471951988313	W	87
1238	12808	I'm still in FW.	I'm still in FW.	613906	1471951989561	1471951989617	.	190
1238	12816	Have a good weekend.	Have a good weekend.	614067	1471951992721	1471951993193	SHIFT	16
1238	12816	Have a good weekend.	Have a good weekend.	614070	1471951993489	1471951993785	SHIFT	16
1238	12816	Have a good weekend.	Have a good weekend.	614069	1471951993657	1471951993753	H	72
1238	12816	Have a good weekend.	Have a good weekend.	614072	1471951993937	1471951994161	a	65
1238	12816	Have a good weekend.	Have a good weekend.	614074	1471951994249	1471951994417	v	86
1238	12816	Have a good weekend.	Have a good weekend.	614076	1471951994513	1471951994625	e	69
1238	12816	Have a good weekend.	Have a good weekend.	614077	1471951994681	1471951994825	 	32
1238	12816	Have a good weekend.	Have a good weekend.	614078	1471951994834	1471951994985	a	65
1238	12816	Have a good weekend.	Have a good weekend.	614079	1471951995017	1471951995161	 	32
1238	12816	Have a good weekend.	Have a good weekend.	614080	1471951995169	1471951995305	g	71
1238	12816	Have a good weekend.	Have a good weekend.	614081	1471951995377	1471951995441	o	79
1238	12816	Have a good weekend.	Have a good weekend.	614083	1471951995521	1471951995673	o	79
1238	12816	Have a good weekend.	Have a good weekend.	614124	1471951995705	1471951995865	d	68
1238	12816	Have a good weekend.	Have a good weekend.	614128	1471951996049	1471951996233	 	32
1238	12816	Have a good weekend.	Have a good weekend.	614131	1471951996617	1471951996769	w	87
1238	12816	Have a good weekend.	Have a good weekend.	614134	1471951996905	1471951997033	e	69
1238	12816	Have a good weekend.	Have a good weekend.	614137	1471951997097	1471951997201	e	69
1238	12816	Have a good weekend.	Have a good weekend.	614202	1471951997265	1471951997409	k	75
1238	12816	Have a good weekend.	Have a good weekend.	614204	1471951997601	1471951997737	e	69
1238	12816	Have a good weekend.	Have a good weekend.	614206	1471951997801	1471951997953	n	78
1238	12816	Have a good weekend.	Have a good weekend.	614209	1471951998129	1471951998289	d	68
1238	12816	Have a good weekend.	Have a good weekend.	614210	1471951998513	1471951998649	.	190
