PARTICIPANT_ID	TEST_SECTION_ID	SENTENCE	USER_INPUT	KEYSTROKE_ID	PRESS_TIME	RELEASE_TIME	LETTER	KEYCODE
1285	13055	Jan has a lot of detail.	Jan has a lot of detail.	625239	1471952262445	1471952262619	SHIFT	16
1285	13055	Jan has a lot of detail.	Jan has a lot of detail.	625243	1471952262568	1471952262685		74
1285	13055	Jan has a lot of detail.	Jan has a lot of detail.	625245	1471952262706	1471952262842		78
1285	13055	Jan has a lot of detail.	Jan has a lot of detail.	625248	1471952263148	1471952263246		8
1285	13055	Jan has a lot of detail.	Jan has a lot of detail.	625252	1471952263268	1471952263370		65
1285	13055	Jan has a lot of detail.	Jan has a lot of detail.	625257	1471952263394	1471952263490		78
1285	13055	Jan has a lot of detail.	Jan has a lot of detail.	625260	1471952263522	1471952263612		32
1285	13055	Jan has a lot of detail.	Jan has a lot of detail.	625262	1471952263682	1471952263858		72
1285	13055	Jan has a lot of detail.	Jan has a lot of detail.	625264	1471952263794	1471952263946		65
1285	13055	Jan has a lot of detail.	Jan has a lot of detail.	625266	1471952263882	1471952264003		83
1285	13055	Jan has a lot of detail.	Jan has a lot of detail.	625295	1471952263986	1471952264075		32
1285	13055	Jan has a lot of detail.	Jan has a lot of detail.	625296	1471952264130	1471952264266		65
1285	13055	Jan has a lot of detail.	Jan has a lot of detail.	625298	1471952264251	1471952264330		32
1285	13055	Jan has a lot of detail.	Jan has a lot of detail.	625300	1471952264370	1471952264482		76
1285	13055	Jan has a lot of detail.	Jan has a lot of detail.	625301	1471952264554	1471952264682		79
1285	13055	Jan has a lot of detail.	Jan has a lot of detail.	625302	1471952264698	1471952264786		84
1285	13055	Jan has a lot of detail.	Jan has a lot of detail.	625337	1471952264811	1471952264890		32
1285	13055	Jan has a lot of detail.	Jan has a lot of detail.	625340	1471952265819	1471952265930		79
1285	13055	Jan has a lot of detail.	Jan has a lot of detail.	625342	1471952265955	1471952266050		70
1285	13055	Jan has a lot of detail.	Jan has a lot of detail.	625343	1471952266026	1471952266143		32
1285	13055	Jan has a lot of detail.	Jan has a lot of detail.	625345	1471952266570	1471952266594		68
1285	13055	Jan has a lot of detail.	Jan has a lot of detail.	625361	1471952267044	1471952267048		69
1285	13055	Jan has a lot of detail.	Jan has a lot of detail.	625364	1471952267059	1471952267170		84
1285	13055	Jan has a lot of detail.	Jan has a lot of detail.	625368	1471952267154	1471952267298		65
1285	13055	Jan has a lot of detail.	Jan has a lot of detail.	625370	1471952267282	1471952267394		73
1285	13055	Jan has a lot of detail.	Jan has a lot of detail.	625373	1471952267458	1471952267610		76
1285	13055	Jan has a lot of detail.	Jan has a lot of detail.	625378	1471952267866	1471952267962		190
1285	13064	Ladies, here's the revised September purchase.	Ladies, here's the revised September purchase.	625476	1471952271228	1471952271426	SHIFT	16
1285	13064	Ladies, here's the revised September purchase.	Ladies, here's the revised September purchase.	625477	1471952271378	1471952271498		76
1285	13064	Ladies, here's the revised September purchase.	Ladies, here's the revised September purchase.	625478	1471952271682	1471952271858		65
1285	13064	Ladies, here's the revised September purchase.	Ladies, here's the revised September purchase.	625479	1471952271810	1471952271938		68
1285	13064	Ladies, here's the revised September purchase.	Ladies, here's the revised September purchase.	625480	1471952271986	1471952272178		73
1285	13064	Ladies, here's the revised September purchase.	Ladies, here's the revised September purchase.	625481	1471952272194	1471952272322		69
1285	13064	Ladies, here's the revised September purchase.	Ladies, here's the revised September purchase.	625520	1471952272258	1471952272402		83
1285	13064	Ladies, here's the revised September purchase.	Ladies, here's the revised September purchase.	625522	1471952272506	1471952272634		188
1285	13064	Ladies, here's the revised September purchase.	Ladies, here's the revised September purchase.	625525	1471952272698	1471952272794		32
1285	13064	Ladies, here's the revised September purchase.	Ladies, here's the revised September purchase.	625527	1471952272899	1471952273050		72
1285	13064	Ladies, here's the revised September purchase.	Ladies, here's the revised September purchase.	625529	1471952273026	1471952273154		69
1285	13064	Ladies, here's the revised September purchase.	Ladies, here's the revised September purchase.	625535	1471952273136	1471952273268		82
1285	13064	Ladies, here's the revised September purchase.	Ladies, here's the revised September purchase.	625537	1471952273210	1471952273314		69
1285	13064	Ladies, here's the revised September purchase.	Ladies, here's the revised September purchase.	625539	1471952273576	1471952273650		59
1285	13064	Ladies, here's the revised September purchase.	Ladies, here's the revised September purchase.	625541	1471952273666	1471952273792		83
1285	13064	Ladies, here's the revised September purchase.	Ladies, here's the revised September purchase.	625543	1471952273810	1471952273898		32
1285	13064	Ladies, here's the revised September purchase.	Ladies, here's the revised September purchase.	625547	1471952273930	1471952274058		84
1285	13064	Ladies, here's the revised September purchase.	Ladies, here's the revised September purchase.	625575	1471952274018	1471952274162		72
1285	13064	Ladies, here's the revised September purchase.	Ladies, here's the revised September purchase.	625578	1471952274298	1471952274377		8
1285	13064	Ladies, here's the revised September purchase.	Ladies, here's the revised September purchase.	625581	1471952274433	1471952274514		8
1285	13064	Ladies, here's the revised September purchase.	Ladies, here's the revised September purchase.	625583	1471952274570	1471952274642		8
1285	13064	Ladies, here's the revised September purchase.	Ladies, here's the revised September purchase.	625585	1471952274706	1471952274778		8
1285	13064	Ladies, here's the revised September purchase.	Ladies, here's the revised September purchase.	625587	1471952274858	1471952274962		8
1285	13064	Ladies, here's the revised September purchase.	Ladies, here's the revised September purchase.	625634	1471952275523	1471952275617		222
1285	13064	Ladies, here's the revised September purchase.	Ladies, here's the revised September purchase.	625636	1471952275873	1471952276001		83
1285	13064	Ladies, here's the revised September purchase.	Ladies, here's the revised September purchase.	625641	1471952276017	1471952276122		32
1285	13064	Ladies, here's the revised September purchase.	Ladies, here's the revised September purchase.	625646	1471952276105	1471952276225		84
1285	13064	Ladies, here's the revised September purchase.	Ladies, here's the revised September purchase.	625663	1471952276201	1471952276348		72
1285	13064	Ladies, here's the revised September purchase.	Ladies, here's the revised September purchase.	625665	1471952276330	1471952276458		69
1285	13064	Ladies, here's the revised September purchase.	Ladies, here's the revised September purchase.	625667	1471952276434	1471952276538		32
1285	13064	Ladies, here's the revised September purchase.	Ladies, here's the revised September purchase.	625669	1471952276626	1471952276753		82
1285	13064	Ladies, here's the revised September purchase.	Ladies, here's the revised September purchase.	625670	1471952276690	1471952276816		69
1285	13064	Ladies, here's the revised September purchase.	Ladies, here's the revised September purchase.	625671	1471952276962	1471952277097		86
1285	13064	Ladies, here's the revised September purchase.	Ladies, here's the revised September purchase.	625672	1471952277121	1471952277250		73
1285	13064	Ladies, here's the revised September purchase.	Ladies, here's the revised September purchase.	625674	1471952277178	1471952277330		83
1285	13064	Ladies, here's the revised September purchase.	Ladies, here's the revised September purchase.	625676	1471952277267	1471952277393		69
1285	13064	Ladies, here's the revised September purchase.	Ladies, here's the revised September purchase.	625680	1471952277466	1471952277577		68
1285	13064	Ladies, here's the revised September purchase.	Ladies, here's the revised September purchase.	625684	1471952277625	1471952277734		32
1285	13064	Ladies, here's the revised September purchase.	Ladies, here's the revised September purchase.	625733	1471952278129	1471952278385	SHIFT	16
1285	13064	Ladies, here's the revised September purchase.	Ladies, here's the revised September purchase.	625730	1471952278265	1471952278370		83
1285	13064	Ladies, here's the revised September purchase.	Ladies, here's the revised September purchase.	625735	1471952278449	1471952278561		69
1285	13064	Ladies, here's the revised September purchase.	Ladies, here's the revised September purchase.	625737	1471952278578	1471952278705		80
1285	13064	Ladies, here's the revised September purchase.	Ladies, here's the revised September purchase.	625740	1471952278777	1471952278873		84
1285	13064	Ladies, here's the revised September purchase.	Ladies, here's the revised September purchase.	625745	1471952279041	1471952279153		69
1285	13064	Ladies, here's the revised September purchase.	Ladies, here's the revised September purchase.	625759	1471952279177	1471952279322		77
1285	13064	Ladies, here's the revised September purchase.	Ladies, here's the revised September purchase.	625761	1471952279449	1471952279594		66
1285	13064	Ladies, here's the revised September purchase.	Ladies, here's the revised September purchase.	625764	1471952279545	1471952279658		69
1285	13064	Ladies, here's the revised September purchase.	Ladies, here's the revised September purchase.	625766	1471952279609	1471952279721		82
1285	13064	Ladies, here's the revised September purchase.	Ladies, here's the revised September purchase.	625768	1471952279753	1471952279873		32
1285	13064	Ladies, here's the revised September purchase.	Ladies, here's the revised September purchase.	625818	1471952280228	1471952280345		80
1285	13064	Ladies, here's the revised September purchase.	Ladies, here's the revised September purchase.	625820	1471952280673	1471952280817		85
1285	13064	Ladies, here's the revised September purchase.	Ladies, here's the revised September purchase.	625823	1471952280795	1471952280889		82
1285	13064	Ladies, here's the revised September purchase.	Ladies, here's the revised September purchase.	625827	1471952281105	1471952281217		67
1285	13064	Ladies, here's the revised September purchase.	Ladies, here's the revised September purchase.	625830	1471952282137	1471952282281		72
1285	13064	Ladies, here's the revised September purchase.	Ladies, here's the revised September purchase.	625853	1471952282673	1471952282857		65
1285	13064	Ladies, here's the revised September purchase.	Ladies, here's the revised September purchase.	625854	1471952282789	1471952282953		83
1285	13064	Ladies, here's the revised September purchase.	Ladies, here's the revised September purchase.	625855	1471952282940	1471952283073		69
1285	13064	Ladies, here's the revised September purchase.	Ladies, here's the revised September purchase.	625856	1471952283121	1471952283249		190
1285	13072	How would you explain the difference between the two?	How would you explain the difference between the two?	625969	1471952286593	1471952286825	SHIFT	16
1285	13072	How would you explain the difference between the two?	How would you explain the difference between the two?	625965	1471952286729	1471952286809		72
1285	13072	How would you explain the difference between the two?	How would you explain the difference between the two?	625973	1471952286857	1471952287009		79
1285	13072	How would you explain the difference between the two?	How would you explain the difference between the two?	625975	1471952286985	1471952287105		87
1285	13072	How would you explain the difference between the two?	How would you explain the difference between the two?	625977	1471952287121	1471952287201		32
1285	13072	How would you explain the difference between the two?	How would you explain the difference between the two?	625979	1471952287241	1471952287354		87
1285	13072	How would you explain the difference between the two?	How would you explain the difference between the two?	626002	1471952287313	1471952287441		79
1285	13072	How would you explain the difference between the two?	How would you explain the difference between the two?	626003	1471952287513	1471952287657		85
1285	13072	How would you explain the difference between the two?	How would you explain the difference between the two?	626004	1471952287705	1471952287851		76
1285	13072	How would you explain the difference between the two?	How would you explain the difference between the two?	626005	1471952287837	1471952287945		68
1285	13072	How would you explain the difference between the two?	How would you explain the difference between the two?	626008	1471952287921	1471952288019		32
1285	13072	How would you explain the difference between the two?	How would you explain the difference between the two?	626011	1471952288121	1471952288241		89
1285	13072	How would you explain the difference between the two?	How would you explain the difference between the two?	626033	1471952288289	1471952288393		79
1285	13072	How would you explain the difference between the two?	How would you explain the difference between the two?	626035	1471952288369	1471952288529		85
1285	13072	How would you explain the difference between the two?	How would you explain the difference between the two?	626036	1471952288618	1471952288721		32
1285	13072	How would you explain the difference between the two?	How would you explain the difference between the two?	626037	1471952288777	1471952288913		69
1285	13072	How would you explain the difference between the two?	How would you explain the difference between the two?	626061	1471952288865	1471952289001		88
1285	13072	How would you explain the difference between the two?	How would you explain the difference between the two?	626063	1471952289017	1471952289169		80
1285	13072	How would you explain the difference between the two?	How would you explain the difference between the two?	626065	1471952289137	1471952289281		76
1285	13072	How would you explain the difference between the two?	How would you explain the difference between the two?	626066	1471952289445	1471952289553		65
1285	13072	How would you explain the difference between the two?	How would you explain the difference between the two?	626067	1471952289689	1471952289825		73
1285	13072	How would you explain the difference between the two?	How would you explain the difference between the two?	626074	1471952289788	1471952289914		78
1285	13072	How would you explain the difference between the two?	How would you explain the difference between the two?	626075	1471952289953	1471952290049		32
1285	13072	How would you explain the difference between the two?	How would you explain the difference between the two?	626076	1471952290089	1471952290172		84
1285	13072	How would you explain the difference between the two?	How would you explain the difference between the two?	626077	1471952290138	1471952290265		72
1285	13072	How would you explain the difference between the two?	How would you explain the difference between the two?	626078	1471952290306	1471952290417		69
1285	13072	How would you explain the difference between the two?	How would you explain the difference between the two?	626139	1471952290372	1471952290473		32
1285	13072	How would you explain the difference between the two?	How would you explain the difference between the two?	626142	1471952290857	1471952290964		68
1285	13072	How would you explain the difference between the two?	How would you explain the difference between the two?	626147	1471952290985	1471952291106		73
1285	13072	How would you explain the difference between the two?	How would you explain the difference between the two?	626153	1471952291073	1471952291153		70
1285	13072	How would you explain the difference between the two?	How would you explain the difference between the two?	626159	1471952291233	1471952291321		70
1285	13072	How would you explain the difference between the two?	How would you explain the difference between the two?	626162	1471952292345	1471952292473		69
1285	13072	How would you explain the difference between the two?	How would you explain the difference between the two?	626175	1471952292441	1471952292585		82
1285	13072	How would you explain the difference between the two?	How would you explain the difference between the two?	626177	1471952292543	1471952292665		69
1285	13072	How would you explain the difference between the two?	How would you explain the difference between the two?	626179	1471952292705	1471952292881		78
1285	13072	How would you explain the difference between the two?	How would you explain the difference between the two?	626181	1471952292817	1471952292969		67
1285	13072	How would you explain the difference between the two?	How would you explain the difference between the two?	626183	1471952292909	1471952293017		69
1285	13072	How would you explain the difference between the two?	How would you explain the difference between the two?	626186	1471952293041	1471952293113		32
1285	13072	How would you explain the difference between the two?	How would you explain the difference between the two?	626212	1471952293217	1471952293353		66
1285	13072	How would you explain the difference between the two?	How would you explain the difference between the two?	626215	1471952293666	1471952293755		69
1285	13072	How would you explain the difference between the two?	How would you explain the difference between the two?	626219	1471952293849	1471952293929		84
1285	13072	How would you explain the difference between the two?	How would you explain the difference between the two?	626222	1471952294049	1471952294154		87
1285	13072	How would you explain the difference between the two?	How would you explain the difference between the two?	626226	1471952294233	1471952294321		69
1285	13072	How would you explain the difference between the two?	How would you explain the difference between the two?	626247	1471952294393	1471952294474		69
1285	13072	How would you explain the difference between the two?	How would you explain the difference between the two?	626250	1471952294561	1471952294681		78
1285	13072	How would you explain the difference between the two?	How would you explain the difference between the two?	626252	1471952294657	1471952294745		32
1285	13072	How would you explain the difference between the two?	How would you explain the difference between the two?	626253	1471952294865	1471952294977		84
1285	13072	How would you explain the difference between the two?	How would you explain the difference between the two?	626254	1471952294993	1471952295097		72
1285	13072	How would you explain the difference between the two?	How would you explain the difference between the two?	626279	1471952295121	1471952295201		69
1285	13072	How would you explain the difference between the two?	How would you explain the difference between the two?	626282	1471952295177	1471952295282		32
1285	13072	How would you explain the difference between the two?	How would you explain the difference between the two?	626284	1471952295881	1471952296009		84
1285	13072	How would you explain the difference between the two?	How would you explain the difference between the two?	626286	1471952296113	1471952296201		79
1285	13072	How would you explain the difference between the two?	How would you explain the difference between the two?	626288	1471952296497	1471952296593		8
1285	13072	How would you explain the difference between the two?	How would you explain the difference between the two?	626290	1471952296609	1471952296721		87
1285	13072	How would you explain the difference between the two?	How would you explain the difference between the two?	626291	1471952296745	1471952296833		79
1285	13072	How would you explain the difference between the two?	How would you explain the difference between the two?	626292	1471952297010	1471952297178	SHIFT	16
1285	13072	How would you explain the difference between the two?	How would you explain the difference between the two?	626293	1471952297065	1471952297204		191
1285	13081	I will tell them.	I will tell them./	626412	1471952300834	1471952300985	SHIFT	16
1285	13081	I will tell them.	I will tell them./	626417	1471952300920	1471952301057		73
1285	13081	I will tell them.	I will tell them./	626423	1471952301025	1471952301153		32
1285	13081	I will tell them.	I will tell them./	626428	1471952301129	1471952301264		87
1285	13081	I will tell them.	I will tell them./	626430	1471952301208	1471952301288		73
1285	13081	I will tell them.	I will tell them./	626433	1471952301368	1471952301457		76
1285	13081	I will tell them.	I will tell them./	626449	1471952301504	1471952301632		76
1285	13081	I will tell them.	I will tell them./	626451	1471952301648	1471952301728		32
1285	13081	I will tell them.	I will tell them./	626453	1471952301753	1471952301856		84
1285	13081	I will tell them.	I will tell them./	626454	1471952302281	1471952302360		69
1285	13081	I will tell them.	I will tell them./	626455	1471952302393	1471952302464		76
1285	13081	I will tell them.	I will tell them./	626473	1471952302520	1471952302656		76
1285	13081	I will tell them.	I will tell them./	626474	1471952302640	1471952302752		32
1285	13081	I will tell them.	I will tell them./	626476	1471952303096	1471952303208		84
1285	13081	I will tell them.	I will tell them./	626478	1471952303232	1471952303320		72
1285	13081	I will tell them.	I will tell them./	626480	1471952303368	1471952303481		69
1285	13081	I will tell them.	I will tell them./	626493	1471952303449	1471952303560		77
1285	13081	I will tell them.	I will tell them./	626498	1471952303664	1471952303754		190
1285	13081	I will tell them.	I will tell them./	626496	1471952303688	1471952303737		191
1285	13086	Still waiting on decision.	Still waiting on decision.	626612	1471952307570	1471952307840	SHIFT	16
1285	13086	Still waiting on decision.	Still waiting on decision.	626614	1471952307712	1471952307864		83
1285	13086	Still waiting on decision.	Still waiting on decision.	626617	1471952307984	1471952308088		84
1285	13086	Still waiting on decision.	Still waiting on decision.	626620	1471952308112	1471952308200		73
1285	13086	Still waiting on decision.	Still waiting on decision.	626622	1471952308280	1471952308357		76
1285	13086	Still waiting on decision.	Still waiting on decision.	626624	1471952308408	1471952308523		76
1285	13086	Still waiting on decision.	Still waiting on decision.	626643	1471952308568	1471952308680		32
1285	13086	Still waiting on decision.	Still waiting on decision.	626646	1471952308928	1471952309057		87
1285	13086	Still waiting on decision.	Still waiting on decision.	626650	1471952308968	1471952309097		65
1285	13086	Still waiting on decision.	Still waiting on decision.	626652	1471952309178	1471952309312		73
1285	13086	Still waiting on decision.	Still waiting on decision.	626654	1471952309658	1471952309768		84
1285	13086	Still waiting on decision.	Still waiting on decision.	626665	1471952309792	1471952309936		73
1285	13086	Still waiting on decision.	Still waiting on decision.	626666	1471952309904	1471952310024		78
1285	13086	Still waiting on decision.	Still waiting on decision.	626667	1471952309984	1471952310096		71
1285	13086	Still waiting on decision.	Still waiting on decision.	626668	1471952310113	1471952310192		32
1285	13086	Still waiting on decision.	Still waiting on decision.	626669	1471952310258	1471952310376		79
1285	13086	Still waiting on decision.	Still waiting on decision.	626703	1471952310417	1471952310568		78
1285	13086	Still waiting on decision.	Still waiting on decision.	626706	1471952310544	1471952310640		32
1285	13086	Still waiting on decision.	Still waiting on decision.	626708	1471952310976	1471952311064		68
1285	13086	Still waiting on decision.	Still waiting on decision.	626709	1471952311168	1471952311290		69
1285	13086	Still waiting on decision.	Still waiting on decision.	626710	1471952311344	1471952311464		67
1285	13086	Still waiting on decision.	Still waiting on decision.	626733	1471952311848	1471952311952		73
1285	13086	Still waiting on decision.	Still waiting on decision.	626734	1471952311968	1471952312064		83
1285	13086	Still waiting on decision.	Still waiting on decision.	626735	1471952312048	1471952312176		73
1285	13086	Still waiting on decision.	Still waiting on decision.	626736	1471952312128	1471952312240		79
1285	13086	Still waiting on decision.	Still waiting on decision.	626737	1471952312288	1471952312368		78
1285	13086	Still waiting on decision.	Still waiting on decision.	626738	1471952312472	1471952312568		190
1285	13092	Do you have it yet?.	Do you have it yet?.	626890	1471952316624	1471952316912	SHIFT	16
1285	13092	Do you have it yet?.	Do you have it yet?.	626887	1471952316776	1471952316896		68
1285	13092	Do you have it yet?.	Do you have it yet?.	626893	1471952316872	1471952317037		79
1285	13092	Do you have it yet?.	Do you have it yet?.	626896	1471952317008	1471952317128		32
1285	13092	Do you have it yet?.	Do you have it yet?.	626901	1471952317704	1471952317776		8
1285	13092	Do you have it yet?.	Do you have it yet?.	626907	1471952317840	1471952317944		8
1285	13092	Do you have it yet?.	Do you have it yet?.	626925	1471952318088	1471952318200		79
1285	13092	Do you have it yet?.	Do you have it yet?.	626926	1471952318248	1471952318360		32
1285	13092	Do you have it yet?.	Do you have it yet?.	626927	1471952318499	1471952318595		89
1285	13092	Do you have it yet?.	Do you have it yet?.	626928	1471952318576	1471952318784		79
1285	13092	Do you have it yet?.	Do you have it yet?.	626938	1471952318768	1471952318896		85
1285	13092	Do you have it yet?.	Do you have it yet?.	626939	1471952318976	1471952319056		32
1285	13092	Do you have it yet?.	Do you have it yet?.	626941	1471952319103	1471952319252		72
1285	13092	Do you have it yet?.	Do you have it yet?.	626943	1471952319192	1471952319320		65
1285	13092	Do you have it yet?.	Do you have it yet?.	626945	1471952319304	1471952319432		86
1285	13092	Do you have it yet?.	Do you have it yet?.	626958	1471952319376	1471952319530		69
1285	13092	Do you have it yet?.	Do you have it yet?.	626959	1471952319512	1471952319608		32
1285	13092	Do you have it yet?.	Do you have it yet?.	626960	1471952319634	1471952319760		73
1285	13092	Do you have it yet?.	Do you have it yet?.	626961	1471952319712	1471952319832		84
1285	13092	Do you have it yet?.	Do you have it yet?.	626962	1471952319856	1471952319936		32
1285	13092	Do you have it yet?.	Do you have it yet?.	626963	1471952320352	1471952320456		89
1285	13092	Do you have it yet?.	Do you have it yet?.	627032	1471952320480	1471952320584		69
1285	13092	Do you have it yet?.	Do you have it yet?.	627036	1471952320648	1471952320736		84
1285	13092	Do you have it yet?.	Do you have it yet?.	627043	1471952320936	1471952321160	SHIFT	16
1285	13092	Do you have it yet?.	Do you have it yet?.	627040	1471952320984	1471952321136		191
1285	13092	Do you have it yet?.	Do you have it yet?.	627044	1471952321720	1471952321834		190
1285	13100	I was a bit rusty but I didn't want to miss the elections back home.	I was a bit rusty but I didn't want to miss the elections back home.	627186	1471952326015	1471952326232	SHIFT	16
1285	13100	I was a bit rusty but I didn't want to miss the elections back home.	I was a bit rusty but I didn't want to miss the elections back home.	627188	1471952326160	1471952326247		73
1285	13100	I was a bit rusty but I didn't want to miss the elections back home.	I was a bit rusty but I didn't want to miss the elections back home.	627190	1471952326295	1471952326416		32
1285	13100	I was a bit rusty but I didn't want to miss the elections back home.	I was a bit rusty but I didn't want to miss the elections back home.	627192	1471952326473	1471952326591		87
1285	13100	I was a bit rusty but I didn't want to miss the elections back home.	I was a bit rusty but I didn't want to miss the elections back home.	627194	1471952326624	1471952326791		65
1285	13100	I was a bit rusty but I didn't want to miss the elections back home.	I was a bit rusty but I didn't want to miss the elections back home.	627213	1471952326736	1471952326855		83
1285	13100	I was a bit rusty but I didn't want to miss the elections back home.	I was a bit rusty but I didn't want to miss the elections back home.	627215	1471952326816	1471952326904		32
1285	13100	I was a bit rusty but I didn't want to miss the elections back home.	I was a bit rusty but I didn't want to miss the elections back home.	627217	1471952326991	1471952327114		65
1285	13100	I was a bit rusty but I didn't want to miss the elections back home.	I was a bit rusty but I didn't want to miss the elections back home.	627219	1471952327095	1471952327183		32
1285	13100	I was a bit rusty but I didn't want to miss the elections back home.	I was a bit rusty but I didn't want to miss the elections back home.	627220	1471952327263	1471952327359		66
1285	13100	I was a bit rusty but I didn't want to miss the elections back home.	I was a bit rusty but I didn't want to miss the elections back home.	627221	1471952327440	1471952327591		73
1285	13100	I was a bit rusty but I didn't want to miss the elections back home.	I was a bit rusty but I didn't want to miss the elections back home.	627275	1471952327544	1471952327663		84
1285	13100	I was a bit rusty but I didn't want to miss the elections back home.	I was a bit rusty but I didn't want to miss the elections back home.	627277	1471952327703	1471952327791		32
1285	13100	I was a bit rusty but I didn't want to miss the elections back home.	I was a bit rusty but I didn't want to miss the elections back home.	627279	1471952328304	1471952328432		82
1285	13100	I was a bit rusty but I didn't want to miss the elections back home.	I was a bit rusty but I didn't want to miss the elections back home.	627280	1471952328471	1471952328600		85
1285	13100	I was a bit rusty but I didn't want to miss the elections back home.	I was a bit rusty but I didn't want to miss the elections back home.	627281	1471952328644	1471952328799		83
1285	13100	I was a bit rusty but I didn't want to miss the elections back home.	I was a bit rusty but I didn't want to miss the elections back home.	627344	1471952328783	1471952328903		84
1285	13100	I was a bit rusty but I didn't want to miss the elections back home.	I was a bit rusty but I didn't want to miss the elections back home.	627347	1471952329111	1471952329223		89
1285	13100	I was a bit rusty but I didn't want to miss the elections back home.	I was a bit rusty but I didn't want to miss the elections back home.	627349	1471952329480	1471952329663		32
1285	13100	I was a bit rusty but I didn't want to miss the elections back home.	I was a bit rusty but I didn't want to miss the elections back home.	627352	1471952329746	1471952329935		66
1285	13100	I was a bit rusty but I didn't want to miss the elections back home.	I was a bit rusty but I didn't want to miss the elections back home.	627355	1471952330583	1471952330703		85
1285	13100	I was a bit rusty but I didn't want to miss the elections back home.	I was a bit rusty but I didn't want to miss the elections back home.	627358	1471952330735	1471952330839		84
1285	13100	I was a bit rusty but I didn't want to miss the elections back home.	I was a bit rusty but I didn't want to miss the elections back home.	627395	1471952330856	1471952330943		32
1285	13100	I was a bit rusty but I didn't want to miss the elections back home.	I was a bit rusty but I didn't want to miss the elections back home.	627400	1471952331031	1471952331215	SHIFT	16
1285	13100	I was a bit rusty but I didn't want to miss the elections back home.	I was a bit rusty but I didn't want to miss the elections back home.	627402	1471952331135	1471952331231		73
1285	13100	I was a bit rusty but I didn't want to miss the elections back home.	I was a bit rusty but I didn't want to miss the elections back home.	627405	1471952331279	1471952331380		32
1285	13100	I was a bit rusty but I didn't want to miss the elections back home.	I was a bit rusty but I didn't want to miss the elections back home.	627407	1471952331399	1471952331527		68
1285	13100	I was a bit rusty but I didn't want to miss the elections back home.	I was a bit rusty but I didn't want to miss the elections back home.	627410	1471952331551	1471952331663		73
1285	13100	I was a bit rusty but I didn't want to miss the elections back home.	I was a bit rusty but I didn't want to miss the elections back home.	627468	1471952331855	1471952331983		68
1285	13100	I was a bit rusty but I didn't want to miss the elections back home.	I was a bit rusty but I didn't want to miss the elections back home.	627471	1471952332631	1471952332759		78
1285	13100	I was a bit rusty but I didn't want to miss the elections back home.	I was a bit rusty but I didn't want to miss the elections back home.	627474	1471952333319	1471952333439		222
1285	13100	I was a bit rusty but I didn't want to miss the elections back home.	I was a bit rusty but I didn't want to miss the elections back home.	627477	1471952333503	1471952333598		84
1285	13100	I was a bit rusty but I didn't want to miss the elections back home.	I was a bit rusty but I didn't want to miss the elections back home.	627481	1471952333672	1471952333767		32
1285	13100	I was a bit rusty but I didn't want to miss the elections back home.	I was a bit rusty but I didn't want to miss the elections back home.	627513	1471952334103	1471952334200		87
1285	13100	I was a bit rusty but I didn't want to miss the elections back home.	I was a bit rusty but I didn't want to miss the elections back home.	627516	1471952334161	1471952334279		65
1285	13100	I was a bit rusty but I didn't want to miss the elections back home.	I was a bit rusty but I didn't want to miss the elections back home.	627519	1471952334296	1471952334439		78
1285	13100	I was a bit rusty but I didn't want to miss the elections back home.	I was a bit rusty but I didn't want to miss the elections back home.	627522	1471952334416	1471952334544		84
1285	13100	I was a bit rusty but I didn't want to miss the elections back home.	I was a bit rusty but I didn't want to miss the elections back home.	627526	1471952334568	1471952334640		32
1285	13100	I was a bit rusty but I didn't want to miss the elections back home.	I was a bit rusty but I didn't want to miss the elections back home.	627551	1471952334744	1471952334871		84
1285	13100	I was a bit rusty but I didn't want to miss the elections back home.	I was a bit rusty but I didn't want to miss the elections back home.	627555	1471952334839	1471952334983		79
1285	13100	I was a bit rusty but I didn't want to miss the elections back home.	I was a bit rusty but I didn't want to miss the elections back home.	627558	1471952334967	1471952335071		32
1285	13100	I was a bit rusty but I didn't want to miss the elections back home.	I was a bit rusty but I didn't want to miss the elections back home.	627560	1471952335087	1471952335218		77
1285	13100	I was a bit rusty but I didn't want to miss the elections back home.	I was a bit rusty but I didn't want to miss the elections back home.	627562	1471952335315	1471952335439		73
1285	13100	I was a bit rusty but I didn't want to miss the elections back home.	I was a bit rusty but I didn't want to miss the elections back home.	627578	1471952335416	1471952335503		83
1285	13100	I was a bit rusty but I didn't want to miss the elections back home.	I was a bit rusty but I didn't want to miss the elections back home.	627580	1471952335568	1471952335681		83
1285	13100	I was a bit rusty but I didn't want to miss the elections back home.	I was a bit rusty but I didn't want to miss the elections back home.	627583	1471952335703	1471952335817		32
1285	13100	I was a bit rusty but I didn't want to miss the elections back home.	I was a bit rusty but I didn't want to miss the elections back home.	627585	1471952335799	1471952335895		84
1285	13100	I was a bit rusty but I didn't want to miss the elections back home.	I was a bit rusty but I didn't want to miss the elections back home.	627587	1471952335848	1471952335975		72
1285	13100	I was a bit rusty but I didn't want to miss the elections back home.	I was a bit rusty but I didn't want to miss the elections back home.	627589	1471952336019	1471952336135		69
1285	13100	I was a bit rusty but I didn't want to miss the elections back home.	I was a bit rusty but I didn't want to miss the elections back home.	627618	1471952336103	1471952336191		32
1285	13100	I was a bit rusty but I didn't want to miss the elections back home.	I was a bit rusty but I didn't want to miss the elections back home.	627620	1471952336271	1471952336392		69
1285	13100	I was a bit rusty but I didn't want to miss the elections back home.	I was a bit rusty but I didn't want to miss the elections back home.	627624	1471952336351	1471952336487		76
1285	13100	I was a bit rusty but I didn't want to miss the elections back home.	I was a bit rusty but I didn't want to miss the elections back home.	627630	1471952336503	1471952336656		69
1285	13100	I was a bit rusty but I didn't want to miss the elections back home.	I was a bit rusty but I didn't want to miss the elections back home.	627635	1471952336639	1471952336799		67
1285	13100	I was a bit rusty but I didn't want to miss the elections back home.	I was a bit rusty but I didn't want to miss the elections back home.	627647	1471952336751	1471952336871		84
1285	13100	I was a bit rusty but I didn't want to miss the elections back home.	I was a bit rusty but I didn't want to miss the elections back home.	627649	1471952336832	1471952336959		73
1285	13100	I was a bit rusty but I didn't want to miss the elections back home.	I was a bit rusty but I didn't want to miss the elections back home.	627650	1471952336927	1471952337039		79
1285	13100	I was a bit rusty but I didn't want to miss the elections back home.	I was a bit rusty but I didn't want to miss the elections back home.	627652	1471952337087	1471952337224		78
1285	13100	I was a bit rusty but I didn't want to miss the elections back home.	I was a bit rusty but I didn't want to miss the elections back home.	627653	1471952337183	1471952337311		83
1285	13100	I was a bit rusty but I didn't want to miss the elections back home.	I was a bit rusty but I didn't want to miss the elections back home.	627680	1471952337295	1471952337383		32
1285	13100	I was a bit rusty but I didn't want to miss the elections back home.	I was a bit rusty but I didn't want to miss the elections back home.	627685	1471952337454	1471952337607		66
1285	13100	I was a bit rusty but I didn't want to miss the elections back home.	I was a bit rusty but I didn't want to miss the elections back home.	627690	1471952337559	1471952337743		65
1285	13100	I was a bit rusty but I didn't want to miss the elections back home.	I was a bit rusty but I didn't want to miss the elections back home.	627696	1471952337719	1471952337871		67
1285	13100	I was a bit rusty but I didn't want to miss the elections back home.	I was a bit rusty but I didn't want to miss the elections back home.	627699	1471952337799	1471952337935		75
1285	13100	I was a bit rusty but I didn't want to miss the elections back home.	I was a bit rusty but I didn't want to miss the elections back home.	627708	1471952337951	1471952338048		32
1285	13100	I was a bit rusty but I didn't want to miss the elections back home.	I was a bit rusty but I didn't want to miss the elections back home.	627725	1471952338119	1471952338250		72
1285	13100	I was a bit rusty but I didn't want to miss the elections back home.	I was a bit rusty but I didn't want to miss the elections back home.	627726	1471952338223	1471952338383		73
1285	13100	I was a bit rusty but I didn't want to miss the elections back home.	I was a bit rusty but I didn't want to miss the elections back home.	627727	1471952338359	1471952338487		77
1285	13100	I was a bit rusty but I didn't want to miss the elections back home.	I was a bit rusty but I didn't want to miss the elections back home.	627728	1471952338463	1471952338583		69
1285	13100	I was a bit rusty but I didn't want to miss the elections back home.	I was a bit rusty but I didn't want to miss the elections back home.	627729	1471952338607	1471952338695		190
1285	13100	I was a bit rusty but I didn't want to miss the elections back home.	I was a bit rusty but I didn't want to miss the elections back home.	627772	1471952338959	1471952339031		8
1285	13100	I was a bit rusty but I didn't want to miss the elections back home.	I was a bit rusty but I didn't want to miss the elections back home.	627774	1471952339095	1471952339175		8
1285	13100	I was a bit rusty but I didn't want to miss the elections back home.	I was a bit rusty but I didn't want to miss the elections back home.	627776	1471952339234	1471952339311		8
1285	13100	I was a bit rusty but I didn't want to miss the elections back home.	I was a bit rusty but I didn't want to miss the elections back home.	627779	1471952339375	1471952339471		8
1285	13100	I was a bit rusty but I didn't want to miss the elections back home.	I was a bit rusty but I didn't want to miss the elections back home.	627782	1471952339879	1471952339999		79
1285	13100	I was a bit rusty but I didn't want to miss the elections back home.	I was a bit rusty but I didn't want to miss the elections back home.	627802	1471952339967	1471952340119		77
1285	13100	I was a bit rusty but I didn't want to miss the elections back home.	I was a bit rusty but I didn't want to miss the elections back home.	627805	1471952340103	1471952340199		69
1285	13100	I was a bit rusty but I didn't want to miss the elections back home.	I was a bit rusty but I didn't want to miss the elections back home.	627810	1471952340215	1471952340311		190
1285	13114	When it is used we try and do as many paths as possible.	When it is used we try and do as many paths as possible.	627975	1471952343903	1471952344527	SHIFT	16
1285	13114	When it is used we try and do as many paths as possible.	When it is used we try and do as many paths as possible.	627977	1471952344399	1471952344543		87
1285	13114	When it is used we try and do as many paths as possible.	When it is used we try and do as many paths as possible.	627980	1471952344575	1471952344695		72
1285	13114	When it is used we try and do as many paths as possible.	When it is used we try and do as many paths as possible.	627983	1471952344663	1471952344783		69
1285	13114	When it is used we try and do as many paths as possible.	When it is used we try and do as many paths as possible.	627989	1471952344799	1471952344927		78
1285	13114	When it is used we try and do as many paths as possible.	When it is used we try and do as many paths as possible.	628012	1471952344904	1471952345023		32
1285	13114	When it is used we try and do as many paths as possible.	When it is used we try and do as many paths as possible.	628015	1471952345071	1471952345215		73
1285	13114	When it is used we try and do as many paths as possible.	When it is used we try and do as many paths as possible.	628018	1471952345199	1471952345303		84
1285	13114	When it is used we try and do as many paths as possible.	When it is used we try and do as many paths as possible.	628020	1471952345328	1471952345415		32
1285	13114	When it is used we try and do as many paths as possible.	When it is used we try and do as many paths as possible.	628021	1471952345439	1471952345551		73
1285	13114	When it is used we try and do as many paths as possible.	When it is used we try and do as many paths as possible.	628027	1471952345519	1471952345639		83
1285	13114	When it is used we try and do as many paths as possible.	When it is used we try and do as many paths as possible.	628029	1471952345607	1471952345711		32
1285	13114	When it is used we try and do as many paths as possible.	When it is used we try and do as many paths as possible.	628031	1471952345831	1471952345991		85
1285	13114	When it is used we try and do as many paths as possible.	When it is used we try and do as many paths as possible.	628033	1471952345951	1471952346087		83
1285	13114	When it is used we try and do as many paths as possible.	When it is used we try and do as many paths as possible.	628035	1471952346023	1471952346135		69
1285	13114	When it is used we try and do as many paths as possible.	When it is used we try and do as many paths as possible.	628037	1471952346215	1471952346335		68
1285	13114	When it is used we try and do as many paths as possible.	When it is used we try and do as many paths as possible.	628081	1471952346351	1471952346439		32
1285	13114	When it is used we try and do as many paths as possible.	When it is used we try and do as many paths as possible.	628084	1471952346535	1471952346703		87
1285	13114	When it is used we try and do as many paths as possible.	When it is used we try and do as many paths as possible.	628089	1471952346639	1471952346775		69
1285	13114	When it is used we try and do as many paths as possible.	When it is used we try and do as many paths as possible.	628091	1471952346807	1471952346903		32
1285	13114	When it is used we try and do as many paths as possible.	When it is used we try and do as many paths as possible.	628097	1471952347327	1471952347431		84
1285	13114	When it is used we try and do as many paths as possible.	When it is used we try and do as many paths as possible.	628127	1471952347479	1471952347583		82
1285	13114	When it is used we try and do as many paths as possible.	When it is used we try and do as many paths as possible.	628129	1471952347623	1471952347727		89
1285	13114	When it is used we try and do as many paths as possible.	When it is used we try and do as many paths as possible.	628131	1471952347783	1471952347895		32
1285	13114	When it is used we try and do as many paths as possible.	When it is used we try and do as many paths as possible.	628133	1471952347948	1471952348063		65
1285	13114	When it is used we try and do as many paths as possible.	When it is used we try and do as many paths as possible.	628148	1471952348039	1471952348167		78
1285	13114	When it is used we try and do as many paths as possible.	When it is used we try and do as many paths as possible.	628150	1471952348127	1471952348271		68
1285	13114	When it is used we try and do as many paths as possible.	When it is used we try and do as many paths as possible.	628154	1471952348247	1471952348343		32
1285	13114	When it is used we try and do as many paths as possible.	When it is used we try and do as many paths as possible.	628158	1471952348383	1471952348495		68
1285	13114	When it is used we try and do as many paths as possible.	When it is used we try and do as many paths as possible.	628162	1471952348447	1471952348567		79
1285	13114	When it is used we try and do as many paths as possible.	When it is used we try and do as many paths as possible.	628165	1471952348615	1471952348735		32
1285	13114	When it is used we try and do as many paths as possible.	When it is used we try and do as many paths as possible.	628188	1471952348863	1471952348999		65
1285	13114	When it is used we try and do as many paths as possible.	When it is used we try and do as many paths as possible.	628191	1471952348935	1471952349047		83
1285	13114	When it is used we try and do as many paths as possible.	When it is used we try and do as many paths as possible.	628196	1471952349063	1471952349160		32
1285	13114	When it is used we try and do as many paths as possible.	When it is used we try and do as many paths as possible.	628198	1471952349327	1471952349471		77
1285	13114	When it is used we try and do as many paths as possible.	When it is used we try and do as many paths as possible.	628208	1471952349447	1471952349575		65
1285	13114	When it is used we try and do as many paths as possible.	When it is used we try and do as many paths as possible.	628209	1471952349559	1471952349663		78
1285	13114	When it is used we try and do as many paths as possible.	When it is used we try and do as many paths as possible.	628211	1471952349783	1471952349878		89
1285	13114	When it is used we try and do as many paths as possible.	When it is used we try and do as many paths as possible.	628214	1471952349951	1471952350034		32
1285	13114	When it is used we try and do as many paths as possible.	When it is used we try and do as many paths as possible.	628218	1471952350127	1471952350247		80
1285	13114	When it is used we try and do as many paths as possible.	When it is used we try and do as many paths as possible.	628243	1471952350191	1471952350295		65
1285	13114	When it is used we try and do as many paths as possible.	When it is used we try and do as many paths as possible.	628249	1471952350366	1471952350472		84
1285	13114	When it is used we try and do as many paths as possible.	When it is used we try and do as many paths as possible.	628255	1471952350455	1471952350583		72
1285	13114	When it is used we try and do as many paths as possible.	When it is used we try and do as many paths as possible.	628259	1471952350631	1471952350743		83
1285	13114	When it is used we try and do as many paths as possible.	When it is used we try and do as many paths as possible.	628263	1471952350767	1471952350877		32
1285	13114	When it is used we try and do as many paths as possible.	When it is used we try and do as many paths as possible.	628267	1471952350887	1471952351006		65
1285	13114	When it is used we try and do as many paths as possible.	When it is used we try and do as many paths as possible.	628304	1471952351039	1471952351111		83
1285	13114	When it is used we try and do as many paths as possible.	When it is used we try and do as many paths as possible.	628306	1471952351295	1471952351398		32
1285	13114	When it is used we try and do as many paths as possible.	When it is used we try and do as many paths as possible.	628308	1471952351702	1471952351799		80
1285	13114	When it is used we try and do as many paths as possible.	When it is used we try and do as many paths as possible.	628310	1471952351878	1471952351950		83
1285	13114	When it is used we try and do as many paths as possible.	When it is used we try and do as many paths as possible.	628312	1471952352310	1471952352398		8
1285	13114	When it is used we try and do as many paths as possible.	When it is used we try and do as many paths as possible.	628319	1471952352495	1471952352599		79
1285	13114	When it is used we try and do as many paths as possible.	When it is used we try and do as many paths as possible.	628320	1471952352638	1471952352727		83
1285	13114	When it is used we try and do as many paths as possible.	When it is used we try and do as many paths as possible.	628321	1471952352806	1471952352907		83
1285	13114	When it is used we try and do as many paths as possible.	When it is used we try and do as many paths as possible.	628324	1471952352846	1471952352958		73
1285	13114	When it is used we try and do as many paths as possible.	When it is used we try and do as many paths as possible.	628328	1471952352991	1471952353086		66
1285	13114	When it is used we try and do as many paths as possible.	When it is used we try and do as many paths as possible.	628356	1471952353150	1471952353278		76
1285	13114	When it is used we try and do as many paths as possible.	When it is used we try and do as many paths as possible.	628358	1471952353222	1471952353326		69
1285	13114	When it is used we try and do as many paths as possible.	When it is used we try and do as many paths as possible.	628360	1471952353574	1471952353679		190
1285	13128	The contract is a bit complicated.	The contract is a bit complicated/	628586	1471952357094	1471952357654	SHIFT	16
1285	13128	The contract is a bit complicated.	The contract is a bit complicated/	628582	1471952357582	1471952357638		84
1285	13128	The contract is a bit complicated.	The contract is a bit complicated/	628589	1471952357742	1471952357873		72
1285	13128	The contract is a bit complicated.	The contract is a bit complicated/	628592	1471952357854	1471952357982		69
1285	13128	The contract is a bit complicated.	The contract is a bit complicated/	628594	1471952358006	1471952358094		32
1285	13128	The contract is a bit complicated.	The contract is a bit complicated/	628598	1471952358110	1471952358214		67
1285	13128	The contract is a bit complicated.	The contract is a bit complicated/	628639	1471952358175	1471952358294		79
1285	13128	The contract is a bit complicated.	The contract is a bit complicated/	628640	1471952358336	1471952358486		78
1285	13128	The contract is a bit complicated.	The contract is a bit complicated/	628644	1471952358638	1471952358766		84
1285	13128	The contract is a bit complicated.	The contract is a bit complicated/	628647	1471952358911	1471952359078		82
1285	13128	The contract is a bit complicated.	The contract is a bit complicated/	628650	1471952359014	1471952359174		65
1285	13128	The contract is a bit complicated.	The contract is a bit complicated/	628657	1471952359118	1471952359238		67
1285	13128	The contract is a bit complicated.	The contract is a bit complicated/	628659	1471952359190	1471952359326		84
1285	13128	The contract is a bit complicated.	The contract is a bit complicated/	628662	1471952359358	1471952359454		32
1285	13128	The contract is a bit complicated.	The contract is a bit complicated/	628667	1471952359478	1471952359614		73
1285	13128	The contract is a bit complicated.	The contract is a bit complicated/	628673	1471952359590	1471952359702		83
1285	13128	The contract is a bit complicated.	The contract is a bit complicated/	628709	1471952359686	1471952359782		32
1285	13128	The contract is a bit complicated.	The contract is a bit complicated/	628710	1471952359813	1471952359926		65
1285	13128	The contract is a bit complicated.	The contract is a bit complicated/	628711	1471952360046	1471952360174		32
1285	13128	The contract is a bit complicated.	The contract is a bit complicated/	628712	1471952360278	1471952360430		66
1285	13128	The contract is a bit complicated.	The contract is a bit complicated/	628714	1471952360446	1471952360574		85
1285	13128	The contract is a bit complicated.	The contract is a bit complicated/	628755	1471952360550	1471952360678		84
1285	13128	The contract is a bit complicated.	The contract is a bit complicated/	628758	1471952360711	1471952360806		32
1285	13128	The contract is a bit complicated.	The contract is a bit complicated/	628763	1471952361062	1471952361134		8
1285	13128	The contract is a bit complicated.	The contract is a bit complicated/	628768	1471952361198	1471952361262		8
1285	13128	The contract is a bit complicated.	The contract is a bit complicated/	628772	1471952361326	1471952361398		8
1285	13128	The contract is a bit complicated.	The contract is a bit complicated/	628775	1471952361462	1471952361526		8
1285	13128	The contract is a bit complicated.	The contract is a bit complicated/	628820	1471952362078	1471952362190		66
1285	13128	The contract is a bit complicated.	The contract is a bit complicated/	628823	1471952362286	1471952362430		73
1285	13128	The contract is a bit complicated.	The contract is a bit complicated/	628826	1471952362406	1471952362510		84
1285	13128	The contract is a bit complicated.	The contract is a bit complicated/	628828	1471952362526	1471952362614		32
1285	13128	The contract is a bit complicated.	The contract is a bit complicated/	628831	1471952362686	1471952362798		67
1285	13128	The contract is a bit complicated.	The contract is a bit complicated/	628860	1471952362839	1471952362982		79
1285	13128	The contract is a bit complicated.	The contract is a bit complicated/	628864	1471952362942	1471952363062		77
1285	13128	The contract is a bit complicated.	The contract is a bit complicated/	628870	1471952363134	1471952363270		80
1285	13128	The contract is a bit complicated.	The contract is a bit complicated/	628874	1471952363214	1471952363342		76
1285	13128	The contract is a bit complicated.	The contract is a bit complicated/	628877	1471952363447	1471952363598		73
1285	13128	The contract is a bit complicated.	The contract is a bit complicated/	628897	1471952363582	1471952363718		67
1285	13128	The contract is a bit complicated.	The contract is a bit complicated/	628901	1471952363630	1471952363822		65
1285	13128	The contract is a bit complicated.	The contract is a bit complicated/	628904	1471952363774	1471952363910		84
1285	13128	The contract is a bit complicated.	The contract is a bit complicated/	628905	1471952363942	1471952364070		69
1285	13128	The contract is a bit complicated.	The contract is a bit complicated/	628906	1471952364150	1471952364254		68
1285	13128	The contract is a bit complicated.	The contract is a bit complicated/	628908	1471952364358	1471952364462		191
1285	13140	Probably will be working.	Probably will be working.	629137	1471952367990	1471952368230	SHIFT	16
1285	13140	Probably will be working.	Probably will be working.	629139	1471952368150	1471952368254		80
1285	13140	Probably will be working.	Probably will be working.	629141	1471952368879	1471952368990		82
1285	13140	Probably will be working.	Probably will be working.	629144	1471952369022	1471952369142		79
1285	13140	Probably will be working.	Probably will be working.	629145	1471952369606	1471952369726		66
1285	13140	Probably will be working.	Probably will be working.	629178	1471952369681	1471952369782		65
1285	13140	Probably will be working.	Probably will be working.	629183	1471952369822	1471952369926		66
1285	13140	Probably will be working.	Probably will be working.	629187	1471952370022	1471952370150		76
1285	13140	Probably will be working.	Probably will be working.	629191	1471952370254	1471952370342		89
1285	13140	Probably will be working.	Probably will be working.	629194	1471952370414	1471952370526		32
1285	13140	Probably will be working.	Probably will be working.	629213	1471952370502	1471952370622		87
1285	13140	Probably will be working.	Probably will be working.	629217	1471952370590	1471952370694		73
1285	13140	Probably will be working.	Probably will be working.	629225	1471952370790	1471952370878		76
1285	13140	Probably will be working.	Probably will be working.	629232	1471952370926	1471952371038		76
1285	13140	Probably will be working.	Probably will be working.	629238	1471952371054	1471952371158		32
1285	13140	Probably will be working.	Probably will be working.	629243	1471952371198	1471952371318		66
1285	13140	Probably will be working.	Probably will be working.	629298	1471952371294	1471952371390		69
1285	13140	Probably will be working.	Probably will be working.	629301	1471952371367	1471952371462		32
1285	13140	Probably will be working.	Probably will be working.	629305	1471952371726	1471952371854		87
1285	13140	Probably will be working.	Probably will be working.	629309	1471952371870	1471952371942		79
1285	13140	Probably will be working.	Probably will be working.	629314	1471952372126	1471952372246		82
1285	13140	Probably will be working.	Probably will be working.	629317	1471952372470	1471952372550		75
1285	13140	Probably will be working.	Probably will be working.	629327	1471952372646	1471952372782		73
1285	13140	Probably will be working.	Probably will be working.	629330	1471952372766	1471952372878		78
1285	13140	Probably will be working.	Probably will be working.	629332	1471952372830	1471952372926		71
1285	13140	Probably will be working.	Probably will be working.	629335	1471952372998	1471952373102		190
1285	13147	Amy will no longer be here so I will be the only one working on this.	Amy will no longer be here so I will be the only one working on this.	629540	1471952376190	1471952376974	SHIFT	16
1285	13147	Amy will no longer be here so I will be the only one working on this.	Amy will no longer be here so I will be the only one working on this.	629537	1471952376854	1471952376942		65
1285	13147	Amy will no longer be here so I will be the only one working on this.	Amy will no longer be here so I will be the only one working on this.	629542	1471952377213	1471952377317		77
1285	13147	Amy will no longer be here so I will be the only one working on this.	Amy will no longer be here so I will be the only one working on this.	629544	1471952377437	1471952377525		89
1285	13147	Amy will no longer be here so I will be the only one working on this.	Amy will no longer be here so I will be the only one working on this.	629547	1471952377565	1471952377654		32
1285	13147	Amy will no longer be here so I will be the only one working on this.	Amy will no longer be here so I will be the only one working on this.	629549	1471952377758	1471952377880		87
1285	13147	Amy will no longer be here so I will be the only one working on this.	Amy will no longer be here so I will be the only one working on this.	629573	1471952377861	1471952377950		73
1285	13147	Amy will no longer be here so I will be the only one working on this.	Amy will no longer be here so I will be the only one working on this.	629575	1471952378038	1471952378126		76
1285	13147	Amy will no longer be here so I will be the only one working on this.	Amy will no longer be here so I will be the only one working on this.	629579	1471952378173	1471952378341		76
1285	13147	Amy will no longer be here so I will be the only one working on this.	Amy will no longer be here so I will be the only one working on this.	629584	1471952378317	1471952378437		32
1285	13147	Amy will no longer be here so I will be the only one working on this.	Amy will no longer be here so I will be the only one working on this.	629588	1471952378518	1471952378677		78
1285	13147	Amy will no longer be here so I will be the only one working on this.	Amy will no longer be here so I will be the only one working on this.	629673	1471952378622	1471952378782		79
1285	13147	Amy will no longer be here so I will be the only one working on this.	Amy will no longer be here so I will be the only one working on this.	629675	1471952378757	1471952378861		32
1285	13147	Amy will no longer be here so I will be the only one working on this.	Amy will no longer be here so I will be the only one working on this.	629677	1471952379494	1471952379582		76
1285	13147	Amy will no longer be here so I will be the only one working on this.	Amy will no longer be here so I will be the only one working on this.	629679	1471952379701	1471952379798		79
1285	13147	Amy will no longer be here so I will be the only one working on this.	Amy will no longer be here so I will be the only one working on this.	629682	1471952379885	1471952380005		78
1285	13147	Amy will no longer be here so I will be the only one working on this.	Amy will no longer be here so I will be the only one working on this.	629685	1471952380174	1471952380294		71
1285	13147	Amy will no longer be here so I will be the only one working on this.	Amy will no longer be here so I will be the only one working on this.	629713	1471952380309	1471952380429		69
1285	13147	Amy will no longer be here so I will be the only one working on this.	Amy will no longer be here so I will be the only one working on this.	629714	1471952380365	1471952380485		82
1285	13147	Amy will no longer be here so I will be the only one working on this.	Amy will no longer be here so I will be the only one working on this.	629719	1471952380517	1471952380605		32
1285	13147	Amy will no longer be here so I will be the only one working on this.	Amy will no longer be here so I will be the only one working on this.	629724	1471952380958	1471952381094		66
1285	13147	Amy will no longer be here so I will be the only one working on this.	Amy will no longer be here so I will be the only one working on this.	629755	1471952381069	1471952381173		69
1285	13147	Amy will no longer be here so I will be the only one working on this.	Amy will no longer be here so I will be the only one working on this.	629757	1471952381197	1471952381269		32
1285	13147	Amy will no longer be here so I will be the only one working on this.	Amy will no longer be here so I will be the only one working on this.	629759	1471952381333	1471952381477		72
1285	13147	Amy will no longer be here so I will be the only one working on this.	Amy will no longer be here so I will be the only one working on this.	629761	1471952381446	1471952381557		69
1285	13147	Amy will no longer be here so I will be the only one working on this.	Amy will no longer be here so I will be the only one working on this.	629763	1471952381518	1471952381669		82
1285	13147	Amy will no longer be here so I will be the only one working on this.	Amy will no longer be here so I will be the only one working on this.	629796	1471952381613	1471952381717		69
1285	13147	Amy will no longer be here so I will be the only one working on this.	Amy will no longer be here so I will be the only one working on this.	629800	1471952381741	1471952381813		32
1285	13147	Amy will no longer be here so I will be the only one working on this.	Amy will no longer be here so I will be the only one working on this.	629804	1471952381845	1471952381957		83
1285	13147	Amy will no longer be here so I will be the only one working on this.	Amy will no longer be here so I will be the only one working on this.	629809	1471952381934	1471952382061		79
1285	13147	Amy will no longer be here so I will be the only one working on this.	Amy will no longer be here so I will be the only one working on this.	629813	1471952382085	1471952382181		32
1285	13147	Amy will no longer be here so I will be the only one working on this.	Amy will no longer be here so I will be the only one working on this.	629858	1471952382430	1471952382645	SHIFT	16
1285	13147	Amy will no longer be here so I will be the only one working on this.	Amy will no longer be here so I will be the only one working on this.	629818	1471952382533	1471952382621		73
1285	13147	Amy will no longer be here so I will be the only one working on this.	Amy will no longer be here so I will be the only one working on this.	629859	1471952382901	1471952383005		32
1285	13147	Amy will no longer be here so I will be the only one working on this.	Amy will no longer be here so I will be the only one working on this.	629860	1471952383069	1471952383181		87
1285	13147	Amy will no longer be here so I will be the only one working on this.	Amy will no longer be here so I will be the only one working on this.	629861	1471952383197	1471952383269		73
1285	13147	Amy will no longer be here so I will be the only one working on this.	Amy will no longer be here so I will be the only one working on this.	629862	1471952383365	1471952383445		76
1285	13147	Amy will no longer be here so I will be the only one working on this.	Amy will no longer be here so I will be the only one working on this.	629863	1471952383501	1471952383638		76
1285	13147	Amy will no longer be here so I will be the only one working on this.	Amy will no longer be here so I will be the only one working on this.	629876	1471952383621	1471952383717		32
1285	13147	Amy will no longer be here so I will be the only one working on this.	Amy will no longer be here so I will be the only one working on this.	629879	1471952383797	1471952383909		66
1285	13147	Amy will no longer be here so I will be the only one working on this.	Amy will no longer be here so I will be the only one working on this.	629882	1471952383896	1471952383997		69
1285	13147	Amy will no longer be here so I will be the only one working on this.	Amy will no longer be here so I will be the only one working on this.	629885	1471952383973	1471952384061		32
1285	13147	Amy will no longer be here so I will be the only one working on this.	Amy will no longer be here so I will be the only one working on this.	629889	1471952384085	1471952384189		84
1285	13147	Amy will no longer be here so I will be the only one working on this.	Amy will no longer be here so I will be the only one working on this.	629901	1471952384149	1471952384261		72
1285	13147	Amy will no longer be here so I will be the only one working on this.	Amy will no longer be here so I will be the only one working on this.	629904	1471952384285	1471952384406		69
1285	13147	Amy will no longer be here so I will be the only one working on this.	Amy will no longer be here so I will be the only one working on this.	629906	1471952384365	1471952384453		32
1285	13147	Amy will no longer be here so I will be the only one working on this.	Amy will no longer be here so I will be the only one working on this.	629909	1471952384502	1471952384605		79
1285	13147	Amy will no longer be here so I will be the only one working on this.	Amy will no longer be here so I will be the only one working on this.	629911	1471952384662	1471952384766		78
1285	13147	Amy will no longer be here so I will be the only one working on this.	Amy will no longer be here so I will be the only one working on this.	629914	1471952384829	1471952384933		76
1285	13147	Amy will no longer be here so I will be the only one working on this.	Amy will no longer be here so I will be the only one working on this.	629946	1471952385061	1471952385141		89
1285	13147	Amy will no longer be here so I will be the only one working on this.	Amy will no longer be here so I will be the only one working on this.	629949	1471952385221	1471952385334		32
1285	13147	Amy will no longer be here so I will be the only one working on this.	Amy will no longer be here so I will be the only one working on this.	629954	1471952385677	1471952385765		79
1285	13147	Amy will no longer be here so I will be the only one working on this.	Amy will no longer be here so I will be the only one working on this.	629959	1471952385813	1471952385957		78
1285	13147	Amy will no longer be here so I will be the only one working on this.	Amy will no longer be here so I will be the only one working on this.	630012	1471952385941	1471952386061		69
1285	13147	Amy will no longer be here so I will be the only one working on this.	Amy will no longer be here so I will be the only one working on this.	630014	1471952386077	1471952386173		32
1285	13147	Amy will no longer be here so I will be the only one working on this.	Amy will no longer be here so I will be the only one working on this.	630017	1471952386341	1471952386477		87
1285	13147	Amy will no longer be here so I will be the only one working on this.	Amy will no longer be here so I will be the only one working on this.	630022	1471952386494	1471952386581		79
1285	13147	Amy will no longer be here so I will be the only one working on this.	Amy will no longer be here so I will be the only one working on this.	630029	1471952386645	1471952386725		82
1285	13147	Amy will no longer be here so I will be the only one working on this.	Amy will no longer be here so I will be the only one working on this.	630034	1471952387157	1471952387269		75
1285	13147	Amy will no longer be here so I will be the only one working on this.	Amy will no longer be here so I will be the only one working on this.	630058	1471952387369	1471952387493		73
1285	13147	Amy will no longer be here so I will be the only one working on this.	Amy will no longer be here so I will be the only one working on this.	630060	1471952387465	1471952387581		78
1285	13147	Amy will no longer be here so I will be the only one working on this.	Amy will no longer be here so I will be the only one working on this.	630063	1471952387557	1471952387670		71
1285	13147	Amy will no longer be here so I will be the only one working on this.	Amy will no longer be here so I will be the only one working on this.	630064	1471952387693	1471952387757		32
1285	13147	Amy will no longer be here so I will be the only one working on this.	Amy will no longer be here so I will be the only one working on this.	630066	1471952387821	1471952387941		79
1285	13147	Amy will no longer be here so I will be the only one working on this.	Amy will no longer be here so I will be the only one working on this.	630087	1471952387968	1471952388133		78
1285	13147	Amy will no longer be here so I will be the only one working on this.	Amy will no longer be here so I will be the only one working on this.	630095	1471952388109	1471952388205		32
1285	13147	Amy will no longer be here so I will be the only one working on this.	Amy will no longer be here so I will be the only one working on this.	630102	1471952388149	1471952388269		84
1285	13147	Amy will no longer be here so I will be the only one working on this.	Amy will no longer be here so I will be the only one working on this.	630105	1471952388253	1471952388389		72
1285	13147	Amy will no longer be here so I will be the only one working on this.	Amy will no longer be here so I will be the only one working on this.	630133	1471952388349	1471952388520		73
1285	13147	Amy will no longer be here so I will be the only one working on this.	Amy will no longer be here so I will be the only one working on this.	630137	1471952388445	1471952388557		83
1285	13147	Amy will no longer be here so I will be the only one working on this.	Amy will no longer be here so I will be the only one working on this.	630141	1471952388829	1471952388966		190
1285	13165	I will be back Friday.	I will be back Friday.	630278	1471952391853	1471952391998	SHIFT	16
1285	13165	I will be back Friday.	I will be back Friday.	630280	1471952391949	1471952392029		73
1285	13165	I will be back Friday.	I will be back Friday.	630284	1471952392093	1471952392197		32
1285	13165	I will be back Friday.	I will be back Friday.	630287	1471952392213	1471952392319		87
1285	13165	I will be back Friday.	I will be back Friday.	630289	1471952392301	1471952392373		73
1285	13165	I will be back Friday.	I will be back Friday.	630292	1471952392461	1471952392543		76
1285	13165	I will be back Friday.	I will be back Friday.	630314	1471952392589	1471952392717		76
1285	13165	I will be back Friday.	I will be back Friday.	630316	1471952392693	1471952392797		32
1285	13165	I will be back Friday.	I will be back Friday.	630319	1471952392853	1471952392965		66
1285	13165	I will be back Friday.	I will be back Friday.	630321	1471952392909	1471952393005		69
1285	13165	I will be back Friday.	I will be back Friday.	630323	1471952393021	1471952393117		32
1285	13165	I will be back Friday.	I will be back Friday.	630366	1471952393421	1471952393525		66
1285	13165	I will be back Friday.	I will be back Friday.	630370	1471952393509	1471952393629		65
1285	13165	I will be back Friday.	I will be back Friday.	630375	1471952393597	1471952393717		67
1285	13165	I will be back Friday.	I will be back Friday.	630380	1471952393973	1471952394072		75
1285	13165	I will be back Friday.	I will be back Friday.	630387	1471952394413	1471952394501		32
1285	13165	I will be back Friday.	I will be back Friday.	630466	1471952394653	1471952394909	SHIFT	16
1285	13165	I will be back Friday.	I will be back Friday.	630470	1471952394829	1471952394934		70
1285	13165	I will be back Friday.	I will be back Friday.	630472	1471952395205	1471952395301		82
1285	13165	I will be back Friday.	I will be back Friday.	630476	1471952395325	1471952395413		73
1285	13165	I will be back Friday.	I will be back Friday.	630481	1471952395957	1471952396093		68
1285	13165	I will be back Friday.	I will be back Friday.	630504	1471952396061	1471952396181		65
1285	13165	I will be back Friday.	I will be back Friday.	630507	1471952396221	1471952396333		89
1285	13165	I will be back Friday.	I will be back Friday.	630510	1471952396557	1471952396669		190
1285	13172	Chad thought we were on a treasure hunt.	Chad thought we were on a treasure hunt.	630700	1471952399677	1471952400037	SHIFT	16
1285	13172	Chad thought we were on a treasure hunt.	Chad thought we were on a treasure hunt.	630702	1471952399933	1471952400060		67
1285	13172	Chad thought we were on a treasure hunt.	Chad thought we were on a treasure hunt.	630706	1471952400221	1471952400349		72
1285	13172	Chad thought we were on a treasure hunt.	Chad thought we were on a treasure hunt.	630708	1471952400285	1471952400437		65
1285	13172	Chad thought we were on a treasure hunt.	Chad thought we were on a treasure hunt.	630710	1471952400389	1471952400524		68
1285	13172	Chad thought we were on a treasure hunt.	Chad thought we were on a treasure hunt.	630713	1471952400573	1471952400660		32
1285	13172	Chad thought we were on a treasure hunt.	Chad thought we were on a treasure hunt.	630776	1471952400946	1471952401045		72
1285	13172	Chad thought we were on a treasure hunt.	Chad thought we were on a treasure hunt.	630778	1471952401311	1471952401420		8
1285	13172	Chad thought we were on a treasure hunt.	Chad thought we were on a treasure hunt.	630781	1471952401581	1471952401661		84
1285	13172	Chad thought we were on a treasure hunt.	Chad thought we were on a treasure hunt.	630783	1471952401684	1471952401773		72
1285	13172	Chad thought we were on a treasure hunt.	Chad thought we were on a treasure hunt.	630784	1471952401804	1471952401933		79
1285	13172	Chad thought we were on a treasure hunt.	Chad thought we were on a treasure hunt.	630822	1471952402021	1471952402116		85
1285	13172	Chad thought we were on a treasure hunt.	Chad thought we were on a treasure hunt.	630824	1471952402188	1471952402277		71
1285	13172	Chad thought we were on a treasure hunt.	Chad thought we were on a treasure hunt.	630827	1471952402357	1471952402461		72
1285	13172	Chad thought we were on a treasure hunt.	Chad thought we were on a treasure hunt.	630829	1471952402517	1471952402628		32
1285	13172	Chad thought we were on a treasure hunt.	Chad thought we were on a treasure hunt.	630831	1471952402837	1471952402952		8
1285	13172	Chad thought we were on a treasure hunt.	Chad thought we were on a treasure hunt.	630854	1471952402965	1471952403068		84
1285	13172	Chad thought we were on a treasure hunt.	Chad thought we were on a treasure hunt.	630858	1471952403125	1471952403229		32
1285	13172	Chad thought we were on a treasure hunt.	Chad thought we were on a treasure hunt.	630861	1471952403460	1471952403613		87
1285	13172	Chad thought we were on a treasure hunt.	Chad thought we were on a treasure hunt.	630863	1471952403565	1471952403708		69
1285	13172	Chad thought we were on a treasure hunt.	Chad thought we were on a treasure hunt.	630866	1471952403756	1471952403836		32
1285	13172	Chad thought we were on a treasure hunt.	Chad thought we were on a treasure hunt.	630886	1471952403924	1471952404028		87
1285	13172	Chad thought we were on a treasure hunt.	Chad thought we were on a treasure hunt.	630888	1471952404124	1471952404260		69
1285	13172	Chad thought we were on a treasure hunt.	Chad thought we were on a treasure hunt.	630892	1471952404214	1471952404356		82
1285	13172	Chad thought we were on a treasure hunt.	Chad thought we were on a treasure hunt.	630897	1471952404324	1471952404436		69
1285	13172	Chad thought we were on a treasure hunt.	Chad thought we were on a treasure hunt.	630900	1471952404469	1471952404565		32
1285	13172	Chad thought we were on a treasure hunt.	Chad thought we were on a treasure hunt.	630913	1471952404605	1471952404717		79
1285	13172	Chad thought we were on a treasure hunt.	Chad thought we were on a treasure hunt.	630915	1471952404781	1471952404949		78
1285	13172	Chad thought we were on a treasure hunt.	Chad thought we were on a treasure hunt.	630920	1471952404933	1471952405036		32
1285	13172	Chad thought we were on a treasure hunt.	Chad thought we were on a treasure hunt.	630926	1471952405100	1471952405228		65
1285	13172	Chad thought we were on a treasure hunt.	Chad thought we were on a treasure hunt.	630930	1471952405244	1471952405317		32
1285	13172	Chad thought we were on a treasure hunt.	Chad thought we were on a treasure hunt.	630978	1471952405476	1471952405596		84
1285	13172	Chad thought we were on a treasure hunt.	Chad thought we were on a treasure hunt.	630979	1471952405740	1471952405852		82
1285	13172	Chad thought we were on a treasure hunt.	Chad thought we were on a treasure hunt.	630980	1471952406148	1471952406244		69
1285	13172	Chad thought we were on a treasure hunt.	Chad thought we were on a treasure hunt.	630981	1471952406389	1471952406484		65
1285	13172	Chad thought we were on a treasure hunt.	Chad thought we were on a treasure hunt.	631020	1471952406420	1471952406548		83
1285	13172	Chad thought we were on a treasure hunt.	Chad thought we were on a treasure hunt.	631026	1471952406573	1471952406756		85
1285	13172	Chad thought we were on a treasure hunt.	Chad thought we were on a treasure hunt.	631036	1471952406732	1471952406868		82
1285	13172	Chad thought we were on a treasure hunt.	Chad thought we were on a treasure hunt.	631041	1471952406820	1471952406924		69
1285	13172	Chad thought we were on a treasure hunt.	Chad thought we were on a treasure hunt.	631043	1471952406996	1471952407084		32
1285	13172	Chad thought we were on a treasure hunt.	Chad thought we were on a treasure hunt.	631045	1471952407172	1471952407317		72
1285	13172	Chad thought we were on a treasure hunt.	Chad thought we were on a treasure hunt.	631081	1471952407429	1471952407508		85
1285	13172	Chad thought we were on a treasure hunt.	Chad thought we were on a treasure hunt.	631080	1471952407464	1471952407492		89
1285	13172	Chad thought we were on a treasure hunt.	Chad thought we were on a treasure hunt.	631083	1471952407549	1471952407684		78
1285	13172	Chad thought we were on a treasure hunt.	Chad thought we were on a treasure hunt.	631084	1471952407908	1471952407989		8
1285	13172	Chad thought we were on a treasure hunt.	Chad thought we were on a treasure hunt.	631086	1471952408060	1471952408156		8
1285	13172	Chad thought we were on a treasure hunt.	Chad thought we were on a treasure hunt.	631151	1471952408572	1471952408700		78
1285	13172	Chad thought we were on a treasure hunt.	Chad thought we were on a treasure hunt.	631152	1471952409020	1471952409124		84
1285	13172	Chad thought we were on a treasure hunt.	Chad thought we were on a treasure hunt.	631153	1471952409284	1471952409356		190
1285	13187	Chris Foster is in!	Chris Foster is in!	631318	1471952412436	1471952412684	SHIFT	16
1285	13187	Chris Foster is in!	Chris Foster is in!	631321	1471952412588	1471952412732		67
1285	13187	Chris Foster is in!	Chris Foster is in!	631325	1471952412716	1471952412828		72
1285	13187	Chris Foster is in!	Chris Foster is in!	631327	1471952413052	1471952413148		82
1285	13187	Chris Foster is in!	Chris Foster is in!	631329	1471952413164	1471952413308		73
1285	13187	Chris Foster is in!	Chris Foster is in!	631363	1471952413268	1471952413404		83
1285	13187	Chris Foster is in!	Chris Foster is in!	631366	1471952413452	1471952413548		32
1285	13187	Chris Foster is in!	Chris Foster is in!	631373	1471952413636	1471952413932	SHIFT	16
1285	13187	Chris Foster is in!	Chris Foster is in!	631371	1471952413796	1471952413900		70
1285	13187	Chris Foster is in!	Chris Foster is in!	631377	1471952413972	1471952414092		79
1285	13187	Chris Foster is in!	Chris Foster is in!	631380	1471952414172	1471952414284		83
1285	13187	Chris Foster is in!	Chris Foster is in!	631384	1471952414388	1471952414492		84
1285	13187	Chris Foster is in!	Chris Foster is in!	631416	1471952414556	1471952414685		69
1285	13187	Chris Foster is in!	Chris Foster is in!	631423	1471952414660	1471952414764		82
1285	13187	Chris Foster is in!	Chris Foster is in!	631428	1471952414748	1471952414844		32
1285	13187	Chris Foster is in!	Chris Foster is in!	631433	1471952415084	1471952415236		73
1285	13187	Chris Foster is in!	Chris Foster is in!	631518	1471952415196	1471952415292		83
1285	13187	Chris Foster is in!	Chris Foster is in!	631521	1471952415316	1471952415404		32
1285	13187	Chris Foster is in!	Chris Foster is in!	631525	1471952415428	1471952415572		73
1285	13187	Chris Foster is in!	Chris Foster is in!	631530	1471952415540	1471952415668		78
1285	13187	Chris Foster is in!	Chris Foster is in!	631532	1471952416156	1471952416468	SHIFT	16
1285	13187	Chris Foster is in!	Chris Foster is in!	631534	1471952416364	1471952416492		49
1285	13193	The meeting was very beneficial.	The meeting was very beneficical.	631735	1471952420164	1471952420476	SHIFT	16
1285	13193	The meeting was very beneficial.	The meeting was very beneficical.	631739	1471952420412	1471952420491		84
1285	13193	The meeting was very beneficial.	The meeting was very beneficical.	631744	1471952420572	1471952420668		72
1285	13193	The meeting was very beneficial.	The meeting was very beneficical.	631748	1471952420644	1471952420788		69
1285	13193	The meeting was very beneficial.	The meeting was very beneficical.	631752	1471952420772	1471952420876		32
1285	13193	The meeting was very beneficial.	The meeting was very beneficical.	631758	1471952420916	1471952421052		77
1285	13193	The meeting was very beneficial.	The meeting was very beneficical.	631806	1471952421084	1471952421188		69
1285	13193	The meeting was very beneficial.	The meeting was very beneficical.	631807	1471952421468	1471952421596		69
1285	13193	The meeting was very beneficial.	The meeting was very beneficical.	631808	1471952421721	1471952422002		84
1285	13193	The meeting was very beneficial.	The meeting was very beneficical.	631811	1471952422003	1471952422109		73
1285	13193	The meeting was very beneficial.	The meeting was very beneficical.	631848	1471952422023	1471952422158		78
1285	13193	The meeting was very beneficial.	The meeting was very beneficical.	631849	1471952422143	1471952422236		71
1285	13193	The meeting was very beneficial.	The meeting was very beneficical.	631851	1471952422284	1471952422426		32
1285	13193	The meeting was very beneficial.	The meeting was very beneficical.	631853	1471952422767	1471952422847		87
1285	13193	The meeting was very beneficial.	The meeting was very beneficical.	631857	1471952422853	1471952423030		65
1285	13193	The meeting was very beneficial.	The meeting was very beneficical.	631912	1471952423028	1471952423101		83
1285	13193	The meeting was very beneficial.	The meeting was very beneficical.	631913	1471952423158	1471952423270		32
1285	13193	The meeting was very beneficial.	The meeting was very beneficical.	631914	1471952423428	1471952423572		86
1285	13193	The meeting was very beneficial.	The meeting was very beneficical.	631918	1471952423636	1471952423750		69
1285	13193	The meeting was very beneficial.	The meeting was very beneficical.	631923	1471952423696	1471952423846		82
1285	13193	The meeting was very beneficial.	The meeting was very beneficical.	631928	1471952423916	1471952424060		89
1285	13193	The meeting was very beneficial.	The meeting was very beneficical.	632005	1471952424164	1471952424268		32
1285	13193	The meeting was very beneficial.	The meeting was very beneficical.	632010	1471952424788	1471952424930		66
1285	13193	The meeting was very beneficial.	The meeting was very beneficical.	632013	1471952424938	1471952425036		69
1285	13193	The meeting was very beneficial.	The meeting was very beneficical.	632019	1471952425076	1471952425180		78
1285	13193	The meeting was very beneficial.	The meeting was very beneficical.	632023	1471952425628	1471952425734		69
1285	13193	The meeting was very beneficial.	The meeting was very beneficical.	632090	1471952425844	1471952425964		70
1285	13193	The meeting was very beneficial.	The meeting was very beneficical.	632092	1471952426004	1471952426132		73
1285	13193	The meeting was very beneficial.	The meeting was very beneficical.	632096	1471952426916	1471952427028		67
1285	13193	The meeting was very beneficial.	The meeting was very beneficical.	632101	1471952427060	1471952427220		73
1285	13193	The meeting was very beneficial.	The meeting was very beneficical.	632106	1471952427262	1471952427357		67
1285	13193	The meeting was very beneficial.	The meeting was very beneficical.	632116	1471952427292	1471952427475		65
1285	13193	The meeting was very beneficial.	The meeting was very beneficical.	632118	1471952427472	1471952427540		76
1285	13193	The meeting was very beneficial.	The meeting was very beneficical.	632120	1471952427652	1471952427764		190
