PARTICIPANT_ID	TEST_SECTION_ID	SENTENCE	USER_INPUT	KEYSTROKE_ID	PRESS_TIME	RELEASE_TIME	LETTER	KEYCODE
1342	13660	No there will be plenty of others.	No there will be plenty of others.	654479	1471952973958	1471952974036	n	78
1342	13660	No there will be plenty of others.	No there will be plenty of others.	654687	1471952974122	1471952977265	O	20
1342	13660	No there will be plenty of others.	No there will be plenty of others.	654480	1471952974284	1471952974340	 	32
1342	13660	No there will be plenty of others.	No there will be plenty of others.	654481	1471952974359	1471952974439	T	84
1342	13660	No there will be plenty of others.	No there will be plenty of others.	654482	1471952974451	1471952974527	H	72
1342	13660	No there will be plenty of others.	No there will be plenty of others.	654671	1471952974534	1471952974631	E	69
1342	13660	No there will be plenty of others.	No there will be plenty of others.	654675	1471952974631	1471952974739	R	82
1342	13660	No there will be plenty of others.	No there will be plenty of others.	654677	1471952974711	1471952974811	E	69
1342	13660	No there will be plenty of others.	No there will be plenty of others.	654680	1471952974897	1471952974925	 	32
1342	13660	No there will be plenty of others.	No there will be plenty of others.	654684	1471952975322	1471952976714	BKSP	8
1342	13660	No there will be plenty of others.	No there will be plenty of others.	654690	1471952977948	1471952978401	CAPS_LOCK	20
1342	13660	No there will be plenty of others.	No there will be plenty of others.	654693	1471952978883	1471952978979	SHIFT	16
1342	13660	No there will be plenty of others.	No there will be plenty of others.	654699	1471952979572	1471952979896	SHIFT	16
1342	13660	No there will be plenty of others.	No there will be plenty of others.	654694	1471952979732	1471952979804	N	78
1342	13660	No there will be plenty of others.	No there will be plenty of others.	654702	1471952980065	1471952980140	o	79
1342	13660	No there will be plenty of others.	No there will be plenty of others.	654705	1471952980206	1471952980282	 	32
1342	13660	No there will be plenty of others.	No there will be plenty of others.	654708	1471952980324	1471952980396	t	84
1342	13660	No there will be plenty of others.	No there will be plenty of others.	654714	1471952980411	1471952980470	h	72
1342	13660	No there will be plenty of others.	No there will be plenty of others.	654724	1471952980517	1471952980585	e	69
1342	13660	No there will be plenty of others.	No there will be plenty of others.	654738	1471952980599	1471952980707	r	82
1342	13660	No there will be plenty of others.	No there will be plenty of others.	654745	1471952980675	1471952980735	e	69
1342	13660	No there will be plenty of others.	No there will be plenty of others.	654749	1471952980779	1471952980852	 	32
1342	13660	No there will be plenty of others.	No there will be plenty of others.	654750	1471952980851	1471952980950	w	87
1342	13660	No there will be plenty of others.	No there will be plenty of others.	654751	1471952980955	1471952980995	i	73
1342	13660	No there will be plenty of others.	No there will be plenty of others.	654765	1471952981098	1471952981157	l	76
1342	13660	No there will be plenty of others.	No there will be plenty of others.	654769	1471952981215	1471952981290	l	76
1342	13660	No there will be plenty of others.	No there will be plenty of others.	654776	1471952981340	1471952981420	 	32
1342	13660	No there will be plenty of others.	No there will be plenty of others.	654781	1471952981522	1471952981593	b	66
1342	13660	No there will be plenty of others.	No there will be plenty of others.	654786	1471952981614	1471952981695	e	69
1342	13660	No there will be plenty of others.	No there will be plenty of others.	654810	1471952981731	1471952981778	 	32
1342	13660	No there will be plenty of others.	No there will be plenty of others.	654813	1471952981840	1471952981940	p	80
1342	13660	No there will be plenty of others.	No there will be plenty of others.	654816	1471952982064	1471952982159	l	76
1342	13660	No there will be plenty of others.	No there will be plenty of others.	654818	1471952982175	1471952982246	e	69
1342	13660	No there will be plenty of others.	No there will be plenty of others.	654819	1471952982310	1471952982375	n	78
1342	13660	No there will be plenty of others.	No there will be plenty of others.	654832	1471952982417	1471952982469	t	84
1342	13660	No there will be plenty of others.	No there will be plenty of others.	654835	1471952982552	1471952982640	y	89
1342	13660	No there will be plenty of others.	No there will be plenty of others.	654839	1471952982725	1471952982793	 	32
1342	13660	No there will be plenty of others.	No there will be plenty of others.	654843	1471952982854	1471952982941	o	79
1342	13660	No there will be plenty of others.	No there will be plenty of others.	654847	1471952982956	1471952983032	f	70
1342	13660	No there will be plenty of others.	No there will be plenty of others.	654866	1471952983073	1471952983130	 	32
1342	13660	No there will be plenty of others.	No there will be plenty of others.	654869	1471952983236	1471952983315	o	79
1342	13660	No there will be plenty of others.	No there will be plenty of others.	654872	1471952983367	1471952983439	t	84
1342	13660	No there will be plenty of others.	No there will be plenty of others.	654876	1471952983524	1471952983568	h	72
1342	13660	No there will be plenty of others.	No there will be plenty of others.	654881	1471952983658	1471952983773	e	69
1342	13660	No there will be plenty of others.	No there will be plenty of others.	654889	1471952983746	1471952983865	r	82
1342	13660	No there will be plenty of others.	No there will be plenty of others.	654890	1471952983900	1471952984008	s	83
1342	13660	No there will be plenty of others.	No there will be plenty of others.	654891	1471952984021	1471952984101	.	190
1342	13674	What is the stock price doing?	What is the stock price doing?	655024	1471952987375	1471952987531	SHIFT	16
1342	13674	What is the stock price doing?	What is the stock price doing?	655025	1471952987468	1471952987568	W	87
1342	13674	What is the stock price doing?	What is the stock price doing?	655027	1471952987658	1471952987754	h	72
1342	13674	What is the stock price doing?	What is the stock price doing?	655029	1471952987758	1471952987874	a	65
1342	13674	What is the stock price doing?	What is the stock price doing?	655030	1471952987888	1471952987976	t	84
1342	13674	What is the stock price doing?	What is the stock price doing?	655031	1471952988016	1471952988088	 	32
1342	13674	What is the stock price doing?	What is the stock price doing?	655036	1471952988187	1471952988250	i	73
1342	13674	What is the stock price doing?	What is the stock price doing?	655039	1471952988263	1471952988355	s	83
1342	13674	What is the stock price doing?	What is the stock price doing?	655041	1471952988377	1471952988425	 	32
1342	13674	What is the stock price doing?	What is the stock price doing?	655047	1471952988468	1471952988552	t	84
1342	13674	What is the stock price doing?	What is the stock price doing?	655061	1471952988540	1471952988608	h	72
1342	13674	What is the stock price doing?	What is the stock price doing?	655064	1471952988616	1471952988688	e	69
1342	13674	What is the stock price doing?	What is the stock price doing?	655066	1471952988706	1471952988774	 	32
1342	13674	What is the stock price doing?	What is the stock price doing?	655068	1471952988805	1471952988945	s	83
1342	13674	What is the stock price doing?	What is the stock price doing?	655069	1471952988970	1471952989042	t	84
1342	13674	What is the stock price doing?	What is the stock price doing?	655070	1471952989076	1471952989156	o	79
1342	13674	What is the stock price doing?	What is the stock price doing?	655085	1471952989249	1471952989324	c	67
1342	13674	What is the stock price doing?	What is the stock price doing?	655087	1471952989354	1471952989430	k	75
1342	13674	What is the stock price doing?	What is the stock price doing?	655092	1471952989515	1471952989583	 	32
1342	13674	What is the stock price doing?	What is the stock price doing?	655095	1471952989669	1471952989769	p	80
1342	13674	What is the stock price doing?	What is the stock price doing?	655098	1471952989831	1471952989911	r	82
1342	13674	What is the stock price doing?	What is the stock price doing?	655127	1471952990028	1471952990112	i	73
1342	13674	What is the stock price doing?	What is the stock price doing?	655130	1471952990198	1471952990262	c	67
1342	13674	What is the stock price doing?	What is the stock price doing?	655133	1471952990376	1471952990444	e	69
1342	13674	What is the stock price doing?	What is the stock price doing?	655136	1471952990514	1471952990606	 	32
1342	13674	What is the stock price doing?	What is the stock price doing?	655139	1471952990834	1471952990930	d	68
1342	13674	What is the stock price doing?	What is the stock price doing?	655179	1471952990992	1471952991104	o	79
1342	13674	What is the stock price doing?	What is the stock price doing?	655182	1471952991126	1471952991194	i	73
1342	13674	What is the stock price doing?	What is the stock price doing?	655186	1471952991262	1471952991354	n	78
1342	13674	What is the stock price doing?	What is the stock price doing?	655191	1471952991387	1471952991459	g	71
1342	13674	What is the stock price doing?	What is the stock price doing?	655197	1471952991577	1471952991930	SHIFT	16
1342	13674	What is the stock price doing?	What is the stock price doing?	655196	1471952991778	1471952991902	?	191
1342	13681	He made his mark by campaigning against hospital fraud.	He made his mark by campaigning against hospital fraud.	655339	1471952994705	1471952994998	CAPS_LOCK	20
1342	13681	He made his mark by campaigning against hospital fraud.	He made his mark by campaigning against hospital fraud.	655335	1471952994900	1471952994988	H	72
1342	13681	He made his mark by campaigning against hospital fraud.	He made his mark by campaigning against hospital fraud.	655342	1471952995155	1471952995247	e	69
1342	13681	He made his mark by campaigning against hospital fraud.	He made his mark by campaigning against hospital fraud.	655345	1471952995294	1471952995370	 	32
1342	13681	He made his mark by campaigning against hospital fraud.	He made his mark by campaigning against hospital fraud.	655346	1471952995526	1471952995618	m	77
1342	13681	He made his mark by campaigning against hospital fraud.	He made his mark by campaigning against hospital fraud.	655348	1471952995630	1471952995751	a	65
1342	13681	He made his mark by campaigning against hospital fraud.	He made his mark by campaigning against hospital fraud.	655365	1471952995779	1471952995859	d	68
1342	13681	He made his mark by campaigning against hospital fraud.	He made his mark by campaigning against hospital fraud.	655368	1471952995948	1471952996028	e	69
1342	13681	He made his mark by campaigning against hospital fraud.	He made his mark by campaigning against hospital fraud.	655371	1471952996046	1471952996098	 	32
1342	13681	He made his mark by campaigning against hospital fraud.	He made his mark by campaigning against hospital fraud.	655373	1471952996162	1471952996230	h	72
1342	13681	He made his mark by campaigning against hospital fraud.	He made his mark by campaigning against hospital fraud.	655375	1471952996309	1471952996369	i	73
1342	13681	He made his mark by campaigning against hospital fraud.	He made his mark by campaigning against hospital fraud.	655383	1471952996381	1471952996465	s	83
1342	13681	He made his mark by campaigning against hospital fraud.	He made his mark by campaigning against hospital fraud.	655384	1471952996477	1471952996545	 	32
1342	13681	He made his mark by campaigning against hospital fraud.	He made his mark by campaigning against hospital fraud.	655386	1471952996655	1471952996759	m	77
1342	13681	He made his mark by campaigning against hospital fraud.	He made his mark by campaigning against hospital fraud.	655387	1471952996785	1471952996914	a	65
1342	13681	He made his mark by campaigning against hospital fraud.	He made his mark by campaigning against hospital fraud.	655423	1471952996885	1471952996991	r	82
1342	13681	He made his mark by campaigning against hospital fraud.	He made his mark by campaigning against hospital fraud.	655426	1471952996989	1471952997073	k	75
1342	13681	He made his mark by campaigning against hospital fraud.	He made his mark by campaigning against hospital fraud.	655430	1471952997142	1471952997210	 	32
1342	13681	He made his mark by campaigning against hospital fraud.	He made his mark by campaigning against hospital fraud.	655432	1471952997468	1471952997564	b	66
1342	13681	He made his mark by campaigning against hospital fraud.	He made his mark by campaigning against hospital fraud.	655436	1471952997646	1471952997706	y	89
1342	13681	He made his mark by campaigning against hospital fraud.	He made his mark by campaigning against hospital fraud.	655437	1471952997801	1471952997866	 	32
1342	13681	He made his mark by campaigning against hospital fraud.	He made his mark by campaigning against hospital fraud.	655463	1471952997967	1471952998115	c	67
1342	13681	He made his mark by campaigning against hospital fraud.	He made his mark by campaigning against hospital fraud.	655465	1471952998092	1471952998195	a	65
1342	13681	He made his mark by campaigning against hospital fraud.	He made his mark by campaigning against hospital fraud.	655470	1471952998300	1471952998412	m	77
1342	13681	He made his mark by campaigning against hospital fraud.	He made his mark by campaigning against hospital fraud.	655473	1471952998481	1471952998609	p	80
1342	13681	He made his mark by campaigning against hospital fraud.	He made his mark by campaigning against hospital fraud.	655475	1471952999597	1471952999669	a	65
1342	13681	He made his mark by campaigning against hospital fraud.	He made his mark by campaigning against hospital fraud.	655495	1471952999724	1471952999801	i	73
1342	13681	He made his mark by campaigning against hospital fraud.	He made his mark by campaigning against hospital fraud.	655496	1471952999899	1471952999974	g	71
1342	13681	He made his mark by campaigning against hospital fraud.	He made his mark by campaigning against hospital fraud.	655497	1471953000034	1471953000078	n	78
1342	13681	He made his mark by campaigning against hospital fraud.	He made his mark by campaigning against hospital fraud.	655498	1471953000843	1471953000907	i	73
1342	13681	He made his mark by campaigning against hospital fraud.	He made his mark by campaigning against hospital fraud.	655499	1471953001004	1471953001044	n	78
1342	13681	He made his mark by campaigning against hospital fraud.	He made his mark by campaigning against hospital fraud.	655531	1471953001072	1471953001128	g	71
1342	13681	He made his mark by campaigning against hospital fraud.	He made his mark by campaigning against hospital fraud.	655537	1471953001170	1471953001246	 	32
1342	13681	He made his mark by campaigning against hospital fraud.	He made his mark by campaigning against hospital fraud.	655541	1471953001440	1471953001592	a	65
1342	13681	He made his mark by campaigning against hospital fraud.	He made his mark by campaigning against hospital fraud.	655545	1471953001907	1471953002007	g	71
1342	13681	He made his mark by campaigning against hospital fraud.	He made his mark by campaigning against hospital fraud.	655550	1471953002096	1471953002203	a	65
1342	13681	He made his mark by campaigning against hospital fraud.	He made his mark by campaigning against hospital fraud.	655656	1471953002466	1471953002555	i	73
1342	13681	He made his mark by campaigning against hospital fraud.	He made his mark by campaigning against hospital fraud.	655659	1471953002593	1471953002649	s	83
1342	13681	He made his mark by campaigning against hospital fraud.	He made his mark by campaigning against hospital fraud.	655661	1471953003087	1471953003126	BKSP	8
1342	13681	He made his mark by campaigning against hospital fraud.	He made his mark by campaigning against hospital fraud.	655664	1471953003200	1471953003276	BKSP	8
1342	13681	He made his mark by campaigning against hospital fraud.	He made his mark by campaigning against hospital fraud.	655667	1471953003921	1471953003992	n	78
1342	13681	He made his mark by campaigning against hospital fraud.	He made his mark by campaigning against hospital fraud.	655670	1471953004266	1471953004331	BKSP	8
1342	13681	He made his mark by campaigning against hospital fraud.	He made his mark by campaigning against hospital fraud.	655675	1471953004625	1471953004685	i	73
1342	13681	He made his mark by campaigning against hospital fraud.	He made his mark by campaigning against hospital fraud.	655679	1471953004785	1471953004829	n	78
1342	13681	He made his mark by campaigning against hospital fraud.	He made his mark by campaigning against hospital fraud.	655717	1471953004861	1471953004937	s	83
1342	13681	He made his mark by campaigning against hospital fraud.	He made his mark by campaigning against hospital fraud.	655718	1471953005004	1471953005092	t	84
1342	13681	He made his mark by campaigning against hospital fraud.	He made his mark by campaigning against hospital fraud.	655720	1471953005178	1471953005262	 	32
1342	13681	He made his mark by campaigning against hospital fraud.	He made his mark by campaigning against hospital fraud.	655723	1471953005863	1471953005935	h	72
1342	13681	He made his mark by campaigning against hospital fraud.	He made his mark by campaigning against hospital fraud.	655726	1471953006205	1471953006325	o	79
1342	13681	He made his mark by campaigning against hospital fraud.	He made his mark by campaigning against hospital fraud.	655773	1471953006438	1471953006506	p	80
1342	13681	He made his mark by campaigning against hospital fraud.	He made his mark by campaigning against hospital fraud.	655776	1471953006683	1471953006819	i	73
1342	13681	He made his mark by campaigning against hospital fraud.	He made his mark by campaigning against hospital fraud.	655779	1471953006883	1471953007015	t	84
1342	13681	He made his mark by campaigning against hospital fraud.	He made his mark by campaigning against hospital fraud.	655782	1471953007117	1471953007189	l	76
1342	13681	He made his mark by campaigning against hospital fraud.	He made his mark by campaigning against hospital fraud.	655785	1471953007397	1471953007449	BKSP	8
1342	13681	He made his mark by campaigning against hospital fraud.	He made his mark by campaigning against hospital fraud.	655787	1471953007542	1471953007630	a	65
1342	13681	He made his mark by campaigning against hospital fraud.	He made his mark by campaigning against hospital fraud.	655861	1471953007633	1471953007746	l	76
1342	13681	He made his mark by campaigning against hospital fraud.	He made his mark by campaigning against hospital fraud.	655862	1471953007842	1471953007926	 	32
1342	13681	He made his mark by campaigning against hospital fraud.	He made his mark by campaigning against hospital fraud.	655863	1471953007989	1471953008073	f	70
1342	13681	He made his mark by campaigning against hospital fraud.	He made his mark by campaigning against hospital fraud.	655864	1471953008500	1471953008561	BKSP	8
1342	13681	He made his mark by campaigning against hospital fraud.	He made his mark by campaigning against hospital fraud.	655865	1471953008673	1471953008713	BKSP	8
1342	13681	He made his mark by campaigning against hospital fraud.	He made his mark by campaigning against hospital fraud.	655866	1471953008813	1471953008873	BKSP	8
1342	13681	He made his mark by campaigning against hospital fraud.	He made his mark by campaigning against hospital fraud.	655867	1471953008962	1471953009026	BKSP	8
1342	13681	He made his mark by campaigning against hospital fraud.	He made his mark by campaigning against hospital fraud.	655868	1471953009124	1471953009180	BKSP	8
1342	13681	He made his mark by campaigning against hospital fraud.	He made his mark by campaigning against hospital fraud.	655869	1471953009271	1471953009334	BKSP	8
1342	13681	He made his mark by campaigning against hospital fraud.	He made his mark by campaigning against hospital fraud.	655871	1471953009576	1471953009672	BKSP	8
1342	13681	He made his mark by campaigning against hospital fraud.	He made his mark by campaigning against hospital fraud.	655873	1471953009943	1471953010027	s	83
1342	13681	He made his mark by campaigning against hospital fraud.	He made his mark by campaigning against hospital fraud.	655875	1471953010205	1471953010321	p	80
1342	13681	He made his mark by campaigning against hospital fraud.	He made his mark by campaigning against hospital fraud.	655904	1471953010399	1471953010451	i	73
1342	13681	He made his mark by campaigning against hospital fraud.	He made his mark by campaigning against hospital fraud.	655907	1471953010527	1471953010631	t	84
1342	13681	He made his mark by campaigning against hospital fraud.	He made his mark by campaigning against hospital fraud.	655911	1471953010639	1471953010763	a	65
1342	13681	He made his mark by campaigning against hospital fraud.	He made his mark by campaigning against hospital fraud.	655916	1471953010767	1471953010855	l	76
1342	13681	He made his mark by campaigning against hospital fraud.	He made his mark by campaigning against hospital fraud.	655919	1471953010956	1471953011028	 	32
1342	13681	He made his mark by campaigning against hospital fraud.	He made his mark by campaigning against hospital fraud.	655961	1471953011101	1471953011161	f	70
1342	13681	He made his mark by campaigning against hospital fraud.	He made his mark by campaigning against hospital fraud.	655964	1471953011352	1471953011448	r	82
1342	13681	He made his mark by campaigning against hospital fraud.	He made his mark by campaigning against hospital fraud.	655967	1471953012169	1471953012209	a	65
1342	13681	He made his mark by campaigning against hospital fraud.	He made his mark by campaigning against hospital fraud.	655974	1471953012290	1471953012374	u	85
1342	13681	He made his mark by campaigning against hospital fraud.	He made his mark by campaigning against hospital fraud.	655975	1471953012521	1471953012605	d	68
1342	13681	He made his mark by campaigning against hospital fraud.	He made his mark by campaigning against hospital fraud.	655980	1471953012684	1471953012788	.	190
1342	13698	Joel will handle this.	Joel will handle this.	656206	1471953017640	1471953017736	j	74
1342	13698	Joel will handle this.	Joel will handle this.	656229	1471953018309	1471953020250	CAPS_LOCK	20
1342	13698	Joel will handle this.	Joel will handle this.	656210	1471953018787	1471953018863	BKSP	8
1342	13698	Joel will handle this.	Joel will handle this.	656214	1471953019196	1471953019260	J	74
1342	13698	Joel will handle this.	Joel will handle this.	656220	1471953019746	1471953019806	O	79
1342	13698	Joel will handle this.	Joel will handle this.	656226	1471953020129	1471953020209	BKSP	8
1342	13698	Joel will handle this.	Joel will handle this.	656233	1471953020377	1471953020469	o	79
1342	13698	Joel will handle this.	Joel will handle this.	656238	1471953020575	1471953020671	e	69
1342	13698	Joel will handle this.	Joel will handle this.	656249	1471953020691	1471953020779	l	76
1342	13698	Joel will handle this.	Joel will handle this.	656252	1471953020835	1471953020907	 	32
1342	13698	Joel will handle this.	Joel will handle this.	656255	1471953020960	1471953021044	w	87
1342	13698	Joel will handle this.	Joel will handle this.	656256	1471953021012	1471953021080	i	73
1342	13698	Joel will handle this.	Joel will handle this.	656257	1471953021187	1471953021218	l	76
1342	13698	Joel will handle this.	Joel will handle this.	656263	1471953021297	1471953021400	l	76
1342	13698	Joel will handle this.	Joel will handle this.	656265	1471953021479	1471953021538	 	32
1342	13698	Joel will handle this.	Joel will handle this.	656268	1471953021618	1471953021705	h	72
1342	13698	Joel will handle this.	Joel will handle this.	656271	1471953021743	1471953021835	a	65
1342	13698	Joel will handle this.	Joel will handle this.	656276	1471953021853	1471953021941	n	78
1342	13698	Joel will handle this.	Joel will handle this.	656308	1471953022107	1471953022199	d	68
1342	13698	Joel will handle this.	Joel will handle this.	656310	1471953022308	1471953022368	l	76
1342	13698	Joel will handle this.	Joel will handle this.	656312	1471953022383	1471953022495	e	69
1342	13698	Joel will handle this.	Joel will handle this.	656314	1471953022536	1471953022617	 	32
1342	13698	Joel will handle this.	Joel will handle this.	656316	1471953022654	1471953022740	t	84
1342	13698	Joel will handle this.	Joel will handle this.	656326	1471953022714	1471953022785	h	72
1342	13698	Joel will handle this.	Joel will handle this.	656327	1471953022854	1471953022913	i	73
1342	13698	Joel will handle this.	Joel will handle this.	656328	1471953022960	1471953023056	s	83
1342	13698	Joel will handle this.	Joel will handle this.	656329	1471953023074	1471953023181	.	190
1342	13707	He is out indefinitely and could miss the remainder of the season.	He is out indefinitely and could miss the remainder of the season. 	656482	1471953026781	1471953027101	SHIFT	16
1342	13707	He is out indefinitely and could miss the remainder of the season.	He is out indefinitely and could miss the remainder of the season. 	656480	1471953026958	1471953027037	H	72
1342	13707	He is out indefinitely and could miss the remainder of the season.	He is out indefinitely and could miss the remainder of the season. 	656485	1471953027529	1471953027597	e	69
1342	13707	He is out indefinitely and could miss the remainder of the season.	He is out indefinitely and could miss the remainder of the season. 	656489	1471953027705	1471953027789	 	32
1342	13707	He is out indefinitely and could miss the remainder of the season.	He is out indefinitely and could miss the remainder of the season. 	656492	1471953027891	1471953027958	i	73
1342	13707	He is out indefinitely and could miss the remainder of the season.	He is out indefinitely and could miss the remainder of the season. 	656494	1471953027959	1471953028058	s	83
1342	13707	He is out indefinitely and could miss the remainder of the season.	He is out indefinitely and could miss the remainder of the season. 	656498	1471953028070	1471953028119	 	32
1342	13707	He is out indefinitely and could miss the remainder of the season.	He is out indefinitely and could miss the remainder of the season. 	656499	1471953028225	1471953028336	o	79
1342	13707	He is out indefinitely and could miss the remainder of the season.	He is out indefinitely and could miss the remainder of the season. 	656501	1471953028329	1471953028413	u	85
1342	13707	He is out indefinitely and could miss the remainder of the season.	He is out indefinitely and could miss the remainder of the season. 	656503	1471953028452	1471953028548	t	84
1342	13707	He is out indefinitely and could miss the remainder of the season.	He is out indefinitely and could miss the remainder of the season. 	656505	1471953028584	1471953028656	 	32
1342	13707	He is out indefinitely and could miss the remainder of the season.	He is out indefinitely and could miss the remainder of the season. 	656512	1471953028791	1471953028875	i	73
1342	13707	He is out indefinitely and could miss the remainder of the season.	He is out indefinitely and could miss the remainder of the season. 	656514	1471953028978	1471953029034	n	78
1342	13707	He is out indefinitely and could miss the remainder of the season.	He is out indefinitely and could miss the remainder of the season. 	656517	1471953029095	1471953029131	d	68
1342	13707	He is out indefinitely and could miss the remainder of the season.	He is out indefinitely and could miss the remainder of the season. 	656520	1471953029225	1471953029337	e	69
1342	13707	He is out indefinitely and could miss the remainder of the season.	He is out indefinitely and could miss the remainder of the season. 	656523	1471953029486	1471953029582	f	70
1342	13707	He is out indefinitely and could miss the remainder of the season.	He is out indefinitely and could miss the remainder of the season. 	656539	1471953029634	1471953029674	i	73
1342	13707	He is out indefinitely and could miss the remainder of the season.	He is out indefinitely and could miss the remainder of the season. 	656540	1471953029782	1471953029838	n	78
1342	13707	He is out indefinitely and could miss the remainder of the season.	He is out indefinitely and could miss the remainder of the season. 	656541	1471953029920	1471953029980	i	73
1342	13707	He is out indefinitely and could miss the remainder of the season.	He is out indefinitely and could miss the remainder of the season. 	656542	1471953030060	1471953030168	t	84
1342	13707	He is out indefinitely and could miss the remainder of the season.	He is out indefinitely and could miss the remainder of the season. 	656544	1471953030206	1471953030294	e	69
1342	13707	He is out indefinitely and could miss the remainder of the season.	He is out indefinitely and could miss the remainder of the season. 	656575	1471953030447	1471953030543	l	76
1342	13707	He is out indefinitely and could miss the remainder of the season.	He is out indefinitely and could miss the remainder of the season. 	656578	1471953030650	1471953030722	y	89
1342	13707	He is out indefinitely and could miss the remainder of the season.	He is out indefinitely and could miss the remainder of the season. 	656581	1471953030840	1471953030868	 	32
1342	13707	He is out indefinitely and could miss the remainder of the season.	He is out indefinitely and could miss the remainder of the season. 	656584	1471953031015	1471953031147	a	65
1342	13707	He is out indefinitely and could miss the remainder of the season.	He is out indefinitely and could miss the remainder of the season. 	656587	1471953031159	1471953031234	n	78
1342	13707	He is out indefinitely and could miss the remainder of the season.	He is out indefinitely and could miss the remainder of the season. 	656610	1471953031211	1471953031303	d	68
1342	13707	He is out indefinitely and could miss the remainder of the season.	He is out indefinitely and could miss the remainder of the season. 	656612	1471953031384	1471953031440	 	32
1342	13707	He is out indefinitely and could miss the remainder of the season.	He is out indefinitely and could miss the remainder of the season. 	656615	1471953031508	1471953031600	c	67
1342	13707	He is out indefinitely and could miss the remainder of the season.	He is out indefinitely and could miss the remainder of the season. 	656618	1471953031588	1471953031720	o	79
1342	13707	He is out indefinitely and could miss the remainder of the season.	He is out indefinitely and could miss the remainder of the season. 	656619	1471953031680	1471953031768	u	85
1342	13707	He is out indefinitely and could miss the remainder of the season.	He is out indefinitely and could miss the remainder of the season. 	656620	1471953031863	1471953031967	l	76
1342	13707	He is out indefinitely and could miss the remainder of the season.	He is out indefinitely and could miss the remainder of the season. 	656634	1471953031955	1471953032031	d	68
1342	13707	He is out indefinitely and could miss the remainder of the season.	He is out indefinitely and could miss the remainder of the season. 	656636	1471953032070	1471953032133	 	32
1342	13707	He is out indefinitely and could miss the remainder of the season.	He is out indefinitely and could miss the remainder of the season. 	656640	1471953032236	1471953032312	m	77
1342	13707	He is out indefinitely and could miss the remainder of the season.	He is out indefinitely and could miss the remainder of the season. 	656645	1471953032394	1471953032466	i	73
1342	13707	He is out indefinitely and could miss the remainder of the season.	He is out indefinitely and could miss the remainder of the season. 	656651	1471953032521	1471953032577	s	83
1342	13707	He is out indefinitely and could miss the remainder of the season.	He is out indefinitely and could miss the remainder of the season. 	656655	1471953032635	1471953032715	s	83
1342	13707	He is out indefinitely and could miss the remainder of the season.	He is out indefinitely and could miss the remainder of the season. 	656668	1471953032795	1471953032835	 	32
1342	13707	He is out indefinitely and could miss the remainder of the season.	He is out indefinitely and could miss the remainder of the season. 	656669	1471953032877	1471953032957	t	84
1342	13707	He is out indefinitely and could miss the remainder of the season.	He is out indefinitely and could miss the remainder of the season. 	656671	1471953032969	1471953033056	h	72
1342	13707	He is out indefinitely and could miss the remainder of the season.	He is out indefinitely and could miss the remainder of the season. 	656672	1471953033029	1471953033105	e	69
1342	13707	He is out indefinitely and could miss the remainder of the season.	He is out indefinitely and could miss the remainder of the season. 	656673	1471953033144	1471953033188	 	32
1342	13707	He is out indefinitely and could miss the remainder of the season.	He is out indefinitely and could miss the remainder of the season. 	656684	1471953033214	1471953033329	r	82
1342	13707	He is out indefinitely and could miss the remainder of the season.	He is out indefinitely and could miss the remainder of the season. 	656685	1471953033306	1471953033414	e	69
1342	13707	He is out indefinitely and could miss the remainder of the season.	He is out indefinitely and could miss the remainder of the season. 	656686	1471953033502	1471953033582	m	77
1342	13707	He is out indefinitely and could miss the remainder of the season.	He is out indefinitely and could miss the remainder of the season. 	656687	1471953033660	1471953033735	a	65
1342	13707	He is out indefinitely and could miss the remainder of the season.	He is out indefinitely and could miss the remainder of the season. 	656708	1471953033724	1471953033792	i	73
1342	13707	He is out indefinitely and could miss the remainder of the season.	He is out indefinitely and could miss the remainder of the season. 	656710	1471953033871	1471953033947	n	78
1342	13707	He is out indefinitely and could miss the remainder of the season.	He is out indefinitely and could miss the remainder of the season. 	656713	1471953034039	1471953034135	d	68
1342	13707	He is out indefinitely and could miss the remainder of the season.	He is out indefinitely and could miss the remainder of the season. 	656718	1471953034280	1471953034420	e	69
1342	13707	He is out indefinitely and could miss the remainder of the season.	He is out indefinitely and could miss the remainder of the season. 	656720	1471953034388	1471953034492	r	82
1342	13707	He is out indefinitely and could miss the remainder of the season.	He is out indefinitely and could miss the remainder of the season. 	656722	1471953034564	1471953034652	 	32
1342	13707	He is out indefinitely and could miss the remainder of the season.	He is out indefinitely and could miss the remainder of the season. 	656724	1471953034721	1471953034800	o	79
1342	13707	He is out indefinitely and could miss the remainder of the season.	He is out indefinitely and could miss the remainder of the season. 	656725	1471953034785	1471953034853	f	70
1342	13707	He is out indefinitely and could miss the remainder of the season.	He is out indefinitely and could miss the remainder of the season. 	656727	1471953034903	1471953034971	 	32
1342	13707	He is out indefinitely and could miss the remainder of the season.	He is out indefinitely and could miss the remainder of the season. 	656728	1471953034985	1471953035067	t	84
1342	13707	He is out indefinitely and could miss the remainder of the season.	He is out indefinitely and could miss the remainder of the season. 	656750	1471953035065	1471953035153	h	72
1342	13707	He is out indefinitely and could miss the remainder of the season.	He is out indefinitely and could miss the remainder of the season. 	656751	1471953035137	1471953035201	e	69
1342	13707	He is out indefinitely and could miss the remainder of the season.	He is out indefinitely and could miss the remainder of the season. 	656752	1471953035296	1471953035332	 	32
1342	13707	He is out indefinitely and could miss the remainder of the season.	He is out indefinitely and could miss the remainder of the season. 	656753	1471953035348	1471953035476	s	83
1342	13707	He is out indefinitely and could miss the remainder of the season.	He is out indefinitely and could miss the remainder of the season. 	656754	1471953035535	1471953035715	e	69
1342	13707	He is out indefinitely and could miss the remainder of the season.	He is out indefinitely and could miss the remainder of the season. 	656774	1471953035691	1471953035831	a	65
1342	13707	He is out indefinitely and could miss the remainder of the season.	He is out indefinitely and could miss the remainder of the season. 	656776	1471953035827	1471953035919	s	83
1342	13707	He is out indefinitely and could miss the remainder of the season.	He is out indefinitely and could miss the remainder of the season. 	656778	1471953036191	1471953036283	o	79
1342	13707	He is out indefinitely and could miss the remainder of the season.	He is out indefinitely and could miss the remainder of the season. 	656781	1471953036366	1471953036434	n	78
1342	13707	He is out indefinitely and could miss the remainder of the season.	He is out indefinitely and could miss the remainder of the season. 	656785	1471953036548	1471953036656	.	190
1342	13707	He is out indefinitely and could miss the remainder of the season.	He is out indefinitely and could miss the remainder of the season. 	656790	1471953036756	1471953036788	 	32
1342	13717	Tonight is my anniversary.	Tonight is my anniversary 	656963	1471953039715	1471953041263	SHIFT	16
1342	13717	Tonight is my anniversary.	Tonight is my anniversary 	656962	1471953041132	1471953041235	T	84
1342	13717	Tonight is my anniversary.	Tonight is my anniversary 	656964	1471953041568	1471953041635	o	79
1342	13717	Tonight is my anniversary.	Tonight is my anniversary 	656965	1471953041709	1471953041764	n	78
1342	13717	Tonight is my anniversary.	Tonight is my anniversary 	656966	1471953041828	1471953041907	i	73
1342	13717	Tonight is my anniversary.	Tonight is my anniversary 	656968	1471953041962	1471953042037	g	71
1342	13717	Tonight is my anniversary.	Tonight is my anniversary 	657012	1471953042050	1471953042129	h	72
1342	13717	Tonight is my anniversary.	Tonight is my anniversary 	657014	1471953042212	1471953042300	t	84
1342	13717	Tonight is my anniversary.	Tonight is my anniversary 	657016	1471953042569	1471953042649	 	32
1342	13717	Tonight is my anniversary.	Tonight is my anniversary 	657017	1471953042868	1471953042924	i	73
1342	13717	Tonight is my anniversary.	Tonight is my anniversary 	657018	1471953042958	1471953043045	s	83
1342	13717	Tonight is my anniversary.	Tonight is my anniversary 	657031	1471953043038	1471953043082	 	32
1342	13717	Tonight is my anniversary.	Tonight is my anniversary 	657033	1471953043211	1471953043275	m	77
1342	13717	Tonight is my anniversary.	Tonight is my anniversary 	657036	1471953043421	1471953043481	y	89
1342	13717	Tonight is my anniversary.	Tonight is my anniversary 	657039	1471953043524	1471953043612	 	32
1342	13717	Tonight is my anniversary.	Tonight is my anniversary 	657041	1471953043667	1471953043771	a	65
1342	13717	Tonight is my anniversary.	Tonight is my anniversary 	657061	1471953043767	1471953043812	n	78
1342	13717	Tonight is my anniversary.	Tonight is my anniversary 	657064	1471953043883	1471953043943	n	78
1342	13717	Tonight is my anniversary.	Tonight is my anniversary 	657069	1471953044018	1471953044094	i	73
1342	13717	Tonight is my anniversary.	Tonight is my anniversary 	657076	1471953044294	1471953044390	v	86
1342	13717	Tonight is my anniversary.	Tonight is my anniversary 	657079	1471953044484	1471953044599	e	69
1342	13717	Tonight is my anniversary.	Tonight is my anniversary 	657122	1471953044564	1471953044672	r	82
1342	13717	Tonight is my anniversary.	Tonight is my anniversary 	657123	1471953044727	1471953044870	s	83
1342	13717	Tonight is my anniversary.	Tonight is my anniversary 	657125	1471953044889	1471953045016	a	65
1342	13717	Tonight is my anniversary.	Tonight is my anniversary 	657127	1471953045040	1471953045164	r	82
1342	13717	Tonight is my anniversary.	Tonight is my anniversary 	657129	1471953045224	1471953045324	y	89
1342	13717	Tonight is my anniversary.	Tonight is my anniversary 	657131	1471953045367	1471953045434	 	32
1342	13724	They are still burning.	They are still burning. 	657271	1471953048513	1471953048750	SHIFT	16
1342	13724	They are still burning.	They are still burning. 	657270	1471953048638	1471953048737	T	84
1342	13724	They are still burning.	They are still burning. 	657273	1471953048950	1471953049054	h	72
1342	13724	They are still burning.	They are still burning. 	657275	1471953049066	1471953049134	e	69
1342	13724	They are still burning.	They are still burning. 	657277	1471953049158	1471953049258	y	89
1342	13724	They are still burning.	They are still burning. 	657278	1471953049291	1471953049351	 	32
1342	13724	They are still burning.	They are still burning. 	657300	1471953049434	1471953049542	a	65
1342	13724	They are still burning.	They are still burning. 	657303	1471953049558	1471953049662	r	82
1342	13724	They are still burning.	They are still burning. 	657307	1471953049650	1471953049737	e	69
1342	13724	They are still burning.	They are still burning. 	657311	1471953049742	1471953049818	 	32
1342	13724	They are still burning.	They are still burning. 	657314	1471953049838	1471953049965	s	83
1342	13724	They are still burning.	They are still burning. 	657320	1471953049973	1471953050071	t	84
1342	13724	They are still burning.	They are still burning. 	657322	1471953050070	1471953050122	i	73
1342	13724	They are still burning.	They are still burning. 	657324	1471953050221	1471953050277	l	76
1342	13724	They are still burning.	They are still burning. 	657326	1471953050343	1471953050415	l	76
1342	13724	They are still burning.	They are still burning. 	657329	1471953050467	1471953050563	 	32
1342	13724	They are still burning.	They are still burning. 	657360	1471953050740	1471953050804	b	66
1342	13724	They are still burning.	They are still burning. 	657364	1471953050837	1471953050885	u	85
1342	13724	They are still burning.	They are still burning. 	657369	1471953051226	1471953051314	r	82
1342	13724	They are still burning.	They are still burning. 	657372	1471953051500	1471953051588	n	78
1342	13724	They are still burning.	They are still burning. 	657374	1471953051641	1471953051713	i	73
1342	13724	They are still burning.	They are still burning. 	657463	1471953051794	1471953051850	n	78
1342	13724	They are still burning.	They are still burning. 	657464	1471953051918	1471953051966	g	71
1342	13724	They are still burning.	They are still burning. 	657466	1471953052489	1471953052613	/	191
1342	13724	They are still burning.	They are still burning. 	657468	1471953053032	1471953053112	BKSP	8
1342	13724	They are still burning.	They are still burning. 	657470	1471953054102	1471953054166	.	190
1342	13724	They are still burning.	They are still burning. 	657472	1471953054247	1471953054335	 	32
1342	13733	I will try to expedite payment tomorrow.	I will try to expedite payment tomorrow.	657682	1471953057775	1471953058059	SHIFT	16
1342	13733	I will try to expedite payment tomorrow.	I will try to expedite payment tomorrow.	657679	1471953057963	1471953058019	I	73
1342	13733	I will try to expedite payment tomorrow.	I will try to expedite payment tomorrow.	657685	1471953058371	1471953058439	 	32
1342	13733	I will try to expedite payment tomorrow.	I will try to expedite payment tomorrow.	657687	1471953058514	1471953058584	w	87
1342	13733	I will try to expedite payment tomorrow.	I will try to expedite payment tomorrow.	657689	1471953058570	1471953058622	i	73
1342	13733	I will try to expedite payment tomorrow.	I will try to expedite payment tomorrow.	657691	1471953058717	1471953058777	l	76
1342	13733	I will try to expedite payment tomorrow.	I will try to expedite payment tomorrow.	657698	1471953058846	1471953058922	l	76
1342	13733	I will try to expedite payment tomorrow.	I will try to expedite payment tomorrow.	657699	1471953058972	1471953059072	 	32
1342	13733	I will try to expedite payment tomorrow.	I will try to expedite payment tomorrow.	657701	1471953059076	1471953059196	t	84
1342	13733	I will try to expedite payment tomorrow.	I will try to expedite payment tomorrow.	657706	1471953059168	1471953059256	r	82
1342	13733	I will try to expedite payment tomorrow.	I will try to expedite payment tomorrow.	657736	1471953059216	1471953059284	y	89
1342	13733	I will try to expedite payment tomorrow.	I will try to expedite payment tomorrow.	657739	1471953059362	1471953059450	 	32
1342	13733	I will try to expedite payment tomorrow.	I will try to expedite payment tomorrow.	657741	1471953059505	1471953059592	t	84
1342	13733	I will try to expedite payment tomorrow.	I will try to expedite payment tomorrow.	657744	1471953059585	1471953059673	o	79
1342	13733	I will try to expedite payment tomorrow.	I will try to expedite payment tomorrow.	657746	1471953059707	1471953059775	 	32
1342	13733	I will try to expedite payment tomorrow.	I will try to expedite payment tomorrow.	657748	1471953059890	1471953059998	e	69
1342	13733	I will try to expedite payment tomorrow.	I will try to expedite payment tomorrow.	657804	1471953060186	1471953060318	x	88
1342	13733	I will try to expedite payment tomorrow.	I will try to expedite payment tomorrow.	657807	1471953060355	1471953060472	p	80
1342	13733	I will try to expedite payment tomorrow.	I will try to expedite payment tomorrow.	657810	1471953060625	1471953060729	r	82
1342	13733	I will try to expedite payment tomorrow.	I will try to expedite payment tomorrow.	657813	1471953060919	1471953060999	BKSP	8
1342	13733	I will try to expedite payment tomorrow.	I will try to expedite payment tomorrow.	657817	1471953061052	1471953061100	e	69
1342	13733	I will try to expedite payment tomorrow.	I will try to expedite payment tomorrow.	657821	1471953061279	1471953061318	i	73
1342	13733	I will try to expedite payment tomorrow.	I will try to expedite payment tomorrow.	657859	1471953061327	1471953061399	d	68
1342	13733	I will try to expedite payment tomorrow.	I will try to expedite payment tomorrow.	657861	1471953061613	1471953061677	BKSP	8
1342	13733	I will try to expedite payment tomorrow.	I will try to expedite payment tomorrow.	657864	1471953062136	1471953062214	BKSP	8
1342	13733	I will try to expedite payment tomorrow.	I will try to expedite payment tomorrow.	657868	1471953062335	1471953062418	d	68
1342	13733	I will try to expedite payment tomorrow.	I will try to expedite payment tomorrow.	657873	1471953062500	1471953062579	i	73
1342	13733	I will try to expedite payment tomorrow.	I will try to expedite payment tomorrow.	657878	1471953062592	1471953062707	t	84
1342	13733	I will try to expedite payment tomorrow.	I will try to expedite payment tomorrow.	657902	1471953062676	1471953062763	e	69
1342	13733	I will try to expedite payment tomorrow.	I will try to expedite payment tomorrow.	657904	1471953062743	1471953062827	 	32
1342	13733	I will try to expedite payment tomorrow.	I will try to expedite payment tomorrow.	657906	1471953062983	1471953063102	p	80
1342	13733	I will try to expedite payment tomorrow.	I will try to expedite payment tomorrow.	657908	1471953063123	1471953063246	a	65
1342	13733	I will try to expedite payment tomorrow.	I will try to expedite payment tomorrow.	657911	1471953063243	1471953063315	y	89
1342	13733	I will try to expedite payment tomorrow.	I will try to expedite payment tomorrow.	657914	1471953063458	1471953063546	m	77
1342	13733	I will try to expedite payment tomorrow.	I will try to expedite payment tomorrow.	657920	1471953063566	1471953063661	e	69
1342	13733	I will try to expedite payment tomorrow.	I will try to expedite payment tomorrow.	657922	1471953063658	1471953063753	n	78
1342	13733	I will try to expedite payment tomorrow.	I will try to expedite payment tomorrow.	657925	1471953063742	1471953063830	t	84
1342	13733	I will try to expedite payment tomorrow.	I will try to expedite payment tomorrow.	657929	1471953063847	1471953063939	 	32
1342	13733	I will try to expedite payment tomorrow.	I will try to expedite payment tomorrow.	657933	1471953064082	1471953064158	t	84
1342	13733	I will try to expedite payment tomorrow.	I will try to expedite payment tomorrow.	657943	1471953064178	1471953064274	o	79
1342	13733	I will try to expedite payment tomorrow.	I will try to expedite payment tomorrow.	657944	1471953064326	1471953064402	m	77
1342	13733	I will try to expedite payment tomorrow.	I will try to expedite payment tomorrow.	657946	1471953064490	1471953064562	o	79
1342	13733	I will try to expedite payment tomorrow.	I will try to expedite payment tomorrow.	657948	1471953064604	1471953064664	r	82
1342	13733	I will try to expedite payment tomorrow.	I will try to expedite payment tomorrow.	657950	1471953064739	1471953064811	r	82
1342	13733	I will try to expedite payment tomorrow.	I will try to expedite payment tomorrow.	658014	1471953064849	1471953064920	o	79
1342	13733	I will try to expedite payment tomorrow.	I will try to expedite payment tomorrow.	658015	1471953064933	1471953065029	w	87
1342	13733	I will try to expedite payment tomorrow.	I will try to expedite payment tomorrow.	658016	1471953065483	1471953065603	/	191
1342	13733	I will try to expedite payment tomorrow.	I will try to expedite payment tomorrow.	658017	1471953065973	1471953066077	BKSP	8
1342	13733	I will try to expedite payment tomorrow.	I will try to expedite payment tomorrow.	658018	1471953066341	1471953066489	.	190
1342	13741	I think Tim wants to move quickly.	I think Tim wants to move quickly.	658150	1471953070342	1471953070602	SHIFT	16
1342	13741	I think Tim wants to move quickly.	I think Tim wants to move quickly.	658147	1471953070474	1471953070529	I	73
1342	13741	I think Tim wants to move quickly.	I think Tim wants to move quickly.	658154	1471953070681	1471953070765	 	32
1342	13741	I think Tim wants to move quickly.	I think Tim wants to move quickly.	658157	1471953070867	1471953070970	t	84
1342	13741	I think Tim wants to move quickly.	I think Tim wants to move quickly.	658159	1471953070939	1471953071019	h	72
1342	13741	I think Tim wants to move quickly.	I think Tim wants to move quickly.	658162	1471953071070	1471953071150	i	73
1342	13741	I think Tim wants to move quickly.	I think Tim wants to move quickly.	658230	1471953071235	1471953071303	n	78
1342	13741	I think Tim wants to move quickly.	I think Tim wants to move quickly.	658234	1471953071389	1471953071477	k	75
1342	13741	I think Tim wants to move quickly.	I think Tim wants to move quickly.	658237	1471953071552	1471953071620	 	32
1342	13741	I think Tim wants to move quickly.	I think Tim wants to move quickly.	658240	1471953072163	1471953072579	SHIFT	16
1342	13741	I think Tim wants to move quickly.	I think Tim wants to move quickly.	658242	1471953072495	1471953072599	T	84
1342	13741	I think Tim wants to move quickly.	I think Tim wants to move quickly.	658244	1471953072891	1471953072955	i	73
1342	13741	I think Tim wants to move quickly.	I think Tim wants to move quickly.	658267	1471953073226	1471953073314	m	77
1342	13741	I think Tim wants to move quickly.	I think Tim wants to move quickly.	658270	1471953073440	1471953073488	 	32
1342	13741	I think Tim wants to move quickly.	I think Tim wants to move quickly.	658276	1471953073651	1471953073699	w	87
1342	13741	I think Tim wants to move quickly.	I think Tim wants to move quickly.	658280	1471953073804	1471953073936	a	65
1342	13741	I think Tim wants to move quickly.	I think Tim wants to move quickly.	658286	1471953073983	1471953074055	n	78
1342	13741	I think Tim wants to move quickly.	I think Tim wants to move quickly.	658306	1471953074107	1471953074219	t	84
1342	13741	I think Tim wants to move quickly.	I think Tim wants to move quickly.	658310	1471953074250	1471953074345	s	83
1342	13741	I think Tim wants to move quickly.	I think Tim wants to move quickly.	658313	1471953074381	1471953074469	 	32
1342	13741	I think Tim wants to move quickly.	I think Tim wants to move quickly.	658316	1471953074510	1471953074598	t	84
1342	13741	I think Tim wants to move quickly.	I think Tim wants to move quickly.	658318	1471953074610	1471953074666	o	79
1342	13741	I think Tim wants to move quickly.	I think Tim wants to move quickly.	658334	1471953074720	1471953074773	 	32
1342	13741	I think Tim wants to move quickly.	I think Tim wants to move quickly.	658336	1471953075031	1471953075135	m	77
1342	13741	I think Tim wants to move quickly.	I think Tim wants to move quickly.	658339	1471953075205	1471953075285	o	79
1342	13741	I think Tim wants to move quickly.	I think Tim wants to move quickly.	658341	1471953075325	1471953075465	v	86
1342	13741	I think Tim wants to move quickly.	I think Tim wants to move quickly.	658373	1471953075433	1471953075541	e	69
1342	13741	I think Tim wants to move quickly.	I think Tim wants to move quickly.	658375	1471953075585	1471953075673	 	32
1342	13741	I think Tim wants to move quickly.	I think Tim wants to move quickly.	658377	1471953076075	1471953076175	q	81
1342	13741	I think Tim wants to move quickly.	I think Tim wants to move quickly.	658378	1471953076203	1471953076299	u	85
1342	13741	I think Tim wants to move quickly.	I think Tim wants to move quickly.	658379	1471953076355	1471953076443	i	73
1342	13741	I think Tim wants to move quickly.	I think Tim wants to move quickly.	658381	1471953076517	1471953076605	c	67
1342	13741	I think Tim wants to move quickly.	I think Tim wants to move quickly.	658451	1471953076602	1471953076706	l	76
1342	13741	I think Tim wants to move quickly.	I think Tim wants to move quickly.	658454	1471953077204	1471953077264	BKSP	8
1342	13741	I think Tim wants to move quickly.	I think Tim wants to move quickly.	658459	1471953077421	1471953077513	k	75
1342	13741	I think Tim wants to move quickly.	I think Tim wants to move quickly.	658464	1471953077560	1471953077688	l	76
1342	13741	I think Tim wants to move quickly.	I think Tim wants to move quickly.	658470	1471953077707	1471953077819	u	85
1342	13741	I think Tim wants to move quickly.	I think Tim wants to move quickly.	658475	1471953078510	1471953078602	BKSP	8
1342	13741	I think Tim wants to move quickly.	I think Tim wants to move quickly.	658479	1471953078783	1471953078878	y	89
1342	13741	I think Tim wants to move quickly.	I think Tim wants to move quickly.	658483	1471953079152	1471953079256	.	190
1342	13751	It will all be public someday.	It will all be public someday. 	658619	1471953083093	1471953083297	SHIFT	16
1342	13751	It will all be public someday.	It will all be public someday. 	658617	1471953083222	1471953083265	I	73
1342	13751	It will all be public someday.	It will all be public someday. 	658621	1471953083475	1471953083571	t	84
1342	13751	It will all be public someday.	It will all be public someday. 	658624	1471953083658	1471953083737	 	32
1342	13751	It will all be public someday.	It will all be public someday. 	658627	1471953083942	1471953084010	w	87
1342	13751	It will all be public someday.	It will all be public someday. 	658632	1471953084031	1471953084106	i	73
1342	13751	It will all be public someday.	It will all be public someday. 	658640	1471953084229	1471953084269	l	76
1342	13751	It will all be public someday.	It will all be public someday. 	658645	1471953084341	1471953084425	l	76
1342	13751	It will all be public someday.	It will all be public someday. 	658649	1471953084475	1471953084571	 	32
1342	13751	It will all be public someday.	It will all be public someday. 	658654	1471953084585	1471953084656	a	65
1342	13751	It will all be public someday.	It will all be public someday. 	658661	1471953084668	1471953084749	l	76
1342	13751	It will all be public someday.	It will all be public someday. 	658686	1471953084840	1471953084904	l	76
1342	13751	It will all be public someday.	It will all be public someday. 	658691	1471953084993	1471953085073	 	32
1342	13751	It will all be public someday.	It will all be public someday. 	658696	1471953085144	1471953085216	b	66
1342	13751	It will all be public someday.	It will all be public someday. 	658702	1471953085315	1471953085383	e	69
1342	13751	It will all be public someday.	It will all be public someday. 	658705	1471953085437	1471953085545	 	32
1342	13751	It will all be public someday.	It will all be public someday. 	658725	1471953085823	1471953085931	p	80
1342	13751	It will all be public someday.	It will all be public someday. 	658726	1471953085962	1471953086050	u	85
1342	13751	It will all be public someday.	It will all be public someday. 	658727	1471953086157	1471953086233	b	66
1342	13751	It will all be public someday.	It will all be public someday. 	658728	1471953086268	1471953086348	l	76
1342	13751	It will all be public someday.	It will all be public someday. 	658729	1471953086427	1471953086519	i	73
1342	13751	It will all be public someday.	It will all be public someday. 	658755	1471953086563	1471953086635	c	67
1342	13751	It will all be public someday.	It will all be public someday. 	658759	1471953086711	1471953086799	 	32
1342	13751	It will all be public someday.	It will all be public someday. 	658762	1471953087197	1471953087293	s	83
1342	13751	It will all be public someday.	It will all be public someday. 	658764	1471953087373	1471953087421	o	79
1342	13751	It will all be public someday.	It will all be public someday. 	658766	1471953087534	1471953087614	m	77
1342	13751	It will all be public someday.	It will all be public someday. 	658813	1471953087865	1471953087961	e	69
1342	13751	It will all be public someday.	It will all be public someday. 	658817	1471953088122	1471953088253	d	68
1342	13751	It will all be public someday.	It will all be public someday. 	658826	1471953088198	1471953088306	a	65
1342	13751	It will all be public someday.	It will all be public someday. 	658831	1471953088345	1471953088417	y	89
1342	13751	It will all be public someday.	It will all be public someday. 	658838	1471953088627	1471953088747	.	190
1342	13751	It will all be public someday.	It will all be public someday. 	658845	1471953088844	1471953088920	 	32
1342	13756	I'll send you a check.	I'll send you a check.	658978	1471953092280	1471953092560	SHIFT	16
1342	13756	I'll send you a check.	I'll send you a check.	658975	1471953092420	1471953092508	I	73
1342	13756	I'll send you a check.	I'll send you a check.	658982	1471953092944	1471953092992	'	222
1342	13756	I'll send you a check.	I'll send you a check.	658985	1471953093393	1471953093457	l	76
1342	13756	I'll send you a check.	I'll send you a check.	658989	1471953093553	1471953093605	l	76
1342	13756	I'll send you a check.	I'll send you a check.	658994	1471953093688	1471953093768	 	32
1342	13756	I'll send you a check.	I'll send you a check.	659000	1471953093875	1471953093999	s	83
1342	13756	I'll send you a check.	I'll send you a check.	659002	1471953093951	1471953094059	e	69
1342	13756	I'll send you a check.	I'll send you a check.	659005	1471953094077	1471953094161	n	78
1342	13756	I'll send you a check.	I'll send you a check.	659008	1471953094208	1471953094296	d	68
1342	13756	I'll send you a check.	I'll send you a check.	659010	1471953094425	1471953094517	 	32
1342	13756	I'll send you a check.	I'll send you a check.	659031	1471953094824	1471953094912	y	89
1342	13756	I'll send you a check.	I'll send you a check.	659034	1471953094924	1471953095022	o	79
1342	13756	I'll send you a check.	I'll send you a check.	659038	1471953094996	1471953095096	u	85
1342	13756	I'll send you a check.	I'll send you a check.	659042	1471953095092	1471953095212	 	32
1342	13756	I'll send you a check.	I'll send you a check.	659070	1471953095204	1471953095316	a	65
1342	13756	I'll send you a check.	I'll send you a check.	659071	1471953095346	1471953095438	 	32
1342	13756	I'll send you a check.	I'll send you a check.	659072	1471953095493	1471953095577	c	67
1342	13756	I'll send you a check.	I'll send you a check.	659073	1471953095619	1471953095707	h	72
1342	13756	I'll send you a check.	I'll send you a check.	659074	1471953095748	1471953095856	e	69
1342	13756	I'll send you a check.	I'll send you a check.	659075	1471953095971	1471953096086	c	67
1342	13756	I'll send you a check.	I'll send you a check.	659091	1471953096094	1471953096178	k	75
1342	13756	I'll send you a check.	I'll send you a check.	659094	1471953096452	1471953096628	.	190
1342	13761	There will be some better news later today	There will be some better news later today	659254	1471953100445	1471953100561	SHIFT	16
1342	13761	There will be some better news later today	There will be some better news later today	659259	1471953101150	1471953101382	SHIFT	16
1342	13761	There will be some better news later today	There will be some better news later today	659256	1471953101242	1471953101338	T	84
1342	13761	There will be some better news later today	There will be some better news later today	659262	1471953101606	1471953101727	h	72
1342	13761	There will be some better news later today	There will be some better news later today	659265	1471953101726	1471953101817	e	69
1342	13761	There will be some better news later today	There will be some better news later today	659267	1471953101798	1471953101921	r	82
1342	13761	There will be some better news later today	There will be some better news later today	659273	1471953101886	1471953101977	e	69
1342	13761	There will be some better news later today	There will be some better news later today	659275	1471953101986	1471953102062	 	32
1342	13761	There will be some better news later today	There will be some better news later today	659278	1471953102109	1471953102192	w	87
1342	13761	There will be some better news later today	There will be some better news later today	659281	1471953102186	1471953102254	i	73
1342	13761	There will be some better news later today	There will be some better news later today	659284	1471953102345	1471953102417	l	76
1342	13761	There will be some better news later today	There will be some better news later today	659286	1471953102473	1471953102557	l	76
1342	13761	There will be some better news later today	There will be some better news later today	659322	1471953102641	1471953102729	 	32
1342	13761	There will be some better news later today	There will be some better news later today	659324	1471953102897	1471953102989	b	66
1342	13761	There will be some better news later today	There will be some better news later today	659327	1471953103090	1471953103167	e	69
1342	13761	There will be some better news later today	There will be some better news later today	659331	1471953103199	1471953103278	 	32
1342	13761	There will be some better news later today	There will be some better news later today	659334	1471953103353	1471953103433	s	83
1342	13761	There will be some better news later today	There will be some better news later today	659346	1471953103414	1471953103510	o	79
1342	13761	There will be some better news later today	There will be some better news later today	659347	1471953103631	1471953103722	m	77
1342	13761	There will be some better news later today	There will be some better news later today	659349	1471953103743	1471953103806	e	69
1342	13761	There will be some better news later today	There will be some better news later today	659351	1471953103950	1471953104041	 	32
1342	13761	There will be some better news later today	There will be some better news later today	659354	1471953104257	1471953104353	b	66
1342	13761	There will be some better news later today	There will be some better news later today	659357	1471953104392	1471953104464	e	69
1342	13761	There will be some better news later today	There will be some better news later today	659361	1471953104581	1471953104640	t	84
1342	13761	There will be some better news later today	There will be some better news later today	659363	1471953104706	1471953104802	t	84
1342	13761	There will be some better news later today	There will be some better news later today	659366	1471953104838	1471953104953	e	69
1342	13761	There will be some better news later today	There will be some better news later today	659370	1471953104914	1471953105001	r	82
1342	13761	There will be some better news later today	There will be some better news later today	659386	1471953104978	1471953105062	 	32
1342	13761	There will be some better news later today	There will be some better news later today	659388	1471953105166	1471953105237	n	78
1342	13761	There will be some better news later today	There will be some better news later today	659391	1471953105242	1471953105413	e	69
1342	13761	There will be some better news later today	There will be some better news later today	659393	1471953105350	1471953105462	w	87
1342	13761	There will be some better news later today	There will be some better news later today	659396	1471953105614	1471953105710	s	83
1342	13761	There will be some better news later today	There will be some better news later today	659398	1471953105727	1471953105807	 	32
1342	13761	There will be some better news later today	There will be some better news later today	659410	1471953105915	1471953106022	l	76
1342	13761	There will be some better news later today	There will be some better news later today	659413	1471953106011	1471953106103	a	65
1342	13761	There will be some better news later today	There will be some better news later today	659415	1471953106185	1471953106257	t	84
1342	13761	There will be some better news later today	There will be some better news later today	659417	1471953106325	1471953106464	e	69
1342	13761	There will be some better news later today	There will be some better news later today	659420	1471953106437	1471953106513	r	82
1342	13761	There will be some better news later today	There will be some better news later today	659421	1471953106543	1471953106631	 	32
1342	13761	There will be some better news later today	There will be some better news later today	659423	1471953106724	1471953106816	t	84
1342	13761	There will be some better news later today	There will be some better news later today	659425	1471953106854	1471953106930	o	79
1342	13761	There will be some better news later today	There will be some better news later today	659427	1471953106968	1471953107123	d	68
1342	13761	There will be some better news later today	There will be some better news later today	659430	1471953107076	1471953107184	a	65
1342	13761	There will be some better news later today	There will be some better news later today	659431	1471953107209	1471953107289	y	89
1342	13772	Please call tomorrow if possible.	Please call tomorrow if possible. 	659521	1471953110452	1471953110700	SHIFT	16
1342	13772	Please call tomorrow if possible.	Please call tomorrow if possible. 	659518	1471953110560	1471953110616	P	80
1342	13772	Please call tomorrow if possible.	Please call tomorrow if possible. 	659524	1471953110786	1471953110878	l	76
1342	13772	Please call tomorrow if possible.	Please call tomorrow if possible. 	659527	1471953110870	1471953111046	e	69
1342	13772	Please call tomorrow if possible.	Please call tomorrow if possible. 	659530	1471953111030	1471953111190	a	65
1342	13772	Please call tomorrow if possible.	Please call tomorrow if possible. 	659533	1471953111190	1471953111338	s	83
1342	13772	Please call tomorrow if possible.	Please call tomorrow if possible. 	659546	1471953111317	1471953111406	e	69
1342	13772	Please call tomorrow if possible.	Please call tomorrow if possible. 	659549	1471953111438	1471953111518	 	32
1342	13772	Please call tomorrow if possible.	Please call tomorrow if possible. 	659551	1471953111580	1471953111736	c	67
1342	13772	Please call tomorrow if possible.	Please call tomorrow if possible. 	659553	1471953111696	1471953111807	a	65
1342	13772	Please call tomorrow if possible.	Please call tomorrow if possible. 	659554	1471953111804	1471953111888	l	76
1342	13772	Please call tomorrow if possible.	Please call tomorrow if possible. 	659555	1471953111979	1471953112063	l	76
1342	13772	Please call tomorrow if possible.	Please call tomorrow if possible. 	659556	1471953112161	1471953112217	 	32
1342	13772	Please call tomorrow if possible.	Please call tomorrow if possible. 	659557	1471953112457	1471953112541	t	84
1342	13772	Please call tomorrow if possible.	Please call tomorrow if possible. 	659559	1471953112553	1471953112633	o	79
1342	13772	Please call tomorrow if possible.	Please call tomorrow if possible. 	659563	1471953112733	1471953112789	m	77
1342	13772	Please call tomorrow if possible.	Please call tomorrow if possible. 	659567	1471953112863	1471953112935	o	79
1342	13772	Please call tomorrow if possible.	Please call tomorrow if possible. 	659583	1471953112962	1471953113018	r	82
1342	13772	Please call tomorrow if possible.	Please call tomorrow if possible. 	659584	1471953113098	1471953113166	r	82
1342	13772	Please call tomorrow if possible.	Please call tomorrow if possible. 	659585	1471953113213	1471953113292	o	79
1342	13772	Please call tomorrow if possible.	Please call tomorrow if possible. 	659586	1471953113281	1471953113385	w	87
1342	13772	Please call tomorrow if possible.	Please call tomorrow if possible. 	659587	1471953113442	1471953113522	 	32
1342	13772	Please call tomorrow if possible.	Please call tomorrow if possible. 	659625	1471953113872	1471953113964	i	73
1342	13772	Please call tomorrow if possible.	Please call tomorrow if possible. 	659628	1471953114005	1471953114097	d	68
1342	13772	Please call tomorrow if possible.	Please call tomorrow if possible. 	659630	1471953114114	1471953114182	 	32
1342	13772	Please call tomorrow if possible.	Please call tomorrow if possible. 	659632	1471953114536	1471953114596	BKSP	8
1342	13772	Please call tomorrow if possible.	Please call tomorrow if possible. 	659634	1471953114662	1471953114730	BKSP	8
1342	13772	Please call tomorrow if possible.	Please call tomorrow if possible. 	659636	1471953114777	1471953114857	f	70
1342	13772	Please call tomorrow if possible.	Please call tomorrow if possible. 	659638	1471953114909	1471953114961	 	32
1342	13772	Please call tomorrow if possible.	Please call tomorrow if possible. 	659657	1471953115187	1471953115295	p	80
1342	13772	Please call tomorrow if possible.	Please call tomorrow if possible. 	659660	1471953115377	1471953115477	o	79
1342	13772	Please call tomorrow if possible.	Please call tomorrow if possible. 	659662	1471953115502	1471953115562	s	83
1342	13772	Please call tomorrow if possible.	Please call tomorrow if possible. 	659663	1471953115637	1471953115717	s	83
1342	13772	Please call tomorrow if possible.	Please call tomorrow if possible. 	659664	1471953115832	1471953115888	i	73
1342	13772	Please call tomorrow if possible.	Please call tomorrow if possible. 	659679	1471953115970	1471953116058	b	66
1342	13772	Please call tomorrow if possible.	Please call tomorrow if possible. 	659681	1471953116515	1471953116607	l	76
1342	13772	Please call tomorrow if possible.	Please call tomorrow if possible. 	659682	1471953116692	1471953116784	e	69
1342	13772	Please call tomorrow if possible.	Please call tomorrow if possible. 	659686	1471953116792	1471953116888	.	190
1342	13772	Please call tomorrow if possible.	Please call tomorrow if possible. 	659691	1471953116989	1471953117041	 	32
1342	13777	Apparently, BP is using the correct pricing.	Apparently, BP is using the correct pricing. 	659828	1471953120559	1471953120715	SHIFT	16
1342	13777	Apparently, BP is using the correct pricing.	Apparently, BP is using the correct pricing. 	659830	1471953120692	1471953120763	A	65
1342	13777	Apparently, BP is using the correct pricing.	Apparently, BP is using the correct pricing. 	659831	1471953121004	1471953121091	p	80
1342	13777	Apparently, BP is using the correct pricing.	Apparently, BP is using the correct pricing. 	659832	1471953121156	1471953121231	p	80
1342	13777	Apparently, BP is using the correct pricing.	Apparently, BP is using the correct pricing. 	659833	1471953121404	1471953121472	a	65
1342	13777	Apparently, BP is using the correct pricing.	Apparently, BP is using the correct pricing. 	659834	1471953121595	1471953121714	r	82
1342	13777	Apparently, BP is using the correct pricing.	Apparently, BP is using the correct pricing. 	659868	1471953121690	1471953121766	e	69
1342	13777	Apparently, BP is using the correct pricing.	Apparently, BP is using the correct pricing. 	659870	1471953121779	1471953121854	n	78
1342	13777	Apparently, BP is using the correct pricing.	Apparently, BP is using the correct pricing. 	659873	1471953121912	1471953121991	t	84
1342	13777	Apparently, BP is using the correct pricing.	Apparently, BP is using the correct pricing. 	659877	1471953122639	1471953122739	l	76
1342	13777	Apparently, BP is using the correct pricing.	Apparently, BP is using the correct pricing. 	659882	1471953122862	1471953122946	y	89
1342	13777	Apparently, BP is using the correct pricing.	Apparently, BP is using the correct pricing. 	659886	1471953123155	1471953123250	,	188
1342	13777	Apparently, BP is using the correct pricing.	Apparently, BP is using the correct pricing. 	659950	1471953123331	1471953123435	 	32
1342	13777	Apparently, BP is using the correct pricing.	Apparently, BP is using the correct pricing. 	659959	1471953124096	1471953125105	SHIFT	16
1342	13777	Apparently, BP is using the correct pricing.	Apparently, BP is using the correct pricing. 	659952	1471953124761	1471953124816	B	66
1342	13777	Apparently, BP is using the correct pricing.	Apparently, BP is using the correct pricing. 	659956	1471953124889	1471953125009	P	80
1342	13777	Apparently, BP is using the correct pricing.	Apparently, BP is using the correct pricing. 	659963	1471953125618	1471953125714	 	32
1342	13777	Apparently, BP is using the correct pricing.	Apparently, BP is using the correct pricing. 	659966	1471953125905	1471953125989	u	85
1342	13777	Apparently, BP is using the correct pricing.	Apparently, BP is using the correct pricing. 	659971	1471953126041	1471953126101	s	83
1342	13777	Apparently, BP is using the correct pricing.	Apparently, BP is using the correct pricing. 	659973	1471953126131	1471953126207	 	32
1342	13777	Apparently, BP is using the correct pricing.	Apparently, BP is using the correct pricing. 	659976	1471953126319	1471953126403	u	85
1342	13777	Apparently, BP is using the correct pricing.	Apparently, BP is using the correct pricing. 	659979	1471953126444	1471953126516	s	83
1342	13777	Apparently, BP is using the correct pricing.	Apparently, BP is using the correct pricing. 	659982	1471953126528	1471953126592	i	73
1342	13777	Apparently, BP is using the correct pricing.	Apparently, BP is using the correct pricing. 	660029	1471953126698	1471953126766	n	78
1342	13777	Apparently, BP is using the correct pricing.	Apparently, BP is using the correct pricing. 	660030	1471953127071	1471953127115	BKSP	8
1342	13777	Apparently, BP is using the correct pricing.	Apparently, BP is using the correct pricing. 	660031	1471953127236	1471953127268	BKSP	8
1342	13777	Apparently, BP is using the correct pricing.	Apparently, BP is using the correct pricing. 	660032	1471953127376	1471953127432	BKSP	8
1342	13777	Apparently, BP is using the correct pricing.	Apparently, BP is using the correct pricing. 	660033	1471953127537	1471953127585	BKSP	8
1342	13777	Apparently, BP is using the correct pricing.	Apparently, BP is using the correct pricing. 	660034	1471953127692	1471953127748	BKSP	8
1342	13777	Apparently, BP is using the correct pricing.	Apparently, BP is using the correct pricing. 	660035	1471953127844	1471953127912	BKSP	8
1342	13777	Apparently, BP is using the correct pricing.	Apparently, BP is using the correct pricing. 	660036	1471953128013	1471953128065	BKSP	8
1342	13777	Apparently, BP is using the correct pricing.	Apparently, BP is using the correct pricing. 	660038	1471953128577	1471953128649	i	73
1342	13777	Apparently, BP is using the correct pricing.	Apparently, BP is using the correct pricing. 	660041	1471953128657	1471953128748	s	83
1342	13777	Apparently, BP is using the correct pricing.	Apparently, BP is using the correct pricing. 	660046	1471953128757	1471953128841	 	32
1342	13777	Apparently, BP is using the correct pricing.	Apparently, BP is using the correct pricing. 	660050	1471953128894	1471953128998	u	85
1342	13777	Apparently, BP is using the correct pricing.	Apparently, BP is using the correct pricing. 	660061	1471953129027	1471953129135	s	83
1342	13777	Apparently, BP is using the correct pricing.	Apparently, BP is using the correct pricing. 	660062	1471953129623	1471953129699	i	73
1342	13777	Apparently, BP is using the correct pricing.	Apparently, BP is using the correct pricing. 	660064	1471953129800	1471953129880	n	78
1342	13777	Apparently, BP is using the correct pricing.	Apparently, BP is using the correct pricing. 	660066	1471953129888	1471953129956	g	71
1342	13777	Apparently, BP is using the correct pricing.	Apparently, BP is using the correct pricing. 	660068	1471953129998	1471953130066	 	32
1342	13777	Apparently, BP is using the correct pricing.	Apparently, BP is using the correct pricing. 	660082	1471953130130	1471953130228	t	84
1342	13777	Apparently, BP is using the correct pricing.	Apparently, BP is using the correct pricing. 	660085	1471953130210	1471953130294	h	72
1342	13777	Apparently, BP is using the correct pricing.	Apparently, BP is using the correct pricing. 	660088	1471953130327	1471953130399	e	69
1342	13777	Apparently, BP is using the correct pricing.	Apparently, BP is using the correct pricing. 	660092	1471953130434	1471953130494	 	32
1342	13777	Apparently, BP is using the correct pricing.	Apparently, BP is using the correct pricing. 	660096	1471953130579	1471953130707	c	67
1342	13777	Apparently, BP is using the correct pricing.	Apparently, BP is using the correct pricing. 	660121	1471953130711	1471953130795	o	79
1342	13777	Apparently, BP is using the correct pricing.	Apparently, BP is using the correct pricing. 	660125	1471953130848	1471953130920	r	82
1342	13777	Apparently, BP is using the correct pricing.	Apparently, BP is using the correct pricing. 	660128	1471953130992	1471953131108	r	82
1342	13777	Apparently, BP is using the correct pricing.	Apparently, BP is using the correct pricing. 	660130	1471953131084	1471953131168	e	69
1342	13777	Apparently, BP is using the correct pricing.	Apparently, BP is using the correct pricing. 	660131	1471953131318	1471953131382	c	67
1342	13777	Apparently, BP is using the correct pricing.	Apparently, BP is using the correct pricing. 	660135	1471953131554	1471953131634	t	84
1342	13777	Apparently, BP is using the correct pricing.	Apparently, BP is using the correct pricing. 	660137	1471953131662	1471953131778	 	32
1342	13777	Apparently, BP is using the correct pricing.	Apparently, BP is using the correct pricing. 	660139	1471953131914	1471953132021	p	80
1342	13777	Apparently, BP is using the correct pricing.	Apparently, BP is using the correct pricing. 	660141	1471953132014	1471953132106	r	82
1342	13777	Apparently, BP is using the correct pricing.	Apparently, BP is using the correct pricing. 	660143	1471953132187	1471953132267	i	73
1342	13777	Apparently, BP is using the correct pricing.	Apparently, BP is using the correct pricing. 	660156	1471953132338	1471953132446	c	67
1342	13777	Apparently, BP is using the correct pricing.	Apparently, BP is using the correct pricing. 	660158	1471953132430	1471953132490	i	73
1342	13777	Apparently, BP is using the correct pricing.	Apparently, BP is using the correct pricing. 	660161	1471953132595	1471953132655	n	78
1342	13777	Apparently, BP is using the correct pricing.	Apparently, BP is using the correct pricing. 	660164	1471953132728	1471953132832	g	71
1342	13777	Apparently, BP is using the correct pricing.	Apparently, BP is using the correct pricing. 	660168	1471953132862	1471953132970	.	190
1342	13777	Apparently, BP is using the correct pricing.	Apparently, BP is using the correct pricing. 	660172	1471953133048	1471953133120	 	32
1342	13785	We are happy to give a pay rise.	We are happy to give a pay rise.	660216	1471953135981	1471953136197	SHIFT	16
1342	13785	We are happy to give a pay rise.	We are happy to give a pay rise.	660214	1471953136062	1471953136173	W	87
1342	13785	We are happy to give a pay rise.	We are happy to give a pay rise.	660217	1471953136275	1471953136351	e	69
1342	13785	We are happy to give a pay rise.	We are happy to give a pay rise.	660218	1471953136425	1471953136493	 	32
1342	13785	We are happy to give a pay rise.	We are happy to give a pay rise.	660219	1471953136561	1471953136693	a	65
1342	13785	We are happy to give a pay rise.	We are happy to give a pay rise.	660220	1471953136719	1471953136831	r	82
1342	13785	We are happy to give a pay rise.	We are happy to give a pay rise.	660242	1471953136795	1471953136915	e	69
1342	13785	We are happy to give a pay rise.	We are happy to give a pay rise.	660243	1471953136954	1471953137046	 	32
1342	13785	We are happy to give a pay rise.	We are happy to give a pay rise.	660244	1471953137245	1471953137329	h	72
1342	13785	We are happy to give a pay rise.	We are happy to give a pay rise.	660245	1471953137354	1471953137430	a	65
1342	13785	We are happy to give a pay rise.	We are happy to give a pay rise.	660246	1471953137461	1471953137533	p	80
1342	13785	We are happy to give a pay rise.	We are happy to give a pay rise.	660247	1471953137627	1471953137683	p	80
1342	13785	We are happy to give a pay rise.	We are happy to give a pay rise.	660263	1471953137744	1471953137835	y	89
1342	13785	We are happy to give a pay rise.	We are happy to give a pay rise.	660264	1471953137899	1471953137971	 	32
1342	13785	We are happy to give a pay rise.	We are happy to give a pay rise.	660266	1471953138059	1471953138139	t	84
1342	13785	We are happy to give a pay rise.	We are happy to give a pay rise.	660268	1471953138119	1471953138211	o	79
1342	13785	We are happy to give a pay rise.	We are happy to give a pay rise.	660270	1471953138259	1471953138354	 	32
1342	13785	We are happy to give a pay rise.	We are happy to give a pay rise.	660293	1471953138397	1471953138497	g	71
1342	13785	We are happy to give a pay rise.	We are happy to give a pay rise.	660301	1471953138687	1471953138763	i	73
1342	13785	We are happy to give a pay rise.	We are happy to give a pay rise.	660307	1471953138875	1471953138971	v	86
1342	13785	We are happy to give a pay rise.	We are happy to give a pay rise.	660312	1471953139090	1471953139190	e	69
1342	13785	We are happy to give a pay rise.	We are happy to give a pay rise.	660316	1471953139215	1471953139298	 	32
1342	13785	We are happy to give a pay rise.	We are happy to give a pay rise.	660327	1471953139448	1471953139544	a	65
1342	13785	We are happy to give a pay rise.	We are happy to give a pay rise.	660328	1471953139562	1471953139654	 	32
1342	13785	We are happy to give a pay rise.	We are happy to give a pay rise.	660329	1471953139709	1471953139797	p	80
1342	13785	We are happy to give a pay rise.	We are happy to give a pay rise.	660330	1471953139845	1471953139941	a	65
1342	13785	We are happy to give a pay rise.	We are happy to give a pay rise.	660331	1471953140107	1471953140195	y	89
1342	13785	We are happy to give a pay rise.	We are happy to give a pay rise.	660347	1471953140279	1471953140351	 	32
1342	13785	We are happy to give a pay rise.	We are happy to give a pay rise.	660349	1471953140475	1471953140539	r	82
1342	13785	We are happy to give a pay rise.	We are happy to give a pay rise.	660351	1471953140557	1471953140636	i	73
1342	13785	We are happy to give a pay rise.	We are happy to give a pay rise.	660354	1471953140761	1471953140925	s	83
1342	13785	We are happy to give a pay rise.	We are happy to give a pay rise.	660374	1471953140890	1471953140961	e	69
1342	13785	We are happy to give a pay rise.	We are happy to give a pay rise.	660376	1471953141314	1471953141430	.	190
