PARTICIPANT_ID	TEST_SECTION_ID	SENTENCE	USER_INPUT	KEYSTROKE_ID	PRESS_TIME	RELEASE_TIME	LETTER	KEYCODE
1356	13812	Wednesday is definitely a hot chocolate day.	Wednessday is definetely a hot chocolate day.	661951	1471952963610	1471952963962	SHIFT	16
1356	13812	Wednesday is definitely a hot chocolate day.	Wednessday is definetely a hot chocolate day.	661952	1471952963875	1471952964087	W	87
1356	13812	Wednesday is definitely a hot chocolate day.	Wednessday is definetely a hot chocolate day.	661953	1471952964165	1471952964324	e	69
1356	13812	Wednesday is definitely a hot chocolate day.	Wednessday is definetely a hot chocolate day.	661954	1471952964496	1471952964658	d	68
1356	13812	Wednesday is definitely a hot chocolate day.	Wednessday is definetely a hot chocolate day.	661955	1471952965100	1471952965214	n	78
1356	13812	Wednesday is definitely a hot chocolate day.	Wednessday is definetely a hot chocolate day.	661956	1471952965558	1471952965713	e	69
1356	13812	Wednesday is definitely a hot chocolate day.	Wednessday is definetely a hot chocolate day.	662008	1471952965917	1471952966033	s	83
1356	13812	Wednesday is definitely a hot chocolate day.	Wednessday is definetely a hot chocolate day.	662010	1471952966080	1471952966216	s	83
1356	13812	Wednesday is definitely a hot chocolate day.	Wednessday is definetely a hot chocolate day.	662011	1471952966418	1471952966552	d	68
1356	13812	Wednesday is definitely a hot chocolate day.	Wednessday is definetely a hot chocolate day.	662013	1471952966739	1471952966900	a	65
1356	13812	Wednesday is definitely a hot chocolate day.	Wednessday is definetely a hot chocolate day.	662015	1471952967306	1471952967421	y	89
1356	13812	Wednesday is definitely a hot chocolate day.	Wednessday is definetely a hot chocolate day.	662032	1471952967532	1471952967687	 	32
1356	13812	Wednesday is definitely a hot chocolate day.	Wednessday is definetely a hot chocolate day.	662034	1471952967892	1471952968007	i	73
1356	13812	Wednesday is definitely a hot chocolate day.	Wednessday is definetely a hot chocolate day.	662036	1471952968243	1471952968406	s	83
1356	13812	Wednesday is definitely a hot chocolate day.	Wednessday is definetely a hot chocolate day.	662038	1471952968421	1471952968559	 	32
1356	13812	Wednesday is definitely a hot chocolate day.	Wednessday is definetely a hot chocolate day.	662040	1471952968839	1471952969008	d	68
1356	13812	Wednesday is definitely a hot chocolate day.	Wednessday is definetely a hot chocolate day.	662076	1471952969088	1471952969242	e	69
1356	13812	Wednesday is definitely a hot chocolate day.	Wednessday is definetely a hot chocolate day.	662077	1471952969554	1471952969727	f	70
1356	13812	Wednesday is definitely a hot chocolate day.	Wednessday is definetely a hot chocolate day.	662078	1471952969992	1471952970114	i	73
1356	13812	Wednesday is definitely a hot chocolate day.	Wednessday is definetely a hot chocolate day.	662079	1471952970317	1471952970402	n	78
1356	13812	Wednesday is definitely a hot chocolate day.	Wednessday is definetely a hot chocolate day.	662080	1471952970730	1471952970912	e	69
1356	13812	Wednesday is definitely a hot chocolate day.	Wednessday is definetely a hot chocolate day.	662119	1471952971557	1471952971749	t	84
1356	13812	Wednesday is definitely a hot chocolate day.	Wednessday is definetely a hot chocolate day.	662120	1471952971936	1471952972102	e	69
1356	13812	Wednesday is definitely a hot chocolate day.	Wednessday is definetely a hot chocolate day.	662121	1471952972429	1471952972556	l	76
1356	13812	Wednesday is definitely a hot chocolate day.	Wednessday is definetely a hot chocolate day.	662122	1471952972853	1471952972943	y	89
1356	13812	Wednesday is definitely a hot chocolate day.	Wednessday is definetely a hot chocolate day.	662123	1471952973099	1471952973211	 	32
1356	13812	Wednesday is definitely a hot chocolate day.	Wednessday is definetely a hot chocolate day.	662152	1471952973499	1471952973672	a	65
1356	13812	Wednesday is definitely a hot chocolate day.	Wednessday is definetely a hot chocolate day.	662154	1471952973813	1471952973976	 	32
1356	13812	Wednesday is definitely a hot chocolate day.	Wednessday is definetely a hot chocolate day.	662156	1471952974070	1471952974195	h	72
1356	13812	Wednesday is definitely a hot chocolate day.	Wednessday is definetely a hot chocolate day.	662158	1471952974336	1471952974478	o	79
1356	13812	Wednesday is definitely a hot chocolate day.	Wednessday is definetely a hot chocolate day.	662160	1471952974728	1471952974895	t	84
1356	13812	Wednesday is definitely a hot chocolate day.	Wednessday is definetely a hot chocolate day.	662183	1471952974911	1471952975078	 	32
1356	13812	Wednesday is definitely a hot chocolate day.	Wednessday is definetely a hot chocolate day.	662184	1471952975328	1471952975529	c	67
1356	13812	Wednesday is definitely a hot chocolate day.	Wednessday is definetely a hot chocolate day.	662185	1471952975622	1471952975749	h	72
1356	13812	Wednesday is definitely a hot chocolate day.	Wednessday is definetely a hot chocolate day.	662186	1471952975905	1471952976034	o	79
1356	13812	Wednesday is definitely a hot chocolate day.	Wednessday is definetely a hot chocolate day.	662187	1471952976424	1471952976615	c	67
1356	13812	Wednesday is definitely a hot chocolate day.	Wednessday is definetely a hot chocolate day.	662226	1471952976663	1471952976789	o	79
1356	13812	Wednesday is definitely a hot chocolate day.	Wednessday is definetely a hot chocolate day.	662229	1471952976836	1471952976970	l	76
1356	13812	Wednesday is definitely a hot chocolate day.	Wednessday is definetely a hot chocolate day.	662232	1471952977445	1471952977604	a	65
1356	13812	Wednesday is definitely a hot chocolate day.	Wednessday is definetely a hot chocolate day.	662235	1471952977963	1471952978077	t	84
1356	13812	Wednesday is definitely a hot chocolate day.	Wednessday is definetely a hot chocolate day.	662237	1471952978186	1471952978344	e	69
1356	13812	Wednesday is definitely a hot chocolate day.	Wednessday is definetely a hot chocolate day.	662281	1471952978359	1471952978493	 	32
1356	13812	Wednesday is definitely a hot chocolate day.	Wednessday is definetely a hot chocolate day.	662283	1471952978997	1471952979115	d	68
1356	13812	Wednesday is definitely a hot chocolate day.	Wednessday is definetely a hot chocolate day.	662285	1471952979411	1471952979608	a	65
1356	13812	Wednesday is definitely a hot chocolate day.	Wednessday is definetely a hot chocolate day.	662286	1471952979780	1471952979882	y	89
1356	13812	Wednesday is definitely a hot chocolate day.	Wednessday is definetely a hot chocolate day.	662287	1471952980435	1471952980551	.	190
1356	13829	The team feels confident that Martin will be available.	The team feels confident that Martin will be available	662756	1471953002890	1471953003264	SHIFT	16
1356	13829	The team feels confident that Martin will be available.	The team feels confident that Martin will be available	662758	1471953003142	1471953003389	T	84
1356	13829	The team feels confident that Martin will be available.	The team feels confident that Martin will be available	662761	1471953003576	1471953003731	h	72
1356	13829	The team feels confident that Martin will be available.	The team feels confident that Martin will be available	662764	1471953004045	1471953004229	e	69
1356	13829	The team feels confident that Martin will be available.	The team feels confident that Martin will be available	662766	1471953004229	1471953004399	 	32
1356	13829	The team feels confident that Martin will be available.	The team feels confident that Martin will be available	662768	1471953004789	1471953004965	t	84
1356	13829	The team feels confident that Martin will be available.	The team feels confident that Martin will be available	662798	1471953005092	1471953005252	e	69
1356	13829	The team feels confident that Martin will be available.	The team feels confident that Martin will be available	662800	1471953005441	1471953005601	a	65
1356	13829	The team feels confident that Martin will be available.	The team feels confident that Martin will be available	662802	1471953005835	1471953005942	m	77
1356	13829	The team feels confident that Martin will be available.	The team feels confident that Martin will be available	662804	1471953006020	1471953006187	 	32
1356	13829	The team feels confident that Martin will be available.	The team feels confident that Martin will be available	662805	1471953006608	1471953006774	f	70
1356	13829	The team feels confident that Martin will be available.	The team feels confident that Martin will be available	662835	1471953006978	1471953007144	e	69
1356	13829	The team feels confident that Martin will be available.	The team feels confident that Martin will be available	662837	1471953007159	1471953007293	e	69
1356	13829	The team feels confident that Martin will be available.	The team feels confident that Martin will be available	662842	1471953007654	1471953007795	l	76
1356	13829	The team feels confident that Martin will be available.	The team feels confident that Martin will be available	662845	1471953008029	1471953008195	s	83
1356	13829	The team feels confident that Martin will be available.	The team feels confident that Martin will be available	662847	1471953008195	1471953008345	 	32
1356	13829	The team feels confident that Martin will be available.	The team feels confident that Martin will be available	662907	1471953008851	1471953009031	c	67
1356	13829	The team feels confident that Martin will be available.	The team feels confident that Martin will be available	662909	1471953009077	1471953009204	o	79
1356	13829	The team feels confident that Martin will be available.	The team feels confident that Martin will be available	662911	1471953009532	1471953009653	n	78
1356	13829	The team feels confident that Martin will be available.	The team feels confident that Martin will be available	662912	1471953010676	1471953010837	f	70
1356	13829	The team feels confident that Martin will be available.	The team feels confident that Martin will be available	662913	1471953010899	1471953011040	i	73
1356	13829	The team feels confident that Martin will be available.	The team feels confident that Martin will be available	662962	1471953011512	1471953011674	d	68
1356	13829	The team feels confident that Martin will be available.	The team feels confident that Martin will be available	662964	1471953011752	1471953011925	e	69
1356	13829	The team feels confident that Martin will be available.	The team feels confident that Martin will be available	662968	1471953012066	1471953012211	n	78
1356	13829	The team feels confident that Martin will be available.	The team feels confident that Martin will be available	662971	1471953012476	1471953012613	t	84
1356	13829	The team feels confident that Martin will be available.	The team feels confident that Martin will be available	662973	1471953012629	1471953012778	 	32
1356	13829	The team feels confident that Martin will be available.	The team feels confident that Martin will be available	663021	1471953013282	1471953013464	t	84
1356	13829	The team feels confident that Martin will be available.	The team feels confident that Martin will be available	663023	1471953013448	1471953013599	h	72
1356	13829	The team feels confident that Martin will be available.	The team feels confident that Martin will be available	663024	1471953013942	1471953014100	a	65
1356	13829	The team feels confident that Martin will be available.	The team feels confident that Martin will be available	663025	1471953014303	1471953014467	t	84
1356	13829	The team feels confident that Martin will be available.	The team feels confident that Martin will be available	663090	1471953014452	1471953014602	 	32
1356	13829	The team feels confident that Martin will be available.	The team feels confident that Martin will be available	663092	1471953015435	1471953016052	SHIFT	16
1356	13829	The team feels confident that Martin will be available.	The team feels confident that Martin will be available	663091	1471953015812	1471953016036	M	77
1356	13829	The team feels confident that Martin will be available.	The team feels confident that Martin will be available	663094	1471953016145	1471953016370	a	65
1356	13829	The team feels confident that Martin will be available.	The team feels confident that Martin will be available	663096	1471953016604	1471953016805	r	82
1356	13829	The team feels confident that Martin will be available.	The team feels confident that Martin will be available	663098	1471953017025	1471953017224	t	84
1356	13829	The team feels confident that Martin will be available.	The team feels confident that Martin will be available	663100	1471953017443	1471953017580	i	73
1356	13829	The team feels confident that Martin will be available.	The team feels confident that Martin will be available	663129	1471953017815	1471953017917	n	78
1356	13829	The team feels confident that Martin will be available.	The team feels confident that Martin will be available	663130	1471953018026	1471953018165	 	32
1356	13829	The team feels confident that Martin will be available.	The team feels confident that Martin will be available	663131	1471953018601	1471953018781	w	87
1356	13829	The team feels confident that Martin will be available.	The team feels confident that Martin will be available	663132	1471953018921	1471953019035	i	73
1356	13829	The team feels confident that Martin will be available.	The team feels confident that Martin will be available	663134	1471953019238	1471953019338	l	76
1356	13829	The team feels confident that Martin will be available.	The team feels confident that Martin will be available	663163	1471953019371	1471953019489	l	76
1356	13829	The team feels confident that Martin will be available.	The team feels confident that Martin will be available	663165	1471953019661	1471953019789	 	32
1356	13829	The team feels confident that Martin will be available.	The team feels confident that Martin will be available	663166	1471953020056	1471953020173	b	66
1356	13829	The team feels confident that Martin will be available.	The team feels confident that Martin will be available	663167	1471953020345	1471953020504	e	69
1356	13829	The team feels confident that Martin will be available.	The team feels confident that Martin will be available	663168	1471953020520	1471953020662	 	32
1356	13829	The team feels confident that Martin will be available.	The team feels confident that Martin will be available	663242	1471953020992	1471953021173	a	65
1356	13829	The team feels confident that Martin will be available.	The team feels confident that Martin will be available	663244	1471953022102	1471953022229	v	86
1356	13829	The team feels confident that Martin will be available.	The team feels confident that Martin will be available	663246	1471953022354	1471953022528	a	65
1356	13829	The team feels confident that Martin will be available.	The team feels confident that Martin will be available	663249	1471953022686	1471953022816	i	73
1356	13829	The team feels confident that Martin will be available.	The team feels confident that Martin will be available	663252	1471953023144	1471953023252	l	76
1356	13829	The team feels confident that Martin will be available.	The team feels confident that Martin will be available	663297	1471953023472	1471953023663	a	65
1356	13829	The team feels confident that Martin will be available.	The team feels confident that Martin will be available	663298	1471953023866	1471953023988	b	66
1356	13829	The team feels confident that Martin will be available.	The team feels confident that Martin will be available	663299	1471953024316	1471953024454	l	76
1356	13829	The team feels confident that Martin will be available.	The team feels confident that Martin will be available	663300	1471953024657	1471953024852	e	69
1356	13850	A bit behind on my emails.	A bit behind on my emails	663618	1471953037711	1471953038105	SHIFT	16
1356	13850	A bit behind on my emails.	A bit behind on my emails	663620	1471953038008	1471953038245	A	65
1356	13850	A bit behind on my emails.	A bit behind on my emails	663622	1471953038495	1471953038652	 	32
1356	13850	A bit behind on my emails.	A bit behind on my emails	663624	1471953038777	1471953038920	b	66
1356	13850	A bit behind on my emails.	A bit behind on my emails	663626	1471953039124	1471953039242	i	73
1356	13850	A bit behind on my emails.	A bit behind on my emails	663630	1471953039698	1471953039898	t	84
1356	13850	A bit behind on my emails.	A bit behind on my emails	663730	1471953039857	1471953040039	 	32
1356	13850	A bit behind on my emails.	A bit behind on my emails	663731	1471953041017	1471953041147	b	66
1356	13850	A bit behind on my emails.	A bit behind on my emails	663732	1471953041808	1471953041997	e	69
1356	13850	A bit behind on my emails.	A bit behind on my emails	663733	1471953042262	1471953042401	h	72
1356	13850	A bit behind on my emails.	A bit behind on my emails	663734	1471953042588	1471953042721	i	73
1356	13850	A bit behind on my emails.	A bit behind on my emails	663735	1471953043535	1471953043673	n	78
1356	13850	A bit behind on my emails.	A bit behind on my emails	663807	1471953044176	1471953044339	d	68
1356	13850	A bit behind on my emails.	A bit behind on my emails	663809	1471953044417	1471953044575	 	32
1356	13850	A bit behind on my emails.	A bit behind on my emails	663812	1471953045739	1471953045864	o	79
1356	13850	A bit behind on my emails.	A bit behind on my emails	663815	1471953046207	1471953046317	n	78
1356	13850	A bit behind on my emails.	A bit behind on my emails	663818	1471953046364	1471953046513	 	32
1356	13850	A bit behind on my emails.	A bit behind on my emails	663877	1471953046608	1471953046704	m	77
1356	13850	A bit behind on my emails.	A bit behind on my emails	663878	1471953047315	1471953047404	y	89
1356	13850	A bit behind on my emails.	A bit behind on my emails	663879	1471953047560	1471953047655	 	32
1356	13850	A bit behind on my emails.	A bit behind on my emails	663881	1471953048061	1471953048220	e	69
1356	13850	A bit behind on my emails.	A bit behind on my emails	663883	1471953048532	1471953048611	m	77
1356	13850	A bit behind on my emails.	A bit behind on my emails	663935	1471953048799	1471953048972	a	65
1356	13850	A bit behind on my emails.	A bit behind on my emails	663938	1471953049099	1471953049194	i	73
1356	13850	A bit behind on my emails.	A bit behind on my emails	663943	1471953049366	1471953049477	l	76
1356	13850	A bit behind on my emails.	A bit behind on my emails	663948	1471953049789	1471953049974	s	83
1356	13863	This is a most unfortunate news release.	This is a most unfortunate news release	664385	1471953062838	1471953063226	SHIFT	16
1356	13863	This is a most unfortunate news release.	This is a most unfortunate news release	664388	1471953063134	1471953063398	T	84
1356	13863	This is a most unfortunate news release.	This is a most unfortunate news release	664390	1471953063538	1471953063727	h	72
1356	13863	This is a most unfortunate news release.	This is a most unfortunate news release	664392	1471953063821	1471953063990	i	73
1356	13863	This is a most unfortunate news release.	This is a most unfortunate news release	664394	1471953064224	1471953064392	s	83
1356	13863	This is a most unfortunate news release.	This is a most unfortunate news release	664396	1471953064408	1471953064560	 	32
1356	13863	This is a most unfortunate news release.	This is a most unfortunate news release	664449	1471953065220	1471953065364	i	73
1356	13863	This is a most unfortunate news release.	This is a most unfortunate news release	664454	1471953065442	1471953065614	s	83
1356	13863	This is a most unfortunate news release.	This is a most unfortunate news release	664459	1471953065629	1471953065796	 	32
1356	13863	This is a most unfortunate news release.	This is a most unfortunate news release	664462	1471953065859	1471953066048	a	65
1356	13863	This is a most unfortunate news release.	This is a most unfortunate news release	664468	1471953066391	1471953066535	 	32
1356	13863	This is a most unfortunate news release.	This is a most unfortunate news release	664517	1471953066880	1471953067035	m	77
1356	13863	This is a most unfortunate news release.	This is a most unfortunate news release	664519	1471953067176	1471953067336	o	79
1356	13863	This is a most unfortunate news release.	This is a most unfortunate news release	664523	1471953067570	1471953067753	s	83
1356	13863	This is a most unfortunate news release.	This is a most unfortunate news release	664528	1471953067956	1471953068121	t	84
1356	13863	This is a most unfortunate news release.	This is a most unfortunate news release	664532	1471953068137	1471953068295	 	32
1356	13863	This is a most unfortunate news release.	This is a most unfortunate news release	664629	1471953068576	1471953068694	u	85
1356	13863	This is a most unfortunate news release.	This is a most unfortunate news release	664633	1471953069021	1471953069130	n	78
1356	13863	This is a most unfortunate news release.	This is a most unfortunate news release	664637	1471953069649	1471953069811	f	70
1356	13863	This is a most unfortunate news release.	This is a most unfortunate news release	664639	1471953070362	1471953070499	o	79
1356	13863	This is a most unfortunate news release.	This is a most unfortunate news release	664642	1471953070874	1471953071047	r	82
1356	13863	This is a most unfortunate news release.	This is a most unfortunate news release	664748	1471953071189	1471953071365	t	84
1356	13863	This is a most unfortunate news release.	This is a most unfortunate news release	664749	1471953071506	1471953071637	u	85
1356	13863	This is a most unfortunate news release.	This is a most unfortunate news release	664752	1471953072786	1471953072893	n	78
1356	13863	This is a most unfortunate news release.	This is a most unfortunate news release	664753	1471953073236	1471953073422	a	65
1356	13863	This is a most unfortunate news release.	This is a most unfortunate news release	664754	1471953073750	1471953073864	t	84
1356	13863	This is a most unfortunate news release.	This is a most unfortunate news release	664798	1471953074022	1471953074164	e	69
1356	13863	This is a most unfortunate news release.	This is a most unfortunate news release	664799	1471953074196	1471953074328	 	32
1356	13863	This is a most unfortunate news release.	This is a most unfortunate news release	664800	1471953075146	1471953075273	n	78
1356	13863	This is a most unfortunate news release.	This is a most unfortunate news release	664801	1471953075868	1471953076034	e	69
1356	13863	This is a most unfortunate news release.	This is a most unfortunate news release	664802	1471953076206	1471953076368	w	87
1356	13863	This is a most unfortunate news release.	This is a most unfortunate news release	664836	1471953076650	1471953076803	s	83
1356	13863	This is a most unfortunate news release.	This is a most unfortunate news release	664838	1471953076897	1471953077039	 	32
1356	13863	This is a most unfortunate news release.	This is a most unfortunate news release	664841	1471953077244	1471953077419	r	82
1356	13863	This is a most unfortunate news release.	This is a most unfortunate news release	664845	1471953077513	1471953077733	e	69
1356	13863	This is a most unfortunate news release.	This is a most unfortunate news release	664851	1471953077999	1471953078094	l	76
1356	13863	This is a most unfortunate news release.	This is a most unfortunate news release	664996	1471953078486	1471953078660	e	69
1356	13863	This is a most unfortunate news release.	This is a most unfortunate news release	665003	1471953078847	1471953079010	s	83
1356	13863	This is a most unfortunate news release.	This is a most unfortunate news release	665009	1471953079889	1471953080016	BKSP	8
1356	13863	This is a most unfortunate news release.	This is a most unfortunate news release	665013	1471953082204	1471953082371	a	65
1356	13863	This is a most unfortunate news release.	This is a most unfortunate news release	665016	1471953082496	1471953082656	s	83
1356	13863	This is a most unfortunate news release.	This is a most unfortunate news release	665019	1471953082703	1471953082904	e	69
1356	13884	This is a major setback for the rookie.	This is a major nset back for rookie.	665761	1471953104038	1471953104488	SHIFT	16
1356	13884	This is a major setback for the rookie.	This is a major nset back for rookie.	665763	1471953104449	1471953104694	T	84
1356	13884	This is a major setback for the rookie.	This is a major nset back for rookie.	665765	1471953104819	1471953104984	h	72
1356	13884	This is a major setback for the rookie.	This is a major nset back for rookie.	665767	1471953105202	1471953105322	i	73
1356	13884	This is a major setback for the rookie.	This is a major nset back for rookie.	665768	1471953105525	1471953105705	s	83
1356	13884	This is a major setback for the rookie.	This is a major nset back for rookie.	665769	1471953105721	1471953105871	 	32
1356	13884	This is a major setback for the rookie.	This is a major nset back for rookie.	665829	1471953106262	1471953106392	i	73
1356	13884	This is a major setback for the rookie.	This is a major nset back for rookie.	665831	1471953106595	1471953106789	s	83
1356	13884	This is a major setback for the rookie.	This is a major nset back for rookie.	665833	1471953106821	1471953107006	 	32
1356	13884	This is a major setback for the rookie.	This is a major nset back for rookie.	665835	1471953107573	1471953107743	a	65
1356	13884	This is a major setback for the rookie.	This is a major nset back for rookie.	665836	1471953107743	1471953107910	 	32
1356	13884	This is a major setback for the rookie.	This is a major nset back for rookie.	665927	1471953108385	1471953108516	m	77
1356	13884	This is a major setback for the rookie.	This is a major nset back for rookie.	665931	1471953108672	1471953108865	a	65
1356	13884	This is a major setback for the rookie.	This is a major nset back for rookie.	665933	1471953109145	1471953109284	j	74
1356	13884	This is a major setback for the rookie.	This is a major nset back for rookie.	665935	1471953109409	1471953109538	o	79
1356	13884	This is a major setback for the rookie.	This is a major nset back for rookie.	665937	1471953109928	1471953110070	r	82
1356	13884	This is a major setback for the rookie.	This is a major nset back for rookie.	666000	1471953110103	1471953110255	n	32
1356	13884	This is a major setback for the rookie.	This is a major nset back for rookie.	666002	1471953110947	1471953111122	s	83
1356	13884	This is a major setback for the rookie.	This is a major nset back for rookie.	666004	1471953111216	1471953111374	e	69
1356	13884	This is a major setback for the rookie.	This is a major nset back for rookie.	666005	1471953111514	1471953111721	t	84
1356	13884	This is a major setback for the rookie.	This is a major nset back for rookie.	666105	1471953111753	1471953111894	 	32
1356	13884	This is a major setback for the rookie.	This is a major nset back for rookie.	666109	1471953113136	1471953113266	b	66
1356	13884	This is a major setback for the rookie.	This is a major nset back for rookie.	666113	1471953113454	1471953113631	a	65
1356	13884	This is a major setback for the rookie.	This is a major nset back for rookie.	666115	1471953113896	1471953114066	c	67
1356	13884	This is a major setback for the rookie.	This is a major nset back for rookie.	666117	1471953114300	1471953114421	k	75
1356	13884	This is a major setback for the rookie.	This is a major nset back for rookie.	666180	1471953114547	1471953114718	 	32
1356	13884	This is a major setback for the rookie.	This is a major nset back for rookie.	666183	1471953115316	1471953115503	f	70
1356	13884	This is a major setback for the rookie.	This is a major nset back for rookie.	666186	1471953115581	1471953115692	o	79
1356	13884	This is a major setback for the rookie.	This is a major nset back for rookie.	666189	1471953115988	1471953116156	r	82
1356	13884	This is a major setback for the rookie.	This is a major nset back for rookie.	666195	1471953116187	1471953116327	 	32
1356	13884	This is a major setback for the rookie.	This is a major nset back for rookie.	666335	1471953118118	1471953118280	r	82
1356	13884	This is a major setback for the rookie.	This is a major nset back for rookie.	666336	1471953118592	1471953118719	o	79
1356	13884	This is a major setback for the rookie.	This is a major nset back for rookie.	666337	1471953118781	1471953118918	o	79
1356	13884	This is a major setback for the rookie.	This is a major nset back for rookie.	666338	1471953119105	1471953119237	k	75
1356	13884	This is a major setback for the rookie.	This is a major nset back for rookie.	666339	1471953119362	1471953119504	i	73
1356	13884	This is a major setback for the rookie.	This is a major nset back for rookie.	666374	1471953119880	1471953120069	e	69
1356	13884	This is a major setback for the rookie.	This is a major nset back for rookie.	666376	1471953120620	1471953120758	.	190
1356	13913	I am having problems reconciling with Theresa's invoices.	I having problems reconciling wuiith Theresa's invoices.	666915	1471953133206	1471953133538	SHIFT	16
1356	13913	I am having problems reconciling with Theresa's invoices.	I having problems reconciling wuiith Theresa's invoices.	666917	1471953133440	1471953133647	I	73
1356	13913	I am having problems reconciling with Theresa's invoices.	I having problems reconciling wuiith Theresa's invoices.	666919	1471953133865	1471953134040	 	32
1356	13913	I am having problems reconciling with Theresa's invoices.	I having problems reconciling wuiith Theresa's invoices.	666921	1471953134196	1471953134354	h	72
1356	13913	I am having problems reconciling with Theresa's invoices.	I having problems reconciling wuiith Theresa's invoices.	666922	1471953134559	1471953134738	a	65
1356	13913	I am having problems reconciling with Theresa's invoices.	I having problems reconciling wuiith Theresa's invoices.	666924	1471953135019	1471953135159	v	86
1356	13913	I am having problems reconciling with Theresa's invoices.	I having problems reconciling wuiith Theresa's invoices.	667031	1471953135773	1471953135896	i	73
1356	13913	I am having problems reconciling with Theresa's invoices.	I having problems reconciling wuiith Theresa's invoices.	667032	1471953136192	1471953136298	n	78
1356	13913	I am having problems reconciling with Theresa's invoices.	I having problems reconciling wuiith Theresa's invoices.	667034	1471953136625	1471953136811	g	71
1356	13913	I am having problems reconciling with Theresa's invoices.	I having problems reconciling wuiith Theresa's invoices.	667038	1471953136795	1471953136948	 	32
1356	13913	I am having problems reconciling with Theresa's invoices.	I having problems reconciling wuiith Theresa's invoices.	667041	1471953137842	1471953137970	p	80
1356	13913	I am having problems reconciling with Theresa's invoices.	I having problems reconciling wuiith Theresa's invoices.	667141	1471953138521	1471953138686	r	82
1356	13913	I am having problems reconciling with Theresa's invoices.	I having problems reconciling wuiith Theresa's invoices.	667143	1471953138873	1471953139007	o	79
1356	13913	I am having problems reconciling with Theresa's invoices.	I having problems reconciling wuiith Theresa's invoices.	667145	1471953139604	1471953139711	b	66
1356	13913	I am having problems reconciling with Theresa's invoices.	I having problems reconciling wuiith Theresa's invoices.	667148	1471953140008	1471953140111	l	76
1356	13913	I am having problems reconciling with Theresa's invoices.	I having problems reconciling wuiith Theresa's invoices.	667151	1471953140392	1471953140544	e	69
1356	13913	I am having problems reconciling with Theresa's invoices.	I having problems reconciling wuiith Theresa's invoices.	667240	1471953140934	1471953141048	m	77
1356	13913	I am having problems reconciling with Theresa's invoices.	I having problems reconciling wuiith Theresa's invoices.	667242	1471953141360	1471953141514	s	83
1356	13913	I am having problems reconciling with Theresa's invoices.	I having problems reconciling wuiith Theresa's invoices.	667244	1471953141654	1471953141798	 	32
1356	13913	I am having problems reconciling with Theresa's invoices.	I having problems reconciling wuiith Theresa's invoices.	667245	1471953142708	1471953142804	c	67
1356	13913	I am having problems reconciling with Theresa's invoices.	I having problems reconciling wuiith Theresa's invoices.	667248	1471953143272	1471953143388	BKSP	8
1356	13913	I am having problems reconciling with Theresa's invoices.	I having problems reconciling wuiith Theresa's invoices.	667251	1471953143864	1471953144036	r	82
1356	13913	I am having problems reconciling with Theresa's invoices.	I having problems reconciling wuiith Theresa's invoices.	667448	1471953144396	1471953144557	e	69
1356	13913	I am having problems reconciling with Theresa's invoices.	I having problems reconciling wuiith Theresa's invoices.	667450	1471953144915	1471953145090	c	67
1356	13913	I am having problems reconciling with Theresa's invoices.	I having problems reconciling wuiith Theresa's invoices.	667452	1471953145278	1471953145395	o	79
1356	13913	I am having problems reconciling with Theresa's invoices.	I having problems reconciling wuiith Theresa's invoices.	667454	1471953145613	1471953145698	n	78
1356	13913	I am having problems reconciling with Theresa's invoices.	I having problems reconciling wuiith Theresa's invoices.	667456	1471953147901	1471953148069	c	67
1356	13913	I am having problems reconciling with Theresa's invoices.	I having problems reconciling wuiith Theresa's invoices.	667525	1471953148195	1471953148322	i	73
1356	13913	I am having problems reconciling with Theresa's invoices.	I having problems reconciling wuiith Theresa's invoices.	667529	1471953148431	1471953148603	l	76
1356	13913	I am having problems reconciling with Theresa's invoices.	I having problems reconciling wuiith Theresa's invoices.	667533	1471953148744	1471953148858	i	73
1356	13913	I am having problems reconciling with Theresa's invoices.	I having problems reconciling wuiith Theresa's invoices.	667535	1471953149014	1471953149111	m	77
1356	13913	I am having problems reconciling with Theresa's invoices.	I having problems reconciling wuiith Theresa's invoices.	667537	1471953149548	1471953149676	BKSP	8
1356	13913	I am having problems reconciling with Theresa's invoices.	I having problems reconciling wuiith Theresa's invoices.	667539	1471953149972	1471953150143	n	78
1356	13913	I am having problems reconciling with Theresa's invoices.	I having problems reconciling wuiith Theresa's invoices.	667604	1471953150425	1471953150583	g	71
1356	13913	I am having problems reconciling with Theresa's invoices.	I having problems reconciling wuiith Theresa's invoices.	667607	1471953150723	1471953150879	 	32
1356	13913	I am having problems reconciling with Theresa's invoices.	I having problems reconciling wuiith Theresa's invoices.	667609	1471953151790	1471953151980	w	87
1356	13913	I am having problems reconciling with Theresa's invoices.	I having problems reconciling wuiith Theresa's invoices.	667611	1471953152136	1471953152224	i	85
1356	13913	I am having problems reconciling with Theresa's invoices.	I having problems reconciling wuiith Theresa's invoices.	667713	1471953152677	1471953152791	i	73
1356	13913	I am having problems reconciling with Theresa's invoices.	I having problems reconciling wuiith Theresa's invoices.	667714	1471953152979	1471953153138	t	84
1356	13913	I am having problems reconciling with Theresa's invoices.	I having problems reconciling wuiith Theresa's invoices.	667715	1471953153184	1471953153296	h	72
1356	13913	I am having problems reconciling with Theresa's invoices.	I having problems reconciling wuiith Theresa's invoices.	667716	1471953153732	1471953153844	 	32
1356	13913	I am having problems reconciling with Theresa's invoices.	I having problems reconciling wuiith Theresa's invoices.	667717	1471953155194	1471953155732	SHIFT	16
1356	13913	I am having problems reconciling with Theresa's invoices.	I having problems reconciling wuiith Theresa's invoices.	667844	1471953155620	1471953155795	T	84
1356	13913	I am having problems reconciling with Theresa's invoices.	I having problems reconciling wuiith Theresa's invoices.	667846	1471953156045	1471953156151	h	72
1356	13913	I am having problems reconciling with Theresa's invoices.	I having problems reconciling wuiith Theresa's invoices.	667848	1471953156369	1471953156548	e	69
1356	13913	I am having problems reconciling with Theresa's invoices.	I having problems reconciling wuiith Theresa's invoices.	667851	1471953157053	1471953157248	r	82
1356	13913	I am having problems reconciling with Theresa's invoices.	I having problems reconciling wuiith Theresa's invoices.	667854	1471953158932	1471953159107	e	69
1356	13913	I am having problems reconciling with Theresa's invoices.	I having problems reconciling wuiith Theresa's invoices.	667857	1471953159419	1471953159561	s	83
1356	13913	I am having problems reconciling with Theresa's invoices.	I having problems reconciling wuiith Theresa's invoices.	667980	1471953159641	1471953159841	a	65
1356	13913	I am having problems reconciling with Theresa's invoices.	I having problems reconciling wuiith Theresa's invoices.	667985	1471953160703	1471953160832	'	222
1356	13913	I am having problems reconciling with Theresa's invoices.	I having problems reconciling wuiith Theresa's invoices.	667992	1471953161382	1471953161565	s	83
1356	13913	I am having problems reconciling with Theresa's invoices.	I having problems reconciling wuiith Theresa's invoices.	667996	1471953161597	1471953161734	 	32
1356	13913	I am having problems reconciling with Theresa's invoices.	I having problems reconciling wuiith Theresa's invoices.	668001	1471953162838	1471953162957	i	73
1356	13913	I am having problems reconciling with Theresa's invoices.	I having problems reconciling wuiith Theresa's invoices.	668084	1471953163207	1471953163309	n	78
1356	13913	I am having problems reconciling with Theresa's invoices.	I having problems reconciling wuiith Theresa's invoices.	668088	1471953163792	1471953163974	v	86
1356	13913	I am having problems reconciling with Theresa's invoices.	I having problems reconciling wuiith Theresa's invoices.	668092	1471953164005	1471953164113	o	79
1356	13913	I am having problems reconciling with Theresa's invoices.	I having problems reconciling wuiith Theresa's invoices.	668096	1471953164191	1471953164327	i	73
1356	13913	I am having problems reconciling with Theresa's invoices.	I having problems reconciling wuiith Theresa's invoices.	668100	1471953164701	1471953164860	c	67
1356	13913	I am having problems reconciling with Theresa's invoices.	I having problems reconciling wuiith Theresa's invoices.	668191	1471953165221	1471953165379	e	69
1356	13913	I am having problems reconciling with Theresa's invoices.	I having problems reconciling wuiith Theresa's invoices.	668195	1471953165691	1471953165896	s	83
1356	13913	I am having problems reconciling with Theresa's invoices.	I having problems reconciling wuiith Theresa's invoices.	668199	1471953166493	1471953166620	.	190
1356	13947	Thursday works better for me.	Thursday works better for me.	668524	1471953173805	1471953174147	SHIFT	16
1356	13947	Thursday works better for me.	Thursday works better for me.	668525	1471953174039	1471953174272	T	84
1356	13947	Thursday works better for me.	Thursday works better for me.	668526	1471953174459	1471953174613	h	72
1356	13947	Thursday works better for me.	Thursday works better for me.	668527	1471953174691	1471953174831	u	85
1356	13947	Thursday works better for me.	Thursday works better for me.	668528	1471953175336	1471953175513	r	82
1356	13947	Thursday works better for me.	Thursday works better for me.	668529	1471953175716	1471953175898	s	83
1356	13947	Thursday works better for me.	Thursday works better for me.	668642	1471953176922	1471953177104	d	68
1356	13947	Thursday works better for me.	Thursday works better for me.	668645	1471953177307	1471953177503	a	65
1356	13947	Thursday works better for me.	Thursday works better for me.	668647	1471953177930	1471953178027	y	89
1356	13947	Thursday works better for me.	Thursday works better for me.	668651	1471953178214	1471953178359	 	32
1356	13947	Thursday works better for me.	Thursday works better for me.	668654	1471953178671	1471953178873	w	87
1356	13947	Thursday works better for me.	Thursday works better for me.	668728	1471953179093	1471953179214	o	79
1356	13947	Thursday works better for me.	Thursday works better for me.	668733	1471953179749	1471953179928	r	82
1356	13947	Thursday works better for me.	Thursday works better for me.	668739	1471953180006	1471953180118	k	75
1356	13947	Thursday works better for me.	Thursday works better for me.	668744	1471953180383	1471953180548	s	83
1356	13947	Thursday works better for me.	Thursday works better for me.	668746	1471953180595	1471953180766	 	32
1356	13947	Thursday works better for me.	Thursday works better for me.	668822	1471953181192	1471953181305	b	66
1356	13947	Thursday works better for me.	Thursday works better for me.	668825	1471953181586	1471953181759	e	69
1356	13947	Thursday works better for me.	Thursday works better for me.	668827	1471953182134	1471953182258	t	84
1356	13947	Thursday works better for me.	Thursday works better for me.	668830	1471953182289	1471953182409	t	84
1356	13947	Thursday works better for me.	Thursday works better for me.	668833	1471953183006	1471953183174	e	69
1356	13947	Thursday works better for me.	Thursday works better for me.	668918	1471953183238	1471953183424	r	82
1356	13947	Thursday works better for me.	Thursday works better for me.	668919	1471953183565	1471953183711	 	32
1356	13947	Thursday works better for me.	Thursday works better for me.	668921	1471953184448	1471953184565	f	70
1356	13947	Thursday works better for me.	Thursday works better for me.	668923	1471953184659	1471953184799	o	79
1356	13947	Thursday works better for me.	Thursday works better for me.	668925	1471953185111	1471953185251	r	82
1356	13947	Thursday works better for me.	Thursday works better for me.	669013	1471953185330	1471953185472	 	32
1356	13947	Thursday works better for me.	Thursday works better for me.	669015	1471953185612	1471953185753	m	77
1356	13947	Thursday works better for me.	Thursday works better for me.	669020	1471953186033	1471953186234	w	87
1356	13947	Thursday works better for me.	Thursday works better for me.	669024	1471953186820	1471953186941	BKSP	8
1356	13947	Thursday works better for me.	Thursday works better for me.	669027	1471953187175	1471953187340	e	69
1356	13947	Thursday works better for me.	Thursday works better for me.	669031	1471953187621	1471953187728	.	190
1356	13963	I haven't seen it yet.	I haven't seen it yet.	669458	1471953198860	1471953199470	SHIFT	16
1356	13963	I haven't seen it yet.	I haven't seen it yet.	669460	1471953199364	1471953199595	I	73
1356	13963	I haven't seen it yet.	I haven't seen it yet.	669462	1471953199813	1471953199999	 	32
1356	13963	I haven't seen it yet.	I haven't seen it yet.	669464	1471953200425	1471953200554	h	72
1356	13963	I haven't seen it yet.	I haven't seen it yet.	669467	1471953200913	1471953201087	a	65
1356	13963	I haven't seen it yet.	I haven't seen it yet.	669469	1471953201212	1471953201343	v	86
1356	13963	I haven't seen it yet.	I haven't seen it yet.	669568	1471953201625	1471953201821	e	69
1356	13963	I haven't seen it yet.	I haven't seen it yet.	669569	1471953202767	1471953202896	n	78
1356	13963	I haven't seen it yet.	I haven't seen it yet.	669570	1471953203619	1471953203733	'	222
1356	13963	I haven't seen it yet.	I haven't seen it yet.	669572	1471953204076	1471953204219	t	84
1356	13963	I haven't seen it yet.	I haven't seen it yet.	669576	1471953204265	1471953204423	 	32
1356	13963	I haven't seen it yet.	I haven't seen it yet.	669633	1471953205109	1471953205285	s	83
1356	13963	I haven't seen it yet.	I haven't seen it yet.	669635	1471953205456	1471953205588	e	69
1356	13963	I haven't seen it yet.	I haven't seen it yet.	669638	1471953205635	1471953205741	e	69
1356	13963	I haven't seen it yet.	I haven't seen it yet.	669641	1471953205943	1471953206075	n	78
1356	13963	I haven't seen it yet.	I haven't seen it yet.	669645	1471953206231	1471953206359	 	32
1356	13963	I haven't seen it yet.	I haven't seen it yet.	669687	1471953206687	1471953206795	i	73
1356	13963	I haven't seen it yet.	I haven't seen it yet.	669688	1471953207060	1471953207210	t	84
1356	13963	I haven't seen it yet.	I haven't seen it yet.	669689	1471953207225	1471953207408	 	32
1356	13963	I haven't seen it yet.	I haven't seen it yet.	669691	1471953207720	1471953207816	y	89
1356	13963	I haven't seen it yet.	I haven't seen it yet.	669693	1471953208128	1471953208313	e	69
1356	13963	I haven't seen it yet.	I haven't seen it yet.	669736	1471953208502	1471953208586	t	84
1356	13963	I haven't seen it yet.	I haven't seen it yet.	669738	1471953209449	1471953209554	.	190
1356	13983	Juppe said such a force was in the process of being sent to Haiti.	Juppe said such a force was in the process of being sent to Haiti.	670269	1471953223401	1471953223891	SHIFT	16
1356	13983	Juppe said such a force was in the process of being sent to Haiti.	Juppe said such a force was in the process of being sent to Haiti.	670272	1471953223807	1471953224031	J	74
1356	13983	Juppe said such a force was in the process of being sent to Haiti.	Juppe said such a force was in the process of being sent to Haiti.	670277	1471953224187	1471953224337	u	85
1356	13983	Juppe said such a force was in the process of being sent to Haiti.	Juppe said such a force was in the process of being sent to Haiti.	670281	1471953224727	1471953224856	p	80
1356	13983	Juppe said such a force was in the process of being sent to Haiti.	Juppe said such a force was in the process of being sent to Haiti.	670286	1471953224871	1471953224992	p	80
1356	13983	Juppe said such a force was in the process of being sent to Haiti.	Juppe said such a force was in the process of being sent to Haiti.	670291	1471953225760	1471953225940	e	69
1356	13983	Juppe said such a force was in the process of being sent to Haiti.	Juppe said such a force was in the process of being sent to Haiti.	670332	1471953226020	1471953226192	 	32
1356	13983	Juppe said such a force was in the process of being sent to Haiti.	Juppe said such a force was in the process of being sent to Haiti.	670333	1471953226649	1471953226826	s	83
1356	13983	Juppe said such a force was in the process of being sent to Haiti.	Juppe said such a force was in the process of being sent to Haiti.	670334	1471953227076	1471953227278	a	65
1356	13983	Juppe said such a force was in the process of being sent to Haiti.	Juppe said such a force was in the process of being sent to Haiti.	670335	1471953227558	1471953227670	i	73
1356	13983	Juppe said such a force was in the process of being sent to Haiti.	Juppe said such a force was in the process of being sent to Haiti.	670336	1471953228075	1471953228233	d	68
1356	13983	Juppe said such a force was in the process of being sent to Haiti.	Juppe said such a force was in the process of being sent to Haiti.	670416	1471953228233	1471953228401	 	32
1356	13983	Juppe said such a force was in the process of being sent to Haiti.	Juppe said such a force was in the process of being sent to Haiti.	670418	1471953228793	1471953229124	a	65
1356	13983	Juppe said such a force was in the process of being sent to Haiti.	Juppe said such a force was in the process of being sent to Haiti.	670422	1471953229411	1471953229557	BKSP	8
1356	13983	Juppe said such a force was in the process of being sent to Haiti.	Juppe said such a force was in the process of being sent to Haiti.	670423	1471953229760	1471953229938	s	83
1356	13983	Juppe said such a force was in the process of being sent to Haiti.	Juppe said such a force was in the process of being sent to Haiti.	670426	1471953230203	1471953230310	u	85
1356	13983	Juppe said such a force was in the process of being sent to Haiti.	Juppe said such a force was in the process of being sent to Haiti.	670430	1471953230638	1471953230792	c	67
1356	13983	Juppe said such a force was in the process of being sent to Haiti.	Juppe said such a force was in the process of being sent to Haiti.	670501	1471953231012	1471953231130	h	72
1356	13983	Juppe said such a force was in the process of being sent to Haiti.	Juppe said such a force was in the process of being sent to Haiti.	670503	1471953231239	1471953231366	 	32
1356	13983	Juppe said such a force was in the process of being sent to Haiti.	Juppe said such a force was in the process of being sent to Haiti.	670507	1471953231678	1471953231845	a	65
1356	13983	Juppe said such a force was in the process of being sent to Haiti.	Juppe said such a force was in the process of being sent to Haiti.	670511	1471953231939	1471953232082	 	32
1356	13983	Juppe said such a force was in the process of being sent to Haiti.	Juppe said such a force was in the process of being sent to Haiti.	670514	1471953232788	1471953232965	f	70
1356	13983	Juppe said such a force was in the process of being sent to Haiti.	Juppe said such a force was in the process of being sent to Haiti.	670576	1471953233028	1471953233155	o	79
1356	13983	Juppe said such a force was in the process of being sent to Haiti.	Juppe said such a force was in the process of being sent to Haiti.	670578	1471953233515	1471953233669	r	82
1356	13983	Juppe said such a force was in the process of being sent to Haiti.	Juppe said such a force was in the process of being sent to Haiti.	670582	1471953233966	1471953234136	c	67
1356	13983	Juppe said such a force was in the process of being sent to Haiti.	Juppe said such a force was in the process of being sent to Haiti.	670587	1471953234292	1471953234485	e	69
1356	13983	Juppe said such a force was in the process of being sent to Haiti.	Juppe said such a force was in the process of being sent to Haiti.	670592	1471953235068	1471953235195	 	32
1356	13983	Juppe said such a force was in the process of being sent to Haiti.	Juppe said such a force was in the process of being sent to Haiti.	670653	1471953235963	1471953236096	w	87
1356	13983	Juppe said such a force was in the process of being sent to Haiti.	Juppe said such a force was in the process of being sent to Haiti.	670654	1471953236314	1471953236464	a	65
1356	13983	Juppe said such a force was in the process of being sent to Haiti.	Juppe said such a force was in the process of being sent to Haiti.	670655	1471953236527	1471953236679	s	83
1356	13983	Juppe said such a force was in the process of being sent to Haiti.	Juppe said such a force was in the process of being sent to Haiti.	670656	1471953236679	1471953236815	 	32
1356	13983	Juppe said such a force was in the process of being sent to Haiti.	Juppe said such a force was in the process of being sent to Haiti.	670657	1471953237631	1471953237736	i	73
1356	13983	Juppe said such a force was in the process of being sent to Haiti.	Juppe said such a force was in the process of being sent to Haiti.	670702	1471953237944	1471953238055	n	78
1356	13983	Juppe said such a force was in the process of being sent to Haiti.	Juppe said such a force was in the process of being sent to Haiti.	670703	1471953238226	1471953238370	 	32
1356	13983	Juppe said such a force was in the process of being sent to Haiti.	Juppe said such a force was in the process of being sent to Haiti.	670704	1471953239362	1471953239506	t	84
1356	13983	Juppe said such a force was in the process of being sent to Haiti.	Juppe said such a force was in the process of being sent to Haiti.	670709	1471953239630	1471953239758	h	72
1356	13983	Juppe said such a force was in the process of being sent to Haiti.	Juppe said such a force was in the process of being sent to Haiti.	670712	1471953240023	1471953240161	e	69
1356	13983	Juppe said such a force was in the process of being sent to Haiti.	Juppe said such a force was in the process of being sent to Haiti.	670780	1471953240194	1471953240375	 	32
1356	13983	Juppe said such a force was in the process of being sent to Haiti.	Juppe said such a force was in the process of being sent to Haiti.	670784	1471953240926	1471953241048	p	80
1356	13983	Juppe said such a force was in the process of being sent to Haiti.	Juppe said such a force was in the process of being sent to Haiti.	670787	1471953241422	1471953241580	r	82
1356	13983	Juppe said such a force was in the process of being sent to Haiti.	Juppe said such a force was in the process of being sent to Haiti.	670791	1471953241658	1471953241798	o	79
1356	13983	Juppe said such a force was in the process of being sent to Haiti.	Juppe said such a force was in the process of being sent to Haiti.	670793	1471953242174	1471953242333	c	67
1356	13983	Juppe said such a force was in the process of being sent to Haiti.	Juppe said such a force was in the process of being sent to Haiti.	670851	1471953242443	1471953242616	e	69
1356	13983	Juppe said such a force was in the process of being sent to Haiti.	Juppe said such a force was in the process of being sent to Haiti.	670855	1471953243121	1471953243270	s	83
1356	13983	Juppe said such a force was in the process of being sent to Haiti.	Juppe said such a force was in the process of being sent to Haiti.	670857	1471953243317	1471953243455	s	83
1356	13983	Juppe said such a force was in the process of being sent to Haiti.	Juppe said such a force was in the process of being sent to Haiti.	670858	1471953243595	1471953243723	 	32
1356	13983	Juppe said such a force was in the process of being sent to Haiti.	Juppe said such a force was in the process of being sent to Haiti.	670859	1471953244242	1471953244360	o	79
1356	13983	Juppe said such a force was in the process of being sent to Haiti.	Juppe said such a force was in the process of being sent to Haiti.	670905	1471953244768	1471953244926	f	70
1356	13983	Juppe said such a force was in the process of being sent to Haiti.	Juppe said such a force was in the process of being sent to Haiti.	670908	1471953244942	1471953245078	 	32
1356	13983	Juppe said such a force was in the process of being sent to Haiti.	Juppe said such a force was in the process of being sent to Haiti.	670913	1471953245675	1471953245782	b	66
1356	13983	Juppe said such a force was in the process of being sent to Haiti.	Juppe said such a force was in the process of being sent to Haiti.	670916	1471953246078	1471953246245	e	69
1356	13983	Juppe said such a force was in the process of being sent to Haiti.	Juppe said such a force was in the process of being sent to Haiti.	670920	1471953246448	1471953246566	i	73
1356	13983	Juppe said such a force was in the process of being sent to Haiti.	Juppe said such a force was in the process of being sent to Haiti.	670972	1471953246755	1471953246867	n	78
1356	13983	Juppe said such a force was in the process of being sent to Haiti.	Juppe said such a force was in the process of being sent to Haiti.	670974	1471953247320	1471953247451	g	71
1356	13983	Juppe said such a force was in the process of being sent to Haiti.	Juppe said such a force was in the process of being sent to Haiti.	670976	1471953247498	1471953247668	 	32
1356	13983	Juppe said such a force was in the process of being sent to Haiti.	Juppe said such a force was in the process of being sent to Haiti.	670978	1471953248343	1471953248520	s	83
1356	13983	Juppe said such a force was in the process of being sent to Haiti.	Juppe said such a force was in the process of being sent to Haiti.	670980	1471953248598	1471953248786	e	69
1356	13983	Juppe said such a force was in the process of being sent to Haiti.	Juppe said such a force was in the process of being sent to Haiti.	671051	1471953248913	1471953249057	n	78
1356	13983	Juppe said such a force was in the process of being sent to Haiti.	Juppe said such a force was in the process of being sent to Haiti.	671052	1471953249355	1471953249524	t	84
1356	13983	Juppe said such a force was in the process of being sent to Haiti.	Juppe said such a force was in the process of being sent to Haiti.	671053	1471953249508	1471953249659	 	32
1356	13983	Juppe said such a force was in the process of being sent to Haiti.	Juppe said such a force was in the process of being sent to Haiti.	671054	1471953250698	1471953250876	t	84
1356	13983	Juppe said such a force was in the process of being sent to Haiti.	Juppe said such a force was in the process of being sent to Haiti.	671055	1471953250986	1471953251116	o	79
1356	13983	Juppe said such a force was in the process of being sent to Haiti.	Juppe said such a force was in the process of being sent to Haiti.	671134	1471953251276	1471953251386	 	32
1356	13983	Juppe said such a force was in the process of being sent to Haiti.	Juppe said such a force was in the process of being sent to Haiti.	671136	1471953252455	1471953253393	SHIFT	16
1356	13983	Juppe said such a force was in the process of being sent to Haiti.	Juppe said such a force was in the process of being sent to Haiti.	671138	1471953253319	1471953253440	H	72
1356	13983	Juppe said such a force was in the process of being sent to Haiti.	Juppe said such a force was in the process of being sent to Haiti.	671140	1471953253705	1471953253871	a	65
1356	13983	Juppe said such a force was in the process of being sent to Haiti.	Juppe said such a force was in the process of being sent to Haiti.	671141	1471953254346	1471953254445	i	73
1356	13983	Juppe said such a force was in the process of being sent to Haiti.	Juppe said such a force was in the process of being sent to Haiti.	671142	1471953254804	1471953254991	t	84
1356	13983	Juppe said such a force was in the process of being sent to Haiti.	Juppe said such a force was in the process of being sent to Haiti.	671170	1471953255040	1471953255147	i	73
1356	13983	Juppe said such a force was in the process of being sent to Haiti.	Juppe said such a force was in the process of being sent to Haiti.	671174	1471953255729	1471953255849	.	190
1356	14016	Do we need to discuss?	Do we need to discuss.	671402	1471953262157	1471953262709	SHIFT	16
1356	14016	Do we need to discuss?	Do we need to discuss.	671403	1471953262613	1471953262849	D	68
1356	14016	Do we need to discuss?	Do we need to discuss.	671404	1471953262896	1471953263038	o	79
1356	14016	Do we need to discuss?	Do we need to discuss.	671405	1471953263304	1471953263430	 	32
1356	14016	Do we need to discuss?	Do we need to discuss.	671406	1471953264132	1471953264293	w	87
1356	14016	Do we need to discuss?	Do we need to discuss.	671407	1471953264356	1471953264527	e	69
1356	14016	Do we need to discuss?	Do we need to discuss.	671441	1471953264590	1471953264775	 	32
1356	14016	Do we need to discuss?	Do we need to discuss.	671442	1471953264900	1471953265017	n	78
1356	14016	Do we need to discuss?	Do we need to discuss.	671443	1471953265313	1471953265432	e	69
1356	14016	Do we need to discuss?	Do we need to discuss.	671444	1471953265495	1471953265647	e	69
1356	14016	Do we need to discuss?	Do we need to discuss.	671445	1471953265741	1471953265883	d	68
1356	14016	Do we need to discuss?	Do we need to discuss.	671523	1471953265962	1471953266117	 	32
1356	14016	Do we need to discuss?	Do we need to discuss.	671524	1471953266839	1471953267017	y	89
1356	14016	Do we need to discuss?	Do we need to discuss.	671525	1471953267445	1471953267572	BKSP	8
1356	14016	Do we need to discuss?	Do we need to discuss.	671526	1471953267760	1471953267906	t	84
1356	14016	Do we need to discuss?	Do we need to discuss.	671527	1471953267922	1471953268041	o	79
1356	14016	Do we need to discuss?	Do we need to discuss.	671528	1471953268197	1471953268341	 	32
1356	14016	Do we need to discuss?	Do we need to discuss.	671602	1471953268576	1471953268741	d	68
1356	14016	Do we need to discuss?	Do we need to discuss.	671603	1471953268929	1471953269061	i	73
1356	14016	Do we need to discuss?	Do we need to discuss.	671604	1471953269644	1471953269828	s	83
1356	14016	Do we need to discuss?	Do we need to discuss.	671605	1471953269984	1471953270130	c	67
1356	14016	Do we need to discuss?	Do we need to discuss.	671606	1471953270380	1471953270516	u	85
1356	14016	Do we need to discuss?	Do we need to discuss.	671647	1471953270922	1471953271052	s	83
1356	14016	Do we need to discuss?	Do we need to discuss.	671648	1471953271098	1471953271220	s	83
1356	14016	Do we need to discuss?	Do we need to discuss.	671649	1471953271832	1471953271939	.	190
1356	14024	A Hungarian neuro surgeon said that medical supplies are low.	A Hungarian neruro surgeon said that medical supplies are low.	671941	1471953280256	1471953280737	SHIFT	16
1356	14024	A Hungarian neuro surgeon said that medical supplies are low.	A Hungarian neruro surgeon said that medical supplies are low.	671944	1471953280635	1471953280877	A	65
1356	14024	A Hungarian neuro surgeon said that medical supplies are low.	A Hungarian neruro surgeon said that medical supplies are low.	671946	1471953280987	1471953281166	 	32
1356	14024	A Hungarian neuro surgeon said that medical supplies are low.	A Hungarian neruro surgeon said that medical supplies are low.	671947	1471953281640	1471953282192	SHIFT	16
1356	14024	A Hungarian neuro surgeon said that medical supplies are low.	A Hungarian neruro surgeon said that medical supplies are low.	671948	1471953282077	1471953282286	H	72
1356	14024	A Hungarian neuro surgeon said that medical supplies are low.	A Hungarian neruro surgeon said that medical supplies are low.	671949	1471953282488	1471953282626	u	85
1356	14024	A Hungarian neuro surgeon said that medical supplies are low.	A Hungarian neruro surgeon said that medical supplies are low.	671950	1471953282782	1471953282895	n	78
1356	14024	A Hungarian neuro surgeon said that medical supplies are low.	A Hungarian neruro surgeon said that medical supplies are low.	672022	1471953283270	1471953283442	g	71
1356	14024	A Hungarian neuro surgeon said that medical supplies are low.	A Hungarian neruro surgeon said that medical supplies are low.	672024	1471953283754	1471953283943	a	65
1356	14024	A Hungarian neuro surgeon said that medical supplies are low.	A Hungarian neruro surgeon said that medical supplies are low.	672026	1471953284193	1471953284394	r	82
1356	14024	A Hungarian neuro surgeon said that medical supplies are low.	A Hungarian neruro surgeon said that medical supplies are low.	672027	1471953284519	1471953284680	i	73
1356	14024	A Hungarian neuro surgeon said that medical supplies are low.	A Hungarian neruro surgeon said that medical supplies are low.	672028	1471953285387	1471953285613	o	79
1356	14024	A Hungarian neuro surgeon said that medical supplies are low.	A Hungarian neruro surgeon said that medical supplies are low.	672113	1471953286038	1471953286172	BKSP	8
1356	14024	A Hungarian neuro surgeon said that medical supplies are low.	A Hungarian neruro surgeon said that medical supplies are low.	672115	1471953286484	1471953286670	a	65
1356	14024	A Hungarian neuro surgeon said that medical supplies are low.	A Hungarian neruro surgeon said that medical supplies are low.	672117	1471953286826	1471953286941	n	78
1356	14024	A Hungarian neuro surgeon said that medical supplies are low.	A Hungarian neruro surgeon said that medical supplies are low.	672119	1471953287019	1471953287173	 	32
1356	14024	A Hungarian neuro surgeon said that medical supplies are low.	A Hungarian neruro surgeon said that medical supplies are low.	672122	1471953288555	1471953288666	n	78
1356	14024	A Hungarian neuro surgeon said that medical supplies are low.	A Hungarian neruro surgeon said that medical supplies are low.	672177	1471953289543	1471953289683	r	69
1356	14024	A Hungarian neuro surgeon said that medical supplies are low.	A Hungarian neruro surgeon said that medical supplies are low.	672178	1471953290202	1471953290304	u	85
1356	14024	A Hungarian neuro surgeon said that medical supplies are low.	A Hungarian neruro surgeon said that medical supplies are low.	672179	1471953290678	1471953290852	r	82
1356	14024	A Hungarian neuro surgeon said that medical supplies are low.	A Hungarian neruro surgeon said that medical supplies are low.	672180	1471953290945	1471953291072	o	79
1356	14024	A Hungarian neuro surgeon said that medical supplies are low.	A Hungarian neruro surgeon said that medical supplies are low.	672181	1471953291244	1471953291373	 	32
1356	14024	A Hungarian neuro surgeon said that medical supplies are low.	A Hungarian neruro surgeon said that medical supplies are low.	672184	1471953292397	1471953292574	s	83
1356	14024	A Hungarian neuro surgeon said that medical supplies are low.	A Hungarian neruro surgeon said that medical supplies are low.	672244	1471953292763	1471953292880	u	85
1356	14024	A Hungarian neuro surgeon said that medical supplies are low.	A Hungarian neruro surgeon said that medical supplies are low.	672245	1471953293383	1471953293575	r	82
1356	14024	A Hungarian neuro surgeon said that medical supplies are low.	A Hungarian neruro surgeon said that medical supplies are low.	672246	1471953293986	1471953294195	g	71
1356	14024	A Hungarian neuro surgeon said that medical supplies are low.	A Hungarian neruro surgeon said that medical supplies are low.	672247	1471953294620	1471953294798	e	69
1356	14024	A Hungarian neuro surgeon said that medical supplies are low.	A Hungarian neruro surgeon said that medical supplies are low.	672248	1471953294845	1471953294971	o	79
1356	14024	A Hungarian neuro surgeon said that medical supplies are low.	A Hungarian neruro surgeon said that medical supplies are low.	672324	1471953295284	1471953295405	n	78
1356	14024	A Hungarian neuro surgeon said that medical supplies are low.	A Hungarian neruro surgeon said that medical supplies are low.	672327	1471953295499	1471953295654	 	32
1356	14024	A Hungarian neuro surgeon said that medical supplies are low.	A Hungarian neruro surgeon said that medical supplies are low.	672330	1471953296297	1471953296471	s	83
1356	14024	A Hungarian neuro surgeon said that medical supplies are low.	A Hungarian neruro surgeon said that medical supplies are low.	672333	1471953297415	1471953297590	a	65
1356	14024	A Hungarian neuro surgeon said that medical supplies are low.	A Hungarian neruro surgeon said that medical supplies are low.	672335	1471953297886	1471953298011	i	73
1356	14024	A Hungarian neuro surgeon said that medical supplies are low.	A Hungarian neruro surgeon said that medical supplies are low.	672378	1471953298433	1471953298629	d	68
1356	14024	A Hungarian neuro surgeon said that medical supplies are low.	A Hungarian neruro surgeon said that medical supplies are low.	672379	1471953298707	1471953298880	 	32
1356	14024	A Hungarian neuro surgeon said that medical supplies are low.	A Hungarian neruro surgeon said that medical supplies are low.	672380	1471953299493	1471953299651	t	84
1356	14024	A Hungarian neuro surgeon said that medical supplies are low.	A Hungarian neruro surgeon said that medical supplies are low.	672381	1471953299683	1471953299834	h	72
1356	14024	A Hungarian neuro surgeon said that medical supplies are low.	A Hungarian neruro surgeon said that medical supplies are low.	672382	1471953299959	1471953300182	a	65
1356	14024	A Hungarian neuro surgeon said that medical supplies are low.	A Hungarian neruro surgeon said that medical supplies are low.	672430	1471953300417	1471953300612	t	84
1356	14024	A Hungarian neuro surgeon said that medical supplies are low.	A Hungarian neruro surgeon said that medical supplies are low.	672432	1471953300571	1471953300783	 	32
1356	14024	A Hungarian neuro surgeon said that medical supplies are low.	A Hungarian neruro surgeon said that medical supplies are low.	672434	1471953301413	1471953301527	m	77
1356	14024	A Hungarian neuro surgeon said that medical supplies are low.	A Hungarian neruro surgeon said that medical supplies are low.	672437	1471953301746	1471953301941	e	69
1356	14024	A Hungarian neuro surgeon said that medical supplies are low.	A Hungarian neruro surgeon said that medical supplies are low.	672438	1471953302081	1471953302273	d	68
1356	14024	A Hungarian neuro surgeon said that medical supplies are low.	A Hungarian neruro surgeon said that medical supplies are low.	672494	1471953302369	1471953302511	i	73
1356	14024	A Hungarian neuro surgeon said that medical supplies are low.	A Hungarian neruro surgeon said that medical supplies are low.	672496	1471953302777	1471953302966	c	67
1356	14024	A Hungarian neuro surgeon said that medical supplies are low.	A Hungarian neruro surgeon said that medical supplies are low.	672497	1471953303122	1471953303327	a	65
1356	14024	A Hungarian neuro surgeon said that medical supplies are low.	A Hungarian neruro surgeon said that medical supplies are low.	672498	1471953303515	1471953303664	k	75
1356	14024	A Hungarian neuro surgeon said that medical supplies are low.	A Hungarian neruro surgeon said that medical supplies are low.	672499	1471953304215	1471953304367	BKSP	8
1356	14024	A Hungarian neuro surgeon said that medical supplies are low.	A Hungarian neruro surgeon said that medical supplies are low.	672500	1471953304570	1471953304673	l	76
1356	14024	A Hungarian neuro surgeon said that medical supplies are low.	A Hungarian neruro surgeon said that medical supplies are low.	672554	1471953304846	1471953304956	 	32
1356	14024	A Hungarian neuro surgeon said that medical supplies are low.	A Hungarian neruro surgeon said that medical supplies are low.	672557	1471953305819	1471953306004	s	83
1356	14024	A Hungarian neuro surgeon said that medical supplies are low.	A Hungarian neruro surgeon said that medical supplies are low.	672560	1471953306082	1471953306224	i	73
1356	14024	A Hungarian neuro surgeon said that medical supplies are low.	A Hungarian neruro surgeon said that medical supplies are low.	672562	1471953306666	1471953306794	BKSP	8
1356	14024	A Hungarian neuro surgeon said that medical supplies are low.	A Hungarian neruro surgeon said that medical supplies are low.	672564	1471953307138	1471953307278	u	85
1356	14024	A Hungarian neuro surgeon said that medical supplies are low.	A Hungarian neruro surgeon said that medical supplies are low.	672570	1471953307590	1471953307698	p	80
1356	14024	A Hungarian neuro surgeon said that medical supplies are low.	A Hungarian neruro surgeon said that medical supplies are low.	672597	1471953307917	1471953308032	p	80
1356	14024	A Hungarian neuro surgeon said that medical supplies are low.	A Hungarian neruro surgeon said that medical supplies are low.	672599	1471953308158	1471953308285	l	76
1356	14024	A Hungarian neuro surgeon said that medical supplies are low.	A Hungarian neruro surgeon said that medical supplies are low.	672603	1471953308472	1471953308586	i	73
1356	14024	A Hungarian neuro surgeon said that medical supplies are low.	A Hungarian neruro surgeon said that medical supplies are low.	672606	1471953309038	1471953309185	e	69
1356	14024	A Hungarian neuro surgeon said that medical supplies are low.	A Hungarian neruro surgeon said that medical supplies are low.	672609	1471953309357	1471953309549	s	83
1356	14024	A Hungarian neuro surgeon said that medical supplies are low.	A Hungarian neruro surgeon said that medical supplies are low.	672658	1471953309676	1471953309865	 	32
1356	14024	A Hungarian neuro surgeon said that medical supplies are low.	A Hungarian neruro surgeon said that medical supplies are low.	672659	1471953310590	1471953310801	a	65
1356	14024	A Hungarian neuro surgeon said that medical supplies are low.	A Hungarian neruro surgeon said that medical supplies are low.	672660	1471953311097	1471953311274	r	82
1356	14024	A Hungarian neuro surgeon said that medical supplies are low.	A Hungarian neruro surgeon said that medical supplies are low.	672661	1471953311320	1471953311491	e	69
1356	14024	A Hungarian neuro surgeon said that medical supplies are low.	A Hungarian neruro surgeon said that medical supplies are low.	672662	1471953311507	1471953311674	 	32
1356	14024	A Hungarian neuro surgeon said that medical supplies are low.	A Hungarian neruro surgeon said that medical supplies are low.	672713	1471953312195	1471953312329	l	76
1356	14024	A Hungarian neuro surgeon said that medical supplies are low.	A Hungarian neruro surgeon said that medical supplies are low.	672714	1471953312407	1471953312546	o	79
1356	14024	A Hungarian neuro surgeon said that medical supplies are low.	A Hungarian neruro surgeon said that medical supplies are low.	672716	1471953312905	1471953313110	w	87
1356	14024	A Hungarian neuro surgeon said that medical supplies are low.	A Hungarian neruro surgeon said that medical supplies are low.	672718	1471953313313	1471953313435	.	190
1356	14042	Juppe arrived in Washington on Wednesday.	Juppie arrived in Washington on wednessday.	672860	1471953320609	1471953321127	SHIFT	16
1356	14042	Juppe arrived in Washington on Wednesday.	Juppie arrived in Washington on wednessday.	672862	1471953321003	1471953321237	J	74
1356	14042	Juppe arrived in Washington on Wednesday.	Juppie arrived in Washington on wednessday.	672865	1471953321393	1471953321543	u	85
1356	14042	Juppe arrived in Washington on Wednesday.	Juppie arrived in Washington on wednessday.	672868	1471953321902	1471953322014	p	80
1356	14042	Juppe arrived in Washington on Wednesday.	Juppie arrived in Washington on wednessday.	672871	1471953322061	1471953322180	p	80
1356	14042	Juppe arrived in Washington on Wednesday.	Juppie arrived in Washington on wednessday.	672874	1471953322586	1471953322684	i	73
1356	14042	Juppe arrived in Washington on Wednesday.	Juppie arrived in Washington on wednessday.	672921	1471953323076	1471953323263	e	69
1356	14042	Juppe arrived in Washington on Wednesday.	Juppie arrived in Washington on wednessday.	672923	1471953323310	1471953323468	 	32
1356	14042	Juppe arrived in Washington on Wednesday.	Juppie arrived in Washington on wednessday.	672925	1471953324018	1471953324232	a	65
1356	14042	Juppe arrived in Washington on Wednesday.	Juppie arrived in Washington on wednessday.	672926	1471953324860	1471953325024	r	82
1356	14042	Juppe arrived in Washington on Wednesday.	Juppie arrived in Washington on wednessday.	672927	1471953325071	1471953325222	r	82
1356	14042	Juppe arrived in Washington on Wednesday.	Juppie arrived in Washington on wednessday.	672983	1471953325458	1471953325608	i	73
1356	14042	Juppe arrived in Washington on Wednesday.	Juppie arrived in Washington on wednessday.	672985	1471953326238	1471953326348	v	86
1356	14042	Juppe arrived in Washington on Wednesday.	Juppie arrived in Washington on wednessday.	672987	1471953326676	1471953326845	e	69
1356	14042	Juppe arrived in Washington on Wednesday.	Juppie arrived in Washington on wednessday.	672989	1471953326908	1471953327093	d	68
1356	14042	Juppe arrived in Washington on Wednesday.	Juppie arrived in Washington on wednessday.	672993	1471953327140	1471953327300	 	32
1356	14042	Juppe arrived in Washington on Wednesday.	Juppie arrived in Washington on wednessday.	673085	1471953328162	1471953328302	i	73
1356	14042	Juppe arrived in Washington on Wednesday.	Juppie arrived in Washington on wednessday.	673087	1471953328708	1471953328806	n	78
1356	14042	Juppe arrived in Washington on Wednesday.	Juppie arrived in Washington on wednessday.	673089	1471953328899	1471953329068	 	32
1356	14042	Juppe arrived in Washington on Wednesday.	Juppie arrived in Washington on wednessday.	673091	1471953329335	1471953329958	SHIFT	16
1356	14042	Juppe arrived in Washington on Wednesday.	Juppie arrived in Washington on wednessday.	673093	1471953329838	1471953330020	W	87
1356	14042	Juppe arrived in Washington on Wednesday.	Juppie arrived in Washington on wednessday.	673094	1471953330571	1471953330757	a	65
1356	14042	Juppe arrived in Washington on Wednesday.	Juppie arrived in Washington on wednessday.	673171	1471953330869	1471953331074	s	83
1356	14042	Juppe arrived in Washington on Wednesday.	Juppie arrived in Washington on wednessday.	673172	1471953331339	1471953331464	h	72
1356	14042	Juppe arrived in Washington on Wednesday.	Juppie arrived in Washington on wednessday.	673174	1471953332202	1471953332365	i	73
1356	14042	Juppe arrived in Washington on Wednesday.	Juppie arrived in Washington on wednessday.	673176	1471953333263	1471953333386	n	78
1356	14042	Juppe arrived in Washington on Wednesday.	Juppie arrived in Washington on wednessday.	673178	1471953333844	1471953334035	g	71
1356	14042	Juppe arrived in Washington on Wednesday.	Juppie arrived in Washington on wednessday.	673235	1471953334648	1471953334838	t	84
1356	14042	Juppe arrived in Washington on Wednesday.	Juppie arrived in Washington on wednessday.	673236	1471953334947	1471953335091	o	79
1356	14042	Juppe arrived in Washington on Wednesday.	Juppie arrived in Washington on wednessday.	673237	1471953335658	1471953335795	n	78
1356	14042	Juppe arrived in Washington on Wednesday.	Juppie arrived in Washington on wednessday.	673238	1471953335889	1471953336044	 	32
1356	14042	Juppe arrived in Washington on Wednesday.	Juppie arrived in Washington on wednessday.	673239	1471953336450	1471953336597	o	79
1356	14042	Juppe arrived in Washington on Wednesday.	Juppie arrived in Washington on wednessday.	673333	1471953337289	1471953337433	n	78
1356	14042	Juppe arrived in Washington on Wednesday.	Juppie arrived in Washington on wednessday.	673334	1471953337542	1471953337699	 	32
1356	14042	Juppe arrived in Washington on Wednesday.	Juppie arrived in Washington on wednessday.	673335	1471953338707	1471953338903	w	87
1356	14042	Juppe arrived in Washington on Wednesday.	Juppie arrived in Washington on wednessday.	673336	1471953339012	1471953339201	e	69
1356	14042	Juppe arrived in Washington on Wednesday.	Juppie arrived in Washington on wednessday.	673337	1471953339498	1471953339672	d	68
1356	14042	Juppe arrived in Washington on Wednesday.	Juppie arrived in Washington on wednessday.	673397	1471953340177	1471953340279	n	78
1356	14042	Juppe arrived in Washington on Wednesday.	Juppie arrived in Washington on wednessday.	673399	1471953340482	1471953340643	e	69
1356	14042	Juppe arrived in Washington on Wednesday.	Juppie arrived in Washington on wednessday.	673403	1471953340940	1471953341048	s	83
1356	14042	Juppe arrived in Washington on Wednesday.	Juppie arrived in Washington on wednessday.	673405	1471953341111	1471953341246	s	83
1356	14042	Juppe arrived in Washington on Wednesday.	Juppie arrived in Washington on wednessday.	673407	1471953341512	1471953341695	d	68
1356	14042	Juppe arrived in Washington on Wednesday.	Juppie arrived in Washington on wednessday.	673476	1471953341838	1471953342029	a	65
1356	14042	Juppe arrived in Washington on Wednesday.	Juppie arrived in Washington on wednessday.	673480	1471953342688	1471953342804	y	89
1356	14042	Juppe arrived in Washington on Wednesday.	Juppie arrived in Washington on wednessday.	673482	1471953343371	1471953343475	.	190
1356	14064	Why do you ask?	Why do you ask?	673706	1471953350384	1471953350766	SHIFT	16
1356	14064	Why do you ask?	Why do you ask?	673707	1471953350667	1471953350890	W	87
1356	14064	Why do you ask?	Why do you ask?	673710	1471953351093	1471953351248	h	72
1356	14064	Why do you ask?	Why do you ask?	673714	1471953351357	1471953351500	y	89
1356	14064	Why do you ask?	Why do you ask?	673717	1471953351624	1471953351768	 	32
1356	14064	Why do you ask?	Why do you ask?	673721	1471953351924	1471953352114	d	68
1356	14064	Why do you ask?	Why do you ask?	673761	1471953352240	1471953352384	o	79
1356	14064	Why do you ask?	Why do you ask?	673764	1471953352540	1471953352670	 	32
1356	14064	Why do you ask?	Why do you ask?	673767	1471953353174	1471953353322	y	89
1356	14064	Why do you ask?	Why do you ask?	673769	1471953353447	1471953353590	o	79
1356	14064	Why do you ask?	Why do you ask?	673775	1471953353715	1471953353857	u	85
1356	14064	Why do you ask?	Why do you ask?	673868	1471953354014	1471953354143	 	32
1356	14064	Why do you ask?	Why do you ask?	673869	1471953354377	1471953354575	a	65
1356	14064	Why do you ask?	Why do you ask?	673870	1471953354699	1471953354875	s	83
1356	14064	Why do you ask?	Why do you ask?	673871	1471953355505	1471953355631	k	75
1356	14064	Why do you ask?	Why do you ask?	673881	1471953355974	1471953357116	SHIFT	16
1356	14064	Why do you ask?	Why do you ask?	673872	1471953356920	1471953357068	?	191
1356	14075	I am staying at a Hotel.	I am staying at Hotel.	674066	1471953362333	1471953363022	SHIFT	16
1356	14075	I am staying at a Hotel.	I am staying at Hotel.	674071	1471953362868	1471953363053	I	73
1356	14075	I am staying at a Hotel.	I am staying at Hotel.	674078	1471953363240	1471953363406	 	32
1356	14075	I am staying at a Hotel.	I am staying at Hotel.	674088	1471953363640	1471953363807	a	65
1356	14075	I am staying at a Hotel.	I am staying at Hotel.	674095	1471953363901	1471953364027	n	78
1356	14075	I am staying at a Hotel.	I am staying at Hotel.	674101	1471953364121	1471953364260	 	32
1356	14075	I am staying at a Hotel.	I am staying at Hotel.	674220	1471953364781	1471953364897	BKSP	8
1356	14075	I am staying at a Hotel.	I am staying at Hotel.	674221	1471953364928	1471953365063	BKSP	8
1356	14075	I am staying at a Hotel.	I am staying at Hotel.	674224	1471953365344	1471953365435	m	77
1356	14075	I am staying at a Hotel.	I am staying at Hotel.	674229	1471953366267	1471953366402	 	32
1356	14075	I am staying at a Hotel.	I am staying at Hotel.	674233	1471953366907	1471953367130	s	83
1356	14075	I am staying at a Hotel.	I am staying at Hotel.	674236	1471953367302	1471953367423	t	84
1356	14075	I am staying at a Hotel.	I am staying at Hotel.	674240	1471953367767	1471953367953	a	65
1356	14075	I am staying at a Hotel.	I am staying at Hotel.	674273	1471953368173	1471953368278	y	89
1356	14075	I am staying at a Hotel.	I am staying at Hotel.	674274	1471953368497	1471953368595	i	73
1356	14075	I am staying at a Hotel.	I am staying at Hotel.	674275	1471953368875	1471953368979	n	78
1356	14075	I am staying at a Hotel.	I am staying at Hotel.	674276	1471953369385	1471953369559	g	71
1356	14075	I am staying at a Hotel.	I am staying at Hotel.	674376	1471953369544	1471953369695	 	32
1356	14075	I am staying at a Hotel.	I am staying at Hotel.	674380	1471953369882	1471953370063	a	65
1356	14075	I am staying at a Hotel.	I am staying at Hotel.	674383	1471953370270	1471953370442	t	84
1356	14075	I am staying at a Hotel.	I am staying at Hotel.	674387	1471953370452	1471953370623	 	32
1356	14075	I am staying at a Hotel.	I am staying at Hotel.	674391	1471953371478	1471953372122	SHIFT	16
1356	14075	I am staying at a Hotel.	I am staying at Hotel.	674394	1471953371981	1471953372231	H	72
1356	14075	I am staying at a Hotel.	I am staying at Hotel.	674396	1471953372341	1471953372472	o	79
1356	14075	I am staying at a Hotel.	I am staying at Hotel.	674460	1471953373024	1471953373331	t	84
1356	14075	I am staying at a Hotel.	I am staying at Hotel.	674463	1471953373581	1471953373790	e	69
1356	14075	I am staying at a Hotel.	I am staying at Hotel.	674464	1471953373993	1471953374129	l	76
1356	14075	I am staying at a Hotel.	I am staying at Hotel.	674468	1471953374474	1471953374598	.	190
1356	14086	Tried to call but couldn't reach you.	Try to call but couldn't reach you.	674837	1471953385597	1471953385974	SHIFT	16
1356	14086	Tried to call but couldn't reach you.	Try to call but couldn't reach you.	674839	1471953385878	1471953386084	T	84
1356	14086	Tried to call but couldn't reach you.	Try to call but couldn't reach you.	674841	1471953386302	1471953386500	r	82
1356	14086	Tried to call but couldn't reach you.	Try to call but couldn't reach you.	674845	1471953386625	1471953386757	y	89
1356	14086	Tried to call but couldn't reach you.	Try to call but couldn't reach you.	674848	1471953386913	1471953387058	 	66
1356	14086	Tried to call but couldn't reach you.	Try to call but couldn't reach you.	674968	1471953388471	1471953388598	BKSP	8
1356	14086	Tried to call but couldn't reach you.	Try to call but couldn't reach you.	674969	1471953389475	1471953389588	BKSP	8
1356	14086	Tried to call but couldn't reach you.	Try to call but couldn't reach you.	674971	1471953389775	1471953389886	 	32
1356	14086	Tried to call but couldn't reach you.	Try to call but couldn't reach you.	674973	1471953390042	1471953390216	t	84
1356	14086	Tried to call but couldn't reach you.	Try to call but couldn't reach you.	674975	1471953390232	1471953390354	o	79
1356	14086	Tried to call but couldn't reach you.	Try to call but couldn't reach you.	674978	1471953390479	1471953390589	 	32
1356	14086	Tried to call but couldn't reach you.	Try to call but couldn't reach you.	674981	1471953391280	1471953391455	c	67
1356	14086	Tried to call but couldn't reach you.	Try to call but couldn't reach you.	675077	1471953391596	1471953391788	a	65
1356	14086	Tried to call but couldn't reach you.	Try to call but couldn't reach you.	675079	1471953392198	1471953392295	l	76
1356	14086	Tried to call but couldn't reach you.	Try to call but couldn't reach you.	675082	1471953392342	1471953392429	l	76
1356	14086	Tried to call but couldn't reach you.	Try to call but couldn't reach you.	675084	1471953393137	1471953393279	 	32
1356	14086	Tried to call but couldn't reach you.	Try to call but couldn't reach you.	675086	1471953393798	1471953393915	b	66
1356	14086	Tried to call but couldn't reach you.	Try to call but couldn't reach you.	675172	1471953394307	1471953394402	u	85
1356	14086	Tried to call but couldn't reach you.	Try to call but couldn't reach you.	675175	1471953394970	1471953395133	t	84
1356	14086	Tried to call but couldn't reach you.	Try to call but couldn't reach you.	675178	1471953395149	1471953395301	 	32
1356	14086	Tried to call but couldn't reach you.	Try to call but couldn't reach you.	675180	1471953395775	1471953395936	c	67
1356	14086	Tried to call but couldn't reach you.	Try to call but couldn't reach you.	675183	1471953396279	1471953396407	o	79
1356	14086	Tried to call but couldn't reach you.	Try to call but couldn't reach you.	675307	1471953396534	1471953396658	u	85
1356	14086	Tried to call but couldn't reach you.	Try to call but couldn't reach you.	675309	1471953397381	1471953397511	l	76
1356	14086	Tried to call but couldn't reach you.	Try to call but couldn't reach you.	675312	1471953398375	1471953398562	d	68
1356	14086	Tried to call but couldn't reach you.	Try to call but couldn't reach you.	675315	1471953399034	1471953399168	n	78
1356	14086	Tried to call but couldn't reach you.	Try to call but couldn't reach you.	675318	1471953399656	1471953399786	'	222
1356	14086	Tried to call but couldn't reach you.	Try to call but couldn't reach you.	675420	1471953400400	1471953400584	t	84
1356	14086	Tried to call but couldn't reach you.	Try to call but couldn't reach you.	675422	1471953400568	1471953400721	 	32
1356	14086	Tried to call but couldn't reach you.	Try to call but couldn't reach you.	675425	1471953401272	1471953401456	r	82
1356	14086	Tried to call but couldn't reach you.	Try to call but couldn't reach you.	675429	1471953401534	1471953401707	e	69
1356	14086	Tried to call but couldn't reach you.	Try to call but couldn't reach you.	675432	1471953401894	1471953402104	a	65
1356	14086	Tried to call but couldn't reach you.	Try to call but couldn't reach you.	675495	1471953402324	1471953402523	c	67
1356	14086	Tried to call but couldn't reach you.	Try to call but couldn't reach you.	675499	1471953402601	1471953402714	h	72
1356	14086	Tried to call but couldn't reach you.	Try to call but couldn't reach you.	675503	1471953402901	1471953403015	 	32
1356	14086	Tried to call but couldn't reach you.	Try to call but couldn't reach you.	675511	1471953403342	1471953403454	y	89
1356	14086	Tried to call but couldn't reach you.	Try to call but couldn't reach you.	675515	1471953403859	1471953403984	o	79
1356	14086	Tried to call but couldn't reach you.	Try to call but couldn't reach you.	675620	1471953404157	1471953404254	u	85
1356	14086	Tried to call but couldn't reach you.	Try to call but couldn't reach you.	675625	1471953406689	1471953406795	.	190
