PARTICIPANT_ID	TEST_SECTION_ID	SENTENCE	USER_INPUT	KEYSTROKE_ID	PRESS_TIME	RELEASE_TIME	LETTER	KEYCODE
1655	16817	My only constraint is Chad's soccer game at noon.	My only constraint is Chad's soccer game at noon.	803979	1471956695141	1471956695339	SHIFT	16
1655	16817	My only constraint is Chad's soccer game at noon.	My only constraint is Chad's soccer game at noon.	803982	1471956695308	1471956695408	M	77
1655	16817	My only constraint is Chad's soccer game at noon.	My only constraint is Chad's soccer game at noon.	803987	1471956695621	1471956695733	y	89
1655	16817	My only constraint is Chad's soccer game at noon.	My only constraint is Chad's soccer game at noon.	803990	1471956695797	1471956695935	 	32
1655	16817	My only constraint is Chad's soccer game at noon.	My only constraint is Chad's soccer game at noon.	803995	1471956696049	1471956696201	o	79
1655	16817	My only constraint is Chad's soccer game at noon.	My only constraint is Chad's soccer game at noon.	803999	1471956696319	1471956696395	n	78
1655	16817	My only constraint is Chad's soccer game at noon.	My only constraint is Chad's soccer game at noon.	804013	1471956696480	1471956696588	l	76
1655	16817	My only constraint is Chad's soccer game at noon.	My only constraint is Chad's soccer game at noon.	804016	1471956696677	1471956696767	y	89
1655	16817	My only constraint is Chad's soccer game at noon.	My only constraint is Chad's soccer game at noon.	804020	1471956696835	1471956696955	 	32
1655	16817	My only constraint is Chad's soccer game at noon.	My only constraint is Chad's soccer game at noon.	804023	1471956697165	1471956697305	c	67
1655	16817	My only constraint is Chad's soccer game at noon.	My only constraint is Chad's soccer game at noon.	804063	1471956697285	1471956697433	o	79
1655	16817	My only constraint is Chad's soccer game at noon.	My only constraint is Chad's soccer game at noon.	804066	1471956697635	1471956697759	n	78
1655	16817	My only constraint is Chad's soccer game at noon.	My only constraint is Chad's soccer game at noon.	804070	1471956698115	1471956698209	s	83
1655	16817	My only constraint is Chad's soccer game at noon.	My only constraint is Chad's soccer game at noon.	804077	1471956698499	1471956698640	t	84
1655	16817	My only constraint is Chad's soccer game at noon.	My only constraint is Chad's soccer game at noon.	804081	1471956698779	1471956698927	r	82
1655	16817	My only constraint is Chad's soccer game at noon.	My only constraint is Chad's soccer game at noon.	804087	1471956699055	1471956699221	a	65
1655	16817	My only constraint is Chad's soccer game at noon.	My only constraint is Chad's soccer game at noon.	804135	1471956699971	1471956700103	i	73
1655	16817	My only constraint is Chad's soccer game at noon.	My only constraint is Chad's soccer game at noon.	804136	1471956700199	1471956700341	n	78
1655	16817	My only constraint is Chad's soccer game at noon.	My only constraint is Chad's soccer game at noon.	804138	1471956700413	1471956700539	t	84
1655	16817	My only constraint is Chad's soccer game at noon.	My only constraint is Chad's soccer game at noon.	804139	1471956700559	1471956700679	 	32
1655	16817	My only constraint is Chad's soccer game at noon.	My only constraint is Chad's soccer game at noon.	804140	1471956700757	1471956700853	i	73
1655	16817	My only constraint is Chad's soccer game at noon.	My only constraint is Chad's soccer game at noon.	804177	1471956700985	1471956701191	s	83
1655	16817	My only constraint is Chad's soccer game at noon.	My only constraint is Chad's soccer game at noon.	804178	1471956701375	1471956701493	 	32
1655	16817	My only constraint is Chad's soccer game at noon.	My only constraint is Chad's soccer game at noon.	804179	1471956701755	1471956701921	SHIFT	16
1655	16817	My only constraint is Chad's soccer game at noon.	My only constraint is Chad's soccer game at noon.	804180	1471956701859	1471956701984	C	67
1655	16817	My only constraint is Chad's soccer game at noon.	My only constraint is Chad's soccer game at noon.	804181	1471956702038	1471956702153	h	72
1655	16817	My only constraint is Chad's soccer game at noon.	My only constraint is Chad's soccer game at noon.	804182	1471956702185	1471956702323	a	65
1655	16817	My only constraint is Chad's soccer game at noon.	My only constraint is Chad's soccer game at noon.	804270	1471956702555	1471956702653	d	68
1655	16817	My only constraint is Chad's soccer game at noon.	My only constraint is Chad's soccer game at noon.	804271	1471956702862	1471956702915	l	76
1655	16817	My only constraint is Chad's soccer game at noon.	My only constraint is Chad's soccer game at noon.	804272	1471956703395	1471956703482	BKSP	8
1655	16817	My only constraint is Chad's soccer game at noon.	My only constraint is Chad's soccer game at noon.	804273	1471956704609	1471956704685	'	222
1655	16817	My only constraint is Chad's soccer game at noon.	My only constraint is Chad's soccer game at noon.	804274	1471956704897	1471956704992	s	83
1655	16817	My only constraint is Chad's soccer game at noon.	My only constraint is Chad's soccer game at noon.	804275	1471956705021	1471956705219	 	32
1655	16817	My only constraint is Chad's soccer game at noon.	My only constraint is Chad's soccer game at noon.	804321	1471956705531	1471956705683	c	67
1655	16817	My only constraint is Chad's soccer game at noon.	My only constraint is Chad's soccer game at noon.	804322	1471956706103	1471956706261	=	187
1655	16817	My only constraint is Chad's soccer game at noon.	My only constraint is Chad's soccer game at noon.	804323	1471956706376	1471956706481	s	83
1655	16817	My only constraint is Chad's soccer game at noon.	My only constraint is Chad's soccer game at noon.	804325	1471956706651	1471956706745	BKSP	8
1655	16817	My only constraint is Chad's soccer game at noon.	My only constraint is Chad's soccer game at noon.	804330	1471956706817	1471956706905	BKSP	8
1655	16817	My only constraint is Chad's soccer game at noon.	My only constraint is Chad's soccer game at noon.	804334	1471956706973	1471956707055	BKSP	8
1655	16817	My only constraint is Chad's soccer game at noon.	My only constraint is Chad's soccer game at noon.	804337	1471956707257	1471956707391	s	83
1655	16817	My only constraint is Chad's soccer game at noon.	My only constraint is Chad's soccer game at noon.	804341	1471956707641	1471956707775	o	79
1655	16817	My only constraint is Chad's soccer game at noon.	My only constraint is Chad's soccer game at noon.	804361	1471956707905	1471956707999	c	67
1655	16817	My only constraint is Chad's soccer game at noon.	My only constraint is Chad's soccer game at noon.	804362	1471956708099	1471956708167	c	67
1655	16817	My only constraint is Chad's soccer game at noon.	My only constraint is Chad's soccer game at noon.	804363	1471956708306	1471956708535	e	69
1655	16817	My only constraint is Chad's soccer game at noon.	My only constraint is Chad's soccer game at noon.	804364	1471956708453	1471956708595	r	82
1655	16817	My only constraint is Chad's soccer game at noon.	My only constraint is Chad's soccer game at noon.	804366	1471956708623	1471956708781	 	32
1655	16817	My only constraint is Chad's soccer game at noon.	My only constraint is Chad's soccer game at noon.	804389	1471956708868	1471956709071	g	71
1655	16817	My only constraint is Chad's soccer game at noon.	My only constraint is Chad's soccer game at noon.	804390	1471956709025	1471956709179	a	65
1655	16817	My only constraint is Chad's soccer game at noon.	My only constraint is Chad's soccer game at noon.	804391	1471956709291	1471956709445	m	77
1655	16817	My only constraint is Chad's soccer game at noon.	My only constraint is Chad's soccer game at noon.	804393	1471956709425	1471956709570	e	69
1655	16817	My only constraint is Chad's soccer game at noon.	My only constraint is Chad's soccer game at noon.	804395	1471956709590	1471956709719	 	32
1655	16817	My only constraint is Chad's soccer game at noon.	My only constraint is Chad's soccer game at noon.	804426	1471956709837	1471956710035	a	65
1655	16817	My only constraint is Chad's soccer game at noon.	My only constraint is Chad's soccer game at noon.	804429	1471956709991	1471956710156	t	84
1655	16817	My only constraint is Chad's soccer game at noon.	My only constraint is Chad's soccer game at noon.	804432	1471956710138	1471956710245	 	32
1655	16817	My only constraint is Chad's soccer game at noon.	My only constraint is Chad's soccer game at noon.	804434	1471956710361	1471956710449	n	78
1655	16817	My only constraint is Chad's soccer game at noon.	My only constraint is Chad's soccer game at noon.	804436	1471956710553	1471956710634	o	79
1655	16817	My only constraint is Chad's soccer game at noon.	My only constraint is Chad's soccer game at noon.	804498	1471956710686	1471956710791	o	79
1655	16817	My only constraint is Chad's soccer game at noon.	My only constraint is Chad's soccer game at noon.	804500	1471956711147	1471956711234	n	78
1655	16817	My only constraint is Chad's soccer game at noon.	My only constraint is Chad's soccer game at noon.	804506	1471956711458	1471956711575	.	190
1655	16817	My only constraint is Chad's soccer game at noon.	My only constraint is Chad's soccer game at noon.	804502	1471956711479	1471956711551	,	188
1655	16817	My only constraint is Chad's soccer game at noon.	My only constraint is Chad's soccer game at noon.	804509	1471956711997	1471956712073	BKSP	8
1655	16835	It's going to be a tough weekend.	It's going to be a tough weekend.	804659	1471956714463	1471956714676	SHIFT	16
1655	16835	It's going to be a tough weekend.	It's going to be a tough weekend.	804660	1471956714577	1471956714697	I	73
1655	16835	It's going to be a tough weekend.	It's going to be a tough weekend.	804662	1471956714936	1471956715079	t	84
1655	16835	It's going to be a tough weekend.	It's going to be a tough weekend.	804666	1471956715999	1471956716095	'	222
1655	16835	It's going to be a tough weekend.	It's going to be a tough weekend.	804670	1471956716241	1471956716361	s	83
1655	16835	It's going to be a tough weekend.	It's going to be a tough weekend.	804673	1471956716393	1471956716514	 	32
1655	16835	It's going to be a tough weekend.	It's going to be a tough weekend.	804731	1471956716773	1471956716897	g	71
1655	16835	It's going to be a tough weekend.	It's going to be a tough weekend.	804733	1471956716999	1471956717119	o	79
1655	16835	It's going to be a tough weekend.	It's going to be a tough weekend.	804735	1471956717279	1471956717311	n	78
1655	16835	It's going to be a tough weekend.	It's going to be a tough weekend.	804737	1471956718029	1471956718129	BKSP	8
1655	16835	It's going to be a tough weekend.	It's going to be a tough weekend.	804739	1471956718337	1471956718437	i	73
1655	16835	It's going to be a tough weekend.	It's going to be a tough weekend.	804742	1471956718583	1471956718643	n	78
1655	16835	It's going to be a tough weekend.	It's going to be a tough weekend.	804838	1471956719447	1471956719558	g	71
1655	16835	It's going to be a tough weekend.	It's going to be a tough weekend.	804840	1471956719638	1471956719813	 	32
1655	16835	It's going to be a tough weekend.	It's going to be a tough weekend.	804844	1471956719889	1471956720047	t	84
1655	16835	It's going to be a tough weekend.	It's going to be a tough weekend.	804847	1471956720279	1471956720403	o	79
1655	16835	It's going to be a tough weekend.	It's going to be a tough weekend.	804849	1471956720483	1471956720613	 	32
1655	16835	It's going to be a tough weekend.	It's going to be a tough weekend.	804895	1471956720649	1471956720756	b	66
1655	16835	It's going to be a tough weekend.	It's going to be a tough weekend.	804897	1471956720881	1471956720999	e	69
1655	16835	It's going to be a tough weekend.	It's going to be a tough weekend.	804901	1471956721035	1471956721167	 	32
1655	16835	It's going to be a tough weekend.	It's going to be a tough weekend.	804904	1471956721187	1471956721341	a	65
1655	16835	It's going to be a tough weekend.	It's going to be a tough weekend.	804907	1471956721501	1471956721653	 	32
1655	16835	It's going to be a tough weekend.	It's going to be a tough weekend.	804963	1471956721685	1471956721835	t	84
1655	16835	It's going to be a tough weekend.	It's going to be a tough weekend.	804966	1471956722319	1471956722559	o	79
1655	16835	It's going to be a tough weekend.	It's going to be a tough weekend.	804970	1471956722527	1471956722633	u	85
1655	16835	It's going to be a tough weekend.	It's going to be a tough weekend.	804973	1471956723075	1471956723231	g	71
1655	16835	It's going to be a tough weekend.	It's going to be a tough weekend.	804976	1471956723271	1471956723401	h	72
1655	16835	It's going to be a tough weekend.	It's going to be a tough weekend.	805026	1471956723895	1471956724047	 	32
1655	16835	It's going to be a tough weekend.	It's going to be a tough weekend.	805029	1471956724265	1471956724415	w	87
1655	16835	It's going to be a tough weekend.	It's going to be a tough weekend.	805034	1471956724541	1471956724653	e	69
1655	16835	It's going to be a tough weekend.	It's going to be a tough weekend.	805039	1471956724713	1471956724823	e	69
1655	16835	It's going to be a tough weekend.	It's going to be a tough weekend.	805047	1471956724879	1471956725020	k	75
1655	16835	It's going to be a tough weekend.	It's going to be a tough weekend.	805095	1471956725207	1471956725369	e	69
1655	16835	It's going to be a tough weekend.	It's going to be a tough weekend.	805098	1471956725389	1471956725477	n	78
1655	16835	It's going to be a tough weekend.	It's going to be a tough weekend.	805100	1471956725877	1471956725993	d	68
1655	16835	It's going to be a tough weekend.	It's going to be a tough weekend.	805101	1471956726129	1471956726235	.	190
1655	16846	Go for the dollars.	Go for the dollars.	805296	1471956729317	1471956729583	SHIFT	16
1655	16846	Go for the dollars.	Go for the dollars.	805300	1471956729618	1471956729753	d	68
1655	16846	Go for the dollars.	Go for the dollars.	805301	1471956730261	1471956730375	BKSP	8
1655	16846	Go for the dollars.	Go for the dollars.	805305	1471956730563	1471956730765	SHIFT	16
1655	16846	Go for the dollars.	Go for the dollars.	805309	1471956730689	1471956730804	G	71
1655	16846	Go for the dollars.	Go for the dollars.	805312	1471956730997	1471956731172	o	79
1655	16846	Go for the dollars.	Go for the dollars.	805316	1471956731371	1471956731521	 	32
1655	16846	Go for the dollars.	Go for the dollars.	805321	1471956731703	1471956731818	f	70
1655	16846	Go for the dollars.	Go for the dollars.	805353	1471956731847	1471956731993	o	79
1655	16846	Go for the dollars.	Go for the dollars.	805359	1471956732029	1471956732179	r	82
1655	16846	Go for the dollars.	Go for the dollars.	805366	1471956732198	1471956732339	 	32
1655	16846	Go for the dollars.	Go for the dollars.	805372	1471956732428	1471956732581	t	84
1655	16846	Go for the dollars.	Go for the dollars.	805405	1471956732561	1471956732678	h	72
1655	16846	Go for the dollars.	Go for the dollars.	805408	1471956732723	1471956732867	e	69
1655	16846	Go for the dollars.	Go for the dollars.	805411	1471956732847	1471956732969	 	32
1655	16846	Go for the dollars.	Go for the dollars.	805412	1471956733229	1471956733371	d	68
1655	16846	Go for the dollars.	Go for the dollars.	805413	1471956733399	1471956733503	o	79
1655	16846	Go for the dollars.	Go for the dollars.	805414	1471956733653	1471956733731	l	76
1655	16846	Go for the dollars.	Go for the dollars.	805466	1471956733807	1471956733955	l	76
1655	16846	Go for the dollars.	Go for the dollars.	805467	1471956734107	1471956734272	a	65
1655	16846	Go for the dollars.	Go for the dollars.	805469	1471956734291	1471956734436	r	82
1655	16846	Go for the dollars.	Go for the dollars.	805471	1471956734561	1471956734711	s	83
1655	16846	Go for the dollars.	Go for the dollars.	805473	1471956734731	1471956734881	.	190
1655	16856	The reserve wideout is day-to-day.	The reserve wideout is day-to-day.	805577	1471956736933	1471956737135	SHIFT	16
1655	16856	The reserve wideout is day-to-day.	The reserve wideout is day-to-day.	805581	1471956737059	1471956737225	T	84
1655	16856	The reserve wideout is day-to-day.	The reserve wideout is day-to-day.	805585	1471956737297	1471956737416	h	72
1655	16856	The reserve wideout is day-to-day.	The reserve wideout is day-to-day.	805589	1471956737389	1471956737535	e	69
1655	16856	The reserve wideout is day-to-day.	The reserve wideout is day-to-day.	805592	1471956737567	1471956737711	 	32
1655	16856	The reserve wideout is day-to-day.	The reserve wideout is day-to-day.	805594	1471956737777	1471956737968	r	82
1655	16856	The reserve wideout is day-to-day.	The reserve wideout is day-to-day.	805632	1471956737929	1471956738050	e	69
1655	16856	The reserve wideout is day-to-day.	The reserve wideout is day-to-day.	805633	1471956738191	1471956738357	s	83
1655	16856	The reserve wideout is day-to-day.	The reserve wideout is day-to-day.	805637	1471956738316	1471956738628	e	69
1655	16856	The reserve wideout is day-to-day.	The reserve wideout is day-to-day.	805635	1471956738461	1471956738608	r	82
1655	16856	The reserve wideout is day-to-day.	The reserve wideout is day-to-day.	805643	1471956738815	1471956738921	v	86
1655	16856	The reserve wideout is day-to-day.	The reserve wideout is day-to-day.	805649	1471956738993	1471956739135	e	69
1655	16856	The reserve wideout is day-to-day.	The reserve wideout is day-to-day.	805692	1471956739163	1471956739303	 	32
1655	16856	The reserve wideout is day-to-day.	The reserve wideout is day-to-day.	805694	1471956739360	1471956739501	w	87
1655	16856	The reserve wideout is day-to-day.	The reserve wideout is day-to-day.	805697	1471956739561	1471956739711	i	73
1655	16856	The reserve wideout is day-to-day.	The reserve wideout is day-to-day.	805701	1471956739747	1471956739867	d	68
1655	16856	The reserve wideout is day-to-day.	The reserve wideout is day-to-day.	805704	1471956739969	1471956740085	e	69
1655	16856	The reserve wideout is day-to-day.	The reserve wideout is day-to-day.	805754	1471956740311	1471956740569	o	79
1655	16856	The reserve wideout is day-to-day.	The reserve wideout is day-to-day.	805757	1471956740469	1471956740617	u	85
1655	16856	The reserve wideout is day-to-day.	The reserve wideout is day-to-day.	805759	1471956740597	1471956740739	t	84
1655	16856	The reserve wideout is day-to-day.	The reserve wideout is day-to-day.	805763	1471956740756	1471956740871	 	32
1655	16856	The reserve wideout is day-to-day.	The reserve wideout is day-to-day.	805766	1471956740947	1471956741105	i	73
1655	16856	The reserve wideout is day-to-day.	The reserve wideout is day-to-day.	805802	1471956741133	1471956741249	s	83
1655	16856	The reserve wideout is day-to-day.	The reserve wideout is day-to-day.	805806	1471956741229	1471956741367	 	32
1655	16856	The reserve wideout is day-to-day.	The reserve wideout is day-to-day.	805811	1471956741435	1471956741593	d	68
1655	16856	The reserve wideout is day-to-day.	The reserve wideout is day-to-day.	805814	1471956741621	1471956741736	a	65
1655	16856	The reserve wideout is day-to-day.	The reserve wideout is day-to-day.	805817	1471956741933	1471956742041	y	89
1655	16856	The reserve wideout is day-to-day.	The reserve wideout is day-to-day.	805999	1471956742723	1471956742810	=	187
1655	16856	The reserve wideout is day-to-day.	The reserve wideout is day-to-day.	806002	1471956743203	1471956743301	t	84
1655	16856	The reserve wideout is day-to-day.	The reserve wideout is day-to-day.	806005	1471956744222	1471956744322	o	79
1655	16856	The reserve wideout is day-to-day.	The reserve wideout is day-to-day.	806008	1471956745143	1471956745231	BKSP	8
1655	16856	The reserve wideout is day-to-day.	The reserve wideout is day-to-day.	806012	1471956745313	1471956745413	BKSP	8
1655	16856	The reserve wideout is day-to-day.	The reserve wideout is day-to-day.	806015	1471956745465	1471956745579	BKSP	8
1655	16856	The reserve wideout is day-to-day.	The reserve wideout is day-to-day.	806020	1471956747287	1471956747373	-	189
1655	16856	The reserve wideout is day-to-day.	The reserve wideout is day-to-day.	806023	1471956747717	1471956747815	t	84
1655	16856	The reserve wideout is day-to-day.	The reserve wideout is day-to-day.	806088	1471956748057	1471956748167	o	79
1655	16856	The reserve wideout is day-to-day.	The reserve wideout is day-to-day.	806092	1471956748939	1471956749023	-	189
1655	16856	The reserve wideout is day-to-day.	The reserve wideout is day-to-day.	806096	1471956749483	1471956749625	d	68
1655	16856	The reserve wideout is day-to-day.	The reserve wideout is day-to-day.	806099	1471956749717	1471956749887	a	65
1655	16856	The reserve wideout is day-to-day.	The reserve wideout is day-to-day.	806102	1471956749946	1471956750042	y	89
1655	16856	The reserve wideout is day-to-day.	The reserve wideout is day-to-day.	806124	1471956750270	1471956750417	.	190
1655	16869	Did you talk to Ava this morning?	Did you talk to Ava this morning?	806307	1471956753340	1471956753582	SHIFT	16
1655	16869	Did you talk to Ava this morning?	Did you talk to Ava this morning?	806309	1471956753507	1471956753655	D	68
1655	16869	Did you talk to Ava this morning?	Did you talk to Ava this morning?	806312	1471956753795	1471956753957	i	73
1655	16869	Did you talk to Ava this morning?	Did you talk to Ava this morning?	806314	1471956753976	1471956754089	d	68
1655	16869	Did you talk to Ava this morning?	Did you talk to Ava this morning?	806316	1471956754115	1471956754246	 	32
1655	16869	Did you talk to Ava this morning?	Did you talk to Ava this morning?	806318	1471956754460	1471956754599	y	89
1655	16869	Did you talk to Ava this morning?	Did you talk to Ava this morning?	806357	1471956754699	1471956754921	o	79
1655	16869	Did you talk to Ava this morning?	Did you talk to Ava this morning?	806359	1471956754861	1471956754976	u	85
1655	16869	Did you talk to Ava this morning?	Did you talk to Ava this morning?	806361	1471956755047	1471956755203	 	32
1655	16869	Did you talk to Ava this morning?	Did you talk to Ava this morning?	806364	1471956755519	1471956755676	t	84
1655	16869	Did you talk to Ava this morning?	Did you talk to Ava this morning?	806398	1471956755617	1471956755805	a	65
1655	16869	Did you talk to Ava this morning?	Did you talk to Ava this morning?	806401	1471956755829	1471956755971	l	76
1655	16869	Did you talk to Ava this morning?	Did you talk to Ava this morning?	806406	1471956756023	1471956756161	k	75
1655	16869	Did you talk to Ava this morning?	Did you talk to Ava this morning?	806410	1471956756213	1471956756349	 	32
1655	16869	Did you talk to Ava this morning?	Did you talk to Ava this morning?	806413	1471956756499	1471956756624	t	84
1655	16869	Did you talk to Ava this morning?	Did you talk to Ava this morning?	806415	1471956756645	1471956756757	o	79
1655	16869	Did you talk to Ava this morning?	Did you talk to Ava this morning?	806457	1471956756789	1471956756923	 	32
1655	16869	Did you talk to Ava this morning?	Did you talk to Ava this morning?	806461	1471956757035	1471956757281	SHIFT	16
1655	16869	Did you talk to Ava this morning?	Did you talk to Ava this morning?	806459	1471956757103	1471956757261	A	65
1655	16869	Did you talk to Ava this morning?	Did you talk to Ava this morning?	806463	1471956757385	1471956757445	v	86
1655	16869	Did you talk to Ava this morning?	Did you talk to Ava this morning?	806464	1471956757547	1471956757703	a	65
1655	16869	Did you talk to Ava this morning?	Did you talk to Ava this morning?	806465	1471956757788	1471956757965	 	32
1655	16869	Did you talk to Ava this morning?	Did you talk to Ava this morning?	806509	1471956757996	1471956758119	t	84
1655	16869	Did you talk to Ava this morning?	Did you talk to Ava this morning?	806513	1471956758138	1471956758253	h	72
1655	16869	Did you talk to Ava this morning?	Did you talk to Ava this morning?	806516	1471956758301	1471956758437	i	73
1655	16869	Did you talk to Ava this morning?	Did you talk to Ava this morning?	806520	1471956758499	1471956758647	s	83
1655	16869	Did you talk to Ava this morning?	Did you talk to Ava this morning?	806524	1471956758670	1471956758793	 	32
1655	16869	Did you talk to Ava this morning?	Did you talk to Ava this morning?	806550	1471956758973	1471956759077	m	77
1655	16869	Did you talk to Ava this morning?	Did you talk to Ava this morning?	806552	1471956759108	1471956759295	o	79
1655	16869	Did you talk to Ava this morning?	Did you talk to Ava this morning?	806556	1471956759274	1471956759425	r	82
1655	16869	Did you talk to Ava this morning?	Did you talk to Ava this morning?	806559	1471956759465	1471956759573	n	78
1655	16869	Did you talk to Ava this morning?	Did you talk to Ava this morning?	806561	1471956759644	1471956759767	i	73
1655	16869	Did you talk to Ava this morning?	Did you talk to Ava this morning?	806585	1471956759842	1471956759993	n	78
1655	16869	Did you talk to Ava this morning?	Did you talk to Ava this morning?	806588	1471956759972	1471956760097	g	71
1655	16869	Did you talk to Ava this morning?	Did you talk to Ava this morning?	806591	1471956760323	1471956760668	SHIFT	16
1655	16869	Did you talk to Ava this morning?	Did you talk to Ava this morning?	806594	1471956760550	1471956760732	?	191
1655	16877	They are more efficiently pooled.	They are more efficiently pooled.	807672	1471956784779	1471956785024	SHIFT	16
1655	16877	They are more efficiently pooled.	They are more efficiently pooled.	807674	1471956784949	1471956785101	T	84
1655	16877	They are more efficiently pooled.	They are more efficiently pooled.	807677	1471956785182	1471956785330	h	72
1655	16877	They are more efficiently pooled.	They are more efficiently pooled.	807680	1471956785306	1471956785428	e	69
1655	16877	They are more efficiently pooled.	They are more efficiently pooled.	807686	1471956785505	1471956785593	y	89
1655	16877	They are more efficiently pooled.	They are more efficiently pooled.	807691	1471956785674	1471956785831	 	32
1655	16877	They are more efficiently pooled.	They are more efficiently pooled.	807717	1471956785878	1471956786017	a	65
1655	16877	They are more efficiently pooled.	They are more efficiently pooled.	807719	1471956786093	1471956786279	r	82
1655	16877	They are more efficiently pooled.	They are more efficiently pooled.	807724	1471956786231	1471956786391	e	69
1655	16877	They are more efficiently pooled.	They are more efficiently pooled.	807729	1471956786437	1471956786569	 	32
1655	16877	They are more efficiently pooled.	They are more efficiently pooled.	807732	1471956786665	1471956786791	m	77
1655	16877	They are more efficiently pooled.	They are more efficiently pooled.	807775	1471956786830	1471956786993	o	79
1655	16877	They are more efficiently pooled.	They are more efficiently pooled.	807776	1471956786919	1471956787145	r	82
1655	16877	They are more efficiently pooled.	They are more efficiently pooled.	807777	1471956787125	1471956787351	e	69
1655	16877	They are more efficiently pooled.	They are more efficiently pooled.	807778	1471956787331	1471956787487	 	32
1655	16877	They are more efficiently pooled.	They are more efficiently pooled.	807779	1471956787709	1471956787839	e	69
1655	16877	They are more efficiently pooled.	They are more efficiently pooled.	807841	1471956787972	1471956788153	f	70
1655	16877	They are more efficiently pooled.	They are more efficiently pooled.	807843	1471956788255	1471956788362	f	70
1655	16877	They are more efficiently pooled.	They are more efficiently pooled.	807845	1471956788965	1471956789089	i	73
1655	16877	They are more efficiently pooled.	They are more efficiently pooled.	807848	1471956789167	1471956789286	c	67
1655	16877	They are more efficiently pooled.	They are more efficiently pooled.	807851	1471956789339	1471956789485	i	73
1655	16877	They are more efficiently pooled.	They are more efficiently pooled.	807928	1471956790557	1471956790673	e	69
1655	16877	They are more efficiently pooled.	They are more efficiently pooled.	807930	1471956790767	1471956790914	n	78
1655	16877	They are more efficiently pooled.	They are more efficiently pooled.	807934	1471956790895	1471956791033	t	84
1655	16877	They are more efficiently pooled.	They are more efficiently pooled.	807938	1471956791245	1471956791349	l	76
1655	16877	They are more efficiently pooled.	They are more efficiently pooled.	807941	1471956791413	1471956791514	y	89
1655	16877	They are more efficiently pooled.	They are more efficiently pooled.	807997	1471956791586	1471956791683	 	32
1655	16877	They are more efficiently pooled.	They are more efficiently pooled.	808002	1471956791827	1471956791935	p	80
1655	16877	They are more efficiently pooled.	They are more efficiently pooled.	808006	1471956792061	1471956792159	o	79
1655	16877	They are more efficiently pooled.	They are more efficiently pooled.	808010	1471956792223	1471956792311	o	79
1655	16877	They are more efficiently pooled.	They are more efficiently pooled.	808012	1471956792433	1471956792567	l	76
1655	16877	They are more efficiently pooled.	They are more efficiently pooled.	808030	1471956792596	1471956792695	e	69
1655	16877	They are more efficiently pooled.	They are more efficiently pooled.	808035	1471956792787	1471956792949	d	68
1655	16877	They are more efficiently pooled.	They are more efficiently pooled.	808039	1471956792929	1471956793077	.	190
1655	16912	I'm glad you are involved!	I'm glad you are involved!	808314	1471956795383	1471956795573	SHIFT	16
1655	16912	I'm glad you are involved!	I'm glad you are involved!	808321	1471956795471	1471956795593	I	73
1655	16912	I'm glad you are involved!	I'm glad you are involved!	808326	1471956795843	1471956795975	;	186
1655	16912	I'm glad you are involved!	I'm glad you are involved!	808330	1471956796221	1471956796301	m	77
1655	16912	I'm glad you are involved!	I'm glad you are involved!	808332	1471956796623	1471956796723	BKSP	8
1655	16912	I'm glad you are involved!	I'm glad you are involved!	808333	1471956796835	1471956796910	BKSP	8
1655	16912	I'm glad you are involved!	I'm glad you are involved!	808334	1471956797487	1471956797569	'	222
1655	16912	I'm glad you are involved!	I'm glad you are involved!	808335	1471956797780	1471956797867	m	77
1655	16912	I'm glad you are involved!	I'm glad you are involved!	808387	1471956797918	1471956798067	 	32
1655	16912	I'm glad you are involved!	I'm glad you are involved!	808389	1471956798356	1471956798484	g	71
1655	16912	I'm glad you are involved!	I'm glad you are involved!	808393	1471956798553	1471956798725	l	76
1655	16912	I'm glad you are involved!	I'm glad you are involved!	808398	1471956798673	1471956798835	a	65
1655	16912	I'm glad you are involved!	I'm glad you are involved!	808403	1471956799033	1471956799171	d	68
1655	16912	I'm glad you are involved!	I'm glad you are involved!	808428	1471956799198	1471956799342	 	32
1655	16912	I'm glad you are involved!	I'm glad you are involved!	808431	1471956799477	1471956799603	y	89
1655	16912	I'm glad you are involved!	I'm glad you are involved!	808436	1471956799643	1471956799873	o	79
1655	16912	I'm glad you are involved!	I'm glad you are involved!	808439	1471956799789	1471956799909	u	85
1655	16912	I'm glad you are involved!	I'm glad you are involved!	808444	1471956799993	1471956800186	 	32
1655	16912	I'm glad you are involved!	I'm glad you are involved!	808485	1471956800325	1471956800443	a	65
1655	16912	I'm glad you are involved!	I'm glad you are involved!	808486	1471956800479	1471956800652	r	82
1655	16912	I'm glad you are involved!	I'm glad you are involved!	808487	1471956800673	1471956800813	e	69
1655	16912	I'm glad you are involved!	I'm glad you are involved!	808488	1471956800761	1471956800889	 	32
1655	16912	I'm glad you are involved!	I'm glad you are involved!	808489	1471956800931	1471956801043	i	73
1655	16912	I'm glad you are involved!	I'm glad you are involved!	808546	1471956801118	1471956801261	n	78
1655	16912	I'm glad you are involved!	I'm glad you are involved!	808549	1471956801333	1471956801475	v	86
1655	16912	I'm glad you are involved!	I'm glad you are involved!	808551	1471956801507	1471956801621	o	79
1655	16912	I'm glad you are involved!	I'm glad you are involved!	808556	1471956801716	1471956801825	l	76
1655	16912	I'm glad you are involved!	I'm glad you are involved!	808561	1471956802153	1471956802229	v	86
1655	16912	I'm glad you are involved!	I'm glad you are involved!	808632	1471956802329	1471956802419	e	69
1655	16912	I'm glad you are involved!	I'm glad you are involved!	808635	1471956802529	1471956802683	d	68
1655	16912	I'm glad you are involved!	I'm glad you are involved!	808638	1471956803169	1471956803887	SHIFT	16
1655	16912	I'm glad you are involved!	I'm glad you are involved!	808641	1471956803818	1471956803923	!	49
1655	16927	But I would suspect that when Ricky can play, he'll play again.	But I would suspect that when Ricky can play, he'll play again.	808790	1471956806647	1471956806865	SHIFT	16
1655	16927	But I would suspect that when Ricky can play, he'll play again.	But I would suspect that when Ricky can play, he'll play again.	808797	1471956806795	1471956806953	B	66
1655	16927	But I would suspect that when Ricky can play, he'll play again.	But I would suspect that when Ricky can play, he'll play again.	808802	1471956806973	1471956807123	u	85
1655	16927	But I would suspect that when Ricky can play, he'll play again.	But I would suspect that when Ricky can play, he'll play again.	808807	1471956807167	1471956807314	t	84
1655	16927	But I would suspect that when Ricky can play, he'll play again.	But I would suspect that when Ricky can play, he'll play again.	808812	1471956807351	1471956807501	 	32
1655	16927	But I would suspect that when Ricky can play, he'll play again.	But I would suspect that when Ricky can play, he'll play again.	808815	1471956807585	1471956807758	SHIFT	16
1655	16927	But I would suspect that when Ricky can play, he'll play again.	But I would suspect that when Ricky can play, he'll play again.	808845	1471956807655	1471956807787	I	73
1655	16927	But I would suspect that when Ricky can play, he'll play again.	But I would suspect that when Ricky can play, he'll play again.	808847	1471956807814	1471956807968	 	32
1655	16927	But I would suspect that when Ricky can play, he'll play again.	But I would suspect that when Ricky can play, he'll play again.	808849	1471956808025	1471956808178	w	87
1655	16927	But I would suspect that when Ricky can play, he'll play again.	But I would suspect that when Ricky can play, he'll play again.	808850	1471956808147	1471956808347	o	79
1655	16927	But I would suspect that when Ricky can play, he'll play again.	But I would suspect that when Ricky can play, he'll play again.	808852	1471956808282	1471956808403	u	85
1655	16927	But I would suspect that when Ricky can play, he'll play again.	But I would suspect that when Ricky can play, he'll play again.	808856	1471956808469	1471956808663	l	76
1655	16927	But I would suspect that when Ricky can play, he'll play again.	But I would suspect that when Ricky can play, he'll play again.	808895	1471956808617	1471956808758	d	68
1655	16927	But I would suspect that when Ricky can play, he'll play again.	But I would suspect that when Ricky can play, he'll play again.	808899	1471956808738	1471956808907	 	32
1655	16927	But I would suspect that when Ricky can play, he'll play again.	But I would suspect that when Ricky can play, he'll play again.	808902	1471956809005	1471956809152	s	83
1655	16927	But I would suspect that when Ricky can play, he'll play again.	But I would suspect that when Ricky can play, he'll play again.	808908	1471956809121	1471956809247	u	85
1655	16927	But I would suspect that when Ricky can play, he'll play again.	But I would suspect that when Ricky can play, he'll play again.	808912	1471956809287	1471956809447	s	83
1655	16927	But I would suspect that when Ricky can play, he'll play again.	But I would suspect that when Ricky can play, he'll play again.	808917	1471956809637	1471956809805	p	80
1655	16927	But I would suspect that when Ricky can play, he'll play again.	But I would suspect that when Ricky can play, he'll play again.	808976	1471956809785	1471956809901	e	69
1655	16927	But I would suspect that when Ricky can play, he'll play again.	But I would suspect that when Ricky can play, he'll play again.	808977	1471956810041	1471956810161	c	67
1655	16927	But I would suspect that when Ricky can play, he'll play again.	But I would suspect that when Ricky can play, he'll play again.	808978	1471956810259	1471956810391	t	84
1655	16927	But I would suspect that when Ricky can play, he'll play again.	But I would suspect that when Ricky can play, he'll play again.	808980	1471956810426	1471956810572	 	32
1655	16927	But I would suspect that when Ricky can play, he'll play again.	But I would suspect that when Ricky can play, he'll play again.	808983	1471956810781	1471956810901	t	84
1655	16927	But I would suspect that when Ricky can play, he'll play again.	But I would suspect that when Ricky can play, he'll play again.	808988	1471956810946	1471956811106	h	72
1655	16927	But I would suspect that when Ricky can play, he'll play again.	But I would suspect that when Ricky can play, he'll play again.	809035	1471956811136	1471956811281	a	65
1655	16927	But I would suspect that when Ricky can play, he'll play again.	But I would suspect that when Ricky can play, he'll play again.	809037	1471956811257	1471956811385	t	84
1655	16927	But I would suspect that when Ricky can play, he'll play again.	But I would suspect that when Ricky can play, he'll play again.	809040	1471956811421	1471956811575	 	32
1655	16927	But I would suspect that when Ricky can play, he'll play again.	But I would suspect that when Ricky can play, he'll play again.	809042	1471956811659	1471956811765	w	87
1655	16927	But I would suspect that when Ricky can play, he'll play again.	But I would suspect that when Ricky can play, he'll play again.	809047	1471956812055	1471956812163	h	72
1655	16927	But I would suspect that when Ricky can play, he'll play again.	But I would suspect that when Ricky can play, he'll play again.	809113	1471956812431	1471956812566	e	69
1655	16927	But I would suspect that when Ricky can play, he'll play again.	But I would suspect that when Ricky can play, he'll play again.	809116	1471956812617	1471956812725	n	78
1655	16927	But I would suspect that when Ricky can play, he'll play again.	But I would suspect that when Ricky can play, he'll play again.	809120	1471956812849	1471956812979	 	32
1655	16927	But I would suspect that when Ricky can play, he'll play again.	But I would suspect that when Ricky can play, he'll play again.	809123	1471956813161	1471956813347	SHIFT	16
1655	16927	But I would suspect that when Ricky can play, he'll play again.	But I would suspect that when Ricky can play, he'll play again.	809126	1471956813295	1471956813455	R	82
1655	16927	But I would suspect that when Ricky can play, he'll play again.	But I would suspect that when Ricky can play, he'll play again.	809130	1471956813544	1471956813677	i	73
1655	16927	But I would suspect that when Ricky can play, he'll play again.	But I would suspect that when Ricky can play, he'll play again.	809190	1471956813959	1471956814061	c	67
1655	16927	But I would suspect that when Ricky can play, he'll play again.	But I would suspect that when Ricky can play, he'll play again.	809195	1471956814129	1471956814241	k	75
1655	16927	But I would suspect that when Ricky can play, he'll play again.	But I would suspect that when Ricky can play, he'll play again.	809199	1471956814365	1471956814469	y	89
1655	16927	But I would suspect that when Ricky can play, he'll play again.	But I would suspect that when Ricky can play, he'll play again.	809202	1471956814545	1471956814662	 	32
1655	16927	But I would suspect that when Ricky can play, he'll play again.	But I would suspect that when Ricky can play, he'll play again.	809204	1471956814762	1471956814932	c	67
1655	16927	But I would suspect that when Ricky can play, he'll play again.	But I would suspect that when Ricky can play, he'll play again.	809266	1471956814912	1471956815060	a	65
1655	16927	But I would suspect that when Ricky can play, he'll play again.	But I would suspect that when Ricky can play, he'll play again.	809267	1471956815020	1471956815131	n	78
1655	16927	But I would suspect that when Ricky can play, he'll play again.	But I would suspect that when Ricky can play, he'll play again.	809268	1471956815175	1471956815330	 	32
1655	16927	But I would suspect that when Ricky can play, he'll play again.	But I would suspect that when Ricky can play, he'll play again.	809269	1471956815425	1471956815549	p	80
1655	16927	But I would suspect that when Ricky can play, he'll play again.	But I would suspect that when Ricky can play, he'll play again.	809270	1471956815655	1471956815775	l	76
1655	16927	But I would suspect that when Ricky can play, he'll play again.	But I would suspect that when Ricky can play, he'll play again.	809271	1471956816174	1471956816271	a	65
1655	16927	But I would suspect that when Ricky can play, he'll play again.	But I would suspect that when Ricky can play, he'll play again.	809320	1471956816310	1471956816401	y	89
1655	16927	But I would suspect that when Ricky can play, he'll play again.	But I would suspect that when Ricky can play, he'll play again.	809325	1471956816641	1471956816775	,	188
1655	16927	But I would suspect that when Ricky can play, he'll play again.	But I would suspect that when Ricky can play, he'll play again.	809328	1471956816843	1471956816974	 	32
1655	16927	But I would suspect that when Ricky can play, he'll play again.	But I would suspect that when Ricky can play, he'll play again.	809337	1471956817111	1471956817381	SHIFT	16
1655	16927	But I would suspect that when Ricky can play, he'll play again.	But I would suspect that when Ricky can play, he'll play again.	809332	1471956817241	1471956817356	H	72
1655	16927	But I would suspect that when Ricky can play, he'll play again.	But I would suspect that when Ricky can play, he'll play again.	809341	1471956817487	1471956817642	e	69
1655	16927	But I would suspect that when Ricky can play, he'll play again.	But I would suspect that when Ricky can play, he'll play again.	809462	1471956818012	1471956818106	BKSP	8
1655	16927	But I would suspect that when Ricky can play, he'll play again.	But I would suspect that when Ricky can play, he'll play again.	809466	1471956818182	1471956818271	BKSP	8
1655	16927	But I would suspect that when Ricky can play, he'll play again.	But I would suspect that when Ricky can play, he'll play again.	809468	1471956818873	1471956818943	h	72
1655	16927	But I would suspect that when Ricky can play, he'll play again.	But I would suspect that when Ricky can play, he'll play again.	809470	1471956819043	1471956819168	e	69
1655	16927	But I would suspect that when Ricky can play, he'll play again.	But I would suspect that when Ricky can play, he'll play again.	809474	1471956819394	1471956819517	'	222
1655	16927	But I would suspect that when Ricky can play, he'll play again.	But I would suspect that when Ricky can play, he'll play again.	809478	1471956819885	1471956819971	l	76
1655	16927	But I would suspect that when Ricky can play, he'll play again.	But I would suspect that when Ricky can play, he'll play again.	809482	1471956820063	1471956820146	l	76
1655	16927	But I would suspect that when Ricky can play, he'll play again.	But I would suspect that when Ricky can play, he'll play again.	809535	1471956820210	1471956820337	 	32
1655	16927	But I would suspect that when Ricky can play, he'll play again.	But I would suspect that when Ricky can play, he'll play again.	809539	1471956820405	1471956820531	p	80
1655	16927	But I would suspect that when Ricky can play, he'll play again.	But I would suspect that when Ricky can play, he'll play again.	809542	1471956820635	1471956820865	l	76
1655	16927	But I would suspect that when Ricky can play, he'll play again.	But I would suspect that when Ricky can play, he'll play again.	809546	1471956820845	1471956820945	a	65
1655	16927	But I would suspect that when Ricky can play, he'll play again.	But I would suspect that when Ricky can play, he'll play again.	809549	1471956821005	1471956821106	y	89
1655	16927	But I would suspect that when Ricky can play, he'll play again.	But I would suspect that when Ricky can play, he'll play again.	809569	1471956821155	1471956821286	 	32
1655	16927	But I would suspect that when Ricky can play, he'll play again.	But I would suspect that when Ricky can play, he'll play again.	809572	1471956821389	1471956821529	a	65
1655	16927	But I would suspect that when Ricky can play, he'll play again.	But I would suspect that when Ricky can play, he'll play again.	809577	1471956821595	1471956821766	g	71
1655	16927	But I would suspect that when Ricky can play, he'll play again.	But I would suspect that when Ricky can play, he'll play again.	809579	1471956821747	1471956821913	a	65
1655	16927	But I would suspect that when Ricky can play, he'll play again.	But I would suspect that when Ricky can play, he'll play again.	809582	1471956822033	1471956822120	i	73
1655	16927	But I would suspect that when Ricky can play, he'll play again.	But I would suspect that when Ricky can play, he'll play again.	809624	1471956822233	1471956822340	n	78
1655	16927	But I would suspect that when Ricky can play, he'll play again.	But I would suspect that when Ricky can play, he'll play again.	809629	1471956822579	1471956822721	.	190
1655	16927	But I would suspect that when Ricky can play, he'll play again.	But I would suspect that when Ricky can play, he'll play again.	809627	1471956822601	1471956822653	,	188
1655	16927	But I would suspect that when Ricky can play, he'll play again.	But I would suspect that when Ricky can play, he'll play again.	809631	1471956823089	1471956823197	BKSP	8
1655	16942	I will call you Monday morning to discuss.	I will call you Monday morning to discuss.	809769	1471956825693	1471956825885	SHIFT	16
1655	16942	I will call you Monday morning to discuss.	I will call you Monday morning to discuss.	809767	1471956825756	1471956825857	I	73
1655	16942	I will call you Monday morning to discuss.	I will call you Monday morning to discuss.	809771	1471956825963	1471956826075	 	32
1655	16942	I will call you Monday morning to discuss.	I will call you Monday morning to discuss.	809772	1471956826115	1471956826263	w	87
1655	16942	I will call you Monday morning to discuss.	I will call you Monday morning to discuss.	809773	1471956826449	1471956826545	i	73
1655	16942	I will call you Monday morning to discuss.	I will call you Monday morning to discuss.	809775	1471956826685	1471956826777	l	76
1655	16942	I will call you Monday morning to discuss.	I will call you Monday morning to discuss.	809809	1471956826852	1471956826971	l	76
1655	16942	I will call you Monday morning to discuss.	I will call you Monday morning to discuss.	809812	1471956827018	1471956827175	 	32
1655	16942	I will call you Monday morning to discuss.	I will call you Monday morning to discuss.	809815	1471956827349	1471956827510	c	67
1655	16942	I will call you Monday morning to discuss.	I will call you Monday morning to discuss.	809818	1471956827485	1471956827619	a	65
1655	16942	I will call you Monday morning to discuss.	I will call you Monday morning to discuss.	809823	1471956827699	1471956827766	l	76
1655	16942	I will call you Monday morning to discuss.	I will call you Monday morning to discuss.	809839	1471956827856	1471956827949	l	76
1655	16942	I will call you Monday morning to discuss.	I will call you Monday morning to discuss.	809841	1471956827968	1471956828143	 	32
1655	16942	I will call you Monday morning to discuss.	I will call you Monday morning to discuss.	809844	1471956828257	1471956828348	y	89
1655	16942	I will call you Monday morning to discuss.	I will call you Monday morning to discuss.	809852	1471956828427	1471956828621	o	79
1655	16942	I will call you Monday morning to discuss.	I will call you Monday morning to discuss.	809898	1471956828547	1471956828700	u	85
1655	16942	I will call you Monday morning to discuss.	I will call you Monday morning to discuss.	809904	1471956828721	1471956828821	 	32
1655	16942	I will call you Monday morning to discuss.	I will call you Monday morning to discuss.	809919	1471956828971	1471956829160	SHIFT	16
1655	16942	I will call you Monday morning to discuss.	I will call you Monday morning to discuss.	809913	1471956829062	1471956829137	M	77
1655	16942	I will call you Monday morning to discuss.	I will call you Monday morning to discuss.	809923	1471956829188	1471956829319	o	79
1655	16942	I will call you Monday morning to discuss.	I will call you Monday morning to discuss.	809929	1471956829379	1471956829495	n	78
1655	16942	I will call you Monday morning to discuss.	I will call you Monday morning to discuss.	809934	1471956829522	1471956829713	d	68
1655	16942	I will call you Monday morning to discuss.	I will call you Monday morning to discuss.	809972	1471956829693	1471956829899	a	65
1655	16942	I will call you Monday morning to discuss.	I will call you Monday morning to discuss.	809980	1471956829825	1471956829935	y	89
1655	16942	I will call you Monday morning to discuss.	I will call you Monday morning to discuss.	809987	1471956829995	1471956830091	 	32
1655	16942	I will call you Monday morning to discuss.	I will call you Monday morning to discuss.	809993	1471956830239	1471956830361	m	77
1655	16942	I will call you Monday morning to discuss.	I will call you Monday morning to discuss.	809998	1471956830397	1471956830561	o	79
1655	16942	I will call you Monday morning to discuss.	I will call you Monday morning to discuss.	810004	1471956830799	1471956830936	r	82
1655	16942	I will call you Monday morning to discuss.	I will call you Monday morning to discuss.	810033	1471956830996	1471956831078	n	78
1655	16942	I will call you Monday morning to discuss.	I will call you Monday morning to discuss.	810035	1471956831159	1471956831266	i	73
1655	16942	I will call you Monday morning to discuss.	I will call you Monday morning to discuss.	810037	1471956831343	1471956831460	n	78
1655	16942	I will call you Monday morning to discuss.	I will call you Monday morning to discuss.	810039	1471956831509	1471956831626	g	71
1655	16942	I will call you Monday morning to discuss.	I will call you Monday morning to discuss.	810042	1471956831658	1471956831782	 	32
1655	16942	I will call you Monday morning to discuss.	I will call you Monday morning to discuss.	810076	1471956831884	1471956832020	t	84
1655	16942	I will call you Monday morning to discuss.	I will call you Monday morning to discuss.	810078	1471956832001	1471956832135	o	79
1655	16942	I will call you Monday morning to discuss.	I will call you Monday morning to discuss.	810080	1471956832154	1471956832283	 	32
1655	16942	I will call you Monday morning to discuss.	I will call you Monday morning to discuss.	810082	1471956832489	1471956832613	d	68
1655	16942	I will call you Monday morning to discuss.	I will call you Monday morning to discuss.	810087	1471956832637	1471956832786	i	73
1655	16942	I will call you Monday morning to discuss.	I will call you Monday morning to discuss.	810153	1471956832767	1471956832914	s	83
1655	16942	I will call you Monday morning to discuss.	I will call you Monday morning to discuss.	810156	1471956833101	1471956833236	c	67
1655	16942	I will call you Monday morning to discuss.	I will call you Monday morning to discuss.	810160	1471956833217	1471956833343	u	85
1655	16942	I will call you Monday morning to discuss.	I will call you Monday morning to discuss.	810164	1471956833769	1471956833870	s	83
1655	16942	I will call you Monday morning to discuss.	I will call you Monday morning to discuss.	810167	1471956833967	1471956834071	s	83
1655	16942	I will call you Monday morning to discuss.	I will call you Monday morning to discuss.	810171	1471956834217	1471956834309	.	190
1655	16959	Tried to call but couldn't reach you.	Tried to call but couldn't reach you.	810370	1471956836381	1471956836553	t	84
1655	16959	Tried to call but couldn't reach you.	Tried to call but couldn't reach you.	810372	1471956836429	1471956836577	SHIFT	16
1655	16959	Tried to call but couldn't reach you.	Tried to call but couldn't reach you.	810373	1471956836838	1471956836937	SHIFT	16
1655	16959	Tried to call but couldn't reach you.	Tried to call but couldn't reach you.	810374	1471956837141	1471956837254	BKSP	8
1655	16959	Tried to call but couldn't reach you.	Tried to call but couldn't reach you.	810378	1471956837694	1471956837958	SHIFT	16
1655	16959	Tried to call but couldn't reach you.	Tried to call but couldn't reach you.	810376	1471956837819	1471956837934	T	84
1655	16959	Tried to call but couldn't reach you.	Tried to call but couldn't reach you.	810380	1471956838063	1471956838180	r	82
1655	16959	Tried to call but couldn't reach you.	Tried to call but couldn't reach you.	810382	1471956838311	1471956838481	i	73
1655	16959	Tried to call but couldn't reach you.	Tried to call but couldn't reach you.	810384	1471956838533	1471956838646	e	69
1655	16959	Tried to call but couldn't reach you.	Tried to call but couldn't reach you.	810392	1471956838746	1471956838881	d	68
1655	16959	Tried to call but couldn't reach you.	Tried to call but couldn't reach you.	810394	1471956838913	1471956839085	 	32
1655	16959	Tried to call but couldn't reach you.	Tried to call but couldn't reach you.	810398	1471956839065	1471956839190	t	84
1655	16959	Tried to call but couldn't reach you.	Tried to call but couldn't reach you.	810401	1471956839211	1471956839335	o	79
1655	16959	Tried to call but couldn't reach you.	Tried to call but couldn't reach you.	810404	1471956839366	1471956839500	 	32
1655	16959	Tried to call but couldn't reach you.	Tried to call but couldn't reach you.	810521	1471956839613	1471956839733	d	67
1655	16959	Tried to call but couldn't reach you.	Tried to call but couldn't reach you.	810524	1471956839928	1471956840119	a	65
1655	16959	Tried to call but couldn't reach you.	Tried to call but couldn't reach you.	810528	1471956840565	1471956840629	BKSP	8
1655	16959	Tried to call but couldn't reach you.	Tried to call but couldn't reach you.	810530	1471956840721	1471956840823	BKSP	8
1655	16959	Tried to call but couldn't reach you.	Tried to call but couldn't reach you.	810534	1471956841087	1471956841195	a	65
1655	16959	Tried to call but couldn't reach you.	Tried to call but couldn't reach you.	810536	1471956841377	1471956841479	l	76
1655	16959	Tried to call but couldn't reach you.	Tried to call but couldn't reach you.	810600	1471956841562	1471956841654	l	76
1655	16959	Tried to call but couldn't reach you.	Tried to call but couldn't reach you.	810603	1471956841729	1471956841861	 	32
1655	16959	Tried to call but couldn't reach you.	Tried to call but couldn't reach you.	810608	1471956841972	1471956842131	b	66
1655	16959	Tried to call but couldn't reach you.	Tried to call but couldn't reach you.	810613	1471956842151	1471956842262	u	85
1655	16959	Tried to call but couldn't reach you.	Tried to call but couldn't reach you.	810616	1471956842324	1471956842448	t	84
1655	16959	Tried to call but couldn't reach you.	Tried to call but couldn't reach you.	810718	1471956842428	1471956842564	 	32
1655	16959	Tried to call but couldn't reach you.	Tried to call but couldn't reach you.	810719	1471956843031	1471956843176	x	88
1655	16959	Tried to call but couldn't reach you.	Tried to call but couldn't reach you.	810721	1471956843273	1471956843483	o	79
1655	16959	Tried to call but couldn't reach you.	Tried to call but couldn't reach you.	810727	1471956843721	1471956843800	BKSP	8
1655	16959	Tried to call but couldn't reach you.	Tried to call but couldn't reach you.	810730	1471956843872	1471956843970	BKSP	8
1655	16959	Tried to call but couldn't reach you.	Tried to call but couldn't reach you.	810733	1471956844127	1471956844275	c	67
1655	16959	Tried to call but couldn't reach you.	Tried to call but couldn't reach you.	810737	1471956844295	1471956844529	o	79
1655	16959	Tried to call but couldn't reach you.	Tried to call but couldn't reach you.	810931	1471956844449	1471956844592	u	85
1655	16959	Tried to call but couldn't reach you.	Tried to call but couldn't reach you.	810934	1471956845233	1471956845386	l	76
1655	16959	Tried to call but couldn't reach you.	Tried to call but couldn't reach you.	810937	1471956845572	1471956845671	n	78
1655	16959	Tried to call but couldn't reach you.	Tried to call but couldn't reach you.	810939	1471956846379	1471956846477	BKSP	8
1655	16959	Tried to call but couldn't reach you.	Tried to call but couldn't reach you.	810941	1471956846607	1471956846722	d	68
1655	16959	Tried to call but couldn't reach you.	Tried to call but couldn't reach you.	810944	1471956846853	1471956846961	n	78
1655	16959	Tried to call but couldn't reach you.	Tried to call but couldn't reach you.	810947	1471956847802	1471956847917	'	222
1655	16959	Tried to call but couldn't reach you.	Tried to call but couldn't reach you.	811037	1471956848190	1471956848295	t	84
1655	16959	Tried to call but couldn't reach you.	Tried to call but couldn't reach you.	811043	1471956848314	1471956848472	 	32
1655	16959	Tried to call but couldn't reach you.	Tried to call but couldn't reach you.	811050	1471956849119	1471956849288	r	82
1655	16959	Tried to call but couldn't reach you.	Tried to call but couldn't reach you.	811055	1471956849268	1471956849463	e	69
1655	16959	Tried to call but couldn't reach you.	Tried to call but couldn't reach you.	811059	1471956849983	1471956850107	a	65
1655	16959	Tried to call but couldn't reach you.	Tried to call but couldn't reach you.	811122	1471956850254	1471956850396	c	67
1655	16959	Tried to call but couldn't reach you.	Tried to call but couldn't reach you.	811126	1471956850361	1471956850469	h	72
1655	16959	Tried to call but couldn't reach you.	Tried to call but couldn't reach you.	811133	1471956850590	1471956850741	 	32
1655	16959	Tried to call but couldn't reach you.	Tried to call but couldn't reach you.	811139	1471956850886	1471956850992	y	89
1655	16959	Tried to call but couldn't reach you.	Tried to call but couldn't reach you.	811144	1471956851069	1471956851274	o	79
1655	16959	Tried to call but couldn't reach you.	Tried to call but couldn't reach you.	811299	1471956851930	1471956852064	o	79
1655	16959	Tried to call but couldn't reach you.	Tried to call but couldn't reach you.	811306	1471956852736	1471956852845	BKSP	8
1655	16959	Tried to call but couldn't reach you.	Tried to call but couldn't reach you.	811311	1471956853072	1471956853132	u	85
1655	16959	Tried to call but couldn't reach you.	Tried to call but couldn't reach you.	811315	1471956853617	1471956853690	.	190
1655	16980	Since yall are so slow to think, here are a few ideas.	Since yall are so slow to think. here are a few ideas.	813727	1471956908443	1471956908678	SHIFT	16
1655	16980	Since yall are so slow to think, here are a few ideas.	Since yall are so slow to think. here are a few ideas.	813732	1471956908658	1471956908786	S	83
1655	16980	Since yall are so slow to think, here are a few ideas.	Since yall are so slow to think. here are a few ideas.	813737	1471956908869	1471956909020	i	73
1655	16980	Since yall are so slow to think, here are a few ideas.	Since yall are so slow to think. here are a few ideas.	813741	1471956909092	1471956909222	n	78
1655	16980	Since yall are so slow to think, here are a few ideas.	Since yall are so slow to think. here are a few ideas.	813743	1471956909344	1471956909507	c	67
1655	16980	Since yall are so slow to think, here are a few ideas.	Since yall are so slow to think. here are a few ideas.	813745	1471956909619	1471956909777	e	69
1655	16980	Since yall are so slow to think, here are a few ideas.	Since yall are so slow to think. here are a few ideas.	813790	1471956909756	1471956909916	 	32
1655	16980	Since yall are so slow to think, here are a few ideas.	Since yall are so slow to think. here are a few ideas.	813793	1471956909987	1471956910130	y	89
1655	16980	Since yall are so slow to think, here are a few ideas.	Since yall are so slow to think. here are a few ideas.	813795	1471956910162	1471956910284	a	65
1655	16980	Since yall are so slow to think, here are a few ideas.	Since yall are so slow to think. here are a few ideas.	813800	1471956910357	1471956910445	l	76
1655	16980	Since yall are so slow to think, here are a few ideas.	Since yall are so slow to think. here are a few ideas.	813803	1471956910521	1471956910614	l	76
1655	16980	Since yall are so slow to think, here are a few ideas.	Since yall are so slow to think. here are a few ideas.	813805	1471956910646	1471956910820	 	32
1655	16980	Since yall are so slow to think, here are a few ideas.	Since yall are so slow to think. here are a few ideas.	813838	1471956910850	1471956910969	a	65
1655	16980	Since yall are so slow to think, here are a few ideas.	Since yall are so slow to think. here are a few ideas.	813840	1471956911185	1471956911332	r	82
1655	16980	Since yall are so slow to think, here are a few ideas.	Since yall are so slow to think. here are a few ideas.	813842	1471956911368	1471956911511	e	69
1655	16980	Since yall are so slow to think, here are a few ideas.	Since yall are so slow to think. here are a few ideas.	813843	1471956911558	1471956911729	 	32
1655	16980	Since yall are so slow to think, here are a few ideas.	Since yall are so slow to think. here are a few ideas.	813844	1471956911812	1471956911982	s	83
1655	16980	Since yall are so slow to think, here are a few ideas.	Since yall are so slow to think. here are a few ideas.	813866	1471956911964	1471956912082	o	79
1655	16980	Since yall are so slow to think, here are a few ideas.	Since yall are so slow to think. here are a few ideas.	813869	1471956912134	1471956912265	 	32
1655	16980	Since yall are so slow to think, here are a few ideas.	Since yall are so slow to think. here are a few ideas.	813877	1471956912296	1471956912463	s	83
1655	16980	Since yall are so slow to think, here are a few ideas.	Since yall are so slow to think. here are a few ideas.	813879	1471956912443	1471956912530	l	76
1655	16980	Since yall are so slow to think, here are a few ideas.	Since yall are so slow to think. here are a few ideas.	813884	1471956912618	1471956912772	o	79
1655	16980	Since yall are so slow to think, here are a few ideas.	Since yall are so slow to think. here are a few ideas.	813920	1471956912732	1471956912884	w	87
1655	16980	Since yall are so slow to think, here are a few ideas.	Since yall are so slow to think. here are a few ideas.	813922	1471956912953	1471956913086	 	32
1655	16980	Since yall are so slow to think, here are a few ideas.	Since yall are so slow to think. here are a few ideas.	813924	1471956913190	1471956913312	t	84
1655	16980	Since yall are so slow to think, here are a few ideas.	Since yall are so slow to think. here are a few ideas.	813928	1471956913332	1471956913444	o	79
1655	16980	Since yall are so slow to think, here are a few ideas.	Since yall are so slow to think. here are a few ideas.	813931	1471956913472	1471956913627	 	32
1655	16980	Since yall are so slow to think, here are a few ideas.	Since yall are so slow to think. here are a few ideas.	813934	1471956913663	1471956913816	t	84
1655	16980	Since yall are so slow to think, here are a few ideas.	Since yall are so slow to think. here are a few ideas.	814001	1471956913796	1471956913908	h	72
1655	16980	Since yall are so slow to think, here are a few ideas.	Since yall are so slow to think. here are a few ideas.	814002	1471956913952	1471956914054	i	73
1655	16980	Since yall are so slow to think, here are a few ideas.	Since yall are so slow to think. here are a few ideas.	814004	1471956914131	1471956914258	n	78
1655	16980	Since yall are so slow to think, here are a few ideas.	Since yall are so slow to think. here are a few ideas.	814009	1471956914341	1471956914476	k	75
1655	16980	Since yall are so slow to think, here are a few ideas.	Since yall are so slow to think. here are a few ideas.	814013	1471956914721	1471956914868	.	190
1655	16980	Since yall are so slow to think, here are a few ideas.	Since yall are so slow to think. here are a few ideas.	814018	1471956914947	1471956915062	 	32
1655	16980	Since yall are so slow to think, here are a few ideas.	Since yall are so slow to think. here are a few ideas.	814073	1471956915216	1471956915352	h	72
1655	16980	Since yall are so slow to think, here are a few ideas.	Since yall are so slow to think. here are a few ideas.	814075	1471956915408	1471956915626	e	69
1655	16980	Since yall are so slow to think, here are a few ideas.	Since yall are so slow to think. here are a few ideas.	814077	1471956915546	1471956915808	r	82
1655	16980	Since yall are so slow to think, here are a few ideas.	Since yall are so slow to think. here are a few ideas.	814081	1471956915736	1471956915908	e	69
1655	16980	Since yall are so slow to think, here are a few ideas.	Since yall are so slow to think. here are a few ideas.	814087	1471956915953	1471956916139	 	32
1655	16980	Since yall are so slow to think, here are a few ideas.	Since yall are so slow to think. here are a few ideas.	814136	1471956916091	1471956916273	a	65
1655	16980	Since yall are so slow to think, here are a few ideas.	Since yall are so slow to think. here are a few ideas.	814138	1471956916253	1471956916440	r	82
1655	16980	Since yall are so slow to think, here are a few ideas.	Since yall are so slow to think. here are a few ideas.	814142	1471956916420	1471956916609	e	69
1655	16980	Since yall are so slow to think, here are a few ideas.	Since yall are so slow to think. here are a few ideas.	814144	1471956916589	1471956916768	 	32
1655	16980	Since yall are so slow to think, here are a few ideas.	Since yall are so slow to think. here are a few ideas.	814148	1471956917012	1471956917158	a	65
1655	16980	Since yall are so slow to think, here are a few ideas.	Since yall are so slow to think. here are a few ideas.	814149	1471956917190	1471956917360	 	32
1655	16980	Since yall are so slow to think, here are a few ideas.	Since yall are so slow to think. here are a few ideas.	814211	1471956917420	1471956917529	f	70
1655	16980	Since yall are so slow to think, here are a few ideas.	Since yall are so slow to think. here are a few ideas.	814214	1471956917607	1471956917716	e	69
1655	16980	Since yall are so slow to think, here are a few ideas.	Since yall are so slow to think. here are a few ideas.	814215	1471956917814	1471956917984	w	87
1655	16980	Since yall are so slow to think, here are a few ideas.	Since yall are so slow to think. here are a few ideas.	814216	1471956918085	1471956918226	 	32
1655	16980	Since yall are so slow to think, here are a few ideas.	Since yall are so slow to think. here are a few ideas.	814217	1471956918484	1471956918612	i	73
1655	16980	Since yall are so slow to think, here are a few ideas.	Since yall are so slow to think. here are a few ideas.	814270	1471956918678	1471956918786	d	68
1655	16980	Since yall are so slow to think, here are a few ideas.	Since yall are so slow to think. here are a few ideas.	814273	1471956918875	1471956919008	e	69
1655	16980	Since yall are so slow to think, here are a few ideas.	Since yall are so slow to think. here are a few ideas.	814275	1471956919140	1471956919316	a	65
1655	16980	Since yall are so slow to think, here are a few ideas.	Since yall are so slow to think. here are a few ideas.	814277	1471956919407	1471956919502	s	83
1655	16980	Since yall are so slow to think, here are a few ideas.	Since yall are so slow to think. here are a few ideas.	814280	1471956919744	1471956919850	.	190
1655	17045	Sorry for the unfriendly greeting in the lobby.	Sorry for the unfriendly greeting in the lobby.	814467	1471956923988	1471956924350	SHIFT	16
1655	17045	Sorry for the unfriendly greeting in the lobby.	Sorry for the unfriendly greeting in the lobby.	814472	1471956924258	1471956924398	S	83
1655	17045	Sorry for the unfriendly greeting in the lobby.	Sorry for the unfriendly greeting in the lobby.	814474	1471956924548	1471956924738	o	79
1655	17045	Sorry for the unfriendly greeting in the lobby.	Sorry for the unfriendly greeting in the lobby.	814476	1471956924758	1471956924813	r	82
1655	17045	Sorry for the unfriendly greeting in the lobby.	Sorry for the unfriendly greeting in the lobby.	814477	1471956924902	1471956925030	r	82
1655	17045	Sorry for the unfriendly greeting in the lobby.	Sorry for the unfriendly greeting in the lobby.	814478	1471956925100	1471956925192	y	89
1655	17045	Sorry for the unfriendly greeting in the lobby.	Sorry for the unfriendly greeting in the lobby.	814487	1471956925242	1471956925410	 	32
1655	17045	Sorry for the unfriendly greeting in the lobby.	Sorry for the unfriendly greeting in the lobby.	814490	1471956925438	1471956925552	f	70
1655	17045	Sorry for the unfriendly greeting in the lobby.	Sorry for the unfriendly greeting in the lobby.	814494	1471956925580	1471956925746	o	79
1655	17045	Sorry for the unfriendly greeting in the lobby.	Sorry for the unfriendly greeting in the lobby.	814495	1471956925704	1471956925866	r	82
1655	17045	Sorry for the unfriendly greeting in the lobby.	Sorry for the unfriendly greeting in the lobby.	814562	1471956925846	1471956926012	 	32
1655	17045	Sorry for the unfriendly greeting in the lobby.	Sorry for the unfriendly greeting in the lobby.	814564	1471956926041	1471956926164	t	84
1655	17045	Sorry for the unfriendly greeting in the lobby.	Sorry for the unfriendly greeting in the lobby.	814566	1471956926144	1471956926286	h	72
1655	17045	Sorry for the unfriendly greeting in the lobby.	Sorry for the unfriendly greeting in the lobby.	814568	1471956926542	1471956926652	e	69
1655	17045	Sorry for the unfriendly greeting in the lobby.	Sorry for the unfriendly greeting in the lobby.	814570	1471956926709	1471956926840	 	32
1655	17045	Sorry for the unfriendly greeting in the lobby.	Sorry for the unfriendly greeting in the lobby.	814573	1471956927052	1471956927148	u	85
1655	17045	Sorry for the unfriendly greeting in the lobby.	Sorry for the unfriendly greeting in the lobby.	814620	1471956927254	1471956927374	n	78
1655	17045	Sorry for the unfriendly greeting in the lobby.	Sorry for the unfriendly greeting in the lobby.	814621	1471956927446	1471956927564	f	70
1655	17045	Sorry for the unfriendly greeting in the lobby.	Sorry for the unfriendly greeting in the lobby.	814622	1471956927694	1471956927862	r	82
1655	17045	Sorry for the unfriendly greeting in the lobby.	Sorry for the unfriendly greeting in the lobby.	814623	1471956927980	1471956928132	i	73
1655	17045	Sorry for the unfriendly greeting in the lobby.	Sorry for the unfriendly greeting in the lobby.	814624	1471956928231	1471956928370	e	69
1655	17045	Sorry for the unfriendly greeting in the lobby.	Sorry for the unfriendly greeting in the lobby.	814647	1471956928476	1471956928600	n	78
1655	17045	Sorry for the unfriendly greeting in the lobby.	Sorry for the unfriendly greeting in the lobby.	814650	1471956928692	1471956928802	d	68
1655	17045	Sorry for the unfriendly greeting in the lobby.	Sorry for the unfriendly greeting in the lobby.	814653	1471956929016	1471956929152	l	76
1655	17045	Sorry for the unfriendly greeting in the lobby.	Sorry for the unfriendly greeting in the lobby.	814659	1471956929212	1471956929326	y	89
1655	17045	Sorry for the unfriendly greeting in the lobby.	Sorry for the unfriendly greeting in the lobby.	814662	1471956929383	1471956929498	 	32
1655	17045	Sorry for the unfriendly greeting in the lobby.	Sorry for the unfriendly greeting in the lobby.	814682	1471956929678	1471956929786	g	71
1655	17045	Sorry for the unfriendly greeting in the lobby.	Sorry for the unfriendly greeting in the lobby.	814686	1471956929889	1471956930046	r	82
1655	17045	Sorry for the unfriendly greeting in the lobby.	Sorry for the unfriendly greeting in the lobby.	814691	1471956930072	1471956930206	e	69
1655	17045	Sorry for the unfriendly greeting in the lobby.	Sorry for the unfriendly greeting in the lobby.	814695	1471956930254	1471956930464	e	69
1655	17045	Sorry for the unfriendly greeting in the lobby.	Sorry for the unfriendly greeting in the lobby.	814742	1471956930424	1471956930596	t	84
1655	17045	Sorry for the unfriendly greeting in the lobby.	Sorry for the unfriendly greeting in the lobby.	814745	1471956930552	1471956930662	i	73
1655	17045	Sorry for the unfriendly greeting in the lobby.	Sorry for the unfriendly greeting in the lobby.	814746	1471956930726	1471956930870	n	78
1655	17045	Sorry for the unfriendly greeting in the lobby.	Sorry for the unfriendly greeting in the lobby.	814747	1471956930890	1471956931024	g	71
1655	17045	Sorry for the unfriendly greeting in the lobby.	Sorry for the unfriendly greeting in the lobby.	814749	1471956930989	1471956931128	 	32
1655	17045	Sorry for the unfriendly greeting in the lobby.	Sorry for the unfriendly greeting in the lobby.	814750	1471956931148	1471956931266	i	73
1655	17045	Sorry for the unfriendly greeting in the lobby.	Sorry for the unfriendly greeting in the lobby.	814780	1471956931326	1471956931442	n	78
1655	17045	Sorry for the unfriendly greeting in the lobby.	Sorry for the unfriendly greeting in the lobby.	814785	1471956931468	1471956931644	 	32
1655	17045	Sorry for the unfriendly greeting in the lobby.	Sorry for the unfriendly greeting in the lobby.	814788	1471956931624	1471956931778	t	84
1655	17045	Sorry for the unfriendly greeting in the lobby.	Sorry for the unfriendly greeting in the lobby.	814790	1471956931758	1471956931874	h	72
1655	17045	Sorry for the unfriendly greeting in the lobby.	Sorry for the unfriendly greeting in the lobby.	814792	1471956931930	1471956932084	e	69
1655	17045	Sorry for the unfriendly greeting in the lobby.	Sorry for the unfriendly greeting in the lobby.	814817	1471956931988	1471956932148	 	32
1655	17045	Sorry for the unfriendly greeting in the lobby.	Sorry for the unfriendly greeting in the lobby.	814818	1471956932271	1471956932388	l	76
1655	17045	Sorry for the unfriendly greeting in the lobby.	Sorry for the unfriendly greeting in the lobby.	814819	1471956932472	1471956932598	o	79
1655	17045	Sorry for the unfriendly greeting in the lobby.	Sorry for the unfriendly greeting in the lobby.	814820	1471956932647	1471956932742	b	66
1655	17045	Sorry for the unfriendly greeting in the lobby.	Sorry for the unfriendly greeting in the lobby.	814821	1471956932824	1471956932948	b	66
1655	17045	Sorry for the unfriendly greeting in the lobby.	Sorry for the unfriendly greeting in the lobby.	814822	1471956933003	1471956933114	y	89
1655	17045	Sorry for the unfriendly greeting in the lobby.	Sorry for the unfriendly greeting in the lobby.	814828	1471956933286	1471956933392	.	190
1655	17057	Northern forces had captured a southern mechanised brigade.	Northern forces had captured a southern mechanised brigade.	815076	1471956939434	1471956939686	SHIFT	16
1655	17057	Northern forces had captured a southern mechanised brigade.	Northern forces had captured a southern mechanised brigade.	815074	1471956939554	1471956939646	N	78
1655	17057	Northern forces had captured a southern mechanised brigade.	Northern forces had captured a southern mechanised brigade.	815079	1471956939731	1471956939912	o	79
1655	17057	Northern forces had captured a southern mechanised brigade.	Northern forces had captured a southern mechanised brigade.	815081	1471956939933	1471956940102	r	82
1655	17057	Northern forces had captured a southern mechanised brigade.	Northern forces had captured a southern mechanised brigade.	815084	1471956940223	1471956940340	t	84
1655	17057	Northern forces had captured a southern mechanised brigade.	Northern forces had captured a southern mechanised brigade.	815087	1471956940361	1471956940504	h	72
1655	17057	Northern forces had captured a southern mechanised brigade.	Northern forces had captured a southern mechanised brigade.	815130	1471956940484	1471956940714	e	69
1655	17057	Northern forces had captured a southern mechanised brigade.	Northern forces had captured a southern mechanised brigade.	815135	1471956940606	1471956940762	r	82
1655	17057	Northern forces had captured a southern mechanised brigade.	Northern forces had captured a southern mechanised brigade.	815142	1471956940939	1471956941034	n	78
1655	17057	Northern forces had captured a southern mechanised brigade.	Northern forces had captured a southern mechanised brigade.	815151	1471956941119	1471956941251	 	32
1655	17057	Northern forces had captured a southern mechanised brigade.	Northern forces had captured a southern mechanised brigade.	815159	1471956941332	1471956941482	f	70
1655	17057	Northern forces had captured a southern mechanised brigade.	Northern forces had captured a southern mechanised brigade.	815189	1471956941462	1471956941623	o	79
1655	17057	Northern forces had captured a southern mechanised brigade.	Northern forces had captured a southern mechanised brigade.	815192	1471956941570	1471956941734	r	82
1655	17057	Northern forces had captured a southern mechanised brigade.	Northern forces had captured a southern mechanised brigade.	815197	1471956941890	1471956942018	c	67
1655	17057	Northern forces had captured a southern mechanised brigade.	Northern forces had captured a southern mechanised brigade.	815199	1471956942138	1471956942296	e	69
1655	17057	Northern forces had captured a southern mechanised brigade.	Northern forces had captured a southern mechanised brigade.	815202	1471956942380	1471956942562	s	83
1655	17057	Northern forces had captured a southern mechanised brigade.	Northern forces had captured a southern mechanised brigade.	815229	1471956942543	1471956942670	 	32
1655	17057	Northern forces had captured a southern mechanised brigade.	Northern forces had captured a southern mechanised brigade.	815231	1471956942738	1471956942868	h	72
1655	17057	Northern forces had captured a southern mechanised brigade.	Northern forces had captured a southern mechanised brigade.	815233	1471956942848	1471956942972	a	65
1655	17057	Northern forces had captured a southern mechanised brigade.	Northern forces had captured a southern mechanised brigade.	815236	1471956943072	1471956943270	d	68
1655	17057	Northern forces had captured a southern mechanised brigade.	Northern forces had captured a southern mechanised brigade.	815238	1471956943250	1471956943372	 	32
1655	17057	Northern forces had captured a southern mechanised brigade.	Northern forces had captured a southern mechanised brigade.	815241	1471956943517	1471956943658	c	67
1655	17057	Northern forces had captured a southern mechanised brigade.	Northern forces had captured a southern mechanised brigade.	815264	1471956943686	1471956943870	a	65
1655	17057	Northern forces had captured a southern mechanised brigade.	Northern forces had captured a southern mechanised brigade.	815266	1471956943917	1471956944116	p	80
1655	17057	Northern forces had captured a southern mechanised brigade.	Northern forces had captured a southern mechanised brigade.	815268	1471956944090	1471956944218	t	84
1655	17057	Northern forces had captured a southern mechanised brigade.	Northern forces had captured a southern mechanised brigade.	815270	1471956944247	1471956944378	u	85
1655	17057	Northern forces had captured a southern mechanised brigade.	Northern forces had captured a southern mechanised brigade.	815272	1471956944399	1471956944572	r	82
1655	17057	Northern forces had captured a southern mechanised brigade.	Northern forces had captured a southern mechanised brigade.	815310	1471956944504	1471956944694	e	69
1655	17057	Northern forces had captured a southern mechanised brigade.	Northern forces had captured a southern mechanised brigade.	815312	1471956944790	1471956944938	d	68
1655	17057	Northern forces had captured a southern mechanised brigade.	Northern forces had captured a southern mechanised brigade.	815315	1471956944984	1471956945152	 	32
1655	17057	Northern forces had captured a southern mechanised brigade.	Northern forces had captured a southern mechanised brigade.	815317	1471956945132	1471956945270	a	65
1655	17057	Northern forces had captured a southern mechanised brigade.	Northern forces had captured a southern mechanised brigade.	815320	1471956945306	1471956945470	 	32
1655	17057	Northern forces had captured a southern mechanised brigade.	Northern forces had captured a southern mechanised brigade.	815321	1471956945492	1471956945664	s	83
1655	17057	Northern forces had captured a southern mechanised brigade.	Northern forces had captured a southern mechanised brigade.	815349	1471956945644	1471956945878	o	79
1655	17057	Northern forces had captured a southern mechanised brigade.	Northern forces had captured a southern mechanised brigade.	815350	1471956945766	1471956945910	u	85
1655	17057	Northern forces had captured a southern mechanised brigade.	Northern forces had captured a southern mechanised brigade.	815351	1471956945946	1471956946093	t	84
1655	17057	Northern forces had captured a southern mechanised brigade.	Northern forces had captured a southern mechanised brigade.	815353	1471956946113	1471956946236	h	72
1655	17057	Northern forces had captured a southern mechanised brigade.	Northern forces had captured a southern mechanised brigade.	815355	1471956946201	1471956946446	e	69
1655	17057	Northern forces had captured a southern mechanised brigade.	Northern forces had captured a southern mechanised brigade.	815386	1471956946346	1471956946526	r	82
1655	17057	Northern forces had captured a southern mechanised brigade.	Northern forces had captured a southern mechanised brigade.	815388	1471956946592	1471956946720	n	78
1655	17057	Northern forces had captured a southern mechanised brigade.	Northern forces had captured a southern mechanised brigade.	815390	1471956946789	1471956946882	 	32
1655	17057	Northern forces had captured a southern mechanised brigade.	Northern forces had captured a southern mechanised brigade.	815391	1471956946994	1471956947152	m	77
1655	17057	Northern forces had captured a southern mechanised brigade.	Northern forces had captured a southern mechanised brigade.	815393	1471956947112	1471956947240	e	69
1655	17057	Northern forces had captured a southern mechanised brigade.	Northern forces had captured a southern mechanised brigade.	815395	1471956947392	1471956947536	c	67
1655	17057	Northern forces had captured a southern mechanised brigade.	Northern forces had captured a southern mechanised brigade.	815430	1471956947516	1471956947639	h	72
1655	17057	Northern forces had captured a southern mechanised brigade.	Northern forces had captured a southern mechanised brigade.	815434	1471956947658	1471956947818	a	65
1655	17057	Northern forces had captured a southern mechanised brigade.	Northern forces had captured a southern mechanised brigade.	815437	1471956947798	1471956947888	n	78
1655	17057	Northern forces had captured a southern mechanised brigade.	Northern forces had captured a southern mechanised brigade.	815440	1471956947960	1471956948109	i	73
1655	17057	Northern forces had captured a southern mechanised brigade.	Northern forces had captured a southern mechanised brigade.	815443	1471956948166	1471956948350	s	83
1655	17057	Northern forces had captured a southern mechanised brigade.	Northern forces had captured a southern mechanised brigade.	815506	1471956948322	1471956948456	e	69
1655	17057	Northern forces had captured a southern mechanised brigade.	Northern forces had captured a southern mechanised brigade.	815510	1471956948544	1471956948682	d	68
1655	17057	Northern forces had captured a southern mechanised brigade.	Northern forces had captured a southern mechanised brigade.	815513	1471956948703	1471956948822	 	32
1655	17057	Northern forces had captured a southern mechanised brigade.	Northern forces had captured a southern mechanised brigade.	815515	1471956948956	1471956949032	b	66
1655	17057	Northern forces had captured a southern mechanised brigade.	Northern forces had captured a southern mechanised brigade.	815519	1471956949712	1471956949854	r	82
1655	17057	Northern forces had captured a southern mechanised brigade.	Northern forces had captured a southern mechanised brigade.	815522	1471956949874	1471956950007	i	73
1655	17057	Northern forces had captured a southern mechanised brigade.	Northern forces had captured a southern mechanised brigade.	815582	1471956950202	1471956950396	g	71
1655	17057	Northern forces had captured a southern mechanised brigade.	Northern forces had captured a southern mechanised brigade.	815584	1471956950374	1471956950501	a	65
1655	17057	Northern forces had captured a southern mechanised brigade.	Northern forces had captured a southern mechanised brigade.	815587	1471956950642	1471956950765	e	69
1655	17057	Northern forces had captured a southern mechanised brigade.	Northern forces had captured a southern mechanised brigade.	815590	1471956951435	1471956951572	BKSP	8
1655	17057	Northern forces had captured a southern mechanised brigade.	Northern forces had captured a southern mechanised brigade.	815592	1471956951628	1471956951720	d	68
1655	17057	Northern forces had captured a southern mechanised brigade.	Northern forces had captured a southern mechanised brigade.	815593	1471956951818	1471956951922	e	69
1655	17057	Northern forces had captured a southern mechanised brigade.	Northern forces had captured a southern mechanised brigade.	815594	1471956952044	1471956952156	.	190
1655	17073	Because there is traffic.	Because there is traffic.	815774	1471956954952	1471956955242	SHIFT	16
1655	17073	Because there is traffic.	Because there is traffic.	815778	1471956955121	1471956955262	B	66
1655	17073	Because there is traffic.	Because there is traffic.	815782	1471956955464	1471956955572	e	69
1655	17073	Because there is traffic.	Because there is traffic.	815788	1471956955796	1471956955948	c	67
1655	17073	Because there is traffic.	Because there is traffic.	815791	1471956955972	1471956956186	a	65
1655	17073	Because there is traffic.	Because there is traffic.	815794	1471956956210	1471956956364	u	85
1655	17073	Because there is traffic.	Because there is traffic.	815829	1471956956344	1471956956512	s	83
1655	17073	Because there is traffic.	Because there is traffic.	815835	1471956956484	1471956956678	e	69
1655	17073	Because there is traffic.	Because there is traffic.	815839	1471956956650	1471956956810	 	32
1655	17073	Because there is traffic.	Because there is traffic.	815841	1471956956846	1471956956976	t	84
1655	17073	Because there is traffic.	Because there is traffic.	815845	1471956956956	1471956957085	h	72
1655	17073	Because there is traffic.	Because there is traffic.	815846	1471956957135	1471956957319	e	69
1655	17073	Because there is traffic.	Because there is traffic.	815888	1471956957254	1471956957472	r	82
1655	17073	Because there is traffic.	Because there is traffic.	815895	1471956957424	1471956957596	e	69
1655	17073	Because there is traffic.	Because there is traffic.	815901	1471956957665	1471956957814	 	32
1655	17073	Because there is traffic.	Because there is traffic.	815907	1471956957846	1471956957996	i	73
1655	17073	Because there is traffic.	Because there is traffic.	815909	1471956958016	1471956958160	s	83
1655	17073	Because there is traffic.	Because there is traffic.	815939	1471956958141	1471956958262	 	32
1655	17073	Because there is traffic.	Because there is traffic.	815941	1471956958424	1471956958536	t	84
1655	17073	Because there is traffic.	Because there is traffic.	815944	1471956958662	1471956958832	r	82
1655	17073	Because there is traffic.	Because there is traffic.	815947	1471956958784	1471956958934	a	65
1655	17073	Because there is traffic.	Because there is traffic.	815951	1471956959002	1471956959111	f	70
1655	17073	Because there is traffic.	Because there is traffic.	815954	1471956959171	1471956959264	f	70
1655	17073	Because there is traffic.	Because there is traffic.	815988	1471956959301	1471956959462	i	73
1655	17073	Because there is traffic.	Because there is traffic.	815990	1471956959440	1471956959578	c	67
1655	17073	Because there is traffic.	Because there is traffic.	815992	1471956959666	1471956959836	.	190
1655	17083	World Cup fans at Stanford Stadium are almost certain to be fenced in.	World Cup fans at Stanford Stadium are almost certain to be fenced in.	816348	1471956966351	1471956966628	SHIFT	16
1655	17083	World Cup fans at Stanford Stadium are almost certain to be fenced in.	World Cup fans at Stanford Stadium are almost certain to be fenced in.	816349	1471956966524	1471956966718	W	87
1655	17083	World Cup fans at Stanford Stadium are almost certain to be fenced in.	World Cup fans at Stanford Stadium are almost certain to be fenced in.	816350	1471956966959	1471956967116	o	79
1655	17083	World Cup fans at Stanford Stadium are almost certain to be fenced in.	World Cup fans at Stanford Stadium are almost certain to be fenced in.	816351	1471956967208	1471956967340	r	82
1655	17083	World Cup fans at Stanford Stadium are almost certain to be fenced in.	World Cup fans at Stanford Stadium are almost certain to be fenced in.	816354	1471956967764	1471956967922	l	76
1655	17083	World Cup fans at Stanford Stadium are almost certain to be fenced in.	World Cup fans at Stanford Stadium are almost certain to be fenced in.	816359	1471956968045	1471956968172	d	68
1655	17083	World Cup fans at Stanford Stadium are almost certain to be fenced in.	World Cup fans at Stanford Stadium are almost certain to be fenced in.	816427	1471956968232	1471956968358	 	32
1655	17083	World Cup fans at Stanford Stadium are almost certain to be fenced in.	World Cup fans at Stanford Stadium are almost certain to be fenced in.	816431	1471956968555	1471956968736	SHIFT	16
1655	17083	World Cup fans at Stanford Stadium are almost certain to be fenced in.	World Cup fans at Stanford Stadium are almost certain to be fenced in.	816436	1471956968656	1471956968784	C	67
1655	17083	World Cup fans at Stanford Stadium are almost certain to be fenced in.	World Cup fans at Stanford Stadium are almost certain to be fenced in.	816440	1471956968828	1471956968942	u	85
1655	17083	World Cup fans at Stanford Stadium are almost certain to be fenced in.	World Cup fans at Stanford Stadium are almost certain to be fenced in.	816445	1471956969066	1471956969200	p	80
1655	17083	World Cup fans at Stanford Stadium are almost certain to be fenced in.	World Cup fans at Stanford Stadium are almost certain to be fenced in.	816449	1471956969272	1471956969398	 	32
1655	17083	World Cup fans at Stanford Stadium are almost certain to be fenced in.	World Cup fans at Stanford Stadium are almost certain to be fenced in.	816495	1471956969726	1471956969836	f	70
1655	17083	World Cup fans at Stanford Stadium are almost certain to be fenced in.	World Cup fans at Stanford Stadium are almost certain to be fenced in.	816497	1471956969912	1471956970050	a	65
1655	17083	World Cup fans at Stanford Stadium are almost certain to be fenced in.	World Cup fans at Stanford Stadium are almost certain to be fenced in.	816499	1471956970126	1471956970250	n	78
1655	17083	World Cup fans at Stanford Stadium are almost certain to be fenced in.	World Cup fans at Stanford Stadium are almost certain to be fenced in.	816502	1471956970294	1471956970444	s	83
1655	17083	World Cup fans at Stanford Stadium are almost certain to be fenced in.	World Cup fans at Stanford Stadium are almost certain to be fenced in.	816506	1471956970472	1471956970606	 	32
1655	17083	World Cup fans at Stanford Stadium are almost certain to be fenced in.	World Cup fans at Stanford Stadium are almost certain to be fenced in.	816570	1471956970666	1471956970802	a	65
1655	17083	World Cup fans at Stanford Stadium are almost certain to be fenced in.	World Cup fans at Stanford Stadium are almost certain to be fenced in.	816571	1471956971132	1471956971264	t	84
1655	17083	World Cup fans at Stanford Stadium are almost certain to be fenced in.	World Cup fans at Stanford Stadium are almost certain to be fenced in.	816572	1471956971296	1471956971446	 	32
1655	17083	World Cup fans at Stanford Stadium are almost certain to be fenced in.	World Cup fans at Stanford Stadium are almost certain to be fenced in.	816573	1471956971655	1471956971868	SHIFT	16
1655	17083	World Cup fans at Stanford Stadium are almost certain to be fenced in.	World Cup fans at Stanford Stadium are almost certain to be fenced in.	816574	1471956971772	1471956971944	S	83
1655	17083	World Cup fans at Stanford Stadium are almost certain to be fenced in.	World Cup fans at Stanford Stadium are almost certain to be fenced in.	816575	1471956971964	1471956972170	a	65
1655	17083	World Cup fans at Stanford Stadium are almost certain to be fenced in.	World Cup fans at Stanford Stadium are almost certain to be fenced in.	816671	1471956972146	1471956972316	t	84
1655	17083	World Cup fans at Stanford Stadium are almost certain to be fenced in.	World Cup fans at Stanford Stadium are almost certain to be fenced in.	816673	1471956972754	1471956972843	BKSP	8
1655	17083	World Cup fans at Stanford Stadium are almost certain to be fenced in.	World Cup fans at Stanford Stadium are almost certain to be fenced in.	816681	1471956972894	1471956973020	BKSP	8
1655	17083	World Cup fans at Stanford Stadium are almost certain to be fenced in.	World Cup fans at Stanford Stadium are almost certain to be fenced in.	816685	1471956973112	1471956973250	t	84
1655	17083	World Cup fans at Stanford Stadium are almost certain to be fenced in.	World Cup fans at Stanford Stadium are almost certain to be fenced in.	816687	1471956973270	1471956973476	a	65
1655	17083	World Cup fans at Stanford Stadium are almost certain to be fenced in.	World Cup fans at Stanford Stadium are almost certain to be fenced in.	816688	1471956973422	1471956973552	n	78
1655	17083	World Cup fans at Stanford Stadium are almost certain to be fenced in.	World Cup fans at Stanford Stadium are almost certain to be fenced in.	816689	1471956973768	1471956973895	f	70
1655	17083	World Cup fans at Stanford Stadium are almost certain to be fenced in.	World Cup fans at Stanford Stadium are almost certain to be fenced in.	816691	1471956973914	1471956974089	o	79
1655	17083	World Cup fans at Stanford Stadium are almost certain to be fenced in.	World Cup fans at Stanford Stadium are almost certain to be fenced in.	816754	1471956974014	1471956974172	r	82
1655	17083	World Cup fans at Stanford Stadium are almost certain to be fenced in.	World Cup fans at Stanford Stadium are almost certain to be fenced in.	816756	1471956974316	1471956974469	d	68
1655	17083	World Cup fans at Stanford Stadium are almost certain to be fenced in.	World Cup fans at Stanford Stadium are almost certain to be fenced in.	816758	1471956974449	1471956974578	 	32
1655	17083	World Cup fans at Stanford Stadium are almost certain to be fenced in.	World Cup fans at Stanford Stadium are almost certain to be fenced in.	816760	1471956974698	1471956974880	SHIFT	16
1655	17083	World Cup fans at Stanford Stadium are almost certain to be fenced in.	World Cup fans at Stanford Stadium are almost certain to be fenced in.	816761	1471956974772	1471956974901	S	83
1655	17083	World Cup fans at Stanford Stadium are almost certain to be fenced in.	World Cup fans at Stanford Stadium are almost certain to be fenced in.	816762	1471956974986	1471956975134	t	84
1655	17083	World Cup fans at Stanford Stadium are almost certain to be fenced in.	World Cup fans at Stanford Stadium are almost certain to be fenced in.	816763	1471956975230	1471956975388	a	65
1655	17083	World Cup fans at Stanford Stadium are almost certain to be fenced in.	World Cup fans at Stanford Stadium are almost certain to be fenced in.	816796	1471956975518	1471956975628	d	68
1655	17083	World Cup fans at Stanford Stadium are almost certain to be fenced in.	World Cup fans at Stanford Stadium are almost certain to be fenced in.	816800	1471956975668	1471956975870	i	73
1655	17083	World Cup fans at Stanford Stadium are almost certain to be fenced in.	World Cup fans at Stanford Stadium are almost certain to be fenced in.	816803	1471956975830	1471956975942	u	85
1655	17083	World Cup fans at Stanford Stadium are almost certain to be fenced in.	World Cup fans at Stanford Stadium are almost certain to be fenced in.	816808	1471956976054	1471956976138	m	77
1655	17083	World Cup fans at Stanford Stadium are almost certain to be fenced in.	World Cup fans at Stanford Stadium are almost certain to be fenced in.	816811	1471956976236	1471956976364	 	32
1655	17083	World Cup fans at Stanford Stadium are almost certain to be fenced in.	World Cup fans at Stanford Stadium are almost certain to be fenced in.	816860	1471956976344	1471956976510	a	65
1655	17083	World Cup fans at Stanford Stadium are almost certain to be fenced in.	World Cup fans at Stanford Stadium are almost certain to be fenced in.	816862	1471956976530	1471956976706	r	82
1655	17083	World Cup fans at Stanford Stadium are almost certain to be fenced in.	World Cup fans at Stanford Stadium are almost certain to be fenced in.	816865	1471956976728	1471956976888	e	69
1655	17083	World Cup fans at Stanford Stadium are almost certain to be fenced in.	World Cup fans at Stanford Stadium are almost certain to be fenced in.	816868	1471956976908	1471956977038	 	32
1655	17083	World Cup fans at Stanford Stadium are almost certain to be fenced in.	World Cup fans at Stanford Stadium are almost certain to be fenced in.	816871	1471956977135	1471956977270	a	65
1655	17083	World Cup fans at Stanford Stadium are almost certain to be fenced in.	World Cup fans at Stanford Stadium are almost certain to be fenced in.	816875	1471956977290	1471956977420	l	76
1655	17083	World Cup fans at Stanford Stadium are almost certain to be fenced in.	World Cup fans at Stanford Stadium are almost certain to be fenced in.	816908	1471956977476	1471956977630	m	77
1655	17083	World Cup fans at Stanford Stadium are almost certain to be fenced in.	World Cup fans at Stanford Stadium are almost certain to be fenced in.	816912	1471956977698	1471956977844	o	79
1655	17083	World Cup fans at Stanford Stadium are almost certain to be fenced in.	World Cup fans at Stanford Stadium are almost certain to be fenced in.	816916	1471956977824	1471956977968	s	83
1655	17083	World Cup fans at Stanford Stadium are almost certain to be fenced in.	World Cup fans at Stanford Stadium are almost certain to be fenced in.	816922	1471956978044	1471956978170	t	84
1655	17083	World Cup fans at Stanford Stadium are almost certain to be fenced in.	World Cup fans at Stanford Stadium are almost certain to be fenced in.	816928	1471956978215	1471956978356	 	32
1655	17083	World Cup fans at Stanford Stadium are almost certain to be fenced in.	World Cup fans at Stanford Stadium are almost certain to be fenced in.	816983	1471956978912	1471956979016	c	67
1655	17083	World Cup fans at Stanford Stadium are almost certain to be fenced in.	World Cup fans at Stanford Stadium are almost certain to be fenced in.	816985	1471956979122	1471956979356	e	69
1655	17083	World Cup fans at Stanford Stadium are almost certain to be fenced in.	World Cup fans at Stanford Stadium are almost certain to be fenced in.	816988	1471956979298	1471956979460	r	82
1655	17083	World Cup fans at Stanford Stadium are almost certain to be fenced in.	World Cup fans at Stanford Stadium are almost certain to be fenced in.	816990	1471956979548	1471956979707	t	84
1655	17083	World Cup fans at Stanford Stadium are almost certain to be fenced in.	World Cup fans at Stanford Stadium are almost certain to be fenced in.	817041	1471956979686	1471956979872	a	65
1655	17083	World Cup fans at Stanford Stadium are almost certain to be fenced in.	World Cup fans at Stanford Stadium are almost certain to be fenced in.	817045	1471956980004	1471956980092	i	73
1655	17083	World Cup fans at Stanford Stadium are almost certain to be fenced in.	World Cup fans at Stanford Stadium are almost certain to be fenced in.	817053	1471956980174	1471956980278	n	78
1655	17083	World Cup fans at Stanford Stadium are almost certain to be fenced in.	World Cup fans at Stanford Stadium are almost certain to be fenced in.	817057	1471956980355	1471956980492	 	32
1655	17083	World Cup fans at Stanford Stadium are almost certain to be fenced in.	World Cup fans at Stanford Stadium are almost certain to be fenced in.	817062	1471956980604	1471956980760	t	84
1655	17083	World Cup fans at Stanford Stadium are almost certain to be fenced in.	World Cup fans at Stanford Stadium are almost certain to be fenced in.	817067	1471956980782	1471956980886	o	79
1655	17083	World Cup fans at Stanford Stadium are almost certain to be fenced in.	World Cup fans at Stanford Stadium are almost certain to be fenced in.	817116	1471956980978	1471956981125	 	32
1655	17083	World Cup fans at Stanford Stadium are almost certain to be fenced in.	World Cup fans at Stanford Stadium are almost certain to be fenced in.	817118	1471956981308	1471956981410	b	66
1655	17083	World Cup fans at Stanford Stadium are almost certain to be fenced in.	World Cup fans at Stanford Stadium are almost certain to be fenced in.	817120	1471956981564	1471956981686	e	69
1655	17083	World Cup fans at Stanford Stadium are almost certain to be fenced in.	World Cup fans at Stanford Stadium are almost certain to be fenced in.	817124	1471956981722	1471956981858	 	32
1655	17083	World Cup fans at Stanford Stadium are almost certain to be fenced in.	World Cup fans at Stanford Stadium are almost certain to be fenced in.	817126	1471956982036	1471956982160	f	70
1655	17083	World Cup fans at Stanford Stadium are almost certain to be fenced in.	World Cup fans at Stanford Stadium are almost certain to be fenced in.	817166	1471956982398	1471956982525	e	69
1655	17083	World Cup fans at Stanford Stadium are almost certain to be fenced in.	World Cup fans at Stanford Stadium are almost certain to be fenced in.	817167	1471956982592	1471956982726	n	78
1655	17083	World Cup fans at Stanford Stadium are almost certain to be fenced in.	World Cup fans at Stanford Stadium are almost certain to be fenced in.	817168	1471956982952	1471956983058	c	67
1655	17083	World Cup fans at Stanford Stadium are almost certain to be fenced in.	World Cup fans at Stanford Stadium are almost certain to be fenced in.	817169	1471956983154	1471956983236	e	69
1655	17083	World Cup fans at Stanford Stadium are almost certain to be fenced in.	World Cup fans at Stanford Stadium are almost certain to be fenced in.	817171	1471956983332	1471956983444	d	68
1655	17083	World Cup fans at Stanford Stadium are almost certain to be fenced in.	World Cup fans at Stanford Stadium are almost certain to be fenced in.	817220	1471956983505	1471956983638	 	32
1655	17083	World Cup fans at Stanford Stadium are almost certain to be fenced in.	World Cup fans at Stanford Stadium are almost certain to be fenced in.	817222	1471956983682	1471956983786	i	73
1655	17083	World Cup fans at Stanford Stadium are almost certain to be fenced in.	World Cup fans at Stanford Stadium are almost certain to be fenced in.	817224	1471956983848	1471956983984	n	78
1655	17083	World Cup fans at Stanford Stadium are almost certain to be fenced in.	World Cup fans at Stanford Stadium are almost certain to be fenced in.	817230	1471956984150	1471956984328	.	190
