PARTICIPANT_ID	TEST_SECTION_ID	SENTENCE	USER_INPUT	KEYSTROKE_ID	PRESS_TIME	RELEASE_TIME	LETTER	KEYCODE
1698	17207	The team feels confident that Martin will be available.	The team feels confident that Martin will be available.	821992	1471957103096	1471957103532	SHIFT	16
1698	17207	The team feels confident that Martin will be available.	The team feels confident that Martin will be available.	821999	1471957103408	1471957103579	T	84
1698	17207	The team feels confident that Martin will be available.	The team feels confident that Martin will be available.	822006	1471957103751	1471957103844	h	72
1698	17207	The team feels confident that Martin will be available.	The team feels confident that Martin will be available.	822010	1471957103922	1471957104078	e	69
1698	17207	The team feels confident that Martin will be available.	The team feels confident that Martin will be available.	822015	1471957104344	1471957104484	 	32
1698	17207	The team feels confident that Martin will be available.	The team feels confident that Martin will be available.	822016	1471957105404	1471957105560	t	84
1698	17207	The team feels confident that Martin will be available.	The team feels confident that Martin will be available.	822104	1471957105654	1471957105826	e	69
1698	17207	The team feels confident that Martin will be available.	The team feels confident that Martin will be available.	822108	1471957105919	1471957106091	a	65
1698	17207	The team feels confident that Martin will be available.	The team feels confident that Martin will be available.	822112	1471957106294	1471957106418	m	77
1698	17207	The team feels confident that Martin will be available.	The team feels confident that Martin will be available.	822118	1471957106637	1471957106762	 	32
1698	17207	The team feels confident that Martin will be available.	The team feels confident that Martin will be available.	822126	1471957107682	1471957107838	f	70
1698	17207	The team feels confident that Martin will be available.	The team feels confident that Martin will be available.	822189	1471957107978	1471957108103	e	69
1698	17207	The team feels confident that Martin will be available.	The team feels confident that Martin will be available.	822194	1471957108197	1471957108322	e	69
1698	17207	The team feels confident that Martin will be available.	The team feels confident that Martin will be available.	822198	1471957108462	1471957108571	l	76
1698	17207	The team feels confident that Martin will be available.	The team feels confident that Martin will be available.	822204	1471957108696	1471957108852	s	83
1698	17207	The team feels confident that Martin will be available.	The team feels confident that Martin will be available.	822210	1471957109070	1471957109195	 	32
1698	17207	The team feels confident that Martin will be available.	The team feels confident that Martin will be available.	822381	1471957110303	1471957110474	c	67
1698	17207	The team feels confident that Martin will be available.	The team feels confident that Martin will be available.	822384	1471957110802	1471957110927	o	79
1698	17207	The team feels confident that Martin will be available.	The team feels confident that Martin will be available.	822388	1471957111270	1471957111379	n	78
1698	17207	The team feels confident that Martin will be available.	The team feels confident that Martin will be available.	822391	1471957111629	1471957111816	f	70
1698	17207	The team feels confident that Martin will be available.	The team feels confident that Martin will be available.	822393	1471957112112	1471957112222	i	73
1698	17207	The team feels confident that Martin will be available.	The team feels confident that Martin will be available.	822511	1471957112643	1471957112768	d	68
1698	17207	The team feels confident that Martin will be available.	The team feels confident that Martin will be available.	822513	1471957112924	1471957113064	e	69
1698	17207	The team feels confident that Martin will be available.	The team feels confident that Martin will be available.	822518	1471957113267	1471957113360	n	78
1698	17207	The team feels confident that Martin will be available.	The team feels confident that Martin will be available.	822521	1471957113579	1471957113688	t	84
1698	17207	The team feels confident that Martin will be available.	The team feels confident that Martin will be available.	822524	1471957114530	1471957114671	 	32
1698	17207	The team feels confident that Martin will be available.	The team feels confident that Martin will be available.	822610	1471957115466	1471957115622	t	84
1698	17207	The team feels confident that Martin will be available.	The team feels confident that Martin will be available.	822611	1471957115794	1471957115919	h	72
1698	17207	The team feels confident that Martin will be available.	The team feels confident that Martin will be available.	822612	1471957115950	1471957116122	a	65
1698	17207	The team feels confident that Martin will be available.	The team feels confident that Martin will be available.	822613	1471957116293	1471957116402	t	84
1698	17207	The team feels confident that Martin will be available.	The team feels confident that Martin will be available.	822615	1471957116652	1471957116761	 	32
1698	17207	The team feels confident that Martin will be available.	The team feels confident that Martin will be available.	822727	1471957117822	1471957118165	SHIFT	16
1698	17207	The team feels confident that Martin will be available.	The team feels confident that Martin will be available.	822731	1471957118087	1471957118196	M	77
1698	17207	The team feels confident that Martin will be available.	The team feels confident that Martin will be available.	822736	1471957118212	1471957118384	a	65
1698	17207	The team feels confident that Martin will be available.	The team feels confident that Martin will be available.	822743	1471957118633	1471957118774	r	82
1698	17207	The team feels confident that Martin will be available.	The team feels confident that Martin will be available.	822748	1471957119008	1471957119132	t	84
1698	17207	The team feels confident that Martin will be available.	The team feels confident that Martin will be available.	822752	1471957119288	1471957119382	i	73
1698	17207	The team feels confident that Martin will be available.	The team feels confident that Martin will be available.	822888	1471957119569	1471957119663	n	78
1698	17207	The team feels confident that Martin will be available.	The team feels confident that Martin will be available.	822890	1471957120334	1471957120427	 	32
1698	17207	The team feels confident that Martin will be available.	The team feels confident that Martin will be available.	822892	1471957121254	1471957121394	w	87
1698	17207	The team feels confident that Martin will be available.	The team feels confident that Martin will be available.	822893	1471957121644	1471957121722	i	73
1698	17207	The team feels confident that Martin will be available.	The team feels confident that Martin will be available.	822898	1471957121925	1471957122018	l	76
1698	17207	The team feels confident that Martin will be available.	The team feels confident that Martin will be available.	823051	1471957122174	1471957122252	l	76
1698	17207	The team feels confident that Martin will be available.	The team feels confident that Martin will be available.	823055	1471957122580	1471957122674	 	32
1698	17207	The team feels confident that Martin will be available.	The team feels confident that Martin will be available.	823060	1471957123422	1471957123500	b	66
1698	17207	The team feels confident that Martin will be available.	The team feels confident that Martin will be available.	823067	1471957123641	1471957123750	e	69
1698	17207	The team feels confident that Martin will be available.	The team feels confident that Martin will be available.	823071	1471957123937	1471957124031	 	32
1698	17207	The team feels confident that Martin will be available.	The team feels confident that Martin will be available.	823269	1471957124187	1471957124327	a	65
1698	17207	The team feels confident that Martin will be available.	The team feels confident that Martin will be available.	823275	1471957124748	1471957124811	c	67
1698	17207	The team feels confident that Martin will be available.	The team feels confident that Martin will be available.	823280	1471957125622	1471957125716	BKSP	8
1698	17207	The team feels confident that Martin will be available.	The team feels confident that Martin will be available.	823285	1471957126090	1471957126168	v	86
1698	17207	The team feels confident that Martin will be available.	The team feels confident that Martin will be available.	823289	1471957126901	1471957126995	a	65
1698	17207	The team feels confident that Martin will be available.	The team feels confident that Martin will be available.	823294	1471957127432	1471957127494	i	73
1698	17207	The team feels confident that Martin will be available.	The team feels confident that Martin will be available.	823379	1471957127712	1471957127790	l	76
1698	17207	The team feels confident that Martin will be available.	The team feels confident that Martin will be available.	823384	1471957127978	1471957128102	a	65
1698	17207	The team feels confident that Martin will be available.	The team feels confident that Martin will be available.	823393	1471957128399	1471957128477	b	66
1698	17207	The team feels confident that Martin will be available.	The team feels confident that Martin will be available.	823401	1471957128804	1471957128898	l	76
1698	17207	The team feels confident that Martin will be available.	The team feels confident that Martin will be available.	823406	1471957129070	1471957129194	e	69
1698	17207	The team feels confident that Martin will be available.	The team feels confident that Martin will be available.	823553	1471957130942	1471957131020	.	190
1698	17248	Leaks have indicated that Clinton has narrowed his choice.	Leaks have indicated that Clinton has narrowed his choice.	823790	1471957133843	1471957134296	SHIFT	16
1698	17248	Leaks have indicated that Clinton has narrowed his choice.	Leaks have indicated that Clinton has narrowed his choice.	823794	1471957134202	1471957134343	L	76
1698	17248	Leaks have indicated that Clinton has narrowed his choice.	Leaks have indicated that Clinton has narrowed his choice.	823798	1471957134436	1471957134577	e	69
1698	17248	Leaks have indicated that Clinton has narrowed his choice.	Leaks have indicated that Clinton has narrowed his choice.	823807	1471957134655	1471957134811	a	65
1698	17248	Leaks have indicated that Clinton has narrowed his choice.	Leaks have indicated that Clinton has narrowed his choice.	823818	1471957135060	1471957135154	k	75
1698	17248	Leaks have indicated that Clinton has narrowed his choice.	Leaks have indicated that Clinton has narrowed his choice.	823827	1471957135294	1471957135466	s	83
1698	17248	Leaks have indicated that Clinton has narrowed his choice.	Leaks have indicated that Clinton has narrowed his choice.	823957	1471957135809	1471957135934	 	32
1698	17248	Leaks have indicated that Clinton has narrowed his choice.	Leaks have indicated that Clinton has narrowed his choice.	823958	1471957137166	1471957137260	h	72
1698	17248	Leaks have indicated that Clinton has narrowed his choice.	Leaks have indicated that Clinton has narrowed his choice.	823961	1471957137291	1471957137478	a	65
1698	17248	Leaks have indicated that Clinton has narrowed his choice.	Leaks have indicated that Clinton has narrowed his choice.	823964	1471957137665	1471957137759	v	86
1698	17248	Leaks have indicated that Clinton has narrowed his choice.	Leaks have indicated that Clinton has narrowed his choice.	823970	1471957137884	1471957138055	e	69
1698	17248	Leaks have indicated that Clinton has narrowed his choice.	Leaks have indicated that Clinton has narrowed his choice.	824101	1471957138196	1471957138305	 	32
1698	17248	Leaks have indicated that Clinton has narrowed his choice.	Leaks have indicated that Clinton has narrowed his choice.	824107	1471957139366	1471957139459	i	73
1698	17248	Leaks have indicated that Clinton has narrowed his choice.	Leaks have indicated that Clinton has narrowed his choice.	824112	1471957139693	1471957139787	n	78
1698	17248	Leaks have indicated that Clinton has narrowed his choice.	Leaks have indicated that Clinton has narrowed his choice.	824115	1471957140052	1471957140224	d	68
1698	17248	Leaks have indicated that Clinton has narrowed his choice.	Leaks have indicated that Clinton has narrowed his choice.	824119	1471957140333	1471957140427	i	73
1698	17248	Leaks have indicated that Clinton has narrowed his choice.	Leaks have indicated that Clinton has narrowed his choice.	824239	1471957141019	1471957141144	c	67
1698	17248	Leaks have indicated that Clinton has narrowed his choice.	Leaks have indicated that Clinton has narrowed his choice.	824245	1471957141175	1471957141363	a	65
1698	17248	Leaks have indicated that Clinton has narrowed his choice.	Leaks have indicated that Clinton has narrowed his choice.	824251	1471957141737	1471957141909	t	84
1698	17248	Leaks have indicated that Clinton has narrowed his choice.	Leaks have indicated that Clinton has narrowed his choice.	824258	1471957142002	1471957142143	e	69
1698	17248	Leaks have indicated that Clinton has narrowed his choice.	Leaks have indicated that Clinton has narrowed his choice.	824262	1471957142392	1471957142548	d	68
1698	17248	Leaks have indicated that Clinton has narrowed his choice.	Leaks have indicated that Clinton has narrowed his choice.	824402	1471957143110	1471957143250	 	32
1698	17248	Leaks have indicated that Clinton has narrowed his choice.	Leaks have indicated that Clinton has narrowed his choice.	824406	1471957143952	1471957144108	t	84
1698	17248	Leaks have indicated that Clinton has narrowed his choice.	Leaks have indicated that Clinton has narrowed his choice.	824413	1471957144217	1471957144311	h	72
1698	17248	Leaks have indicated that Clinton has narrowed his choice.	Leaks have indicated that Clinton has narrowed his choice.	824419	1471957144342	1471957144529	a	65
1698	17248	Leaks have indicated that Clinton has narrowed his choice.	Leaks have indicated that Clinton has narrowed his choice.	824421	1471957144607	1471957144701	t	84
1698	17248	Leaks have indicated that Clinton has narrowed his choice.	Leaks have indicated that Clinton has narrowed his choice.	824619	1471957144904	1471957144997	 	32
1698	17248	Leaks have indicated that Clinton has narrowed his choice.	Leaks have indicated that Clinton has narrowed his choice.	824621	1471957145731	1471957146043	SHIFT	16
1698	17248	Leaks have indicated that Clinton has narrowed his choice.	Leaks have indicated that Clinton has narrowed his choice.	824627	1471957145949	1471957146121	C	67
1698	17248	Leaks have indicated that Clinton has narrowed his choice.	Leaks have indicated that Clinton has narrowed his choice.	824631	1471957146401	1471957146511	l	76
1698	17248	Leaks have indicated that Clinton has narrowed his choice.	Leaks have indicated that Clinton has narrowed his choice.	824633	1471957146682	1471957146760	i	73
1698	17248	Leaks have indicated that Clinton has narrowed his choice.	Leaks have indicated that Clinton has narrowed his choice.	824638	1471957146947	1471957147041	n	78
1698	17248	Leaks have indicated that Clinton has narrowed his choice.	Leaks have indicated that Clinton has narrowed his choice.	824827	1471957147197	1471957147353	t	84
1698	17248	Leaks have indicated that Clinton has narrowed his choice.	Leaks have indicated that Clinton has narrowed his choice.	824829	1471957147462	1471957147556	o	79
1698	17248	Leaks have indicated that Clinton has narrowed his choice.	Leaks have indicated that Clinton has narrowed his choice.	824833	1471957147759	1471957147868	n	78
1698	17248	Leaks have indicated that Clinton has narrowed his choice.	Leaks have indicated that Clinton has narrowed his choice.	824839	1471957148663	1471957148788	 	32
1698	17248	Leaks have indicated that Clinton has narrowed his choice.	Leaks have indicated that Clinton has narrowed his choice.	824844	1471957149662	1471957149740	h	72
1698	17248	Leaks have indicated that Clinton has narrowed his choice.	Leaks have indicated that Clinton has narrowed his choice.	825009	1471957149802	1471957149958	a	65
1698	17248	Leaks have indicated that Clinton has narrowed his choice.	Leaks have indicated that Clinton has narrowed his choice.	825016	1471957150161	1471957150317	s	83
1698	17248	Leaks have indicated that Clinton has narrowed his choice.	Leaks have indicated that Clinton has narrowed his choice.	825019	1471957150457	1471957150598	 	32
1698	17248	Leaks have indicated that Clinton has narrowed his choice.	Leaks have indicated that Clinton has narrowed his choice.	825022	1471957151752	1471957151846	n	78
1698	17248	Leaks have indicated that Clinton has narrowed his choice.	Leaks have indicated that Clinton has narrowed his choice.	825024	1471957151908	1471957152095	a	65
1698	17248	Leaks have indicated that Clinton has narrowed his choice.	Leaks have indicated that Clinton has narrowed his choice.	825103	1471957152283	1471957152392	r	82
1698	17248	Leaks have indicated that Clinton has narrowed his choice.	Leaks have indicated that Clinton has narrowed his choice.	825111	1471957152470	1471957152563	r	82
1698	17248	Leaks have indicated that Clinton has narrowed his choice.	Leaks have indicated that Clinton has narrowed his choice.	825116	1471957152735	1471957152844	o	79
1698	17248	Leaks have indicated that Clinton has narrowed his choice.	Leaks have indicated that Clinton has narrowed his choice.	825123	1471957153063	1471957153203	w	87
1698	17248	Leaks have indicated that Clinton has narrowed his choice.	Leaks have indicated that Clinton has narrowed his choice.	825128	1471957153359	1471957153484	e	69
1698	17248	Leaks have indicated that Clinton has narrowed his choice.	Leaks have indicated that Clinton has narrowed his choice.	825296	1471957153624	1471957153749	d	68
1698	17248	Leaks have indicated that Clinton has narrowed his choice.	Leaks have indicated that Clinton has narrowed his choice.	825299	1471957154061	1471957154186	 	32
1698	17248	Leaks have indicated that Clinton has narrowed his choice.	Leaks have indicated that Clinton has narrowed his choice.	825303	1471957155247	1471957155387	h	72
1698	17248	Leaks have indicated that Clinton has narrowed his choice.	Leaks have indicated that Clinton has narrowed his choice.	825310	1471957155512	1471957155605	i	73
1698	17248	Leaks have indicated that Clinton has narrowed his choice.	Leaks have indicated that Clinton has narrowed his choice.	825317	1471957156089	1471957156245	s	83
1698	17248	Leaks have indicated that Clinton has narrowed his choice.	Leaks have indicated that Clinton has narrowed his choice.	825489	1471957156448	1471957156573	 	32
1698	17248	Leaks have indicated that Clinton has narrowed his choice.	Leaks have indicated that Clinton has narrowed his choice.	825494	1471957157517	1471957157673	c	67
1698	17248	Leaks have indicated that Clinton has narrowed his choice.	Leaks have indicated that Clinton has narrowed his choice.	825499	1471957157938	1471957158031	h	72
1698	17248	Leaks have indicated that Clinton has narrowed his choice.	Leaks have indicated that Clinton has narrowed his choice.	825507	1471957158312	1471957158406	o	79
1698	17248	Leaks have indicated that Clinton has narrowed his choice.	Leaks have indicated that Clinton has narrowed his choice.	825515	1471957158562	1471957158655	i	73
1698	17248	Leaks have indicated that Clinton has narrowed his choice.	Leaks have indicated that Clinton has narrowed his choice.	825707	1471957159030	1471957159139	c	67
1698	17248	Leaks have indicated that Clinton has narrowed his choice.	Leaks have indicated that Clinton has narrowed his choice.	825716	1471957159233	1471957159389	e	69
1698	17248	Leaks have indicated that Clinton has narrowed his choice.	Leaks have indicated that Clinton has narrowed his choice.	825724	1471957159841	1471957159919	.	190
1698	17294	I have 2 different ones.	I have 2 different ones.	826037	1471957163991	1471957164412	SHIFT	16
1698	17294	I have 2 different ones.	I have 2 different ones.	826043	1471957164350	1471957164443	I	73
1698	17294	I have 2 different ones.	I have 2 different ones.	826048	1471957164646	1471957164740	 	32
1698	17294	I have 2 different ones.	I have 2 different ones.	826052	1471957164958	1471957165067	h	72
1698	17294	I have 2 different ones.	I have 2 different ones.	826055	1471957165176	1471957165348	a	65
1698	17294	I have 2 different ones.	I have 2 different ones.	826058	1471957165520	1471957165629	v	86
1698	17294	I have 2 different ones.	I have 2 different ones.	826191	1471957165785	1471957165956	e	69
1698	17294	I have 2 different ones.	I have 2 different ones.	826193	1471957166034	1471957166128	 	32
1698	17294	I have 2 different ones.	I have 2 different ones.	826197	1471957166939	1471957167064	2	50
1698	17294	I have 2 different ones.	I have 2 different ones.	826200	1471957167345	1471957167470	 	32
1698	17294	I have 2 different ones.	I have 2 different ones.	826204	1471957167844	1471957168016	d	68
1698	17294	I have 2 different ones.	I have 2 different ones.	826276	1471957168125	1471957168218	i	73
1698	17294	I have 2 different ones.	I have 2 different ones.	826280	1471957168437	1471957168546	f	70
1698	17294	I have 2 different ones.	I have 2 different ones.	826285	1471957168624	1471957168718	f	70
1698	17294	I have 2 different ones.	I have 2 different ones.	826290	1471957168827	1471957168983	e	69
1698	17294	I have 2 different ones.	I have 2 different ones.	826294	1471957169061	1471957169186	r	82
1698	17294	I have 2 different ones.	I have 2 different ones.	826569	1471957169295	1471957169435	e	69
1698	17294	I have 2 different ones.	I have 2 different ones.	826575	1471957169591	1471957169685	n	78
1698	17294	I have 2 different ones.	I have 2 different ones.	826582	1471957169888	1471957169981	t	84
1698	17294	I have 2 different ones.	I have 2 different ones.	826589	1471957171713	1471957171884	 	32
1698	17294	I have 2 different ones.	I have 2 different ones.	826600	1471957172883	1471957172992	o	79
1698	17294	I have 2 different ones.	I have 2 different ones.	826733	1471957173210	1471957173304	n	78
1698	17294	I have 2 different ones.	I have 2 different ones.	826738	1471957173413	1471957173569	e	69
1698	17294	I have 2 different ones.	I have 2 different ones.	826745	1471957173756	1471957173897	s	83
1698	17294	I have 2 different ones.	I have 2 different ones.	826753	1471957174162	1471957174240	.	190
1698	17315	A detailed organizational chart is attached.	A detailed organizational chart is attached.	827069	1471957177266	1471957177532	SHIFT	16
1698	17315	A detailed organizational chart is attached.	A detailed organizational chart is attached.	827073	1471957177438	1471957177610	A	65
1698	17315	A detailed organizational chart is attached.	A detailed organizational chart is attached.	827081	1471957177734	1471957177859	 	32
1698	17315	A detailed organizational chart is attached.	A detailed organizational chart is attached.	827087	1471957177984	1471957178093	d	68
1698	17315	A detailed organizational chart is attached.	A detailed organizational chart is attached.	827089	1471957178234	1471957178374	e	69
1698	17315	A detailed organizational chart is attached.	A detailed organizational chart is attached.	827094	1471957178592	1471957178702	t	84
1698	17315	A detailed organizational chart is attached.	A detailed organizational chart is attached.	827182	1471957178795	1471957179045	a	65
1698	17315	A detailed organizational chart is attached.	A detailed organizational chart is attached.	827188	1471957179123	1471957179201	i	73
1698	17315	A detailed organizational chart is attached.	A detailed organizational chart is attached.	827196	1471957179372	1471957179482	l	76
1698	17315	A detailed organizational chart is attached.	A detailed organizational chart is attached.	827200	1471957179575	1471957179731	e	69
1698	17315	A detailed organizational chart is attached.	A detailed organizational chart is attached.	827206	1471957179887	1471957180074	d	68
1698	17315	A detailed organizational chart is attached.	A detailed organizational chart is attached.	827411	1471957180324	1471957180464	 	32
1698	17315	A detailed organizational chart is attached.	A detailed organizational chart is attached.	827420	1471957181822	1471957181931	o	79
1698	17315	A detailed organizational chart is attached.	A detailed organizational chart is attached.	827424	1471957182102	1471957182258	r	82
1698	17315	A detailed organizational chart is attached.	A detailed organizational chart is attached.	827432	1471957182461	1471957182586	g	71
1698	17315	A detailed organizational chart is attached.	A detailed organizational chart is attached.	827439	1471957182633	1471957182820	a	65
1698	17315	A detailed organizational chart is attached.	A detailed organizational chart is attached.	827556	1471957182945	1471957183038	n	78
1698	17315	A detailed organizational chart is attached.	A detailed organizational chart is attached.	827559	1471957183210	1471957183288	i	73
1698	17315	A detailed organizational chart is attached.	A detailed organizational chart is attached.	827561	1471957183600	1471957183756	a	90
1698	17315	A detailed organizational chart is attached.	A detailed organizational chart is attached.	827564	1471957184489	1471957184645	t	84
1698	17315	A detailed organizational chart is attached.	A detailed organizational chart is attached.	827746	1471957184754	1471957184832	i	73
1698	17315	A detailed organizational chart is attached.	A detailed organizational chart is attached.	827749	1471957184957	1471957185051	o	79
1698	17315	A detailed organizational chart is attached.	A detailed organizational chart is attached.	827751	1471957185238	1471957185332	n	78
1698	17315	A detailed organizational chart is attached.	A detailed organizational chart is attached.	827753	1471957185644	1471957185878	a	65
1698	17315	A detailed organizational chart is attached.	A detailed organizational chart is attached.	827755	1471957187344	1471957187453	l	76
1698	17315	A detailed organizational chart is attached.	A detailed organizational chart is attached.	827866	1471957187640	1471957187765	 	32
1698	17315	A detailed organizational chart is attached.	A detailed organizational chart is attached.	827869	1471957188015	1471957188171	c	67
1698	17315	A detailed organizational chart is attached.	A detailed organizational chart is attached.	827874	1471957188374	1471957188467	h	72
1698	17315	A detailed organizational chart is attached.	A detailed organizational chart is attached.	827881	1471957188483	1471957188639	a	65
1698	17315	A detailed organizational chart is attached.	A detailed organizational chart is attached.	827888	1471957189840	1471957189965	r	82
1698	17315	A detailed organizational chart is attached.	A detailed organizational chart is attached.	828020	1471957190074	1471957190183	t	84
1698	17315	A detailed organizational chart is attached.	A detailed organizational chart is attached.	828025	1471957190526	1471957190636	 	32
1698	17315	A detailed organizational chart is attached.	A detailed organizational chart is attached.	828028	1471957191509	1471957191634	i	73
1698	17315	A detailed organizational chart is attached.	A detailed organizational chart is attached.	828030	1471957191728	1471957191915	s	83
1698	17315	A detailed organizational chart is attached.	A detailed organizational chart is attached.	828033	1471957192024	1471957192149	 	32
1698	17315	A detailed organizational chart is attached.	A detailed organizational chart is attached.	828131	1471957192508	1471957192695	a	65
1698	17315	A detailed organizational chart is attached.	A detailed organizational chart is attached.	828134	1471957192976	1471957193054	t	84
1698	17315	A detailed organizational chart is attached.	A detailed organizational chart is attached.	828138	1471957193178	1471957193256	t	84
1698	17315	A detailed organizational chart is attached.	A detailed organizational chart is attached.	828143	1471957193334	1471957193537	a	65
1698	17315	A detailed organizational chart is attached.	A detailed organizational chart is attached.	828147	1471957193849	1471957194021	c	67
1698	17315	A detailed organizational chart is attached.	A detailed organizational chart is attached.	828310	1471957194161	1471957194255	h	72
1698	17315	A detailed organizational chart is attached.	A detailed organizational chart is attached.	828315	1471957194427	1471957194629	e	69
1698	17315	A detailed organizational chart is attached.	A detailed organizational chart is attached.	828319	1471957194848	1471957194988	d	68
1698	17315	A detailed organizational chart is attached.	A detailed organizational chart is attached.	828322	1471957195456	1471957195581	.	190
1698	17345	World Cup fans at Stanford Stadium are almost certain to be fenced in.	World Cup fans Stanford Stadium are almost certain to be fenced in.	828721	1471957199294	1471957199715	SHIFT	16
1698	17345	World Cup fans at Stanford Stadium are almost certain to be fenced in.	World Cup fans Stanford Stadium are almost certain to be fenced in.	828724	1471957199653	1471957199840	W	87
1698	17345	World Cup fans at Stanford Stadium are almost certain to be fenced in.	World Cup fans Stanford Stadium are almost certain to be fenced in.	828728	1471957200074	1471957200214	o	79
1698	17345	World Cup fans at Stanford Stadium are almost certain to be fenced in.	World Cup fans Stanford Stadium are almost certain to be fenced in.	828732	1471957200698	1471957200854	r	82
1698	17345	World Cup fans at Stanford Stadium are almost certain to be fenced in.	World Cup fans Stanford Stadium are almost certain to be fenced in.	828735	1471957201259	1471957201400	l	76
1698	17345	World Cup fans at Stanford Stadium are almost certain to be fenced in.	World Cup fans Stanford Stadium are almost certain to be fenced in.	828737	1471957202617	1471957202773	d	68
1698	17345	World Cup fans at Stanford Stadium are almost certain to be fenced in.	World Cup fans Stanford Stadium are almost certain to be fenced in.	828929	1471957202866	1471957202991	 	32
1698	17345	World Cup fans at Stanford Stadium are almost certain to be fenced in.	World Cup fans Stanford Stadium are almost certain to be fenced in.	828935	1471957203599	1471957203911	SHIFT	16
1698	17345	World Cup fans at Stanford Stadium are almost certain to be fenced in.	World Cup fans Stanford Stadium are almost certain to be fenced in.	828939	1471957203818	1471957203974	C	67
1698	17345	World Cup fans at Stanford Stadium are almost certain to be fenced in.	World Cup fans Stanford Stadium are almost certain to be fenced in.	828944	1471957204629	1471957204723	u	85
1698	17345	World Cup fans at Stanford Stadium are almost certain to be fenced in.	World Cup fans Stanford Stadium are almost certain to be fenced in.	828949	1471957205191	1471957205300	p	80
1698	17345	World Cup fans at Stanford Stadium are almost certain to be fenced in.	World Cup fans Stanford Stadium are almost certain to be fenced in.	828954	1471957205596	1471957205705	 	32
1698	17345	World Cup fans at Stanford Stadium are almost certain to be fenced in.	World Cup fans Stanford Stadium are almost certain to be fenced in.	829079	1471957206969	1471957207141	f	70
1698	17345	World Cup fans at Stanford Stadium are almost certain to be fenced in.	World Cup fans Stanford Stadium are almost certain to be fenced in.	829081	1471957207172	1471957207359	a	65
1698	17345	World Cup fans at Stanford Stadium are almost certain to be fenced in.	World Cup fans Stanford Stadium are almost certain to be fenced in.	829086	1471957207437	1471957207546	n	78
1698	17345	World Cup fans at Stanford Stadium are almost certain to be fenced in.	World Cup fans Stanford Stadium are almost certain to be fenced in.	829089	1471957207640	1471957207780	s	83
1698	17345	World Cup fans at Stanford Stadium are almost certain to be fenced in.	World Cup fans Stanford Stadium are almost certain to be fenced in.	829092	1471957207921	1471957208030	 	32
1698	17345	World Cup fans at Stanford Stadium are almost certain to be fenced in.	World Cup fans Stanford Stadium are almost certain to be fenced in.	829377	1471957208997	1471957209247	SHIFT	16
1698	17345	World Cup fans at Stanford Stadium are almost certain to be fenced in.	World Cup fans Stanford Stadium are almost certain to be fenced in.	829378	1471957209215	1471957209371	S	83
1698	17345	World Cup fans at Stanford Stadium are almost certain to be fenced in.	World Cup fans Stanford Stadium are almost certain to be fenced in.	829381	1471957209730	1471957209917	t	84
1698	17345	World Cup fans at Stanford Stadium are almost certain to be fenced in.	World Cup fans Stanford Stadium are almost certain to be fenced in.	829382	1471957210058	1471957210276	a	65
1698	17345	World Cup fans at Stanford Stadium are almost certain to be fenced in.	World Cup fans Stanford Stadium are almost certain to be fenced in.	829384	1471957210385	1471957210526	n	78
1698	17345	World Cup fans at Stanford Stadium are almost certain to be fenced in.	World Cup fans Stanford Stadium are almost certain to be fenced in.	829387	1471957213474	1471957213630	f	70
1698	17345	World Cup fans at Stanford Stadium are almost certain to be fenced in.	World Cup fans Stanford Stadium are almost certain to be fenced in.	829519	1471957213864	1471957213989	o	79
1698	17345	World Cup fans at Stanford Stadium are almost certain to be fenced in.	World Cup fans Stanford Stadium are almost certain to be fenced in.	829523	1471957214067	1471957214176	r	82
1698	17345	World Cup fans at Stanford Stadium are almost certain to be fenced in.	World Cup fans Stanford Stadium are almost certain to be fenced in.	829526	1471957214488	1471957214629	d	68
1698	17345	World Cup fans at Stanford Stadium are almost certain to be fenced in.	World Cup fans Stanford Stadium are almost certain to be fenced in.	829530	1471957214909	1471957215050	 	32
1698	17345	World Cup fans at Stanford Stadium are almost certain to be fenced in.	World Cup fans Stanford Stadium are almost certain to be fenced in.	829533	1471957215565	1471957215830	SHIFT	16
1698	17345	World Cup fans at Stanford Stadium are almost certain to be fenced in.	World Cup fans Stanford Stadium are almost certain to be fenced in.	829790	1471957215752	1471957215892	S	83
1698	17345	World Cup fans at Stanford Stadium are almost certain to be fenced in.	World Cup fans Stanford Stadium are almost certain to be fenced in.	829794	1471957216157	1471957216267	t	84
1698	17345	World Cup fans at Stanford Stadium are almost certain to be fenced in.	World Cup fans Stanford Stadium are almost certain to be fenced in.	829801	1471957216329	1471957216516	a	65
1698	17345	World Cup fans at Stanford Stadium are almost certain to be fenced in.	World Cup fans Stanford Stadium are almost certain to be fenced in.	829806	1471957216859	1471957216984	d	68
1698	17345	World Cup fans at Stanford Stadium are almost certain to be fenced in.	World Cup fans Stanford Stadium are almost certain to be fenced in.	829810	1471957217125	1471957217218	u	85
1698	17345	World Cup fans at Stanford Stadium are almost certain to be fenced in.	World Cup fans Stanford Stadium are almost certain to be fenced in.	829813	1471957218649	1471957218805	BKSP	8
1698	17345	World Cup fans at Stanford Stadium are almost certain to be fenced in.	World Cup fans Stanford Stadium are almost certain to be fenced in.	829821	1471957219944	1471957220053	i	73
1698	17345	World Cup fans at Stanford Stadium are almost certain to be fenced in.	World Cup fans Stanford Stadium are almost certain to be fenced in.	829951	1471957220225	1471957220303	u	85
1698	17345	World Cup fans at Stanford Stadium are almost certain to be fenced in.	World Cup fans Stanford Stadium are almost certain to be fenced in.	829953	1471957220865	1471957220958	m	77
1698	17345	World Cup fans at Stanford Stadium are almost certain to be fenced in.	World Cup fans Stanford Stadium are almost certain to be fenced in.	829955	1471957221208	1471957221333	 	32
1698	17345	World Cup fans at Stanford Stadium are almost certain to be fenced in.	World Cup fans Stanford Stadium are almost certain to be fenced in.	829957	1471957221941	1471957222159	a	65
1698	17345	World Cup fans at Stanford Stadium are almost certain to be fenced in.	World Cup fans Stanford Stadium are almost certain to be fenced in.	829959	1471957222331	1471957222425	r	82
1698	17345	World Cup fans at Stanford Stadium are almost certain to be fenced in.	World Cup fans Stanford Stadium are almost certain to be fenced in.	830064	1471957222534	1471957222690	e	69
1698	17345	World Cup fans at Stanford Stadium are almost certain to be fenced in.	World Cup fans Stanford Stadium are almost certain to be fenced in.	830069	1471957222799	1471957222908	 	32
1698	17345	World Cup fans at Stanford Stadium are almost certain to be fenced in.	World Cup fans Stanford Stadium are almost certain to be fenced in.	830074	1471957223673	1471957223875	a	65
1698	17345	World Cup fans at Stanford Stadium are almost certain to be fenced in.	World Cup fans Stanford Stadium are almost certain to be fenced in.	830079	1471957224109	1471957224219	l	76
1698	17345	World Cup fans at Stanford Stadium are almost certain to be fenced in.	World Cup fans Stanford Stadium are almost certain to be fenced in.	830082	1471957224437	1471957224515	m	77
1698	17345	World Cup fans at Stanford Stadium are almost certain to be fenced in.	World Cup fans Stanford Stadium are almost certain to be fenced in.	830243	1471957224671	1471957224765	o	79
1698	17345	World Cup fans at Stanford Stadium are almost certain to be fenced in.	World Cup fans Stanford Stadium are almost certain to be fenced in.	830245	1471957224999	1471957225155	s	83
1698	17345	World Cup fans at Stanford Stadium are almost certain to be fenced in.	World Cup fans Stanford Stadium are almost certain to be fenced in.	830248	1471957225295	1471957225404	t	84
1698	17345	World Cup fans at Stanford Stadium are almost certain to be fenced in.	World Cup fans Stanford Stadium are almost certain to be fenced in.	830251	1471957225592	1471957225701	 	32
1698	17345	World Cup fans at Stanford Stadium are almost certain to be fenced in.	World Cup fans Stanford Stadium are almost certain to be fenced in.	830254	1471957226824	1471957226964	c	67
1698	17345	World Cup fans at Stanford Stadium are almost certain to be fenced in.	World Cup fans Stanford Stadium are almost certain to be fenced in.	830337	1471957227058	1471957227245	e	69
1698	17345	World Cup fans at Stanford Stadium are almost certain to be fenced in.	World Cup fans Stanford Stadium are almost certain to be fenced in.	830341	1471957227339	1471957227479	r	82
1698	17345	World Cup fans at Stanford Stadium are almost certain to be fenced in.	World Cup fans Stanford Stadium are almost certain to be fenced in.	830346	1471957227651	1471957227776	t	84
1698	17345	World Cup fans at Stanford Stadium are almost certain to be fenced in.	World Cup fans Stanford Stadium are almost certain to be fenced in.	830350	1471957227869	1471957228056	a	65
1698	17345	World Cup fans at Stanford Stadium are almost certain to be fenced in.	World Cup fans Stanford Stadium are almost certain to be fenced in.	830354	1471957228134	1471957228212	i	73
1698	17345	World Cup fans at Stanford Stadium are almost certain to be fenced in.	World Cup fans Stanford Stadium are almost certain to be fenced in.	830481	1471957228634	1471957228712	n	78
1698	17345	World Cup fans at Stanford Stadium are almost certain to be fenced in.	World Cup fans Stanford Stadium are almost certain to be fenced in.	830486	1471957229133	1471957229258	 	32
1698	17345	World Cup fans at Stanford Stadium are almost certain to be fenced in.	World Cup fans Stanford Stadium are almost certain to be fenced in.	830489	1471957229928	1471957230084	t	84
1698	17345	World Cup fans at Stanford Stadium are almost certain to be fenced in.	World Cup fans Stanford Stadium are almost certain to be fenced in.	830495	1471957230178	1471957230287	o	79
1698	17345	World Cup fans at Stanford Stadium are almost certain to be fenced in.	World Cup fans Stanford Stadium are almost certain to be fenced in.	830496	1471957230474	1471957230615	 	32
1698	17345	World Cup fans at Stanford Stadium are almost certain to be fenced in.	World Cup fans Stanford Stadium are almost certain to be fenced in.	830605	1471957230833	1471957230927	b	66
1698	17345	World Cup fans at Stanford Stadium are almost certain to be fenced in.	World Cup fans Stanford Stadium are almost certain to be fenced in.	830609	1471957231036	1471957231208	e	69
1698	17345	World Cup fans at Stanford Stadium are almost certain to be fenced in.	World Cup fans Stanford Stadium are almost certain to be fenced in.	830614	1471957231348	1471957231457	 	32
1698	17345	World Cup fans at Stanford Stadium are almost certain to be fenced in.	World Cup fans Stanford Stadium are almost certain to be fenced in.	830618	1471957232253	1471957232409	f	70
1698	17345	World Cup fans at Stanford Stadium are almost certain to be fenced in.	World Cup fans Stanford Stadium are almost certain to be fenced in.	830623	1471957232487	1471957232643	e	69
1698	17345	World Cup fans at Stanford Stadium are almost certain to be fenced in.	World Cup fans Stanford Stadium are almost certain to be fenced in.	830753	1471957232799	1471957232924	n	78
1698	17345	World Cup fans at Stanford Stadium are almost certain to be fenced in.	World Cup fans Stanford Stadium are almost certain to be fenced in.	830756	1471957233064	1471957233220	c	67
1698	17345	World Cup fans at Stanford Stadium are almost certain to be fenced in.	World Cup fans Stanford Stadium are almost certain to be fenced in.	830760	1471957233314	1471957233454	e	69
1698	17345	World Cup fans at Stanford Stadium are almost certain to be fenced in.	World Cup fans Stanford Stadium are almost certain to be fenced in.	830766	1471957233610	1471957233766	d	68
1698	17345	World Cup fans at Stanford Stadium are almost certain to be fenced in.	World Cup fans Stanford Stadium are almost certain to be fenced in.	830769	1471957235435	1471957235576	 	32
1698	17345	World Cup fans at Stanford Stadium are almost certain to be fenced in.	World Cup fans Stanford Stadium are almost certain to be fenced in.	830927	1471957236387	1471957236480	i	73
1698	17345	World Cup fans at Stanford Stadium are almost certain to be fenced in.	World Cup fans Stanford Stadium are almost certain to be fenced in.	830930	1471957236730	1471957236824	n	78
1698	17345	World Cup fans at Stanford Stadium are almost certain to be fenced in.	World Cup fans Stanford Stadium are almost certain to be fenced in.	830933	1471957237448	1471957237588	.	190
1698	17393	The qualifying continues on the west side of town.	The qualifying continues on the west side of town.	831198	1471957241379	1471957241660	SHIFT	16
1698	17393	The qualifying continues on the west side of town.	The qualifying continues on the west side of town.	831201	1471957241597	1471957241769	T	84
1698	17393	The qualifying continues on the west side of town.	The qualifying continues on the west side of town.	831205	1471957241878	1471957241987	h	72
1698	17393	The qualifying continues on the west side of town.	The qualifying continues on the west side of town.	831207	1471957242003	1471957242206	e	69
1698	17393	The qualifying continues on the west side of town.	The qualifying continues on the west side of town.	831212	1471957242346	1471957242455	 	32
1698	17393	The qualifying continues on the west side of town.	The qualifying continues on the west side of town.	831218	1471957243469	1471957243641	w	87
1698	17393	The qualifying continues on the west side of town.	The qualifying continues on the west side of town.	831316	1471957244171	1471957244327	BKSP	8
1698	17393	The qualifying continues on the west side of town.	The qualifying continues on the west side of town.	831319	1471957244405	1471957244577	q	81
1698	17393	The qualifying continues on the west side of town.	The qualifying continues on the west side of town.	831322	1471957244889	1471957244967	u	85
1698	17393	The qualifying continues on the west side of town.	The qualifying continues on the west side of town.	831325	1471957245232	1471957245450	a	65
1698	17393	The qualifying continues on the west side of town.	The qualifying continues on the west side of town.	831328	1471957245560	1471957245653	l	76
1698	17393	The qualifying continues on the west side of town.	The qualifying continues on the west side of town.	831331	1471957245856	1471957245950	i	73
1698	17393	The qualifying continues on the west side of town.	The qualifying continues on the west side of town.	831402	1471957246589	1471957246745	f	70
1698	17393	The qualifying continues on the west side of town.	The qualifying continues on the west side of town.	831403	1471957246839	1471957246917	y	89
1698	17393	The qualifying continues on the west side of town.	The qualifying continues on the west side of town.	831404	1471957247229	1471957247322	i	73
1698	17393	The qualifying continues on the west side of town.	The qualifying continues on the west side of town.	831406	1471957247556	1471957247666	n	78
1698	17393	The qualifying continues on the west side of town.	The qualifying continues on the west side of town.	831410	1471957247837	1471957248024	g	71
1698	17393	The qualifying continues on the west side of town.	The qualifying continues on the west side of town.	831669	1471957250801	1471957250942	 	32
1698	17393	The qualifying continues on the west side of town.	The qualifying continues on the west side of town.	831671	1471957251940	1471957252112	c	67
1698	17393	The qualifying continues on the west side of town.	The qualifying continues on the west side of town.	831674	1471957252205	1471957252299	o	79
1698	17393	The qualifying continues on the west side of town.	The qualifying continues on the west side of town.	831678	1471957252502	1471957252595	n	78
1698	17393	The qualifying continues on the west side of town.	The qualifying continues on the west side of town.	831682	1471957252782	1471957252938	t	84
1698	17393	The qualifying continues on the west side of town.	The qualifying continues on the west side of town.	831836	1471957254264	1471957254389	i	73
1698	17393	The qualifying continues on the west side of town.	The qualifying continues on the west side of town.	831839	1471957255091	1471957255169	n	78
1698	17393	The qualifying continues on the west side of town.	The qualifying continues on the west side of town.	831842	1471957255388	1471957255466	u	85
1698	17393	The qualifying continues on the west side of town.	The qualifying continues on the west side of town.	831845	1471957255590	1471957255731	e	69
1698	17393	The qualifying continues on the west side of town.	The qualifying continues on the west side of town.	831848	1471957255903	1471957256074	s	83
1698	17393	The qualifying continues on the west side of town.	The qualifying continues on the west side of town.	831978	1471957256261	1471957256386	 	32
1698	17393	The qualifying continues on the west side of town.	The qualifying continues on the west side of town.	831983	1471957257260	1471957257369	o	79
1698	17393	The qualifying continues on the west side of town.	The qualifying continues on the west side of town.	831990	1471957257556	1471957257665	n	78
1698	17393	The qualifying continues on the west side of town.	The qualifying continues on the west side of town.	831996	1471957257821	1471957257946	 	32
1698	17393	The qualifying continues on the west side of town.	The qualifying continues on the west side of town.	832001	1471957258040	1471957258211	t	84
1698	17393	The qualifying continues on the west side of town.	The qualifying continues on the west side of town.	832086	1471957258321	1471957258430	h	72
1698	17393	The qualifying continues on the west side of town.	The qualifying continues on the west side of town.	832088	1471957258461	1471957258648	e	69
1698	17393	The qualifying continues on the west side of town.	The qualifying continues on the west side of town.	832090	1471957258757	1471957258867	 	32
1698	17393	The qualifying continues on the west side of town.	The qualifying continues on the west side of town.	832096	1471957259288	1471957259428	w	87
1698	17393	The qualifying continues on the west side of town.	The qualifying continues on the west side of town.	832104	1471957259537	1471957259662	e	69
1698	17393	The qualifying continues on the west side of town.	The qualifying continues on the west side of town.	832228	1471957259849	1471957260005	s	83
1698	17393	The qualifying continues on the west side of town.	The qualifying continues on the west side of town.	832232	1471957260037	1471957260146	t	84
1698	17393	The qualifying continues on the west side of town.	The qualifying continues on the west side of town.	832236	1471957260349	1471957260458	 	32
1698	17393	The qualifying continues on the west side of town.	The qualifying continues on the west side of town.	832240	1471957261316	1471957261503	s	83
1698	17393	The qualifying continues on the west side of town.	The qualifying continues on the west side of town.	832244	1471957261519	1471957261628	i	73
1698	17393	The qualifying continues on the west side of town.	The qualifying continues on the west side of town.	832374	1471957261955	1471957262080	d	68
1698	17393	The qualifying continues on the west side of town.	The qualifying continues on the west side of town.	832376	1471957262189	1471957262361	e	69
1698	17393	The qualifying continues on the west side of town.	The qualifying continues on the west side of town.	832378	1471957262501	1471957262626	 	32
1698	17393	The qualifying continues on the west side of town.	The qualifying continues on the west side of town.	832380	1471957263609	1471957263734	o	79
1698	17393	The qualifying continues on the west side of town.	The qualifying continues on the west side of town.	832382	1471957263905	1471957264061	d	68
1698	17393	The qualifying continues on the west side of town.	The qualifying continues on the west side of town.	832501	1471957264763	1471957264857	BKSP	8
1698	17393	The qualifying continues on the west side of town.	The qualifying continues on the west side of town.	832503	1471957264951	1471957265107	f	70
1698	17393	The qualifying continues on the west side of town.	The qualifying continues on the west side of town.	832505	1471957265278	1471957265387	 	32
1698	17393	The qualifying continues on the west side of town.	The qualifying continues on the west side of town.	832506	1471957265512	1471957265668	t	84
1698	17393	The qualifying continues on the west side of town.	The qualifying continues on the west side of town.	832507	1471957265809	1471957265902	o	79
1698	17393	The qualifying continues on the west side of town.	The qualifying continues on the west side of town.	832508	1471957266183	1471957266339	w	87
1698	17393	The qualifying continues on the west side of town.	The qualifying continues on the west side of town.	832643	1471957266854	1471957266979	n	78
1698	17393	The qualifying continues on the west side of town.	The qualifying continues on the west side of town.	832645	1471957268367	1471957268445	.	190
1698	17431	Did we get ours back?	Did we get ours back?	832957	1471957271893	1471957272205	SHIFT	16
1698	17431	Did we get ours back?	Did we get ours back?	832960	1471957272142	1471957272314	D	68
1698	17431	Did we get ours back?	Did we get ours back?	832965	1471957272797	1471957272969	i	73
1698	17431	Did we get ours back?	Did we get ours back?	832972	1471957273047	1471957273203	d	68
1698	17431	Did we get ours back?	Did we get ours back?	832982	1471957273640	1471957273796	 	32
1698	17431	Did we get ours back?	Did we get ours back?	832991	1471957274467	1471957274623	w	87
1698	17431	Did we get ours back?	Did we get ours back?	833081	1471957274732	1471957274903	e	69
1698	17431	Did we get ours back?	Did we get ours back?	833088	1471957274997	1471957275122	 	32
1698	17431	Did we get ours back?	Did we get ours back?	833094	1471957275559	1471957275637	g	71
1698	17431	Did we get ours back?	Did we get ours back?	833097	1471957275715	1471957275886	e	69
1698	17431	Did we get ours back?	Did we get ours back?	833099	1471957275917	1471957276011	t	84
1698	17431	Did we get ours back?	Did we get ours back?	833248	1471957276261	1471957276385	 	32
1698	17431	Did we get ours back?	Did we get ours back?	833254	1471957277852	1471957277961	o	79
1698	17431	Did we get ours back?	Did we get ours back?	833261	1471957278211	1471957278335	u	85
1698	17431	Did we get ours back?	Did we get ours back?	833267	1471957278616	1471957278705	r	82
1698	17431	Did we get ours back?	Did we get ours back?	833271	1471957278845	1471957279032	s	83
1698	17431	Did we get ours back?	Did we get ours back?	833420	1471957279797	1471957279937	 	32
1698	17431	Did we get ours back?	Did we get ours back?	833423	1471957280468	1471957280592	b	66
1698	17431	Did we get ours back?	Did we get ours back?	833428	1471957280670	1471957280811	a	65
1698	17431	Did we get ours back?	Did we get ours back?	833432	1471957281138	1471957281310	c	67
1698	17431	Did we get ours back?	Did we get ours back?	833435	1471957281466	1471957281544	k	75
1698	17431	Did we get ours back?	Did we get ours back?	833498	1471957281981	1471957282246	SHIFT	16
1698	17431	Did we get ours back?	Did we get ours back?	833500	1471957282184	1471957282324	?	191
1698	17453	I know my way around the hospital better than I do the stadium.	I know my way around the hospital better tahn I do the stadium.	833769	1471957285834	1471957286583	SHIFT	16
1698	17453	I know my way around the hospital better than I do the stadium.	I know my way around the hospital better tahn I do the stadium.	833763	1471957286458	1471957286567	I	73
1698	17453	I know my way around the hospital better than I do the stadium.	I know my way around the hospital better tahn I do the stadium.	833775	1471957286786	1471957286864	 	32
1698	17453	I know my way around the hospital better than I do the stadium.	I know my way around the hospital better tahn I do the stadium.	833779	1471957287035	1471957287145	k	75
1698	17453	I know my way around the hospital better than I do the stadium.	I know my way around the hospital better tahn I do the stadium.	833782	1471957287285	1471957287379	n	78
1698	17453	I know my way around the hospital better than I do the stadium.	I know my way around the hospital better tahn I do the stadium.	833788	1471957287550	1471957287659	o	79
1698	17453	I know my way around the hospital better than I do the stadium.	I know my way around the hospital better tahn I do the stadium.	834089	1471957287878	1471957288112	w	87
1698	17453	I know my way around the hospital better than I do the stadium.	I know my way around the hospital better tahn I do the stadium.	834093	1471957288580	1471957288705	 	32
1698	17453	I know my way around the hospital better than I do the stadium.	I know my way around the hospital better tahn I do the stadium.	834100	1471957292729	1471957292839	m	77
1698	17453	I know my way around the hospital better than I do the stadium.	I know my way around the hospital better tahn I do the stadium.	834103	1471957293041	1471957293119	y	89
1698	17453	I know my way around the hospital better than I do the stadium.	I know my way around the hospital better tahn I do the stadium.	834111	1471957293338	1471957293463	 	32
1698	17453	I know my way around the hospital better than I do the stadium.	I know my way around the hospital better tahn I do the stadium.	834203	1471957293821	1471957293962	w	87
1698	17453	I know my way around the hospital better than I do the stadium.	I know my way around the hospital better tahn I do the stadium.	834209	1471957294071	1471957294211	a	65
1698	17453	I know my way around the hospital better than I do the stadium.	I know my way around the hospital better tahn I do the stadium.	834215	1471957294274	1471957294383	y	89
1698	17453	I know my way around the hospital better than I do the stadium.	I know my way around the hospital better tahn I do the stadium.	834220	1471957294570	1471957294679	 	32
1698	17453	I know my way around the hospital better than I do the stadium.	I know my way around the hospital better tahn I do the stadium.	834226	1471957295179	1471957295366	a	65
1698	17453	I know my way around the hospital better than I do the stadium.	I know my way around the hospital better tahn I do the stadium.	834317	1471957295834	1471957296005	r	82
1698	17453	I know my way around the hospital better than I do the stadium.	I know my way around the hospital better tahn I do the stadium.	834320	1471957296161	1471957296255	o	79
1698	17453	I know my way around the hospital better than I do the stadium.	I know my way around the hospital better tahn I do the stadium.	834323	1471957296427	1471957296505	u	85
1698	17453	I know my way around the hospital better than I do the stadium.	I know my way around the hospital better tahn I do the stadium.	834328	1471957296692	1471957296801	n	78
1698	17453	I know my way around the hospital better than I do the stadium.	I know my way around the hospital better tahn I do the stadium.	834334	1471957296910	1471957297113	d	68
1698	17453	I know my way around the hospital better than I do the stadium.	I know my way around the hospital better tahn I do the stadium.	834421	1471957297222	1471957297347	 	32
1698	17453	I know my way around the hospital better than I do the stadium.	I know my way around the hospital better tahn I do the stadium.	834427	1471957298018	1471957298174	t	84
1698	17453	I know my way around the hospital better than I do the stadium.	I know my way around the hospital better tahn I do the stadium.	834431	1471957298252	1471957298361	h	72
1698	17453	I know my way around the hospital better than I do the stadium.	I know my way around the hospital better tahn I do the stadium.	834435	1471957298423	1471957298595	e	69
1698	17453	I know my way around the hospital better than I do the stadium.	I know my way around the hospital better tahn I do the stadium.	834439	1471957298657	1471957298798	 	32
1698	17453	I know my way around the hospital better than I do the stadium.	I know my way around the hospital better tahn I do the stadium.	834502	1471957299250	1471957299344	h	72
1698	17453	I know my way around the hospital better than I do the stadium.	I know my way around the hospital better tahn I do the stadium.	834506	1471957299578	1471957299671	o	79
1698	17453	I know my way around the hospital better than I do the stadium.	I know my way around the hospital better tahn I do the stadium.	834513	1471957299796	1471957299952	s	83
1698	17453	I know my way around the hospital better than I do the stadium.	I know my way around the hospital better tahn I do the stadium.	834517	1471957300061	1471957300155	p	80
1698	17453	I know my way around the hospital better than I do the stadium.	I know my way around the hospital better tahn I do the stadium.	834522	1471957300358	1471957300436	i	73
1698	17453	I know my way around the hospital better than I do the stadium.	I know my way around the hospital better tahn I do the stadium.	834635	1471957300670	1471957300748	t	84
1698	17453	I know my way around the hospital better than I do the stadium.	I know my way around the hospital better tahn I do the stadium.	834637	1471957300873	1471957301075	a	65
1698	17453	I know my way around the hospital better than I do the stadium.	I know my way around the hospital better tahn I do the stadium.	834640	1471957301200	1471957301309	l	76
1698	17453	I know my way around the hospital better than I do the stadium.	I know my way around the hospital better tahn I do the stadium.	834646	1471957301528	1471957301653	 	32
1698	17453	I know my way around the hospital better than I do the stadium.	I know my way around the hospital better tahn I do the stadium.	834651	1471957302729	1471957302823	b	66
1698	17453	I know my way around the hospital better than I do the stadium.	I know my way around the hospital better tahn I do the stadium.	834689	1471957302916	1471957303072	e	69
1698	17453	I know my way around the hospital better than I do the stadium.	I know my way around the hospital better tahn I do the stadium.	834693	1471957303181	1471957303244	t	84
1698	17453	I know my way around the hospital better than I do the stadium.	I know my way around the hospital better tahn I do the stadium.	834696	1471957303369	1471957303447	t	84
1698	17453	I know my way around the hospital better than I do the stadium.	I know my way around the hospital better tahn I do the stadium.	834699	1471957303525	1471957303665	e	69
1698	17453	I know my way around the hospital better than I do the stadium.	I know my way around the hospital better tahn I do the stadium.	834701	1471957303712	1471957303805	r	82
1698	17453	I know my way around the hospital better than I do the stadium.	I know my way around the hospital better tahn I do the stadium.	834766	1471957304008	1471957304102	 	32
1698	17453	I know my way around the hospital better than I do the stadium.	I know my way around the hospital better tahn I do the stadium.	834773	1471957304773	1471957304944	t	84
1698	17453	I know my way around the hospital better than I do the stadium.	I know my way around the hospital better tahn I do the stadium.	834781	1471957305038	1471957305225	a	65
1698	17453	I know my way around the hospital better than I do the stadium.	I know my way around the hospital better tahn I do the stadium.	834788	1471957305272	1471957305365	h	72
1698	17453	I know my way around the hospital better than I do the stadium.	I know my way around the hospital better tahn I do the stadium.	834793	1471957305693	1471957305787	n	78
1698	17453	I know my way around the hospital better than I do the stadium.	I know my way around the hospital better tahn I do the stadium.	834863	1471957305927	1471957306036	 	32
1698	17453	I know my way around the hospital better than I do the stadium.	I know my way around the hospital better tahn I do the stadium.	834866	1471957306239	1471957306582	SHIFT	16
1698	17453	I know my way around the hospital better than I do the stadium.	I know my way around the hospital better tahn I do the stadium.	834873	1471957306535	1471957306645	I	73
1698	17453	I know my way around the hospital better than I do the stadium.	I know my way around the hospital better tahn I do the stadium.	834877	1471957306832	1471957306925	 	32
1698	17453	I know my way around the hospital better than I do the stadium.	I know my way around the hospital better tahn I do the stadium.	834881	1471957307066	1471957307237	d	68
1698	17453	I know my way around the hospital better than I do the stadium.	I know my way around the hospital better tahn I do the stadium.	834885	1471957307253	1471957307347	o	79
1698	17453	I know my way around the hospital better than I do the stadium.	I know my way around the hospital better tahn I do the stadium.	835020	1471957307581	1471957307690	 	32
1698	17453	I know my way around the hospital better than I do the stadium.	I know my way around the hospital better tahn I do the stadium.	835022	1471957308891	1471957309063	t	84
1698	17453	I know my way around the hospital better than I do the stadium.	I know my way around the hospital better tahn I do the stadium.	835024	1471957309203	1471957309328	h	72
1698	17453	I know my way around the hospital better than I do the stadium.	I know my way around the hospital better tahn I do the stadium.	835029	1471957309406	1471957309577	e	69
1698	17453	I know my way around the hospital better than I do the stadium.	I know my way around the hospital better tahn I do the stadium.	835034	1471957309749	1471957309874	 	32
1698	17453	I know my way around the hospital better than I do the stadium.	I know my way around the hospital better tahn I do the stadium.	835168	1471957310623	1471957310810	s	83
1698	17453	I know my way around the hospital better than I do the stadium.	I know my way around the hospital better tahn I do the stadium.	835171	1471957310903	1471957310981	t	84
1698	17453	I know my way around the hospital better than I do the stadium.	I know my way around the hospital better tahn I do the stadium.	835175	1471957311044	1471957311231	a	65
1698	17453	I know my way around the hospital better than I do the stadium.	I know my way around the hospital better tahn I do the stadium.	835179	1471957311730	1471957311933	d	68
1698	17453	I know my way around the hospital better than I do the stadium.	I know my way around the hospital better tahn I do the stadium.	835182	1471957312042	1471957312136	i	73
1698	17453	I know my way around the hospital better than I do the stadium.	I know my way around the hospital better tahn I do the stadium.	835253	1471957312245	1471957312339	u	85
1698	17453	I know my way around the hospital better than I do the stadium.	I know my way around the hospital better tahn I do the stadium.	835255	1471957312510	1471957312588	m	77
1698	17453	I know my way around the hospital better than I do the stadium.	I know my way around the hospital better tahn I do the stadium.	835258	1471957313119	1471957313197	.	190
1698	17491	I am staying at a Hotel.	I am staying at a hotel.	835506	1471957316441	1471957316831	SHIFT	16
1698	17491	I am staying at a Hotel.	I am staying at a hotel.	835509	1471957316753	1471957316863	I	73
1698	17491	I am staying at a Hotel.	I am staying at a hotel.	835513	1471957317034	1471957317128	 	32
1698	17491	I am staying at a Hotel.	I am staying at a hotel.	835515	1471957317190	1471957317377	a	65
1698	17491	I am staying at a Hotel.	I am staying at a hotel.	835520	1471957317409	1471957317487	m	77
1698	17491	I am staying at a Hotel.	I am staying at a hotel.	835522	1471957317658	1471957317767	 	32
1698	17491	I am staying at a Hotel.	I am staying at a hotel.	835686	1471957318392	1471957318594	s	83
1698	17491	I am staying at a Hotel.	I am staying at a hotel.	835689	1471957318719	1471957318813	t	84
1698	17491	I am staying at a Hotel.	I am staying at a hotel.	835692	1471957320123	1471957320435	a	65
1698	17491	I am staying at a Hotel.	I am staying at a hotel.	835695	1471957321012	1471957321184	y	89
1698	17491	I am staying at a Hotel.	I am staying at a hotel.	835697	1471957321293	1471957321371	i	73
1698	17491	I am staying at a Hotel.	I am staying at a hotel.	835772	1471957321558	1471957321652	n	78
1698	17491	I am staying at a Hotel.	I am staying at a hotel.	835776	1471957321746	1471957321902	g	71
1698	17491	I am staying at a Hotel.	I am staying at a hotel.	835782	1471957322042	1471957322151	 	32
1698	17491	I am staying at a Hotel.	I am staying at a hotel.	835790	1471957322370	1471957322588	a	65
1698	17491	I am staying at a Hotel.	I am staying at a hotel.	835795	1471957322884	1471957322978	t	84
1698	17491	I am staying at a Hotel.	I am staying at a hotel.	835847	1471957323165	1471957323259	 	32
1698	17491	I am staying at a Hotel.	I am staying at a hotel.	835850	1471957323352	1471957323555	a	65
1698	17491	I am staying at a Hotel.	I am staying at a hotel.	835855	1471957323633	1471957323742	 	32
1698	17491	I am staying at a Hotel.	I am staying at a hotel.	835862	1471957324023	1471957324226	h	72
1698	17491	I am staying at a Hotel.	I am staying at a hotel.	835865	1471957324242	1471957324335	o	79
1698	17491	I am staying at a Hotel.	I am staying at a hotel.	836082	1471957324710	1471957324788	t	84
1698	17491	I am staying at a Hotel.	I am staying at a hotel.	836086	1471957324928	1471957325100	e	69
1698	17491	I am staying at a Hotel.	I am staying at a hotel.	836088	1471957326691	1471957326769	l	76
1698	17491	I am staying at a Hotel.	I am staying at a hotel.	836090	1471957328532	1471957328594	.	190
1698	17507	Please call me if you see any problems.	Please call me if you see any problems.	836431	1471957332120	1471957332868	SHIFT	16
1698	17507	Please call me if you see any problems.	Please call me if you see any problems.	836426	1471957332556	1471957332650	O	79
1698	17507	Please call me if you see any problems.	Please call me if you see any problems.	836433	1471957333524	1471957333664	BKSP	8
1698	17507	Please call me if you see any problems.	Please call me if you see any problems.	836435	1471957334132	1471957334662	SHIFT	16
1698	17507	Please call me if you see any problems.	Please call me if you see any problems.	836436	1471957334538	1471957334678	P	80
1698	17507	Please call me if you see any problems.	Please call me if you see any problems.	836437	1471957334818	1471957334912	l	76
1698	17507	Please call me if you see any problems.	Please call me if you see any problems.	836438	1471957335037	1471957335193	e	69
1698	17507	Please call me if you see any problems.	Please call me if you see any problems.	836440	1471957335255	1471957335442	a	65
1698	17507	Please call me if you see any problems.	Please call me if you see any problems.	836507	1471957335567	1471957335692	s	83
1698	17507	Please call me if you see any problems.	Please call me if you see any problems.	836510	1471957335817	1471957335973	e	69
1698	17507	Please call me if you see any problems.	Please call me if you see any problems.	836512	1471957336098	1471957336207	 	32
1698	17507	Please call me if you see any problems.	Please call me if you see any problems.	836515	1471957337018	1471957337158	c	67
1698	17507	Please call me if you see any problems.	Please call me if you see any problems.	836586	1471957337112	1471957337346	a	65
1698	17507	Please call me if you see any problems.	Please call me if you see any problems.	836588	1471957337704	1471957337782	l	76
1698	17507	Please call me if you see any problems.	Please call me if you see any problems.	836592	1471957337907	1471957338001	l	76
1698	17507	Please call me if you see any problems.	Please call me if you see any problems.	836595	1471957338172	1471957338266	 	32
1698	17507	Please call me if you see any problems.	Please call me if you see any problems.	836598	1471957338438	1471957338531	m	77
1698	17507	Please call me if you see any problems.	Please call me if you see any problems.	836603	1471957338625	1471957338810	e	69
1698	17507	Please call me if you see any problems.	Please call me if you see any problems.	836732	1471957338888	1471957338997	 	32
1698	17507	Please call me if you see any problems.	Please call me if you see any problems.	836733	1471957339902	1471957340011	i	73
1698	17507	Please call me if you see any problems.	Please call me if you see any problems.	836736	1471957340183	1471957340339	f	70
1698	17507	Please call me if you see any problems.	Please call me if you see any problems.	836739	1471957340448	1471957340573	 	32
1698	17507	Please call me if you see any problems.	Please call me if you see any problems.	836742	1471957341244	1471957341384	y	89
1698	17507	Please call me if you see any problems.	Please call me if you see any problems.	836816	1471957341462	1471957341540	o	79
1698	17507	Please call me if you see any problems.	Please call me if you see any problems.	836819	1471957341727	1471957341821	u	85
1698	17507	Please call me if you see any problems.	Please call me if you see any problems.	836822	1471957342039	1471957342133	 	32
1698	17507	Please call me if you see any problems.	Please call me if you see any problems.	836825	1471957342850	1471957342991	s	83
1698	17507	Please call me if you see any problems.	Please call me if you see any problems.	836828	1471957343147	1471957343240	e	69
1698	17507	Please call me if you see any problems.	Please call me if you see any problems.	836871	1471957343303	1471957343412	e	69
1698	17507	Please call me if you see any problems.	Please call me if you see any problems.	836876	1471957343630	1471957343740	 	32
1698	17507	Please call me if you see any problems.	Please call me if you see any problems.	836882	1471957343802	1471957343989	a	65
1698	17507	Please call me if you see any problems.	Please call me if you see any problems.	836888	1471957344005	1471957344083	n	78
1698	17507	Please call me if you see any problems.	Please call me if you see any problems.	836892	1471957344239	1471957344317	y	89
1698	17507	Please call me if you see any problems.	Please call me if you see any problems.	836971	1471957344473	1471957344582	 	32
1698	17507	Please call me if you see any problems.	Please call me if you see any problems.	836975	1471957344800	1471957344894	p	80
1698	17507	Please call me if you see any problems.	Please call me if you see any problems.	836980	1471957345144	1471957345300	r	82
1698	17507	Please call me if you see any problems.	Please call me if you see any problems.	836985	1471957345378	1471957345471	o	79
1698	17507	Please call me if you see any problems.	Please call me if you see any problems.	836988	1471957345939	1471957346033	b	66
1698	17507	Please call me if you see any problems.	Please call me if you see any problems.	837065	1471957346282	1471957346360	l	76
1698	17507	Please call me if you see any problems.	Please call me if you see any problems.	837069	1471957346501	1471957346672	e	69
1698	17507	Please call me if you see any problems.	Please call me if you see any problems.	837073	1471957346782	1471957346875	m	77
1698	17507	Please call me if you see any problems.	Please call me if you see any problems.	837078	1471957346969	1471957347125	s	83
1698	17507	Please call me if you see any problems.	Please call me if you see any problems.	837083	1471957347671	1471957347749	.	190
1698	17531	The mud was their idea.	The mud was their idea.	837328	1471957350963	1471957351337	SHIFT	16
1698	17531	The mud was their idea.	The mud was their idea.	837333	1471957351228	1471957351384	T	84
1698	17531	The mud was their idea.	The mud was their idea.	837336	1471957351477	1471957351571	h	72
1698	17531	The mud was their idea.	The mud was their idea.	837339	1471957351618	1471957351758	e	69
1698	17531	The mud was their idea.	The mud was their idea.	837342	1471957351821	1471957351930	 	32
1698	17531	The mud was their idea.	The mud was their idea.	837344	1471957352226	1471957352304	m	77
1698	17531	The mud was their idea.	The mud was their idea.	837427	1471957352491	1471957352569	u	85
1698	17531	The mud was their idea.	The mud was their idea.	837429	1471957353131	1471957353303	d	68
1698	17531	The mud was their idea.	The mud was their idea.	837431	1471957353474	1471957353583	 	32
1698	17531	The mud was their idea.	The mud was their idea.	837433	1471957354270	1471957354441	w	87
1698	17531	The mud was their idea.	The mud was their idea.	837436	1471957354488	1471957354629	a	65
1698	17531	The mud was their idea.	The mud was their idea.	837556	1471957354769	1471957354909	s	83
1698	17531	The mud was their idea.	The mud was their idea.	837562	1471957355065	1471957355190	 	32
1698	17531	The mud was their idea.	The mud was their idea.	837566	1471957355939	1471957356126	t	84
1698	17531	The mud was their idea.	The mud was their idea.	837570	1471957356485	1471957356579	h	72
1698	17531	The mud was their idea.	The mud was their idea.	837572	1471957356703	1471957356844	e	69
1698	17531	The mud was their idea.	The mud was their idea.	837698	1471957357218	1471957357312	i	73
1698	17531	The mud was their idea.	The mud was their idea.	837700	1471957357405	1471957357577	r	82
1698	17531	The mud was their idea.	The mud was their idea.	837702	1471957357686	1471957357827	 	32
1698	17531	The mud was their idea.	The mud was their idea.	837704	1471957358872	1471957359012	i	73
1698	17531	The mud was their idea.	The mud was their idea.	837705	1471957359168	1471957359262	d	68
1698	17531	The mud was their idea.	The mud was their idea.	837792	1471957359387	1471957359496	e	69
1698	17531	The mud was their idea.	The mud was their idea.	837795	1471957359621	1471957359792	a	65
1698	17531	The mud was their idea.	The mud was their idea.	837800	1471957360073	1471957360167	,	188
1698	17531	The mud was their idea.	The mud was their idea.	837803	1471957360697	1471957360759	BKSP	8
1698	17531	The mud was their idea.	The mud was their idea.	837807	1471957361025	1471957361103	.	190
1698	17541	This year I can walk and it's so much better.	This year I can walk and it;s so much better.	837985	1471957364472	1471957364847	SHIFT	16
1698	17541	This year I can walk and it's so much better.	This year I can walk and it;s so much better.	837987	1471957364753	1471957364909	T	84
1698	17541	This year I can walk and it's so much better.	This year I can walk and it;s so much better.	837989	1471957365018	1471957365127	h	72
1698	17541	This year I can walk and it's so much better.	This year I can walk and it;s so much better.	837992	1471957365268	1471957365377	i	73
1698	17541	This year I can walk and it's so much better.	This year I can walk and it;s so much better.	837995	1471957365424	1471957365595	s	83
1698	17541	This year I can walk and it's so much better.	This year I can walk and it;s so much better.	837998	1471957365689	1471957365783	 	32
1698	17541	This year I can walk and it's so much better.	This year I can walk and it;s so much better.	838075	1471957367077	1471957367155	y	89
1698	17541	This year I can walk and it's so much better.	This year I can walk and it;s so much better.	838076	1471957367296	1471957367499	e	69
1698	17541	This year I can walk and it's so much better.	This year I can walk and it;s so much better.	838077	1471957367623	1471957367811	a	65
1698	17541	This year I can walk and it's so much better.	This year I can walk and it;s so much better.	838078	1471957367904	1471957368029	r	82
1698	17541	This year I can walk and it's so much better.	This year I can walk and it;s so much better.	838079	1471957368325	1471957368435	 	32
1698	17541	This year I can walk and it's so much better.	This year I can walk and it;s so much better.	838219	1471957369246	1471957369589	SHIFT	16
1698	17541	This year I can walk and it's so much better.	This year I can walk and it;s so much better.	838220	1471957369511	1471957369620	I	73
1698	17541	This year I can walk and it's so much better.	This year I can walk and it;s so much better.	838225	1471957369823	1471957369917	 	32
1698	17541	This year I can walk and it's so much better.	This year I can walk and it;s so much better.	838227	1471957370166	1471957370275	c	67
1698	17541	This year I can walk and it's so much better.	This year I can walk and it;s so much better.	838229	1471957370338	1471957370525	a	65
1698	17541	This year I can walk and it's so much better.	This year I can walk and it;s so much better.	838231	1471957371804	1471957371898	n	78
1698	17541	This year I can walk and it's so much better.	This year I can walk and it;s so much better.	838286	1471957372054	1471957372163	 	32
1698	17541	This year I can walk and it's so much better.	This year I can walk and it;s so much better.	838290	1471957372335	1471957372491	w	87
1698	17541	This year I can walk and it's so much better.	This year I can walk and it;s so much better.	838294	1471957372584	1471957372756	a	65
1698	17541	This year I can walk and it's so much better.	This year I can walk and it;s so much better.	838299	1471957372881	1471957372974	l	76
1698	17541	This year I can walk and it's so much better.	This year I can walk and it;s so much better.	838302	1471957373130	1471957373208	k	75
1698	17541	This year I can walk and it's so much better.	This year I can walk and it;s so much better.	838413	1471957373411	1471957373520	 	32
1698	17541	This year I can walk and it's so much better.	This year I can walk and it;s so much better.	838416	1471957374144	1471957374331	a	65
1698	17541	This year I can walk and it's so much better.	This year I can walk and it;s so much better.	838421	1471957375252	1471957375361	n	78
1698	17541	This year I can walk and it's so much better.	This year I can walk and it;s so much better.	838423	1471957375470	1471957375642	d	68
1698	17541	This year I can walk and it's so much better.	This year I can walk and it;s so much better.	838428	1471957375782	1471957375891	 	32
1698	17541	This year I can walk and it's so much better.	This year I can walk and it;s so much better.	838565	1471957376859	1471957376999	i	73
1698	17541	This year I can walk and it's so much better.	This year I can walk and it;s so much better.	838569	1471957377327	1471957377483	t	84
1698	17541	This year I can walk and it's so much better.	This year I can walk and it;s so much better.	838574	1471957377779	1471957377873	;	186
1698	17541	This year I can walk and it's so much better.	This year I can walk and it;s so much better.	838576	1471957377982	1471957378169	s	83
1698	17541	This year I can walk and it's so much better.	This year I can walk and it;s so much better.	838580	1471957378325	1471957378450	 	32
1698	17541	This year I can walk and it's so much better.	This year I can walk and it;s so much better.	838682	1471957380057	1471957380213	s	83
1698	17541	This year I can walk and it's so much better.	This year I can walk and it;s so much better.	838686	1471957380322	1471957380415	o	79
1698	17541	This year I can walk and it's so much better.	This year I can walk and it;s so much better.	838689	1471957380603	1471957380712	 	32
1698	17541	This year I can walk and it's so much better.	This year I can walk and it;s so much better.	838694	1471957380868	1471957380977	m	77
1698	17541	This year I can walk and it's so much better.	This year I can walk and it;s so much better.	838699	1471957381164	1471957381258	u	85
1698	17541	This year I can walk and it's so much better.	This year I can walk and it;s so much better.	838801	1471957381508	1471957381664	c	67
1698	17541	This year I can walk and it's so much better.	This year I can walk and it;s so much better.	838805	1471957381835	1471957381960	h	72
1698	17541	This year I can walk and it's so much better.	This year I can walk and it;s so much better.	838808	1471957382163	1471957382288	 	32
1698	17541	This year I can walk and it's so much better.	This year I can walk and it;s so much better.	838810	1471957383317	1471957383411	b	66
1698	17541	This year I can walk and it's so much better.	This year I can walk and it;s so much better.	838815	1471957383489	1471957383645	e	69
1698	17541	This year I can walk and it's so much better.	This year I can walk and it;s so much better.	838865	1471957383738	1471957383801	t	84
1698	17541	This year I can walk and it's so much better.	This year I can walk and it;s so much better.	838866	1471957383926	1471957384004	t	84
1698	17541	This year I can walk and it's so much better.	This year I can walk and it;s so much better.	838867	1471957384082	1471957384222	e	69
1698	17541	This year I can walk and it's so much better.	This year I can walk and it;s so much better.	838869	1471957384206	1471957384284	r	82
1698	17541	This year I can walk and it's so much better.	This year I can walk and it;s so much better.	838871	1471957384924	1471957385002	.	190
1698	17567	I will add this to the folder and let you know when we get into it.	I will add this to the folder and let you know when we get into it.	839068	1471957388325	1471957388668	SHIFT	16
1698	17567	I will add this to the folder and let you know when we get into it.	I will add this to the folder and let you know when we get into it.	839072	1471957388606	1471957388715	I	73
1698	17567	I will add this to the folder and let you know when we get into it.	I will add this to the folder and let you know when we get into it.	839077	1471957388886	1471957388996	 	32
1698	17567	I will add this to the folder and let you know when we get into it.	I will add this to the folder and let you know when we get into it.	839081	1471957389089	1471957389245	w	87
1698	17567	I will add this to the folder and let you know when we get into it.	I will add this to the folder and let you know when we get into it.	839083	1471957389292	1471957389370	i	73
1698	17567	I will add this to the folder and let you know when we get into it.	I will add this to the folder and let you know when we get into it.	839085	1471957389542	1471957389620	l	76
1698	17567	I will add this to the folder and let you know when we get into it.	I will add this to the folder and let you know when we get into it.	839161	1471957389729	1471957389807	l	76
1698	17567	I will add this to the folder and let you know when we get into it.	I will add this to the folder and let you know when we get into it.	839163	1471957390025	1471957390134	 	32
1698	17567	I will add this to the folder and let you know when we get into it.	I will add this to the folder and let you know when we get into it.	839165	1471957390680	1471957390836	a	65
1698	17567	I will add this to the folder and let you know when we get into it.	I will add this to the folder and let you know when we get into it.	839168	1471957391070	1471957391164	d	68
1698	17567	I will add this to the folder and let you know when we get into it.	I will add this to the folder and let you know when we get into it.	839171	1471957391258	1471957391382	d	68
1698	17567	I will add this to the folder and let you know when we get into it.	I will add this to the folder and let you know when we get into it.	839279	1471957391570	1471957391679	 	32
1698	17567	I will add this to the folder and let you know when we get into it.	I will add this to the folder and let you know when we get into it.	839283	1471957392396	1471957392552	t	84
1698	17567	I will add this to the folder and let you know when we get into it.	I will add this to the folder and let you know when we get into it.	839286	1471957392662	1471957392755	h	72
1698	17567	I will add this to the folder and let you know when we get into it.	I will add this to the folder and let you know when we get into it.	839289	1471957392927	1471957393020	i	73
1698	17567	I will add this to the folder and let you know when we get into it.	I will add this to the folder and let you know when we get into it.	839292	1471957393130	1471957393317	s	83
1698	17567	I will add this to the folder and let you know when we get into it.	I will add this to the folder and let you know when we get into it.	839385	1471957393395	1471957393488	 	32
1698	17567	I will add this to the folder and let you know when we get into it.	I will add this to the folder and let you know when we get into it.	839388	1471957394268	1471957394456	t	84
1698	17567	I will add this to the folder and let you know when we get into it.	I will add this to the folder and let you know when we get into it.	839390	1471957394502	1471957394596	o	79
1698	17567	I will add this to the folder and let you know when we get into it.	I will add this to the folder and let you know when we get into it.	839392	1471957394768	1471957394892	 	32
1698	17567	I will add this to the folder and let you know when we get into it.	I will add this to the folder and let you know when we get into it.	839394	1471957394986	1471957395126	t	84
1698	17567	I will add this to the folder and let you know when we get into it.	I will add this to the folder and let you know when we get into it.	839467	1471957395204	1471957395314	h	72
1698	17567	I will add this to the folder and let you know when we get into it.	I will add this to the folder and let you know when we get into it.	839471	1471957395345	1471957395501	e	69
1698	17567	I will add this to the folder and let you know when we get into it.	I will add this to the folder and let you know when we get into it.	839476	1471957395626	1471957395719	 	32
1698	17567	I will add this to the folder and let you know when we get into it.	I will add this to the folder and let you know when we get into it.	839480	1471957396749	1471957396920	f	70
1698	17567	I will add this to the folder and let you know when we get into it.	I will add this to the folder and let you know when we get into it.	839484	1471957397014	1471957397092	o	79
1698	17567	I will add this to the folder and let you know when we get into it.	I will add this to the folder and let you know when we get into it.	839538	1471957397232	1471957397326	l	76
1698	17567	I will add this to the folder and let you know when we get into it.	I will add this to the folder and let you know when we get into it.	839542	1471957397451	1471957397560	d	68
1698	17567	I will add this to the folder and let you know when we get into it.	I will add this to the folder and let you know when we get into it.	839546	1471957397669	1471957397794	e	69
1698	17567	I will add this to the folder and let you know when we get into it.	I will add this to the folder and let you know when we get into it.	839551	1471957397888	1471957398012	r	82
1698	17567	I will add this to the folder and let you know when we get into it.	I will add this to the folder and let you know when we get into it.	839555	1471957398262	1471957398371	 	32
1698	17567	I will add this to the folder and let you know when we get into it.	I will add this to the folder and let you know when we get into it.	839664	1471957398870	1471957399088	a	65
1698	17567	I will add this to the folder and let you know when we get into it.	I will add this to the folder and let you know when we get into it.	839667	1471957399322	1471957399431	n	78
1698	17567	I will add this to the folder and let you know when we get into it.	I will add this to the folder and let you know when we get into it.	839671	1471957399884	1471957400024	d	68
1698	17567	I will add this to the folder and let you know when we get into it.	I will add this to the folder and let you know when we get into it.	839675	1471957400133	1471957400258	 	32
1698	17567	I will add this to the folder and let you know when we get into it.	I will add this to the folder and let you know when we get into it.	839682	1471957400617	1471957400726	l	76
1698	17567	I will add this to the folder and let you know when we get into it.	I will add this to the folder and let you know when we get into it.	839846	1471957401194	1471957401319	e	69
1698	17567	I will add this to the folder and let you know when we get into it.	I will add this to the folder and let you know when we get into it.	839855	1471957401569	1471957401631	t	84
1698	17567	I will add this to the folder and let you know when we get into it.	I will add this to the folder and let you know when we get into it.	839861	1471957402411	1471957402536	 	32
1698	17567	I will add this to the folder and let you know when we get into it.	I will add this to the folder and let you know when we get into it.	839869	1471957403253	1471957403441	y	89
1698	17567	I will add this to the folder and let you know when we get into it.	I will add this to the folder and let you know when we get into it.	839877	1471957403519	1471957403597	o	79
1698	17567	I will add this to the folder and let you know when we get into it.	I will add this to the folder and let you know when we get into it.	839962	1471957403768	1471957403846	u	85
1698	17567	I will add this to the folder and let you know when we get into it.	I will add this to the folder and let you know when we get into it.	839964	1471957403987	1471957404096	 	32
1698	17567	I will add this to the folder and let you know when we get into it.	I will add this to the folder and let you know when we get into it.	839967	1471957404267	1471957404361	k	75
1698	17567	I will add this to the folder and let you know when we get into it.	I will add this to the folder and let you know when we get into it.	839971	1471957404533	1471957404626	n	78
1698	17567	I will add this to the folder and let you know when we get into it.	I will add this to the folder and let you know when we get into it.	839976	1471957404813	1471957404923	o	79
1698	17567	I will add this to the folder and let you know when we get into it.	I will add this to the folder and let you know when we get into it.	840192	1471957405063	1471957405235	w	87
1698	17567	I will add this to the folder and let you know when we get into it.	I will add this to the folder and let you know when we get into it.	840198	1471957405375	1471957405484	 	32
1698	17567	I will add this to the folder and let you know when we get into it.	I will add this to the folder and let you know when we get into it.	840206	1471957406857	1471957407013	w	87
1698	17567	I will add this to the folder and let you know when we get into it.	I will add this to the folder and let you know when we get into it.	840213	1471957407777	1471957407887	h	72
1698	17567	I will add this to the folder and let you know when we get into it.	I will add this to the folder and let you know when we get into it.	840219	1471957408074	1471957408245	e	69
1698	17567	I will add this to the folder and let you know when we get into it.	I will add this to the folder and let you know when we get into it.	840329	1471957408339	1471957408479	n	78
1698	17567	I will add this to the folder and let you know when we get into it.	I will add this to the folder and let you know when we get into it.	840332	1471957408713	1471957408854	 	32
1698	17567	I will add this to the folder and let you know when we get into it.	I will add this to the folder and let you know when we get into it.	840336	1471957410102	1471957410242	w	87
1698	17567	I will add this to the folder and let you know when we get into it.	I will add this to the folder and let you know when we get into it.	840339	1471957410383	1471957410507	e	69
1698	17567	I will add this to the folder and let you know when we get into it.	I will add this to the folder and let you know when we get into it.	840341	1471957410648	1471957410757	 	32
1698	17567	I will add this to the folder and let you know when we get into it.	I will add this to the folder and let you know when we get into it.	840447	1471957411116	1471957411209	g	71
1698	17567	I will add this to the folder and let you know when we get into it.	I will add this to the folder and let you know when we get into it.	840450	1471957411272	1471957411428	e	69
1698	17567	I will add this to the folder and let you know when we get into it.	I will add this to the folder and let you know when we get into it.	840453	1471957411615	1471957411787	t	84
1698	17567	I will add this to the folder and let you know when we get into it.	I will add this to the folder and let you know when we get into it.	840457	1471957411958	1471957412068	 	32
1698	17567	I will add this to the folder and let you know when we get into it.	I will add this to the folder and let you know when we get into it.	840462	1471957412941	1471957413019	i	73
1698	17567	I will add this to the folder and let you know when we get into it.	I will add this to the folder and let you know when we get into it.	840526	1471957413253	1471957413347	n	78
1698	17567	I will add this to the folder and let you know when we get into it.	I will add this to the folder and let you know when we get into it.	840527	1471957413440	1471957413581	t	84
1698	17567	I will add this to the folder and let you know when we get into it.	I will add this to the folder and let you know when we get into it.	840528	1471957413752	1471957413830	o	79
1698	17567	I will add this to the folder and let you know when we get into it.	I will add this to the folder and let you know when we get into it.	840529	1471957414033	1471957414142	 	32
1698	17567	I will add this to the folder and let you know when we get into it.	I will add this to the folder and let you know when we get into it.	840530	1471957414314	1471957414392	i	73
1698	17567	I will add this to the folder and let you know when we get into it.	I will add this to the folder and let you know when we get into it.	840593	1471957414486	1471957414626	t	84
1698	17567	I will add this to the folder and let you know when we get into it.	I will add this to the folder and let you know when we get into it.	840597	1471957415609	1471957415718	.	190
1698	17600	We lost 1 player this week who picked Baltimore, sorry.	We lost 1 player this week who picked Baltimore, sorry.	840902	1471957420382	1471957420663	SHIFT	16
1698	17600	We lost 1 player this week who picked Baltimore, sorry.	We lost 1 player this week who picked Baltimore, sorry.	840904	1471957420648	1471957420788	W	87
1698	17600	We lost 1 player this week who picked Baltimore, sorry.	We lost 1 player this week who picked Baltimore, sorry.	840908	1471957420913	1471957421053	e	69
1698	17600	We lost 1 player this week who picked Baltimore, sorry.	We lost 1 player this week who picked Baltimore, sorry.	840910	1471957421116	1471957421225	 	32
1698	17600	We lost 1 player this week who picked Baltimore, sorry.	We lost 1 player this week who picked Baltimore, sorry.	840913	1471957421412	1471957421521	l	76
1698	17600	We lost 1 player this week who picked Baltimore, sorry.	We lost 1 player this week who picked Baltimore, sorry.	840919	1471957421693	1471957421786	o	79
1698	17600	We lost 1 player this week who picked Baltimore, sorry.	We lost 1 player this week who picked Baltimore, sorry.	841054	1471957421896	1471957422036	s	83
1698	17600	We lost 1 player this week who picked Baltimore, sorry.	We lost 1 player this week who picked Baltimore, sorry.	841056	1471957422176	1471957422286	t	84
1698	17600	We lost 1 player this week who picked Baltimore, sorry.	We lost 1 player this week who picked Baltimore, sorry.	841058	1471957422488	1471957422598	 	32
1698	17600	We lost 1 player this week who picked Baltimore, sorry.	We lost 1 player this week who picked Baltimore, sorry.	841060	1471957423690	1471957423830	1	49
1698	17600	We lost 1 player this week who picked Baltimore, sorry.	We lost 1 player this week who picked Baltimore, sorry.	841062	1471957424158	1471957424267	 	32
1698	17600	We lost 1 player this week who picked Baltimore, sorry.	We lost 1 player this week who picked Baltimore, sorry.	841168	1471957424470	1471957424579	p	80
1698	17600	We lost 1 player this week who picked Baltimore, sorry.	We lost 1 player this week who picked Baltimore, sorry.	841170	1471957424704	1471957424797	l	76
1698	17600	We lost 1 player this week who picked Baltimore, sorry.	We lost 1 player this week who picked Baltimore, sorry.	841172	1471957424860	1471957425047	a	65
1698	17600	We lost 1 player this week who picked Baltimore, sorry.	We lost 1 player this week who picked Baltimore, sorry.	841174	1471957425702	1471957425827	e	69
1698	17600	We lost 1 player this week who picked Baltimore, sorry.	We lost 1 player this week who picked Baltimore, sorry.	841178	1471957426045	1471957426154	r	82
1698	17600	We lost 1 player this week who picked Baltimore, sorry.	We lost 1 player this week who picked Baltimore, sorry.	841408	1471957426763	1471957426888	BKSP	8
1698	17600	We lost 1 player this week who picked Baltimore, sorry.	We lost 1 player this week who picked Baltimore, sorry.	841412	1471957426950	1471957427028	BKSP	8
1698	17600	We lost 1 player this week who picked Baltimore, sorry.	We lost 1 player this week who picked Baltimore, sorry.	841416	1471957428307	1471957428416	y	89
1698	17600	We lost 1 player this week who picked Baltimore, sorry.	We lost 1 player this week who picked Baltimore, sorry.	841418	1471957428479	1471957428619	e	69
1698	17600	We lost 1 player this week who picked Baltimore, sorry.	We lost 1 player this week who picked Baltimore, sorry.	841420	1471957428697	1471957428806	r	82
1698	17600	We lost 1 player this week who picked Baltimore, sorry.	We lost 1 player this week who picked Baltimore, sorry.	841422	1471957429009	1471957429134	 	32
1698	17600	We lost 1 player this week who picked Baltimore, sorry.	We lost 1 player this week who picked Baltimore, sorry.	841424	1471957429883	1471957430054	t	84
1698	17600	We lost 1 player this week who picked Baltimore, sorry.	We lost 1 player this week who picked Baltimore, sorry.	841446	1471957430101	1471957430179	h	72
1698	17600	We lost 1 player this week who picked Baltimore, sorry.	We lost 1 player this week who picked Baltimore, sorry.	841450	1471957430335	1471957430429	i	73
1698	17600	We lost 1 player this week who picked Baltimore, sorry.	We lost 1 player this week who picked Baltimore, sorry.	841456	1471957430491	1471957430647	s	83
1698	17600	We lost 1 player this week who picked Baltimore, sorry.	We lost 1 player this week who picked Baltimore, sorry.	841460	1471957430710	1471957430819	 	32
1698	17600	We lost 1 player this week who picked Baltimore, sorry.	We lost 1 player this week who picked Baltimore, sorry.	841464	1471957430959	1471957431100	w	87
1698	17600	We lost 1 player this week who picked Baltimore, sorry.	We lost 1 player this week who picked Baltimore, sorry.	841538	1471957431224	1471957431318	e	69
1698	17600	We lost 1 player this week who picked Baltimore, sorry.	We lost 1 player this week who picked Baltimore, sorry.	841541	1471957431412	1471957431505	e	69
1698	17600	We lost 1 player this week who picked Baltimore, sorry.	We lost 1 player this week who picked Baltimore, sorry.	841544	1471957431630	1471957431724	k	75
1698	17600	We lost 1 player this week who picked Baltimore, sorry.	We lost 1 player this week who picked Baltimore, sorry.	841546	1471957431880	1471957431989	 	32
1698	17600	We lost 1 player this week who picked Baltimore, sorry.	We lost 1 player this week who picked Baltimore, sorry.	841549	1471957432831	1471957433034	w	87
1698	17600	We lost 1 player this week who picked Baltimore, sorry.	We lost 1 player this week who picked Baltimore, sorry.	841665	1471957433159	1471957433237	h	72
1698	17600	We lost 1 player this week who picked Baltimore, sorry.	We lost 1 player this week who picked Baltimore, sorry.	841666	1471957433440	1471957433533	o	79
1698	17600	We lost 1 player this week who picked Baltimore, sorry.	We lost 1 player this week who picked Baltimore, sorry.	841668	1471957433720	1471957433830	 	32
1698	17600	We lost 1 player this week who picked Baltimore, sorry.	We lost 1 player this week who picked Baltimore, sorry.	841671	1471957434001	1471957434095	p	80
1698	17600	We lost 1 player this week who picked Baltimore, sorry.	We lost 1 player this week who picked Baltimore, sorry.	841673	1471957435265	1471957435358	i	73
1698	17600	We lost 1 player this week who picked Baltimore, sorry.	We lost 1 player this week who picked Baltimore, sorry.	841784	1471957435452	1471957435561	c	67
1698	17600	We lost 1 player this week who picked Baltimore, sorry.	We lost 1 player this week who picked Baltimore, sorry.	841786	1471957437199	1471957437293	k	75
1698	17600	We lost 1 player this week who picked Baltimore, sorry.	We lost 1 player this week who picked Baltimore, sorry.	841789	1471957437386	1471957437527	e	69
1698	17600	We lost 1 player this week who picked Baltimore, sorry.	We lost 1 player this week who picked Baltimore, sorry.	841793	1471957437683	1471957437839	d	68
1698	17600	We lost 1 player this week who picked Baltimore, sorry.	We lost 1 player this week who picked Baltimore, sorry.	841797	1471957437979	1471957438120	 	32
1698	17600	We lost 1 player this week who picked Baltimore, sorry.	We lost 1 player this week who picked Baltimore, sorry.	841916	1471957438541	1471957439102	SHIFT	16
1698	17600	We lost 1 player this week who picked Baltimore, sorry.	We lost 1 player this week who picked Baltimore, sorry.	841919	1471957439009	1471957439134	B	66
1698	17600	We lost 1 player this week who picked Baltimore, sorry.	We lost 1 player this week who picked Baltimore, sorry.	841928	1471957439165	1471957439352	a	65
1698	17600	We lost 1 player this week who picked Baltimore, sorry.	We lost 1 player this week who picked Baltimore, sorry.	841934	1471957439430	1471957439539	l	76
1698	17600	We lost 1 player this week who picked Baltimore, sorry.	We lost 1 player this week who picked Baltimore, sorry.	841937	1471957439867	1471957440023	t	84
1698	17600	We lost 1 player this week who picked Baltimore, sorry.	We lost 1 player this week who picked Baltimore, sorry.	841940	1471957440132	1471957440210	i	73
1698	17600	We lost 1 player this week who picked Baltimore, sorry.	We lost 1 player this week who picked Baltimore, sorry.	842104	1471957440366	1471957440444	m	77
1698	17600	We lost 1 player this week who picked Baltimore, sorry.	We lost 1 player this week who picked Baltimore, sorry.	842108	1471957440600	1471957440694	o	79
1698	17600	We lost 1 player this week who picked Baltimore, sorry.	We lost 1 player this week who picked Baltimore, sorry.	842111	1471957440896	1471957441006	r	82
1698	17600	We lost 1 player this week who picked Baltimore, sorry.	We lost 1 player this week who picked Baltimore, sorry.	842114	1471957441099	1471957441255	e	69
1698	17600	We lost 1 player this week who picked Baltimore, sorry.	We lost 1 player this week who picked Baltimore, sorry.	842119	1471957442706	1471957442831	,	188
1698	17600	We lost 1 player this week who picked Baltimore, sorry.	We lost 1 player this week who picked Baltimore, sorry.	842193	1471957443018	1471957443143	 	32
1698	17600	We lost 1 player this week who picked Baltimore, sorry.	We lost 1 player this week who picked Baltimore, sorry.	842198	1471957443299	1471957443471	s	83
1698	17600	We lost 1 player this week who picked Baltimore, sorry.	We lost 1 player this week who picked Baltimore, sorry.	842202	1471957443798	1471957443892	o	79
1698	17600	We lost 1 player this week who picked Baltimore, sorry.	We lost 1 player this week who picked Baltimore, sorry.	842207	1471957444032	1471957444141	r	82
1698	17600	We lost 1 player this week who picked Baltimore, sorry.	We lost 1 player this week who picked Baltimore, sorry.	842215	1471957444251	1471957444329	r	82
1698	17600	We lost 1 player this week who picked Baltimore, sorry.	We lost 1 player this week who picked Baltimore, sorry.	842266	1471957444453	1471957444531	y	89
1698	17600	We lost 1 player this week who picked Baltimore, sorry.	We lost 1 player this week who picked Baltimore, sorry.	842267	1471957445062	1471957445140	.	190
1698	17629	I will bring John Brindle.	I will bring John Brindle.	842463	1471957448073	1471957448447	SHIFT	16
1698	17629	I will bring John Brindle.	I will bring John Brindle.	842465	1471957448385	1471957448478	I	73
1698	17629	I will bring John Brindle.	I will bring John Brindle.	842466	1471957448665	1471957448759	 	32
1698	17629	I will bring John Brindle.	I will bring John Brindle.	842468	1471957448931	1471957449087	w	87
1698	17629	I will bring John Brindle.	I will bring John Brindle.	842470	1471957449149	1471957449227	i	73
1698	17629	I will bring John Brindle.	I will bring John Brindle.	842475	1471957449399	1471957449492	l	76
1698	17629	I will bring John Brindle.	I will bring John Brindle.	842569	1471957449617	1471957449695	l	76
1698	17629	I will bring John Brindle.	I will bring John Brindle.	842572	1471957450054	1471957450163	 	32
1698	17629	I will bring John Brindle.	I will bring John Brindle.	842578	1471957451723	1471957451832	b	66
1698	17629	I will bring John Brindle.	I will bring John Brindle.	842584	1471957451926	1471957452082	r	82
1698	17629	I will bring John Brindle.	I will bring John Brindle.	842587	1471957452238	1471957452316	i	73
1698	17629	I will bring John Brindle.	I will bring John Brindle.	842701	1471957452519	1471957452612	n	78
1698	17629	I will bring John Brindle.	I will bring John Brindle.	842707	1471957452690	1471957452862	g	71
1698	17629	I will bring John Brindle.	I will bring John Brindle.	842713	1471957453065	1471957453189	 	32
1698	17629	I will bring John Brindle.	I will bring John Brindle.	842716	1471957454079	1471957454593	SHIFT	16
1698	17629	I will bring John Brindle.	I will bring John Brindle.	842720	1471957454500	1471957454625	J	74
1698	17629	I will bring John Brindle.	I will bring John Brindle.	842724	1471957454983	1471957455093	o	79
1698	17629	I will bring John Brindle.	I will bring John Brindle.	842897	1471957455576	1471957455732	h	72
1698	17629	I will bring John Brindle.	I will bring John Brindle.	842901	1471957456153	1471957456278	n	78
1698	17629	I will bring John Brindle.	I will bring John Brindle.	842907	1471957456871	1471957457043	 	32
1698	17629	I will bring John Brindle.	I will bring John Brindle.	842918	1471957457635	1471957458306	SHIFT	16
1698	17629	I will bring John Brindle.	I will bring John Brindle.	842913	1471957458135	1471957458291	B	66
1698	17629	I will bring John Brindle.	I will bring John Brindle.	842921	1471957458587	1471957458743	r	82
1698	17629	I will bring John Brindle.	I will bring John Brindle.	842946	1471957458951	1471957459029	i	73
1698	17629	I will bring John Brindle.	I will bring John Brindle.	842947	1471957459232	1471957459326	n	78
1698	17629	I will bring John Brindle.	I will bring John Brindle.	842949	1471957459607	1471957459747	d	68
1698	17629	I will bring John Brindle.	I will bring John Brindle.	842951	1471957459919	1471957459997	l	76
1698	17629	I will bring John Brindle.	I will bring John Brindle.	842957	1471957460121	1471957460262	e	69
1698	17629	I will bring John Brindle.	I will bring John Brindle.	843010	1471957460480	1471957460574	.	190
