PARTICIPANT_ID	TEST_SECTION_ID	SENTENCE	USER_INPUT	KEYSTROKE_ID	PRESS_TIME	RELEASE_TIME	LETTER	KEYCODE
1763	18046	I wonder if RBS is another institution which could move quickly.	I wonder if RBS is another institution which could move quickly.	862766	1471958035131	1471958036136	SHIFT	16
1763	18046	I wonder if RBS is another institution which could move quickly.	I wonder if RBS is another institution which could move quickly.	862768	1471958036073	1471958036171	I	73
1763	18046	I wonder if RBS is another institution which could move quickly.	I wonder if RBS is another institution which could move quickly.	862770	1471958036549	1471958036635	w	87
1763	18046	I wonder if RBS is another institution which could move quickly.	I wonder if RBS is another institution which could move quickly.	862771	1471958036693	1471958036829	o	79
1763	18046	I wonder if RBS is another institution which could move quickly.	I wonder if RBS is another institution which could move quickly.	862773	1471958036909	1471958036991	n	78
1763	18046	I wonder if RBS is another institution which could move quickly.	I wonder if RBS is another institution which could move quickly.	862774	1471958037138	1471958037238	d	68
1763	18046	I wonder if RBS is another institution which could move quickly.	I wonder if RBS is another institution which could move quickly.	862870	1471958037331	1471958037441	e	69
1763	18046	I wonder if RBS is another institution which could move quickly.	I wonder if RBS is another institution which could move quickly.	862873	1471958037520	1471958037632	r	82
1763	18046	I wonder if RBS is another institution which could move quickly.	I wonder if RBS is another institution which could move quickly.	862876	1471958037959	1471958038018	BKSP	8
1763	18046	I wonder if RBS is another institution which could move quickly.	I wonder if RBS is another institution which could move quickly.	862878	1471958038113	1471958038188	BKSP	8
1763	18046	I wonder if RBS is another institution which could move quickly.	I wonder if RBS is another institution which could move quickly.	862879	1471958038264	1471958038340	BKSP	8
1763	18046	I wonder if RBS is another institution which could move quickly.	I wonder if RBS is another institution which could move quickly.	862881	1471958038409	1471958038493	BKSP	8
1763	18046	I wonder if RBS is another institution which could move quickly.	I wonder if RBS is another institution which could move quickly.	862883	1471958038542	1471958038636	BKSP	8
1763	18046	I wonder if RBS is another institution which could move quickly.	I wonder if RBS is another institution which could move quickly.	862888	1471958039010	1471958039070	BKSP	8
1763	18046	I wonder if RBS is another institution which could move quickly.	I wonder if RBS is another institution which could move quickly.	862892	1471958039275	1471958039340	 	32
1763	18046	I wonder if RBS is another institution which could move quickly.	I wonder if RBS is another institution which could move quickly.	862896	1471958039582	1471958039671	w	87
1763	18046	I wonder if RBS is another institution which could move quickly.	I wonder if RBS is another institution which could move quickly.	862899	1471958039783	1471958039882	o	79
1763	18046	I wonder if RBS is another institution which could move quickly.	I wonder if RBS is another institution which could move quickly.	862914	1471958039961	1471958040036	n	78
1763	18046	I wonder if RBS is another institution which could move quickly.	I wonder if RBS is another institution which could move quickly.	862918	1471958040174	1471958040277	d	68
1763	18046	I wonder if RBS is another institution which could move quickly.	I wonder if RBS is another institution which could move quickly.	862920	1471958040354	1471958040455	e	69
1763	18046	I wonder if RBS is another institution which could move quickly.	I wonder if RBS is another institution which could move quickly.	862922	1471958040545	1471958040637	r	82
1763	18046	I wonder if RBS is another institution which could move quickly.	I wonder if RBS is another institution which could move quickly.	862924	1471958040693	1471958040762	 	32
1763	18046	I wonder if RBS is another institution which could move quickly.	I wonder if RBS is another institution which could move quickly.	862971	1471958041248	1471958041296	i	73
1763	18046	I wonder if RBS is another institution which could move quickly.	I wonder if RBS is another institution which could move quickly.	862973	1471958041466	1471958041548	d	68
1763	18046	I wonder if RBS is another institution which could move quickly.	I wonder if RBS is another institution which could move quickly.	862974	1471958041900	1471958041963	BKSP	8
1763	18046	I wonder if RBS is another institution which could move quickly.	I wonder if RBS is another institution which could move quickly.	862975	1471958041992	1471958042099	f	70
1763	18046	I wonder if RBS is another institution which could move quickly.	I wonder if RBS is another institution which could move quickly.	862976	1471958042149	1471958042225	 	32
1763	18046	I wonder if RBS is another institution which could move quickly.	I wonder if RBS is another institution which could move quickly.	863038	1471958042492	1471958043810	SHIFT	16
1763	18046	I wonder if RBS is another institution which could move quickly.	I wonder if RBS is another institution which could move quickly.	862977	1471958042849	1471958042920	R	82
1763	18046	I wonder if RBS is another institution which could move quickly.	I wonder if RBS is another institution which could move quickly.	863036	1471958043298	1471958043381	B	66
1763	18046	I wonder if RBS is another institution which could move quickly.	I wonder if RBS is another institution which could move quickly.	863041	1471958043727	1471958043865	S	83
1763	18046	I wonder if RBS is another institution which could move quickly.	I wonder if RBS is another institution which could move quickly.	863043	1471958044357	1471958044415	 	32
1763	18046	I wonder if RBS is another institution which could move quickly.	I wonder if RBS is another institution which could move quickly.	863044	1471958044785	1471958044847	i	73
1763	18046	I wonder if RBS is another institution which could move quickly.	I wonder if RBS is another institution which could move quickly.	863045	1471958044917	1471958045018	s	83
1763	18046	I wonder if RBS is another institution which could move quickly.	I wonder if RBS is another institution which could move quickly.	863136	1471958045034	1471958045103	 	32
1763	18046	I wonder if RBS is another institution which could move quickly.	I wonder if RBS is another institution which could move quickly.	863139	1471958045538	1471958045602	BKSP	8
1763	18046	I wonder if RBS is another institution which could move quickly.	I wonder if RBS is another institution which could move quickly.	863142	1471958045683	1471958045751	BKSP	8
1763	18046	I wonder if RBS is another institution which could move quickly.	I wonder if RBS is another institution which could move quickly.	863145	1471958045813	1471958045901	BKSP	8
1763	18046	I wonder if RBS is another institution which could move quickly.	I wonder if RBS is another institution which could move quickly.	863147	1471958047603	1471958047678	i	73
1763	18046	I wonder if RBS is another institution which could move quickly.	I wonder if RBS is another institution which could move quickly.	863149	1471958047727	1471958047836	s	83
1763	18046	I wonder if RBS is another institution which could move quickly.	I wonder if RBS is another institution which could move quickly.	863150	1471958047857	1471958047924	 	32
1763	18046	I wonder if RBS is another institution which could move quickly.	I wonder if RBS is another institution which could move quickly.	863151	1471958048034	1471958048130	a	65
1763	18046	I wonder if RBS is another institution which could move quickly.	I wonder if RBS is another institution which could move quickly.	863196	1471958048622	1471958048688	n	78
1763	18046	I wonder if RBS is another institution which could move quickly.	I wonder if RBS is another institution which could move quickly.	863198	1471958048816	1471958048884	o	79
1763	18046	I wonder if RBS is another institution which could move quickly.	I wonder if RBS is another institution which could move quickly.	863201	1471958049318	1471958049405	t	84
1763	18046	I wonder if RBS is another institution which could move quickly.	I wonder if RBS is another institution which could move quickly.	863204	1471958049459	1471958049546	h	72
1763	18046	I wonder if RBS is another institution which could move quickly.	I wonder if RBS is another institution which could move quickly.	863206	1471958049553	1471958049644	e	69
1763	18046	I wonder if RBS is another institution which could move quickly.	I wonder if RBS is another institution which could move quickly.	863253	1471958049731	1471958049821	r	82
1763	18046	I wonder if RBS is another institution which could move quickly.	I wonder if RBS is another institution which could move quickly.	863256	1471958049881	1471958049948	 	32
1763	18046	I wonder if RBS is another institution which could move quickly.	I wonder if RBS is another institution which could move quickly.	863259	1471958050365	1471958050465	i	73
1763	18046	I wonder if RBS is another institution which could move quickly.	I wonder if RBS is another institution which could move quickly.	863261	1471958050513	1471958050606	n	78
1763	18046	I wonder if RBS is another institution which could move quickly.	I wonder if RBS is another institution which could move quickly.	863263	1471958050648	1471958050763	s	83
1763	18046	I wonder if RBS is another institution which could move quickly.	I wonder if RBS is another institution which could move quickly.	863332	1471958050849	1471958050916	t	84
1763	18046	I wonder if RBS is another institution which could move quickly.	I wonder if RBS is another institution which could move quickly.	863335	1471958051177	1471958051237	i	73
1763	18046	I wonder if RBS is another institution which could move quickly.	I wonder if RBS is another institution which could move quickly.	863339	1471958052131	1471958052200	t	84
1763	18046	I wonder if RBS is another institution which could move quickly.	I wonder if RBS is another institution which could move quickly.	863344	1471958052565	1471958052619	u	85
1763	18046	I wonder if RBS is another institution which could move quickly.	I wonder if RBS is another institution which could move quickly.	863348	1471958052887	1471958052985	t	84
1763	18046	I wonder if RBS is another institution which could move quickly.	I wonder if RBS is another institution which could move quickly.	863370	1471958053039	1471958053103	i	73
1763	18046	I wonder if RBS is another institution which could move quickly.	I wonder if RBS is another institution which could move quickly.	863372	1471958053241	1471958053351	o	79
1763	18046	I wonder if RBS is another institution which could move quickly.	I wonder if RBS is another institution which could move quickly.	863374	1471958053452	1471958053524	n	78
1763	18046	I wonder if RBS is another institution which could move quickly.	I wonder if RBS is another institution which could move quickly.	863380	1471958053623	1471958053684	 	32
1763	18046	I wonder if RBS is another institution which could move quickly.	I wonder if RBS is another institution which could move quickly.	863385	1471958054105	1471958054216	w	87
1763	18046	I wonder if RBS is another institution which could move quickly.	I wonder if RBS is another institution which could move quickly.	863422	1471958054346	1471958054422	h	72
1763	18046	I wonder if RBS is another institution which could move quickly.	I wonder if RBS is another institution which could move quickly.	863423	1471958054573	1471958054641	i	73
1763	18046	I wonder if RBS is another institution which could move quickly.	I wonder if RBS is another institution which could move quickly.	863424	1471958054778	1471958054885	c	67
1763	18046	I wonder if RBS is another institution which could move quickly.	I wonder if RBS is another institution which could move quickly.	863426	1471958055007	1471958055075	h	72
1763	18046	I wonder if RBS is another institution which could move quickly.	I wonder if RBS is another institution which could move quickly.	863428	1471958055290	1471958055382	 	32
1763	18046	I wonder if RBS is another institution which could move quickly.	I wonder if RBS is another institution which could move quickly.	863460	1471958055716	1471958055831	c	67
1763	18046	I wonder if RBS is another institution which could move quickly.	I wonder if RBS is another institution which could move quickly.	863465	1471958055921	1471958056002	o	79
1763	18046	I wonder if RBS is another institution which could move quickly.	I wonder if RBS is another institution which could move quickly.	863468	1471958056127	1471958056203	u	85
1763	18046	I wonder if RBS is another institution which could move quickly.	I wonder if RBS is another institution which could move quickly.	863472	1471958056326	1471958056379	l	76
1763	18046	I wonder if RBS is another institution which could move quickly.	I wonder if RBS is another institution which could move quickly.	863475	1471958056445	1471958056536	d	68
1763	18046	I wonder if RBS is another institution which could move quickly.	I wonder if RBS is another institution which could move quickly.	863501	1471958056578	1471958056634	 	32
1763	18046	I wonder if RBS is another institution which could move quickly.	I wonder if RBS is another institution which could move quickly.	863506	1471958057156	1471958057214	m	77
1763	18046	I wonder if RBS is another institution which could move quickly.	I wonder if RBS is another institution which could move quickly.	863510	1471958057373	1471958057426	o	79
1763	18046	I wonder if RBS is another institution which could move quickly.	I wonder if RBS is another institution which could move quickly.	863515	1471958057761	1471958057816	v	86
1763	18046	I wonder if RBS is another institution which could move quickly.	I wonder if RBS is another institution which could move quickly.	863520	1471958057912	1471958058016	e	69
1763	18046	I wonder if RBS is another institution which could move quickly.	I wonder if RBS is another institution which could move quickly.	863572	1471958058051	1471958058115	 	32
1763	18046	I wonder if RBS is another institution which could move quickly.	I wonder if RBS is another institution which could move quickly.	863576	1471958058725	1471958058828	q	81
1763	18046	I wonder if RBS is another institution which could move quickly.	I wonder if RBS is another institution which could move quickly.	863580	1471958059010	1471958059080	u	85
1763	18046	I wonder if RBS is another institution which could move quickly.	I wonder if RBS is another institution which could move quickly.	863583	1471958059190	1471958059254	i	73
1763	18046	I wonder if RBS is another institution which could move quickly.	I wonder if RBS is another institution which could move quickly.	863586	1471958059624	1471958059734	c	67
1763	18046	I wonder if RBS is another institution which could move quickly.	I wonder if RBS is another institution which could move quickly.	863632	1471958059942	1471958060014	k	75
1763	18046	I wonder if RBS is another institution which could move quickly.	I wonder if RBS is another institution which could move quickly.	863634	1471958060128	1471958060186	l	76
1763	18046	I wonder if RBS is another institution which could move quickly.	I wonder if RBS is another institution which could move quickly.	863636	1471958060368	1471958060425	y	89
1763	18046	I wonder if RBS is another institution which could move quickly.	I wonder if RBS is another institution which could move quickly.	863638	1471958061321	1471958061377	.	190
1763	18070	She is most familiar with our computer systems.	She is most familiar with our computer systems	863796	1471958067111	1471958067409	SHIFT	16
1763	18070	She is most familiar with our computer systems.	She is most familiar with our computer systems	863799	1471958067334	1471958067442	S	83
1763	18070	She is most familiar with our computer systems.	She is most familiar with our computer systems	863803	1471958067617	1471958067671	h	72
1763	18070	She is most familiar with our computer systems.	She is most familiar with our computer systems	863807	1471958067755	1471958067844	e	69
1763	18070	She is most familiar with our computer systems.	She is most familiar with our computer systems	863811	1471958067900	1471958067965	 	32
1763	18070	She is most familiar with our computer systems.	She is most familiar with our computer systems	863816	1471958068144	1471958068222	i	73
1763	18070	She is most familiar with our computer systems.	She is most familiar with our computer systems	863840	1471958068330	1471958068438	s	83
1763	18070	She is most familiar with our computer systems.	She is most familiar with our computer systems	863841	1471958068444	1471958068516	 	32
1763	18070	She is most familiar with our computer systems.	She is most familiar with our computer systems	863842	1471958068775	1471958068841	m	77
1763	18070	She is most familiar with our computer systems.	She is most familiar with our computer systems	863843	1471958068968	1471958069032	o	79
1763	18070	She is most familiar with our computer systems.	She is most familiar with our computer systems	863844	1471958069127	1471958069222	s	83
1763	18070	She is most familiar with our computer systems.	She is most familiar with our computer systems	863897	1471958069283	1471958069370	t	84
1763	18070	She is most familiar with our computer systems.	She is most familiar with our computer systems	863899	1471958069445	1471958069534	 	32
1763	18070	She is most familiar with our computer systems.	She is most familiar with our computer systems	863902	1471958070068	1471958070137	f	70
1763	18070	She is most familiar with our computer systems.	She is most familiar with our computer systems	863904	1471958070233	1471958070357	a	65
1763	18070	She is most familiar with our computer systems.	She is most familiar with our computer systems	863907	1471958070434	1471958070510	m	77
1763	18070	She is most familiar with our computer systems.	She is most familiar with our computer systems	863986	1471958070623	1471958070698	i	73
1763	18070	She is most familiar with our computer systems.	She is most familiar with our computer systems	863988	1471958070803	1471958070887	l	76
1763	18070	She is most familiar with our computer systems.	She is most familiar with our computer systems	863989	1471958071079	1471958071178	i	73
1763	18070	She is most familiar with our computer systems.	She is most familiar with our computer systems	863990	1471958071897	1471958071985	a	65
1763	18070	She is most familiar with our computer systems.	She is most familiar with our computer systems	863991	1471958072371	1471958072389	t	84
1763	18070	She is most familiar with our computer systems.	She is most familiar with our computer systems	864048	1471958072829	1471958072894	BKSP	8
1763	18070	She is most familiar with our computer systems.	She is most familiar with our computer systems	864050	1471958072965	1471958073063	r	82
1763	18070	She is most familiar with our computer systems.	She is most familiar with our computer systems	864053	1471958073129	1471958073202	 	32
1763	18070	She is most familiar with our computer systems.	She is most familiar with our computer systems	864054	1471958073610	1471958073706	w	87
1763	18070	She is most familiar with our computer systems.	She is most familiar with our computer systems	864055	1471958073788	1471958073856	i	73
1763	18070	She is most familiar with our computer systems.	She is most familiar with our computer systems	864056	1471958074026	1471958074110	t	84
1763	18070	She is most familiar with our computer systems.	She is most familiar with our computer systems	864127	1471958074193	1471958074282	h	72
1763	18070	She is most familiar with our computer systems.	She is most familiar with our computer systems	864129	1471958074358	1471958074424	 	32
1763	18070	She is most familiar with our computer systems.	She is most familiar with our computer systems	864133	1471958074828	1471958074890	o	79
1763	18070	She is most familiar with our computer systems.	She is most familiar with our computer systems	864138	1471958075076	1471958075184	r	82
1763	18070	She is most familiar with our computer systems.	She is most familiar with our computer systems	864142	1471958076109	1471958076167	BKSP	8
1763	18070	She is most familiar with our computer systems.	She is most familiar with our computer systems	864147	1471958076608	1471958076661	i	73
1763	18070	She is most familiar with our computer systems.	She is most familiar with our computer systems	864215	1471958076888	1471958076940	t	84
1763	18070	She is most familiar with our computer systems.	She is most familiar with our computer systems	864217	1471958077247	1471958077309	BKSP	8
1763	18070	She is most familiar with our computer systems.	She is most familiar with our computer systems	864218	1471958077607	1471958077678	BKSP	8
1763	18070	She is most familiar with our computer systems.	She is most familiar with our computer systems	864220	1471958078048	1471958078107	i	73
1763	18070	She is most familiar with our computer systems.	She is most familiar with our computer systems	864222	1471958078569	1471958078624	BKSP	8
1763	18070	She is most familiar with our computer systems.	She is most familiar with our computer systems	864224	1471958078809	1471958078877	u	85
1763	18070	She is most familiar with our computer systems.	She is most familiar with our computer systems	864227	1471958079002	1471958079095	r	82
1763	18070	She is most familiar with our computer systems.	She is most familiar with our computer systems	864230	1471958079170	1471958079232	 	32
1763	18070	She is most familiar with our computer systems.	She is most familiar with our computer systems	864273	1471958079653	1471958079766	c	67
1763	18070	She is most familiar with our computer systems.	She is most familiar with our computer systems	864275	1471958079895	1471958080006	o	79
1763	18070	She is most familiar with our computer systems.	She is most familiar with our computer systems	864277	1471958080095	1471958080193	m	77
1763	18070	She is most familiar with our computer systems.	She is most familiar with our computer systems	864280	1471958080622	1471958080691	p	80
1763	18070	She is most familiar with our computer systems.	She is most familiar with our computer systems	864282	1471958081019	1471958081078	u	85
1763	18070	She is most familiar with our computer systems.	She is most familiar with our computer systems	864316	1471958081270	1471958081344	t	84
1763	18070	She is most familiar with our computer systems.	She is most familiar with our computer systems	864317	1471958081452	1471958081516	e	69
1763	18070	She is most familiar with our computer systems.	She is most familiar with our computer systems	864318	1471958082358	1471958082469	r	82
1763	18070	She is most familiar with our computer systems.	She is most familiar with our computer systems	864319	1471958082556	1471958082622	 	32
1763	18070	She is most familiar with our computer systems.	She is most familiar with our computer systems	864320	1471958082761	1471958082880	s	83
1763	18070	She is most familiar with our computer systems.	She is most familiar with our computer systems	864348	1471958083638	1471958083702	y	89
1763	18070	She is most familiar with our computer systems.	She is most familiar with our computer systems	864349	1471958083787	1471958083901	s	83
1763	18070	She is most familiar with our computer systems.	She is most familiar with our computer systems	864350	1471958083930	1471958083999	y	89
1763	18070	She is most familiar with our computer systems.	She is most familiar with our computer systems	864351	1471958084134	1471958084204	t	84
1763	18070	She is most familiar with our computer systems.	She is most familiar with our computer systems	864352	1471958084265	1471958084350	e	69
1763	18070	She is most familiar with our computer systems.	She is most familiar with our computer systems	864503	1471958084898	1471958084961	m	77
1763	18070	She is most familiar with our computer systems.	She is most familiar with our computer systems	864505	1471958085087	1471958085197	s	83
1763	18070	She is most familiar with our computer systems.	She is most familiar with our computer systems	864507	1471958085448	1471958085511	.	190
1763	18070	She is most familiar with our computer systems.	She is most familiar with our computer systems	864509	1471958085672	1471958085724	 	32
1763	18070	She is most familiar with our computer systems.	She is most familiar with our computer systems	864511	1471958086643	1471958086754	BKSP	8
1763	18070	She is most familiar with our computer systems.	She is most familiar with our computer systems	864513	1471958086845	1471958086937	BKSP	8
1763	18070	She is most familiar with our computer systems.	She is most familiar with our computer systems	864517	1471958087032	1471958087096	BKSP	8
1763	18070	She is most familiar with our computer systems.	She is most familiar with our computer systems	864522	1471958087178	1471958087257	BKSP	8
1763	18070	She is most familiar with our computer systems.	She is most familiar with our computer systems	864526	1471958087333	1471958087413	BKSP	8
1763	18070	She is most familiar with our computer systems.	She is most familiar with our computer systems	864530	1471958087493	1471958087570	BKSP	8
1763	18070	She is most familiar with our computer systems.	She is most familiar with our computer systems	864534	1471958087646	1471958087744	BKSP	8
1763	18070	She is most familiar with our computer systems.	She is most familiar with our computer systems	864537	1471958088566	1471958088616	t	84
1763	18070	She is most familiar with our computer systems.	She is most familiar with our computer systems	864561	1471958088834	1471958088929	e	69
1763	18070	She is most familiar with our computer systems.	She is most familiar with our computer systems	864563	1471958089066	1471958089123	m	77
1763	18070	She is most familiar with our computer systems.	She is most familiar with our computer systems	864564	1471958089397	1471958089490	s	83
1763	18093	Parking at the walk site will be free.	Parking at the walk site will be free.	864934	1471958099737	1471958100140	SHIFT	16
1763	18093	Parking at the walk site will be free.	Parking at the walk site will be free.	864936	1471958100052	1471958100157	P	80
1763	18093	Parking at the walk site will be free.	Parking at the walk site will be free.	864938	1471958100320	1471958100453	a	65
1763	18093	Parking at the walk site will be free.	Parking at the walk site will be free.	864940	1471958100771	1471958100891	r	82
1763	18093	Parking at the walk site will be free.	Parking at the walk site will be free.	864942	1471958101290	1471958101355	k	75
1763	18093	Parking at the walk site will be free.	Parking at the walk site will be free.	864945	1471958101444	1471958101535	i	73
1763	18093	Parking at the walk site will be free.	Parking at the walk site will be free.	864992	1471958101592	1471958101667	n	78
1763	18093	Parking at the walk site will be free.	Parking at the walk site will be free.	864993	1471958101792	1471958101887	g	71
1763	18093	Parking at the walk site will be free.	Parking at the walk site will be free.	864994	1471958101957	1471958102028	 	32
1763	18093	Parking at the walk site will be free.	Parking at the walk site will be free.	864995	1471958102336	1471958102428	a	65
1763	18093	Parking at the walk site will be free.	Parking at the walk site will be free.	864996	1471958102666	1471958102761	t	84
1763	18093	Parking at the walk site will be free.	Parking at the walk site will be free.	865017	1471958102873	1471958102949	 	32
1763	18093	Parking at the walk site will be free.	Parking at the walk site will be free.	865019	1471958103089	1471958103167	t	84
1763	18093	Parking at the walk site will be free.	Parking at the walk site will be free.	865024	1471958103238	1471958103351	h	72
1763	18093	Parking at the walk site will be free.	Parking at the walk site will be free.	865028	1471958103391	1471958103477	e	69
1763	18093	Parking at the walk site will be free.	Parking at the walk site will be free.	865031	1471958103496	1471958103555	 	32
1763	18093	Parking at the walk site will be free.	Parking at the walk site will be free.	865073	1471958104062	1471958104208	w	87
1763	18093	Parking at the walk site will be free.	Parking at the walk site will be free.	865075	1471958104308	1471958104433	a	65
1763	18093	Parking at the walk site will be free.	Parking at the walk site will be free.	865076	1471958104497	1471958104574	l	76
1763	18093	Parking at the walk site will be free.	Parking at the walk site will be free.	865078	1471958105003	1471958105079	k	75
1763	18093	Parking at the walk site will be free.	Parking at the walk site will be free.	865079	1471958105186	1471958105239	 	32
1763	18093	Parking at the walk site will be free.	Parking at the walk site will be free.	865113	1471958105434	1471958105539	s	83
1763	18093	Parking at the walk site will be free.	Parking at the walk site will be free.	865116	1471958105848	1471958105911	i	73
1763	18093	Parking at the walk site will be free.	Parking at the walk site will be free.	865121	1471958106072	1471958106143	t	84
1763	18093	Parking at the walk site will be free.	Parking at the walk site will be free.	865123	1471958106206	1471958106303	e	69
1763	18093	Parking at the walk site will be free.	Parking at the walk site will be free.	865125	1471958106332	1471958106403	 	32
1763	18093	Parking at the walk site will be free.	Parking at the walk site will be free.	865168	1471958106542	1471958106650	w	87
1763	18093	Parking at the walk site will be free.	Parking at the walk site will be free.	865170	1471958106955	1471958107019	i	73
1763	18093	Parking at the walk site will be free.	Parking at the walk site will be free.	865173	1471958107151	1471958107203	l	76
1763	18093	Parking at the walk site will be free.	Parking at the walk site will be free.	865175	1471958107294	1471958107358	l	76
1763	18093	Parking at the walk site will be free.	Parking at the walk site will be free.	865177	1471958107526	1471958107579	 	32
1763	18093	Parking at the walk site will be free.	Parking at the walk site will be free.	865218	1471958107715	1471958107767	b	66
1763	18093	Parking at the walk site will be free.	Parking at the walk site will be free.	865219	1471958107867	1471958107943	e	69
1763	18093	Parking at the walk site will be free.	Parking at the walk site will be free.	865222	1471958108016	1471958108065	 	32
1763	18093	Parking at the walk site will be free.	Parking at the walk site will be free.	865226	1471958108319	1471958108427	f	70
1763	18093	Parking at the walk site will be free.	Parking at the walk site will be free.	865232	1471958108528	1471958108622	r	82
1763	18093	Parking at the walk site will be free.	Parking at the walk site will be free.	865272	1471958108726	1471958108801	e	69
1763	18093	Parking at the walk site will be free.	Parking at the walk site will be free.	865275	1471958108897	1471958108982	e	69
1763	18093	Parking at the walk site will be free.	Parking at the walk site will be free.	865277	1471958109548	1471958109595	.	190
1763	18103	There is now a meeting at 8PM as well.	There is now a meeting at 8PM as well. 	865418	1471958112433	1471958112897	SHIFT	16
1763	18103	There is now a meeting at 8PM as well.	There is now a meeting at 8PM as well. 	865422	1471958112847	1471958112932	T	84
1763	18103	There is now a meeting at 8PM as well.	There is now a meeting at 8PM as well. 	865426	1471958113100	1471958113163	h	72
1763	18103	There is now a meeting at 8PM as well.	There is now a meeting at 8PM as well. 	865430	1471958113275	1471958113376	e	69
1763	18103	There is now a meeting at 8PM as well.	There is now a meeting at 8PM as well. 	865433	1471958113448	1471958113567	r	82
1763	18103	There is now a meeting at 8PM as well.	There is now a meeting at 8PM as well. 	865437	1471958113893	1471958113996	e	69
1763	18103	There is now a meeting at 8PM as well.	There is now a meeting at 8PM as well. 	865501	1471958114086	1471958114143	 	32
1763	18103	There is now a meeting at 8PM as well.	There is now a meeting at 8PM as well. 	865506	1471958114596	1471958114658	i	73
1763	18103	There is now a meeting at 8PM as well.	There is now a meeting at 8PM as well. 	865508	1471958114725	1471958114828	s	83
1763	18103	There is now a meeting at 8PM as well.	There is now a meeting at 8PM as well. 	865512	1471958114837	1471958114913	 	32
1763	18103	There is now a meeting at 8PM as well.	There is now a meeting at 8PM as well. 	865515	1471958115253	1471958115329	n	78
1763	18103	There is now a meeting at 8PM as well.	There is now a meeting at 8PM as well. 	865552	1471958115469	1471958115527	o	79
1763	18103	There is now a meeting at 8PM as well.	There is now a meeting at 8PM as well. 	865555	1471958115697	1471958115755	w	87
1763	18103	There is now a meeting at 8PM as well.	There is now a meeting at 8PM as well. 	865560	1471958115963	1471958116021	 	32
1763	18103	There is now a meeting at 8PM as well.	There is now a meeting at 8PM as well. 	865564	1471958116142	1471958116260	a	65
1763	18103	There is now a meeting at 8PM as well.	There is now a meeting at 8PM as well. 	865567	1471958116362	1471958116426	 	32
1763	18103	There is now a meeting at 8PM as well.	There is now a meeting at 8PM as well. 	865604	1471958116596	1471958116660	m	77
1763	18103	There is now a meeting at 8PM as well.	There is now a meeting at 8PM as well. 	865606	1471958116799	1471958116892	e	69
1763	18103	There is now a meeting at 8PM as well.	There is now a meeting at 8PM as well. 	865608	1471958116991	1471958117082	e	69
1763	18103	There is now a meeting at 8PM as well.	There is now a meeting at 8PM as well. 	865611	1471958117375	1471958117443	t	84
1763	18103	There is now a meeting at 8PM as well.	There is now a meeting at 8PM as well. 	865614	1471958117608	1471958117713	i	73
1763	18103	There is now a meeting at 8PM as well.	There is now a meeting at 8PM as well. 	865661	1471958117744	1471958117825	n	78
1763	18103	There is now a meeting at 8PM as well.	There is now a meeting at 8PM as well. 	865664	1471958117948	1471958118026	g	71
1763	18103	There is now a meeting at 8PM as well.	There is now a meeting at 8PM as well. 	865665	1471958118085	1471958118165	 	32
1763	18103	There is now a meeting at 8PM as well.	There is now a meeting at 8PM as well. 	865667	1471958119234	1471958119349	a	65
1763	18103	There is now a meeting at 8PM as well.	There is now a meeting at 8PM as well. 	865668	1471958119385	1471958119476	t	84
1763	18103	There is now a meeting at 8PM as well.	There is now a meeting at 8PM as well. 	865776	1471958119578	1471958119658	 	32
1763	18103	There is now a meeting at 8PM as well.	There is now a meeting at 8PM as well. 	865779	1471958119903	1471958120193	SHIFT	16
1763	18103	There is now a meeting at 8PM as well.	There is now a meeting at 8PM as well. 	865781	1471958120361	1471958120420	8	56
1763	18103	There is now a meeting at 8PM as well.	There is now a meeting at 8PM as well. 	865784	1471958121203	1471958121257	 	32
1763	18103	There is now a meeting at 8PM as well.	There is now a meeting at 8PM as well. 	865785	1471958121562	1471958121657	p	80
1763	18103	There is now a meeting at 8PM as well.	There is now a meeting at 8PM as well. 	865786	1471958121885	1471958121944	BKSP	8
1763	18103	There is now a meeting at 8PM as well.	There is now a meeting at 8PM as well. 	865789	1471958122025	1471958122092	BKSP	8
1763	18103	There is now a meeting at 8PM as well.	There is now a meeting at 8PM as well. 	865825	1471958122616	1471958123393	SHIFT	16
1763	18103	There is now a meeting at 8PM as well.	There is now a meeting at 8PM as well. 	865792	1471958122902	1471958122970	P	80
1763	18103	There is now a meeting at 8PM as well.	There is now a meeting at 8PM as well. 	865824	1471958123237	1471958123322	M	77
1763	18103	There is now a meeting at 8PM as well.	There is now a meeting at 8PM as well. 	865827	1471958123560	1471958123628	 	32
1763	18103	There is now a meeting at 8PM as well.	There is now a meeting at 8PM as well. 	865828	1471958123929	1471958124048	a	65
1763	18103	There is now a meeting at 8PM as well.	There is now a meeting at 8PM as well. 	865829	1471958124159	1471958124318	s	83
1763	18103	There is now a meeting at 8PM as well.	There is now a meeting at 8PM as well. 	865830	1471958124387	1471958124429	 	32
1763	18103	There is now a meeting at 8PM as well.	There is now a meeting at 8PM as well. 	865899	1471958124742	1471958124824	w	87
1763	18103	There is now a meeting at 8PM as well.	There is now a meeting at 8PM as well. 	865900	1471958124924	1471958125021	e	69
1763	18103	There is now a meeting at 8PM as well.	There is now a meeting at 8PM as well. 	865901	1471958125521	1471958125586	l	76
1763	18103	There is now a meeting at 8PM as well.	There is now a meeting at 8PM as well. 	865902	1471958125671	1471958125752	l	76
1763	18103	There is now a meeting at 8PM as well.	There is now a meeting at 8PM as well. 	865903	1471958126654	1471958126705	.	190
1763	18103	There is now a meeting at 8PM as well.	There is now a meeting at 8PM as well. 	865949	1471958127084	1471958127143	 	32
1763	18118	Giants, but he didn't finish it.	Giants, but he didn't finish it.	866176	1471958132951	1471958133523	SHIFT	16
1763	18118	Giants, but he didn't finish it.	Giants, but he didn't finish it.	866175	1471958133423	1471958133484	G	71
1763	18118	Giants, but he didn't finish it.	Giants, but he didn't finish it.	866177	1471958133992	1471958134062	i	73
1763	18118	Giants, but he didn't finish it.	Giants, but he didn't finish it.	866178	1471958134205	1471958134319	a	65
1763	18118	Giants, but he didn't finish it.	Giants, but he didn't finish it.	866179	1471958134423	1471958134487	t	84
1763	18118	Giants, but he didn't finish it.	Giants, but he didn't finish it.	866180	1471958134702	1471958134789	s	83
1763	18118	Giants, but he didn't finish it.	Giants, but he didn't finish it.	866243	1471958135362	1471958135418	=	187
1763	18118	Giants, but he didn't finish it.	Giants, but he didn't finish it.	866244	1471958135544	1471958135622	BKSP	8
1763	18118	Giants, but he didn't finish it.	Giants, but he didn't finish it.	866245	1471958135755	1471958135850	BKSP	8
1763	18118	Giants, but he didn't finish it.	Giants, but he didn't finish it.	866246	1471958135936	1471958136018	BKSP	8
1763	18118	Giants, but he didn't finish it.	Giants, but he didn't finish it.	866247	1471958136557	1471958136617	n	78
1763	18118	Giants, but he didn't finish it.	Giants, but he didn't finish it.	866248	1471958136780	1471958136838	t	84
1763	18118	Giants, but he didn't finish it.	Giants, but he didn't finish it.	866249	1471958136914	1471958137001	s	83
1763	18118	Giants, but he didn't finish it.	Giants, but he didn't finish it.	866250	1471958137484	1471958137529	,	188
1763	18118	Giants, but he didn't finish it.	Giants, but he didn't finish it.	866287	1471958137656	1471958137720	 	32
1763	18118	Giants, but he didn't finish it.	Giants, but he didn't finish it.	866289	1471958138287	1471958138360	b	66
1763	18118	Giants, but he didn't finish it.	Giants, but he didn't finish it.	866291	1471958138537	1471958138589	u	85
1763	18118	Giants, but he didn't finish it.	Giants, but he didn't finish it.	866294	1471958138726	1471958138800	t	84
1763	18118	Giants, but he didn't finish it.	Giants, but he didn't finish it.	866296	1471958138901	1471958138965	 	32
1763	18118	Giants, but he didn't finish it.	Giants, but he didn't finish it.	866331	1471958139453	1471958139510	h	72
1763	18118	Giants, but he didn't finish it.	Giants, but he didn't finish it.	866334	1471958139575	1471958139676	e	69
1763	18118	Giants, but he didn't finish it.	Giants, but he didn't finish it.	866336	1471958139724	1471958139786	 	32
1763	18118	Giants, but he didn't finish it.	Giants, but he didn't finish it.	866339	1471958140236	1471958140354	d	68
1763	18118	Giants, but he didn't finish it.	Giants, but he didn't finish it.	866342	1471958140475	1471958140533	i	73
1763	18118	Giants, but he didn't finish it.	Giants, but he didn't finish it.	866432	1471958140799	1471958140892	d	68
1763	18118	Giants, but he didn't finish it.	Giants, but he didn't finish it.	866433	1471958141113	1471958141171	i	73
1763	18118	Giants, but he didn't finish it.	Giants, but he didn't finish it.	866434	1471958141793	1471958141848	BKSP	8
1763	18118	Giants, but he didn't finish it.	Giants, but he didn't finish it.	866435	1471958142333	1471958142378	n	78
1763	18118	Giants, but he didn't finish it.	Giants, but he didn't finish it.	866436	1471958142908	1471958142961	'	222
1763	18118	Giants, but he didn't finish it.	Giants, but he didn't finish it.	866437	1471958143376	1471958143449	t	84
1763	18118	Giants, but he didn't finish it.	Giants, but he didn't finish it.	866474	1471958143577	1471958143635	 	32
1763	18118	Giants, but he didn't finish it.	Giants, but he didn't finish it.	866478	1471958144375	1471958144462	f	70
1763	18118	Giants, but he didn't finish it.	Giants, but he didn't finish it.	866482	1471958144580	1471958144696	i	73
1763	18118	Giants, but he didn't finish it.	Giants, but he didn't finish it.	866485	1471958144732	1471958144815	n	78
1763	18118	Giants, but he didn't finish it.	Giants, but he didn't finish it.	866488	1471958144878	1471958144982	i	73
1763	18118	Giants, but he didn't finish it.	Giants, but he didn't finish it.	866553	1471958145043	1471958145111	s	83
1763	18118	Giants, but he didn't finish it.	Giants, but he didn't finish it.	866556	1471958145263	1471958145307	g	71
1763	18118	Giants, but he didn't finish it.	Giants, but he didn't finish it.	866558	1471958145705	1471958145774	BKSP	8
1763	18118	Giants, but he didn't finish it.	Giants, but he didn't finish it.	866561	1471958146028	1471958146104	h	72
1763	18118	Giants, but he didn't finish it.	Giants, but he didn't finish it.	866564	1471958146266	1471958146358	 	32
1763	18118	Giants, but he didn't finish it.	Giants, but he didn't finish it.	866566	1471958146773	1471958146831	i	73
1763	18118	Giants, but he didn't finish it.	Giants, but he didn't finish it.	866602	1471958146993	1471958147053	t	84
1763	18118	Giants, but he didn't finish it.	Giants, but he didn't finish it.	866605	1471958147660	1471958147712	.	190
1763	18134	The Portal User IDs and Passwords are created by you.	The Portal User IDs and Passwords are created by you.	866843	1471958154268	1471958154727	SHIFT	16
1763	18134	The Portal User IDs and Passwords are created by you.	The Portal User IDs and Passwords are created by you.	866844	1471958154680	1471958154794	T	84
1763	18134	The Portal User IDs and Passwords are created by you.	The Portal User IDs and Passwords are created by you.	866845	1471958154931	1471958155000	h	72
1763	18134	The Portal User IDs and Passwords are created by you.	The Portal User IDs and Passwords are created by you.	866846	1471958155072	1471958155172	e	69
1763	18134	The Portal User IDs and Passwords are created by you.	The Portal User IDs and Passwords are created by you.	866847	1471958155200	1471958155266	 	32
1763	18134	The Portal User IDs and Passwords are created by you.	The Portal User IDs and Passwords are created by you.	866848	1471958155894	1471958156262	SHIFT	16
1763	18134	The Portal User IDs and Passwords are created by you.	The Portal User IDs and Passwords are created by you.	866890	1471958156205	1471958156294	P	80
1763	18134	The Portal User IDs and Passwords are created by you.	The Portal User IDs and Passwords are created by you.	866895	1471958156453	1471958156533	o	79
1763	18134	The Portal User IDs and Passwords are created by you.	The Portal User IDs and Passwords are created by you.	866900	1471958156765	1471958156846	r	82
1763	18134	The Portal User IDs and Passwords are created by you.	The Portal User IDs and Passwords are created by you.	866904	1471958156916	1471958157020	t	84
1763	18134	The Portal User IDs and Passwords are created by you.	The Portal User IDs and Passwords are created by you.	866908	1471958157136	1471958157257	a	65
1763	18134	The Portal User IDs and Passwords are created by you.	The Portal User IDs and Passwords are created by you.	866911	1471958157617	1471958157676	l	76
1763	18134	The Portal User IDs and Passwords are created by you.	The Portal User IDs and Passwords are created by you.	866961	1471958157791	1471958157862	 	32
1763	18134	The Portal User IDs and Passwords are created by you.	The Portal User IDs and Passwords are created by you.	866963	1471958158053	1471958158403	SHIFT	16
1763	18134	The Portal User IDs and Passwords are created by you.	The Portal User IDs and Passwords are created by you.	866962	1471958158295	1471958158359	U	85
1763	18134	The Portal User IDs and Passwords are created by you.	The Portal User IDs and Passwords are created by you.	866965	1471958159032	1471958159096	s	83
1763	18134	The Portal User IDs and Passwords are created by you.	The Portal User IDs and Passwords are created by you.	866967	1471958159313	1471958159414	e	69
1763	18134	The Portal User IDs and Passwords are created by you.	The Portal User IDs and Passwords are created by you.	866969	1471958159500	1471958159588	r	82
1763	18134	The Portal User IDs and Passwords are created by you.	The Portal User IDs and Passwords are created by you.	867047	1471958160093	1471958160162	 	32
1763	18134	The Portal User IDs and Passwords are created by you.	The Portal User IDs and Passwords are created by you.	867050	1471958160542	1471958161485	SHIFT	16
1763	18134	The Portal User IDs and Passwords are created by you.	The Portal User IDs and Passwords are created by you.	867048	1471958160836	1471958160887	I	73
1763	18134	The Portal User IDs and Passwords are created by you.	The Portal User IDs and Passwords are created by you.	867049	1471958161322	1471958161405	D	68
1763	18134	The Portal User IDs and Passwords are created by you.	The Portal User IDs and Passwords are created by you.	867051	1471958161641	1471958161717	s	83
1763	18134	The Portal User IDs and Passwords are created by you.	The Portal User IDs and Passwords are created by you.	867052	1471958161934	1471958162003	 	32
1763	18134	The Portal User IDs and Passwords are created by you.	The Portal User IDs and Passwords are created by you.	867073	1471958162095	1471958162205	a	65
1763	18134	The Portal User IDs and Passwords are created by you.	The Portal User IDs and Passwords are created by you.	867075	1471958162258	1471958162331	n	78
1763	18134	The Portal User IDs and Passwords are created by you.	The Portal User IDs and Passwords are created by you.	867079	1471958162365	1471958162469	d	68
1763	18134	The Portal User IDs and Passwords are created by you.	The Portal User IDs and Passwords are created by you.	867083	1471958162489	1471958162561	 	32
1763	18134	The Portal User IDs and Passwords are created by you.	The Portal User IDs and Passwords are created by you.	867086	1471958162773	1471958163080	SHIFT	16
1763	18134	The Portal User IDs and Passwords are created by you.	The Portal User IDs and Passwords are created by you.	867159	1471958163017	1471958163122	P	80
1763	18134	The Portal User IDs and Passwords are created by you.	The Portal User IDs and Passwords are created by you.	867161	1471958163200	1471958163318	a	65
1763	18134	The Portal User IDs and Passwords are created by you.	The Portal User IDs and Passwords are created by you.	867163	1471958163305	1471958163489	s	83
1763	18134	The Portal User IDs and Passwords are created by you.	The Portal User IDs and Passwords are created by you.	867164	1471958163880	1471958163988	s	83
1763	18134	The Portal User IDs and Passwords are created by you.	The Portal User IDs and Passwords are created by you.	867165	1471958164216	1471958164301	w	87
1763	18134	The Portal User IDs and Passwords are created by you.	The Portal User IDs and Passwords are created by you.	867166	1471958165461	1471958165537	e	69
1763	18134	The Portal User IDs and Passwords are created by you.	The Portal User IDs and Passwords are created by you.	867227	1471958165564	1471958165640	o	79
1763	18134	The Portal User IDs and Passwords are created by you.	The Portal User IDs and Passwords are created by you.	867229	1471958165941	1471958166019	BKSP	8
1763	18134	The Portal User IDs and Passwords are created by you.	The Portal User IDs and Passwords are created by you.	867231	1471958166086	1471958166173	BKSP	8
1763	18134	The Portal User IDs and Passwords are created by you.	The Portal User IDs and Passwords are created by you.	867234	1471958166410	1471958166476	o	79
1763	18134	The Portal User IDs and Passwords are created by you.	The Portal User IDs and Passwords are created by you.	867237	1471958166636	1471958166715	r	82
1763	18134	The Portal User IDs and Passwords are created by you.	The Portal User IDs and Passwords are created by you.	867240	1471958166881	1471958166982	d	68
1763	18134	The Portal User IDs and Passwords are created by you.	The Portal User IDs and Passwords are created by you.	867242	1471958167082	1471958167196	s	83
1763	18134	The Portal User IDs and Passwords are created by you.	The Portal User IDs and Passwords are created by you.	867279	1471958167251	1471958167324	 	32
1763	18134	The Portal User IDs and Passwords are created by you.	The Portal User IDs and Passwords are created by you.	867280	1471958167458	1471958167572	a	65
1763	18134	The Portal User IDs and Passwords are created by you.	The Portal User IDs and Passwords are created by you.	867281	1471958167872	1471958167942	r	82
1763	18134	The Portal User IDs and Passwords are created by you.	The Portal User IDs and Passwords are created by you.	867282	1471958168008	1471958168071	e	69
1763	18134	The Portal User IDs and Passwords are created by you.	The Portal User IDs and Passwords are created by you.	867283	1471958168112	1471958168183	 	32
1763	18134	The Portal User IDs and Passwords are created by you.	The Portal User IDs and Passwords are created by you.	867304	1471958168516	1471958168589	c	67
1763	18134	The Portal User IDs and Passwords are created by you.	The Portal User IDs and Passwords are created by you.	867309	1471958168696	1471958168761	r	82
1763	18134	The Portal User IDs and Passwords are created by you.	The Portal User IDs and Passwords are created by you.	867313	1471958168800	1471958168880	e	69
1763	18134	The Portal User IDs and Passwords are created by you.	The Portal User IDs and Passwords are created by you.	867317	1471958168969	1471958169079	a	65
1763	18134	The Portal User IDs and Passwords are created by you.	The Portal User IDs and Passwords are created by you.	867321	1471958169095	1471958169160	t	84
1763	18134	The Portal User IDs and Passwords are created by you.	The Portal User IDs and Passwords are created by you.	867350	1471958169247	1471958169457	e	69
1763	18134	The Portal User IDs and Passwords are created by you.	The Portal User IDs and Passwords are created by you.	867353	1471958169373	1471958169494	d	68
1763	18134	The Portal User IDs and Passwords are created by you.	The Portal User IDs and Passwords are created by you.	867357	1471958169533	1471958169607	 	32
1763	18134	The Portal User IDs and Passwords are created by you.	The Portal User IDs and Passwords are created by you.	867361	1471958170138	1471958170204	b	66
1763	18134	The Portal User IDs and Passwords are created by you.	The Portal User IDs and Passwords are created by you.	867363	1471958170362	1471958170415	y	89
1763	18134	The Portal User IDs and Passwords are created by you.	The Portal User IDs and Passwords are created by you.	867413	1471958170525	1471958170590	 	32
1763	18134	The Portal User IDs and Passwords are created by you.	The Portal User IDs and Passwords are created by you.	867416	1471958171054	1471958171118	y	89
1763	18134	The Portal User IDs and Passwords are created by you.	The Portal User IDs and Passwords are created by you.	867418	1471958171346	1471958171404	o	79
1763	18134	The Portal User IDs and Passwords are created by you.	The Portal User IDs and Passwords are created by you.	867420	1471958171566	1471958171621	u	85
1763	18134	The Portal User IDs and Passwords are created by you.	The Portal User IDs and Passwords are created by you.	867422	1471958172155	1471958172208	.	190
1763	18153	Chris Foster is in!	Chris Foster is in!	867542	1471958175333	1471958176042	SHIFT	16
1763	18153	Chris Foster is in!	Chris Foster is in!	867543	1471958175944	1471958176062	C	67
1763	18153	Chris Foster is in!	Chris Foster is in!	867544	1471958176258	1471958176316	h	72
1763	18153	Chris Foster is in!	Chris Foster is in!	867545	1471958176503	1471958176595	r	82
1763	18153	Chris Foster is in!	Chris Foster is in!	867546	1471958176733	1471958176817	i	73
1763	18153	Chris Foster is in!	Chris Foster is in!	867547	1471958176923	1471958177049	s	83
1763	18153	Chris Foster is in!	Chris Foster is in!	867584	1471958177116	1471958177192	 	32
1763	18153	Chris Foster is in!	Chris Foster is in!	867585	1471958177616	1471958177909	SHIFT	16
1763	18153	Chris Foster is in!	Chris Foster is in!	867586	1471958177854	1471958177948	F	70
1763	18153	Chris Foster is in!	Chris Foster is in!	867587	1471958178108	1471958178133	o	79
1763	18153	Chris Foster is in!	Chris Foster is in!	867588	1471958178240	1471958178350	s	83
1763	18153	Chris Foster is in!	Chris Foster is in!	867589	1471958178437	1471958178548	t	84
1763	18153	Chris Foster is in!	Chris Foster is in!	867609	1471958178567	1471958178698	e	69
1763	18153	Chris Foster is in!	Chris Foster is in!	867612	1471958178668	1471958178782	r	82
1763	18153	Chris Foster is in!	Chris Foster is in!	867616	1471958179215	1471958179284	 	32
1763	18153	Chris Foster is in!	Chris Foster is in!	867622	1471958179540	1471958179597	i	73
1763	18153	Chris Foster is in!	Chris Foster is in!	867628	1471958179669	1471958179759	s	83
1763	18153	Chris Foster is in!	Chris Foster is in!	867731	1471958179794	1471958179857	 	32
1763	18153	Chris Foster is in!	Chris Foster is in!	867732	1471958180110	1471958180396	SHIFT	16
1763	18153	Chris Foster is in!	Chris Foster is in!	867735	1471958180567	1471958180630	i	73
1763	18153	Chris Foster is in!	Chris Foster is in!	867737	1471958180897	1471958180960	n	78
1763	18153	Chris Foster is in!	Chris Foster is in!	867738	1471958181351	1471958181404	SHIFT	16
1763	18153	Chris Foster is in!	Chris Foster is in!	867740	1471958181984	1471958182646	SHIFT	16
1763	18153	Chris Foster is in!	Chris Foster is in!	867739	1471958182517	1471958182600	!	49
1763	18161	We could do it at my house.	We could do it at my house.	867863	1471958185214	1471958185606	SHIFT	16
1763	18161	We could do it at my house.	We could do it at my house.	867860	1471958185513	1471958185592	W	87
1763	18161	We could do it at my house.	We could do it at my house.	867868	1471958185700	1471958185788	e	69
1763	18161	We could do it at my house.	We could do it at my house.	867873	1471958185917	1471958185984	 	32
1763	18161	We could do it at my house.	We could do it at my house.	867879	1471958186236	1471958186356	c	67
1763	18161	We could do it at my house.	We could do it at my house.	867882	1471958186461	1471958186542	o	79
1763	18161	We could do it at my house.	We could do it at my house.	867910	1471958186682	1471958186750	u	85
1763	18161	We could do it at my house.	We could do it at my house.	867913	1471958186895	1471958186950	l	76
1763	18161	We could do it at my house.	We could do it at my house.	867917	1471958187073	1471958187187	d	68
1763	18161	We could do it at my house.	We could do it at my house.	867921	1471958187262	1471958187321	 	32
1763	18161	We could do it at my house.	We could do it at my house.	867924	1471958187933	1471958188035	d	68
1763	18161	We could do it at my house.	We could do it at my house.	867939	1471958188146	1471958188205	o	79
1763	18161	We could do it at my house.	We could do it at my house.	867941	1471958188353	1471958188413	 	32
1763	18161	We could do it at my house.	We could do it at my house.	867943	1471958188555	1471958188613	i	73
1763	18161	We could do it at my house.	We could do it at my house.	867946	1471958188776	1471958188842	t	84
1763	18161	We could do it at my house.	We could do it at my house.	867950	1471958188948	1471958189012	 	32
1763	18161	We could do it at my house.	We could do it at my house.	867994	1471958189412	1471958189559	a	65
1763	18161	We could do it at my house.	We could do it at my house.	867996	1471958189675	1471958189755	t	84
1763	18161	We could do it at my house.	We could do it at my house.	867998	1471958189832	1471958189905	 	32
1763	18161	We could do it at my house.	We could do it at my house.	868000	1471958190355	1471958190407	m	77
1763	18161	We could do it at my house.	We could do it at my house.	868002	1471958190645	1471958190715	y	89
1763	18161	We could do it at my house.	We could do it at my house.	868034	1471958190855	1471958190917	 	32
1763	18161	We could do it at my house.	We could do it at my house.	868036	1471958191293	1471958191368	h	72
1763	18161	We could do it at my house.	We could do it at my house.	868038	1471958191512	1471958191581	o	79
1763	18161	We could do it at my house.	We could do it at my house.	868040	1471958191700	1471958191752	u	85
1763	18161	We could do it at my house.	We could do it at my house.	868042	1471958191824	1471958191911	s	83
1763	18161	We could do it at my house.	We could do it at my house.	868061	1471958191999	1471958192087	e	69
1763	18161	We could do it at my house.	We could do it at my house.	868066	1471958192601	1471958192660	.	190
1763	18166	Thanks, having a good time.	Thanks, having a good time.	868505	1471958195040	1471958204961	SHIFT	16
1763	18166	Thanks, having a good time.	Thanks, having a good time.	868506	1471958204867	1471958204997	T	84
1763	18166	Thanks, having a good time.	Thanks, having a good time.	868507	1471958205176	1471958205237	h	72
1763	18166	Thanks, having a good time.	Thanks, having a good time.	868508	1471958205340	1471958205435	a	65
1763	18166	Thanks, having a good time.	Thanks, having a good time.	868509	1471958205531	1471958205583	n	78
1763	18166	Thanks, having a good time.	Thanks, having a good time.	868510	1471958205943	1471958206001	s	83
1763	18166	Thanks, having a good time.	Thanks, having a good time.	868571	1471958206327	1471958206384	BKSP	8
1763	18166	Thanks, having a good time.	Thanks, having a good time.	868572	1471958206588	1471958206642	k	75
1763	18166	Thanks, having a good time.	Thanks, having a good time.	868573	1471958206756	1471958206846	s	83
1763	18166	Thanks, having a good time.	Thanks, having a good time.	868574	1471958207365	1471958207426	,	188
1763	18166	Thanks, having a good time.	Thanks, having a good time.	868575	1471958207543	1471958207590	 	32
1763	18166	Thanks, having a good time.	Thanks, having a good time.	868576	1471958208070	1471958208128	h	72
1763	18166	Thanks, having a good time.	Thanks, having a good time.	868618	1471958208207	1471958208300	a	65
1763	18166	Thanks, having a good time.	Thanks, having a good time.	868619	1471958208388	1471958208488	v	86
1763	18166	Thanks, having a good time.	Thanks, having a good time.	868620	1471958208641	1471958208738	i	73
1763	18166	Thanks, having a good time.	Thanks, having a good time.	868621	1471958208815	1471958208879	n	78
1763	18166	Thanks, having a good time.	Thanks, having a good time.	868622	1471958209014	1471958209113	g	71
1763	18166	Thanks, having a good time.	Thanks, having a good time.	868677	1471958209168	1471958209235	 	32
1763	18166	Thanks, having a good time.	Thanks, having a good time.	868680	1471958209315	1471958209412	a	65
1763	18166	Thanks, having a good time.	Thanks, having a good time.	868684	1471958209513	1471958209563	 	32
1763	18166	Thanks, having a good time.	Thanks, having a good time.	868687	1471958209968	1471958210051	g	71
1763	18166	Thanks, having a good time.	Thanks, having a good time.	868691	1471958210215	1471958210270	o	79
1763	18166	Thanks, having a good time.	Thanks, having a good time.	868724	1471958210351	1471958210436	o	79
1763	18166	Thanks, having a good time.	Thanks, having a good time.	868729	1471958210470	1471958210569	d	68
1763	18166	Thanks, having a good time.	Thanks, having a good time.	868736	1471958210589	1471958210656	 	32
1763	18166	Thanks, having a good time.	Thanks, having a good time.	868746	1471958211120	1471958211195	t	84
1763	18166	Thanks, having a good time.	Thanks, having a good time.	868753	1471958211378	1471958211509	i	73
1763	18166	Thanks, having a good time.	Thanks, having a good time.	868796	1471958211557	1471958211664	m	77
1763	18166	Thanks, having a good time.	Thanks, having a good time.	868798	1471958211749	1471958211831	e	69
1763	18166	Thanks, having a good time.	Thanks, having a good time.	868800	1471958212394	1471958212447	.	190
1763	18183	Will call later to explain.	Will call later to explain.	868898	1471958214594	1471958215000	SHIFT	16
1763	18183	Will call later to explain.	Will call later to explain.	868901	1471958214959	1471958215028	W	87
1763	18183	Will call later to explain.	Will call later to explain.	868903	1471958215214	1471958215270	i	73
1763	18183	Will call later to explain.	Will call later to explain.	868906	1471958215403	1471958215471	l	76
1763	18183	Will call later to explain.	Will call later to explain.	868909	1471958215520	1471958215611	l	76
1763	18183	Will call later to explain.	Will call later to explain.	868912	1471958215696	1471958215769	 	32
1763	18183	Will call later to explain.	Will call later to explain.	868923	1471958215830	1471958215984	c	67
1763	18183	Will call later to explain.	Will call later to explain.	868925	1471958216044	1471958216157	a	65
1763	18183	Will call later to explain.	Will call later to explain.	868927	1471958216190	1471958216261	l	76
1763	18183	Will call later to explain.	Will call later to explain.	868929	1471958216370	1471958216462	l	76
1763	18183	Will call later to explain.	Will call later to explain.	868930	1471958216549	1471958216612	 	32
1763	18183	Will call later to explain.	Will call later to explain.	868981	1471958216914	1471958216973	l	76
1763	18183	Will call later to explain.	Will call later to explain.	868982	1471958217073	1471958217177	a	65
1763	18183	Will call later to explain.	Will call later to explain.	868984	1471958217271	1471958217340	t	84
1763	18183	Will call later to explain.	Will call later to explain.	868985	1471958217416	1471958217496	e	69
1763	18183	Will call later to explain.	Will call later to explain.	868986	1471958217503	1471958217596	r	82
1763	18183	Will call later to explain.	Will call later to explain.	869042	1471958217695	1471958217776	 	32
1763	18183	Will call later to explain.	Will call later to explain.	869044	1471958218193	1471958218273	t	84
1763	18183	Will call later to explain.	Will call later to explain.	869047	1471958218449	1471958218523	o	79
1763	18183	Will call later to explain.	Will call later to explain.	869049	1471958218614	1471958218677	 	32
1763	18183	Will call later to explain.	Will call later to explain.	869051	1471958218845	1471958218937	e	69
1763	18183	Will call later to explain.	Will call later to explain.	869111	1471958219477	1471958219574	x	88
1763	18183	Will call later to explain.	Will call later to explain.	869113	1471958219940	1471958220103	p	80
1763	18183	Will call later to explain.	Will call later to explain.	869116	1471958220054	1471958220168	l	76
1763	18183	Will call later to explain.	Will call later to explain.	869118	1471958220247	1471958220327	a	65
1763	18183	Will call later to explain.	Will call later to explain.	869120	1471958220393	1471958220469	i	73
1763	18183	Will call later to explain.	Will call later to explain.	869165	1471958220550	1471958220613	n	78
1763	18183	Will call later to explain.	Will call later to explain.	869167	1471958221417	1471958221458	.	190
1763	18193	Edwards said Chrebet passed the various tests and scans he was given.	Edwards said Chrebet passed the various tests and scans he was given.	869373	1471958223746	1471958224161	SHIFT	16
1763	18193	Edwards said Chrebet passed the various tests and scans he was given.	Edwards said Chrebet passed the various tests and scans he was given.	869375	1471958224860	1471958225314	SHIFT	16
1763	18193	Edwards said Chrebet passed the various tests and scans he was given.	Edwards said Chrebet passed the various tests and scans he was given.	869374	1471958225211	1471958225285	E	69
1763	18193	Edwards said Chrebet passed the various tests and scans he was given.	Edwards said Chrebet passed the various tests and scans he was given.	869377	1471958225608	1471958225744	d	68
1763	18193	Edwards said Chrebet passed the various tests and scans he was given.	Edwards said Chrebet passed the various tests and scans he was given.	869378	1471958225815	1471958225901	w	87
1763	18193	Edwards said Chrebet passed the various tests and scans he was given.	Edwards said Chrebet passed the various tests and scans he was given.	869381	1471958226001	1471958226108	a	65
1763	18193	Edwards said Chrebet passed the various tests and scans he was given.	Edwards said Chrebet passed the various tests and scans he was given.	869384	1471958226291	1471958226352	r	82
1763	18193	Edwards said Chrebet passed the various tests and scans he was given.	Edwards said Chrebet passed the various tests and scans he was given.	869420	1471958226535	1471958226626	d	68
1763	18193	Edwards said Chrebet passed the various tests and scans he was given.	Edwards said Chrebet passed the various tests and scans he was given.	869423	1471958226758	1471958226858	s	83
1763	18193	Edwards said Chrebet passed the various tests and scans he was given.	Edwards said Chrebet passed the various tests and scans he was given.	869427	1471958226925	1471958226982	 	32
1763	18193	Edwards said Chrebet passed the various tests and scans he was given.	Edwards said Chrebet passed the various tests and scans he was given.	869430	1471958227322	1471958227394	s	83
1763	18193	Edwards said Chrebet passed the various tests and scans he was given.	Edwards said Chrebet passed the various tests and scans he was given.	869433	1471958227495	1471958227591	a	65
1763	18193	Edwards said Chrebet passed the various tests and scans he was given.	Edwards said Chrebet passed the various tests and scans he was given.	869515	1471958228214	1471958228275	i	73
1763	18193	Edwards said Chrebet passed the various tests and scans he was given.	Edwards said Chrebet passed the various tests and scans he was given.	869517	1471958228437	1471958228520	d	68
1763	18193	Edwards said Chrebet passed the various tests and scans he was given.	Edwards said Chrebet passed the various tests and scans he was given.	869520	1471958228589	1471958228645	 	32
1763	18193	Edwards said Chrebet passed the various tests and scans he was given.	Edwards said Chrebet passed the various tests and scans he was given.	869523	1471958229074	1471958229601	SHIFT	16
1763	18193	Edwards said Chrebet passed the various tests and scans he was given.	Edwards said Chrebet passed the various tests and scans he was given.	869526	1471958229481	1471958229606	C	67
1763	18193	Edwards said Chrebet passed the various tests and scans he was given.	Edwards said Chrebet passed the various tests and scans he was given.	869529	1471958229883	1471958229945	h	72
1763	18193	Edwards said Chrebet passed the various tests and scans he was given.	Edwards said Chrebet passed the various tests and scans he was given.	869633	1471958230097	1471958230197	e	69
1763	18193	Edwards said Chrebet passed the various tests and scans he was given.	Edwards said Chrebet passed the various tests and scans he was given.	869636	1471958230304	1471958230377	r	82
1763	18193	Edwards said Chrebet passed the various tests and scans he was given.	Edwards said Chrebet passed the various tests and scans he was given.	869641	1471958231131	1471958231190	BKSP	8
1763	18193	Edwards said Chrebet passed the various tests and scans he was given.	Edwards said Chrebet passed the various tests and scans he was given.	869646	1471958231269	1471958231359	BKSP	8
1763	18193	Edwards said Chrebet passed the various tests and scans he was given.	Edwards said Chrebet passed the various tests and scans he was given.	869651	1471958231780	1471958231860	r	82
1763	18193	Edwards said Chrebet passed the various tests and scans he was given.	Edwards said Chrebet passed the various tests and scans he was given.	869657	1471958231947	1471958232045	e	69
1763	18193	Edwards said Chrebet passed the various tests and scans he was given.	Edwards said Chrebet passed the various tests and scans he was given.	869661	1471958232664	1471958232717	b	66
1763	18193	Edwards said Chrebet passed the various tests and scans he was given.	Edwards said Chrebet passed the various tests and scans he was given.	869682	1471958232780	1471958232858	e	69
1763	18193	Edwards said Chrebet passed the various tests and scans he was given.	Edwards said Chrebet passed the various tests and scans he was given.	869685	1471958232914	1471958232989	t	84
1763	18193	Edwards said Chrebet passed the various tests and scans he was given.	Edwards said Chrebet passed the various tests and scans he was given.	869688	1471958233083	1471958233157	 	32
1763	18193	Edwards said Chrebet passed the various tests and scans he was given.	Edwards said Chrebet passed the various tests and scans he was given.	869691	1471958233658	1471958233708	p	80
1763	18193	Edwards said Chrebet passed the various tests and scans he was given.	Edwards said Chrebet passed the various tests and scans he was given.	869696	1471958233813	1471958233895	a	65
1763	18193	Edwards said Chrebet passed the various tests and scans he was given.	Edwards said Chrebet passed the various tests and scans he was given.	869717	1471958233991	1471958234082	s	83
1763	18193	Edwards said Chrebet passed the various tests and scans he was given.	Edwards said Chrebet passed the various tests and scans he was given.	869720	1471958234177	1471958234302	s	83
1763	18193	Edwards said Chrebet passed the various tests and scans he was given.	Edwards said Chrebet passed the various tests and scans he was given.	869724	1471958234424	1471958234590	e	69
1763	18193	Edwards said Chrebet passed the various tests and scans he was given.	Edwards said Chrebet passed the various tests and scans he was given.	869728	1471958234509	1471958234627	d	68
1763	18193	Edwards said Chrebet passed the various tests and scans he was given.	Edwards said Chrebet passed the various tests and scans he was given.	869730	1471958234752	1471958234823	 	32
1763	18193	Edwards said Chrebet passed the various tests and scans he was given.	Edwards said Chrebet passed the various tests and scans he was given.	869766	1471958235308	1471958235393	t	84
1763	18193	Edwards said Chrebet passed the various tests and scans he was given.	Edwards said Chrebet passed the various tests and scans he was given.	869769	1471958235465	1471958235551	h	72
1763	18193	Edwards said Chrebet passed the various tests and scans he was given.	Edwards said Chrebet passed the various tests and scans he was given.	869774	1471958235537	1471958235623	e	69
1763	18193	Edwards said Chrebet passed the various tests and scans he was given.	Edwards said Chrebet passed the various tests and scans he was given.	869778	1471958235688	1471958235747	 	32
1763	18193	Edwards said Chrebet passed the various tests and scans he was given.	Edwards said Chrebet passed the various tests and scans he was given.	869785	1471958236343	1471958236419	v	86
1763	18193	Edwards said Chrebet passed the various tests and scans he was given.	Edwards said Chrebet passed the various tests and scans he was given.	869831	1471958236483	1471958236568	a	65
1763	18193	Edwards said Chrebet passed the various tests and scans he was given.	Edwards said Chrebet passed the various tests and scans he was given.	869833	1471958236874	1471958236965	r	82
1763	18193	Edwards said Chrebet passed the various tests and scans he was given.	Edwards said Chrebet passed the various tests and scans he was given.	869836	1471958237153	1471958237222	i	73
1763	18193	Edwards said Chrebet passed the various tests and scans he was given.	Edwards said Chrebet passed the various tests and scans he was given.	869839	1471958237311	1471958237390	o	79
1763	18193	Edwards said Chrebet passed the various tests and scans he was given.	Edwards said Chrebet passed the various tests and scans he was given.	869843	1471958237507	1471958237566	u	85
1763	18193	Edwards said Chrebet passed the various tests and scans he was given.	Edwards said Chrebet passed the various tests and scans he was given.	869868	1471958237652	1471958237746	s	83
1763	18193	Edwards said Chrebet passed the various tests and scans he was given.	Edwards said Chrebet passed the various tests and scans he was given.	869869	1471958237837	1471958237891	 	32
1763	18193	Edwards said Chrebet passed the various tests and scans he was given.	Edwards said Chrebet passed the various tests and scans he was given.	869870	1471958238309	1471958238378	t	84
1763	18193	Edwards said Chrebet passed the various tests and scans he was given.	Edwards said Chrebet passed the various tests and scans he was given.	869871	1471958238416	1471958238497	e	69
1763	18193	Edwards said Chrebet passed the various tests and scans he was given.	Edwards said Chrebet passed the various tests and scans he was given.	869872	1471958238563	1471958238690	s	83
1763	18193	Edwards said Chrebet passed the various tests and scans he was given.	Edwards said Chrebet passed the various tests and scans he was given.	869882	1471958238599	1471958238708	t	84
1763	18193	Edwards said Chrebet passed the various tests and scans he was given.	Edwards said Chrebet passed the various tests and scans he was given.	869885	1471958239239	1471958239349	s	83
1763	18193	Edwards said Chrebet passed the various tests and scans he was given.	Edwards said Chrebet passed the various tests and scans he was given.	869889	1471958239468	1471958239537	 	32
1763	18193	Edwards said Chrebet passed the various tests and scans he was given.	Edwards said Chrebet passed the various tests and scans he was given.	869893	1471958239673	1471958239773	a	65
1763	18193	Edwards said Chrebet passed the various tests and scans he was given.	Edwards said Chrebet passed the various tests and scans he was given.	869902	1471958239782	1471958239838	n	78
1763	18193	Edwards said Chrebet passed the various tests and scans he was given.	Edwards said Chrebet passed the various tests and scans he was given.	869910	1471958239892	1471958240003	d	68
1763	18193	Edwards said Chrebet passed the various tests and scans he was given.	Edwards said Chrebet passed the various tests and scans he was given.	870016	1471958240059	1471958240118	 	32
1763	18193	Edwards said Chrebet passed the various tests and scans he was given.	Edwards said Chrebet passed the various tests and scans he was given.	870018	1471958240548	1471958240664	c	67
1763	18193	Edwards said Chrebet passed the various tests and scans he was given.	Edwards said Chrebet passed the various tests and scans he was given.	870021	1471958241004	1471958241068	BKSP	8
1763	18193	Edwards said Chrebet passed the various tests and scans he was given.	Edwards said Chrebet passed the various tests and scans he was given.	870024	1471958241141	1471958241240	s	83
1763	18193	Edwards said Chrebet passed the various tests and scans he was given.	Edwards said Chrebet passed the various tests and scans he was given.	870026	1471958241331	1471958241480	a	65
1763	18193	Edwards said Chrebet passed the various tests and scans he was given.	Edwards said Chrebet passed the various tests and scans he was given.	870031	1471958241966	1471958242051	BKSP	8
1763	18193	Edwards said Chrebet passed the various tests and scans he was given.	Edwards said Chrebet passed the various tests and scans he was given.	870036	1471958242176	1471958242323	c	67
1763	18193	Edwards said Chrebet passed the various tests and scans he was given.	Edwards said Chrebet passed the various tests and scans he was given.	870132	1471958242393	1471958242493	a	65
1763	18193	Edwards said Chrebet passed the various tests and scans he was given.	Edwards said Chrebet passed the various tests and scans he was given.	870134	1471958242837	1471958242852	k	75
1763	18193	Edwards said Chrebet passed the various tests and scans he was given.	Edwards said Chrebet passed the various tests and scans he was given.	870138	1471958243224	1471958243276	n	78
1763	18193	Edwards said Chrebet passed the various tests and scans he was given.	Edwards said Chrebet passed the various tests and scans he was given.	870143	1471958243353	1471958243440	s	83
1763	18193	Edwards said Chrebet passed the various tests and scans he was given.	Edwards said Chrebet passed the various tests and scans he was given.	870148	1471958243719	1471958243766	BKSP	8
1763	18193	Edwards said Chrebet passed the various tests and scans he was given.	Edwards said Chrebet passed the various tests and scans he was given.	870152	1471958243868	1471958243933	BKSP	8
1763	18193	Edwards said Chrebet passed the various tests and scans he was given.	Edwards said Chrebet passed the various tests and scans he was given.	870156	1471958243992	1471958244061	BKSP	8
1763	18193	Edwards said Chrebet passed the various tests and scans he was given.	Edwards said Chrebet passed the various tests and scans he was given.	870160	1471958244263	1471958244334	n	78
1763	18193	Edwards said Chrebet passed the various tests and scans he was given.	Edwards said Chrebet passed the various tests and scans he was given.	870198	1471958244493	1471958244524	s	83
1763	18193	Edwards said Chrebet passed the various tests and scans he was given.	Edwards said Chrebet passed the various tests and scans he was given.	870199	1471958244949	1471958244993	 	32
1763	18193	Edwards said Chrebet passed the various tests and scans he was given.	Edwards said Chrebet passed the various tests and scans he was given.	870201	1471958245188	1471958245249	h	72
1763	18193	Edwards said Chrebet passed the various tests and scans he was given.	Edwards said Chrebet passed the various tests and scans he was given.	870202	1471958245312	1471958245398	e	69
1763	18193	Edwards said Chrebet passed the various tests and scans he was given.	Edwards said Chrebet passed the various tests and scans he was given.	870204	1471958245438	1471958245491	 	32
1763	18193	Edwards said Chrebet passed the various tests and scans he was given.	Edwards said Chrebet passed the various tests and scans he was given.	870252	1471958245561	1471958245690	w	87
1763	18193	Edwards said Chrebet passed the various tests and scans he was given.	Edwards said Chrebet passed the various tests and scans he was given.	870254	1471958245781	1471958245871	a	65
1763	18193	Edwards said Chrebet passed the various tests and scans he was given.	Edwards said Chrebet passed the various tests and scans he was given.	870256	1471958245814	1471958245967	s	83
1763	18193	Edwards said Chrebet passed the various tests and scans he was given.	Edwards said Chrebet passed the various tests and scans he was given.	870257	1471958246068	1471958246129	 	32
1763	18193	Edwards said Chrebet passed the various tests and scans he was given.	Edwards said Chrebet passed the various tests and scans he was given.	870259	1471958246640	1471958246715	g	71
1763	18193	Edwards said Chrebet passed the various tests and scans he was given.	Edwards said Chrebet passed the various tests and scans he was given.	870311	1471958246879	1471958246967	i	73
1763	18193	Edwards said Chrebet passed the various tests and scans he was given.	Edwards said Chrebet passed the various tests and scans he was given.	870312	1471958247214	1471958247268	v	86
1763	18193	Edwards said Chrebet passed the various tests and scans he was given.	Edwards said Chrebet passed the various tests and scans he was given.	870315	1471958247363	1471958247461	e	69
1763	18193	Edwards said Chrebet passed the various tests and scans he was given.	Edwards said Chrebet passed the various tests and scans he was given.	870318	1471958247560	1471958247623	n	78
1763	18193	Edwards said Chrebet passed the various tests and scans he was given.	Edwards said Chrebet passed the various tests and scans he was given.	870321	1471958248135	1471958248172	.	190
1763	18211	Was wondering if you and Natalie connected?	Was wondering if you and Natalie connected?	870462	1471958250293	1471958250617	SHIFT	16
1763	18211	Was wondering if you and Natalie connected?	Was wondering if you and Natalie connected?	870461	1471958250497	1471958250607	W	87
1763	18211	Was wondering if you and Natalie connected?	Was wondering if you and Natalie connected?	870463	1471958250685	1471958250886	a	65
1763	18211	Was wondering if you and Natalie connected?	Was wondering if you and Natalie connected?	870464	1471958250829	1471958250962	s	83
1763	18211	Was wondering if you and Natalie connected?	Was wondering if you and Natalie connected?	870465	1471958251044	1471958251108	 	32
1763	18211	Was wondering if you and Natalie connected?	Was wondering if you and Natalie connected?	870466	1471958251590	1471958251681	w	87
1763	18211	Was wondering if you and Natalie connected?	Was wondering if you and Natalie connected?	870518	1471958251786	1471958251908	o	79
1763	18211	Was wondering if you and Natalie connected?	Was wondering if you and Natalie connected?	870524	1471958251958	1471958252040	n	78
1763	18211	Was wondering if you and Natalie connected?	Was wondering if you and Natalie connected?	870527	1471958252191	1471958252322	d	68
1763	18211	Was wondering if you and Natalie connected?	Was wondering if you and Natalie connected?	870531	1471958252395	1471958252498	e	69
1763	18211	Was wondering if you and Natalie connected?	Was wondering if you and Natalie connected?	870535	1471958252588	1471958252678	r	82
1763	18211	Was wondering if you and Natalie connected?	Was wondering if you and Natalie connected?	870584	1471958253158	1471958253250	i	73
1763	18211	Was wondering if you and Natalie connected?	Was wondering if you and Natalie connected?	870585	1471958253320	1471958253391	n	78
1763	18211	Was wondering if you and Natalie connected?	Was wondering if you and Natalie connected?	870587	1471958253547	1471958253628	g	71
1763	18211	Was wondering if you and Natalie connected?	Was wondering if you and Natalie connected?	870589	1471958253714	1471958253784	 	32
1763	18211	Was wondering if you and Natalie connected?	Was wondering if you and Natalie connected?	870591	1471958254181	1471958254251	i	73
1763	18211	Was wondering if you and Natalie connected?	Was wondering if you and Natalie connected?	870613	1471958254445	1471958254519	f	70
1763	18211	Was wondering if you and Natalie connected?	Was wondering if you and Natalie connected?	870616	1471958254572	1471958254655	 	32
1763	18211	Was wondering if you and Natalie connected?	Was wondering if you and Natalie connected?	870619	1471958254792	1471958254866	y	89
1763	18211	Was wondering if you and Natalie connected?	Was wondering if you and Natalie connected?	870620	1471958255049	1471958255112	o	79
1763	18211	Was wondering if you and Natalie connected?	Was wondering if you and Natalie connected?	870621	1471958255229	1471958255311	u	85
1763	18211	Was wondering if you and Natalie connected?	Was wondering if you and Natalie connected?	870649	1471958255417	1471958255509	 	32
1763	18211	Was wondering if you and Natalie connected?	Was wondering if you and Natalie connected?	870651	1471958256074	1471958256199	a	65
1763	18211	Was wondering if you and Natalie connected?	Was wondering if you and Natalie connected?	870653	1471958256217	1471958256342	n	78
1763	18211	Was wondering if you and Natalie connected?	Was wondering if you and Natalie connected?	870654	1471958256362	1471958256494	d	68
1763	18211	Was wondering if you and Natalie connected?	Was wondering if you and Natalie connected?	870656	1471958256513	1471958256583	 	32
1763	18211	Was wondering if you and Natalie connected?	Was wondering if you and Natalie connected?	870725	1471958256827	1471958257326	SHIFT	16
1763	18211	Was wondering if you and Natalie connected?	Was wondering if you and Natalie connected?	870726	1471958257260	1471958257378	N	78
1763	18211	Was wondering if you and Natalie connected?	Was wondering if you and Natalie connected?	870727	1471958257449	1471958257534	a	65
1763	18211	Was wondering if you and Natalie connected?	Was wondering if you and Natalie connected?	870728	1471958257624	1471958257694	t	84
1763	18211	Was wondering if you and Natalie connected?	Was wondering if you and Natalie connected?	870729	1471958257743	1471958257824	a	65
1763	18211	Was wondering if you and Natalie connected?	Was wondering if you and Natalie connected?	870730	1471958258373	1471958258437	l	76
1763	18211	Was wondering if you and Natalie connected?	Was wondering if you and Natalie connected?	870778	1471958258563	1471958258625	i	73
1763	18211	Was wondering if you and Natalie connected?	Was wondering if you and Natalie connected?	870779	1471958258722	1471958258825	e	69
1763	18211	Was wondering if you and Natalie connected?	Was wondering if you and Natalie connected?	870781	1471958258932	1471958258980	 	32
1763	18211	Was wondering if you and Natalie connected?	Was wondering if you and Natalie connected?	870783	1471958259523	1471958259638	c	67
1763	18211	Was wondering if you and Natalie connected?	Was wondering if you and Natalie connected?	870785	1471958259742	1471958259812	o	79
1763	18211	Was wondering if you and Natalie connected?	Was wondering if you and Natalie connected?	870820	1471958259939	1471958260002	n	78
1763	18211	Was wondering if you and Natalie connected?	Was wondering if you and Natalie connected?	870822	1471958260080	1471958260163	n	78
1763	18211	Was wondering if you and Natalie connected?	Was wondering if you and Natalie connected?	870825	1471958260191	1471958260322	e	69
1763	18211	Was wondering if you and Natalie connected?	Was wondering if you and Natalie connected?	870828	1471958260423	1471958260519	c	67
1763	18211	Was wondering if you and Natalie connected?	Was wondering if you and Natalie connected?	870907	1471958260489	1471958260590	t	84
1763	18211	Was wondering if you and Natalie connected?	Was wondering if you and Natalie connected?	870909	1471958260682	1471958260852	e	69
1763	18211	Was wondering if you and Natalie connected?	Was wondering if you and Natalie connected?	870910	1471958260766	1471958260911	d	68
1763	18211	Was wondering if you and Natalie connected?	Was wondering if you and Natalie connected?	870911	1471958261427	1471958261714	SHIFT	16
1763	18211	Was wondering if you and Natalie connected?	Was wondering if you and Natalie connected?	870912	1471958261644	1471958261793	?	191
1763	18223	What do you think about Tracy and Jim?	What do you think about Tracy and Jim?	871090	1471958263763	1471958264286	SHIFT	16
1763	18223	What do you think about Tracy and Jim?	What do you think about Tracy and Jim?	871092	1471958264196	1471958264296	W	87
1763	18223	What do you think about Tracy and Jim?	What do you think about Tracy and Jim?	871095	1471958264506	1471958264571	h	72
1763	18223	What do you think about Tracy and Jim?	What do you think about Tracy and Jim?	871097	1471958264621	1471958264748	a	65
1763	18223	What do you think about Tracy and Jim?	What do you think about Tracy and Jim?	871099	1471958264801	1471958264874	t	84
1763	18223	What do you think about Tracy and Jim?	What do you think about Tracy and Jim?	871101	1471958265006	1471958265088	 	32
1763	18223	What do you think about Tracy and Jim?	What do you think about Tracy and Jim?	871158	1471958265576	1471958265711	d	68
1763	18223	What do you think about Tracy and Jim?	What do you think about Tracy and Jim?	871161	1471958265786	1471958265855	o	79
1763	18223	What do you think about Tracy and Jim?	What do you think about Tracy and Jim?	871164	1471958265973	1471958266036	 	32
1763	18223	What do you think about Tracy and Jim?	What do you think about Tracy and Jim?	871167	1471958266193	1471958266257	y	89
1763	18223	What do you think about Tracy and Jim?	What do you think about Tracy and Jim?	871170	1471958266441	1471958266502	o	79
1763	18223	What do you think about Tracy and Jim?	What do you think about Tracy and Jim?	871218	1471958266638	1471958266688	u	85
1763	18223	What do you think about Tracy and Jim?	What do you think about Tracy and Jim?	871222	1471958266821	1471958266890	 	32
1763	18223	What do you think about Tracy and Jim?	What do you think about Tracy and Jim?	871225	1471958267049	1471958267122	t	84
1763	18223	What do you think about Tracy and Jim?	What do you think about Tracy and Jim?	871227	1471958267244	1471958267272	h	72
1763	18223	What do you think about Tracy and Jim?	What do you think about Tracy and Jim?	871229	1471958267722	1471958267792	i	73
1763	18223	What do you think about Tracy and Jim?	What do you think about Tracy and Jim?	871256	1471958267872	1471958267937	n	78
1763	18223	What do you think about Tracy and Jim?	What do you think about Tracy and Jim?	871258	1471958268096	1471958268153	k	75
1763	18223	What do you think about Tracy and Jim?	What do you think about Tracy and Jim?	871261	1471958268269	1471958268333	 	32
1763	18223	What do you think about Tracy and Jim?	What do you think about Tracy and Jim?	871265	1471958268710	1471958268836	a	65
1763	18223	What do you think about Tracy and Jim?	What do you think about Tracy and Jim?	871270	1471958269068	1471958269133	b	66
1763	18223	What do you think about Tracy and Jim?	What do you think about Tracy and Jim?	871338	1471958269318	1471958269375	o	79
1763	18223	What do you think about Tracy and Jim?	What do you think about Tracy and Jim?	871342	1471958269515	1471958269574	u	85
1763	18223	What do you think about Tracy and Jim?	What do you think about Tracy and Jim?	871349	1471958269729	1471958269787	t	84
1763	18223	What do you think about Tracy and Jim?	What do you think about Tracy and Jim?	871353	1471958269893	1471958269951	 	32
1763	18223	What do you think about Tracy and Jim?	What do you think about Tracy and Jim?	871398	1471958270206	1471958270623	SHIFT	16
1763	18223	What do you think about Tracy and Jim?	What do you think about Tracy and Jim?	871358	1471958270524	1471958270611	T	84
1763	18223	What do you think about Tracy and Jim?	What do you think about Tracy and Jim?	871401	1471958270699	1471958270807	r	82
1763	18223	What do you think about Tracy and Jim?	What do you think about Tracy and Jim?	871404	1471958270926	1471958271053	a	65
1763	18223	What do you think about Tracy and Jim?	What do you think about Tracy and Jim?	871407	1471958271162	1471958271292	c	67
1763	18223	What do you think about Tracy and Jim?	What do you think about Tracy and Jim?	871409	1471958271437	1471958271516	y	89
1763	18223	What do you think about Tracy and Jim?	What do you think about Tracy and Jim?	871410	1471958271592	1471958271680	 	32
1763	18223	What do you think about Tracy and Jim?	What do you think about Tracy and Jim?	871456	1471958271924	1471958272055	a	65
1763	18223	What do you think about Tracy and Jim?	What do you think about Tracy and Jim?	871457	1471958272083	1471958272142	n	78
1763	18223	What do you think about Tracy and Jim?	What do you think about Tracy and Jim?	871459	1471958272227	1471958272337	d	68
1763	18223	What do you think about Tracy and Jim?	What do you think about Tracy and Jim?	871461	1471958272370	1471958272434	 	32
1763	18223	What do you think about Tracy and Jim?	What do you think about Tracy and Jim?	871464	1471958272702	1471958273204	SHIFT	16
1763	18223	What do you think about Tracy and Jim?	What do you think about Tracy and Jim?	871513	1471958273126	1471958273209	J	74
1763	18223	What do you think about Tracy and Jim?	What do you think about Tracy and Jim?	871515	1471958273357	1471958273449	i	73
1763	18223	What do you think about Tracy and Jim?	What do you think about Tracy and Jim?	871517	1471958273521	1471958273589	m	77
1763	18223	What do you think about Tracy and Jim?	What do you think about Tracy and Jim?	871518	1471958273921	1471958274219	SHIFT	16
1763	18223	What do you think about Tracy and Jim?	What do you think about Tracy and Jim?	871519	1471958274115	1471958274259	?	191
1763	18232	If so he probably will have to pay back.	If so he probably will have to pay back.	871621	1471958276524	1471958276975	SHIFT	16
1763	18232	If so he probably will have to pay back.	If so he probably will have to pay back.	871624	1471958276928	1471958277015	I	73
1763	18232	If so he probably will have to pay back.	If so he probably will have to pay back.	871626	1471958277283	1471958277392	f	70
1763	18232	If so he probably will have to pay back.	If so he probably will have to pay back.	871629	1471958277425	1471958277499	 	32
1763	18232	If so he probably will have to pay back.	If so he probably will have to pay back.	871633	1471958277691	1471958277817	s	83
1763	18232	If so he probably will have to pay back.	If so he probably will have to pay back.	871638	1471958277877	1471958277975	o	79
1763	18232	If so he probably will have to pay back.	If so he probably will have to pay back.	871681	1471958278083	1471958278154	n	78
1763	18232	If so he probably will have to pay back.	If so he probably will have to pay back.	871682	1471958278358	1471958278439	 	32
1763	18232	If so he probably will have to pay back.	If so he probably will have to pay back.	871683	1471958279027	1471958279077	BKSP	8
1763	18232	If so he probably will have to pay back.	If so he probably will have to pay back.	871684	1471958279163	1471958279243	BKSP	8
1763	18232	If so he probably will have to pay back.	If so he probably will have to pay back.	871685	1471958279410	1471958279485	 	32
1763	18232	If so he probably will have to pay back.	If so he probably will have to pay back.	871687	1471958279646	1471958279693	h	72
1763	18232	If so he probably will have to pay back.	If so he probably will have to pay back.	871691	1471958279754	1471958279845	e	69
1763	18232	If so he probably will have to pay back.	If so he probably will have to pay back.	871719	1471958279882	1471958279936	 	32
1763	18232	If so he probably will have to pay back.	If so he probably will have to pay back.	871720	1471958280322	1471958280380	p	80
1763	18232	If so he probably will have to pay back.	If so he probably will have to pay back.	871721	1471958280526	1471958280610	r	82
1763	18232	If so he probably will have to pay back.	If so he probably will have to pay back.	871722	1471958280757	1471958280837	o	79
1763	18232	If so he probably will have to pay back.	If so he probably will have to pay back.	871724	1471958281030	1471958281101	b	66
1763	18232	If so he probably will have to pay back.	If so he probably will have to pay back.	871802	1471958281198	1471958281284	a	65
1763	18232	If so he probably will have to pay back.	If so he probably will have to pay back.	871803	1471958281379	1471958281402	l	76
1763	18232	If so he probably will have to pay back.	If so he probably will have to pay back.	871804	1471958282199	1471958282224	=	187
1763	18232	If so he probably will have to pay back.	If so he probably will have to pay back.	871805	1471958282210	1471958282236	BKSP	8
1763	18232	If so he probably will have to pay back.	If so he probably will have to pay back.	871806	1471958282503	1471958282573	b	66
1763	18232	If so he probably will have to pay back.	If so he probably will have to pay back.	871808	1471958282831	1471958282888	BKSP	8
1763	18232	If so he probably will have to pay back.	If so he probably will have to pay back.	871810	1471958282968	1471958283054	BKSP	8
1763	18232	If so he probably will have to pay back.	If so he probably will have to pay back.	871812	1471958283434	1471958283485	b	66
1763	18232	If so he probably will have to pay back.	If so he probably will have to pay back.	871850	1471958283682	1471958283734	l	76
1763	18232	If so he probably will have to pay back.	If so he probably will have to pay back.	871854	1471958283963	1471958284017	y	89
1763	18232	If so he probably will have to pay back.	If so he probably will have to pay back.	871858	1471958284133	1471958284195	 	32
1763	18232	If so he probably will have to pay back.	If so he probably will have to pay back.	871861	1471958284482	1471958284592	w	87
1763	18232	If so he probably will have to pay back.	If so he probably will have to pay back.	871862	1471958284778	1471958284837	i	73
1763	18232	If so he probably will have to pay back.	If so he probably will have to pay back.	871915	1471958284986	1471958285049	l	76
1763	18232	If so he probably will have to pay back.	If so he probably will have to pay back.	871918	1471958285120	1471958285204	l	76
1763	18232	If so he probably will have to pay back.	If so he probably will have to pay back.	871921	1471958285284	1471958285369	 	32
1763	18232	If so he probably will have to pay back.	If so he probably will have to pay back.	871925	1471958285696	1471958285771	h	72
1763	18232	If so he probably will have to pay back.	If so he probably will have to pay back.	871928	1471958285810	1471958285912	a	65
1763	18232	If so he probably will have to pay back.	If so he probably will have to pay back.	871951	1471958285998	1471958286057	v	86
1763	18232	If so he probably will have to pay back.	If so he probably will have to pay back.	871953	1471958286156	1471958286244	e	69
1763	18232	If so he probably will have to pay back.	If so he probably will have to pay back.	871955	1471958286268	1471958286315	 	32
1763	18232	If so he probably will have to pay back.	If so he probably will have to pay back.	871956	1471958286710	1471958286786	t	84
1763	18232	If so he probably will have to pay back.	If so he probably will have to pay back.	871958	1471958286862	1471958286935	o	79
1763	18232	If so he probably will have to pay back.	If so he probably will have to pay back.	871973	1471958287017	1471958287081	 	32
1763	18232	If so he probably will have to pay back.	If so he probably will have to pay back.	871975	1471958287241	1471958287314	p	80
1763	18232	If so he probably will have to pay back.	If so he probably will have to pay back.	871977	1471958287392	1471958287480	a	65
1763	18232	If so he probably will have to pay back.	If so he probably will have to pay back.	871979	1471958287538	1471958287624	y	89
1763	18232	If so he probably will have to pay back.	If so he probably will have to pay back.	871981	1471958287684	1471958287753	 	32
1763	18232	If so he probably will have to pay back.	If so he probably will have to pay back.	872001	1471958288129	1471958288206	b	66
1763	18232	If so he probably will have to pay back.	If so he probably will have to pay back.	872002	1471958288257	1471958288342	a	65
1763	18232	If so he probably will have to pay back.	If so he probably will have to pay back.	872003	1471958288465	1471958288567	c	67
1763	18232	If so he probably will have to pay back.	If so he probably will have to pay back.	872004	1471958288583	1471958288648	k	75
1763	18232	If so he probably will have to pay back.	If so he probably will have to pay back.	872005	1471958289175	1471958289222	.	190
1763	18248	She was going to leave at 8 or 9.	She was going to leave at 8 or 9.	872285	1471958294305	1471958294634	SHIFT	16
1763	18248	She was going to leave at 8 or 9.	She was going to leave at 8 or 9.	872287	1471958294570	1471958294688	S	83
1763	18248	She was going to leave at 8 or 9.	She was going to leave at 8 or 9.	872289	1471958294829	1471958294893	h	72
1763	18248	She was going to leave at 8 or 9.	She was going to leave at 8 or 9.	872293	1471958295342	1471958295451	e	69
1763	18248	She was going to leave at 8 or 9.	She was going to leave at 8 or 9.	872296	1471958295560	1471958295625	 	32
1763	18248	She was going to leave at 8 or 9.	She was going to leave at 8 or 9.	872302	1471958295653	1471958295763	w	87
1763	18248	She was going to leave at 8 or 9.	She was going to leave at 8 or 9.	872340	1471958295845	1471958296036	a	65
1763	18248	She was going to leave at 8 or 9.	She was going to leave at 8 or 9.	872343	1471958295984	1471958296113	s	83
1763	18248	She was going to leave at 8 or 9.	She was going to leave at 8 or 9.	872346	1471958296194	1471958296273	 	32
1763	18248	She was going to leave at 8 or 9.	She was going to leave at 8 or 9.	872349	1471958296764	1471958296838	g	71
1763	18248	She was going to leave at 8 or 9.	She was going to leave at 8 or 9.	872351	1471958297010	1471958297073	o	79
1763	18248	She was going to leave at 8 or 9.	She was going to leave at 8 or 9.	872366	1471958297193	1471958297268	i	73
1763	18248	She was going to leave at 8 or 9.	She was going to leave at 8 or 9.	872368	1471958297360	1471958297417	n	78
1763	18248	She was going to leave at 8 or 9.	She was going to leave at 8 or 9.	872370	1471958297543	1471958297617	g	71
1763	18248	She was going to leave at 8 or 9.	She was going to leave at 8 or 9.	872372	1471958297681	1471958297753	 	32
1763	18248	She was going to leave at 8 or 9.	She was going to leave at 8 or 9.	872375	1471958297877	1471958297947	t	84
1763	18248	She was going to leave at 8 or 9.	She was going to leave at 8 or 9.	872411	1471958298117	1471958298202	o	79
1763	18248	She was going to leave at 8 or 9.	She was going to leave at 8 or 9.	872413	1471958298278	1471958298352	 	32
1763	18248	She was going to leave at 8 or 9.	She was going to leave at 8 or 9.	872415	1471958298529	1471958298577	l	76
1763	18248	She was going to leave at 8 or 9.	She was going to leave at 8 or 9.	872418	1471958298676	1471958298768	e	69
1763	18248	She was going to leave at 8 or 9.	She was going to leave at 8 or 9.	872422	1471958298854	1471958298988	a	65
1763	18248	She was going to leave at 8 or 9.	She was going to leave at 8 or 9.	872468	1471958299195	1471958299260	v	86
1763	18248	She was going to leave at 8 or 9.	She was going to leave at 8 or 9.	872470	1471958299318	1471958299420	e	69
1763	18248	She was going to leave at 8 or 9.	She was going to leave at 8 or 9.	872475	1471958299476	1471958299542	 	32
1763	18248	She was going to leave at 8 or 9.	She was going to leave at 8 or 9.	872479	1471958299748	1471958299845	a	65
1763	18248	She was going to leave at 8 or 9.	She was going to leave at 8 or 9.	872484	1471958300096	1471958300186	t	84
1763	18248	She was going to leave at 8 or 9.	She was going to leave at 8 or 9.	872565	1471958300278	1471958300348	 	32
1763	18248	She was going to leave at 8 or 9.	She was going to leave at 8 or 9.	872567	1471958301122	1471958301178	8	56
1763	18248	She was going to leave at 8 or 9.	She was going to leave at 8 or 9.	872569	1471958301290	1471958301352	 	32
1763	18248	She was going to leave at 8 or 9.	She was going to leave at 8 or 9.	872571	1471958301519	1471958301573	o	79
1763	18248	She was going to leave at 8 or 9.	She was going to leave at 8 or 9.	872575	1471958301717	1471958301823	r	82
1763	18248	She was going to leave at 8 or 9.	She was going to leave at 8 or 9.	872649	1471958301877	1471958301940	 	32
1763	18248	She was going to leave at 8 or 9.	She was going to leave at 8 or 9.	872652	1471958302273	1471958302330	9	57
1763	18248	She was going to leave at 8 or 9.	She was going to leave at 8 or 9.	872656	1471958303024	1471958303090	.	190
