PARTICIPANT_ID	TEST_SECTION_ID	SENTENCE	USER_INPUT	KEYSTROKE_ID	PRESS_TIME	RELEASE_TIME	LETTER	KEYCODE
1786	18251	Did you ever hear anything?.	Did you ever hear anything?.	872187	1471958293211	1471958293630	SHIFT	16
1786	18251	Did you ever hear anything?.	Did you ever hear anything?.	872189	1471958293631	1471958293642	d	73
1786	18251	Did you ever hear anything?.	Did you ever hear anything?.	872191	1471958293724	1471958293815	 	32
1786	18251	Did you ever hear anything?.	Did you ever hear anything?.	872193	1471958294172	1471958294272	y	89
1786	18251	Did you ever hear anything?.	Did you ever hear anything?.	872195	1471958294275	1471958294344	o	79
1786	18251	Did you ever hear anything?.	Did you ever hear anything?.	872211	1471958294434	1471958294521	u	85
1786	18251	Did you ever hear anything?.	Did you ever hear anything?.	872212	1471958294592	1471958294825	 	32
1786	18251	Did you ever hear anything?.	Did you ever hear anything?.	872213	1471958294822	1471958294827	e	69
1786	18251	Did you ever hear anything?.	Did you ever hear anything?.	872214	1471958294828	1471958294927	v	86
1786	18251	Did you ever hear anything?.	Did you ever hear anything?.	872215	1471958294934	1471958295089	e	69
1786	18251	Did you ever hear anything?.	Did you ever hear anything?.	872237	1471958295030	1471958295152	r	82
1786	18251	Did you ever hear anything?.	Did you ever hear anything?.	872241	1471958295148	1471958295229	 	32
1786	18251	Did you ever hear anything?.	Did you ever hear anything?.	872246	1471958295198	1471958295320	h	72
1786	18251	Did you ever hear anything?.	Did you ever hear anything?.	872251	1471958295268	1471958295399	e	69
1786	18251	Did you ever hear anything?.	Did you ever hear anything?.	872254	1471958295359	1471958295519	a	65
1786	18251	Did you ever hear anything?.	Did you ever hear anything?.	872303	1471958295469	1471958295568	r	82
1786	18251	Did you ever hear anything?.	Did you ever hear anything?.	872308	1471958295706	1471958295813	 	32
1786	18251	Did you ever hear anything?.	Did you ever hear anything?.	872313	1471958295807	1471958295917	a	65
1786	18251	Did you ever hear anything?.	Did you ever hear anything?.	872317	1471958295877	1471958295947	n	78
1786	18251	Did you ever hear anything?.	Did you ever hear anything?.	872319	1471958295996	1471958296067	y	89
1786	18251	Did you ever hear anything?.	Did you ever hear anything?.	872322	1471958296266	1471958296357	t	84
1786	18251	Did you ever hear anything?.	Did you ever hear anything?.	872401	1471958296436	1471958296486	h	72
1786	18251	Did you ever hear anything?.	Did you ever hear anything?.	872402	1471958296586	1471958296664	i	73
1786	18251	Did you ever hear anything?.	Did you ever hear anything?.	872403	1471958296733	1471958296782	n	78
1786	18251	Did you ever hear anything?.	Did you ever hear anything?.	872405	1471958296834	1471958296903	g	71
1786	18251	Did you ever hear anything?.	Did you ever hear anything?.	872407	1471958297012	1471958297470	CAPS_LOCK	20
1786	18251	Did you ever hear anything?.	Did you ever hear anything?.	872409	1471958297020	1471958297490	SHIFT	16
1786	18251	Did you ever hear anything?.	Did you ever hear anything?.	872412	1471958298127	1471958298874	SHIFT	16
1786	18251	Did you ever hear anything?.	Did you ever hear anything?.	872579	1471958298983	1471958299211	SHIFT	16
1786	18251	Did you ever hear anything?.	Did you ever hear anything?.	872416	1471958299105	1471958299160	?	191
1786	18251	Did you ever hear anything?.	Did you ever hear anything?.	872582	1471958299669	1471958299769	.	190
1786	18259	I have received your messages and will respond accordingly.	I have recived your messages and will respond accordingly.	872737	1471958304229	1471958304388	SHIFT	16
1786	18259	I have received your messages and will respond accordingly.	I have recived your messages and will respond accordingly.	872741	1471958304338	1471958304408	i	73
1786	18259	I have received your messages and will respond accordingly.	I have recived your messages and will respond accordingly.	872746	1471958304467	1471958304600	 	32
1786	18259	I have received your messages and will respond accordingly.	I have recived your messages and will respond accordingly.	872748	1471958304546	1471958304637	H	72
1786	18259	I have received your messages and will respond accordingly.	I have recived your messages and will respond accordingly.	872750	1471958304596	1471958304758	A	65
1786	18259	I have received your messages and will respond accordingly.	I have recived your messages and will respond accordingly.	872752	1471958304761	1471958304878	V	86
1786	18259	I have received your messages and will respond accordingly.	I have recived your messages and will respond accordingly.	872848	1471958304898	1471958305025	E	69
1786	18259	I have received your messages and will respond accordingly.	I have recived your messages and will respond accordingly.	872852	1471958305064	1471958305154	 	32
1786	18259	I have received your messages and will respond accordingly.	I have recived your messages and will respond accordingly.	872857	1471958305194	1471958305336	R	82
1786	18259	I have received your messages and will respond accordingly.	I have recived your messages and will respond accordingly.	872863	1471958305305	1471958305395	E	69
1786	18259	I have received your messages and will respond accordingly.	I have recived your messages and will respond accordingly.	872868	1471958305586	1471958305642	BKSP	8
1786	18259	I have received your messages and will respond accordingly.	I have recived your messages and will respond accordingly.	872871	1471958305724	1471958305804	BKSP	8
1786	18259	I have received your messages and will respond accordingly.	I have recived your messages and will respond accordingly.	872876	1471958305863	1471958305942	BKSP	8
1786	18259	I have received your messages and will respond accordingly.	I have recived your messages and will respond accordingly.	872877	1471958305992	1471958306081	BKSP	8
1786	18259	I have received your messages and will respond accordingly.	I have recived your messages and will respond accordingly.	872879	1471958306131	1471958306222	BKSP	8
1786	18259	I have received your messages and will respond accordingly.	I have recived your messages and will respond accordingly.	872884	1471958306282	1471958306361	BKSP	8
1786	18259	I have received your messages and will respond accordingly.	I have recived your messages and will respond accordingly.	872886	1471958306430	1471958306519	BKSP	8
1786	18259	I have received your messages and will respond accordingly.	I have recived your messages and will respond accordingly.	872889	1471958306579	1471958306668	BKSP	8
1786	18259	I have received your messages and will respond accordingly.	I have recived your messages and will respond accordingly.	872893	1471958306729	1471958306828	BKSP	8
1786	18259	I have received your messages and will respond accordingly.	I have recived your messages and will respond accordingly.	872900	1471958306927	1471958307327	CAPS_LOCK	20
1786	18259	I have received your messages and will respond accordingly.	I have recived your messages and will respond accordingly.	872906	1471958307347	1471958307388	SHIFT	16
1786	18259	I have received your messages and will respond accordingly.	I have recived your messages and will respond accordingly.	872891	1471958307367	1471958307407	I	73
1786	18259	I have received your messages and will respond accordingly.	I have recived your messages and will respond accordingly.	872895	1471958307436	1471958307535	 	32
1786	18259	I have received your messages and will respond accordingly.	I have recived your messages and will respond accordingly.	872899	1471958307495	1471958307588	h	72
1786	18259	I have received your messages and will respond accordingly.	I have recived your messages and will respond accordingly.	872905	1471958307565	1471958307674	a	65
1786	18259	I have received your messages and will respond accordingly.	I have recived your messages and will respond accordingly.	872911	1471958307677	1471958307775	v	86
1786	18259	I have received your messages and will respond accordingly.	I have recived your messages and will respond accordingly.	872915	1471958307815	1471958307945	e	69
1786	18259	I have received your messages and will respond accordingly.	I have recived your messages and will respond accordingly.	872938	1471958307949	1471958308025	 	32
1786	18259	I have received your messages and will respond accordingly.	I have recived your messages and will respond accordingly.	872943	1471958308028	1471958308174	r	82
1786	18259	I have received your messages and will respond accordingly.	I have recived your messages and will respond accordingly.	872947	1471958308124	1471958308255	e	69
1786	18259	I have received your messages and will respond accordingly.	I have recived your messages and will respond accordingly.	872951	1471958308335	1471958308416	v	67
1786	18259	I have received your messages and will respond accordingly.	I have recived your messages and will respond accordingly.	873030	1471958308872	1471958308981	BKSP	8
1786	18259	I have received your messages and will respond accordingly.	I have recived your messages and will respond accordingly.	873032	1471958309301	1471958309390	i	73
1786	18259	I have received your messages and will respond accordingly.	I have recived your messages and will respond accordingly.	873034	1471958309588	1471958309689	v	86
1786	18259	I have received your messages and will respond accordingly.	I have recived your messages and will respond accordingly.	873036	1471958309749	1471958309927	e	69
1786	18259	I have received your messages and will respond accordingly.	I have recived your messages and will respond accordingly.	873037	1471958309877	1471958309986	d	68
1786	18259	I have received your messages and will respond accordingly.	I have recived your messages and will respond accordingly.	873038	1471958310006	1471958310084	 	32
1786	18259	I have received your messages and will respond accordingly.	I have recived your messages and will respond accordingly.	873059	1471958310197	1471958310306	y	89
1786	18259	I have received your messages and will respond accordingly.	I have recived your messages and will respond accordingly.	873062	1471958310309	1471958310366	o	79
1786	18259	I have received your messages and will respond accordingly.	I have recived your messages and will respond accordingly.	873065	1471958310494	1471958310556	u	85
1786	18259	I have received your messages and will respond accordingly.	I have recived your messages and will respond accordingly.	873066	1471958310576	1471958310684	r	82
1786	18259	I have received your messages and will respond accordingly.	I have recived your messages and will respond accordingly.	873067	1471958310714	1471958310793	 	32
1786	18259	I have received your messages and will respond accordingly.	I have recived your messages and will respond accordingly.	873088	1471958310813	1471958310912	m	77
1786	18259	I have received your messages and will respond accordingly.	I have recived your messages and will respond accordingly.	873093	1471958310892	1471958311071	e	69
1786	18259	I have received your messages and will respond accordingly.	I have recived your messages and will respond accordingly.	873097	1471958311041	1471958311141	s	83
1786	18259	I have received your messages and will respond accordingly.	I have recived your messages and will respond accordingly.	873101	1471958311222	1471958311421	s	83
1786	18259	I have received your messages and will respond accordingly.	I have recived your messages and will respond accordingly.	873134	1471958311390	1471958311441	a	65
1786	18259	I have received your messages and will respond accordingly.	I have recived your messages and will respond accordingly.	873137	1471958311424	1471958311550	g	71
1786	18259	I have received your messages and will respond accordingly.	I have recived your messages and will respond accordingly.	873141	1471958311651	1471958311744	e	69
1786	18259	I have received your messages and will respond accordingly.	I have recived your messages and will respond accordingly.	873144	1471958311769	1471958311813	s	83
1786	18259	I have received your messages and will respond accordingly.	I have recived your messages and will respond accordingly.	873148	1471958311982	1471958312083	 	32
1786	18259	I have received your messages and will respond accordingly.	I have recived your messages and will respond accordingly.	873152	1471958312113	1471958312234	a	65
1786	18259	I have received your messages and will respond accordingly.	I have recived your messages and will respond accordingly.	873156	1471958312238	1471958312303	n	78
1786	18259	I have received your messages and will respond accordingly.	I have recived your messages and will respond accordingly.	873158	1471958312332	1471958312421	d	68
1786	18259	I have received your messages and will respond accordingly.	I have recived your messages and will respond accordingly.	873163	1471958312441	1471958312540	 	32
1786	18259	I have received your messages and will respond accordingly.	I have recived your messages and will respond accordingly.	873166	1471958312532	1471958312632	w	87
1786	18259	I have received your messages and will respond accordingly.	I have recived your messages and will respond accordingly.	873193	1471958312602	1471958312672	i	73
1786	18259	I have received your messages and will respond accordingly.	I have recived your messages and will respond accordingly.	873195	1471958312771	1471958312840	l	76
1786	18259	I have received your messages and will respond accordingly.	I have recived your messages and will respond accordingly.	873196	1471958312919	1471958312999	l	76
1786	18259	I have received your messages and will respond accordingly.	I have recived your messages and will respond accordingly.	873197	1471958313081	1471958313161	 	32
1786	18259	I have received your messages and will respond accordingly.	I have recived your messages and will respond accordingly.	873198	1471958313140	1471958313335	r	82
1786	18259	I have received your messages and will respond accordingly.	I have recived your messages and will respond accordingly.	873246	1471958313211	1471958313379	e	69
1786	18259	I have received your messages and will respond accordingly.	I have recived your messages and will respond accordingly.	873248	1471958313328	1471958313419	p	80
1786	18259	I have received your messages and will respond accordingly.	I have recived your messages and will respond accordingly.	873251	1471958313589	1471958313688	s	83
1786	18259	I have received your messages and will respond accordingly.	I have recived your messages and will respond accordingly.	873255	1471958314296	1471958314375	BKSP	8
1786	18259	I have received your messages and will respond accordingly.	I have recived your messages and will respond accordingly.	873258	1471958314454	1471958314573	BKSP	8
1786	18259	I have received your messages and will respond accordingly.	I have recived your messages and will respond accordingly.	873261	1471958314565	1471958314656	s	83
1786	18259	I have received your messages and will respond accordingly.	I have recived your messages and will respond accordingly.	873262	1471958314754	1471958314834	p	80
1786	18259	I have received your messages and will respond accordingly.	I have recived your messages and will respond accordingly.	873263	1471958314933	1471958314993	o	79
1786	18259	I have received your messages and will respond accordingly.	I have recived your messages and will respond accordingly.	873264	1471958315114	1471958315198	n	78
1786	18259	I have received your messages and will respond accordingly.	I have recived your messages and will respond accordingly.	873307	1471958315193	1471958315314	d	68
1786	18259	I have received your messages and will respond accordingly.	I have recived your messages and will respond accordingly.	873309	1471958315316	1471958315412	 	32
1786	18259	I have received your messages and will respond accordingly.	I have recived your messages and will respond accordingly.	873311	1471958315463	1471958315632	a	65
1786	18259	I have received your messages and will respond accordingly.	I have recived your messages and will respond accordingly.	873312	1471958315592	1471958315701	c	67
1786	18259	I have received your messages and will respond accordingly.	I have recived your messages and will respond accordingly.	873314	1471958315820	1471958315869	c	67
1786	18259	I have received your messages and will respond accordingly.	I have recived your messages and will respond accordingly.	873315	1471958316406	1471958316517	o	79
1786	18259	I have received your messages and will respond accordingly.	I have recived your messages and will respond accordingly.	873333	1471958316647	1471958316725	r	82
1786	18259	I have received your messages and will respond accordingly.	I have recived your messages and will respond accordingly.	873336	1471958316955	1471958317066	d	68
1786	18259	I have received your messages and will respond accordingly.	I have recived your messages and will respond accordingly.	873338	1471958317105	1471958317165	i	73
1786	18259	I have received your messages and will respond accordingly.	I have recived your messages and will respond accordingly.	873340	1471958317285	1471958317357	n	78
1786	18259	I have received your messages and will respond accordingly.	I have recived your messages and will respond accordingly.	873423	1471958317352	1471958317444	g	71
1786	18259	I have received your messages and will respond accordingly.	I have recived your messages and will respond accordingly.	873427	1471958317514	1471958317593	l	76
1786	18259	I have received your messages and will respond accordingly.	I have recived your messages and will respond accordingly.	873431	1471958317840	1471958317971	y	89
1786	18259	I have received your messages and will respond accordingly.	I have recived your messages and will respond accordingly.	873435	1471958318480	1471958318559	.	190
1786	18276	You have a lot of holes in your plan.	You have a lot of holes in your plan.	873609	1471958321673	1471958321840	SHIFT	16
1786	18276	You have a lot of holes in your plan.	You have a lot of holes in your plan.	873612	1471958321832	1471958321946	Y	89
1786	18276	You have a lot of holes in your plan.	You have a lot of holes in your plan.	873614	1471958321949	1471958322015	o	79
1786	18276	You have a lot of holes in your plan.	You have a lot of holes in your plan.	873616	1471958322114	1471958322194	u	85
1786	18276	You have a lot of holes in your plan.	You have a lot of holes in your plan.	873617	1471958322273	1471958322383	 	32
1786	18276	You have a lot of holes in your plan.	You have a lot of holes in your plan.	873632	1471958322362	1471958322421	h	72
1786	18276	You have a lot of holes in your plan.	You have a lot of holes in your plan.	873634	1471958322443	1471958322552	a	65
1786	18276	You have a lot of holes in your plan.	You have a lot of holes in your plan.	873637	1471958322522	1471958322592	v	86
1786	18276	You have a lot of holes in your plan.	You have a lot of holes in your plan.	873641	1471958322631	1471958322711	e	69
1786	18276	You have a lot of holes in your plan.	You have a lot of holes in your plan.	873646	1471958322713	1471958322760	 	32
1786	18276	You have a lot of holes in your plan.	You have a lot of holes in your plan.	873652	1471958322780	1471958322890	a	65
1786	18276	You have a lot of holes in your plan.	You have a lot of holes in your plan.	873717	1471958322899	1471958322981	 	32
1786	18276	You have a lot of holes in your plan.	You have a lot of holes in your plan.	873720	1471958323050	1471958323100	k	75
1786	18276	You have a lot of holes in your plan.	You have a lot of holes in your plan.	873724	1471958323469	1471958323538	BKSP	8
1786	18276	You have a lot of holes in your plan.	You have a lot of holes in your plan.	873728	1471958323915	1471958323976	l	76
1786	18276	You have a lot of holes in your plan.	You have a lot of holes in your plan.	873732	1471958324075	1471958324158	o	79
1786	18276	You have a lot of holes in your plan.	You have a lot of holes in your plan.	873755	1471958324155	1471958324249	t	84
1786	18276	You have a lot of holes in your plan.	You have a lot of holes in your plan.	873756	1471958324244	1471958324354	 	32
1786	18276	You have a lot of holes in your plan.	You have a lot of holes in your plan.	873759	1471958324405	1471958324516	o	79
1786	18276	You have a lot of holes in your plan.	You have a lot of holes in your plan.	873760	1471958324664	1471958324803	f	70
1786	18276	You have a lot of holes in your plan.	You have a lot of holes in your plan.	873763	1471958324753	1471958324874	 	32
1786	18276	You have a lot of holes in your plan.	You have a lot of holes in your plan.	873765	1471958324877	1471958324925	h	72
1786	18276	You have a lot of holes in your plan.	You have a lot of holes in your plan.	873787	1471958325065	1471958325124	o	79
1786	18276	You have a lot of holes in your plan.	You have a lot of holes in your plan.	873791	1471958325232	1471958325326	e	76
1786	18276	You have a lot of holes in your plan.	You have a lot of holes in your plan.	873794	1471958325322	1471958325474	s	83
1786	18276	You have a lot of holes in your plan.	You have a lot of holes in your plan.	873824	1471958325443	1471958325574	 	32
1786	18276	You have a lot of holes in your plan.	You have a lot of holes in your plan.	873826	1471958325552	1471958325613	i	73
1786	18276	You have a lot of holes in your plan.	You have a lot of holes in your plan.	873827	1471958325702	1471958325791	n	78
1786	18276	You have a lot of holes in your plan.	You have a lot of holes in your plan.	873828	1471958325854	1471958325963	 	32
1786	18276	You have a lot of holes in your plan.	You have a lot of holes in your plan.	873829	1471958325982	1471958326091	y	89
1786	18276	You have a lot of holes in your plan.	You have a lot of holes in your plan.	873850	1471958326061	1471958326111	o	79
1786	18276	You have a lot of holes in your plan.	You have a lot of holes in your plan.	873853	1471958326222	1471958326289	u	85
1786	18276	You have a lot of holes in your plan.	You have a lot of holes in your plan.	873855	1471958326310	1471958326415	r	82
1786	18276	You have a lot of holes in your plan.	You have a lot of holes in your plan.	873857	1471958326411	1471958326481	 	32
1786	18276	You have a lot of holes in your plan.	You have a lot of holes in your plan.	873859	1471958326541	1471958326600	p	80
1786	18276	You have a lot of holes in your plan.	You have a lot of holes in your plan.	873862	1471958326699	1471958326759	l	76
1786	18276	You have a lot of holes in your plan.	You have a lot of holes in your plan.	873873	1471958326799	1471958326900	a	65
1786	18276	You have a lot of holes in your plan.	You have a lot of holes in your plan.	873876	1471958326940	1471958326980	n	78
1786	18276	You have a lot of holes in your plan.	You have a lot of holes in your plan.	873881	1471958327208	1471958327268	.	190
1786	18287	I think those are the right dates.	I think those are the right dates.	873997	1471958329278	1471958329430	SHIFT	16
1786	18287	I think those are the right dates.	I think those are the right dates.	873999	1471958329419	1471958329479	I	73
1786	18287	I think those are the right dates.	I think those are the right dates.	874005	1471958329578	1471958329687	 	32
1786	18287	I think those are the right dates.	I think those are the right dates.	874008	1471958329691	1471958329757	t	84
1786	18287	I think those are the right dates.	I think those are the right dates.	874010	1471958329737	1471958329797	h	72
1786	18287	I think those are the right dates.	I think those are the right dates.	874012	1471958329928	1471958329987	i	73
1786	18287	I think those are the right dates.	I think those are the right dates.	874036	1471958330076	1471958330136	n	78
1786	18287	I think those are the right dates.	I think those are the right dates.	874037	1471958330245	1471958330334	k	75
1786	18287	I think those are the right dates.	I think those are the right dates.	874040	1471958330405	1471958330512	 	32
1786	18287	I think those are the right dates.	I think those are the right dates.	874042	1471958330527	1471958330604	t	84
1786	18287	I think those are the right dates.	I think those are the right dates.	874045	1471958330607	1471958330653	h	72
1786	18287	I think those are the right dates.	I think those are the right dates.	874057	1471958330773	1471958330871	o	79
1786	18287	I think those are the right dates.	I think those are the right dates.	874058	1471958330864	1471958330974	s	83
1786	18287	I think those are the right dates.	I think those are the right dates.	874060	1471958330914	1471958331063	e	69
1786	18287	I think those are the right dates.	I think those are the right dates.	874062	1471958331093	1471958331172	 	32
1786	18287	I think those are the right dates.	I think those are the right dates.	874077	1471958331154	1471958331311	a	65
1786	18287	I think those are the right dates.	I think those are the right dates.	874081	1471958331241	1471958331392	r	82
1786	18287	I think those are the right dates.	I think those are the right dates.	874087	1471958331314	1471958331422	e	69
1786	18287	I think those are the right dates.	I think those are the right dates.	874093	1471958331442	1471958331521	 	32
1786	18287	I think those are the right dates.	I think those are the right dates.	874098	1471958331524	1471958331620	t	84
1786	18287	I think those are the right dates.	I think those are the right dates.	874119	1471958331600	1471958331669	h	72
1786	18287	I think those are the right dates.	I think those are the right dates.	874124	1471958331709	1471958331809	e	69
1786	18287	I think those are the right dates.	I think those are the right dates.	874129	1471958331812	1471958331900	 	32
1786	18287	I think those are the right dates.	I think those are the right dates.	874132	1471958331920	1471958331999	r	82
1786	18287	I think those are the right dates.	I think those are the right dates.	874133	1471958331979	1471958332049	i	73
1786	18287	I think those are the right dates.	I think those are the right dates.	874134	1471958332148	1471958332197	g	71
1786	18287	I think those are the right dates.	I think those are the right dates.	874150	1471958332296	1471958332358	h	72
1786	18287	I think those are the right dates.	I think those are the right dates.	874153	1471958332336	1471958332407	t	84
1786	18287	I think those are the right dates.	I think those are the right dates.	874156	1471958332467	1471958332526	 	32
1786	18287	I think those are the right dates.	I think those are the right dates.	874160	1471958332585	1471958332695	d	68
1786	18287	I think those are the right dates.	I think those are the right dates.	874163	1471958332715	1471958332868	a	65
1786	18287	I think those are the right dates.	I think those are the right dates.	874190	1471958332825	1471958332955	t	84
1786	18287	I think those are the right dates.	I think those are the right dates.	874191	1471958332925	1471958333095	e	69
1786	18287	I think those are the right dates.	I think those are the right dates.	874192	1471958333045	1471958333174	s	83
1786	18287	I think those are the right dates.	I think those are the right dates.	874193	1471958333334	1471958333404	.	190
1786	18294	The cabinet Thursday approved a revised tariff schedule.	The cabinet Thursday approved a recised tariff schedule	874319	1471958335315	1471958335451	SHIFT	16
1786	18294	The cabinet Thursday approved a revised tariff schedule.	The cabinet Thursday approved a recised tariff schedule	874323	1471958335444	1471958335574	T	84
1786	18294	The cabinet Thursday approved a revised tariff schedule.	The cabinet Thursday approved a recised tariff schedule	874327	1471958335577	1471958335633	h	72
1786	18294	The cabinet Thursday approved a revised tariff schedule.	The cabinet Thursday approved a recised tariff schedule	874330	1471958335663	1471958335772	e	69
1786	18294	The cabinet Thursday approved a revised tariff schedule.	The cabinet Thursday approved a recised tariff schedule	874334	1471958335802	1471958335894	 	32
1786	18294	The cabinet Thursday approved a revised tariff schedule.	The cabinet Thursday approved a recised tariff schedule	874338	1471958336659	1471958336706	c	67
1786	18294	The cabinet Thursday approved a revised tariff schedule.	The cabinet Thursday approved a recised tariff schedule	874372	1471958336699	1471958336831	a	65
1786	18294	The cabinet Thursday approved a revised tariff schedule.	The cabinet Thursday approved a recised tariff schedule	874374	1471958336980	1471958337079	b	66
1786	18294	The cabinet Thursday approved a revised tariff schedule.	The cabinet Thursday approved a recised tariff schedule	874377	1471958337217	1471958337287	i	73
1786	18294	The cabinet Thursday approved a revised tariff schedule.	The cabinet Thursday approved a recised tariff schedule	874382	1471958337387	1471958337467	n	78
1786	18294	The cabinet Thursday approved a revised tariff schedule.	The cabinet Thursday approved a recised tariff schedule	874385	1471958337526	1471958337676	e	69
1786	18294	The cabinet Thursday approved a revised tariff schedule.	The cabinet Thursday approved a recised tariff schedule	874388	1471958337679	1471958337793	t	84
1786	18294	The cabinet Thursday approved a revised tariff schedule.	The cabinet Thursday approved a recised tariff schedule	874444	1471958337788	1471958337888	 	32
1786	18294	The cabinet Thursday approved a revised tariff schedule.	The cabinet Thursday approved a recised tariff schedule	874446	1471958337947	1471958338096	SHIFT	16
1786	18294	The cabinet Thursday approved a revised tariff schedule.	The cabinet Thursday approved a recised tariff schedule	874448	1471958338046	1471958338145	T	84
1786	18294	The cabinet Thursday approved a revised tariff schedule.	The cabinet Thursday approved a recised tariff schedule	874450	1471958338165	1471958338215	h	72
1786	18294	The cabinet Thursday approved a revised tariff schedule.	The cabinet Thursday approved a recised tariff schedule	874454	1471958338336	1471958338395	r	82
1786	18294	The cabinet Thursday approved a revised tariff schedule.	The cabinet Thursday approved a recised tariff schedule	874457	1471958338723	1471958338792	BKSP	8
1786	18294	The cabinet Thursday approved a revised tariff schedule.	The cabinet Thursday approved a recised tariff schedule	874461	1471958338913	1471958339003	u	85
1786	18294	The cabinet Thursday approved a revised tariff schedule.	The cabinet Thursday approved a recised tariff schedule	874497	1471958338963	1471958339079	r	82
1786	18294	The cabinet Thursday approved a revised tariff schedule.	The cabinet Thursday approved a recised tariff schedule	874500	1471958339072	1471958339192	s	83
1786	18294	The cabinet Thursday approved a revised tariff schedule.	The cabinet Thursday approved a recised tariff schedule	874503	1471958339580	1471958339681	d	68
1786	18294	The cabinet Thursday approved a revised tariff schedule.	The cabinet Thursday approved a recised tariff schedule	874505	1471958339740	1471958339871	a	65
1786	18294	The cabinet Thursday approved a revised tariff schedule.	The cabinet Thursday approved a recised tariff schedule	874506	1471958339874	1471958339970	y	89
1786	18294	The cabinet Thursday approved a revised tariff schedule.	The cabinet Thursday approved a recised tariff schedule	874507	1471958340069	1471958340177	 	32
1786	18294	The cabinet Thursday approved a revised tariff schedule.	The cabinet Thursday approved a recised tariff schedule	874530	1471958340169	1471958340269	a	65
1786	18294	The cabinet Thursday approved a revised tariff schedule.	The cabinet Thursday approved a recised tariff schedule	874531	1471958340379	1471958340459	p	80
1786	18294	The cabinet Thursday approved a revised tariff schedule.	The cabinet Thursday approved a recised tariff schedule	874532	1471958340578	1471958340617	p	80
1786	18294	The cabinet Thursday approved a revised tariff schedule.	The cabinet Thursday approved a recised tariff schedule	874533	1471958340937	1471958341026	r	82
1786	18294	The cabinet Thursday approved a revised tariff schedule.	The cabinet Thursday approved a recised tariff schedule	874534	1471958341105	1471958341205	o	79
1786	18294	The cabinet Thursday approved a revised tariff schedule.	The cabinet Thursday approved a recised tariff schedule	874536	1471958341244	1471958341385	v	86
1786	18294	The cabinet Thursday approved a revised tariff schedule.	The cabinet Thursday approved a recised tariff schedule	874574	1471958341405	1471958341593	e	69
1786	18294	The cabinet Thursday approved a revised tariff schedule.	The cabinet Thursday approved a recised tariff schedule	874578	1471958341596	1471958341683	f	70
1786	18294	The cabinet Thursday approved a revised tariff schedule.	The cabinet Thursday approved a recised tariff schedule	874581	1471958342003	1471958342109	BKSP	8
1786	18294	The cabinet Thursday approved a revised tariff schedule.	The cabinet Thursday approved a recised tariff schedule	874585	1471958342102	1471958342232	d	68
1786	18294	The cabinet Thursday approved a revised tariff schedule.	The cabinet Thursday approved a recised tariff schedule	874588	1471958342303	1471958342393	 	32
1786	18294	The cabinet Thursday approved a revised tariff schedule.	The cabinet Thursday approved a recised tariff schedule	874590	1471958342412	1471958342561	a	65
1786	18294	The cabinet Thursday approved a revised tariff schedule.	The cabinet Thursday approved a recised tariff schedule	874603	1471958342600	1471958342701	 	32
1786	18294	The cabinet Thursday approved a revised tariff schedule.	The cabinet Thursday approved a recised tariff schedule	874605	1471958342720	1471958342871	r	82
1786	18294	The cabinet Thursday approved a revised tariff schedule.	The cabinet Thursday approved a recised tariff schedule	874609	1471958342802	1471958342921	e	69
1786	18294	The cabinet Thursday approved a revised tariff schedule.	The cabinet Thursday approved a recised tariff schedule	874613	1471958343069	1471958343188	c	67
1786	18294	The cabinet Thursday approved a revised tariff schedule.	The cabinet Thursday approved a recised tariff schedule	874618	1471958343267	1471958343349	i	73
1786	18294	The cabinet Thursday approved a revised tariff schedule.	The cabinet Thursday approved a recised tariff schedule	874659	1471958343398	1471958343537	s	83
1786	18294	The cabinet Thursday approved a revised tariff schedule.	The cabinet Thursday approved a recised tariff schedule	874664	1471958343487	1471958343676	e	69
1786	18294	The cabinet Thursday approved a revised tariff schedule.	The cabinet Thursday approved a recised tariff schedule	874670	1471958343637	1471958343756	d	68
1786	18294	The cabinet Thursday approved a revised tariff schedule.	The cabinet Thursday approved a recised tariff schedule	874674	1471958343807	1471958343896	 	32
1786	18294	The cabinet Thursday approved a revised tariff schedule.	The cabinet Thursday approved a recised tariff schedule	874678	1471958344055	1471958344164	t	84
1786	18294	The cabinet Thursday approved a revised tariff schedule.	The cabinet Thursday approved a recised tariff schedule	874773	1471958344773	1471958344931	a	65
1786	18294	The cabinet Thursday approved a revised tariff schedule.	The cabinet Thursday approved a recised tariff schedule	874777	1471958344912	1471958345000	r	82
1786	18294	The cabinet Thursday approved a revised tariff schedule.	The cabinet Thursday approved a recised tariff schedule	874782	1471958345947	1471958346016	i	73
1786	18294	The cabinet Thursday approved a revised tariff schedule.	The cabinet Thursday approved a recised tariff schedule	874786	1471958346276	1471958346325	f	70
1786	18294	The cabinet Thursday approved a revised tariff schedule.	The cabinet Thursday approved a recised tariff schedule	874797	1471958346404	1471958346484	f	70
1786	18294	The cabinet Thursday approved a revised tariff schedule.	The cabinet Thursday approved a recised tariff schedule	874822	1471958346554	1471958346643	 	32
1786	18294	The cabinet Thursday approved a revised tariff schedule.	The cabinet Thursday approved a recised tariff schedule	874824	1471958346663	1471958346813	s	83
1786	18294	The cabinet Thursday approved a revised tariff schedule.	The cabinet Thursday approved a recised tariff schedule	874826	1471958346863	1471958346942	c	67
1786	18294	The cabinet Thursday approved a revised tariff schedule.	The cabinet Thursday approved a recised tariff schedule	874827	1471958347012	1471958347118	h	72
1786	18294	The cabinet Thursday approved a revised tariff schedule.	The cabinet Thursday approved a recised tariff schedule	874837	1471958347111	1471958347273	e	69
1786	18294	The cabinet Thursday approved a revised tariff schedule.	The cabinet Thursday approved a recised tariff schedule	874838	1471958347211	1471958347312	d	68
1786	18294	The cabinet Thursday approved a revised tariff schedule.	The cabinet Thursday approved a recised tariff schedule	874839	1471958347315	1471958347382	u	85
1786	18294	The cabinet Thursday approved a revised tariff schedule.	The cabinet Thursday approved a recised tariff schedule	874840	1471958347510	1471958347590	l	76
1786	18294	The cabinet Thursday approved a revised tariff schedule.	The cabinet Thursday approved a recised tariff schedule	874841	1471958347640	1471958347729	e	69
1786	18310	Kay Mann is going to take the lead on this.	Kay Man is going to take the lead on this.	874914	1471958349832	1471958349989	SHIFT	16
1786	18310	Kay Mann is going to take the lead on this.	Kay Man is going to take the lead on this.	874917	1471958349981	1471958350071	K	75
1786	18310	Kay Mann is going to take the lead on this.	Kay Man is going to take the lead on this.	874919	1471958350121	1471958350243	a	65
1786	18310	Kay Mann is going to take the lead on this.	Kay Man is going to take the lead on this.	874922	1471958350246	1471958350292	y	89
1786	18310	Kay Mann is going to take the lead on this.	Kay Man is going to take the lead on this.	874924	1471958350421	1471958350519	 	32
1786	18310	Kay Mann is going to take the lead on this.	Kay Man is going to take the lead on this.	874927	1471958350699	1471958350820	SHIFT	16
1786	18310	Kay Mann is going to take the lead on this.	Kay Man is going to take the lead on this.	874940	1471958350790	1471958350870	M	77
1786	18310	Kay Mann is going to take the lead on this.	Kay Man is going to take the lead on this.	874943	1471958350939	1471958351068	a	65
1786	18310	Kay Mann is going to take the lead on this.	Kay Man is going to take the lead on this.	874947	1471958351071	1471958351117	n	78
1786	18310	Kay Mann is going to take the lead on this.	Kay Man is going to take the lead on this.	874951	1471958351206	1471958351308	 	32
1786	18310	Kay Mann is going to take the lead on this.	Kay Man is going to take the lead on this.	874958	1471958351311	1471958351405	i	73
1786	18310	Kay Mann is going to take the lead on this.	Kay Man is going to take the lead on this.	874971	1471958351398	1471958351497	s	83
1786	18310	Kay Mann is going to take the lead on this.	Kay Man is going to take the lead on this.	874975	1471958351501	1471958351582	 	32
1786	18310	Kay Mann is going to take the lead on this.	Kay Man is going to take the lead on this.	874980	1471958351584	1471958351689	g	71
1786	18310	Kay Mann is going to take the lead on this.	Kay Man is going to take the lead on this.	874986	1471958351692	1471958351751	o	79
1786	18310	Kay Mann is going to take the lead on this.	Kay Man is going to take the lead on this.	874991	1471958351830	1471958351899	i	73
1786	18310	Kay Mann is going to take the lead on this.	Kay Man is going to take the lead on this.	874996	1471958351988	1471958352085	n	78
1786	18310	Kay Mann is going to take the lead on this.	Kay Man is going to take the lead on this.	875014	1471958352078	1471958352148	g	71
1786	18310	Kay Mann is going to take the lead on this.	Kay Man is going to take the lead on this.	875017	1471958352187	1471958352308	 	32
1786	18310	Kay Mann is going to take the lead on this.	Kay Man is going to take the lead on this.	875022	1471958352312	1471958352418	t	84
1786	18310	Kay Mann is going to take the lead on this.	Kay Man is going to take the lead on this.	875028	1471958352421	1471958352478	o	79
1786	18310	Kay Mann is going to take the lead on this.	Kay Man is going to take the lead on this.	875034	1471958352598	1471958352700	t	32
1786	18310	Kay Mann is going to take the lead on this.	Kay Man is going to take the lead on this.	875053	1471958352749	1471958352879	a	65
1786	18310	Kay Mann is going to take the lead on this.	Kay Man is going to take the lead on this.	875054	1471958352849	1471958352928	k	75
1786	18310	Kay Mann is going to take the lead on this.	Kay Man is going to take the lead on this.	875055	1471958353047	1471958353156	e	69
1786	18310	Kay Mann is going to take the lead on this.	Kay Man is going to take the lead on this.	875056	1471958353277	1471958353386	 	32
1786	18310	Kay Mann is going to take the lead on this.	Kay Man is going to take the lead on this.	875086	1471958353357	1471958353466	t	84
1786	18310	Kay Mann is going to take the lead on this.	Kay Man is going to take the lead on this.	875088	1471958353485	1471958353539	h	72
1786	18310	Kay Mann is going to take the lead on this.	Kay Man is going to take the lead on this.	875090	1471958353535	1471958353645	e	69
1786	18310	Kay Mann is going to take the lead on this.	Kay Man is going to take the lead on this.	875091	1471958353665	1471958353798	 	32
1786	18310	Kay Mann is going to take the lead on this.	Kay Man is going to take the lead on this.	875093	1471958353801	1471958353897	l	76
1786	18310	Kay Mann is going to take the lead on this.	Kay Man is going to take the lead on this.	875099	1471958353837	1471958353954	e	69
1786	18310	Kay Mann is going to take the lead on this.	Kay Man is going to take the lead on this.	875102	1471958353946	1471958354126	a	65
1786	18310	Kay Mann is going to take the lead on this.	Kay Man is going to take the lead on this.	875108	1471958354086	1471958354207	d	68
1786	18310	Kay Mann is going to take the lead on this.	Kay Man is going to take the lead on this.	875113	1471958354210	1471958354296	 	32
1786	18310	Kay Mann is going to take the lead on this.	Kay Man is going to take the lead on this.	875117	1471958354375	1471958354426	o	73
1786	18310	Kay Mann is going to take the lead on this.	Kay Man is going to take the lead on this.	875184	1471958354536	1471958354595	n	78
1786	18310	Kay Mann is going to take the lead on this.	Kay Man is going to take the lead on this.	875188	1471958354964	1471958355033	BKSP	8
1786	18310	Kay Mann is going to take the lead on this.	Kay Man is going to take the lead on this.	875191	1471958355112	1471958355171	BKSP	8
1786	18310	Kay Mann is going to take the lead on this.	Kay Man is going to take the lead on this.	875195	1471958355302	1471958355332	BKSP	8
1786	18310	Kay Mann is going to take the lead on this.	Kay Man is going to take the lead on this.	875201	1471958355402	1471958355461	o	79
1786	18310	Kay Mann is going to take the lead on this.	Kay Man is going to take the lead on this.	875209	1471958355601	1471958355673	n	78
1786	18310	Kay Mann is going to take the lead on this.	Kay Man is going to take the lead on this.	875213	1471958355762	1471958355861	 	32
1786	18310	Kay Mann is going to take the lead on this.	Kay Man is going to take the lead on this.	875218	1471958355890	1471958355980	t	84
1786	18310	Kay Mann is going to take the lead on this.	Kay Man is going to take the lead on this.	875273	1471958355983	1471958356010	h	72
1786	18310	Kay Mann is going to take the lead on this.	Kay Man is going to take the lead on this.	875275	1471958356139	1471958356210	u	85
1786	18310	Kay Mann is going to take the lead on this.	Kay Man is going to take the lead on this.	875281	1471958356259	1471958356349	s	83
1786	18310	Kay Mann is going to take the lead on this.	Kay Man is going to take the lead on this.	875287	1471958356647	1471958356718	BKSP	8
1786	18310	Kay Mann is going to take the lead on this.	Kay Man is going to take the lead on this.	875293	1471958356827	1471958356907	BKSP	8
1786	18310	Kay Mann is going to take the lead on this.	Kay Man is going to take the lead on this.	875297	1471958357005	1471958357105	i	73
1786	18310	Kay Mann is going to take the lead on this.	Kay Man is going to take the lead on this.	875301	1471958357144	1471958357245	s	83
1786	18310	Kay Mann is going to take the lead on this.	Kay Man is going to take the lead on this.	875305	1471958357315	1471958357393	.	190
1786	18319	We must be consistent.	We must be consistend/	875455	1471958359296	1471958359736	SHIFT	16
1786	18319	We must be consistent.	We must be consistend/	875459	1471958359706	1471958359786	W	87
1786	18319	We must be consistent.	We must be consistend/	875464	1471958359865	1471958359974	e	69
1786	18319	We must be consistent.	We must be consistend/	875469	1471958359977	1471958360073	 	32
1786	18319	We must be consistent.	We must be consistend/	875472	1471958360043	1471958360144	m	77
1786	18319	We must be consistent.	We must be consistend/	875474	1471958360253	1471958360323	u	85
1786	18319	We must be consistent.	We must be consistend/	875477	1471958360342	1471958360461	s	83
1786	18319	We must be consistent.	We must be consistend/	875478	1471958360431	1471958360560	t	84
1786	18319	We must be consistent.	We must be consistend/	875481	1471958360552	1471958360655	 	32
1786	18319	We must be consistent.	We must be consistend/	875485	1471958360657	1471958360741	b	66
1786	18319	We must be consistent.	We must be consistend/	875516	1471958360734	1471958360844	e	69
1786	18319	We must be consistent.	We must be consistend/	875521	1471958360847	1471958360943	 	32
1786	18319	We must be consistent.	We must be consistend/	875528	1471958361101	1471958361222	c	67
1786	18319	We must be consistent.	We must be consistend/	875534	1471958361182	1471958361252	o	79
1786	18319	We must be consistent.	We must be consistend/	875540	1471958361371	1471958361430	n	78
1786	18319	We must be consistent.	We must be consistend/	875545	1471958361481	1471958361590	s	83
1786	18319	We must be consistent.	We must be consistend/	875576	1471958361710	1471958361839	i	73
1786	18319	We must be consistent.	We must be consistend/	875580	1471958361959	1471958362077	s	83
1786	18319	We must be consistent.	We must be consistend/	875583	1471958362188	1471958362277	t	84
1786	18319	We must be consistent.	We must be consistend/	875587	1471958362406	1471958362507	e	69
1786	18319	We must be consistent.	We must be consistend/	875591	1471958362510	1471958362589	n	78
1786	18319	We must be consistent.	We must be consistend/	875651	1471958362668	1471958362747	d	68
1786	18319	We must be consistent.	We must be consistend/	875654	1471958362945	1471958362975	.	188
1786	18319	We must be consistent.	We must be consistend/	875659	1471958363364	1471958363434	BKSP	8
1786	18319	We must be consistent.	We must be consistend/	875666	1471958363734	1471958363803	BKSP	8
1786	18319	We must be consistent.	We must be consistend/	875669	1471958364152	1471958364240	/	191
1786	18330	Some had witnessed the fighting which erupted a week ago.	Some had witnessed the fighting which erupted a week ago.	875815	1471958366361	1471958366521	SHIFT	16
1786	18330	Some had witnessed the fighting which erupted a week ago.	Some had witnessed the fighting which erupted a week ago.	875822	1471958366501	1471958366582	S	83
1786	18330	Some had witnessed the fighting which erupted a week ago.	Some had witnessed the fighting which erupted a week ago.	875831	1471958366929	1471958366988	o	79
1786	18330	Some had witnessed the fighting which erupted a week ago.	Some had witnessed the fighting which erupted a week ago.	875838	1471958367099	1471958367169	m	77
1786	18330	Some had witnessed the fighting which erupted a week ago.	Some had witnessed the fighting which erupted a week ago.	875844	1471958367188	1471958367299	e	69
1786	18330	Some had witnessed the fighting which erupted a week ago.	Some had witnessed the fighting which erupted a week ago.	875849	1471958367301	1471958367447	 	32
1786	18330	Some had witnessed the fighting which erupted a week ago.	Some had witnessed the fighting which erupted a week ago.	875865	1471958367418	1471958367497	h	72
1786	18330	Some had witnessed the fighting which erupted a week ago.	Some had witnessed the fighting which erupted a week ago.	875868	1471958367477	1471958367598	a	65
1786	18330	Some had witnessed the fighting which erupted a week ago.	Some had witnessed the fighting which erupted a week ago.	875869	1471958367736	1471958367845	d	68
1786	18330	Some had witnessed the fighting which erupted a week ago.	Some had witnessed the fighting which erupted a week ago.	875871	1471958367915	1471958368029	 	32
1786	18330	Some had witnessed the fighting which erupted a week ago.	Some had witnessed the fighting which erupted a week ago.	875873	1471958368024	1471958368146	w	87
1786	18330	Some had witnessed the fighting which erupted a week ago.	Some had witnessed the fighting which erupted a week ago.	875878	1471958368195	1471958368235	i	73
1786	18330	Some had witnessed the fighting which erupted a week ago.	Some had witnessed the fighting which erupted a week ago.	875919	1471958368294	1471958368374	t	84
1786	18330	Some had witnessed the fighting which erupted a week ago.	Some had witnessed the fighting which erupted a week ago.	875921	1471958368983	1471958369079	n	78
1786	18330	Some had witnessed the fighting which erupted a week ago.	Some had witnessed the fighting which erupted a week ago.	875925	1471958369074	1471958369164	e	69
1786	18330	Some had witnessed the fighting which erupted a week ago.	Some had witnessed the fighting which erupted a week ago.	875929	1471958369263	1471958369344	s	83
1786	18330	Some had witnessed the fighting which erupted a week ago.	Some had witnessed the fighting which erupted a week ago.	875938	1471958369454	1471958369544	s	83
1786	18330	Some had witnessed the fighting which erupted a week ago.	Some had witnessed the fighting which erupted a week ago.	876001	1471958369564	1471958369762	e	69
1786	18330	Some had witnessed the fighting which erupted a week ago.	Some had witnessed the fighting which erupted a week ago.	876004	1471958369733	1471958369862	d	68
1786	18330	Some had witnessed the fighting which erupted a week ago.	Some had witnessed the fighting which erupted a week ago.	876006	1471958369865	1471958369971	 	32
1786	18330	Some had witnessed the fighting which erupted a week ago.	Some had witnessed the fighting which erupted a week ago.	876009	1471958370056	1471958370121	h	72
1786	18330	Some had witnessed the fighting which erupted a week ago.	Some had witnessed the fighting which erupted a week ago.	876039	1471958370340	1471958370406	=	187
1786	18330	Some had witnessed the fighting which erupted a week ago.	Some had witnessed the fighting which erupted a week ago.	876010	1471958370360	1471958370378	BKSP	8
1786	18330	Some had witnessed the fighting which erupted a week ago.	Some had witnessed the fighting which erupted a week ago.	876044	1471958370399	1471958370509	t	84
1786	18330	Some had witnessed the fighting which erupted a week ago.	Some had witnessed the fighting which erupted a week ago.	876048	1471958370620	1471958370690	BKSP	8
1786	18330	Some had witnessed the fighting which erupted a week ago.	Some had witnessed the fighting which erupted a week ago.	876052	1471958370789	1471958370870	BKSP	8
1786	18330	Some had witnessed the fighting which erupted a week ago.	Some had witnessed the fighting which erupted a week ago.	876056	1471958370918	1471958371018	t	84
1786	18330	Some had witnessed the fighting which erupted a week ago.	Some had witnessed the fighting which erupted a week ago.	876059	1471958371021	1471958371089	h	72
1786	18330	Some had witnessed the fighting which erupted a week ago.	Some had witnessed the fighting which erupted a week ago.	876060	1471958371109	1471958371198	e	69
1786	18330	Some had witnessed the fighting which erupted a week ago.	Some had witnessed the fighting which erupted a week ago.	876061	1471958371238	1471958371318	 	32
1786	18330	Some had witnessed the fighting which erupted a week ago.	Some had witnessed the fighting which erupted a week ago.	876070	1471958371347	1471958371428	f	70
1786	18330	Some had witnessed the fighting which erupted a week ago.	Some had witnessed the fighting which erupted a week ago.	876073	1471958371431	1471958371488	i	73
1786	18330	Some had witnessed the fighting which erupted a week ago.	Some had witnessed the fighting which erupted a week ago.	876075	1471958371610	1471958371669	g	71
1786	18330	Some had witnessed the fighting which erupted a week ago.	Some had witnessed the fighting which erupted a week ago.	876078	1471958371722	1471958371781	h	72
1786	18330	Some had witnessed the fighting which erupted a week ago.	Some had witnessed the fighting which erupted a week ago.	876081	1471958371811	1471958371900	t	84
1786	18330	Some had witnessed the fighting which erupted a week ago.	Some had witnessed the fighting which erupted a week ago.	876119	1471958371930	1471958372003	i	73
1786	18330	Some had witnessed the fighting which erupted a week ago.	Some had witnessed the fighting which erupted a week ago.	876122	1471958372101	1471958372170	n	78
1786	18330	Some had witnessed the fighting which erupted a week ago.	Some had witnessed the fighting which erupted a week ago.	876124	1471958372189	1471958372307	g	71
1786	18330	Some had witnessed the fighting which erupted a week ago.	Some had witnessed the fighting which erupted a week ago.	876126	1471958372299	1471958372401	 	32
1786	18330	Some had witnessed the fighting which erupted a week ago.	Some had witnessed the fighting which erupted a week ago.	876127	1471958372451	1471958372551	w	87
1786	18330	Some had witnessed the fighting which erupted a week ago.	Some had witnessed the fighting which erupted a week ago.	876134	1471958372556	1471958372601	h	72
1786	18330	Some had witnessed the fighting which erupted a week ago.	Some had witnessed the fighting which erupted a week ago.	876135	1471958372721	1471958372808	i	73
1786	18330	Some had witnessed the fighting which erupted a week ago.	Some had witnessed the fighting which erupted a week ago.	876136	1471958372799	1471958372889	c	67
1786	18330	Some had witnessed the fighting which erupted a week ago.	Some had witnessed the fighting which erupted a week ago.	876137	1471958372909	1471958372980	h	72
1786	18330	Some had witnessed the fighting which erupted a week ago.	Some had witnessed the fighting which erupted a week ago.	876138	1471958373049	1471958373139	 	32
1786	18330	Some had witnessed the fighting which erupted a week ago.	Some had witnessed the fighting which erupted a week ago.	876186	1471958373548	1471958373629	e	69
1786	18330	Some had witnessed the fighting which erupted a week ago.	Some had witnessed the fighting which erupted a week ago.	876191	1471958373737	1471958373816	r	82
1786	18330	Some had witnessed the fighting which erupted a week ago.	Some had witnessed the fighting which erupted a week ago.	876193	1471958373856	1471958373936	u	85
1786	18330	Some had witnessed the fighting which erupted a week ago.	Some had witnessed the fighting which erupted a week ago.	876196	1471958374096	1471958374176	p	80
1786	18330	Some had witnessed the fighting which erupted a week ago.	Some had witnessed the fighting which erupted a week ago.	876199	1471958374245	1471958374355	t	84
1786	18330	Some had witnessed the fighting which erupted a week ago.	Some had witnessed the fighting which erupted a week ago.	876234	1471958374335	1471958374466	e	69
1786	18330	Some had witnessed the fighting which erupted a week ago.	Some had witnessed the fighting which erupted a week ago.	876237	1471958374555	1471958374625	d	68
1786	18330	Some had witnessed the fighting which erupted a week ago.	Some had witnessed the fighting which erupted a week ago.	876241	1471958374724	1471958374793	 	32
1786	18330	Some had witnessed the fighting which erupted a week ago.	Some had witnessed the fighting which erupted a week ago.	876246	1471958374813	1471958374932	a	65
1786	18330	Some had witnessed the fighting which erupted a week ago.	Some had witnessed the fighting which erupted a week ago.	876249	1471958374973	1471958375074	 	32
1786	18330	Some had witnessed the fighting which erupted a week ago.	Some had witnessed the fighting which erupted a week ago.	876277	1471958375053	1471958375201	w	87
1786	18330	Some had witnessed the fighting which erupted a week ago.	Some had witnessed the fighting which erupted a week ago.	876279	1471958375172	1471958375271	e	69
1786	18330	Some had witnessed the fighting which erupted a week ago.	Some had witnessed the fighting which erupted a week ago.	876281	1471958375351	1471958375478	e	69
1786	18330	Some had witnessed the fighting which erupted a week ago.	Some had witnessed the fighting which erupted a week ago.	876283	1471958375492	1471958375580	k	75
1786	18330	Some had witnessed the fighting which erupted a week ago.	Some had witnessed the fighting which erupted a week ago.	876287	1471958375670	1471958375764	 	32
1786	18330	Some had witnessed the fighting which erupted a week ago.	Some had witnessed the fighting which erupted a week ago.	876330	1471958375759	1471958375879	a	65
1786	18330	Some had witnessed the fighting which erupted a week ago.	Some had witnessed the fighting which erupted a week ago.	876334	1471958375991	1471958376041	h	71
1786	18330	Some had witnessed the fighting which erupted a week ago.	Some had witnessed the fighting which erupted a week ago.	876337	1471958376071	1471958376150	o	79
1786	18330	Some had witnessed the fighting which erupted a week ago.	Some had witnessed the fighting which erupted a week ago.	876342	1471958376549	1471958376610	BKSP	8
1786	18330	Some had witnessed the fighting which erupted a week ago.	Some had witnessed the fighting which erupted a week ago.	876345	1471958376708	1471958376778	BKSP	8
1786	18330	Some had witnessed the fighting which erupted a week ago.	Some had witnessed the fighting which erupted a week ago.	876347	1471958376906	1471958376998	o	79
1786	18330	Some had witnessed the fighting which erupted a week ago.	Some had witnessed the fighting which erupted a week ago.	876349	1471958377207	1471958377265	.	190
1786	18342	Don't they have some conflicts here?	Don't they have some conflicts here?	876475	1471958379040	1471958379219	SHIFT	16
1786	18342	Don't they have some conflicts here?	Don't they have some conflicts here?	876477	1471958379169	1471958379271	D	68
1786	18342	Don't they have some conflicts here?	Don't they have some conflicts here?	876482	1471958379274	1471958379310	o	79
1786	18342	Don't they have some conflicts here?	Don't they have some conflicts here?	876486	1471958379421	1471958379471	n	78
1786	18342	Don't they have some conflicts here?	Don't they have some conflicts here?	876489	1471958379958	1471958380028	'	222
1786	18342	Don't they have some conflicts here?	Don't they have some conflicts here?	876490	1471958380097	1471958380216	t	84
1786	18342	Don't they have some conflicts here?	Don't they have some conflicts here?	876529	1471958380266	1471958380375	 	32
1786	18342	Don't they have some conflicts here?	Don't they have some conflicts here?	876534	1471958380516	1471958380608	t	84
1786	18342	Don't they have some conflicts here?	Don't they have some conflicts here?	876539	1471958380585	1471958380676	h	72
1786	18342	Don't they have some conflicts here?	Don't they have some conflicts here?	876542	1471958380695	1471958380795	e	69
1786	18342	Don't they have some conflicts here?	Don't they have some conflicts here?	876544	1471958380798	1471958380864	y	89
1786	18342	Don't they have some conflicts here?	Don't they have some conflicts here?	876575	1471958380946	1471958381055	 	32
1786	18342	Don't they have some conflicts here?	Don't they have some conflicts here?	876576	1471958381184	1471958381272	h	72
1786	18342	Don't they have some conflicts here?	Don't they have some conflicts here?	876579	1471958381264	1471958381396	a	65
1786	18342	Don't they have some conflicts here?	Don't they have some conflicts here?	876582	1471958381475	1471958381565	v	86
1786	18342	Don't they have some conflicts here?	Don't they have some conflicts here?	876584	1471958381614	1471958381723	e	69
1786	18342	Don't they have some conflicts here?	Don't they have some conflicts here?	876597	1471958381743	1471958381821	 	32
1786	18342	Don't they have some conflicts here?	Don't they have some conflicts here?	876599	1471958381812	1471958381915	s	83
1786	18342	Don't they have some conflicts here?	Don't they have some conflicts here?	876601	1471958381918	1471958381974	o	79
1786	18342	Don't they have some conflicts here?	Don't they have some conflicts here?	876604	1471958382073	1471958382170	m	77
1786	18342	Don't they have some conflicts here?	Don't they have some conflicts here?	876660	1471958382162	1471958382244	e	69
1786	18342	Don't they have some conflicts here?	Don't they have some conflicts here?	876663	1471958382313	1471958382394	 	32
1786	18342	Don't they have some conflicts here?	Don't they have some conflicts here?	876666	1471958382731	1471958382801	c	67
1786	18342	Don't they have some conflicts here?	Don't they have some conflicts here?	876672	1471958382870	1471958382932	o	79
1786	18342	Don't they have some conflicts here?	Don't they have some conflicts here?	876677	1471958383041	1471958383100	n	78
1786	18342	Don't they have some conflicts here?	Don't they have some conflicts here?	876681	1471958383179	1471958383270	f	70
1786	18342	Don't they have some conflicts here?	Don't they have some conflicts here?	876694	1471958383274	1471958383340	l	76
1786	18342	Don't they have some conflicts here?	Don't they have some conflicts here?	876697	1471958383471	1471958383558	i	73
1786	18342	Don't they have some conflicts here?	Don't they have some conflicts here?	876699	1471958383550	1471958383601	c	67
1786	18342	Don't they have some conflicts here?	Don't they have some conflicts here?	876702	1471958383720	1471958383852	t	84
1786	18342	Don't they have some conflicts here?	Don't they have some conflicts here?	876720	1471958383848	1471958383930	s	83
1786	18342	Don't they have some conflicts here?	Don't they have some conflicts here?	876721	1471958383960	1471958384070	 	32
1786	18342	Don't they have some conflicts here?	Don't they have some conflicts here?	876723	1471958384089	1471958384169	h	72
1786	18342	Don't they have some conflicts here?	Don't they have some conflicts here?	876725	1471958384149	1471958384250	e	69
1786	18342	Don't they have some conflicts here?	Don't they have some conflicts here?	876727	1471958384219	1471958384369	r	82
1786	18342	Don't they have some conflicts here?	Don't they have some conflicts here?	876745	1471958384347	1471958384478	e	69
1786	18342	Don't they have some conflicts here?	Don't they have some conflicts here?	876748	1471958384567	1471958384770	SHIFT	16
1786	18342	Don't they have some conflicts here?	Don't they have some conflicts here?	876746	1471958384707	1471958384766	?	191
1786	18349	I'm not close enough right now to the discussion.	I'm not close enough right now to the discussion.	876825	1471958386591	1471958386764	SHIFT	16
1786	18349	I'm not close enough right now to the discussion.	I'm not close enough right now to the discussion.	876823	1471958386710	1471958386760	I	73
1786	18349	I'm not close enough right now to the discussion.	I'm not close enough right now to the discussion.	876826	1471958387178	1471958387248	'	222
1786	18349	I'm not close enough right now to the discussion.	I'm not close enough right now to the discussion.	876827	1471958387418	1471958387498	m	77
1786	18349	I'm not close enough right now to the discussion.	I'm not close enough right now to the discussion.	876829	1471958387617	1471958387716	 	32
1786	18349	I'm not close enough right now to the discussion.	I'm not close enough right now to the discussion.	876831	1471958387766	1471958387837	n	78
1786	18349	I'm not close enough right now to the discussion.	I'm not close enough right now to the discussion.	876883	1471958387946	1471958388043	o	79
1786	18349	I'm not close enough right now to the discussion.	I'm not close enough right now to the discussion.	876888	1471958388035	1471958388116	t	84
1786	18349	I'm not close enough right now to the discussion.	I'm not close enough right now to the discussion.	876897	1471958388135	1471958388216	 	32
1786	18349	I'm not close enough right now to the discussion.	I'm not close enough right now to the discussion.	876901	1471958388337	1471958388406	c	67
1786	18349	I'm not close enough right now to the discussion.	I'm not close enough right now to the discussion.	876903	1471958388753	1471958388825	l	76
1786	18349	I'm not close enough right now to the discussion.	I'm not close enough right now to the discussion.	876910	1471958388924	1471958389011	o	79
1786	18349	I'm not close enough right now to the discussion.	I'm not close enough right now to the discussion.	876912	1471958389003	1471958389123	s	83
1786	18349	I'm not close enough right now to the discussion.	I'm not close enough right now to the discussion.	876916	1471958389063	1471958389193	e	69
1786	18349	I'm not close enough right now to the discussion.	I'm not close enough right now to the discussion.	876920	1471958389243	1471958389339	 	32
1786	18349	I'm not close enough right now to the discussion.	I'm not close enough right now to the discussion.	876965	1471958389334	1471958389434	e	69
1786	18349	I'm not close enough right now to the discussion.	I'm not close enough right now to the discussion.	876970	1471958389437	1471958389494	n	78
1786	18349	I'm not close enough right now to the discussion.	I'm not close enough right now to the discussion.	876978	1471958389632	1471958389712	o	79
1786	18349	I'm not close enough right now to the discussion.	I'm not close enough right now to the discussion.	876981	1471958389842	1471958389912	u	85
1786	18349	I'm not close enough right now to the discussion.	I'm not close enough right now to the discussion.	876987	1471958390021	1471958390090	g	71
1786	18349	I'm not close enough right now to the discussion.	I'm not close enough right now to the discussion.	877077	1471958390180	1471958390255	h	72
1786	18349	I'm not close enough right now to the discussion.	I'm not close enough right now to the discussion.	876994	1471958390210	1471958390251	j	74
1786	18349	I'm not close enough right now to the discussion.	I'm not close enough right now to the discussion.	877082	1471958390909	1471958390989	BKSP	8
1786	18349	I'm not close enough right now to the discussion.	I'm not close enough right now to the discussion.	877088	1471958391388	1471958391477	 	32
1786	18349	I'm not close enough right now to the discussion.	I'm not close enough right now to the discussion.	877092	1471958391606	1471958391715	r	82
1786	18349	I'm not close enough right now to the discussion.	I'm not close enough right now to the discussion.	877096	1471958391695	1471958391765	i	73
1786	18349	I'm not close enough right now to the discussion.	I'm not close enough right now to the discussion.	877100	1471958391876	1471958391935	g	71
1786	18349	I'm not close enough right now to the discussion.	I'm not close enough right now to the discussion.	877104	1471958392024	1471958392094	h	72
1786	18349	I'm not close enough right now to the discussion.	I'm not close enough right now to the discussion.	877109	1471958392123	1471958392215	t	84
1786	18349	I'm not close enough right now to the discussion.	I'm not close enough right now to the discussion.	877111	1471958392234	1471958392336	 	32
1786	18349	I'm not close enough right now to the discussion.	I'm not close enough right now to the discussion.	877113	1471958392316	1471958392375	n	78
1786	18349	I'm not close enough right now to the discussion.	I'm not close enough right now to the discussion.	877116	1471958392514	1471958392564	o	79
1786	18349	I'm not close enough right now to the discussion.	I'm not close enough right now to the discussion.	877120	1471958392583	1471958392702	w	87
1786	18349	I'm not close enough right now to the discussion.	I'm not close enough right now to the discussion.	877142	1471958392772	1471958392863	 	32
1786	18349	I'm not close enough right now to the discussion.	I'm not close enough right now to the discussion.	877143	1471958392883	1471958392952	t	84
1786	18349	I'm not close enough right now to the discussion.	I'm not close enough right now to the discussion.	877144	1471958392981	1471958393061	o	79
1786	18349	I'm not close enough right now to the discussion.	I'm not close enough right now to the discussion.	877145	1471958393191	1471958393270	 	32
1786	18349	I'm not close enough right now to the discussion.	I'm not close enough right now to the discussion.	877146	1471958393302	1471958393372	t	84
1786	18349	I'm not close enough right now to the discussion.	I'm not close enough right now to the discussion.	877158	1471958393401	1471958393460	h	72
1786	18349	I'm not close enough right now to the discussion.	I'm not close enough right now to the discussion.	877161	1471958393500	1471958393569	e	69
1786	18349	I'm not close enough right now to the discussion.	I'm not close enough right now to the discussion.	877164	1471958393609	1471958393699	 	32
1786	18349	I'm not close enough right now to the discussion.	I'm not close enough right now to the discussion.	877167	1471958393748	1471958393830	d	68
1786	18349	I'm not close enough right now to the discussion.	I'm not close enough right now to the discussion.	877170	1471958393899	1471958393958	i	73
1786	18349	I'm not close enough right now to the discussion.	I'm not close enough right now to the discussion.	877210	1471958393978	1471958394087	s	83
1786	18349	I'm not close enough right now to the discussion.	I'm not close enough right now to the discussion.	877214	1471958394167	1471958394237	c	67
1786	18349	I'm not close enough right now to the discussion.	I'm not close enough right now to the discussion.	877218	1471958394517	1471958394567	u	85
1786	18349	I'm not close enough right now to the discussion.	I'm not close enough right now to the discussion.	877221	1471958394616	1471958394706	s	83
1786	18349	I'm not close enough right now to the discussion.	I'm not close enough right now to the discussion.	877225	1471958394797	1471958394857	s	83
1786	18349	I'm not close enough right now to the discussion.	I'm not close enough right now to the discussion.	877271	1471958394827	1471958394897	i	73
1786	18349	I'm not close enough right now to the discussion.	I'm not close enough right now to the discussion.	877276	1471958394985	1471958395055	o	79
1786	18349	I'm not close enough right now to the discussion.	I'm not close enough right now to the discussion.	877281	1471958395145	1471958395195	n	78
1786	18349	I'm not close enough right now to the discussion.	I'm not close enough right now to the discussion.	877284	1471958395633	1471958395692	.	190
1786	18360	How did they get onto our floor?	How did they get onto our floor?	877387	1471958397468	1471958397660	SHIFT	16
1786	18360	How did they get onto our floor?	How did they get onto our floor?	877384	1471958397616	1471958397656	H	72
1786	18360	How did they get onto our floor?	How did they get onto our floor?	877390	1471958397787	1471958397873	o	79
1786	18360	How did they get onto our floor?	How did they get onto our floor?	877391	1471958397866	1471958397927	w	87
1786	18360	How did they get onto our floor?	How did they get onto our floor?	877392	1471958398035	1471958398113	 	32
1786	18360	How did they get onto our floor?	How did they get onto our floor?	877410	1471958398106	1471958398176	d	68
1786	18360	How did they get onto our floor?	How did they get onto our floor?	877411	1471958398225	1471958398313	i	73
1786	18360	How did they get onto our floor?	How did they get onto our floor?	877412	1471958398309	1471958398368	d	68
1786	18360	How did they get onto our floor?	How did they get onto our floor?	877413	1471958398427	1471958398527	 	32
1786	18360	How did they get onto our floor?	How did they get onto our floor?	877415	1471958398506	1471958398616	t	84
1786	18360	How did they get onto our floor?	How did they get onto our floor?	877417	1471958398619	1471958398692	h	72
1786	18360	How did they get onto our floor?	How did they get onto our floor?	877432	1471958398685	1471958398807	e	69
1786	18360	How did they get onto our floor?	How did they get onto our floor?	877433	1471958398810	1471958398886	y	89
1786	18360	How did they get onto our floor?	How did they get onto our floor?	877434	1471958398945	1471958399065	 	32
1786	18360	How did they get onto our floor?	How did they get onto our floor?	877437	1471958399025	1471958399124	g	71
1786	18360	How did they get onto our floor?	How did they get onto our floor?	877440	1471958399115	1471958399277	e	69
1786	18360	How did they get onto our floor?	How did they get onto our floor?	877465	1471958399225	1471958399313	t	84
1786	18360	How did they get onto our floor?	How did they get onto our floor?	877466	1471958399307	1471958399387	 	32
1786	18360	How did they get onto our floor?	How did they get onto our floor?	877468	1471958399427	1471958399496	o	79
1786	18360	How did they get onto our floor?	How did they get onto our floor?	877470	1471958399595	1471958399664	n	78
1786	18360	How did they get onto our floor?	How did they get onto our floor?	877472	1471958399855	1471958399954	t	84
1786	18360	How did they get onto our floor?	How did they get onto our floor?	877475	1471958400073	1471958400153	o	79
1786	18360	How did they get onto our floor?	How did they get onto our floor?	877498	1471958400284	1471958400363	 	32
1786	18360	How did they get onto our floor?	How did they get onto our floor?	877500	1471958400413	1471958400482	o	79
1786	18360	How did they get onto our floor?	How did they get onto our floor?	877503	1471958400581	1471958400631	u	85
1786	18360	How did they get onto our floor?	How did they get onto our floor?	877505	1471958400660	1471958400742	r	82
1786	18360	How did they get onto our floor?	How did they get onto our floor?	877507	1471958400771	1471958400851	 	32
1786	18360	How did they get onto our floor?	How did they get onto our floor?	877541	1471958400871	1471958400960	f	70
1786	18360	How did they get onto our floor?	How did they get onto our floor?	877546	1471958400999	1471958401059	l	76
1786	18360	How did they get onto our floor?	How did they get onto our floor?	877551	1471958401169	1471958401241	o	79
1786	18360	How did they get onto our floor?	How did they get onto our floor?	877556	1471958401537	1471958401588	o	79
1786	18360	How did they get onto our floor?	How did they get onto our floor?	877561	1471958401706	1471958401798	r	82
1786	18360	How did they get onto our floor?	How did they get onto our floor?	877578	1471958401887	1471958402145	SHIFT	16
1786	18360	How did they get onto our floor?	How did they get onto our floor?	877577	1471958402045	1471958402096	?	191
1786	18370	Hope this message is much better received than yesterday's.	Hope this message is much better recived than yesterday's	877663	1471958403800	1471958404056	SHIFT	16
1786	18370	Hope this message is much better received than yesterday's.	Hope this message is much better recived than yesterday's	877666	1471958404048	1471958404080	H	72
1786	18370	Hope this message is much better received than yesterday's.	Hope this message is much better recived than yesterday's	877670	1471958404240	1471958404299	o	79
1786	18370	Hope this message is much better received than yesterday's.	Hope this message is much better recived than yesterday's	877673	1471958404448	1471958404537	p	80
1786	18370	Hope this message is much better received than yesterday's.	Hope this message is much better recived than yesterday's	877677	1471958404856	1471958404985	e	69
1786	18370	Hope this message is much better received than yesterday's.	Hope this message is much better recived than yesterday's	877681	1471958405005	1471958405095	 	32
1786	18370	Hope this message is much better received than yesterday's.	Hope this message is much better recived than yesterday's	877695	1471958405115	1471958405206	t	84
1786	18370	Hope this message is much better received than yesterday's.	Hope this message is much better recived than yesterday's	877696	1471958405209	1471958405256	h	72
1786	18370	Hope this message is much better received than yesterday's.	Hope this message is much better recived than yesterday's	877697	1471958405365	1471958405451	i	73
1786	18370	Hope this message is much better received than yesterday's.	Hope this message is much better recived than yesterday's	877698	1471958405444	1471958405534	s	83
1786	18370	Hope this message is much better received than yesterday's.	Hope this message is much better recived than yesterday's	877699	1471958405554	1471958405681	 	32
1786	18370	Hope this message is much better received than yesterday's.	Hope this message is much better recived than yesterday's	877712	1471958405643	1471958405736	m	77
1786	18370	Hope this message is much better received than yesterday's.	Hope this message is much better recived than yesterday's	877714	1471958405673	1471958405805	e	69
1786	18370	Hope this message is much better received than yesterday's.	Hope this message is much better recived than yesterday's	877716	1471958405835	1471958405924	s	83
1786	18370	Hope this message is much better received than yesterday's.	Hope this message is much better recived than yesterday's	877719	1471958406013	1471958406160	s	83
1786	18370	Hope this message is much better received than yesterday's.	Hope this message is much better recived than yesterday's	877722	1471958406153	1471958406315	a	65
1786	18370	Hope this message is much better received than yesterday's.	Hope this message is much better recived than yesterday's	877724	1471958406245	1471958406424	g	71
1786	18370	Hope this message is much better received than yesterday's.	Hope this message is much better recived than yesterday's	877731	1471958406374	1471958406483	e	69
1786	18370	Hope this message is much better received than yesterday's.	Hope this message is much better recived than yesterday's	877734	1471958406486	1471958406562	 	32
1786	18370	Hope this message is much better received than yesterday's.	Hope this message is much better recived than yesterday's	877737	1471958406566	1471958406642	i	73
1786	18370	Hope this message is much better received than yesterday's.	Hope this message is much better recived than yesterday's	877740	1471958406661	1471958406763	s	83
1786	18370	Hope this message is much better received than yesterday's.	Hope this message is much better recived than yesterday's	877743	1471958406802	1471958406872	 	32
1786	18370	Hope this message is much better received than yesterday's.	Hope this message is much better recived than yesterday's	877766	1471958406842	1471958406941	m	77
1786	18370	Hope this message is much better received than yesterday's.	Hope this message is much better recived than yesterday's	877771	1471958407041	1471958407101	u	85
1786	18370	Hope this message is much better received than yesterday's.	Hope this message is much better recived than yesterday's	877774	1471958407081	1471958407172	c	67
1786	18370	Hope this message is much better received than yesterday's.	Hope this message is much better recived than yesterday's	877778	1471958407212	1471958407272	h	72
1786	18370	Hope this message is much better received than yesterday's.	Hope this message is much better recived than yesterday's	877783	1471958407371	1471958407500	 	32
1786	18370	Hope this message is much better received than yesterday's.	Hope this message is much better recived than yesterday's	877810	1471958407470	1471958407550	b	66
1786	18370	Hope this message is much better received than yesterday's.	Hope this message is much better recived than yesterday's	877813	1471958407530	1471958407661	e	69
1786	18370	Hope this message is much better received than yesterday's.	Hope this message is much better recived than yesterday's	877814	1471958407599	1471958407700	t	84
1786	18370	Hope this message is much better received than yesterday's.	Hope this message is much better recived than yesterday's	877815	1471958407780	1471958407886	t	84
1786	18370	Hope this message is much better received than yesterday's.	Hope this message is much better recived than yesterday's	877816	1471958407879	1471958408070	e	69
1786	18370	Hope this message is much better received than yesterday's.	Hope this message is much better recived than yesterday's	877845	1471958407979	1471958408095	r	82
1786	18370	Hope this message is much better received than yesterday's.	Hope this message is much better recived than yesterday's	877846	1471958408073	1471958408172	 	32
1786	18370	Hope this message is much better received than yesterday's.	Hope this message is much better recived than yesterday's	877848	1471958408175	1471958408301	r	82
1786	18370	Hope this message is much better received than yesterday's.	Hope this message is much better recived than yesterday's	877850	1471958408242	1471958408400	e	69
1786	18370	Hope this message is much better received than yesterday's.	Hope this message is much better recived than yesterday's	877855	1471958408430	1471958408549	c	67
1786	18370	Hope this message is much better received than yesterday's.	Hope this message is much better recived than yesterday's	877858	1471958408638	1471958408720	i	73
1786	18370	Hope this message is much better received than yesterday's.	Hope this message is much better recived than yesterday's	877928	1471958409634	1471958409716	v	86
1786	18370	Hope this message is much better received than yesterday's.	Hope this message is much better recived than yesterday's	877932	1471958409884	1471958410064	e	69
1786	18370	Hope this message is much better received than yesterday's.	Hope this message is much better recived than yesterday's	877938	1471958410024	1471958410145	d	68
1786	18370	Hope this message is much better received than yesterday's.	Hope this message is much better recived than yesterday's	877943	1471958410174	1471958410274	 	32
1786	18370	Hope this message is much better received than yesterday's.	Hope this message is much better recived than yesterday's	877948	1471958410277	1471958410373	t	84
1786	18370	Hope this message is much better received than yesterday's.	Hope this message is much better recived than yesterday's	877995	1471958410376	1471958410432	h	72
1786	18370	Hope this message is much better received than yesterday's.	Hope this message is much better recived than yesterday's	877997	1471958410860	1471958410950	a	65
1786	18370	Hope this message is much better received than yesterday's.	Hope this message is much better recived than yesterday's	878000	1471958410990	1471958411050	n	78
1786	18370	Hope this message is much better received than yesterday's.	Hope this message is much better recived than yesterday's	878001	1471958411171	1471958411260	 	32
1786	18370	Hope this message is much better received than yesterday's.	Hope this message is much better recived than yesterday's	878004	1471958411508	1471958411570	y	89
1786	18370	Hope this message is much better received than yesterday's.	Hope this message is much better recived than yesterday's	878044	1471958411597	1471958411768	e	69
1786	18370	Hope this message is much better received than yesterday's.	Hope this message is much better recived than yesterday's	878048	1471958411688	1471958411838	s	83
1786	18370	Hope this message is much better received than yesterday's.	Hope this message is much better recived than yesterday's	878053	1471958411841	1471958411917	t	84
1786	18370	Hope this message is much better received than yesterday's.	Hope this message is much better recived than yesterday's	878056	1471958412057	1471958412200	e	69
1786	18370	Hope this message is much better received than yesterday's.	Hope this message is much better recived than yesterday's	878136	1471958412179	1471958412318	r	82
1786	18370	Hope this message is much better received than yesterday's.	Hope this message is much better recived than yesterday's	878137	1471958412746	1471958412879	d	68
1786	18370	Hope this message is much better received than yesterday's.	Hope this message is much better recived than yesterday's	878139	1471958412875	1471958412986	a	65
1786	18370	Hope this message is much better received than yesterday's.	Hope this message is much better recived than yesterday's	878142	1471958413206	1471958413255	y	89
1786	18370	Hope this message is much better received than yesterday's.	Hope this message is much better recived than yesterday's	878147	1471958413743	1471958413812	'	222
1786	18370	Hope this message is much better received than yesterday's.	Hope this message is much better recived than yesterday's	878153	1471958413832	1471958413931	s	83
1786	18382	We haven't made that decision here though.	We haven't made that desion here thoyugh.	878285	1471958415525	1471958415755	SHIFT	16
1786	18382	We haven't made that decision here though.	We haven't made that desion here thoyugh.	878287	1471958415725	1471958415945	W	87
1786	18382	We haven't made that decision here though.	We haven't made that desion here thoyugh.	878290	1471958415964	1471958416073	e	69
1786	18382	We haven't made that decision here though.	We haven't made that desion here thoyugh.	878293	1471958416452	1471958416551	 	32
1786	18382	We haven't made that decision here though.	We haven't made that desion here thoyugh.	878296	1471958416603	1471958416682	h	72
1786	18382	We haven't made that decision here though.	We haven't made that desion here thoyugh.	878298	1471958416722	1471958416831	a	65
1786	18382	We haven't made that decision here though.	We haven't made that desion here thoyugh.	878320	1471958416890	1471958417030	v	86
1786	18382	We haven't made that decision here though.	We haven't made that desion here thoyugh.	878322	1471958417010	1471958417161	e	69
1786	18382	We haven't made that decision here though.	We haven't made that desion here thoyugh.	878325	1471958417164	1471958417210	n	78
1786	18382	We haven't made that decision here though.	We haven't made that desion here thoyugh.	878330	1471958417619	1471958417712	'	222
1786	18382	We haven't made that decision here though.	We haven't made that desion here thoyugh.	878357	1471958417708	1471958417808	t	84
1786	18382	We haven't made that decision here though.	We haven't made that desion here thoyugh.	878361	1471958417878	1471958417988	 	32
1786	18382	We haven't made that decision here though.	We haven't made that desion here thoyugh.	878364	1471958418069	1471958418156	m	77
1786	18382	We haven't made that decision here though.	We haven't made that desion here thoyugh.	878368	1471958418148	1471958418278	a	65
1786	18382	We haven't made that decision here though.	We haven't made that desion here thoyugh.	878372	1471958418248	1471958418328	d	68
1786	18382	We haven't made that decision here though.	We haven't made that desion here thoyugh.	878376	1471958418417	1471958418516	e	69
1786	18382	We haven't made that decision here though.	We haven't made that desion here thoyugh.	878380	1471958418520	1471958418598	 	32
1786	18382	We haven't made that decision here though.	We haven't made that desion here thoyugh.	878383	1471958418617	1471958418707	t	84
1786	18382	We haven't made that decision here though.	We haven't made that desion here thoyugh.	878385	1471958418710	1471958418781	h	72
1786	18382	We haven't made that decision here though.	We haven't made that desion here thoyugh.	878387	1471958418776	1471958418937	a	65
1786	18382	We haven't made that decision here though.	We haven't made that desion here thoyugh.	878427	1471958418846	1471958418966	t	84
1786	18382	We haven't made that decision here though.	We haven't made that desion here thoyugh.	878429	1471958419016	1471958419097	 	32
1786	18382	We haven't made that decision here though.	We haven't made that desion here thoyugh.	878431	1471958419127	1471958419286	d	68
1786	18382	We haven't made that decision here though.	We haven't made that desion here thoyugh.	878433	1471958419246	1471958419434	e	69
1786	18382	We haven't made that decision here though.	We haven't made that desion here thoyugh.	878435	1471958419365	1471958419494	s	83
1786	18382	We haven't made that decision here though.	We haven't made that desion here thoyugh.	878439	1471958419992	1471958420032	i	73
1786	18382	We haven't made that decision here though.	We haven't made that desion here thoyugh.	878471	1471958420133	1471958420203	o	79
1786	18382	We haven't made that decision here though.	We haven't made that desion here thoyugh.	878473	1471958420302	1471958420371	n	78
1786	18382	We haven't made that decision here though.	We haven't made that desion here thoyugh.	878476	1471958420431	1471958420530	 	32
1786	18382	We haven't made that decision here though.	We haven't made that desion here thoyugh.	878478	1471958420631	1471958420710	h	72
1786	18382	We haven't made that decision here though.	We haven't made that desion here thoyugh.	878479	1471958420740	1471958420859	e	69
1786	18382	We haven't made that decision here though.	We haven't made that desion here thoyugh.	878502	1471958420819	1471958420969	r	82
1786	18382	We haven't made that decision here though.	We haven't made that desion here thoyugh.	878504	1471958420929	1471958421060	e	69
1786	18382	We haven't made that decision here though.	We haven't made that desion here thoyugh.	878507	1471958421090	1471958421219	 	32
1786	18382	We haven't made that decision here though.	We haven't made that desion here thoyugh.	878509	1471958421222	1471958421258	t	84
1786	18382	We haven't made that decision here though.	We haven't made that desion here thoyugh.	878511	1471958421261	1471958421318	h	72
1786	18382	We haven't made that decision here though.	We haven't made that desion here thoyugh.	878513	1471958421476	1471958421548	o	79
1786	18382	We haven't made that decision here though.	We haven't made that desion here thoyugh.	878546	1471958421657	1471958421707	u	89
1786	18382	We haven't made that decision here though.	We haven't made that desion here thoyugh.	878549	1471958421826	1471958421856	g	71
1786	18382	We haven't made that decision here though.	We haven't made that desion here thoyugh.	878552	1471958422006	1471958422057	h	72
1786	18382	We haven't made that decision here though.	We haven't made that desion here thoyugh.	878556	1471958422644	1471958422714	.	190
1786	18393	Please call tomorrow if possible.	Please call tomorrow if possible.	878660	1471958424169	1471958424450	SHIFT	16
1786	18393	Please call tomorrow if possible.	Please call tomorrow if possible.	878657	1471958424377	1471958424447	P	80
1786	18393	Please call tomorrow if possible.	Please call tomorrow if possible.	878665	1471958424547	1471958424637	l	76
1786	18393	Please call tomorrow if possible.	Please call tomorrow if possible.	878671	1471958424597	1471958424731	e	69
1786	18393	Please call tomorrow if possible.	Please call tomorrow if possible.	878676	1471958424726	1471958424897	a	65
1786	18393	Please call tomorrow if possible.	Please call tomorrow if possible.	878705	1471958424806	1471958424976	s	83
1786	18393	Please call tomorrow if possible.	Please call tomorrow if possible.	878708	1471958424900	1471958425008	e	69
1786	18393	Please call tomorrow if possible.	Please call tomorrow if possible.	878712	1471958425067	1471958425186	 	32
1786	18393	Please call tomorrow if possible.	Please call tomorrow if possible.	878715	1471958425454	1471958425592	c	67
1786	18393	Please call tomorrow if possible.	Please call tomorrow if possible.	878718	1471958425585	1471958425714	a	65
1786	18393	Please call tomorrow if possible.	Please call tomorrow if possible.	878719	1471958425744	1471958425793	l	76
1786	18393	Please call tomorrow if possible.	Please call tomorrow if possible.	878758	1471958425884	1471958425963	l	76
1786	18393	Please call tomorrow if possible.	Please call tomorrow if possible.	878762	1471958426074	1471958426184	 	32
1786	18393	Please call tomorrow if possible.	Please call tomorrow if possible.	878767	1471958426242	1471958426322	t	84
1786	18393	Please call tomorrow if possible.	Please call tomorrow if possible.	878771	1471958426451	1471958426522	o	79
1786	18393	Please call tomorrow if possible.	Please call tomorrow if possible.	878774	1471958426631	1471958426701	m	77
1786	18393	Please call tomorrow if possible.	Please call tomorrow if possible.	878879	1471958426979	1471958427051	m	77
1786	18393	Please call tomorrow if possible.	Please call tomorrow if possible.	878882	1471958427298	1471958427388	BKSP	8
1786	18393	Please call tomorrow if possible.	Please call tomorrow if possible.	878885	1471958427816	1471958427906	o	79
1786	18393	Please call tomorrow if possible.	Please call tomorrow if possible.	878887	1471958427966	1471958428057	r	82
1786	18393	Please call tomorrow if possible.	Please call tomorrow if possible.	878890	1471958428136	1471958428216	r	82
1786	18393	Please call tomorrow if possible.	Please call tomorrow if possible.	878893	1471958428245	1471958428305	o	79
1786	18393	Please call tomorrow if possible.	Please call tomorrow if possible.	878923	1471958428334	1471958428444	w	87
1786	18393	Please call tomorrow if possible.	Please call tomorrow if possible.	878928	1471958428473	1471958428575	 	32
1786	18393	Please call tomorrow if possible.	Please call tomorrow if possible.	878930	1471958428577	1471958428664	i	73
1786	18393	Please call tomorrow if possible.	Please call tomorrow if possible.	878932	1471958428703	1471958428830	f	70
1786	18393	Please call tomorrow if possible.	Please call tomorrow if possible.	878952	1471958428822	1471958428933	 	32
1786	18393	Please call tomorrow if possible.	Please call tomorrow if possible.	878954	1471958428995	1471958429064	p	80
1786	18393	Please call tomorrow if possible.	Please call tomorrow if possible.	878956	1471958429153	1471958429244	o	79
1786	18393	Please call tomorrow if possible.	Please call tomorrow if possible.	878959	1471958429273	1471958429363	s	83
1786	18393	Please call tomorrow if possible.	Please call tomorrow if possible.	878961	1471958429442	1471958429523	s	83
1786	18393	Please call tomorrow if possible.	Please call tomorrow if possible.	878965	1471958429527	1471958429583	i	73
1786	18393	Please call tomorrow if possible.	Please call tomorrow if possible.	878968	1471958429642	1471958429721	b	66
1786	18393	Please call tomorrow if possible.	Please call tomorrow if possible.	878970	1471958429791	1471958429851	l	76
1786	18393	Please call tomorrow if possible.	Please call tomorrow if possible.	878973	1471958429881	1471958429960	e	69
1786	18393	Please call tomorrow if possible.	Please call tomorrow if possible.	878980	1471958430032	1471958430072	.	191
1786	18393	Please call tomorrow if possible.	Please call tomorrow if possible.	879021	1471958430500	1471958430580	BKSP	8
1786	18393	Please call tomorrow if possible.	Please call tomorrow if possible.	879022	1471958430679	1471958430748	BKSP	8
1786	18393	Please call tomorrow if possible.	Please call tomorrow if possible.	879024	1471958430839	1471958430899	.	190
1786	18405	Jiang made the comments in a meeting with Malaysian Prime Minister.	Jiang made the comments in a meeting with Malaysian Prime Minister	879199	1471958432746	1471958433181	SHIFT	16
1786	18405	Jiang made the comments in a meeting with Malaysian Prime Minister.	Jiang made the comments in a meeting with Malaysian Prime Minister	879198	1471958433115	1471958433177	J	74
1786	18405	Jiang made the comments in a meeting with Malaysian Prime Minister.	Jiang made the comments in a meeting with Malaysian Prime Minister	879202	1471958433305	1471958433375	i	73
1786	18405	Jiang made the comments in a meeting with Malaysian Prime Minister.	Jiang made the comments in a meeting with Malaysian Prime Minister	879205	1471958433605	1471958433664	n	78
1786	18405	Jiang made the comments in a meeting with Malaysian Prime Minister.	Jiang made the comments in a meeting with Malaysian Prime Minister	879208	1471958434024	1471958434074	BKSP	8
1786	18405	Jiang made the comments in a meeting with Malaysian Prime Minister.	Jiang made the comments in a meeting with Malaysian Prime Minister	879211	1471958434153	1471958434252	a	65
1786	18405	Jiang made the comments in a meeting with Malaysian Prime Minister.	Jiang made the comments in a meeting with Malaysian Prime Minister	879214	1471958434371	1471958434423	n	78
1786	18405	Jiang made the comments in a meeting with Malaysian Prime Minister.	Jiang made the comments in a meeting with Malaysian Prime Minister	879245	1471958434443	1471958434542	g	71
1786	18405	Jiang made the comments in a meeting with Malaysian Prime Minister.	Jiang made the comments in a meeting with Malaysian Prime Minister	879248	1471958434572	1471958434661	 	32
1786	18405	Jiang made the comments in a meeting with Malaysian Prime Minister.	Jiang made the comments in a meeting with Malaysian Prime Minister	879252	1471958434710	1471958434811	m	77
1786	18405	Jiang made the comments in a meeting with Malaysian Prime Minister.	Jiang made the comments in a meeting with Malaysian Prime Minister	879254	1471958434830	1471958434932	a	65
1786	18405	Jiang made the comments in a meeting with Malaysian Prime Minister.	Jiang made the comments in a meeting with Malaysian Prime Minister	879257	1471958435199	1471958435289	d	68
1786	18405	Jiang made the comments in a meeting with Malaysian Prime Minister.	Jiang made the comments in a meeting with Malaysian Prime Minister	879281	1471958435382	1471958435489	e	69
1786	18405	Jiang made the comments in a meeting with Malaysian Prime Minister.	Jiang made the comments in a meeting with Malaysian Prime Minister	879284	1471958435518	1471958435618	 	32
1786	18405	Jiang made the comments in a meeting with Malaysian Prime Minister.	Jiang made the comments in a meeting with Malaysian Prime Minister	879289	1471958435637	1471958435728	t	84
1786	18405	Jiang made the comments in a meeting with Malaysian Prime Minister.	Jiang made the comments in a meeting with Malaysian Prime Minister	879292	1471958435731	1471958435787	h	72
1786	18405	Jiang made the comments in a meeting with Malaysian Prime Minister.	Jiang made the comments in a meeting with Malaysian Prime Minister	879296	1471958435827	1471958435918	e	69
1786	18405	Jiang made the comments in a meeting with Malaysian Prime Minister.	Jiang made the comments in a meeting with Malaysian Prime Minister	879320	1471958435925	1471958436007	 	32
1786	18405	Jiang made the comments in a meeting with Malaysian Prime Minister.	Jiang made the comments in a meeting with Malaysian Prime Minister	879323	1471958436047	1471958436137	c	67
1786	18405	Jiang made the comments in a meeting with Malaysian Prime Minister.	Jiang made the comments in a meeting with Malaysian Prime Minister	879327	1471958436140	1471958436197	o	79
1786	18405	Jiang made the comments in a meeting with Malaysian Prime Minister.	Jiang made the comments in a meeting with Malaysian Prime Minister	879332	1471958436306	1471958436367	m	77
1786	18405	Jiang made the comments in a meeting with Malaysian Prime Minister.	Jiang made the comments in a meeting with Malaysian Prime Minister	879337	1471958436446	1471958436516	m	77
1786	18405	Jiang made the comments in a meeting with Malaysian Prime Minister.	Jiang made the comments in a meeting with Malaysian Prime Minister	879351	1471958436546	1471958436635	e	69
1786	18405	Jiang made the comments in a meeting with Malaysian Prime Minister.	Jiang made the comments in a meeting with Malaysian Prime Minister	879353	1471958436674	1471958436763	n	78
1786	18405	Jiang made the comments in a meeting with Malaysian Prime Minister.	Jiang made the comments in a meeting with Malaysian Prime Minister	879356	1471958436755	1471958436897	t	84
1786	18405	Jiang made the comments in a meeting with Malaysian Prime Minister.	Jiang made the comments in a meeting with Malaysian Prime Minister	879359	1471958436867	1471958436976	s	83
1786	18405	Jiang made the comments in a meeting with Malaysian Prime Minister.	Jiang made the comments in a meeting with Malaysian Prime Minister	879362	1471958437006	1471958437105	 	32
1786	18405	Jiang made the comments in a meeting with Malaysian Prime Minister.	Jiang made the comments in a meeting with Malaysian Prime Minister	879420	1471958437214	1471958437276	i	85
1786	18405	Jiang made the comments in a meeting with Malaysian Prime Minister.	Jiang made the comments in a meeting with Malaysian Prime Minister	879422	1471958437634	1471958437705	BKSP	8
1786	18405	Jiang made the comments in a meeting with Malaysian Prime Minister.	Jiang made the comments in a meeting with Malaysian Prime Minister	879424	1471958437803	1471958437895	BKSP	8
1786	18405	Jiang made the comments in a meeting with Malaysian Prime Minister.	Jiang made the comments in a meeting with Malaysian Prime Minister	879427	1471958437955	1471958438034	i	73
1786	18405	Jiang made the comments in a meeting with Malaysian Prime Minister.	Jiang made the comments in a meeting with Malaysian Prime Minister	879431	1471958438153	1471958438222	n	78
1786	18405	Jiang made the comments in a meeting with Malaysian Prime Minister.	Jiang made the comments in a meeting with Malaysian Prime Minister	879437	1471958438302	1471958438383	 	32
1786	18405	Jiang made the comments in a meeting with Malaysian Prime Minister.	Jiang made the comments in a meeting with Malaysian Prime Minister	879473	1471958438422	1471958438533	a	65
1786	18405	Jiang made the comments in a meeting with Malaysian Prime Minister.	Jiang made the comments in a meeting with Malaysian Prime Minister	879478	1471958438536	1471958438602	 	32
1786	18405	Jiang made the comments in a meeting with Malaysian Prime Minister.	Jiang made the comments in a meeting with Malaysian Prime Minister	879485	1471958438622	1471958438710	m	77
1786	18405	Jiang made the comments in a meeting with Malaysian Prime Minister.	Jiang made the comments in a meeting with Malaysian Prime Minister	879487	1471958438702	1471958438802	e	69
1786	18405	Jiang made the comments in a meeting with Malaysian Prime Minister.	Jiang made the comments in a meeting with Malaysian Prime Minister	879490	1471958438883	1471958439042	e	69
1786	18405	Jiang made the comments in a meeting with Malaysian Prime Minister.	Jiang made the comments in a meeting with Malaysian Prime Minister	879521	1471958439012	1471958439072	d	68
1786	18405	Jiang made the comments in a meeting with Malaysian Prime Minister.	Jiang made the comments in a meeting with Malaysian Prime Minister	879523	1471958439330	1471958439431	BKSP	8
1786	18405	Jiang made the comments in a meeting with Malaysian Prime Minister.	Jiang made the comments in a meeting with Malaysian Prime Minister	879525	1471958439470	1471958439550	t	84
1786	18405	Jiang made the comments in a meeting with Malaysian Prime Minister.	Jiang made the comments in a meeting with Malaysian Prime Minister	879527	1471958439553	1471958439619	i	73
1786	18405	Jiang made the comments in a meeting with Malaysian Prime Minister.	Jiang made the comments in a meeting with Malaysian Prime Minister	879529	1471958439729	1471958439800	n	78
1786	18405	Jiang made the comments in a meeting with Malaysian Prime Minister.	Jiang made the comments in a meeting with Malaysian Prime Minister	879532	1471958439870	1471958439910	g	71
1786	18405	Jiang made the comments in a meeting with Malaysian Prime Minister.	Jiang made the comments in a meeting with Malaysian Prime Minister	879535	1471958439929	1471958440029	 	32
1786	18405	Jiang made the comments in a meeting with Malaysian Prime Minister.	Jiang made the comments in a meeting with Malaysian Prime Minister	879583	1471958440088	1471958440167	w	87
1786	18405	Jiang made the comments in a meeting with Malaysian Prime Minister.	Jiang made the comments in a meeting with Malaysian Prime Minister	879585	1471958440220	1471958440256	i	73
1786	18405	Jiang made the comments in a meeting with Malaysian Prime Minister.	Jiang made the comments in a meeting with Malaysian Prime Minister	879586	1471958440625	1471958440726	t	84
1786	18405	Jiang made the comments in a meeting with Malaysian Prime Minister.	Jiang made the comments in a meeting with Malaysian Prime Minister	879587	1471958440765	1471958440866	h	72
1786	18405	Jiang made the comments in a meeting with Malaysian Prime Minister.	Jiang made the comments in a meeting with Malaysian Prime Minister	879588	1471958441473	1471958441602	 	32
1786	18405	Jiang made the comments in a meeting with Malaysian Prime Minister.	Jiang made the comments in a meeting with Malaysian Prime Minister	879638	1471958441922	1471958442249	SHIFT	16
1786	18405	Jiang made the comments in a meeting with Malaysian Prime Minister.	Jiang made the comments in a meeting with Malaysian Prime Minister	879640	1471958442200	1471958442289	M	77
1786	18405	Jiang made the comments in a meeting with Malaysian Prime Minister.	Jiang made the comments in a meeting with Malaysian Prime Minister	879643	1471958442499	1471958442618	a	65
1786	18405	Jiang made the comments in a meeting with Malaysian Prime Minister.	Jiang made the comments in a meeting with Malaysian Prime Minister	879644	1471958442899	1471958442988	l	76
1786	18405	Jiang made the comments in a meeting with Malaysian Prime Minister.	Jiang made the comments in a meeting with Malaysian Prime Minister	879645	1471958443097	1471958443196	a	65
1786	18405	Jiang made the comments in a meeting with Malaysian Prime Minister.	Jiang made the comments in a meeting with Malaysian Prime Minister	879647	1471958443357	1471958443416	y	89
1786	18405	Jiang made the comments in a meeting with Malaysian Prime Minister.	Jiang made the comments in a meeting with Malaysian Prime Minister	879676	1471958443485	1471958443575	s	83
1786	18405	Jiang made the comments in a meeting with Malaysian Prime Minister.	Jiang made the comments in a meeting with Malaysian Prime Minister	879680	1471958443655	1471958443725	i	73
1786	18405	Jiang made the comments in a meeting with Malaysian Prime Minister.	Jiang made the comments in a meeting with Malaysian Prime Minister	879684	1471958443826	1471958443955	a	65
1786	18405	Jiang made the comments in a meeting with Malaysian Prime Minister.	Jiang made the comments in a meeting with Malaysian Prime Minister	879689	1471958443935	1471958444004	n	78
1786	18405	Jiang made the comments in a meeting with Malaysian Prime Minister.	Jiang made the comments in a meeting with Malaysian Prime Minister	879692	1471958444083	1471958444183	 	32
1786	18405	Jiang made the comments in a meeting with Malaysian Prime Minister.	Jiang made the comments in a meeting with Malaysian Prime Minister	879766	1471958444212	1471958444522	SHIFT	16
1786	18405	Jiang made the comments in a meeting with Malaysian Prime Minister.	Jiang made the comments in a meeting with Malaysian Prime Minister	879770	1471958444691	1471958444872	SHIFT	16
1786	18405	Jiang made the comments in a meeting with Malaysian Prime Minister.	Jiang made the comments in a meeting with Malaysian Prime Minister	879775	1471958444822	1471958444911	P	80
1786	18405	Jiang made the comments in a meeting with Malaysian Prime Minister.	Jiang made the comments in a meeting with Malaysian Prime Minister	879779	1471958444981	1471958445060	r	82
1786	18405	Jiang made the comments in a meeting with Malaysian Prime Minister.	Jiang made the comments in a meeting with Malaysian Prime Minister	879782	1471958445119	1471958445179	i	73
1786	18405	Jiang made the comments in a meeting with Malaysian Prime Minister.	Jiang made the comments in a meeting with Malaysian Prime Minister	879785	1471958445607	1471958445678	m	77
1786	18405	Jiang made the comments in a meeting with Malaysian Prime Minister.	Jiang made the comments in a meeting with Malaysian Prime Minister	879789	1471958445757	1471958445848	e	69
1786	18405	Jiang made the comments in a meeting with Malaysian Prime Minister.	Jiang made the comments in a meeting with Malaysian Prime Minister	879828	1471958445898	1471958445997	 	32
1786	18405	Jiang made the comments in a meeting with Malaysian Prime Minister.	Jiang made the comments in a meeting with Malaysian Prime Minister	879838	1471958446000	1471958446150	SHIFT	16
1786	18405	Jiang made the comments in a meeting with Malaysian Prime Minister.	Jiang made the comments in a meeting with Malaysian Prime Minister	879833	1471958446096	1471958446146	M	77
1786	18405	Jiang made the comments in a meeting with Malaysian Prime Minister.	Jiang made the comments in a meeting with Malaysian Prime Minister	879841	1471958446296	1471958446366	i	73
1786	18405	Jiang made the comments in a meeting with Malaysian Prime Minister.	Jiang made the comments in a meeting with Malaysian Prime Minister	879844	1471958446613	1471958446665	n	78
1786	18405	Jiang made the comments in a meeting with Malaysian Prime Minister.	Jiang made the comments in a meeting with Malaysian Prime Minister	879846	1471958446806	1471958446865	i	73
1786	18405	Jiang made the comments in a meeting with Malaysian Prime Minister.	Jiang made the comments in a meeting with Malaysian Prime Minister	879868	1471958446945	1471958447044	s	83
1786	18405	Jiang made the comments in a meeting with Malaysian Prime Minister.	Jiang made the comments in a meeting with Malaysian Prime Minister	879872	1471958447047	1471958447133	t	84
1786	18405	Jiang made the comments in a meeting with Malaysian Prime Minister.	Jiang made the comments in a meeting with Malaysian Prime Minister	879880	1471958447163	1471958447284	e	69
1786	18405	Jiang made the comments in a meeting with Malaysian Prime Minister.	Jiang made the comments in a meeting with Malaysian Prime Minister	879884	1471958447252	1471958447343	r	82
