PARTICIPANT_ID	TEST_SECTION_ID	SENTENCE	USER_INPUT	KEYSTROKE_ID	PRESS_TIME	RELEASE_TIME	LETTER	KEYCODE
1789	18258	I was planning to attend.	I was planning to attend.	872672	1471958301919	1471958302084	CAPS_LOCK	20
1789	18258	I was planning to attend.	I was planning to attend.	872675	1471958302042	1471958302197	I	73
1789	18258	I was planning to attend.	I was planning to attend.	872684	1471958302147	1471958302387	CAPS_LOCK	20
1789	18258	I was planning to attend.	I was planning to attend.	872678	1471958302212	1471958302344	 	32
1789	18258	I was planning to attend.	I was planning to attend.	872691	1471958302332	1471958302485	w	87
1789	18258	I was planning to attend.	I was planning to attend.	872696	1471958302523	1471958302675	a	65
1789	18258	I was planning to attend.	I was planning to attend.	872704	1471958302727	1471958302896	s	83
1789	18258	I was planning to attend.	I was planning to attend.	872760	1471958302769	1471958302909	 	32
1789	18258	I was planning to attend.	I was planning to attend.	872766	1471958303004	1471958303180	p	80
1789	18258	I was planning to attend.	I was planning to attend.	872773	1471958303164	1471958303300	l	76
1789	18258	I was planning to attend.	I was planning to attend.	872779	1471958303392	1471958303553	a	65
1789	18258	I was planning to attend.	I was planning to attend.	872783	1471958303563	1471958303674	n	78
1789	18258	I was planning to attend.	I was planning to attend.	872788	1471958303853	1471958304072	i	73
1789	18258	I was planning to attend.	I was planning to attend.	872880	1471958304027	1471958304144	n	78
1789	18258	I was planning to attend.	I was planning to attend.	872883	1471958304214	1471958304326	g	71
1789	18258	I was planning to attend.	I was planning to attend.	872887	1471958304357	1471958304484	 	32
1789	18258	I was planning to attend.	I was planning to attend.	872890	1471958304733	1471958304866	BKSP	8
1789	18258	I was planning to attend.	I was planning to attend.	872894	1471958304902	1471958305003	BKSP	8
1789	18258	I was planning to attend.	I was planning to attend.	872902	1471958305047	1471958305154	BKSP	8
1789	18258	I was planning to attend.	I was planning to attend.	872907	1471958305205	1471958305300	BKSP	8
1789	18258	I was planning to attend.	I was planning to attend.	872910	1471958305823	1471958305880	n	78
1789	18258	I was planning to attend.	I was planning to attend.	872914	1471958306451	1471958306623	i	73
1789	18258	I was planning to attend.	I was planning to attend.	872986	1471958306595	1471958306684	n	78
1789	18258	I was planning to attend.	I was planning to attend.	872990	1471958306758	1471958306851	g	71
1789	18258	I was planning to attend.	I was planning to attend.	872995	1471958306887	1471958307003	 	32
1789	18258	I was planning to attend.	I was planning to attend.	872997	1471958307375	1471958307482	t	84
1789	18258	I was planning to attend.	I was planning to attend.	872999	1471958307587	1471958307740	o	79
1789	18258	I was planning to attend.	I was planning to attend.	873001	1471958307807	1471958307962	a	65
1789	18258	I was planning to attend.	I was planning to attend.	873068	1471958308425	1471958308542	 	32
1789	18258	I was planning to attend.	I was planning to attend.	873069	1471958308890	1471958309025	BKSP	8
1789	18258	I was planning to attend.	I was planning to attend.	873070	1471958309079	1471958309161	BKSP	8
1789	18258	I was planning to attend.	I was planning to attend.	873072	1471958309277	1471958309393	 	32
1789	18258	I was planning to attend.	I was planning to attend.	873074	1471958309382	1471958309550	a	65
1789	18258	I was planning to attend.	I was planning to attend.	873076	1471958309558	1471958309652	t	84
1789	18258	I was planning to attend.	I was planning to attend.	873078	1471958309708	1471958309797	t	84
1789	18258	I was planning to attend.	I was planning to attend.	873145	1471958309802	1471958309958	e	69
1789	18258	I was planning to attend.	I was planning to attend.	873147	1471958309961	1471958310083	n	78
1789	18258	I was planning to attend.	I was planning to attend.	873151	1471958310125	1471958310275	d	68
1789	18258	I was planning to attend.	I was planning to attend.	873154	1471958310682	1471958310823	.	190
1789	18271	Liverpool failed again in when they were beaten at Wembley.	Liverpool failed again in when they were beaten at Wembley.	873327	1471958315263	1471958315402	CAPS_LOCK	20
1789	18271	Liverpool failed again in when they were beaten at Wembley.	Liverpool failed again in when they were beaten at Wembley.	873330	1471958315396	1471958315507	L	76
1789	18271	Liverpool failed again in when they were beaten at Wembley.	Liverpool failed again in when they were beaten at Wembley.	873332	1471958315472	1471958315651	CAPS_LOCK	20
1789	18271	Liverpool failed again in when they were beaten at Wembley.	Liverpool failed again in when they were beaten at Wembley.	873335	1471958315577	1471958315660	i	73
1789	18271	Liverpool failed again in when they were beaten at Wembley.	Liverpool failed again in when they were beaten at Wembley.	873337	1471958315789	1471958315901	v	86
1789	18271	Liverpool failed again in when they were beaten at Wembley.	Liverpool failed again in when they were beaten at Wembley.	873339	1471958315863	1471958316004	e	69
1789	18271	Liverpool failed again in when they were beaten at Wembley.	Liverpool failed again in when they were beaten at Wembley.	873342	1471958316057	1471958316193	r	82
1789	18271	Liverpool failed again in when they were beaten at Wembley.	Liverpool failed again in when they were beaten at Wembley.	873414	1471958316187	1471958316290	 	32
1789	18271	Liverpool failed again in when they were beaten at Wembley.	Liverpool failed again in when they were beaten at Wembley.	873417	1471958316697	1471958316869	BKSP	8
1789	18271	Liverpool failed again in when they were beaten at Wembley.	Liverpool failed again in when they were beaten at Wembley.	873420	1471958316997	1471958317161	p	80
1789	18271	Liverpool failed again in when they were beaten at Wembley.	Liverpool failed again in when they were beaten at Wembley.	873425	1471958317127	1471958317220	o	79
1789	18271	Liverpool failed again in when they were beaten at Wembley.	Liverpool failed again in when they were beaten at Wembley.	873429	1471958317274	1471958317374	o	79
1789	18271	Liverpool failed again in when they were beaten at Wembley.	Liverpool failed again in when they were beaten at Wembley.	873434	1471958317450	1471958317567	l	76
1789	18271	Liverpool failed again in when they were beaten at Wembley.	Liverpool failed again in when they were beaten at Wembley.	873438	1471958317587	1471958317695	 	32
1789	18271	Liverpool failed again in when they were beaten at Wembley.	Liverpool failed again in when they were beaten at Wembley.	873485	1471958318037	1471958318133	f	70
1789	18271	Liverpool failed again in when they were beaten at Wembley.	Liverpool failed again in when they were beaten at Wembley.	873487	1471958318135	1471958318302	a	65
1789	18271	Liverpool failed again in when they were beaten at Wembley.	Liverpool failed again in when they were beaten at Wembley.	873490	1471958318457	1471958318555	i	73
1789	18271	Liverpool failed again in when they were beaten at Wembley.	Liverpool failed again in when they were beaten at Wembley.	873493	1471958318624	1471958318755	l	76
1789	18271	Liverpool failed again in when they were beaten at Wembley.	Liverpool failed again in when they were beaten at Wembley.	873551	1471958318707	1471958318837	e	69
1789	18271	Liverpool failed again in when they were beaten at Wembley.	Liverpool failed again in when they were beaten at Wembley.	873554	1471958318905	1471958319043	d	68
1789	18271	Liverpool failed again in when they were beaten at Wembley.	Liverpool failed again in when they were beaten at Wembley.	873556	1471958319030	1471958319143	 	32
1789	18271	Liverpool failed again in when they were beaten at Wembley.	Liverpool failed again in when they were beaten at Wembley.	873558	1471958319868	1471958320028	a	65
1789	18271	Liverpool failed again in when they were beaten at Wembley.	Liverpool failed again in when they were beaten at Wembley.	873560	1471958320034	1471958320136	g	71
1789	18271	Liverpool failed again in when they were beaten at Wembley.	Liverpool failed again in when they were beaten at Wembley.	873636	1471958320098	1471958320254	a	65
1789	18271	Liverpool failed again in when they were beaten at Wembley.	Liverpool failed again in when they were beaten at Wembley.	873638	1471958320336	1471958320526	n	78
1789	18271	Liverpool failed again in when they were beaten at Wembley.	Liverpool failed again in when they were beaten at Wembley.	873643	1471958320771	1471958320948	BKSP	8
1789	18271	Liverpool failed again in when they were beaten at Wembley.	Liverpool failed again in when they were beaten at Wembley.	873651	1471958321301	1471958321440	i	73
1789	18271	Liverpool failed again in when they were beaten at Wembley.	Liverpool failed again in when they were beaten at Wembley.	873656	1471958321498	1471958321585	n	78
1789	18271	Liverpool failed again in when they were beaten at Wembley.	Liverpool failed again in when they were beaten at Wembley.	873663	1471958321581	1471958321664	 	32
1789	18271	Liverpool failed again in when they were beaten at Wembley.	Liverpool failed again in when they were beaten at Wembley.	873669	1471958321719	1471958321933	i	73
1789	18271	Liverpool failed again in when they were beaten at Wembley.	Liverpool failed again in when they were beaten at Wembley.	873789	1471958321894	1471958322056	n	78
1789	18271	Liverpool failed again in when they were beaten at Wembley.	Liverpool failed again in when they were beaten at Wembley.	873792	1471958322065	1471958322177	 	32
1789	18271	Liverpool failed again in when they were beaten at Wembley.	Liverpool failed again in when they were beaten at Wembley.	873796	1471958324052	1471958324189	w	87
1789	18271	Liverpool failed again in when they were beaten at Wembley.	Liverpool failed again in when they were beaten at Wembley.	873801	1471958324180	1471958324294	h	72
1789	18271	Liverpool failed again in when they were beaten at Wembley.	Liverpool failed again in when they were beaten at Wembley.	873804	1471958324287	1471958324428	e	69
1789	18271	Liverpool failed again in when they were beaten at Wembley.	Liverpool failed again in when they were beaten at Wembley.	873837	1471958324366	1471958324487	n	78
1789	18271	Liverpool failed again in when they were beaten at Wembley.	Liverpool failed again in when they were beaten at Wembley.	873839	1471958324479	1471958324598	 	32
1789	18271	Liverpool failed again in when they were beaten at Wembley.	Liverpool failed again in when they were beaten at Wembley.	873842	1471958324908	1471958325003	t	84
1789	18271	Liverpool failed again in when they were beaten at Wembley.	Liverpool failed again in when they were beaten at Wembley.	873846	1471958325080	1471958325188	h	72
1789	18271	Liverpool failed again in when they were beaten at Wembley.	Liverpool failed again in when they were beaten at Wembley.	873847	1471958325116	1471958325273	e	69
1789	18271	Liverpool failed again in when they were beaten at Wembley.	Liverpool failed again in when they were beaten at Wembley.	873849	1471958325281	1471958325393	y	89
1789	18271	Liverpool failed again in when they were beaten at Wembley.	Liverpool failed again in when they were beaten at Wembley.	873869	1471958325429	1471958325552	 	32
1789	18271	Liverpool failed again in when they were beaten at Wembley.	Liverpool failed again in when they were beaten at Wembley.	873871	1471958325562	1471958325702	w	87
1789	18271	Liverpool failed again in when they were beaten at Wembley.	Liverpool failed again in when they were beaten at Wembley.	873875	1471958325759	1471958325890	e	69
1789	18271	Liverpool failed again in when they were beaten at Wembley.	Liverpool failed again in when they were beaten at Wembley.	873879	1471958325955	1471958326089	r	82
1789	18271	Liverpool failed again in when they were beaten at Wembley.	Liverpool failed again in when they were beaten at Wembley.	873884	1471958326148	1471958326302	e	69
1789	18271	Liverpool failed again in when they were beaten at Wembley.	Liverpool failed again in when they were beaten at Wembley.	873917	1471958326273	1471958326391	 	32
1789	18271	Liverpool failed again in when they were beaten at Wembley.	Liverpool failed again in when they were beaten at Wembley.	873920	1471958326759	1471958326861	b	66
1789	18271	Liverpool failed again in when they were beaten at Wembley.	Liverpool failed again in when they were beaten at Wembley.	873923	1471958326865	1471958327022	e	69
1789	18271	Liverpool failed again in when they were beaten at Wembley.	Liverpool failed again in when they were beaten at Wembley.	873925	1471958327061	1471958327236	a	65
1789	18271	Liverpool failed again in when they were beaten at Wembley.	Liverpool failed again in when they were beaten at Wembley.	873928	1471958327172	1471958327287	t	84
1789	18271	Liverpool failed again in when they were beaten at Wembley.	Liverpool failed again in when they were beaten at Wembley.	873985	1471958327282	1471958327432	e	69
1789	18271	Liverpool failed again in when they were beaten at Wembley.	Liverpool failed again in when they were beaten at Wembley.	873991	1471958327455	1471958327624	n	78
1789	18271	Liverpool failed again in when they were beaten at Wembley.	Liverpool failed again in when they were beaten at Wembley.	873998	1471958327645	1471958327748	 	32
1789	18271	Liverpool failed again in when they were beaten at Wembley.	Liverpool failed again in when they were beaten at Wembley.	874006	1471958328318	1471958328505	a	65
1789	18271	Liverpool failed again in when they were beaten at Wembley.	Liverpool failed again in when they were beaten at Wembley.	874009	1471958328524	1471958328645	t	84
1789	18271	Liverpool failed again in when they were beaten at Wembley.	Liverpool failed again in when they were beaten at Wembley.	874013	1471958328692	1471958328805	 	32
1789	18271	Liverpool failed again in when they were beaten at Wembley.	Liverpool failed again in when they were beaten at Wembley.	874221	1471958328818	1471958328996	CAPS_LOCK	20
1789	18271	Liverpool failed again in when they were beaten at Wembley.	Liverpool failed again in when they were beaten at Wembley.	874222	1471958329284	1471958329639	CAPS_LOCK	20
1789	18271	Liverpool failed again in when they were beaten at Wembley.	Liverpool failed again in when they were beaten at Wembley.	874223	1471958329790	1471958330010	CAPS_LOCK	20
1789	18271	Liverpool failed again in when they were beaten at Wembley.	Liverpool failed again in when they were beaten at Wembley.	874224	1471958329952	1471958330129	W	87
1789	18271	Liverpool failed again in when they were beaten at Wembley.	Liverpool failed again in when they were beaten at Wembley.	874225	1471958330112	1471958330334	CAPS_LOCK	20
1789	18271	Liverpool failed again in when they were beaten at Wembley.	Liverpool failed again in when they were beaten at Wembley.	874227	1471958330260	1471958330450	e	69
1789	18271	Liverpool failed again in when they were beaten at Wembley.	Liverpool failed again in when they were beaten at Wembley.	874229	1471958330473	1471958330623	n	78
1789	18271	Liverpool failed again in when they were beaten at Wembley.	Liverpool failed again in when they were beaten at Wembley.	874232	1471958331772	1471958331855	m	77
1789	18271	Liverpool failed again in when they were beaten at Wembley.	Liverpool failed again in when they were beaten at Wembley.	874235	1471958332311	1471958332396	BKSP	8
1789	18271	Liverpool failed again in when they were beaten at Wembley.	Liverpool failed again in when they were beaten at Wembley.	874238	1471958332460	1471958332573	BKSP	8
1789	18271	Liverpool failed again in when they were beaten at Wembley.	Liverpool failed again in when they were beaten at Wembley.	874241	1471958333193	1471958333333	m	77
1789	18271	Liverpool failed again in when they were beaten at Wembley.	Liverpool failed again in when they were beaten at Wembley.	874273	1471958333413	1471958333490	b	66
1789	18271	Liverpool failed again in when they were beaten at Wembley.	Liverpool failed again in when they were beaten at Wembley.	874275	1471958333640	1471958333808	l	76
1789	18271	Liverpool failed again in when they were beaten at Wembley.	Liverpool failed again in when they were beaten at Wembley.	874277	1471958333853	1471958333983	e	69
1789	18271	Liverpool failed again in when they were beaten at Wembley.	Liverpool failed again in when they were beaten at Wembley.	874279	1471958333948	1471958334101	y	89
1789	18271	Liverpool failed again in when they were beaten at Wembley.	Liverpool failed again in when they were beaten at Wembley.	874281	1471958334622	1471958334805	.	190
1789	18299	Nothing new from Mom.	Nothing new from Mom.	874576	1471958340505	1471958340603	CAPS_LOCK	20
1789	18299	Nothing new from Mom.	Nothing new from Mom.	874579	1471958340597	1471958340722	N	78
1789	18299	Nothing new from Mom.	Nothing new from Mom.	874583	1471958340680	1471958340841	CAPS_LOCK	20
1789	18299	Nothing new from Mom.	Nothing new from Mom.	874586	1471958340767	1471958340869	o	79
1789	18299	Nothing new from Mom.	Nothing new from Mom.	874589	1471958340997	1471958341109	t	84
1789	18299	Nothing new from Mom.	Nothing new from Mom.	874592	1471958341182	1471958341300	h	72
1789	18299	Nothing new from Mom.	Nothing new from Mom.	874596	1471958341312	1471958341483	i	73
1789	18299	Nothing new from Mom.	Nothing new from Mom.	874624	1471958341431	1471958341575	n	78
1789	18299	Nothing new from Mom.	Nothing new from Mom.	874626	1471958341619	1471958341727	g	71
1789	18299	Nothing new from Mom.	Nothing new from Mom.	874628	1471958341764	1471958341899	 	32
1789	18299	Nothing new from Mom.	Nothing new from Mom.	874631	1471958342072	1471958342262	n	78
1789	18299	Nothing new from Mom.	Nothing new from Mom.	874633	1471958342210	1471958342394	e	69
1789	18299	Nothing new from Mom.	Nothing new from Mom.	874635	1471958342480	1471958342617	 	87
1789	18299	Nothing new from Mom.	Nothing new from Mom.	874712	1471958343123	1471958343335	d	68
1789	18299	Nothing new from Mom.	Nothing new from Mom.	874714	1471958343329	1471958343483	r	82
1789	18299	Nothing new from Mom.	Nothing new from Mom.	874717	1471958343593	1471958343702	BKSP	8
1789	18299	Nothing new from Mom.	Nothing new from Mom.	874721	1471958343745	1471958343850	BKSP	8
1789	18299	Nothing new from Mom.	Nothing new from Mom.	874727	1471958343781	1471958343981	f	70
1789	18299	Nothing new from Mom.	Nothing new from Mom.	874731	1471958343905	1471958344069	r	82
1789	18299	Nothing new from Mom.	Nothing new from Mom.	874770	1471958344030	1471958344208	o	79
1789	18299	Nothing new from Mom.	Nothing new from Mom.	874772	1471958344163	1471958344325	m	77
1789	18299	Nothing new from Mom.	Nothing new from Mom.	874774	1471958344365	1471958344496	 	32
1789	18299	Nothing new from Mom.	Nothing new from Mom.	874776	1471958344788	1471958344941	CAPS_LOCK	20
1789	18299	Nothing new from Mom.	Nothing new from Mom.	874781	1471958345046	1471958345126	M	77
1789	18299	Nothing new from Mom.	Nothing new from Mom.	874789	1471958345091	1471958345283	CAPS_LOCK	20
1789	18299	Nothing new from Mom.	Nothing new from Mom.	874796	1471958345180	1471958345360	o	79
1789	18299	Nothing new from Mom.	Nothing new from Mom.	874823	1471958345338	1471958345452	m	77
1789	18299	Nothing new from Mom.	Nothing new from Mom.	874825	1471958345601	1471958345764	.	190
1789	18311	I won't be home until 6.	I won't be home until 6.	874953	1471958349833	1471958349938	CAPS_LOCK	20
1789	18311	I won't be home until 6.	I won't be home until 6.	874957	1471958349967	1471958350085	I	73
1789	18311	I won't be home until 6.	I won't be home until 6.	874962	1471958350023	1471958350190	CAPS_LOCK	20
1789	18311	I won't be home until 6.	I won't be home until 6.	874964	1471958350130	1471958350240	 	32
1789	18311	I won't be home until 6.	I won't be home until 6.	874965	1471958350272	1471958350435	w	87
1789	18311	I won't be home until 6.	I won't be home until 6.	874966	1471958350349	1471958350518	o	79
1789	18311	I won't be home until 6.	I won't be home until 6.	875105	1471958350497	1471958350628	n	78
1789	18311	I won't be home until 6.	I won't be home until 6.	875110	1471958351812	1471958352032	;	186
1789	18311	I won't be home until 6.	I won't be home until 6.	875116	1471958352668	1471958352765	BKSP	8
1789	18311	I won't be home until 6.	I won't be home until 6.	875120	1471958352842	1471958352948	'	222
1789	18311	I won't be home until 6.	I won't be home until 6.	875121	1471958353153	1471958353265	t	84
1789	18311	I won't be home until 6.	I won't be home until 6.	875123	1471958353308	1471958353453	 	32
1789	18311	I won't be home until 6.	I won't be home until 6.	875166	1471958353404	1471958353568	b	66
1789	18311	I won't be home until 6.	I won't be home until 6.	875168	1471958353506	1471958353674	e	69
1789	18311	I won't be home until 6.	I won't be home until 6.	875170	1471958353598	1471958353701	 	32
1789	18311	I won't be home until 6.	I won't be home until 6.	875172	1471958354109	1471958354222	h	72
1789	18311	I won't be home until 6.	I won't be home until 6.	875174	1471958354288	1471958354452	o	79
1789	18311	I won't be home until 6.	I won't be home until 6.	875221	1471958354407	1471958354537	m	77
1789	18311	I won't be home until 6.	I won't be home until 6.	875224	1471958354457	1471958354607	e	69
1789	18311	I won't be home until 6.	I won't be home until 6.	875229	1471958354597	1471958354705	 	32
1789	18311	I won't be home until 6.	I won't be home until 6.	875233	1471958354809	1471958354919	u	85
1789	18311	I won't be home until 6.	I won't be home until 6.	875237	1471958355067	1471958355202	n	78
1789	18311	I won't be home until 6.	I won't be home until 6.	875240	1471958355284	1471958355365	t	84
1789	18311	I won't be home until 6.	I won't be home until 6.	875361	1471958355494	1471958355619	i	73
1789	18311	I won't be home until 6.	I won't be home until 6.	875363	1471958355707	1471958355874	l	76
1789	18311	I won't be home until 6.	I won't be home until 6.	875365	1471958355877	1471958355983	 	32
1789	18311	I won't be home until 6.	I won't be home until 6.	875367	1471958356345	1471958356550	5	101
1789	18311	I won't be home until 6.	I won't be home until 6.	875368	1471958357084	1471958357193	BKSP	8
1789	18311	I won't be home until 6.	I won't be home until 6.	875369	1471958357533	1471958357623	6	102
1789	18311	I won't be home until 6.	I won't be home until 6.	875415	1471958357893	1471958357977	.	190
1789	18323	I'll just have her call Tracy.	I'll just have her call Tracy.	875612	1471958361227	1471958361393	CAPS_LOCK	20
1789	18323	I'll just have her call Tracy.	I'll just have her call Tracy.	875613	1471958361388	1471958361469	I	73
1789	18323	I'll just have her call Tracy.	I'll just have her call Tracy.	875614	1471958361490	1471958361598	CAPS_LOCK	20
1789	18323	I'll just have her call Tracy.	I'll just have her call Tracy.	875616	1471958361705	1471958361816	'	222
1789	18323	I'll just have her call Tracy.	I'll just have her call Tracy.	875620	1471958362088	1471958362186	l	76
1789	18323	I'll just have her call Tracy.	I'll just have her call Tracy.	875622	1471958362246	1471958362359	l	76
1789	18323	I'll just have her call Tracy.	I'll just have her call Tracy.	875627	1471958362371	1471958362489	 	32
1789	18323	I'll just have her call Tracy.	I'll just have her call Tracy.	875679	1471958363059	1471958363209	j	74
1789	18323	I'll just have her call Tracy.	I'll just have her call Tracy.	875683	1471958363174	1471958363318	s	83
1789	18323	I'll just have her call Tracy.	I'll just have her call Tracy.	875688	1471958363204	1471958363325	u	85
1789	18323	I'll just have her call Tracy.	I'll just have her call Tracy.	875691	1471958363376	1471958363488	t	84
1789	18323	I'll just have her call Tracy.	I'll just have her call Tracy.	875695	1471958363541	1471958363654	 	32
1789	18323	I'll just have her call Tracy.	I'll just have her call Tracy.	875725	1471958363981	1471958364100	h	72
1789	18323	I'll just have her call Tracy.	I'll just have her call Tracy.	875727	1471958364081	1471958364259	a	65
1789	18323	I'll just have her call Tracy.	I'll just have her call Tracy.	875729	1471958364214	1471958364347	v	86
1789	18323	I'll just have her call Tracy.	I'll just have her call Tracy.	875731	1471958364365	1471958364499	e	69
1789	18323	I'll just have her call Tracy.	I'll just have her call Tracy.	875851	1471958364441	1471958364574	 	32
1789	18323	I'll just have her call Tracy.	I'll just have her call Tracy.	875853	1471958364804	1471958365497	BKSP	8
1789	18323	I'll just have her call Tracy.	I'll just have her call Tracy.	875856	1471958365567	1471958365657	BKSP	8
1789	18323	I'll just have her call Tracy.	I'll just have her call Tracy.	875857	1471958365714	1471958365811	BKSP	8
1789	18323	I'll just have her call Tracy.	I'll just have her call Tracy.	875858	1471958366262	1471958366367	u	85
1789	18323	I'll just have her call Tracy.	I'll just have her call Tracy.	875859	1471958366312	1471958366471	s	83
1789	18323	I'll just have her call Tracy.	I'll just have her call Tracy.	875861	1471958366451	1471958366541	t	84
1789	18323	I'll just have her call Tracy.	I'll just have her call Tracy.	875863	1471958366575	1471958366701	 	32
1789	18323	I'll just have her call Tracy.	I'll just have her call Tracy.	875864	1471958366707	1471958366825	h	72
1789	18323	I'll just have her call Tracy.	I'll just have her call Tracy.	875874	1471958366839	1471958366982	a	65
1789	18323	I'll just have her call Tracy.	I'll just have her call Tracy.	875877	1471958366931	1471958367048	v	86
1789	18323	I'll just have her call Tracy.	I'll just have her call Tracy.	875881	1471958367089	1471958367205	 	69
1789	18323	I'll just have her call Tracy.	I'll just have her call Tracy.	875885	1471958367264	1471958367402	h	72
1789	18323	I'll just have her call Tracy.	I'll just have her call Tracy.	875946	1471958367315	1471958367454	e	69
1789	18323	I'll just have her call Tracy.	I'll just have her call Tracy.	875955	1471958367519	1471958367626	r	82
1789	18323	I'll just have her call Tracy.	I'll just have her call Tracy.	875961	1471958367697	1471958367814	 	32
1789	18323	I'll just have her call Tracy.	I'll just have her call Tracy.	875968	1471958368264	1471958368355	c	67
1789	18323	I'll just have her call Tracy.	I'll just have her call Tracy.	875975	1471958368347	1471958368495	a	65
1789	18323	I'll just have her call Tracy.	I'll just have her call Tracy.	875978	1471958368670	1471958368744	l	76
1789	18323	I'll just have her call Tracy.	I'll just have her call Tracy.	876024	1471958368807	1471958368930	l	76
1789	18323	I'll just have her call Tracy.	I'll just have her call Tracy.	876025	1471958368974	1471958369082	 	32
1789	18323	I'll just have her call Tracy.	I'll just have her call Tracy.	876027	1471958369153	1471958369297	CAPS_LOCK	20
1789	18323	I'll just have her call Tracy.	I'll just have her call Tracy.	876029	1471958369433	1471958369567	T	84
1789	18323	I'll just have her call Tracy.	I'll just have her call Tracy.	876031	1471958369555	1471958369727	CAPS_LOCK	20
1789	18323	I'll just have her call Tracy.	I'll just have her call Tracy.	876036	1471958369679	1471958369773	r	82
1789	18323	I'll just have her call Tracy.	I'll just have her call Tracy.	876041	1471958369807	1471958369998	a	65
1789	18323	I'll just have her call Tracy.	I'll just have her call Tracy.	876178	1471958369900	1471958370007	c	67
1789	18323	I'll just have her call Tracy.	I'll just have her call Tracy.	876180	1471958370223	1471958370336	y	89
1789	18323	I'll just have her call Tracy.	I'll just have her call Tracy.	876183	1471958371269	1471958371370	,	188
1789	18323	I'll just have her call Tracy.	I'll just have her call Tracy.	876190	1471958372022	1471958372220	.	190
1789	18323	I'll just have her call Tracy.	I'll just have her call Tracy.	876194	1471958372445	1471958372562	BKSP	8
1789	18323	I'll just have her call Tracy.	I'll just have her call Tracy.	876200	1471958372598	1471958372698	BKSP	8
1789	18323	I'll just have her call Tracy.	I'll just have her call Tracy.	876205	1471958372775	1471958372912	.	190
1789	18339	He is recovering from a left knee injury.	He is recovering from a left knee injury.	876457	1471958376996	1471958377118	CAPS_LOCK	20
1789	18339	He is recovering from a left knee injury.	He is recovering from a left knee injury.	876459	1471958377125	1471958377223	H	72
1789	18339	He is recovering from a left knee injury.	He is recovering from a left knee injury.	876461	1471958377343	1471958377450	E	69
1789	18339	He is recovering from a left knee injury.	He is recovering from a left knee injury.	876465	1471958377783	1471958377933	BKSP	8
1789	18339	He is recovering from a left knee injury.	He is recovering from a left knee injury.	876469	1471958377946	1471958378113	CAPS_LOCK	20
1789	18339	He is recovering from a left knee injury.	He is recovering from a left knee injury.	876472	1471958378163	1471958378319	e	69
1789	18339	He is recovering from a left knee injury.	He is recovering from a left knee injury.	876478	1471958378278	1471958378385	 	32
1789	18339	He is recovering from a left knee injury.	He is recovering from a left knee injury.	876483	1471958378739	1471958378851	i	73
1789	18339	He is recovering from a left knee injury.	He is recovering from a left knee injury.	876558	1471958378790	1471958378931	s	83
1789	18339	He is recovering from a left knee injury.	He is recovering from a left knee injury.	876561	1471958378868	1471958378981	 	32
1789	18339	He is recovering from a left knee injury.	He is recovering from a left knee injury.	876563	1471958379556	1471958379690	r	82
1789	18339	He is recovering from a left knee injury.	He is recovering from a left knee injury.	876566	1471958379734	1471958379898	e	69
1789	18339	He is recovering from a left knee injury.	He is recovering from a left knee injury.	876569	1471958379909	1471958380003	c	67
1789	18339	He is recovering from a left knee injury.	He is recovering from a left knee injury.	876572	1471958380299	1471958380421	o	79
1789	18339	He is recovering from a left knee injury.	He is recovering from a left knee injury.	876630	1471958380671	1471958380766	v	86
1789	18339	He is recovering from a left knee injury.	He is recovering from a left knee injury.	876632	1471958381039	1471958381153	i	73
1789	18339	He is recovering from a left knee injury.	He is recovering from a left knee injury.	876636	1471958381200	1471958381339	r	82
1789	18339	He is recovering from a left knee injury.	He is recovering from a left knee injury.	876640	1471958381401	1471958381514	i	73
1789	18339	He is recovering from a left knee injury.	He is recovering from a left knee injury.	876645	1471958381569	1471958381663	n	78
1789	18339	He is recovering from a left knee injury.	He is recovering from a left knee injury.	876854	1471958381729	1471958381836	g	71
1789	18339	He is recovering from a left knee injury.	He is recovering from a left knee injury.	876857	1471958382998	1471958383085	ARW_LEFT	37
1789	18339	He is recovering from a left knee injury.	He is recovering from a left knee injury.	876861	1471958383168	1471958383265	ARW_LEFT	37
1789	18339	He is recovering from a left knee injury.	He is recovering from a left knee injury.	876863	1471958383340	1471958383433	ARW_LEFT	37
1789	18339	He is recovering from a left knee injury.	He is recovering from a left knee injury.	876865	1471958383515	1471958383602	ARW_LEFT	37
1789	18339	He is recovering from a left knee injury.	He is recovering from a left knee injury.	876871	1471958383725	1471958383815	ARW_LEFT	37
1789	18339	He is recovering from a left knee injury.	He is recovering from a left knee injury.	876878	1471958384323	1471958384497	ARW_RIGHT	39
1789	18339	He is recovering from a left knee injury.	He is recovering from a left knee injury.	876886	1471958384521	1471958384620	e	69
1789	18339	He is recovering from a left knee injury.	He is recovering from a left knee injury.	876892	1471958385346	1471958385433	BKSP	8
1789	18339	He is recovering from a left knee injury.	He is recovering from a left knee injury.	876898	1471958385472	1471958385585	BKSP	8
1789	18339	He is recovering from a left knee injury.	He is recovering from a left knee injury.	876900	1471958385733	1471958385883	e	69
1789	18339	He is recovering from a left knee injury.	He is recovering from a left knee injury.	876904	1471958386002	1471958386629	ARW_RIGHT	39
1789	18339	He is recovering from a left knee injury.	He is recovering from a left knee injury.	876905	1471958387011	1471958387116	 	32
1789	18339	He is recovering from a left knee injury.	He is recovering from a left knee injury.	876906	1471958387238	1471958387476	f	70
1789	18339	He is recovering from a left knee injury.	He is recovering from a left knee injury.	876908	1471958387424	1471958387585	r	82
1789	18339	He is recovering from a left knee injury.	He is recovering from a left knee injury.	876911	1471958387464	1471958387636	o	79
1789	18339	He is recovering from a left knee injury.	He is recovering from a left knee injury.	876915	1471958387588	1471958387751	m	77
1789	18339	He is recovering from a left knee injury.	He is recovering from a left knee injury.	876921	1471958387788	1471958387903	 	32
1789	18339	He is recovering from a left knee injury.	He is recovering from a left knee injury.	876926	1471958387843	1471958388053	a	65
1789	18339	He is recovering from a left knee injury.	He is recovering from a left knee injury.	876928	1471958387968	1471958388085	 	32
1789	18339	He is recovering from a left knee injury.	He is recovering from a left knee injury.	876931	1471958388103	1471958388233	k	75
1789	18339	He is recovering from a left knee injury.	He is recovering from a left knee injury.	877011	1471958388204	1471958388394	e	69
1789	18339	He is recovering from a left knee injury.	He is recovering from a left knee injury.	877013	1471958388702	1471958388821	BKSP	8
1789	18339	He is recovering from a left knee injury.	He is recovering from a left knee injury.	877016	1471958388858	1471958388971	BKSP	8
1789	18339	He is recovering from a left knee injury.	He is recovering from a left knee injury.	877018	1471958389054	1471958389175	l	76
1789	18339	He is recovering from a left knee injury.	He is recovering from a left knee injury.	877020	1471958389128	1471958389267	e	69
1789	18339	He is recovering from a left knee injury.	He is recovering from a left knee injury.	877021	1471958389365	1471958389504	f	70
1789	18339	He is recovering from a left knee injury.	He is recovering from a left knee injury.	877023	1471958389440	1471958389580	t	84
1789	18339	He is recovering from a left knee injury.	He is recovering from a left knee injury.	877024	1471958389603	1471958389715	 	32
1789	18339	He is recovering from a left knee injury.	He is recovering from a left knee injury.	877083	1471958390247	1471958390395	k	75
1789	18339	He is recovering from a left knee injury.	He is recovering from a left knee injury.	877089	1471958390427	1471958390538	n	78
1789	18339	He is recovering from a left knee injury.	He is recovering from a left knee injury.	877093	1471958390594	1471958390647	e	69
1789	18339	He is recovering from a left knee injury.	He is recovering from a left knee injury.	877097	1471958390735	1471958390885	e	69
1789	18339	He is recovering from a left knee injury.	He is recovering from a left knee injury.	877101	1471958391010	1471958391172	 	32
1789	18339	He is recovering from a left knee injury.	He is recovering from a left knee injury.	877169	1471958391972	1471958392153	i	73
1789	18339	He is recovering from a left knee injury.	He is recovering from a left knee injury.	877171	1471958392122	1471958392264	n	78
1789	18339	He is recovering from a left knee injury.	He is recovering from a left knee injury.	877177	1471958392637	1471958392765	j	74
1789	18339	He is recovering from a left knee injury.	He is recovering from a left knee injury.	877180	1471958392774	1471958392896	u	85
1789	18339	He is recovering from a left knee injury.	He is recovering from a left knee injury.	877184	1471958393000	1471958393107	r	82
1789	18339	He is recovering from a left knee injury.	He is recovering from a left knee injury.	877231	1471958393180	1471958393296	y	89
1789	18339	He is recovering from a left knee injury.	He is recovering from a left knee injury.	877234	1471958393746	1471958393859	.	190
1789	18359	We talked quietly while everybody gathered.	We talked quietly while everybody gathered.	877435	1471958397037	1471958397275	CAPS_LOCK	20
1789	18359	We talked quietly while everybody gathered.	We talked quietly while everybody gathered.	877438	1471958397221	1471958397399	W	87
1789	18359	We talked quietly while everybody gathered.	We talked quietly while everybody gathered.	877442	1471958397368	1471958397600	CAPS_LOCK	20
1789	18359	We talked quietly while everybody gathered.	We talked quietly while everybody gathered.	877444	1471958397548	1471958397698	e	69
1789	18359	We talked quietly while everybody gathered.	We talked quietly while everybody gathered.	877446	1471958397653	1471958397770	 	32
1789	18359	We talked quietly while everybody gathered.	We talked quietly while everybody gathered.	877447	1471958398053	1471958398161	t	84
1789	18359	We talked quietly while everybody gathered.	We talked quietly while everybody gathered.	877448	1471958398174	1471958398361	a	65
1789	18359	We talked quietly while everybody gathered.	We talked quietly while everybody gathered.	877493	1471958398495	1471958398614	l	76
1789	18359	We talked quietly while everybody gathered.	We talked quietly while everybody gathered.	877495	1471958398643	1471958398792	e	69
1789	18359	We talked quietly while everybody gathered.	We talked quietly while everybody gathered.	877497	1471958399065	1471958399212	BKSP	8
1789	18359	We talked quietly while everybody gathered.	We talked quietly while everybody gathered.	877501	1471958399317	1471958399434	k	75
1789	18359	We talked quietly while everybody gathered.	We talked quietly while everybody gathered.	877504	1471958399393	1471958399537	e	69
1789	18359	We talked quietly while everybody gathered.	We talked quietly while everybody gathered.	877506	1471958399597	1471958399745	d	68
1789	18359	We talked quietly while everybody gathered.	We talked quietly while everybody gathered.	877580	1471958399674	1471958399802	 	32
1789	18359	We talked quietly while everybody gathered.	We talked quietly while everybody gathered.	877581	1471958400614	1471958400779	q	81
1789	18359	We talked quietly while everybody gathered.	We talked quietly while everybody gathered.	877583	1471958400711	1471958400806	u	85
1789	18359	We talked quietly while everybody gathered.	We talked quietly while everybody gathered.	877584	1471958400785	1471958400923	i	73
1789	18359	We talked quietly while everybody gathered.	We talked quietly while everybody gathered.	877585	1471958401022	1471958401121	t	84
1789	18359	We talked quietly while everybody gathered.	We talked quietly while everybody gathered.	877586	1471958401146	1471958401314	e	69
1789	18359	We talked quietly while everybody gathered.	We talked quietly while everybody gathered.	878017	1471958401359	1471958401494	l	76
1789	18359	We talked quietly while everybody gathered.	We talked quietly while everybody gathered.	878021	1471958401583	1471958401709	y	89
1789	18359	We talked quietly while everybody gathered.	We talked quietly while everybody gathered.	878025	1471958401778	1471958401868	 	32
1789	18359	We talked quietly while everybody gathered.	We talked quietly while everybody gathered.	878027	1471958402245	1471958402378	BKSP	8
1789	18359	We talked quietly while everybody gathered.	We talked quietly while everybody gathered.	878031	1471958409600	1471958409674	BKSP	8
1789	18359	We talked quietly while everybody gathered.	We talked quietly while everybody gathered.	878033	1471958409737	1471958409859	BKSP	8
1789	18359	We talked quietly while everybody gathered.	We talked quietly while everybody gathered.	878037	1471958409907	1471958409964	BKSP	8
1789	18359	We talked quietly while everybody gathered.	We talked quietly while everybody gathered.	878039	1471958410026	1471958410115	BKSP	8
1789	18359	We talked quietly while everybody gathered.	We talked quietly while everybody gathered.	878049	1471958410809	1471958410959	e	69
1789	18359	We talked quietly while everybody gathered.	We talked quietly while everybody gathered.	878104	1471958410906	1471958410982	t	84
1789	18359	We talked quietly while everybody gathered.	We talked quietly while everybody gathered.	878109	1471958411196	1471958411344	l	76
1789	18359	We talked quietly while everybody gathered.	We talked quietly while everybody gathered.	878113	1471958411408	1471958411511	y	89
1789	18359	We talked quietly while everybody gathered.	We talked quietly while everybody gathered.	878116	1471958411571	1471958411689	 	32
1789	18359	We talked quietly while everybody gathered.	We talked quietly while everybody gathered.	878120	1471958412099	1471958412281	w	87
1789	18359	We talked quietly while everybody gathered.	We talked quietly while everybody gathered.	878180	1471958412208	1471958412308	h	72
1789	18359	We talked quietly while everybody gathered.	We talked quietly while everybody gathered.	878182	1471958412360	1471958412482	i	73
1789	18359	We talked quietly while everybody gathered.	We talked quietly while everybody gathered.	878184	1471958412555	1471958412664	l	76
1789	18359	We talked quietly while everybody gathered.	We talked quietly while everybody gathered.	878186	1471958412605	1471958412751	e	69
1789	18359	We talked quietly while everybody gathered.	We talked quietly while everybody gathered.	878189	1471958412708	1471958412815	 	32
1789	18359	We talked quietly while everybody gathered.	We talked quietly while everybody gathered.	878197	1471958413378	1471958413509	e	69
1789	18359	We talked quietly while everybody gathered.	We talked quietly while everybody gathered.	878238	1471958413501	1471958413618	v	86
1789	18359	We talked quietly while everybody gathered.	We talked quietly while everybody gathered.	878240	1471958413581	1471958413723	e	69
1789	18359	We talked quietly while everybody gathered.	We talked quietly while everybody gathered.	878243	1471958413743	1471958413821	r	82
1789	18359	We talked quietly while everybody gathered.	We talked quietly while everybody gathered.	878246	1471958414045	1471958414163	y	89
1789	18359	We talked quietly while everybody gathered.	We talked quietly while everybody gathered.	878252	1471958414408	1471958414505	b	66
1789	18359	We talked quietly while everybody gathered.	We talked quietly while everybody gathered.	878255	1471958414580	1471958414726	o	79
1789	18359	We talked quietly while everybody gathered.	We talked quietly while everybody gathered.	878316	1471958414722	1471958414908	d	68
1789	18359	We talked quietly while everybody gathered.	We talked quietly while everybody gathered.	878318	1471958414871	1471958415110	y	89
1789	18359	We talked quietly while everybody gathered.	We talked quietly while everybody gathered.	878321	1471958415145	1471958415268	 	32
1789	18359	We talked quietly while everybody gathered.	We talked quietly while everybody gathered.	878324	1471958416344	1471958416447	g	71
1789	18359	We talked quietly while everybody gathered.	We talked quietly while everybody gathered.	878328	1471958416440	1471958416580	a	65
1789	18359	We talked quietly while everybody gathered.	We talked quietly while everybody gathered.	878363	1471958416532	1471958416621	t	84
1789	18359	We talked quietly while everybody gathered.	We talked quietly while everybody gathered.	878366	1471958416699	1471958416822	h	72
1789	18359	We talked quietly while everybody gathered.	We talked quietly while everybody gathered.	878369	1471958416801	1471958416967	e	69
1789	18359	We talked quietly while everybody gathered.	We talked quietly while everybody gathered.	878373	1471958416961	1471958417055	r	82
1789	18359	We talked quietly while everybody gathered.	We talked quietly while everybody gathered.	878378	1471958417049	1471958417184	e	69
1789	18359	We talked quietly while everybody gathered.	We talked quietly while everybody gathered.	878382	1471958417489	1471958417653	,	188
1789	18359	We talked quietly while everybody gathered.	We talked quietly while everybody gathered.	878466	1471958418076	1471958418216	BKSP	8
1789	18359	We talked quietly while everybody gathered.	We talked quietly while everybody gathered.	878470	1471958418858	1471958418998	d	68
1789	18359	We talked quietly while everybody gathered.	We talked quietly while everybody gathered.	878474	1471958419123	1471958419228	.	190
1789	18392	It was possible to a large extent to agree on some kind of approach.	It was possible to a large extent to agree on some kind of approach. 	878668	1471958423031	1471958423171	CAPS_LOCK	20
1789	18392	It was possible to a large extent to agree on some kind of approach.	It was possible to a large extent to agree on some kind of approach. 	878672	1471958423113	1471958423247	I	73
1789	18392	It was possible to a large extent to agree on some kind of approach.	It was possible to a large extent to agree on some kind of approach. 	878678	1471958423269	1471958423438	CAPS_LOCK	20
1789	18392	It was possible to a large extent to agree on some kind of approach.	It was possible to a large extent to agree on some kind of approach. 	878684	1471958423432	1471958423562	t	84
1789	18392	It was possible to a large extent to agree on some kind of approach.	It was possible to a large extent to agree on some kind of approach. 	878692	1471958423586	1471958423714	 	32
1789	18392	It was possible to a large extent to agree on some kind of approach.	It was possible to a large extent to agree on some kind of approach. 	878696	1471958423670	1471958423809	w	87
1789	18392	It was possible to a large extent to agree on some kind of approach.	It was possible to a large extent to agree on some kind of approach. 	878700	1471958423886	1471958424094	a	65
1789	18392	It was possible to a large extent to agree on some kind of approach.	It was possible to a large extent to agree on some kind of approach. 	878764	1471958424032	1471958424208	s	83
1789	18392	It was possible to a large extent to agree on some kind of approach.	It was possible to a large extent to agree on some kind of approach. 	878768	1471958424124	1471958424236	 	32
1789	18392	It was possible to a large extent to agree on some kind of approach.	It was possible to a large extent to agree on some kind of approach. 	878772	1471958425238	1471958425385	p	80
1789	18392	It was possible to a large extent to agree on some kind of approach.	It was possible to a large extent to agree on some kind of approach. 	878775	1471958425334	1471958425443	o	79
1789	18392	It was possible to a large extent to agree on some kind of approach.	It was possible to a large extent to agree on some kind of approach. 	878778	1471958425449	1471958425588	s	83
1789	18392	It was possible to a large extent to agree on some kind of approach.	It was possible to a large extent to agree on some kind of approach. 	878782	1471958425640	1471958425790	s	83
1789	18392	It was possible to a large extent to agree on some kind of approach.	It was possible to a large extent to agree on some kind of approach. 	878816	1471958425738	1471958425850	i	73
1789	18392	It was possible to a large extent to agree on some kind of approach.	It was possible to a large extent to agree on some kind of approach. 	878818	1471958425947	1471958426037	b	66
1789	18392	It was possible to a large extent to agree on some kind of approach.	It was possible to a large extent to agree on some kind of approach. 	878821	1471958426156	1471958426329	l	76
1789	18392	It was possible to a large extent to agree on some kind of approach.	It was possible to a large extent to agree on some kind of approach. 	878826	1471958426248	1471958426400	e	69
1789	18392	It was possible to a large extent to agree on some kind of approach.	It was possible to a large extent to agree on some kind of approach. 	878834	1471958426333	1471958426448	 	32
1789	18392	It was possible to a large extent to agree on some kind of approach.	It was possible to a large extent to agree on some kind of approach. 	878841	1471958426508	1471958426612	t	84
1789	18392	It was possible to a large extent to agree on some kind of approach.	It was possible to a large extent to agree on some kind of approach. 	878891	1471958426690	1471958426871	o	79
1789	18392	It was possible to a large extent to agree on some kind of approach.	It was possible to a large extent to agree on some kind of approach. 	878897	1471958426865	1471958426970	 	32
1789	18392	It was possible to a large extent to agree on some kind of approach.	It was possible to a large extent to agree on some kind of approach. 	878900	1471958426988	1471958427128	l	76
1789	18392	It was possible to a large extent to agree on some kind of approach.	It was possible to a large extent to agree on some kind of approach. 	878904	1471958427075	1471958427249	a	65
1789	18392	It was possible to a large extent to agree on some kind of approach.	It was possible to a large extent to agree on some kind of approach. 	878909	1471958427361	1471958427453	t	84
1789	18392	It was possible to a large extent to agree on some kind of approach.	It was possible to a large extent to agree on some kind of approach. 	879057	1471958427752	1471958427897	BKSP	8
1789	18392	It was possible to a large extent to agree on some kind of approach.	It was possible to a large extent to agree on some kind of approach. 	879060	1471958428044	1471958428152	r	82
1789	18392	It was possible to a large extent to agree on some kind of approach.	It was possible to a large extent to agree on some kind of approach. 	879062	1471958428224	1471958428361	g	71
1789	18392	It was possible to a large extent to agree on some kind of approach.	It was possible to a large extent to agree on some kind of approach. 	879066	1471958428270	1471958428395	e	69
1789	18392	It was possible to a large extent to agree on some kind of approach.	It was possible to a large extent to agree on some kind of approach. 	879071	1471958428390	1471958428504	 	32
1789	18392	It was possible to a large extent to agree on some kind of approach.	It was possible to a large extent to agree on some kind of approach. 	879074	1471958430668	1471958430758	e	69
1789	18392	It was possible to a large extent to agree on some kind of approach.	It was possible to a large extent to agree on some kind of approach. 	879127	1471958430750	1471958430918	x	88
1789	18392	It was possible to a large extent to agree on some kind of approach.	It was possible to a large extent to agree on some kind of approach. 	879130	1471958430945	1471958431048	t	84
1789	18392	It was possible to a large extent to agree on some kind of approach.	It was possible to a large extent to agree on some kind of approach. 	879135	1471958431072	1471958431208	e	69
1789	18392	It was possible to a large extent to agree on some kind of approach.	It was possible to a large extent to agree on some kind of approach. 	879139	1471958431536	1471958431633	n	78
1789	18392	It was possible to a large extent to agree on some kind of approach.	It was possible to a large extent to agree on some kind of approach. 	879145	1471958431720	1471958431838	t	84
1789	18392	It was possible to a large extent to agree on some kind of approach.	It was possible to a large extent to agree on some kind of approach. 	879152	1471958431898	1471958432010	 	32
1789	18392	It was possible to a large extent to agree on some kind of approach.	It was possible to a large extent to agree on some kind of approach. 	879222	1471958432246	1471958432353	t	84
1789	18392	It was possible to a large extent to agree on some kind of approach.	It was possible to a large extent to agree on some kind of approach. 	879224	1471958432833	1471958432904	i	73
1789	18392	It was possible to a large extent to agree on some kind of approach.	It was possible to a large extent to agree on some kind of approach. 	879226	1471958433401	1471958433557	BKSP	8
1789	18392	It was possible to a large extent to agree on some kind of approach.	It was possible to a large extent to agree on some kind of approach. 	879232	1471958433742	1471958433872	o	79
1789	18392	It was possible to a large extent to agree on some kind of approach.	It was possible to a large extent to agree on some kind of approach. 	879237	1471958433894	1471958434007	 	32
1789	18392	It was possible to a large extent to agree on some kind of approach.	It was possible to a large extent to agree on some kind of approach. 	879278	1471958433946	1471958434075	a	65
1789	18392	It was possible to a large extent to agree on some kind of approach.	It was possible to a large extent to agree on some kind of approach. 	879280	1471958434069	1471958434182	g	71
1789	18392	It was possible to a large extent to agree on some kind of approach.	It was possible to a large extent to agree on some kind of approach. 	879283	1471958434266	1471958434359	r	82
1789	18392	It was possible to a large extent to agree on some kind of approach.	It was possible to a large extent to agree on some kind of approach. 	879288	1471958434425	1471958434519	e	69
1789	18392	It was possible to a large extent to agree on some kind of approach.	It was possible to a large extent to agree on some kind of approach. 	879293	1471958434569	1471958434686	e	69
1789	18392	It was possible to a large extent to agree on some kind of approach.	It was possible to a large extent to agree on some kind of approach. 	879297	1471958434734	1471958434851	 	32
1789	18392	It was possible to a large extent to agree on some kind of approach.	It was possible to a large extent to agree on some kind of approach. 	879620	1471958435436	1471958435564	n	78
1789	18392	It was possible to a large extent to agree on some kind of approach.	It was possible to a large extent to agree on some kind of approach. 	879621	1471958435625	1471958435761	 	32
1789	18392	It was possible to a large extent to agree on some kind of approach.	It was possible to a large extent to agree on some kind of approach. 	879623	1471958436033	1471958436158	BKSP	8
1789	18392	It was possible to a large extent to agree on some kind of approach.	It was possible to a large extent to agree on some kind of approach. 	879625	1471958436208	1471958436321	BKSP	8
1789	18392	It was possible to a large extent to agree on some kind of approach.	It was possible to a large extent to agree on some kind of approach. 	879628	1471958436645	1471958436824	o	79
1789	18392	It was possible to a large extent to agree on some kind of approach.	It was possible to a large extent to agree on some kind of approach. 	879631	1471958436815	1471958436945	n	78
1789	18392	It was possible to a large extent to agree on some kind of approach.	It was possible to a large extent to agree on some kind of approach. 	879634	1471958437733	1471958437835	BKSP	8
1789	18392	It was possible to a large extent to agree on some kind of approach.	It was possible to a large extent to agree on some kind of approach. 	879637	1471958438690	1471958439025	BKSP	8
1789	18392	It was possible to a large extent to agree on some kind of approach.	It was possible to a large extent to agree on some kind of approach. 	879641	1471958441876	1471958442053	a	65
1789	18392	It was possible to a large extent to agree on some kind of approach.	It was possible to a large extent to agree on some kind of approach. 	879739	1471958442271	1471958442475	 	32
1789	18392	It was possible to a large extent to agree on some kind of approach.	It was possible to a large extent to agree on some kind of approach. 	879742	1471958443698	1471958443821	 	32
1789	18392	It was possible to a large extent to agree on some kind of approach.	It was possible to a large extent to agree on some kind of approach. 	879746	1471958443859	1471958443995	o	79
1789	18392	It was possible to a large extent to agree on some kind of approach.	It was possible to a large extent to agree on some kind of approach. 	879748	1471958443986	1471958444106	n	78
1789	18392	It was possible to a large extent to agree on some kind of approach.	It was possible to a large extent to agree on some kind of approach. 	879749	1471958444125	1471958444238	 	32
1789	18392	It was possible to a large extent to agree on some kind of approach.	It was possible to a large extent to agree on some kind of approach. 	879794	1471958444182	1471958444319	s	83
1789	18392	It was possible to a large extent to agree on some kind of approach.	It was possible to a large extent to agree on some kind of approach. 	879795	1471958444249	1471958444371	o	79
1789	18392	It was possible to a large extent to agree on some kind of approach.	It was possible to a large extent to agree on some kind of approach. 	879798	1471958444341	1471958444541	m	77
1789	18392	It was possible to a large extent to agree on some kind of approach.	It was possible to a large extent to agree on some kind of approach. 	879803	1471958444484	1471958444642	e	69
1789	18392	It was possible to a large extent to agree on some kind of approach.	It was possible to a large extent to agree on some kind of approach. 	879809	1471958444561	1471958444671	 	32
1789	18392	It was possible to a large extent to agree on some kind of approach.	It was possible to a large extent to agree on some kind of approach. 	879814	1471958445171	1471958445341	k	75
1789	18392	It was possible to a large extent to agree on some kind of approach.	It was possible to a large extent to agree on some kind of approach. 	879885	1471958445321	1471958445458	i	73
1789	18392	It was possible to a large extent to agree on some kind of approach.	It was possible to a large extent to agree on some kind of approach. 	879890	1471958445461	1471958445580	n	78
1789	18392	It was possible to a large extent to agree on some kind of approach.	It was possible to a large extent to agree on some kind of approach. 	879893	1471958445616	1471958445726	 	32
1789	18392	It was possible to a large extent to agree on some kind of approach.	It was possible to a large extent to agree on some kind of approach. 	879895	1471958445956	1471958446118	BKSP	8
1789	18392	It was possible to a large extent to agree on some kind of approach.	It was possible to a large extent to agree on some kind of approach. 	879897	1471958446084	1471958446223	d	68
1789	18392	It was possible to a large extent to agree on some kind of approach.	It was possible to a large extent to agree on some kind of approach. 	879899	1471958446218	1471958446316	 	32
1789	18392	It was possible to a large extent to agree on some kind of approach.	It was possible to a large extent to agree on some kind of approach. 	879900	1471958446381	1471958446566	o	79
1789	18392	It was possible to a large extent to agree on some kind of approach.	It was possible to a large extent to agree on some kind of approach. 	879935	1471958446443	1471958446600	f	70
1789	18392	It was possible to a large extent to agree on some kind of approach.	It was possible to a large extent to agree on some kind of approach. 	879938	1471958446574	1471958446679	 	32
1789	18392	It was possible to a large extent to agree on some kind of approach.	It was possible to a large extent to agree on some kind of approach. 	879940	1471958447045	1471958447231	a	65
1789	18392	It was possible to a large extent to agree on some kind of approach.	It was possible to a large extent to agree on some kind of approach. 	879943	1471958447193	1471958447283	p	80
1789	18392	It was possible to a large extent to agree on some kind of approach.	It was possible to a large extent to agree on some kind of approach. 	879947	1471958447327	1471958447458	p	80
1789	18392	It was possible to a large extent to agree on some kind of approach.	It was possible to a large extent to agree on some kind of approach. 	879953	1471958447606	1471958447762	r	82
1789	18392	It was possible to a large extent to agree on some kind of approach.	It was possible to a large extent to agree on some kind of approach. 	880090	1471958447727	1471958447956	o	79
1789	18392	It was possible to a large extent to agree on some kind of approach.	It was possible to a large extent to agree on some kind of approach. 	880097	1471958448262	1471958448376	c	67
1789	18392	It was possible to a large extent to agree on some kind of approach.	It was possible to a large extent to agree on some kind of approach. 	880103	1471958448317	1471958448514	a	65
1789	18392	It was possible to a large extent to agree on some kind of approach.	It was possible to a large extent to agree on some kind of approach. 	880108	1471958448452	1471958448621	h	72
1789	18392	It was possible to a large extent to agree on some kind of approach.	It was possible to a large extent to agree on some kind of approach. 	880114	1471958448670	1471958448765	 	32
1789	18392	It was possible to a large extent to agree on some kind of approach.	It was possible to a large extent to agree on some kind of approach. 	880118	1471958449037	1471958449178	BKSP	8
1789	18392	It was possible to a large extent to agree on some kind of approach.	It was possible to a large extent to agree on some kind of approach. 	880123	1471958449223	1471958449335	BKSP	8
1789	18392	It was possible to a large extent to agree on some kind of approach.	It was possible to a large extent to agree on some kind of approach. 	880126	1471958449372	1471958449485	BKSP	8
1789	18392	It was possible to a large extent to agree on some kind of approach.	It was possible to a large extent to agree on some kind of approach. 	880133	1471958449525	1471958449637	BKSP	8
1789	18392	It was possible to a large extent to agree on some kind of approach.	It was possible to a large extent to agree on some kind of approach. 	880137	1471958449650	1471958449838	a	65
1789	18392	It was possible to a large extent to agree on some kind of approach.	It was possible to a large extent to agree on some kind of approach. 	880161	1471958450123	1471958450219	c	67
1789	18392	It was possible to a large extent to agree on some kind of approach.	It was possible to a large extent to agree on some kind of approach. 	880162	1471958450288	1471958450452	h	72
1789	18392	It was possible to a large extent to agree on some kind of approach.	It was possible to a large extent to agree on some kind of approach. 	880163	1471958450493	1471958450604	 	32
1789	18392	It was possible to a large extent to agree on some kind of approach.	It was possible to a large extent to agree on some kind of approach. 	880164	1471958450814	1471958450982	BKSP	8
1789	18392	It was possible to a large extent to agree on some kind of approach.	It was possible to a large extent to agree on some kind of approach. 	880165	1471958451139	1471958451254	.	190
1789	18392	It was possible to a large extent to agree on some kind of approach.	It was possible to a large extent to agree on some kind of approach. 	880166	1471958451532	1471958451694	`	220
1789	18392	It was possible to a large extent to agree on some kind of approach.	It was possible to a large extent to agree on some kind of approach. 	880243	1471958452538	1471958452679	BKSP	8
1789	18433	Time trials for the May 29 race continue the next two weekends.	Time trials for the May 29 race continue the next two weekends.	880543	1471958456109	1471958456277	CAPS_LOCK	20
1789	18433	Time trials for the May 29 race continue the next two weekends.	Time trials for the May 29 race continue the next two weekends.	880550	1471958456284	1471958456374	T	84
1789	18433	Time trials for the May 29 race continue the next two weekends.	Time trials for the May 29 race continue the next two weekends.	880557	1471958456339	1471958456484	CAPS_LOCK	20
1789	18433	Time trials for the May 29 race continue the next two weekends.	Time trials for the May 29 race continue the next two weekends.	880560	1471958456998	1471958457124	i	73
1789	18433	Time trials for the May 29 race continue the next two weekends.	Time trials for the May 29 race continue the next two weekends.	880566	1471958457139	1471958457278	m	77
1789	18433	Time trials for the May 29 race continue the next two weekends.	Time trials for the May 29 race continue the next two weekends.	880570	1471958457216	1471958457357	e	69
1789	18433	Time trials for the May 29 race continue the next two weekends.	Time trials for the May 29 race continue the next two weekends.	880615	1471958457345	1471958457424	 	32
1789	18433	Time trials for the May 29 race continue the next two weekends.	Time trials for the May 29 race continue the next two weekends.	880617	1471958457540	1471958457708	t	84
1789	18433	Time trials for the May 29 race continue the next two weekends.	Time trials for the May 29 race continue the next two weekends.	880619	1471958457672	1471958457769	r	82
1789	18433	Time trials for the May 29 race continue the next two weekends.	Time trials for the May 29 race continue the next two weekends.	880623	1471958458051	1471958458163	i	73
1789	18433	Time trials for the May 29 race continue the next two weekends.	Time trials for the May 29 race continue the next two weekends.	880626	1471958458230	1471958458405	a	65
1789	18433	Time trials for the May 29 race continue the next two weekends.	Time trials for the May 29 race continue the next two weekends.	880670	1471958458346	1471958458457	l	76
1789	18433	Time trials for the May 29 race continue the next two weekends.	Time trials for the May 29 race continue the next two weekends.	880675	1471958458412	1471958458573	s	83
1789	18433	Time trials for the May 29 race continue the next two weekends.	Time trials for the May 29 race continue the next two weekends.	880679	1471958458530	1471958458635	 	32
1789	18433	Time trials for the May 29 race continue the next two weekends.	Time trials for the May 29 race continue the next two weekends.	880681	1471958459365	1471958459525	f	70
1789	18433	Time trials for the May 29 race continue the next two weekends.	Time trials for the May 29 race continue the next two weekends.	880685	1471958459457	1471958459614	o	79
1789	18433	Time trials for the May 29 race continue the next two weekends.	Time trials for the May 29 race continue the next two weekends.	880750	1471958459544	1471958459674	r	82
1789	18433	Time trials for the May 29 race continue the next two weekends.	Time trials for the May 29 race continue the next two weekends.	880753	1471958459645	1471958459762	 	32
1789	18433	Time trials for the May 29 race continue the next two weekends.	Time trials for the May 29 race continue the next two weekends.	880754	1471958460852	1471958460965	t	84
1789	18433	Time trials for the May 29 race continue the next two weekends.	Time trials for the May 29 race continue the next two weekends.	880758	1471958461029	1471958461180	e	69
1789	18433	Time trials for the May 29 race continue the next two weekends.	Time trials for the May 29 race continue the next two weekends.	880757	1471958461067	1471958461170	h	72
1789	18433	Time trials for the May 29 race continue the next two weekends.	Time trials for the May 29 race continue the next two weekends.	880760	1471958461188	1471958461312	 	32
1789	18433	Time trials for the May 29 race continue the next two weekends.	Time trials for the May 29 race continue the next two weekends.	880887	1471958461375	1471958461507	m	77
1789	18433	Time trials for the May 29 race continue the next two weekends.	Time trials for the May 29 race continue the next two weekends.	880889	1471958461381	1471958461729	CAPS_LOCK	20
1789	18433	Time trials for the May 29 race continue the next two weekends.	Time trials for the May 29 race continue the next two weekends.	880892	1471958461627	1471958461874	A	65
1789	18433	Time trials for the May 29 race continue the next two weekends.	Time trials for the May 29 race continue the next two weekends.	880895	1471958462018	1471958462155	BKSP	8
1789	18433	Time trials for the May 29 race continue the next two weekends.	Time trials for the May 29 race continue the next two weekends.	880899	1471958462222	1471958462307	BKSP	8
1789	18433	Time trials for the May 29 race continue the next two weekends.	Time trials for the May 29 race continue the next two weekends.	880902	1471958462371	1471958462460	BKSP	8
1789	18433	Time trials for the May 29 race continue the next two weekends.	Time trials for the May 29 race continue the next two weekends.	880906	1471958462515	1471958462621	BKSP	8
1789	18433	Time trials for the May 29 race continue the next two weekends.	Time trials for the May 29 race continue the next two weekends.	880911	1471958463211	1471958463379	BKSP	8
1789	18433	Time trials for the May 29 race continue the next two weekends.	Time trials for the May 29 race continue the next two weekends.	880914	1471958463457	1471958463614	CAPS_LOCK	20
1789	18433	Time trials for the May 29 race continue the next two weekends.	Time trials for the May 29 race continue the next two weekends.	880918	1471958463591	1471958463733	h	72
1789	18433	Time trials for the May 29 race continue the next two weekends.	Time trials for the May 29 race continue the next two weekends.	880921	1471958463761	1471958463916	e	69
1789	18433	Time trials for the May 29 race continue the next two weekends.	Time trials for the May 29 race continue the next two weekends.	880989	1471958463811	1471958463936	 	32
1789	18433	Time trials for the May 29 race continue the next two weekends.	Time trials for the May 29 race continue the next two weekends.	880998	1471958464016	1471958464193	CAPS_LOCK	20
1789	18433	Time trials for the May 29 race continue the next two weekends.	Time trials for the May 29 race continue the next two weekends.	881006	1471958464199	1471958464281	M	77
1789	18433	Time trials for the May 29 race continue the next two weekends.	Time trials for the May 29 race continue the next two weekends.	881014	1471958464259	1471958464463	CAPS_LOCK	20
1789	18433	Time trials for the May 29 race continue the next two weekends.	Time trials for the May 29 race continue the next two weekends.	881022	1471958464360	1471958464583	a	65
1789	18433	Time trials for the May 29 race continue the next two weekends.	Time trials for the May 29 race continue the next two weekends.	881029	1471958464471	1471958464601	y	89
1789	18433	Time trials for the May 29 race continue the next two weekends.	Time trials for the May 29 race continue the next two weekends.	881038	1471958464653	1471958464763	 	32
1789	18433	Time trials for the May 29 race continue the next two weekends.	Time trials for the May 29 race continue the next two weekends.	881041	1471958465368	1471958465480	2	98
1789	18433	Time trials for the May 29 race continue the next two weekends.	Time trials for the May 29 race continue the next two weekends.	881090	1471958465608	1471958465715	9	105
1789	18433	Time trials for the May 29 race continue the next two weekends.	Time trials for the May 29 race continue the next two weekends.	881094	1471958465942	1471958466088	 	32
1789	18433	Time trials for the May 29 race continue the next two weekends.	Time trials for the May 29 race continue the next two weekends.	881100	1471958466295	1471958466436	r	82
1789	18433	Time trials for the May 29 race continue the next two weekends.	Time trials for the May 29 race continue the next two weekends.	881194	1471958466444	1471958466623	c	65
1789	18433	Time trials for the May 29 race continue the next two weekends.	Time trials for the May 29 race continue the next two weekends.	881195	1471958466572	1471958466748	e	69
1789	18433	Time trials for the May 29 race continue the next two weekends.	Time trials for the May 29 race continue the next two weekends.	881196	1471958466681	1471958466799	 	32
1789	18433	Time trials for the May 29 race continue the next two weekends.	Time trials for the May 29 race continue the next two weekends.	881198	1471958468067	1471958468211	c	67
1789	18433	Time trials for the May 29 race continue the next two weekends.	Time trials for the May 29 race continue the next two weekends.	881202	1471958468089	1471958468229	o	79
1789	18433	Time trials for the May 29 race continue the next two weekends.	Time trials for the May 29 race continue the next two weekends.	881205	1471958468781	1471958468894	n	78
1789	18433	Time trials for the May 29 race continue the next two weekends.	Time trials for the May 29 race continue the next two weekends.	881210	1471958468981	1471958469061	t	84
1789	18433	Time trials for the May 29 race continue the next two weekends.	Time trials for the May 29 race continue the next two weekends.	881288	1471958469786	1471958469957	i	73
1789	18433	Time trials for the May 29 race continue the next two weekends.	Time trials for the May 29 race continue the next two weekends.	881290	1471958469950	1471958470081	n	78
1789	18433	Time trials for the May 29 race continue the next two weekends.	Time trials for the May 29 race continue the next two weekends.	881293	1471958470637	1471958470773	u	85
1789	18433	Time trials for the May 29 race continue the next two weekends.	Time trials for the May 29 race continue the next two weekends.	881297	1471958470760	1471958470915	e	69
1789	18433	Time trials for the May 29 race continue the next two weekends.	Time trials for the May 29 race continue the next two weekends.	881338	1471958470840	1471958470948	 	32
1789	18433	Time trials for the May 29 race continue the next two weekends.	Time trials for the May 29 race continue the next two weekends.	881339	1471958471580	1471958471661	t	84
1789	18433	Time trials for the May 29 race continue the next two weekends.	Time trials for the May 29 race continue the next two weekends.	881340	1471958471725	1471958471875	h	69
1789	18433	Time trials for the May 29 race continue the next two weekends.	Time trials for the May 29 race continue the next two weekends.	881341	1471958471845	1471958471979	 	32
1789	18433	Time trials for the May 29 race continue the next two weekends.	Time trials for the May 29 race continue the next two weekends.	881507	1471958471973	1471958472117	n	78
1789	18433	Time trials for the May 29 race continue the next two weekends.	Time trials for the May 29 race continue the next two weekends.	881508	1471958472070	1471958472193	e	69
1789	18433	Time trials for the May 29 race continue the next two weekends.	Time trials for the May 29 race continue the next two weekends.	881511	1471958472765	1471958472912	x	88
1789	18433	Time trials for the May 29 race continue the next two weekends.	Time trials for the May 29 race continue the next two weekends.	881512	1471958472811	1471958472934	t	84
1789	18433	Time trials for the May 29 race continue the next two weekends.	Time trials for the May 29 race continue the next two weekends.	881515	1471958473045	1471958473130	 	32
1789	18433	Time trials for the May 29 race continue the next two weekends.	Time trials for the May 29 race continue the next two weekends.	881518	1471958473254	1471958473366	BKSP	8
1789	18433	Time trials for the May 29 race continue the next two weekends.	Time trials for the May 29 race continue the next two weekends.	881521	1471958473432	1471958473512	BKSP	8
1789	18433	Time trials for the May 29 race continue the next two weekends.	Time trials for the May 29 race continue the next two weekends.	881524	1471958473574	1471958473664	BKSP	8
1789	18433	Time trials for the May 29 race continue the next two weekends.	Time trials for the May 29 race continue the next two weekends.	881528	1471958473716	1471958473812	BKSP	8
1789	18433	Time trials for the May 29 race continue the next two weekends.	Time trials for the May 29 race continue the next two weekends.	881530	1471958473869	1471958473962	BKSP	8
1789	18433	Time trials for the May 29 race continue the next two weekends.	Time trials for the May 29 race continue the next two weekends.	881533	1471958474013	1471958474116	BKSP	8
1789	18433	Time trials for the May 29 race continue the next two weekends.	Time trials for the May 29 race continue the next two weekends.	881535	1471958474181	1471958474272	BKSP	8
1789	18433	Time trials for the May 29 race continue the next two weekends.	Time trials for the May 29 race continue the next two weekends.	881536	1471958474322	1471958474413	BKSP	8
1789	18433	Time trials for the May 29 race continue the next two weekends.	Time trials for the May 29 race continue the next two weekends.	881538	1471958475126	1471958475229	h	72
1789	18433	Time trials for the May 29 race continue the next two weekends.	Time trials for the May 29 race continue the next two weekends.	881540	1471958475171	1471958475308	e	69
1789	18433	Time trials for the May 29 race continue the next two weekends.	Time trials for the May 29 race continue the next two weekends.	881541	1471958475268	1471958475389	 	32
1789	18433	Time trials for the May 29 race continue the next two weekends.	Time trials for the May 29 race continue the next two weekends.	881543	1471958475408	1471958475538	n	78
1789	18433	Time trials for the May 29 race continue the next two weekends.	Time trials for the May 29 race continue the next two weekends.	881544	1471958475496	1471958475621	e	69
1789	18433	Time trials for the May 29 race continue the next two weekends.	Time trials for the May 29 race continue the next two weekends.	881546	1471958475728	1471958475876	x	88
1789	18433	Time trials for the May 29 race continue the next two weekends.	Time trials for the May 29 race continue the next two weekends.	881618	1471958475821	1471958475948	t	84
1789	18433	Time trials for the May 29 race continue the next two weekends.	Time trials for the May 29 race continue the next two weekends.	881621	1471958475986	1471958476103	 	32
1789	18433	Time trials for the May 29 race continue the next two weekends.	Time trials for the May 29 race continue the next two weekends.	881625	1471958476890	1471958476976	t	84
1789	18433	Time trials for the May 29 race continue the next two weekends.	Time trials for the May 29 race continue the next two weekends.	881628	1471958477303	1471958477437	w	87
1789	18433	Time trials for the May 29 race continue the next two weekends.	Time trials for the May 29 race continue the next two weekends.	881630	1471958477372	1471958477493	o	79
1789	18433	Time trials for the May 29 race continue the next two weekends.	Time trials for the May 29 race continue the next two weekends.	881632	1471958477515	1471958477630	 	32
1789	18433	Time trials for the May 29 race continue the next two weekends.	Time trials for the May 29 race continue the next two weekends.	881775	1471958478393	1471958478509	w	87
1789	18433	Time trials for the May 29 race continue the next two weekends.	Time trials for the May 29 race continue the next two weekends.	881778	1471958478592	1471958478716	e	69
1789	18433	Time trials for the May 29 race continue the next two weekends.	Time trials for the May 29 race continue the next two weekends.	881781	1471958478749	1471958478917	e	69
1789	18433	Time trials for the May 29 race continue the next two weekends.	Time trials for the May 29 race continue the next two weekends.	881782	1471958478840	1471958478997	k	75
1789	18433	Time trials for the May 29 race continue the next two weekends.	Time trials for the May 29 race continue the next two weekends.	881783	1471958479667	1471958479839	e	69
1789	18433	Time trials for the May 29 race continue the next two weekends.	Time trials for the May 29 race continue the next two weekends.	881809	1471958479799	1471958479932	n	78
1789	18433	Time trials for the May 29 race continue the next two weekends.	Time trials for the May 29 race continue the next two weekends.	881813	1471958480028	1471958480195	d	68
1789	18433	Time trials for the May 29 race continue the next two weekends.	Time trials for the May 29 race continue the next two weekends.	881815	1471958480274	1471958480447	s	83
1789	18433	Time trials for the May 29 race continue the next two weekends.	Time trials for the May 29 race continue the next two weekends.	881818	1471958480507	1471958480674	.	190
1789	18460	Miller might have to wait until Sunday.	Miller might have to wait until Sunday.	882006	1471958483924	1471958484067	CAPS_LOCK	20
1789	18460	Miller might have to wait until Sunday.	Miller might have to wait until Sunday.	882009	1471958484053	1471958484176	M	77
1789	18460	Miller might have to wait until Sunday.	Miller might have to wait until Sunday.	882012	1471958484145	1471958484278	CAPS_LOCK	20
1789	18460	Miller might have to wait until Sunday.	Miller might have to wait until Sunday.	882015	1471958484218	1471958484317	i	73
1789	18460	Miller might have to wait until Sunday.	Miller might have to wait until Sunday.	882017	1471958484393	1471958484500	l	76
1789	18460	Miller might have to wait until Sunday.	Miller might have to wait until Sunday.	882020	1471958484545	1471958484698	l	76
1789	18460	Miller might have to wait until Sunday.	Miller might have to wait until Sunday.	882056	1471958484655	1471958484789	e	69
1789	18460	Miller might have to wait until Sunday.	Miller might have to wait until Sunday.	882057	1471958484825	1471958484969	 	32
1789	18460	Miller might have to wait until Sunday.	Miller might have to wait until Sunday.	882059	1471958484865	1471958484976	r	82
1789	18460	Miller might have to wait until Sunday.	Miller might have to wait until Sunday.	882061	1471958484979	1471958485143	m	77
1789	18460	Miller might have to wait until Sunday.	Miller might have to wait until Sunday.	882064	1471958485147	1471958485284	i	73
1789	18460	Miller might have to wait until Sunday.	Miller might have to wait until Sunday.	882068	1471958485330	1471958485447	g	71
1789	18460	Miller might have to wait until Sunday.	Miller might have to wait until Sunday.	882144	1471958485450	1471958485598	h	72
1789	18460	Miller might have to wait until Sunday.	Miller might have to wait until Sunday.	882147	1471958486175	1471958486274	BKSP	8
1789	18460	Miller might have to wait until Sunday.	Miller might have to wait until Sunday.	882150	1471958486354	1471958486462	BKSP	8
1789	18460	Miller might have to wait until Sunday.	Miller might have to wait until Sunday.	882153	1471958486514	1471958486608	BKSP	8
1789	18460	Miller might have to wait until Sunday.	Miller might have to wait until Sunday.	882154	1471958486664	1471958486760	BKSP	8
1789	18460	Miller might have to wait until Sunday.	Miller might have to wait until Sunday.	882155	1471958486821	1471958486920	BKSP	8
1789	18460	Miller might have to wait until Sunday.	Miller might have to wait until Sunday.	882156	1471958486964	1471958487085	BKSP	8
1789	18460	Miller might have to wait until Sunday.	Miller might have to wait until Sunday.	882157	1471958487080	1471958487236	e	69
1789	18460	Miller might have to wait until Sunday.	Miller might have to wait until Sunday.	882158	1471958487523	1471958487663	BKSP	8
1789	18460	Miller might have to wait until Sunday.	Miller might have to wait until Sunday.	882159	1471958487807	1471958487995	r	82
1789	18460	Miller might have to wait until Sunday.	Miller might have to wait until Sunday.	882160	1471958487933	1471958488054	 	32
1789	18460	Miller might have to wait until Sunday.	Miller might have to wait until Sunday.	882161	1471958488142	1471958488304	m	77
1789	18460	Miller might have to wait until Sunday.	Miller might have to wait until Sunday.	882183	1471958488307	1471958488436	i	73
1789	18460	Miller might have to wait until Sunday.	Miller might have to wait until Sunday.	882187	1471958488482	1471958488591	g	71
1789	18460	Miller might have to wait until Sunday.	Miller might have to wait until Sunday.	882190	1471958488600	1471958488789	h	72
1789	18460	Miller might have to wait until Sunday.	Miller might have to wait until Sunday.	882193	1471958488799	1471958488904	t	84
1789	18460	Miller might have to wait until Sunday.	Miller might have to wait until Sunday.	882196	1471958488968	1471958489090	 	32
1789	18460	Miller might have to wait until Sunday.	Miller might have to wait until Sunday.	882223	1471958489446	1471958489601	h	72
1789	18460	Miller might have to wait until Sunday.	Miller might have to wait until Sunday.	882225	1471958489551	1471958489774	a	65
1789	18460	Miller might have to wait until Sunday.	Miller might have to wait until Sunday.	882228	1471958489698	1471958489820	v	86
1789	18460	Miller might have to wait until Sunday.	Miller might have to wait until Sunday.	882231	1471958489748	1471958489948	e	69
1789	18460	Miller might have to wait until Sunday.	Miller might have to wait until Sunday.	882287	1471958489841	1471958489987	 	32
1789	18460	Miller might have to wait until Sunday.	Miller might have to wait until Sunday.	882288	1471958490078	1471958490200	t	84
1789	18460	Miller might have to wait until Sunday.	Miller might have to wait until Sunday.	882289	1471958490686	1471958490836	o	79
1789	18460	Miller might have to wait until Sunday.	Miller might have to wait until Sunday.	882290	1471958490866	1471958490979	 	32
1789	18460	Miller might have to wait until Sunday.	Miller might have to wait until Sunday.	882291	1471958490930	1471958491096	e	69
1789	18460	Miller might have to wait until Sunday.	Miller might have to wait until Sunday.	882292	1471958491118	1471958491350	a	65
1789	18460	Miller might have to wait until Sunday.	Miller might have to wait until Sunday.	882373	1471958491533	1471958491628	BKSP	8
1789	18460	Miller might have to wait until Sunday.	Miller might have to wait until Sunday.	882375	1471958491663	1471958491797	BKSP	8
1789	18460	Miller might have to wait until Sunday.	Miller might have to wait until Sunday.	882378	1471958491801	1471958491998	w	87
1789	18460	Miller might have to wait until Sunday.	Miller might have to wait until Sunday.	882381	1471958491976	1471958492180	a	65
1789	18460	Miller might have to wait until Sunday.	Miller might have to wait until Sunday.	882384	1471958492859	1471958493009	i	73
1789	18460	Miller might have to wait until Sunday.	Miller might have to wait until Sunday.	882387	1471958493072	1471958493190	t	84
1789	18460	Miller might have to wait until Sunday.	Miller might have to wait until Sunday.	882392	1471958493222	1471958493325	 	32
1789	18460	Miller might have to wait until Sunday.	Miller might have to wait until Sunday.	882521	1471958493475	1471958493605	n	78
1789	18460	Miller might have to wait until Sunday.	Miller might have to wait until Sunday.	882522	1471958493711	1471958493810	t	84
1789	18460	Miller might have to wait until Sunday.	Miller might have to wait until Sunday.	882523	1471958493939	1471958494070	i	73
1789	18460	Miller might have to wait until Sunday.	Miller might have to wait until Sunday.	882524	1471958494157	1471958494339	l	76
1789	18460	Miller might have to wait until Sunday.	Miller might have to wait until Sunday.	882525	1471958494531	1471958494650	BKSP	8
1789	18460	Miller might have to wait until Sunday.	Miller might have to wait until Sunday.	882526	1471958494706	1471958494802	BKSP	8
1789	18460	Miller might have to wait until Sunday.	Miller might have to wait until Sunday.	882527	1471958494854	1471958494957	BKSP	8
1789	18460	Miller might have to wait until Sunday.	Miller might have to wait until Sunday.	882528	1471958495002	1471958495072	BKSP	8
1789	18460	Miller might have to wait until Sunday.	Miller might have to wait until Sunday.	882529	1471958495664	1471958495805	u	85
1789	18460	Miller might have to wait until Sunday.	Miller might have to wait until Sunday.	882562	1471958495822	1471958495959	n	78
1789	18460	Miller might have to wait until Sunday.	Miller might have to wait until Sunday.	882563	1471958496059	1471958496216	t	84
1789	18460	Miller might have to wait until Sunday.	Miller might have to wait until Sunday.	882564	1471958496099	1471958496223	i	73
1789	18460	Miller might have to wait until Sunday.	Miller might have to wait until Sunday.	882565	1471958496314	1471958496431	l	76
1789	18460	Miller might have to wait until Sunday.	Miller might have to wait until Sunday.	882566	1471958496498	1471958496617	 	32
1789	18460	Miller might have to wait until Sunday.	Miller might have to wait until Sunday.	882631	1471958497178	1471958497358	CAPS_LOCK	20
1789	18460	Miller might have to wait until Sunday.	Miller might have to wait until Sunday.	882632	1471958497384	1471958497505	S	83
1789	18460	Miller might have to wait until Sunday.	Miller might have to wait until Sunday.	882633	1471958497471	1471958497685	CAPS_LOCK	20
1789	18460	Miller might have to wait until Sunday.	Miller might have to wait until Sunday.	882634	1471958497591	1471958497711	u	85
1789	18460	Miller might have to wait until Sunday.	Miller might have to wait until Sunday.	882635	1471958497751	1471958497896	n	78
1789	18460	Miller might have to wait until Sunday.	Miller might have to wait until Sunday.	882636	1471958497810	1471958498002	d	68
1789	18460	Miller might have to wait until Sunday.	Miller might have to wait until Sunday.	882638	1471958498059	1471958498268	a	65
1789	18460	Miller might have to wait until Sunday.	Miller might have to wait until Sunday.	882684	1471958498211	1471958498345	y	89
1789	18460	Miller might have to wait until Sunday.	Miller might have to wait until Sunday.	882687	1471958498588	1471958498784	.	190
1789	18478	I've never been to the speedway, but if they come, I will go there.	I've never been to the speedway, but if they come, I will go there.	882882	1471958502702	1471958502853	CAPS_LOCK	20
1789	18478	I've never been to the speedway, but if they come, I will go there.	I've never been to the speedway, but if they come, I will go there.	882884	1471958502829	1471958502933	I	73
1789	18478	I've never been to the speedway, but if they come, I will go there.	I've never been to the speedway, but if they come, I will go there.	882885	1471958502915	1471958503075	CAPS_LOCK	20
1789	18478	I've never been to the speedway, but if they come, I will go there.	I've never been to the speedway, but if they come, I will go there.	882886	1471958503472	1471958503579	'	222
1789	18478	I've never been to the speedway, but if they come, I will go there.	I've never been to the speedway, but if they come, I will go there.	882887	1471958503788	1471958503906	v	86
1789	18478	I've never been to the speedway, but if they come, I will go there.	I've never been to the speedway, but if they come, I will go there.	882888	1471958503881	1471958504029	e	69
1789	18478	I've never been to the speedway, but if they come, I will go there.	I've never been to the speedway, but if they come, I will go there.	882902	1471958503944	1471958504087	 	32
1789	18478	I've never been to the speedway, but if they come, I will go there.	I've never been to the speedway, but if they come, I will go there.	882907	1471958504115	1471958504264	n	78
1789	18478	I've never been to the speedway, but if they come, I will go there.	I've never been to the speedway, but if they come, I will go there.	882912	1471958504212	1471958504366	e	69
1789	18478	I've never been to the speedway, but if they come, I will go there.	I've never been to the speedway, but if they come, I will go there.	882916	1471958504429	1471958504555	v	86
1789	18478	I've never been to the speedway, but if they come, I will go there.	I've never been to the speedway, but if they come, I will go there.	882918	1471958504497	1471958504694	e	69
1789	18478	I've never been to the speedway, but if they come, I will go there.	I've never been to the speedway, but if they come, I will go there.	882931	1471958504668	1471958504779	r	82
1789	18478	I've never been to the speedway, but if they come, I will go there.	I've never been to the speedway, but if they come, I will go there.	882934	1471958504838	1471958504955	 	32
1789	18478	I've never been to the speedway, but if they come, I will go there.	I've never been to the speedway, but if they come, I will go there.	882937	1471958505221	1471958505344	b	66
1789	18478	I've never been to the speedway, but if they come, I will go there.	I've never been to the speedway, but if they come, I will go there.	882940	1471958505324	1471958505436	e	69
1789	18478	I've never been to the speedway, but if they come, I will go there.	I've never been to the speedway, but if they come, I will go there.	882946	1471958505485	1471958505638	e	69
1789	18478	I've never been to the speedway, but if they come, I will go there.	I've never been to the speedway, but if they come, I will go there.	882995	1471958505601	1471958505713	n	78
1789	18478	I've never been to the speedway, but if they come, I will go there.	I've never been to the speedway, but if they come, I will go there.	882999	1471958505688	1471958505810	 	32
1789	18478	I've never been to the speedway, but if they come, I will go there.	I've never been to the speedway, but if they come, I will go there.	883002	1471958505866	1471958505950	t	84
1789	18478	I've never been to the speedway, but if they come, I will go there.	I've never been to the speedway, but if they come, I will go there.	883004	1471958506414	1471958506526	o	79
1789	18478	I've never been to the speedway, but if they come, I will go there.	I've never been to the speedway, but if they come, I will go there.	883005	1471958506551	1471958506669	 	32
1789	18478	I've never been to the speedway, but if they come, I will go there.	I've never been to the speedway, but if they come, I will go there.	883006	1471958506745	1471958506860	t	84
1789	18478	I've never been to the speedway, but if they come, I will go there.	I've never been to the speedway, but if they come, I will go there.	883034	1471958506933	1471958507073	h	72
1789	18478	I've never been to the speedway, but if they come, I will go there.	I've never been to the speedway, but if they come, I will go there.	883037	1471958506965	1471958507078	e	69
1789	18478	I've never been to the speedway, but if they come, I will go there.	I've never been to the speedway, but if they come, I will go there.	883042	1471958507120	1471958507241	 	32
1789	18478	I've never been to the speedway, but if they come, I will go there.	I've never been to the speedway, but if they come, I will go there.	883049	1471958507458	1471958507626	s	83
1789	18478	I've never been to the speedway, but if they come, I will go there.	I've never been to the speedway, but if they come, I will go there.	883055	1471958507678	1471958507814	p	80
1789	18478	I've never been to the speedway, but if they come, I will go there.	I've never been to the speedway, but if they come, I will go there.	883102	1471958507810	1471958507950	e	69
1789	18478	I've never been to the speedway, but if they come, I will go there.	I've never been to the speedway, but if they come, I will go there.	883105	1471958507972	1471958508102	e	69
1789	18478	I've never been to the speedway, but if they come, I will go there.	I've never been to the speedway, but if they come, I will go there.	883111	1471958508185	1471958508340	d	68
1789	18478	I've never been to the speedway, but if they come, I will go there.	I've never been to the speedway, but if they come, I will go there.	883115	1471958508402	1471958508570	w	87
1789	18478	I've never been to the speedway, but if they come, I will go there.	I've never been to the speedway, but if they come, I will go there.	883119	1471958508678	1471958508892	a	65
1789	18478	I've never been to the speedway, but if they come, I will go there.	I've never been to the speedway, but if they come, I will go there.	883178	1471958508843	1471958508998	y	89
1789	18478	I've never been to the speedway, but if they come, I will go there.	I've never been to the speedway, but if they come, I will go there.	883180	1471958508990	1471958509102	 	32
1789	18478	I've never been to the speedway, but if they come, I will go there.	I've never been to the speedway, but if they come, I will go there.	883183	1471958509268	1471958509405	BKSP	8
1789	18478	I've never been to the speedway, but if they come, I will go there.	I've never been to the speedway, but if they come, I will go there.	883186	1471958509560	1471958509698	,	188
1789	18478	I've never been to the speedway, but if they come, I will go there.	I've never been to the speedway, but if they come, I will go there.	883190	1471958509728	1471958509832	 	32
1789	18478	I've never been to the speedway, but if they come, I will go there.	I've never been to the speedway, but if they come, I will go there.	883197	1471958509880	1471958509983	b	66
1789	18478	I've never been to the speedway, but if they come, I will go there.	I've never been to the speedway, but if they come, I will go there.	883204	1471958510032	1471958510194	u	85
1789	18478	I've never been to the speedway, but if they come, I will go there.	I've never been to the speedway, but if they come, I will go there.	883252	1471958510189	1471958510313	t	84
1789	18478	I've never been to the speedway, but if they come, I will go there.	I've never been to the speedway, but if they come, I will go there.	883254	1471958510340	1471958510453	 	32
1789	18478	I've never been to the speedway, but if they come, I will go there.	I've never been to the speedway, but if they come, I will go there.	883256	1471958510932	1471958511100	i	73
1789	18478	I've never been to the speedway, but if they come, I will go there.	I've never been to the speedway, but if they come, I will go there.	883259	1471958511114	1471958511283	 	70
1789	18478	I've never been to the speedway, but if they come, I will go there.	I've never been to the speedway, but if they come, I will go there.	883262	1471958511330	1471958511434	t	84
1789	18478	I've never been to the speedway, but if they come, I will go there.	I've never been to the speedway, but if they come, I will go there.	883314	1471958511515	1471958511642	h	72
1789	18478	I've never been to the speedway, but if they come, I will go there.	I've never been to the speedway, but if they come, I will go there.	883315	1471958511552	1471958511696	e	69
1789	18478	I've never been to the speedway, but if they come, I will go there.	I've never been to the speedway, but if they come, I will go there.	883316	1471958511807	1471958511952	y	89
1789	18478	I've never been to the speedway, but if they come, I will go there.	I've never been to the speedway, but if they come, I will go there.	883317	1471958512000	1471958512114	 	32
1789	18478	I've never been to the speedway, but if they come, I will go there.	I've never been to the speedway, but if they come, I will go there.	883318	1471958512636	1471958512842	c	67
1789	18478	I've never been to the speedway, but if they come, I will go there.	I've never been to the speedway, but if they come, I will go there.	883367	1471958512734	1471958512906	o	79
1789	18478	I've never been to the speedway, but if they come, I will go there.	I've never been to the speedway, but if they come, I will go there.	883368	1471958512850	1471958513073	m	77
1789	18478	I've never been to the speedway, but if they come, I will go there.	I've never been to the speedway, but if they come, I will go there.	883370	1471958512894	1471958513105	e	69
1789	18478	I've never been to the speedway, but if they come, I will go there.	I've never been to the speedway, but if they come, I will go there.	883372	1471958513092	1471958513208	 	32
1789	18478	I've never been to the speedway, but if they come, I will go there.	I've never been to the speedway, but if they come, I will go there.	883377	1471958513515	1471958513701	BKSP	8
1789	18478	I've never been to the speedway, but if they come, I will go there.	I've never been to the speedway, but if they come, I will go there.	883381	1471958513821	1471958513961	,	188
1789	18478	I've never been to the speedway, but if they come, I will go there.	I've never been to the speedway, but if they come, I will go there.	883414	1471958513970	1471958514104	 	20
1789	18478	I've never been to the speedway, but if they come, I will go there.	I've never been to the speedway, but if they come, I will go there.	883417	1471958514139	1471958514298	I	73
1789	18478	I've never been to the speedway, but if they come, I will go there.	I've never been to the speedway, but if they come, I will go there.	883421	1471958514171	1471958514325	CAPS_LOCK	20
1789	18478	I've never been to the speedway, but if they come, I will go there.	I've never been to the speedway, but if they come, I will go there.	883425	1471958514276	1471958514404	 	32
1789	18478	I've never been to the speedway, but if they come, I will go there.	I've never been to the speedway, but if they come, I will go there.	883431	1471958514378	1471958514560	w	87
1789	18478	I've never been to the speedway, but if they come, I will go there.	I've never been to the speedway, but if they come, I will go there.	883437	1471958514517	1471958514616	i	73
1789	18478	I've never been to the speedway, but if they come, I will go there.	I've never been to the speedway, but if they come, I will go there.	883440	1471958514703	1471958514798	l	76
1789	18478	I've never been to the speedway, but if they come, I will go there.	I've never been to the speedway, but if they come, I will go there.	883463	1471958514870	1471958514978	l	76
1789	18478	I've never been to the speedway, but if they come, I will go there.	I've never been to the speedway, but if they come, I will go there.	883468	1471958515021	1471958515128	 	32
1789	18478	I've never been to the speedway, but if they come, I will go there.	I've never been to the speedway, but if they come, I will go there.	883473	1471958515491	1471958515591	g	71
1789	18478	I've never been to the speedway, but if they come, I will go there.	I've never been to the speedway, but if they come, I will go there.	883476	1471958515704	1471958515868	o	79
1789	18478	I've never been to the speedway, but if they come, I will go there.	I've never been to the speedway, but if they come, I will go there.	883480	1471958515886	1471958515998	 	32
1789	18478	I've never been to the speedway, but if they come, I will go there.	I've never been to the speedway, but if they come, I will go there.	883523	1471958516056	1471958516168	t	84
1789	18478	I've never been to the speedway, but if they come, I will go there.	I've never been to the speedway, but if they come, I will go there.	883525	1471958516280	1471958516405	h	72
1789	18478	I've never been to the speedway, but if they come, I will go there.	I've never been to the speedway, but if they come, I will go there.	883528	1471958516409	1471958516553	e	69
1789	18478	I've never been to the speedway, but if they come, I will go there.	I've never been to the speedway, but if they come, I will go there.	883532	1471958516506	1471958516636	 	32
1789	18478	I've never been to the speedway, but if they come, I will go there.	I've never been to the speedway, but if they come, I will go there.	883537	1471958516950	1471958517150	BKSP	8
1789	18478	I've never been to the speedway, but if they come, I will go there.	I've never been to the speedway, but if they come, I will go there.	883542	1471958517153	1471958517302	r	82
1789	18478	I've never been to the speedway, but if they come, I will go there.	I've never been to the speedway, but if they come, I will go there.	883585	1471958517383	1471958517558	e	69
1789	18478	I've never been to the speedway, but if they come, I will go there.	I've never been to the speedway, but if they come, I will go there.	883590	1471958517948	1471958518075	.	190
1789	18499	We're working with the speedway.	We're working with the speedway.	883772	1471958520981	1471958521251	CAPS_LOCK	20
1789	18499	We're working with the speedway.	We're working with the speedway.	883775	1471958521238	1471958521404	W	87
1789	18499	We're working with the speedway.	We're working with the speedway.	883778	1471958521394	1471958521605	CAPS_LOCK	20
1789	18499	We're working with the speedway.	We're working with the speedway.	883782	1471958521541	1471958521719	e	69
1789	18499	We're working with the speedway.	We're working with the speedway.	883786	1471958521883	1471958522029	'	222
1789	18499	We're working with the speedway.	We're working with the speedway.	883792	1471958522073	1471958522208	r	82
1789	18499	We're working with the speedway.	We're working with the speedway.	883796	1471958522281	1471958522425	e	69
1789	18499	We're working with the speedway.	We're working with the speedway.	883831	1471958522391	1471958522505	 	32
1789	18499	We're working with the speedway.	We're working with the speedway.	883833	1471958522862	1471958523035	w	87
1789	18499	We're working with the speedway.	We're working with the speedway.	883836	1471958523037	1471958523165	o	79
1789	18499	We're working with the speedway.	We're working with the speedway.	883839	1471958523423	1471958523601	r	82
1789	18499	We're working with the speedway.	We're working with the speedway.	883844	1471958523584	1471958523721	k	75
1789	18499	We're working with the speedway.	We're working with the speedway.	883882	1471958523703	1471958523844	i	73
1789	18499	We're working with the speedway.	We're working with the speedway.	883887	1471958523851	1471958523978	n	78
1789	18499	We're working with the speedway.	We're working with the speedway.	883891	1471958524056	1471958524159	g	71
1789	18499	We're working with the speedway.	We're working with the speedway.	883894	1471958524218	1471958524334	 	32
1789	18499	We're working with the speedway.	We're working with the speedway.	883897	1471958524908	1471958525081	w	87
1789	18499	We're working with the speedway.	We're working with the speedway.	883917	1471958525018	1471958525142	i	73
1789	18499	We're working with the speedway.	We're working with the speedway.	883919	1471958525204	1471958525318	t	84
1789	18499	We're working with the speedway.	We're working with the speedway.	883921	1471958525396	1471958525553	h	72
1789	18499	We're working with the speedway.	We're working with the speedway.	883923	1471958525584	1471958525641	 	32
1789	18499	We're working with the speedway.	We're working with the speedway.	883924	1471958525669	1471958525763	t	84
1789	18499	We're working with the speedway.	We're working with the speedway.	883925	1471958525831	1471958525981	h	69
1789	18499	We're working with the speedway.	We're working with the speedway.	883952	1471958526003	1471958526117	 	32
1789	18499	We're working with the speedway.	We're working with the speedway.	883955	1471958526411	1471958526561	s	83
1789	18499	We're working with the speedway.	We're working with the speedway.	883960	1471958526563	1471958526721	p	80
1789	18499	We're working with the speedway.	We're working with the speedway.	883962	1471958526681	1471958526821	e	69
1789	18499	We're working with the speedway.	We're working with the speedway.	883964	1471958526853	1471958526999	e	69
1789	18499	We're working with the speedway.	We're working with the speedway.	884008	1471958527089	1471958527247	d	68
1789	18499	We're working with the speedway.	We're working with the speedway.	884011	1471958527269	1471958527450	a	65
1789	18499	We're working with the speedway.	We're working with the speedway.	884016	1471958527577	1471958527741	w	87
1789	18499	We're working with the speedway.	We're working with the speedway.	884021	1471958527774	1471958527939	a	65
1789	18499	We're working with the speedway.	We're working with the speedway.	884024	1471958528443	1471958528549	y	89
1789	18499	We're working with the speedway.	We're working with the speedway.	884133	1471958529226	1471958529371	BKSP	8
1789	18499	We're working with the speedway.	We're working with the speedway.	884136	1471958529426	1471958530261	BKSP	8
1789	18499	We're working with the speedway.	We're working with the speedway.	884139	1471958530861	1471958530979	h	72
1789	18499	We're working with the speedway.	We're working with the speedway.	884142	1471958530934	1471958531089	e	69
1789	18499	We're working with the speedway.	We're working with the speedway.	884143	1471958531031	1471958531134	 	32
1789	18499	We're working with the speedway.	We're working with the speedway.	884145	1471958531223	1471958531364	s	83
1789	18499	We're working with the speedway.	We're working with the speedway.	884150	1471958531441	1471958531576	e	69
1789	18499	We're working with the speedway.	We're working with the speedway.	884272	1471958531897	1471958532051	BKSP	8
1789	18499	We're working with the speedway.	We're working with the speedway.	884273	1471958532119	1471958532255	p	80
1789	18499	We're working with the speedway.	We're working with the speedway.	884274	1471958532229	1471958532361	e	69
1789	18499	We're working with the speedway.	We're working with the speedway.	884275	1471958532409	1471958532529	e	69
1789	18499	We're working with the speedway.	We're working with the speedway.	884278	1471958532621	1471958532749	d	68
1789	18499	We're working with the speedway.	We're working with the speedway.	884281	1471958533513	1471958533652	w	87
1789	18499	We're working with the speedway.	We're working with the speedway.	884361	1471958533736	1471958533871	a	65
1789	18499	We're working with the speedway.	We're working with the speedway.	884364	1471958533836	1471958533949	y	89
1789	18499	We're working with the speedway.	We're working with the speedway.	884367	1471958534244	1471958534404	.	190
1789	18511	Now I know about them.	Now I know about them.	884636	1471958538253	1471958538389	CAPS_LOCK	20
1789	18511	Now I know about them.	Now I know about them.	884637	1471958538401	1471958538513	N	78
1789	18511	Now I know about them.	Now I know about them.	884640	1471958538484	1471958538799	CAPS_LOCK	20
1789	18511	Now I know about them.	Now I know about them.	884638	1471958538535	1471958538720	o	79
1789	18511	Now I know about them.	Now I know about them.	884642	1471958538931	1471958539111	w	87
1789	18511	Now I know about them.	Now I know about them.	884646	1471958539071	1471958539192	 	32
1789	18511	Now I know about them.	Now I know about them.	884652	1471958539218	1471958539400	i	73
1789	18511	Now I know about them.	Now I know about them.	884716	1471958539761	1471958539863	 	32
1789	18511	Now I know about them.	Now I know about them.	884718	1471958540224	1471958540313	BKSP	8
1789	18511	Now I know about them.	Now I know about them.	884721	1471958540371	1471958540478	BKSP	8
1789	18511	Now I know about them.	Now I know about them.	884728	1471958540492	1471958540630	CAPS_LOCK	20
1789	18511	Now I know about them.	Now I know about them.	884734	1471958540598	1471958540739	I	73
1789	18511	Now I know about them.	Now I know about them.	884740	1471958540714	1471958540824	CAPS_LOCK	20
1789	18511	Now I know about them.	Now I know about them.	884745	1471958540778	1471958540885	 	32
1789	18511	Now I know about them.	Now I know about them.	884750	1471958540909	1471958541059	k	75
1789	18511	Now I know about them.	Now I know about them.	884867	1471958541029	1471958541168	n	78
1789	18511	Now I know about them.	Now I know about them.	884872	1471958541135	1471958541312	w	87
1789	18511	Now I know about them.	Now I know about them.	884877	1471958541172	1471958541326	o	79
1789	18511	Now I know about them.	Now I know about them.	884881	1471958541345	1471958541445	 	32
1789	18511	Now I know about them.	Now I know about them.	884884	1471958542019	1471958542123	BKSP	8
1789	18511	Now I know about them.	Now I know about them.	884885	1471958542179	1471958542282	BKSP	8
1789	18511	Now I know about them.	Now I know about them.	884888	1471958542331	1471958542449	BKSP	8
1789	18511	Now I know about them.	Now I know about them.	884891	1471958542919	1471958543096	i	73
1789	18511	Now I know about them.	Now I know about them.	884894	1471958543249	1471958543398	BKSP	8
1789	18511	Now I know about them.	Now I know about them.	884897	1471958543453	1471958543564	o	79
1789	18511	Now I know about them.	Now I know about them.	884927	1471958543517	1471958543639	w	87
1789	18511	Now I know about them.	Now I know about them.	884930	1471958543657	1471958543762	 	32
1789	18511	Now I know about them.	Now I know about them.	884939	1471958544024	1471958544195	a	65
1789	18511	Now I know about them.	Now I know about them.	884934	1471958544059	1471958544164	b	66
1789	18511	Now I know about them.	Now I know about them.	884945	1471958544226	1471958544397	o	79
1789	18511	Now I know about them.	Now I know about them.	884995	1471958544369	1471958544482	u	85
1789	18511	Now I know about them.	Now I know about them.	885000	1471958544566	1471958544685	t	84
1789	18511	Now I know about them.	Now I know about them.	885004	1471958544777	1471958544889	 	32
1789	18511	Now I know about them.	Now I know about them.	885011	1471958544981	1471958545084	t	84
1789	18511	Now I know about them.	Now I know about them.	885016	1471958545184	1471958545293	h	72
1789	18511	Now I know about them.	Now I know about them.	885024	1471958545422	1471958545565	m	77
1789	18511	Now I know about them.	Now I know about them.	885073	1471958545773	1471958545923	BKSP	8
1789	18511	Now I know about them.	Now I know about them.	885076	1471958545903	1471958546090	e	69
1789	18511	Now I know about them.	Now I know about them.	885079	1471958546082	1471958546279	n	78
1789	18511	Now I know about them.	Now I know about them.	885081	1471958546502	1471958546652	BKSP	8
1789	18511	Now I know about them.	Now I know about them.	885086	1471958546839	1471958547002	m	77
1789	18511	Now I know about them.	Now I know about them.	885088	1471958547091	1471958547214	.	190
1789	18523	Would you mind taking the lead on this?	Would you mind taking the lead on this?	885263	1471958550662	1471958550896	CAPS_LOCK	20
1789	18523	Would you mind taking the lead on this?	Would you mind taking the lead on this?	885264	1471958550854	1471958551069	W	87
1789	18523	Would you mind taking the lead on this?	Would you mind taking the lead on this?	885266	1471958551029	1471958551249	CAPS_LOCK	20
1789	18523	Would you mind taking the lead on this?	Would you mind taking the lead on this?	885269	1471958551189	1471958551366	o	79
1789	18523	Would you mind taking the lead on this?	Would you mind taking the lead on this?	885272	1471958551313	1471958551426	u	85
1789	18523	Would you mind taking the lead on this?	Would you mind taking the lead on this?	885276	1471958551521	1471958551674	l	76
1789	18523	Would you mind taking the lead on this?	Would you mind taking the lead on this?	885296	1471958551626	1471958551780	d	68
1789	18523	Would you mind taking the lead on this?	Would you mind taking the lead on this?	885298	1471958551699	1471958551817	 	32
1789	18523	Would you mind taking the lead on this?	Would you mind taking the lead on this?	885300	1471958551894	1471958551991	y	89
1789	18523	Would you mind taking the lead on this?	Would you mind taking the lead on this?	885307	1471958552058	1471958552249	o	79
1789	18523	Would you mind taking the lead on this?	Would you mind taking the lead on this?	885314	1471958552229	1471958552348	u	85
1789	18523	Would you mind taking the lead on this?	Would you mind taking the lead on this?	885320	1471958552414	1471958552542	 	32
1789	18523	Would you mind taking the lead on this?	Would you mind taking the lead on this?	885363	1471958552694	1471958552867	m	77
1789	18523	Would you mind taking the lead on this?	Would you mind taking the lead on this?	885366	1471958552879	1471958553047	i	73
1789	18523	Would you mind taking the lead on this?	Would you mind taking the lead on this?	885369	1471958553017	1471958553182	n	78
1789	18523	Would you mind taking the lead on this?	Would you mind taking the lead on this?	885373	1471958553077	1471958553200	d	68
1789	18523	Would you mind taking the lead on this?	Would you mind taking the lead on this?	885376	1471958553487	1471958553622	 	32
1789	18523	Would you mind taking the lead on this?	Would you mind taking the lead on this?	885423	1471958553779	1471958553883	t	84
1789	18523	Would you mind taking the lead on this?	Would you mind taking the lead on this?	885424	1471958553888	1471958554080	a	65
1789	18523	Would you mind taking the lead on this?	Would you mind taking the lead on this?	885427	1471958554180	1471958554240	k	75
1789	18523	Would you mind taking the lead on this?	Would you mind taking the lead on this?	885429	1471958554333	1471958554482	i	73
1789	18523	Would you mind taking the lead on this?	Would you mind taking the lead on this?	885431	1471958554520	1471958554633	n	78
1789	18523	Would you mind taking the lead on this?	Would you mind taking the lead on this?	885473	1471958554753	1471958554868	g	71
1789	18523	Would you mind taking the lead on this?	Would you mind taking the lead on this?	885477	1471958554882	1471958554987	 	32
1789	18523	Would you mind taking the lead on this?	Would you mind taking the lead on this?	885479	1471958555054	1471958555173	t	84
1789	18523	Would you mind taking the lead on this?	Would you mind taking the lead on this?	885481	1471958555263	1471958555463	h	72
1789	18523	Would you mind taking the lead on this?	Would you mind taking the lead on this?	885517	1471958555373	1471958555545	e	69
1789	18523	Would you mind taking the lead on this?	Would you mind taking the lead on this?	885518	1471958555505	1471958555633	 	32
1789	18523	Would you mind taking the lead on this?	Would you mind taking the lead on this?	885520	1471958555765	1471958555887	l	76
1789	18523	Would you mind taking the lead on this?	Would you mind taking the lead on this?	885522	1471958555866	1471958556028	e	69
1789	18523	Would you mind taking the lead on this?	Would you mind taking the lead on this?	885524	1471958556107	1471958556340	a	65
1789	18523	Would you mind taking the lead on this?	Would you mind taking the lead on this?	885584	1471958556285	1471958556455	d	68
1789	18523	Would you mind taking the lead on this?	Would you mind taking the lead on this?	885587	1471958556428	1471958556555	 	32
1789	18523	Would you mind taking the lead on this?	Would you mind taking the lead on this?	885589	1471958556761	1471958556918	n	78
1789	18523	Would you mind taking the lead on this?	Would you mind taking the lead on this?	885592	1471958557315	1471958557441	BKSP	8
1789	18523	Would you mind taking the lead on this?	Would you mind taking the lead on this?	885594	1471958557561	1471958557694	o	79
1789	18523	Would you mind taking the lead on this?	Would you mind taking the lead on this?	885596	1471958557710	1471958557818	n	78
1789	18523	Would you mind taking the lead on this?	Would you mind taking the lead on this?	885598	1471958557861	1471958557982	 	32
1789	18523	Would you mind taking the lead on this?	Would you mind taking the lead on this?	885656	1471958558033	1471958558144	t	84
1789	18523	Would you mind taking the lead on this?	Would you mind taking the lead on this?	885658	1471958558275	1471958558397	h	72
1789	18523	Would you mind taking the lead on this?	Would you mind taking the lead on this?	885663	1471958558438	1471958558548	i	73
1789	18523	Would you mind taking the lead on this?	Would you mind taking the lead on this?	885670	1471958558573	1471958558730	s	83
1789	18523	Would you mind taking the lead on this?	Would you mind taking the lead on this?	885675	1471958559178	1471958559304	SHIFT	16
1789	18523	Would you mind taking the lead on this?	Would you mind taking the lead on this?	885681	1471958559293	1471958559438	?	191
1789	18536	I cannot figure out where these prices are coming from.	I cannot figure out where these prices are coming from.	885873	1471958562354	1471958562511	CAPS_LOCK	20
1789	18536	I cannot figure out where these prices are coming from.	I cannot figure out where these prices are coming from.	885876	1471958562551	1471958562679	I	73
1789	18536	I cannot figure out where these prices are coming from.	I cannot figure out where these prices are coming from.	885879	1471958562626	1471958562821	CAPS_LOCK	20
1789	18536	I cannot figure out where these prices are coming from.	I cannot figure out where these prices are coming from.	885883	1471958562836	1471958562946	c	67
1789	18536	I cannot figure out where these prices are coming from.	I cannot figure out where these prices are coming from.	885886	1471958562929	1471958563134	a	65
1789	18536	I cannot figure out where these prices are coming from.	I cannot figure out where these prices are coming from.	885889	1471958563307	1471958563434	n	78
1789	18536	I cannot figure out where these prices are coming from.	I cannot figure out where these prices are coming from.	885890	1471958563516	1471958563636	n	78
1789	18536	I cannot figure out where these prices are coming from.	I cannot figure out where these prices are coming from.	885981	1471958563794	1471958563974	o	79
1789	18536	I cannot figure out where these prices are coming from.	I cannot figure out where these prices are coming from.	885985	1471958564050	1471958564172	t	84
1789	18536	I cannot figure out where these prices are coming from.	I cannot figure out where these prices are coming from.	885988	1471958564244	1471958564357	 	32
1789	18536	I cannot figure out where these prices are coming from.	I cannot figure out where these prices are coming from.	885991	1471958564536	1471958565220	BKSP	8
1789	18536	I cannot figure out where these prices are coming from.	I cannot figure out where these prices are coming from.	885996	1471958565694	1471958565807	 	32
1789	18536	I cannot figure out where these prices are coming from.	I cannot figure out where these prices are coming from.	886124	1471958565802	1471958566015	a	65
1789	18536	I cannot figure out where these prices are coming from.	I cannot figure out where these prices are coming from.	886128	1471958566282	1471958566422	NUM_LK	144
1789	18536	I cannot figure out where these prices are coming from.	I cannot figure out where these prices are coming from.	886132	1471958566402	1471958566597	c	67
1789	18536	I cannot figure out where these prices are coming from.	I cannot figure out where these prices are coming from.	886137	1471958566566	1471958566795	a	65
1789	18536	I cannot figure out where these prices are coming from.	I cannot figure out where these prices are coming from.	886140	1471958566867	1471958566984	NUM_LK	144
1789	18536	I cannot figure out where these prices are coming from.	I cannot figure out where these prices are coming from.	886143	1471958567049	1471958567139	BKSP	8
1789	18536	I cannot figure out where these prices are coming from.	I cannot figure out where these prices are coming from.	886146	1471958567231	1471958567284	BKSP	8
1789	18536	I cannot figure out where these prices are coming from.	I cannot figure out where these prices are coming from.	886149	1471958567638	1471958567728	BKSP	8
1789	18536	I cannot figure out where these prices are coming from.	I cannot figure out where these prices are coming from.	886151	1471958567739	1471958567904	c	67
1789	18536	I cannot figure out where these prices are coming from.	I cannot figure out where these prices are coming from.	886153	1471958567913	1471958568082	a	65
1789	18536	I cannot figure out where these prices are coming from.	I cannot figure out where these prices are coming from.	886156	1471958568454	1471958568544	n	78
1789	18536	I cannot figure out where these prices are coming from.	I cannot figure out where these prices are coming from.	886226	1471958568629	1471958568732	n	78
1789	18536	I cannot figure out where these prices are coming from.	I cannot figure out where these prices are coming from.	886231	1471958568739	1471958568890	o	79
1789	18536	I cannot figure out where these prices are coming from.	I cannot figure out where these prices are coming from.	886234	1471958568923	1471958569052	y	89
1789	18536	I cannot figure out where these prices are coming from.	I cannot figure out where these prices are coming from.	886240	1471958569094	1471958569209	 	32
1789	18536	I cannot figure out where these prices are coming from.	I cannot figure out where these prices are coming from.	886242	1471958569547	1471958569665	BKSP	8
1789	18536	I cannot figure out where these prices are coming from.	I cannot figure out where these prices are coming from.	886245	1471958569702	1471958569825	BKSP	8
1789	18536	I cannot figure out where these prices are coming from.	I cannot figure out where these prices are coming from.	886249	1471958570161	1471958570275	t	84
1789	18536	I cannot figure out where these prices are coming from.	I cannot figure out where these prices are coming from.	886267	1471958570317	1471958570432	 	32
1789	18536	I cannot figure out where these prices are coming from.	I cannot figure out where these prices are coming from.	886270	1471958570418	1471958570558	f	70
1789	18536	I cannot figure out where these prices are coming from.	I cannot figure out where these prices are coming from.	886274	1471958570578	1471958570679	i	73
1789	18536	I cannot figure out where these prices are coming from.	I cannot figure out where these prices are coming from.	886280	1471958570768	1471958570928	g	71
1789	18536	I cannot figure out where these prices are coming from.	I cannot figure out where these prices are coming from.	886348	1471958570921	1471958571092	u	85
1789	18536	I cannot figure out where these prices are coming from.	I cannot figure out where these prices are coming from.	886350	1471958571126	1471958571273	r	82
1789	18536	I cannot figure out where these prices are coming from.	I cannot figure out where these prices are coming from.	886353	1471958571269	1471958571454	e	69
1789	18536	I cannot figure out where these prices are coming from.	I cannot figure out where these prices are coming from.	886357	1471958571424	1471958571548	 	32
1789	18536	I cannot figure out where these prices are coming from.	I cannot figure out where these prices are coming from.	886362	1471958572110	1471958572338	o	79
1789	18536	I cannot figure out where these prices are coming from.	I cannot figure out where these prices are coming from.	886396	1471958572304	1471958572412	u	85
1789	18536	I cannot figure out where these prices are coming from.	I cannot figure out where these prices are coming from.	886400	1471958572515	1471958572627	t	84
1789	18536	I cannot figure out where these prices are coming from.	I cannot figure out where these prices are coming from.	886404	1471958572642	1471958572750	 	32
1789	18536	I cannot figure out where these prices are coming from.	I cannot figure out where these prices are coming from.	886407	1471958572787	1471958572957	w	87
1789	18536	I cannot figure out where these prices are coming from.	I cannot figure out where these prices are coming from.	886411	1471958572906	1471958573042	h	72
1789	18536	I cannot figure out where these prices are coming from.	I cannot figure out where these prices are coming from.	886414	1471958573045	1471958573143	e	87
1789	18536	I cannot figure out where these prices are coming from.	I cannot figure out where these prices are coming from.	886451	1471958573297	1471958573424	r	82
1789	18536	I cannot figure out where these prices are coming from.	I cannot figure out where these prices are coming from.	886453	1471958573416	1471958573562	e	69
1789	18536	I cannot figure out where these prices are coming from.	I cannot figure out where these prices are coming from.	886454	1471958573565	1471958573686	 	32
1789	18536	I cannot figure out where these prices are coming from.	I cannot figure out where these prices are coming from.	886456	1471958573864	1471958573972	t	84
1789	18536	I cannot figure out where these prices are coming from.	I cannot figure out where these prices are coming from.	886457	1471958574056	1471958574160	h	72
1789	18536	I cannot figure out where these prices are coming from.	I cannot figure out where these prices are coming from.	886771	1471958574156	1471958574296	e	69
1789	18536	I cannot figure out where these prices are coming from.	I cannot figure out where these prices are coming from.	886775	1471958574364	1471958574486	s	83
1789	18536	I cannot figure out where these prices are coming from.	I cannot figure out where these prices are coming from.	886779	1471958574545	1471958574709	e	69
1789	18536	I cannot figure out where these prices are coming from.	I cannot figure out where these prices are coming from.	886783	1471958574859	1471958575036	s	83
1789	18536	I cannot figure out where these prices are coming from.	I cannot figure out where these prices are coming from.	886788	1471958575329	1471958575468	BKSP	8
1789	18536	I cannot figure out where these prices are coming from.	I cannot figure out where these prices are coming from.	886791	1471958575618	1471958575747	 	32
1789	18536	I cannot figure out where these prices are coming from.	I cannot figure out where these prices are coming from.	886793	1471958576390	1471958577080	ARW_LEFT	37
1789	18536	I cannot figure out where these prices are coming from.	I cannot figure out where these prices are coming from.	886795	1471958577193	1471958577295	ARW_LEFT	37
1789	18536	I cannot figure out where these prices are coming from.	I cannot figure out where these prices are coming from.	886800	1471958577380	1471958577469	ARW_LEFT	37
1789	18536	I cannot figure out where these prices are coming from.	I cannot figure out where these prices are coming from.	886804	1471958577563	1471958577643	ARW_LEFT	37
1789	18536	I cannot figure out where these prices are coming from.	I cannot figure out where these prices are coming from.	886811	1471958577816	1471958577922	ARW_LEFT	37
1789	18536	I cannot figure out where these prices are coming from.	I cannot figure out where these prices are coming from.	886818	1471958578262	1471958578397	NUM_LK	144
1789	18536	I cannot figure out where these prices are coming from.	I cannot figure out where these prices are coming from.	886822	1471958579065	1471958579167	BKSP	8
1789	18536	I cannot figure out where these prices are coming from.	I cannot figure out where these prices are coming from.	886826	1471958579287	1471958579417	BKSP	8
1789	18536	I cannot figure out where these prices are coming from.	I cannot figure out where these prices are coming from.	886829	1471958580073	1471958580221	ARW_RIGHT	39
1789	18536	I cannot figure out where these prices are coming from.	I cannot figure out where these prices are coming from.	886831	1471958581206	1471958581347	h	72
1789	18536	I cannot figure out where these prices are coming from.	I cannot figure out where these prices are coming from.	886880	1471958581459	1471958582421	ARW_RIGHT	39
1789	18536	I cannot figure out where these prices are coming from.	I cannot figure out where these prices are coming from.	886883	1471958582969	1471958583076	p	80
1789	18536	I cannot figure out where these prices are coming from.	I cannot figure out where these prices are coming from.	886886	1471958583134	1471958583264	r	82
1789	18536	I cannot figure out where these prices are coming from.	I cannot figure out where these prices are coming from.	886890	1471958583292	1471958583410	i	73
1789	18536	I cannot figure out where these prices are coming from.	I cannot figure out where these prices are coming from.	886892	1471958583534	1471958583667	c	67
1789	18536	I cannot figure out where these prices are coming from.	I cannot figure out where these prices are coming from.	886930	1471958583631	1471958583771	e	69
1789	18536	I cannot figure out where these prices are coming from.	I cannot figure out where these prices are coming from.	886935	1471958583833	1471958583991	s	83
1789	18536	I cannot figure out where these prices are coming from.	I cannot figure out where these prices are coming from.	886941	1471958583961	1471958584071	 	32
1789	18536	I cannot figure out where these prices are coming from.	I cannot figure out where these prices are coming from.	886945	1471958584336	1471958584532	a	65
1789	18536	I cannot figure out where these prices are coming from.	I cannot figure out where these prices are coming from.	886950	1471958584489	1471958584636	r	82
1789	18536	I cannot figure out where these prices are coming from.	I cannot figure out where these prices are coming from.	886985	1471958584584	1471958584706	e	69
1789	18536	I cannot figure out where these prices are coming from.	I cannot figure out where these prices are coming from.	886987	1471958584757	1471958584874	 	32
1789	18536	I cannot figure out where these prices are coming from.	I cannot figure out where these prices are coming from.	886989	1471958584926	1471958585099	c	67
1789	18536	I cannot figure out where these prices are coming from.	I cannot figure out where these prices are coming from.	886991	1471958585141	1471958585304	o	79
1789	18536	I cannot figure out where these prices are coming from.	I cannot figure out where these prices are coming from.	886994	1471958585315	1471958585468	m	77
1789	18536	I cannot figure out where these prices are coming from.	I cannot figure out where these prices are coming from.	886997	1471958585714	1471958585939	i	73
1789	18536	I cannot figure out where these prices are coming from.	I cannot figure out where these prices are coming from.	887031	1471958585893	1471958586022	n	78
1789	18536	I cannot figure out where these prices are coming from.	I cannot figure out where these prices are coming from.	887032	1471958586107	1471958586231	g	71
1789	18536	I cannot figure out where these prices are coming from.	I cannot figure out where these prices are coming from.	887033	1471958586284	1471958586409	 	32
1789	18536	I cannot figure out where these prices are coming from.	I cannot figure out where these prices are coming from.	887034	1471958586617	1471958586819	f	70
1789	18536	I cannot figure out where these prices are coming from.	I cannot figure out where these prices are coming from.	887037	1471958586762	1471958586931	r	82
1789	18536	I cannot figure out where these prices are coming from.	I cannot figure out where these prices are coming from.	887067	1471958586855	1471958587009	o	79
1789	18536	I cannot figure out where these prices are coming from.	I cannot figure out where these prices are coming from.	887069	1471958586964	1471958587101	m	77
1789	18536	I cannot figure out where these prices are coming from.	I cannot figure out where these prices are coming from.	887071	1471958587184	1471958587377	.	190
