PARTICIPANT_ID	TEST_SECTION_ID	SENTENCE	USER_INPUT	KEYSTROKE_ID	PRESS_TIME	RELEASE_TIME	LETTER	KEYCODE
1797	18375	He also suggested it would send a conflicting message to Geneva.	He also suggested it would send a conflicting message to Geneva.	877840	1471958407636	1471958407810	SHIFT	16
1797	18375	He also suggested it would send a conflicting message to Geneva.	He also suggested it would send a conflicting message to Geneva.	877844	1471958407714	1471958407890		72
1797	18375	He also suggested it would send a conflicting message to Geneva.	He also suggested it would send a conflicting message to Geneva.	877847	1471958407842	1471958408050		69
1797	18375	He also suggested it would send a conflicting message to Geneva.	He also suggested it would send a conflicting message to Geneva.	877849	1471958407970	1471958408114		32
1797	18375	He also suggested it would send a conflicting message to Geneva.	He also suggested it would send a conflicting message to Geneva.	877852	1471958408338	1471958408466		65
1797	18375	He also suggested it would send a conflicting message to Geneva.	He also suggested it would send a conflicting message to Geneva.	877871	1471958408402	1471958408498		76
1797	18375	He also suggested it would send a conflicting message to Geneva.	He also suggested it would send a conflicting message to Geneva.	877875	1471958408530	1471958408690		83
1797	18375	He also suggested it would send a conflicting message to Geneva.	He also suggested it would send a conflicting message to Geneva.	877880	1471958408578	1471958408708		79
1797	18375	He also suggested it would send a conflicting message to Geneva.	He also suggested it would send a conflicting message to Geneva.	877885	1471958408690	1471958408882		32
1797	18375	He also suggested it would send a conflicting message to Geneva.	He also suggested it would send a conflicting message to Geneva.	877888	1471958408834	1471958408994		83
1797	18375	He also suggested it would send a conflicting message to Geneva.	He also suggested it would send a conflicting message to Geneva.	877907	1471958408962	1471958409106		85
1797	18375	He also suggested it would send a conflicting message to Geneva.	He also suggested it would send a conflicting message to Geneva.	877909	1471958409106	1471958409169		71
1797	18375	He also suggested it would send a conflicting message to Geneva.	He also suggested it would send a conflicting message to Geneva.	877914	1471958409250	1471958409394		71
1797	18375	He also suggested it would send a conflicting message to Geneva.	He also suggested it would send a conflicting message to Geneva.	877916	1471958409377	1471958409538		69
1797	18375	He also suggested it would send a conflicting message to Geneva.	He also suggested it would send a conflicting message to Geneva.	877919	1471958409491	1471958409666		83
1797	18375	He also suggested it would send a conflicting message to Geneva.	He also suggested it would send a conflicting message to Geneva.	877964	1471958409634	1471958409842		84
1797	18375	He also suggested it would send a conflicting message to Geneva.	He also suggested it would send a conflicting message to Geneva.	877969	1471958410386	1471958410465		69
1797	18375	He also suggested it would send a conflicting message to Geneva.	He also suggested it would send a conflicting message to Geneva.	877973	1471958410562	1471958410705		68
1797	18375	He also suggested it would send a conflicting message to Geneva.	He also suggested it would send a conflicting message to Geneva.	877977	1471958410626	1471958410721		32
1797	18375	He also suggested it would send a conflicting message to Geneva.	He also suggested it would send a conflicting message to Geneva.	877981	1471958410722	1471958410890		73
1797	18375	He also suggested it would send a conflicting message to Geneva.	He also suggested it would send a conflicting message to Geneva.	877996	1471958410819	1471958410913		84
1797	18375	He also suggested it would send a conflicting message to Geneva.	He also suggested it would send a conflicting message to Geneva.	877998	1471958410892	1471958411056		32
1797	18375	He also suggested it would send a conflicting message to Geneva.	He also suggested it would send a conflicting message to Geneva.	878002	1471958410978	1471958411185		87
1797	18375	He also suggested it would send a conflicting message to Geneva.	He also suggested it would send a conflicting message to Geneva.	878006	1471958411032	1471958411185		79
1797	18375	He also suggested it would send a conflicting message to Geneva.	He also suggested it would send a conflicting message to Geneva.	878009	1471958411137	1471958411233		85
1797	18375	He also suggested it would send a conflicting message to Geneva.	He also suggested it would send a conflicting message to Geneva.	878012	1471958411299	1471958411410		76
1797	18375	He also suggested it would send a conflicting message to Geneva.	He also suggested it would send a conflicting message to Geneva.	878020	1471958411329	1471958411438		68
1797	18375	He also suggested it would send a conflicting message to Geneva.	He also suggested it would send a conflicting message to Geneva.	878026	1471958411414	1471958411524		32
1797	18375	He also suggested it would send a conflicting message to Geneva.	He also suggested it would send a conflicting message to Geneva.	878032	1471958411491	1471958411649		83
1797	18375	He also suggested it would send a conflicting message to Geneva.	He also suggested it would send a conflicting message to Geneva.	878038	1471958411585	1471958411650		69
1797	18375	He also suggested it would send a conflicting message to Geneva.	He also suggested it would send a conflicting message to Geneva.	878045	1471958411650	1471958411809		78
1797	18375	He also suggested it would send a conflicting message to Geneva.	He also suggested it would send a conflicting message to Geneva.	878066	1471958411761	1471958411873		68
1797	18375	He also suggested it would send a conflicting message to Geneva.	He also suggested it would send a conflicting message to Geneva.	878068	1471958411874	1471958411969		32
1797	18375	He also suggested it would send a conflicting message to Geneva.	He also suggested it would send a conflicting message to Geneva.	878070	1471958411953	1471958412113		65
1797	18375	He also suggested it would send a conflicting message to Geneva.	He also suggested it would send a conflicting message to Geneva.	878073	1471958412081	1471958412241		32
1797	18375	He also suggested it would send a conflicting message to Geneva.	He also suggested it would send a conflicting message to Geneva.	878076	1471958412209	1471958412369		67
1797	18375	He also suggested it would send a conflicting message to Geneva.	He also suggested it would send a conflicting message to Geneva.	878092	1471958412273	1471958412433		79
1797	18375	He also suggested it would send a conflicting message to Geneva.	He also suggested it would send a conflicting message to Geneva.	878095	1471958412385	1471958412514		78
1797	18375	He also suggested it would send a conflicting message to Geneva.	He also suggested it would send a conflicting message to Geneva.	878098	1471958412497	1471958412673		70
1797	18375	He also suggested it would send a conflicting message to Geneva.	He also suggested it would send a conflicting message to Geneva.	878101	1471958412609	1471958412721		76
1797	18375	He also suggested it would send a conflicting message to Geneva.	He also suggested it would send a conflicting message to Geneva.	878106	1471958412785	1471958412897		73
1797	18375	He also suggested it would send a conflicting message to Geneva.	He also suggested it would send a conflicting message to Geneva.	878125	1471958412865	1471958412961		67
1797	18375	He also suggested it would send a conflicting message to Geneva.	He also suggested it would send a conflicting message to Geneva.	878127	1471958413058	1471958413185		84
1797	18375	He also suggested it would send a conflicting message to Geneva.	He also suggested it would send a conflicting message to Geneva.	878130	1471958413089	1471958413329		73
1797	18375	He also suggested it would send a conflicting message to Geneva.	He also suggested it would send a conflicting message to Geneva.	878132	1471958413186	1471958413345		79
1797	18375	He also suggested it would send a conflicting message to Geneva.	He also suggested it would send a conflicting message to Geneva.	878134	1471958413265	1471958413425		78
1797	18375	He also suggested it would send a conflicting message to Geneva.	He also suggested it would send a conflicting message to Geneva.	878185	1471958413410	1471958413521		32
1797	18375	He also suggested it would send a conflicting message to Geneva.	He also suggested it would send a conflicting message to Geneva.	878187	1471958413553	1471958413713		77
1797	18375	He also suggested it would send a conflicting message to Geneva.	He also suggested it would send a conflicting message to Geneva.	878193	1471958413969	1471958414049		8
1797	18375	He also suggested it would send a conflicting message to Geneva.	He also suggested it would send a conflicting message to Geneva.	878200	1471958414113	1471958414178		8
1797	18375	He also suggested it would send a conflicting message to Geneva.	He also suggested it would send a conflicting message to Geneva.	878206	1471958414241	1471958414305		8
1797	18375	He also suggested it would send a conflicting message to Geneva.	He also suggested it would send a conflicting message to Geneva.	878213	1471958414371	1471958414465		8
1797	18375	He also suggested it would send a conflicting message to Geneva.	He also suggested it would send a conflicting message to Geneva.	878230	1471958414833	1471958414977		78
1797	18375	He also suggested it would send a conflicting message to Geneva.	He also suggested it would send a conflicting message to Geneva.	878232	1471958414929	1471958415057		71
1797	18375	He also suggested it would send a conflicting message to Geneva.	He also suggested it would send a conflicting message to Geneva.	878234	1471958415009	1471958415106		32
1797	18375	He also suggested it would send a conflicting message to Geneva.	He also suggested it would send a conflicting message to Geneva.	878236	1471958415106	1471958415297		77
1797	18375	He also suggested it would send a conflicting message to Geneva.	He also suggested it would send a conflicting message to Geneva.	878304	1471958415217	1471958415299		69
1797	18375	He also suggested it would send a conflicting message to Geneva.	He also suggested it would send a conflicting message to Geneva.	878306	1471958415393	1471958415489		83
1797	18375	He also suggested it would send a conflicting message to Geneva.	He also suggested it would send a conflicting message to Geneva.	878307	1471958415553	1471958415665		83
1797	18375	He also suggested it would send a conflicting message to Geneva.	He also suggested it would send a conflicting message to Geneva.	878308	1471958416113	1471958416193		8
1797	18375	He also suggested it would send a conflicting message to Geneva.	He also suggested it would send a conflicting message to Geneva.	878309	1471958416913	1471958417057		65
1797	18375	He also suggested it would send a conflicting message to Geneva.	He also suggested it would send a conflicting message to Geneva.	878340	1471958417026	1471958417121		71
1797	18375	He also suggested it would send a conflicting message to Geneva.	He also suggested it would send a conflicting message to Geneva.	878343	1471958417105	1471958417233		69
1797	18375	He also suggested it would send a conflicting message to Geneva.	He also suggested it would send a conflicting message to Geneva.	878345	1471958417185	1471958417297		32
1797	18375	He also suggested it would send a conflicting message to Geneva.	He also suggested it would send a conflicting message to Geneva.	878347	1471958417377	1471958417537		84
1797	18375	He also suggested it would send a conflicting message to Geneva.	He also suggested it would send a conflicting message to Geneva.	878348	1471958417490	1471958417665		79
1797	18375	He also suggested it would send a conflicting message to Geneva.	He also suggested it would send a conflicting message to Geneva.	878349	1471958417697	1471958417825		32
1797	18375	He also suggested it would send a conflicting message to Geneva.	He also suggested it would send a conflicting message to Geneva.	878386	1471958418033	1471958418225	SHIFT	16
1797	18375	He also suggested it would send a conflicting message to Geneva.	He also suggested it would send a conflicting message to Geneva.	878384	1471958418113	1471958418209		71
1797	18375	He also suggested it would send a conflicting message to Geneva.	He also suggested it would send a conflicting message to Geneva.	878388	1471958418225	1471958418353		69
1797	18375	He also suggested it would send a conflicting message to Geneva.	He also suggested it would send a conflicting message to Geneva.	878389	1471958418385	1471958418529		78
1797	18375	He also suggested it would send a conflicting message to Geneva.	He also suggested it would send a conflicting message to Geneva.	878390	1471958418514	1471958418609		69
1797	18375	He also suggested it would send a conflicting message to Geneva.	He also suggested it would send a conflicting message to Geneva.	878391	1471958418705	1471958418817		86
1797	18375	He also suggested it would send a conflicting message to Geneva.	He also suggested it would send a conflicting message to Geneva.	878401	1471958418913	1471958419105		65
1797	18375	He also suggested it would send a conflicting message to Geneva.	He also suggested it would send a conflicting message to Geneva.	878403	1471958419074	1471958419201		190
1797	18389	It's still going on - quite boring though.	It's still going on - quite boring though.	878572	1471958421265	1471958421441	SHIFT	16
1797	18389	It's still going on - quite boring though.	It's still going on - quite boring though.	878574	1471958421377	1471958421537		73
1797	18389	It's still going on - quite boring though.	It's still going on - quite boring though.	878579	1471958422257	1471958422368		222
1797	18389	It's still going on - quite boring though.	It's still going on - quite boring though.	878583	1471958422785	1471958422865		8
1797	18389	It's still going on - quite boring though.	It's still going on - quite boring though.	878588	1471958422944	1471958423056		84
1797	18389	It's still going on - quite boring though.	It's still going on - quite boring though.	878592	1471958423120	1471958423232		59
1797	18389	It's still going on - quite boring though.	It's still going on - quite boring though.	878622	1471958423200	1471958423392		83
1797	18389	It's still going on - quite boring though.	It's still going on - quite boring though.	878625	1471958423296	1471958423408		32
1797	18389	It's still going on - quite boring though.	It's still going on - quite boring though.	878628	1471958423504	1471958423632		83
1797	18389	It's still going on - quite boring though.	It's still going on - quite boring though.	878632	1471958423633	1471958423728		84
1797	18389	It's still going on - quite boring though.	It's still going on - quite boring though.	878635	1471958423936	1471958424000		8
1797	18389	It's still going on - quite boring though.	It's still going on - quite boring though.	878640	1471958424065	1471958424128		8
1797	18389	It's still going on - quite boring though.	It's still going on - quite boring though.	878694	1471958424209	1471958424256		8
1797	18389	It's still going on - quite boring though.	It's still going on - quite boring though.	878698	1471958424320	1471958424369		8
1797	18389	It's still going on - quite boring though.	It's still going on - quite boring though.	878701	1471958424432	1471958424544		8
1797	18389	It's still going on - quite boring though.	It's still going on - quite boring though.	878703	1471958425008	1471958425168		222
1797	18389	It's still going on - quite boring though.	It's still going on - quite boring though.	878720	1471958425121	1471958425280		83
1797	18389	It's still going on - quite boring though.	It's still going on - quite boring though.	878722	1471958425201	1471958425312		32
1797	18389	It's still going on - quite boring though.	It's still going on - quite boring though.	878725	1471958425372	1471958425504		83
1797	18389	It's still going on - quite boring though.	It's still going on - quite boring though.	878730	1471958425552	1471958425712		84
1797	18389	It's still going on - quite boring though.	It's still going on - quite boring though.	878735	1471958425680	1471958425744		73
1797	18389	It's still going on - quite boring though.	It's still going on - quite boring though.	878741	1471958425856	1471958425920		76
1797	18389	It's still going on - quite boring though.	It's still going on - quite boring though.	878752	1471958425984	1471958426096		76
1797	18389	It's still going on - quite boring though.	It's still going on - quite boring though.	878757	1471958426048	1471958426208		32
1797	18389	It's still going on - quite boring though.	It's still going on - quite boring though.	878761	1471958426208	1471958426368		71
1797	18389	It's still going on - quite boring though.	It's still going on - quite boring though.	878766	1471958426288	1471958426432		79
1797	18389	It's still going on - quite boring though.	It's still going on - quite boring though.	878822	1471958426385	1471958426624		73
1797	18389	It's still going on - quite boring though.	It's still going on - quite boring though.	878825	1471958426513	1471958426720		78
1797	18389	It's still going on - quite boring though.	It's still going on - quite boring though.	878832	1471958426624	1471958426784		71
1797	18389	It's still going on - quite boring though.	It's still going on - quite boring though.	878840	1471958427200	1471958427328		32
1797	18389	It's still going on - quite boring though.	It's still going on - quite boring though.	878848	1471958427328	1471958427504		79
1797	18389	It's still going on - quite boring though.	It's still going on - quite boring though.	878943	1471958427440	1471958427584		78
1797	18389	It's still going on - quite boring though.	It's still going on - quite boring though.	878945	1471958427872	1471958427984		32
1797	18389	It's still going on - quite boring though.	It's still going on - quite boring though.	878946	1471958428176	1471958428272		173
1797	18389	It's still going on - quite boring though.	It's still going on - quite boring though.	878947	1471958428336	1471958428464		32
1797	18389	It's still going on - quite boring though.	It's still going on - quite boring though.	878949	1471958428928	1471958429104		81
1797	18389	It's still going on - quite boring though.	It's still going on - quite boring though.	878972	1471958429072	1471958429200		85
1797	18389	It's still going on - quite boring though.	It's still going on - quite boring though.	878976	1471958429168	1471958429344		73
1797	18389	It's still going on - quite boring though.	It's still going on - quite boring though.	878981	1471958429296	1471958429408		84
1797	18389	It's still going on - quite boring though.	It's still going on - quite boring though.	878986	1471958429371	1471958429536		69
1797	18389	It's still going on - quite boring though.	It's still going on - quite boring though.	878990	1471958429488	1471958429600		32
1797	18389	It's still going on - quite boring though.	It's still going on - quite boring though.	878995	1471958429824	1471958429952		66
1797	18389	It's still going on - quite boring though.	It's still going on - quite boring though.	879009	1471958429953	1471958430112		79
1797	18389	It's still going on - quite boring though.	It's still going on - quite boring though.	879012	1471958430081	1471958430240		82
1797	18389	It's still going on - quite boring though.	It's still going on - quite boring though.	879015	1471958430304	1471958430496		73
1797	18389	It's still going on - quite boring though.	It's still going on - quite boring though.	879018	1471958430432	1471958430576		78
1797	18389	It's still going on - quite boring though.	It's still going on - quite boring though.	879030	1471958430496	1471958430624		71
1797	18389	It's still going on - quite boring though.	It's still going on - quite boring though.	879035	1471958430578	1471958430720		32
1797	18389	It's still going on - quite boring though.	It's still going on - quite boring though.	879038	1471958430768	1471958430880		84
1797	18389	It's still going on - quite boring though.	It's still going on - quite boring though.	879042	1471958430848	1471958430944		72
1797	18389	It's still going on - quite boring though.	It's still going on - quite boring though.	879046	1471958430944	1471958431072		79
1797	18389	It's still going on - quite boring though.	It's still going on - quite boring though.	879128	1471958431024	1471958431136		85
1797	18389	It's still going on - quite boring though.	It's still going on - quite boring though.	879132	1471958431120	1471958431264		71
1797	18389	It's still going on - quite boring though.	It's still going on - quite boring though.	879134	1471958431216	1471958431360		72
1797	18389	It's still going on - quite boring though.	It's still going on - quite boring though.	879140	1471958432528	1471958432640		190
1797	18407	Thank you for your support and generosity.	Thank you fo your support and generosity.	879240	1471958434560	1471958434703	SHIFT	16
1797	18407	Thank you for your support and generosity.	Thank you fo your support and generosity.	879244	1471958434640	1471958434767		84
1797	18407	Thank you for your support and generosity.	Thank you fo your support and generosity.	879249	1471958434751	1471958434847		72
1797	18407	Thank you for your support and generosity.	Thank you fo your support and generosity.	879253	1471958434848	1471958435039		65
1797	18407	Thank you for your support and generosity.	Thank you fo your support and generosity.	879255	1471958434928	1471958435071		78
1797	18407	Thank you for your support and generosity.	Thank you fo your support and generosity.	879272	1471958435040	1471958435199		75
1797	18407	Thank you for your support and generosity.	Thank you fo your support and generosity.	879275	1471958435103	1471958435215		32
1797	18407	Thank you for your support and generosity.	Thank you fo your support and generosity.	879279	1471958435279	1471958435392		89
1797	18407	Thank you for your support and generosity.	Thank you fo your support and generosity.	879282	1471958435392	1471958435535		79
1797	18407	Thank you for your support and generosity.	Thank you fo your support and generosity.	879285	1471958435489	1471958435615		85
1797	18407	Thank you for your support and generosity.	Thank you fo your support and generosity.	879342	1471958435583	1471958435711		32
1797	18407	Thank you for your support and generosity.	Thank you fo your support and generosity.	879343	1471958435712	1471958435839		70
1797	18407	Thank you for your support and generosity.	Thank you fo your support and generosity.	879344	1471958435775	1471958435887		79
1797	18407	Thank you for your support and generosity.	Thank you fo your support and generosity.	879346	1471958435888	1471958435999		32
1797	18407	Thank you for your support and generosity.	Thank you fo your support and generosity.	879345	1471958435919	1471958435983		82
1797	18407	Thank you for your support and generosity.	Thank you fo your support and generosity.	879347	1471958436607	1471958436671		8
1797	18407	Thank you for your support and generosity.	Thank you fo your support and generosity.	879369	1471958436975	1471958437055		89
1797	18407	Thank you for your support and generosity.	Thank you fo your support and generosity.	879372	1471958437056	1471958437199		79
1797	18407	Thank you for your support and generosity.	Thank you fo your support and generosity.	879376	1471958437151	1471958437263		85
1797	18407	Thank you for your support and generosity.	Thank you fo your support and generosity.	879382	1471958437199	1471958437327		82
1797	18407	Thank you for your support and generosity.	Thank you fo your support and generosity.	879400	1471958437295	1471958437439		32
1797	18407	Thank you for your support and generosity.	Thank you fo your support and generosity.	879403	1471958437392	1471958437583		83
1797	18407	Thank you for your support and generosity.	Thank you fo your support and generosity.	879407	1471958437535	1471958437599		85
1797	18407	Thank you for your support and generosity.	Thank you fo your support and generosity.	879412	1471958437663	1471958437727		80
1797	18407	Thank you for your support and generosity.	Thank you fo your support and generosity.	879414	1471958437775	1471958437887		80
1797	18407	Thank you for your support and generosity.	Thank you fo your support and generosity.	879436	1471958437855	1471958438047		79
1797	18407	Thank you for your support and generosity.	Thank you fo your support and generosity.	879432	1471958437967	1471958438047		82
1797	18407	Thank you for your support and generosity.	Thank you fo your support and generosity.	879441	1471958438127	1471958438207		84
1797	18407	Thank you for your support and generosity.	Thank you fo your support and generosity.	879445	1471958438159	1471958438288		32
1797	18407	Thank you for your support and generosity.	Thank you fo your support and generosity.	879450	1471958438288	1471958438415		65
1797	18407	Thank you for your support and generosity.	Thank you fo your support and generosity.	879494	1471958438371	1471958438511		78
1797	18407	Thank you for your support and generosity.	Thank you fo your support and generosity.	879495	1471958438431	1471958438608		68
1797	18407	Thank you for your support and generosity.	Thank you fo your support and generosity.	879497	1471958438511	1471958438623		32
1797	18407	Thank you for your support and generosity.	Thank you fo your support and generosity.	879499	1471958438687	1471958438800		71
1797	18407	Thank you for your support and generosity.	Thank you fo your support and generosity.	879501	1471958438847	1471958438975		69
1797	18407	Thank you for your support and generosity.	Thank you fo your support and generosity.	879503	1471958439040	1471958439199		78
1797	18407	Thank you for your support and generosity.	Thank you fo your support and generosity.	879542	1471958439151	1471958439311		69
1797	18407	Thank you for your support and generosity.	Thank you fo your support and generosity.	879544	1471958439247	1471958439375		82
1797	18407	Thank you for your support and generosity.	Thank you fo your support and generosity.	879547	1471958439967	1471958440079		79
1797	18407	Thank you for your support and generosity.	Thank you fo your support and generosity.	879550	1471958440159	1471958440337		83
1797	18407	Thank you for your support and generosity.	Thank you fo your support and generosity.	879554	1471958440319	1471958440479		73
1797	18407	Thank you for your support and generosity.	Thank you fo your support and generosity.	879567	1471958440463	1471958440623		84
1797	18407	Thank you for your support and generosity.	Thank you fo your support and generosity.	879570	1471958440559	1471958440671		89
1797	18407	Thank you for your support and generosity.	Thank you fo your support and generosity.	879571	1471958440767	1471958440879		190
1797	18415	But his father likes what he sees from his son's engine.	But his father likes what he sees from hsi son's engine.	879649	1471958442735	1471958442879	SHIFT	16
1797	18415	But his father likes what he sees from his son's engine.	But his father likes what he sees from hsi son's engine.	879651	1471958442831	1471958442959		66
1797	18415	But his father likes what he sees from his son's engine.	But his father likes what he sees from hsi son's engine.	879654	1471958442991	1471958443103		85
1797	18415	But his father likes what he sees from his son's engine.	But his father likes what he sees from hsi son's engine.	879657	1471958443087	1471958443247		84
1797	18415	But his father likes what he sees from his son's engine.	But his father likes what he sees from hsi son's engine.	879659	1471958443151	1471958443279		32
1797	18415	But his father likes what he sees from his son's engine.	But his father likes what he sees from hsi son's engine.	879663	1471958443311	1471958443471		72
1797	18415	But his father likes what he sees from his son's engine.	But his father likes what he sees from hsi son's engine.	879671	1471958443439	1471958443551		73
1797	18415	But his father likes what he sees from his son's engine.	But his father likes what he sees from hsi son's engine.	879674	1471958443474	1471958443599		83
1797	18415	But his father likes what he sees from his son's engine.	But his father likes what he sees from hsi son's engine.	879677	1471958443551	1471958443663		32
1797	18415	But his father likes what he sees from his son's engine.	But his father likes what he sees from hsi son's engine.	879683	1471958443663	1471958443791		70
1797	18415	But his father likes what he sees from his son's engine.	But his father likes what he sees from hsi son's engine.	879687	1471958443775	1471958443919		65
1797	18415	But his father likes what he sees from his son's engine.	But his father likes what he sees from hsi son's engine.	879710	1471958443887	1471958443967		84
1797	18415	But his father likes what he sees from his son's engine.	But his father likes what he sees from hsi son's engine.	879716	1471958443935	1471958444079		72
1797	18415	But his father likes what he sees from his son's engine.	But his father likes what he sees from hsi son's engine.	879721	1471958443999	1471958444127		69
1797	18415	But his father likes what he sees from his son's engine.	But his father likes what he sees from hsi son's engine.	879725	1471958444063	1471958444191		82
1797	18415	But his father likes what he sees from his son's engine.	But his father likes what he sees from hsi son's engine.	879728	1471958444127	1471958444239		32
1797	18415	But his father likes what he sees from his son's engine.	But his father likes what he sees from hsi son's engine.	879729	1471958444287	1471958444383		76
1797	18415	But his father likes what he sees from his son's engine.	But his father likes what he sees from hsi son's engine.	879736	1471958444431	1471958444511		73
1797	18415	But his father likes what he sees from his son's engine.	But his father likes what he sees from hsi son's engine.	879737	1471958444591	1471958444767		75
1797	18415	But his father likes what he sees from his son's engine.	But his father likes what he sees from hsi son's engine.	879740	1471958444719	1471958444911		69
1797	18415	But his father likes what he sees from his son's engine.	But his father likes what he sees from hsi son's engine.	879744	1471958444831	1471958445039		83
1797	18415	But his father likes what he sees from his son's engine.	But his father likes what he sees from hsi son's engine.	879824	1471958444943	1471958445071		32
1797	18415	But his father likes what he sees from his son's engine.	But his father likes what he sees from hsi son's engine.	879827	1471958445327	1471958445374		65
1797	18415	But his father likes what he sees from his son's engine.	But his father likes what he sees from hsi son's engine.	879832	1471958445440	1471958445583		87
1797	18415	But his father likes what he sees from his son's engine.	But his father likes what he sees from hsi son's engine.	879835	1471958445983	1471958446047		8
1797	18415	But his father likes what he sees from his son's engine.	But his father likes what he sees from hsi son's engine.	879839	1471958446126	1471958446158		8
1797	18415	But his father likes what he sees from his son's engine.	But his father likes what he sees from hsi son's engine.	879843	1471958446543	1471958446671		87
1797	18415	But his father likes what he sees from his son's engine.	But his father likes what he sees from hsi son's engine.	879875	1471958446672	1471958446814		72
1797	18415	But his father likes what he sees from his son's engine.	But his father likes what he sees from hsi son's engine.	879878	1471958446783	1471958446894		65
1797	18415	But his father likes what he sees from his son's engine.	But his father likes what he sees from hsi son's engine.	879883	1471958446831	1471958446990		84
1797	18415	But his father likes what he sees from his son's engine.	But his father likes what he sees from hsi son's engine.	879888	1471958446927	1471958447023		32
1797	18415	But his father likes what he sees from his son's engine.	But his father likes what he sees from hsi son's engine.	879891	1471958447103	1471958447278		72
1797	18415	But his father likes what he sees from his son's engine.	But his father likes what he sees from hsi son's engine.	879936	1471958447263	1471958447422		69
1797	18415	But his father likes what he sees from his son's engine.	But his father likes what he sees from hsi son's engine.	879939	1471958447488	1471958447614		32
1797	18415	But his father likes what he sees from his son's engine.	But his father likes what he sees from hsi son's engine.	879942	1471958447774	1471958447854		83
1797	18415	But his father likes what he sees from his son's engine.	But his father likes what he sees from hsi son's engine.	879946	1471958448078	1471958448158		69
1797	18415	But his father likes what he sees from his son's engine.	But his father likes what he sees from hsi son's engine.	879950	1471958448240	1471958448334		69
1797	18415	But his father likes what he sees from his son's engine.	But his father likes what he sees from hsi son's engine.	879955	1471958448398	1471958448606		83
1797	18415	But his father likes what he sees from his son's engine.	But his father likes what he sees from hsi son's engine.	879966	1471958448510	1471958448654		32
1797	18415	But his father likes what he sees from his son's engine.	But his father likes what he sees from hsi son's engine.	879968	1471958448654	1471958448766		70
1797	18415	But his father likes what he sees from his son's engine.	But his father likes what he sees from hsi son's engine.	879970	1471958448830	1471958448974		82
1797	18415	But his father likes what he sees from his son's engine.	But his father likes what he sees from hsi son's engine.	879971	1471958448910	1471958449054		79
1797	18415	But his father likes what he sees from his son's engine.	But his father likes what he sees from hsi son's engine.	879972	1471958449055	1471958449134		77
1797	18415	But his father likes what he sees from his son's engine.	But his father likes what he sees from hsi son's engine.	879991	1471958449086	1471958449214		32
1797	18415	But his father likes what he sees from his son's engine.	But his father likes what he sees from hsi son's engine.	879998	1471958449230	1471958449391		72
1797	18415	But his father likes what he sees from his son's engine.	But his father likes what he sees from hsi son's engine.	880006	1471958449358	1471958449502		83
1797	18415	But his father likes what he sees from his son's engine.	But his father likes what he sees from hsi son's engine.	880011	1471958449471	1471958449582		32
1797	18415	But his father likes what he sees from his son's engine.	But his father likes what he sees from hsi son's engine.	880015	1471958449598	1471958449742		83
1797	18415	But his father likes what he sees from his son's engine.	But his father likes what he sees from hsi son's engine.	880034	1471958449678	1471958449822		79
1797	18415	But his father likes what he sees from his son's engine.	But his father likes what he sees from hsi son's engine.	880035	1471958449774	1471958449918		78
1797	18415	But his father likes what he sees from his son's engine.	But his father likes what he sees from hsi son's engine.	880036	1471958449886	1471958450063		222
1797	18415	But his father likes what he sees from his son's engine.	But his father likes what he sees from hsi son's engine.	880042	1471958449998	1471958450190		83
1797	18415	But his father likes what he sees from his son's engine.	But his father likes what he sees from hsi son's engine.	880039	1471958450078	1471958450190		32
1797	18415	But his father likes what he sees from his son's engine.	But his father likes what he sees from hsi son's engine.	880045	1471958450542	1471958450702		69
1797	18415	But his father likes what he sees from his son's engine.	But his father likes what he sees from hsi son's engine.	880082	1471958450798	1471958450974		78
1797	18415	But his father likes what he sees from his son's engine.	But his father likes what he sees from hsi son's engine.	880084	1471958451038	1471958451182		71
1797	18415	But his father likes what he sees from his son's engine.	But his father likes what he sees from hsi son's engine.	880094	1471958451167	1471958451294		73
1797	18415	But his father likes what he sees from his son's engine.	But his father likes what he sees from hsi son's engine.	880101	1471958451358	1471958451518		78
1797	18415	But his father likes what he sees from his son's engine.	But his father likes what he sees from hsi son's engine.	880135	1471958451454	1471958451630		69
1797	18415	But his father likes what he sees from his son's engine.	But his father likes what he sees from hsi son's engine.	880139	1471958451710	1471958451838		190
1797	18429	World Cup fans at Stanford Stadium are almost certain to be fenced in.	Wold Cup fans at Stanford Stadium are almost certain to be fenced in.	880286	1471958453582	1471958453710	SHIFT	16
1797	18429	World Cup fans at Stanford Stadium are almost certain to be fenced in.	Wold Cup fans at Stanford Stadium are almost certain to be fenced in.	880291	1471958453646	1471958453854		87
1797	18429	World Cup fans at Stanford Stadium are almost certain to be fenced in.	Wold Cup fans at Stanford Stadium are almost certain to be fenced in.	880294	1471958453790	1471958453870		79
1797	18429	World Cup fans at Stanford Stadium are almost certain to be fenced in.	Wold Cup fans at Stanford Stadium are almost certain to be fenced in.	880300	1471958453966	1471958454094		76
1797	18429	World Cup fans at Stanford Stadium are almost certain to be fenced in.	Wold Cup fans at Stanford Stadium are almost certain to be fenced in.	880304	1471958454014	1471958454206		68
1797	18429	World Cup fans at Stanford Stadium are almost certain to be fenced in.	Wold Cup fans at Stanford Stadium are almost certain to be fenced in.	880348	1471958454110	1471958454238		32
1797	18429	World Cup fans at Stanford Stadium are almost certain to be fenced in.	Wold Cup fans at Stanford Stadium are almost certain to be fenced in.	880353	1471958454254	1471958454398	SHIFT	16
1797	18429	World Cup fans at Stanford Stadium are almost certain to be fenced in.	Wold Cup fans at Stanford Stadium are almost certain to be fenced in.	880358	1471958454350	1471958454542		67
1797	18429	World Cup fans at Stanford Stadium are almost certain to be fenced in.	Wold Cup fans at Stanford Stadium are almost certain to be fenced in.	880362	1471958454510	1471958454670		85
1797	18429	World Cup fans at Stanford Stadium are almost certain to be fenced in.	Wold Cup fans at Stanford Stadium are almost certain to be fenced in.	880366	1471958454750	1471958454878		80
1797	18429	World Cup fans at Stanford Stadium are almost certain to be fenced in.	Wold Cup fans at Stanford Stadium are almost certain to be fenced in.	880367	1471958455214	1471958455358		32
1797	18429	World Cup fans at Stanford Stadium are almost certain to be fenced in.	Wold Cup fans at Stanford Stadium are almost certain to be fenced in.	880369	1471958455518	1471958455646		70
1797	18429	World Cup fans at Stanford Stadium are almost certain to be fenced in.	Wold Cup fans at Stanford Stadium are almost certain to be fenced in.	880399	1471958455710	1471958455854		65
1797	18429	World Cup fans at Stanford Stadium are almost certain to be fenced in.	Wold Cup fans at Stanford Stadium are almost certain to be fenced in.	880406	1471958455838	1471958455998		78
1797	18429	World Cup fans at Stanford Stadium are almost certain to be fenced in.	Wold Cup fans at Stanford Stadium are almost certain to be fenced in.	880411	1471958455934	1471958456110		83
1797	18429	World Cup fans at Stanford Stadium are almost certain to be fenced in.	Wold Cup fans at Stanford Stadium are almost certain to be fenced in.	880416	1471958455998	1471958456126		32
1797	18429	World Cup fans at Stanford Stadium are almost certain to be fenced in.	Wold Cup fans at Stanford Stadium are almost certain to be fenced in.	880422	1471958456222	1471958456377		65
1797	18429	World Cup fans at Stanford Stadium are almost certain to be fenced in.	Wold Cup fans at Stanford Stadium are almost certain to be fenced in.	880469	1471958456350	1471958456494		84
1797	18429	World Cup fans at Stanford Stadium are almost certain to be fenced in.	Wold Cup fans at Stanford Stadium are almost certain to be fenced in.	880474	1471958456462	1471958456590		32
1797	18429	World Cup fans at Stanford Stadium are almost certain to be fenced in.	Wold Cup fans at Stanford Stadium are almost certain to be fenced in.	880482	1471958456686	1471958456862	SHIFT	16
1797	18429	World Cup fans at Stanford Stadium are almost certain to be fenced in.	Wold Cup fans at Stanford Stadium are almost certain to be fenced in.	880478	1471958456766	1471958456830		83
1797	18429	World Cup fans at Stanford Stadium are almost certain to be fenced in.	Wold Cup fans at Stanford Stadium are almost certain to be fenced in.	880487	1471958456846	1471958456943		84
1797	18429	World Cup fans at Stanford Stadium are almost certain to be fenced in.	Wold Cup fans at Stanford Stadium are almost certain to be fenced in.	880489	1471958456958	1471958457118		65
1797	18429	World Cup fans at Stanford Stadium are almost certain to be fenced in.	Wold Cup fans at Stanford Stadium are almost certain to be fenced in.	880514	1471958457070	1471958457230		78
1797	18429	World Cup fans at Stanford Stadium are almost certain to be fenced in.	Wold Cup fans at Stanford Stadium are almost certain to be fenced in.	880516	1471958457182	1471958457262		68
1797	18429	World Cup fans at Stanford Stadium are almost certain to be fenced in.	Wold Cup fans at Stanford Stadium are almost certain to be fenced in.	880521	1471958457246	1471958457454		70
1797	18429	World Cup fans at Stanford Stadium are almost certain to be fenced in.	Wold Cup fans at Stanford Stadium are almost certain to be fenced in.	880528	1471958457614	1471958457678		8
1797	18429	World Cup fans at Stanford Stadium are almost certain to be fenced in.	Wold Cup fans at Stanford Stadium are almost certain to be fenced in.	880534	1471958457758	1471958457806		8
1797	18429	World Cup fans at Stanford Stadium are almost certain to be fenced in.	Wold Cup fans at Stanford Stadium are almost certain to be fenced in.	880541	1471958457853	1471958457918		8
1797	18429	World Cup fans at Stanford Stadium are almost certain to be fenced in.	Wold Cup fans at Stanford Stadium are almost certain to be fenced in.	880587	1471958457998	1471958458030		8
1797	18429	World Cup fans at Stanford Stadium are almost certain to be fenced in.	Wold Cup fans at Stanford Stadium are almost certain to be fenced in.	880591	1471958458094	1471958458190		8
1797	18429	World Cup fans at Stanford Stadium are almost certain to be fenced in.	Wold Cup fans at Stanford Stadium are almost certain to be fenced in.	880595	1471958458526	1471958458638		84
1797	18429	World Cup fans at Stanford Stadium are almost certain to be fenced in.	Wold Cup fans at Stanford Stadium are almost certain to be fenced in.	880600	1471958458638	1471958458782		65
1797	18429	World Cup fans at Stanford Stadium are almost certain to be fenced in.	Wold Cup fans at Stanford Stadium are almost certain to be fenced in.	880624	1471958458733	1471958458893		78
1797	18429	World Cup fans at Stanford Stadium are almost certain to be fenced in.	Wold Cup fans at Stanford Stadium are almost certain to be fenced in.	880628	1471958458878	1471958459022		70
1797	18429	World Cup fans at Stanford Stadium are almost certain to be fenced in.	Wold Cup fans at Stanford Stadium are almost certain to be fenced in.	880631	1471958459022	1471958459149		79
1797	18429	World Cup fans at Stanford Stadium are almost certain to be fenced in.	Wold Cup fans at Stanford Stadium are almost certain to be fenced in.	880634	1471958459102	1471958459181		82
1797	18429	World Cup fans at Stanford Stadium are almost certain to be fenced in.	Wold Cup fans at Stanford Stadium are almost certain to be fenced in.	880639	1471958459261	1471958459437		68
1797	18429	World Cup fans at Stanford Stadium are almost certain to be fenced in.	Wold Cup fans at Stanford Stadium are almost certain to be fenced in.	880671	1471958459373	1471958459485		32
1797	18429	World Cup fans at Stanford Stadium are almost certain to be fenced in.	Wold Cup fans at Stanford Stadium are almost certain to be fenced in.	880677	1471958459630	1471958459789	SHIFT	16
1797	18429	World Cup fans at Stanford Stadium are almost certain to be fenced in.	Wold Cup fans at Stanford Stadium are almost certain to be fenced in.	880674	1471958459694	1471958459773		83
1797	18429	World Cup fans at Stanford Stadium are almost certain to be fenced in.	Wold Cup fans at Stanford Stadium are almost certain to be fenced in.	880680	1471958459790	1471958459949		84
1797	18429	World Cup fans at Stanford Stadium are almost certain to be fenced in.	Wold Cup fans at Stanford Stadium are almost certain to be fenced in.	880683	1471958459965	1471958460093		65
1797	18429	World Cup fans at Stanford Stadium are almost certain to be fenced in.	Wold Cup fans at Stanford Stadium are almost certain to be fenced in.	880687	1471958460173	1471958460333		68
1797	18429	World Cup fans at Stanford Stadium are almost certain to be fenced in.	Wold Cup fans at Stanford Stadium are almost certain to be fenced in.	880690	1471958460349	1471958460477		73
1797	18429	World Cup fans at Stanford Stadium are almost certain to be fenced in.	Wold Cup fans at Stanford Stadium are almost certain to be fenced in.	880712	1471958460509	1471958460605		85
1797	18429	World Cup fans at Stanford Stadium are almost certain to be fenced in.	Wold Cup fans at Stanford Stadium are almost certain to be fenced in.	880714	1471958460733	1471958460861		77
1797	18429	World Cup fans at Stanford Stadium are almost certain to be fenced in.	Wold Cup fans at Stanford Stadium are almost certain to be fenced in.	880716	1471958460878	1471958461021		32
1797	18429	World Cup fans at Stanford Stadium are almost certain to be fenced in.	Wold Cup fans at Stanford Stadium are almost certain to be fenced in.	880730	1471958461069	1471958461261		65
1797	18429	World Cup fans at Stanford Stadium are almost certain to be fenced in.	Wold Cup fans at Stanford Stadium are almost certain to be fenced in.	880717	1471958461133	1471958461245		83
1797	18429	World Cup fans at Stanford Stadium are almost certain to be fenced in.	Wold Cup fans at Stanford Stadium are almost certain to be fenced in.	880733	1471958461247	1471958461421		82
1797	18429	World Cup fans at Stanford Stadium are almost certain to be fenced in.	Wold Cup fans at Stanford Stadium are almost certain to be fenced in.	880736	1471958461357	1471958461501		69
1797	18429	World Cup fans at Stanford Stadium are almost certain to be fenced in.	Wold Cup fans at Stanford Stadium are almost certain to be fenced in.	880740	1471958461469	1471958461565		32
1797	18429	World Cup fans at Stanford Stadium are almost certain to be fenced in.	Wold Cup fans at Stanford Stadium are almost certain to be fenced in.	880744	1471958461629	1471958461789		65
1797	18429	World Cup fans at Stanford Stadium are almost certain to be fenced in.	Wold Cup fans at Stanford Stadium are almost certain to be fenced in.	880776	1471958461757	1471958461885		76
1797	18429	World Cup fans at Stanford Stadium are almost certain to be fenced in.	Wold Cup fans at Stanford Stadium are almost certain to be fenced in.	880779	1471958462301	1471958462365		8
1797	18429	World Cup fans at Stanford Stadium are almost certain to be fenced in.	Wold Cup fans at Stanford Stadium are almost certain to be fenced in.	880781	1471958462445	1471958462493		8
1797	18429	World Cup fans at Stanford Stadium are almost certain to be fenced in.	Wold Cup fans at Stanford Stadium are almost certain to be fenced in.	880783	1471958462558	1471958462621		8
1797	18429	World Cup fans at Stanford Stadium are almost certain to be fenced in.	Wold Cup fans at Stanford Stadium are almost certain to be fenced in.	880787	1471958462685	1471958462765		8
1797	18429	World Cup fans at Stanford Stadium are almost certain to be fenced in.	Wold Cup fans at Stanford Stadium are almost certain to be fenced in.	880792	1471958462845	1471958462893		8
1797	18429	World Cup fans at Stanford Stadium are almost certain to be fenced in.	Wold Cup fans at Stanford Stadium are almost certain to be fenced in.	880857	1471958462973	1471958463085		8
1797	18429	World Cup fans at Stanford Stadium are almost certain to be fenced in.	Wold Cup fans at Stanford Stadium are almost certain to be fenced in.	880861	1471958463245	1471958463389		82
1797	18429	World Cup fans at Stanford Stadium are almost certain to be fenced in.	Wold Cup fans at Stanford Stadium are almost certain to be fenced in.	880865	1471958463309	1471958463453		69
1797	18429	World Cup fans at Stanford Stadium are almost certain to be fenced in.	Wold Cup fans at Stanford Stadium are almost certain to be fenced in.	880869	1471958463551	1471958463662		32
1797	18429	World Cup fans at Stanford Stadium are almost certain to be fenced in.	Wold Cup fans at Stanford Stadium are almost certain to be fenced in.	880873	1471958464093	1471958464269		83
1797	18429	World Cup fans at Stanford Stadium are almost certain to be fenced in.	Wold Cup fans at Stanford Stadium are almost certain to be fenced in.	880927	1471958464365	1471958464493		76
1797	18429	World Cup fans at Stanford Stadium are almost certain to be fenced in.	Wold Cup fans at Stanford Stadium are almost certain to be fenced in.	880931	1471958464717	1471958464781		8
1797	18429	World Cup fans at Stanford Stadium are almost certain to be fenced in.	Wold Cup fans at Stanford Stadium are almost certain to be fenced in.	880935	1471958464845	1471958464941		8
1797	18429	World Cup fans at Stanford Stadium are almost certain to be fenced in.	Wold Cup fans at Stanford Stadium are almost certain to be fenced in.	880939	1471958465005	1471958465197		65
1797	18429	World Cup fans at Stanford Stadium are almost certain to be fenced in.	Wold Cup fans at Stanford Stadium are almost certain to be fenced in.	880974	1471958465133	1471958465229		76
1797	18429	World Cup fans at Stanford Stadium are almost certain to be fenced in.	Wold Cup fans at Stanford Stadium are almost certain to be fenced in.	880978	1471958465533	1471958465693		77
1797	18429	World Cup fans at Stanford Stadium are almost certain to be fenced in.	Wold Cup fans at Stanford Stadium are almost certain to be fenced in.	880982	1471958465709	1471958465965		79
1797	18429	World Cup fans at Stanford Stadium are almost certain to be fenced in.	Wold Cup fans at Stanford Stadium are almost certain to be fenced in.	880990	1471958465853	1471958466029		83
1797	18429	World Cup fans at Stanford Stadium are almost certain to be fenced in.	Wold Cup fans at Stanford Stadium are almost certain to be fenced in.	880999	1471958465997	1471958466141		84
1797	18429	World Cup fans at Stanford Stadium are almost certain to be fenced in.	Wold Cup fans at Stanford Stadium are almost certain to be fenced in.	881055	1471958466093	1471958466253		32
1797	18429	World Cup fans at Stanford Stadium are almost certain to be fenced in.	Wold Cup fans at Stanford Stadium are almost certain to be fenced in.	881057	1471958466285	1471958466429		67
1797	18429	World Cup fans at Stanford Stadium are almost certain to be fenced in.	Wold Cup fans at Stanford Stadium are almost certain to be fenced in.	881059	1471958466526	1471958466717		69
1797	18429	World Cup fans at Stanford Stadium are almost certain to be fenced in.	Wold Cup fans at Stanford Stadium are almost certain to be fenced in.	881067	1471958466637	1471958466765		82
1797	18429	World Cup fans at Stanford Stadium are almost certain to be fenced in.	Wold Cup fans at Stanford Stadium are almost certain to be fenced in.	881071	1471958466829	1471958466941		84
1797	18429	World Cup fans at Stanford Stadium are almost certain to be fenced in.	Wold Cup fans at Stanford Stadium are almost certain to be fenced in.	881080	1471958466941	1471958467117		65
1797	18429	World Cup fans at Stanford Stadium are almost certain to be fenced in.	Wold Cup fans at Stanford Stadium are almost certain to be fenced in.	881108	1471958467053	1471958467230		73
1797	18429	World Cup fans at Stanford Stadium are almost certain to be fenced in.	Wold Cup fans at Stanford Stadium are almost certain to be fenced in.	881110	1471958467181	1471958467357		78
1797	18429	World Cup fans at Stanford Stadium are almost certain to be fenced in.	Wold Cup fans at Stanford Stadium are almost certain to be fenced in.	881113	1471958467326	1471958467469		32
1797	18429	World Cup fans at Stanford Stadium are almost certain to be fenced in.	Wold Cup fans at Stanford Stadium are almost certain to be fenced in.	881115	1471958467453	1471958467597		84
1797	18429	World Cup fans at Stanford Stadium are almost certain to be fenced in.	Wold Cup fans at Stanford Stadium are almost certain to be fenced in.	881118	1471958467533	1471958467645		79
1797	18429	World Cup fans at Stanford Stadium are almost certain to be fenced in.	Wold Cup fans at Stanford Stadium are almost certain to be fenced in.	881124	1471958467613	1471958467725		32
1797	18429	World Cup fans at Stanford Stadium are almost certain to be fenced in.	Wold Cup fans at Stanford Stadium are almost certain to be fenced in.	881129	1471958467709	1471958467805		66
1797	18429	World Cup fans at Stanford Stadium are almost certain to be fenced in.	Wold Cup fans at Stanford Stadium are almost certain to be fenced in.	881133	1471958467869	1471958467965		69
1797	18429	World Cup fans at Stanford Stadium are almost certain to be fenced in.	Wold Cup fans at Stanford Stadium are almost certain to be fenced in.	881135	1471958467949	1471958468125		32
1797	18429	World Cup fans at Stanford Stadium are almost certain to be fenced in.	Wold Cup fans at Stanford Stadium are almost certain to be fenced in.	881139	1471958468045	1471958468173		70
1797	18429	World Cup fans at Stanford Stadium are almost certain to be fenced in.	Wold Cup fans at Stanford Stadium are almost certain to be fenced in.	881160	1471958468157	1471958468301		69
1797	18429	World Cup fans at Stanford Stadium are almost certain to be fenced in.	Wold Cup fans at Stanford Stadium are almost certain to be fenced in.	881164	1471958468317	1471958468493		78
1797	18429	World Cup fans at Stanford Stadium are almost certain to be fenced in.	Wold Cup fans at Stanford Stadium are almost certain to be fenced in.	881169	1471958468413	1471958468557		67
1797	18429	World Cup fans at Stanford Stadium are almost certain to be fenced in.	Wold Cup fans at Stanford Stadium are almost certain to be fenced in.	881174	1471958468525	1471958468637		69
1797	18429	World Cup fans at Stanford Stadium are almost certain to be fenced in.	Wold Cup fans at Stanford Stadium are almost certain to be fenced in.	881179	1471958468717	1471958468925		68
1797	18429	World Cup fans at Stanford Stadium are almost certain to be fenced in.	Wold Cup fans at Stanford Stadium are almost certain to be fenced in.	881183	1471958468941	1471958469069		190
1797	18429	World Cup fans at Stanford Stadium are almost certain to be fenced in.	Wold Cup fans at Stanford Stadium are almost certain to be fenced in.	881197	1471958468989	1471958469149		32
1797	18429	World Cup fans at Stanford Stadium are almost certain to be fenced in.	Wold Cup fans at Stanford Stadium are almost certain to be fenced in.	881200	1471958469133	1471958469293		73
1797	18429	World Cup fans at Stanford Stadium are almost certain to be fenced in.	Wold Cup fans at Stanford Stadium are almost certain to be fenced in.	881203	1471958469262	1471958469453		78
1797	18429	World Cup fans at Stanford Stadium are almost certain to be fenced in.	Wold Cup fans at Stanford Stadium are almost certain to be fenced in.	881208	1471958469437	1471958469581		190
1797	18429	World Cup fans at Stanford Stadium are almost certain to be fenced in.	Wold Cup fans at Stanford Stadium are almost certain to be fenced in.	881212	1471958469853	1471958469901		8
1797	18429	World Cup fans at Stanford Stadium are almost certain to be fenced in.	Wold Cup fans at Stanford Stadium are almost certain to be fenced in.	881214	1471958469981	1471958470047		8
1797	18429	World Cup fans at Stanford Stadium are almost certain to be fenced in.	Wold Cup fans at Stanford Stadium are almost certain to be fenced in.	881256	1471958470125	1471958470156		8
1797	18429	World Cup fans at Stanford Stadium are almost certain to be fenced in.	Wold Cup fans at Stanford Stadium are almost certain to be fenced in.	881260	1471958470205	1471958470284		8
1797	18429	World Cup fans at Stanford Stadium are almost certain to be fenced in.	Wold Cup fans at Stanford Stadium are almost certain to be fenced in.	881265	1471958470349	1471958470430		8
1797	18429	World Cup fans at Stanford Stadium are almost certain to be fenced in.	Wold Cup fans at Stanford Stadium are almost certain to be fenced in.	881270	1471958470702	1471958470828		32
1797	18429	World Cup fans at Stanford Stadium are almost certain to be fenced in.	Wold Cup fans at Stanford Stadium are almost certain to be fenced in.	881274	1471958470941	1471958471116		73
1797	18429	World Cup fans at Stanford Stadium are almost certain to be fenced in.	Wold Cup fans at Stanford Stadium are almost certain to be fenced in.	881278	1471958471085	1471958471276		78
1797	18429	World Cup fans at Stanford Stadium are almost certain to be fenced in.	Wold Cup fans at Stanford Stadium are almost certain to be fenced in.	881280	1471958471277	1471958471389		190
1797	18451	Two RAF Hercules transport planes airlifted foreign evacuees.	Two RAF Hercules transport planes airlifted foreign evacuess.	881441	1471958473036	1471958473180	SHIFT	16
1797	18451	Two RAF Hercules transport planes airlifted foreign evacuees.	Two RAF Hercules transport planes airlifted foreign evacuess.	881444	1471958473132	1471958473260		84
1797	18451	Two RAF Hercules transport planes airlifted foreign evacuees.	Two RAF Hercules transport planes airlifted foreign evacuess.	881447	1471958473740	1471958473901		87
1797	18451	Two RAF Hercules transport planes airlifted foreign evacuees.	Two RAF Hercules transport planes airlifted foreign evacuess.	881450	1471958473884	1471958474012		79
1797	18451	Two RAF Hercules transport planes airlifted foreign evacuees.	Two RAF Hercules transport planes airlifted foreign evacuess.	881455	1471958473996	1471958474108		32
1797	18451	Two RAF Hercules transport planes airlifted foreign evacuees.	Two RAF Hercules transport planes airlifted foreign evacuess.	881555	1471958474240	1471958475404	SHIFT	16
1797	18451	Two RAF Hercules transport planes airlifted foreign evacuees.	Two RAF Hercules transport planes airlifted foreign evacuess.	881462	1471958474892	1471958475020		82
1797	18451	Two RAF Hercules transport planes airlifted foreign evacuees.	Two RAF Hercules transport planes airlifted foreign evacuess.	881548	1471958475053	1471958475180		65
1797	18451	Two RAF Hercules transport planes airlifted foreign evacuees.	Two RAF Hercules transport planes airlifted foreign evacuess.	881551	1471958475212	1471958475388		70
1797	18451	Two RAF Hercules transport planes airlifted foreign evacuees.	Two RAF Hercules transport planes airlifted foreign evacuess.	881563	1471958475468	1471958475612		32
1797	18451	Two RAF Hercules transport planes airlifted foreign evacuees.	Two RAF Hercules transport planes airlifted foreign evacuess.	881570	1471958476236	1471958476396	SHIFT	16
1797	18451	Two RAF Hercules transport planes airlifted foreign evacuees.	Two RAF Hercules transport planes airlifted foreign evacuess.	881573	1471958476588	1471958476716	SHIFT	16
1797	18451	Two RAF Hercules transport planes airlifted foreign evacuees.	Two RAF Hercules transport planes airlifted foreign evacuess.	881577	1471958476652	1471958476828		72
1797	18451	Two RAF Hercules transport planes airlifted foreign evacuees.	Two RAF Hercules transport planes airlifted foreign evacuess.	881581	1471958476780	1471958476956		69
1797	18451	Two RAF Hercules transport planes airlifted foreign evacuees.	Two RAF Hercules transport planes airlifted foreign evacuess.	881582	1471958476877	1471958477004		82
1797	18451	Two RAF Hercules transport planes airlifted foreign evacuees.	Two RAF Hercules transport planes airlifted foreign evacuess.	881584	1471958477116	1471958477308		67
1797	18451	Two RAF Hercules transport planes airlifted foreign evacuees.	Two RAF Hercules transport planes airlifted foreign evacuess.	881583	1471958477228	1471958477308		85
1797	18451	Two RAF Hercules transport planes airlifted foreign evacuees.	Two RAF Hercules transport planes airlifted foreign evacuess.	881585	1471958477340	1471958477548		76
1797	18451	Two RAF Hercules transport planes airlifted foreign evacuees.	Two RAF Hercules transport planes airlifted foreign evacuess.	881604	1471958477420	1471958477596		69
1797	18451	Two RAF Hercules transport planes airlifted foreign evacuees.	Two RAF Hercules transport planes airlifted foreign evacuess.	881606	1471958477532	1471958477740		83
1797	18451	Two RAF Hercules transport planes airlifted foreign evacuees.	Two RAF Hercules transport planes airlifted foreign evacuess.	881611	1471958477628	1471958477772		32
1797	18451	Two RAF Hercules transport planes airlifted foreign evacuees.	Two RAF Hercules transport planes airlifted foreign evacuess.	881613	1471958477900	1471958477948		84
1797	18451	Two RAF Hercules transport planes airlifted foreign evacuees.	Two RAF Hercules transport planes airlifted foreign evacuess.	881617	1471958478060	1471958478156		82
1797	18451	Two RAF Hercules transport planes airlifted foreign evacuees.	Two RAF Hercules transport planes airlifted foreign evacuess.	881622	1471958478140	1471958478252		65
1797	18451	Two RAF Hercules transport planes airlifted foreign evacuees.	Two RAF Hercules transport planes airlifted foreign evacuess.	881641	1471958478204	1471958478396		78
1797	18451	Two RAF Hercules transport planes airlifted foreign evacuees.	Two RAF Hercules transport planes airlifted foreign evacuess.	881644	1471958478316	1471958478524		83
1797	18451	Two RAF Hercules transport planes airlifted foreign evacuees.	Two RAF Hercules transport planes airlifted foreign evacuess.	881646	1471958478492	1471958478572		80
1797	18451	Two RAF Hercules transport planes airlifted foreign evacuees.	Two RAF Hercules transport planes airlifted foreign evacuess.	881650	1471958478588	1471958478749		79
1797	18451	Two RAF Hercules transport planes airlifted foreign evacuees.	Two RAF Hercules transport planes airlifted foreign evacuess.	881648	1471958478652	1471958478732		82
1797	18451	Two RAF Hercules transport planes airlifted foreign evacuees.	Two RAF Hercules transport planes airlifted foreign evacuess.	881652	1471958478796	1471958478924		84
1797	18451	Two RAF Hercules transport planes airlifted foreign evacuees.	Two RAF Hercules transport planes airlifted foreign evacuess.	881678	1471958478925	1471958479068		32
1797	18451	Two RAF Hercules transport planes airlifted foreign evacuees.	Two RAF Hercules transport planes airlifted foreign evacuess.	881681	1471958479164	1471958479212		80
1797	18451	Two RAF Hercules transport planes airlifted foreign evacuees.	Two RAF Hercules transport planes airlifted foreign evacuess.	881684	1471958479292	1471958479452		76
1797	18451	Two RAF Hercules transport planes airlifted foreign evacuees.	Two RAF Hercules transport planes airlifted foreign evacuess.	881687	1471958479404	1471958479548		65
1797	18451	Two RAF Hercules transport planes airlifted foreign evacuees.	Two RAF Hercules transport planes airlifted foreign evacuess.	881725	1471958479500	1471958479692		78
1797	18451	Two RAF Hercules transport planes airlifted foreign evacuees.	Two RAF Hercules transport planes airlifted foreign evacuess.	881727	1471958479564	1471958479740		69
1797	18451	Two RAF Hercules transport planes airlifted foreign evacuees.	Two RAF Hercules transport planes airlifted foreign evacuess.	881731	1471958479660	1471958479884		83
1797	18451	Two RAF Hercules transport planes airlifted foreign evacuees.	Two RAF Hercules transport planes airlifted foreign evacuess.	881733	1471958479772	1471958479900		32
1797	18451	Two RAF Hercules transport planes airlifted foreign evacuees.	Two RAF Hercules transport planes airlifted foreign evacuess.	881736	1471958480060	1471958480252		65
1797	18451	Two RAF Hercules transport planes airlifted foreign evacuees.	Two RAF Hercules transport planes airlifted foreign evacuess.	881739	1471958480252	1471958480384		73
1797	18451	Two RAF Hercules transport planes airlifted foreign evacuees.	Two RAF Hercules transport planes airlifted foreign evacuess.	881768	1471958480364	1471958480556		82
1797	18451	Two RAF Hercules transport planes airlifted foreign evacuees.	Two RAF Hercules transport planes airlifted foreign evacuess.	881771	1471958480556	1471958480636		76
1797	18451	Two RAF Hercules transport planes airlifted foreign evacuees.	Two RAF Hercules transport planes airlifted foreign evacuess.	881774	1471958480684	1471958480844		73
1797	18451	Two RAF Hercules transport planes airlifted foreign evacuees.	Two RAF Hercules transport planes airlifted foreign evacuess.	881777	1471958480780	1471958480876		70
1797	18451	Two RAF Hercules transport planes airlifted foreign evacuees.	Two RAF Hercules transport planes airlifted foreign evacuess.	881780	1471958480956	1471958481084		84
1797	18451	Two RAF Hercules transport planes airlifted foreign evacuees.	Two RAF Hercules transport planes airlifted foreign evacuess.	881800	1471958481036	1471958481132		69
1797	18451	Two RAF Hercules transport planes airlifted foreign evacuees.	Two RAF Hercules transport planes airlifted foreign evacuess.	881804	1471958481228	1471958481376		68
1797	18451	Two RAF Hercules transport planes airlifted foreign evacuees.	Two RAF Hercules transport planes airlifted foreign evacuess.	881808	1471958481292	1471958481452		32
1797	18451	Two RAF Hercules transport planes airlifted foreign evacuees.	Two RAF Hercules transport planes airlifted foreign evacuess.	881812	1471958481420	1471958481548		70
1797	18451	Two RAF Hercules transport planes airlifted foreign evacuees.	Two RAF Hercules transport planes airlifted foreign evacuess.	881816	1471958481516	1471958481708		79
1797	18451	Two RAF Hercules transport planes airlifted foreign evacuees.	Two RAF Hercules transport planes airlifted foreign evacuess.	881859	1471958481628	1471958481788		82
1797	18451	Two RAF Hercules transport planes airlifted foreign evacuees.	Two RAF Hercules transport planes airlifted foreign evacuess.	881862	1471958481948	1471958482092		69
1797	18451	Two RAF Hercules transport planes airlifted foreign evacuees.	Two RAF Hercules transport planes airlifted foreign evacuess.	881865	1471958482156	1471958482316		73
1797	18451	Two RAF Hercules transport planes airlifted foreign evacuees.	Two RAF Hercules transport planes airlifted foreign evacuess.	881869	1471958482316	1471958482460		71
1797	18451	Two RAF Hercules transport planes airlifted foreign evacuees.	Two RAF Hercules transport planes airlifted foreign evacuess.	881871	1471958482476	1471958482636		78
1797	18451	Two RAF Hercules transport planes airlifted foreign evacuees.	Two RAF Hercules transport planes airlifted foreign evacuess.	881872	1471958482667	1471958482811		32
1797	18451	Two RAF Hercules transport planes airlifted foreign evacuees.	Two RAF Hercules transport planes airlifted foreign evacuess.	881950	1471958482908	1471958483036		69
1797	18451	Two RAF Hercules transport planes airlifted foreign evacuees.	Two RAF Hercules transport planes airlifted foreign evacuess.	881956	1471958483388	1471958483515		86
1797	18451	Two RAF Hercules transport planes airlifted foreign evacuees.	Two RAF Hercules transport planes airlifted foreign evacuess.	881962	1471958483563	1471958483723		65
1797	18451	Two RAF Hercules transport planes airlifted foreign evacuees.	Two RAF Hercules transport planes airlifted foreign evacuess.	881967	1471958483788	1471958483899		67
1797	18451	Two RAF Hercules transport planes airlifted foreign evacuees.	Two RAF Hercules transport planes airlifted foreign evacuess.	881969	1471958484044	1471958484219		85
1797	18451	Two RAF Hercules transport planes airlifted foreign evacuees.	Two RAF Hercules transport planes airlifted foreign evacuess.	881988	1471958484268	1471958484364		69
1797	18451	Two RAF Hercules transport planes airlifted foreign evacuees.	Two RAF Hercules transport planes airlifted foreign evacuess.	881993	1471958484491	1471958484555		83
1797	18451	Two RAF Hercules transport planes airlifted foreign evacuees.	Two RAF Hercules transport planes airlifted foreign evacuess.	881998	1471958484635	1471958484811		83
1797	18451	Two RAF Hercules transport planes airlifted foreign evacuees.	Two RAF Hercules transport planes airlifted foreign evacuess.	882001	1471958484812	1471958484923		190
1797	18461	Joel will handle this.	Joes will handle this.	882103	1471958486796	1471958486971	SHIFT	16
1797	18461	Joel will handle this.	Joes will handle this.	882105	1471958486875	1471958487035		74
1797	18461	Joel will handle this.	Joes will handle this.	882106	1471958486987	1471958487179		79
1797	18461	Joel will handle this.	Joes will handle this.	882107	1471958487116	1471958487293		69
1797	18461	Joel will handle this.	Joes will handle this.	882108	1471958487228	1471958487451		83
1797	18461	Joel will handle this.	Joes will handle this.	882118	1471958487387	1471958487547		32
1797	18461	Joel will handle this.	Joes will handle this.	882119	1471958487548	1471958487707		87
1797	18461	Joel will handle this.	Joes will handle this.	882120	1471958487659	1471958487739		73
1797	18461	Joel will handle this.	Joes will handle this.	882121	1471958487835	1471958487899		76
1797	18461	Joel will handle this.	Joes will handle this.	882122	1471958487963	1471958488091		76
1797	18461	Joel will handle this.	Joes will handle this.	882124	1471958488059	1471958488219		32
1797	18461	Joel will handle this.	Joes will handle this.	882126	1471958488171	1471958488283		72
1797	18461	Joel will handle this.	Joes will handle this.	882129	1471958488251	1471958488411		65
1797	18461	Joel will handle this.	Joes will handle this.	882132	1471958488384	1471958488510		78
1797	18461	Joel will handle this.	Joes will handle this.	882135	1471958488427	1471958488619		68
1797	18461	Joel will handle this.	Joes will handle this.	882166	1471958488555	1471958488747		76
1797	18461	Joel will handle this.	Joes will handle this.	882168	1471958488699	1471958488875		69
1797	18461	Joel will handle this.	Joes will handle this.	882172	1471958488843	1471958489003		32
1797	18461	Joel will handle this.	Joes will handle this.	882175	1471958489147	1471958489339		72
1797	18461	Joel will handle this.	Joes will handle this.	882179	1471958489307	1471958489451		73
1797	18461	Joel will handle this.	Joes will handle this.	882185	1471958489451	1471958489675		83
1797	18461	Joel will handle this.	Joes will handle this.	882214	1471958489899	1471958489995		8
1797	18461	Joel will handle this.	Joes will handle this.	882215	1471958490059	1471958490123		8
1797	18461	Joel will handle this.	Joes will handle this.	882216	1471958490171	1471958490268		8
1797	18461	Joel will handle this.	Joes will handle this.	882218	1471958490379	1471958490523		84
1797	18461	Joel will handle this.	Joes will handle this.	882244	1471958490510	1471958490636		72
1797	18461	Joel will handle this.	Joes will handle this.	882247	1471958490587	1471958490731		73
1797	18461	Joel will handle this.	Joes will handle this.	882251	1471958490667	1471958490875		83
1797	18461	Joel will handle this.	Joes will handle this.	882256	1471958490811	1471958490924		190
1797	18470	I would expect an answer ASAP.	I would expect an answer ASAP.	882331	1471958492747	1471958492891	SHIFT	16
1797	18470	I would expect an answer ASAP.	I would expect an answer ASAP.	882335	1471958492811	1471958492955		73
1797	18470	I would expect an answer ASAP.	I would expect an answer ASAP.	882337	1471958492939	1471958493131		32
1797	18470	I would expect an answer ASAP.	I would expect an answer ASAP.	882341	1471958493051	1471958493277		87
1797	18470	I would expect an answer ASAP.	I would expect an answer ASAP.	882369	1471958493147	1471958493281		79
1797	18470	I would expect an answer ASAP.	I would expect an answer ASAP.	882371	1471958493243	1471958493323		85
1797	18470	I would expect an answer ASAP.	I would expect an answer ASAP.	882374	1471958493383	1471958493515		76
1797	18470	I would expect an answer ASAP.	I would expect an answer ASAP.	882376	1471958493451	1471958493595		68
1797	18470	I would expect an answer ASAP.	I would expect an answer ASAP.	882380	1471958493515	1471958493611		32
1797	18470	I would expect an answer ASAP.	I would expect an answer ASAP.	882383	1471958493675	1471958493755		69
1797	18470	I would expect an answer ASAP.	I would expect an answer ASAP.	882386	1471958493883	1471958494075		88
1797	18470	I would expect an answer ASAP.	I would expect an answer ASAP.	882414	1471958494107	1471958494299		80
1797	18470	I would expect an answer ASAP.	I would expect an answer ASAP.	882416	1471958494203	1471958494315		69
1797	18470	I would expect an answer ASAP.	I would expect an answer ASAP.	882419	1471958494364	1471958494490		67
1797	18470	I would expect an answer ASAP.	I would expect an answer ASAP.	882423	1471958494603	1471958494763		84
1797	18470	I would expect an answer ASAP.	I would expect an answer ASAP.	882457	1471958494731	1471958494859		32
1797	18470	I would expect an answer ASAP.	I would expect an answer ASAP.	882458	1471958494923	1471958495082		65
1797	18470	I would expect an answer ASAP.	I would expect an answer ASAP.	882460	1471958495035	1471958495195		78
1797	18470	I would expect an answer ASAP.	I would expect an answer ASAP.	882462	1471958495179	1471958495275		32
1797	18470	I would expect an answer ASAP.	I would expect an answer ASAP.	882464	1471958495371	1471958495562		65
1797	18470	I would expect an answer ASAP.	I would expect an answer ASAP.	882495	1471958495530	1471958495755		78
1797	18470	I would expect an answer ASAP.	I would expect an answer ASAP.	882493	1471958495627	1471958495755		83
1797	18470	I would expect an answer ASAP.	I would expect an answer ASAP.	882499	1471958495835	1471958496058		87
1797	18470	I would expect an answer ASAP.	I would expect an answer ASAP.	882503	1471958495946	1471958496139		69
1797	18470	I would expect an answer ASAP.	I would expect an answer ASAP.	882511	1471958496027	1471958496218		82
1797	18470	I would expect an answer ASAP.	I would expect an answer ASAP.	882582	1471958496170	1471958496298		32
1797	18470	I would expect an answer ASAP.	I would expect an answer ASAP.	882588	1471958496570	1471958497258	SHIFT	16
1797	18470	I would expect an answer ASAP.	I would expect an answer ASAP.	882584	1471958496858	1471958497018		65
1797	18470	I would expect an answer ASAP.	I would expect an answer ASAP.	882586	1471958497019	1471958497194		83
1797	18470	I would expect an answer ASAP.	I would expect an answer ASAP.	882589	1471958497162	1471958497323		65
1797	18470	I would expect an answer ASAP.	I would expect an answer ASAP.	882590	1471958497450	1471958497674	SHIFT	16
1797	18470	I would expect an answer ASAP.	I would expect an answer ASAP.	882591	1471958497547	1471958497675		80
1797	18470	I would expect an answer ASAP.	I would expect an answer ASAP.	882592	1471958497835	1471958497930		190
1797	18474	I'm taking Wednesday off.	I'm taking Wednesday off.	882675	1471958499594	1471958499770	SHIFT	16
1797	18474	I'm taking Wednesday off.	I'm taking Wednesday off.	882677	1471958499690	1471958499850		73
1797	18474	I'm taking Wednesday off.	I'm taking Wednesday off.	882679	1471958499850	1471958499994		222
1797	18474	I'm taking Wednesday off.	I'm taking Wednesday off.	882681	1471958500058	1471958500218		77
1797	18474	I'm taking Wednesday off.	I'm taking Wednesday off.	882683	1471958500202	1471958500362		32
1797	18474	I'm taking Wednesday off.	I'm taking Wednesday off.	882686	1471958500426	1471958500522		84
1797	18474	I'm taking Wednesday off.	I'm taking Wednesday off.	882693	1471958500524	1471958500714		65
1797	18474	I'm taking Wednesday off.	I'm taking Wednesday off.	882697	1471958500651	1471958500730		75
1797	18474	I'm taking Wednesday off.	I'm taking Wednesday off.	882701	1471958500810	1471958500970		73
1797	18474	I'm taking Wednesday off.	I'm taking Wednesday off.	882705	1471958500906	1471958501050		78
1797	18474	I'm taking Wednesday off.	I'm taking Wednesday off.	882778	1471958500970	1471958501114		71
1797	18474	I'm taking Wednesday off.	I'm taking Wednesday off.	882780	1471958501034	1471958501146		32
1797	18474	I'm taking Wednesday off.	I'm taking Wednesday off.	882784	1471958501259	1471958501466	SHIFT	16
1797	18474	I'm taking Wednesday off.	I'm taking Wednesday off.	882788	1471958501370	1471958501546		87
1797	18474	I'm taking Wednesday off.	I'm taking Wednesday off.	882792	1471958501530	1471958501658		69
1797	18474	I'm taking Wednesday off.	I'm taking Wednesday off.	882798	1471958501786	1471958501882		68
1797	18474	I'm taking Wednesday off.	I'm taking Wednesday off.	882803	1471958502394	1471958502512		69
1797	18474	I'm taking Wednesday off.	I'm taking Wednesday off.	882811	1471958502602	1471958502730		83
1797	18474	I'm taking Wednesday off.	I'm taking Wednesday off.	882824	1471958502794	1471958502938		68
1797	18474	I'm taking Wednesday off.	I'm taking Wednesday off.	882826	1471958502922	1471958503130		65
1797	18474	I'm taking Wednesday off.	I'm taking Wednesday off.	882828	1471958503082	1471958503162		89
1797	18474	I'm taking Wednesday off.	I'm taking Wednesday off.	882832	1471958503466	1471958503530		8
1797	18474	I'm taking Wednesday off.	I'm taking Wednesday off.	882835	1471958503610	1471958503674		8
1797	18474	I'm taking Wednesday off.	I'm taking Wednesday off.	882868	1471958503738	1471958503802		8
1797	18474	I'm taking Wednesday off.	I'm taking Wednesday off.	882871	1471958503882	1471958503930		8
1797	18474	I'm taking Wednesday off.	I'm taking Wednesday off.	882873	1471958503962	1471958504042		8
1797	18474	I'm taking Wednesday off.	I'm taking Wednesday off.	882876	1471958504394	1471958504554		78
1797	18474	I'm taking Wednesday off.	I'm taking Wednesday off.	882895	1471958504522	1471958504650		69
1797	18474	I'm taking Wednesday off.	I'm taking Wednesday off.	882900	1471958504618	1471958504746		83
1797	18474	I'm taking Wednesday off.	I'm taking Wednesday off.	882904	1471958504778	1471958504922		68
1797	18474	I'm taking Wednesday off.	I'm taking Wednesday off.	882908	1471958504922	1471958505082		65
1797	18474	I'm taking Wednesday off.	I'm taking Wednesday off.	882911	1471958504986	1471958505146		89
1797	18474	I'm taking Wednesday off.	I'm taking Wednesday off.	882915	1471958505258	1471958505354		190
1797	18474	I'm taking Wednesday off.	I'm taking Wednesday off.	882930	1471958505642	1471958505722		8
1797	18474	I'm taking Wednesday off.	I'm taking Wednesday off.	882932	1471958505802	1471958505930		32
1797	18474	I'm taking Wednesday off.	I'm taking Wednesday off.	882935	1471958506042	1471958506202		79
1797	18474	I'm taking Wednesday off.	I'm taking Wednesday off.	882939	1471958506170	1471958506234		70
1797	18474	I'm taking Wednesday off.	I'm taking Wednesday off.	882943	1471958506299	1471958506442		70
1797	18474	I'm taking Wednesday off.	I'm taking Wednesday off.	882955	1471958506426	1471958506554		190
1797	18486	Thanks for your leadership on this issue.	Thank for your leadership on this issue.	883053	1471958508122	1471958508297	SHIFT	16
1797	18486	Thanks for your leadership on this issue.	Thank for your leadership on this issue.	883058	1471958508218	1471958508313		84
1797	18486	Thanks for your leadership on this issue.	Thank for your leadership on this issue.	883061	1471958508329	1471958508537		65
1797	18486	Thanks for your leadership on this issue.	Thank for your leadership on this issue.	883065	1471958508506	1471958508681		78
1797	18486	Thanks for your leadership on this issue.	Thank for your leadership on this issue.	883068	1471958508649	1471958508825		75
1797	18486	Thanks for your leadership on this issue.	Thank for your leadership on this issue.	883101	1471958508697	1471958508857		83
1797	18486	Thanks for your leadership on this issue.	Thank for your leadership on this issue.	883106	1471958508794	1471958508921		32
1797	18486	Thanks for your leadership on this issue.	Thank for your leadership on this issue.	883110	1471958508873	1471958509001		70
1797	18486	Thanks for your leadership on this issue.	Thank for your leadership on this issue.	883116	1471958508969	1471958509129		79
1797	18486	Thanks for your leadership on this issue.	Thank for your leadership on this issue.	883118	1471958509082	1471958509226		82
1797	18486	Thanks for your leadership on this issue.	Thank for your leadership on this issue.	883121	1471958509145	1471958509242		32
1797	18486	Thanks for your leadership on this issue.	Thank for your leadership on this issue.	883123	1471958509625	1471958509689		8
1797	18486	Thanks for your leadership on this issue.	Thank for your leadership on this issue.	883141	1471958509769	1471958509833		8
1797	18486	Thanks for your leadership on this issue.	Thank for your leadership on this issue.	883143	1471958509897	1471958509961		8
1797	18486	Thanks for your leadership on this issue.	Thank for your leadership on this issue.	883146	1471958510041	1471958510089		8
1797	18486	Thanks for your leadership on this issue.	Thank for your leadership on this issue.	883148	1471958510153	1471958510217		8
1797	18486	Thanks for your leadership on this issue.	Thank for your leadership on this issue.	883151	1471958510265	1471958510313		8
1797	18486	Thanks for your leadership on this issue.	Thank for your leadership on this issue.	883213	1471958510387	1471958510441		8
1797	18486	Thanks for your leadership on this issue.	Thank for your leadership on this issue.	883221	1471958510521	1471958510585		8
1797	18486	Thanks for your leadership on this issue.	Thank for your leadership on this issue.	883223	1471958510617	1471958510697		8
1797	18486	Thanks for your leadership on this issue.	Thank for your leadership on this issue.	883225	1471958511129	1471958511209		72
1797	18486	Thanks for your leadership on this issue.	Thank for your leadership on this issue.	883226	1471958511209	1471958511387		65
1797	18486	Thanks for your leadership on this issue.	Thank for your leadership on this issue.	883238	1471958511306	1471958511465		78
1797	18486	Thanks for your leadership on this issue.	Thank for your leadership on this issue.	883240	1471958511433	1471958511561		75
1797	18486	Thanks for your leadership on this issue.	Thank for your leadership on this issue.	883243	1471958511529	1471958511689		32
1797	18486	Thanks for your leadership on this issue.	Thank for your leadership on this issue.	883247	1471958511705	1471958511849		70
1797	18486	Thanks for your leadership on this issue.	Thank for your leadership on this issue.	883249	1471958511785	1471958511945		79
1797	18486	Thanks for your leadership on this issue.	Thank for your leadership on this issue.	883282	1471958511913	1471958512073		82
1797	18486	Thanks for your leadership on this issue.	Thank for your leadership on this issue.	883285	1471958512009	1471958512137		32
1797	18486	Thanks for your leadership on this issue.	Thank for your leadership on this issue.	883290	1471958512249	1471958512393		89
1797	18486	Thanks for your leadership on this issue.	Thank for your leadership on this issue.	883292	1471958512383	1471958512601		79
1797	18486	Thanks for your leadership on this issue.	Thank for your leadership on this issue.	883296	1471958512537	1471958512697		82
1797	18486	Thanks for your leadership on this issue.	Thank for your leadership on this issue.	883300	1471958513001	1471958513081		8
1797	18486	Thanks for your leadership on this issue.	Thank for your leadership on this issue.	883362	1471958514169	1471958514297		85
1797	18486	Thanks for your leadership on this issue.	Thank for your leadership on this issue.	883364	1471958514297	1471958514457		82
1797	18486	Thanks for your leadership on this issue.	Thank for your leadership on this issue.	883365	1471958514361	1471958514505		32
1797	18486	Thanks for your leadership on this issue.	Thank for your leadership on this issue.	883366	1471958514505	1471958514729		76
1797	18486	Thanks for your leadership on this issue.	Thank for your leadership on this issue.	883415	1471958514617	1471958514745		69
1797	18486	Thanks for your leadership on this issue.	Thank for your leadership on this issue.	883418	1471958514730	1471958514889		65
1797	18486	Thanks for your leadership on this issue.	Thank for your leadership on this issue.	883422	1471958514857	1471958514937		68
1797	18486	Thanks for your leadership on this issue.	Thank for your leadership on this issue.	883428	1471958515033	1471958515193		69
1797	18486	Thanks for your leadership on this issue.	Thank for your leadership on this issue.	883432	1471958515129	1471958515257		82
1797	18486	Thanks for your leadership on this issue.	Thank for your leadership on this issue.	883435	1471958515449	1471958515625		83
1797	18486	Thanks for your leadership on this issue.	Thank for your leadership on this issue.	883442	1471958515689	1471958515881		72
1797	18486	Thanks for your leadership on this issue.	Thank for your leadership on this issue.	883444	1471958515817	1471958515977		73
1797	18486	Thanks for your leadership on this issue.	Thank for your leadership on this issue.	883446	1471958515977	1471958516105		80
1797	18486	Thanks for your leadership on this issue.	Thank for your leadership on this issue.	883448	1471958516089	1471958516201		32
1797	18486	Thanks for your leadership on this issue.	Thank for your leadership on this issue.	883455	1471958516185	1471958516329		79
1797	18486	Thanks for your leadership on this issue.	Thank for your leadership on this issue.	883457	1471958516297	1471958516393		78
1797	18486	Thanks for your leadership on this issue.	Thank for your leadership on this issue.	883460	1471958516377	1471958516474		32
1797	18486	Thanks for your leadership on this issue.	Thank for your leadership on this issue.	883465	1471958516474	1471958516585		84
1797	18486	Thanks for your leadership on this issue.	Thank for your leadership on this issue.	883470	1471958516521	1471958516681		72
1797	18486	Thanks for your leadership on this issue.	Thank for your leadership on this issue.	883491	1471958516633	1471958516777		73
1797	18486	Thanks for your leadership on this issue.	Thank for your leadership on this issue.	883496	1471958516697	1471958516873		83
1797	18486	Thanks for your leadership on this issue.	Thank for your leadership on this issue.	883494	1471958516777	1471958516873		32
1797	18486	Thanks for your leadership on this issue.	Thank for your leadership on this issue.	883499	1471958516889	1471958517001		73
1797	18486	Thanks for your leadership on this issue.	Thank for your leadership on this issue.	883503	1471958517065	1471958517145		83
1797	18486	Thanks for your leadership on this issue.	Thank for your leadership on this issue.	883505	1471958517209	1471958517321		83
1797	18486	Thanks for your leadership on this issue.	Thank for your leadership on this issue.	883519	1471958517273	1471958517417		85
1797	18486	Thanks for your leadership on this issue.	Thank for your leadership on this issue.	883521	1471958517369	1471958517513		69
1797	18486	Thanks for your leadership on this issue.	Thank for your leadership on this issue.	883522	1471958517545	1471958517673		190
1797	18496	That must be a lot in kilometers.	That must be a lot in kilometers.	883624	1471958519392	1471958519529	SHIFT	16
1797	18496	That must be a lot in kilometers.	That must be a lot in kilometers.	883625	1471958519465	1471958519561		84
1797	18496	That must be a lot in kilometers.	That must be a lot in kilometers.	883626	1471958519593	1471958519737		72
1797	18496	That must be a lot in kilometers.	That must be a lot in kilometers.	883627	1471958519625	1471958519785		65
1797	18496	That must be a lot in kilometers.	That must be a lot in kilometers.	883628	1471958519721	1471958519897		84
1797	18496	That must be a lot in kilometers.	That must be a lot in kilometers.	883646	1471958519801	1471958519928		32
1797	18496	That must be a lot in kilometers.	That must be a lot in kilometers.	883648	1471958519977	1471958520073		77
1797	18496	That must be a lot in kilometers.	That must be a lot in kilometers.	883651	1471958520153	1471958520313		85
1797	18496	That must be a lot in kilometers.	That must be a lot in kilometers.	883653	1471958520248	1471958520424		83
1797	18496	That must be a lot in kilometers.	That must be a lot in kilometers.	883655	1471958520361	1471958520488		84
1797	18496	That must be a lot in kilometers.	That must be a lot in kilometers.	883683	1471958520425	1471958520568		32
1797	18496	That must be a lot in kilometers.	That must be a lot in kilometers.	883688	1471958520601	1471958520680		66
1797	18496	That must be a lot in kilometers.	That must be a lot in kilometers.	883692	1471958520744	1471958520872		69
1797	18496	That must be a lot in kilometers.	That must be a lot in kilometers.	883695	1471958520888	1471958520984		32
1797	18496	That must be a lot in kilometers.	That must be a lot in kilometers.	883699	1471958521032	1471958521208		65
1797	18496	That must be a lot in kilometers.	That must be a lot in kilometers.	883738	1471958521112	1471958521288		32
1797	18496	That must be a lot in kilometers.	That must be a lot in kilometers.	883735	1471958521160	1471958521224		76
1797	18496	That must be a lot in kilometers.	That must be a lot in kilometers.	883742	1471958521304	1471958521464		79
1797	18496	That must be a lot in kilometers.	That must be a lot in kilometers.	883745	1471958521400	1471958521560		84
1797	18496	That must be a lot in kilometers.	That must be a lot in kilometers.	883748	1471958521497	1471958521640		32
1797	18496	That must be a lot in kilometers.	That must be a lot in kilometers.	883749	1471958521624	1471958521800		79
1797	18496	That must be a lot in kilometers.	That must be a lot in kilometers.	883750	1471958522024	1471958522104		8
1797	18496	That must be a lot in kilometers.	That must be a lot in kilometers.	883766	1471958522264	1471958522424		73
1797	18496	That must be a lot in kilometers.	That must be a lot in kilometers.	883767	1471958522394	1471958522536		78
1797	18496	That must be a lot in kilometers.	That must be a lot in kilometers.	883768	1471958522472	1471958522681		32
1797	18496	That must be a lot in kilometers.	That must be a lot in kilometers.	883769	1471958522616	1471958522760		75
1797	18496	That must be a lot in kilometers.	That must be a lot in kilometers.	883770	1471958522872	1471958522968		73
1797	18496	That must be a lot in kilometers.	That must be a lot in kilometers.	883805	1471958523080	1471958523160		76
1797	18496	That must be a lot in kilometers.	That must be a lot in kilometers.	883807	1471958523240	1471958523352		79
1797	18496	That must be a lot in kilometers.	That must be a lot in kilometers.	883809	1471958523416	1471958523576		77
1797	18496	That must be a lot in kilometers.	That must be a lot in kilometers.	883811	1471958523560	1471958523688		69
1797	18496	That must be a lot in kilometers.	That must be a lot in kilometers.	883813	1471958523704	1471958523848		84
1797	18496	That must be a lot in kilometers.	That must be a lot in kilometers.	883852	1471958523816	1471958523947		69
1797	18496	That must be a lot in kilometers.	That must be a lot in kilometers.	883854	1471958523928	1471958524104		82
1797	18496	That must be a lot in kilometers.	That must be a lot in kilometers.	883857	1471958524008	1471958524136		69
1797	18496	That must be a lot in kilometers.	That must be a lot in kilometers.	883861	1471958524200	1471958524377		83
1797	18496	That must be a lot in kilometers.	That must be a lot in kilometers.	883866	1471958524696	1471958524744		8
1797	18496	That must be a lot in kilometers.	That must be a lot in kilometers.	883870	1471958524824	1471958524872		8
1797	18496	That must be a lot in kilometers.	That must be a lot in kilometers.	883881	1471958524952	1471958525016		8
1797	18496	That must be a lot in kilometers.	That must be a lot in kilometers.	883886	1471958525080	1471958525144		8
1797	18496	That must be a lot in kilometers.	That must be a lot in kilometers.	883900	1471958525736	1471958525944		69
1797	18496	That must be a lot in kilometers.	That must be a lot in kilometers.	883890	1471958525848	1471958525928		82
1797	18496	That must be a lot in kilometers.	That must be a lot in kilometers.	883901	1471958525912	1471958526072		83
1797	18496	That must be a lot in kilometers.	That must be a lot in kilometers.	883902	1471958526056	1471958526184		190
1797	18503	He said he saw no damage to the airport.	He said he saw no damage to the airport.	883977	1471958527945	1471958528056	SHIFT	16
1797	18503	He said he saw no damage to the airport.	He said he saw no damage to the airport.	883981	1471958528024	1471958528184		72
1797	18503	He said he saw no damage to the airport.	He said he saw no damage to the airport.	883985	1471958528104	1471958528232		69
1797	18503	He said he saw no damage to the airport.	He said he saw no damage to the airport.	883989	1471958528184	1471958528344		32
1797	18503	He said he saw no damage to the airport.	He said he saw no damage to the airport.	883991	1471958528312	1471958528504		83
1797	18503	He said he saw no damage to the airport.	He said he saw no damage to the airport.	883993	1471958528424	1471958528584		65
1797	18503	He said he saw no damage to the airport.	He said he saw no damage to the airport.	883995	1471958528552	1471958528696		73
1797	18503	He said he saw no damage to the airport.	He said he saw no damage to the airport.	883997	1471958528632	1471958528760		68
1797	18503	He said he saw no damage to the airport.	He said he saw no damage to the airport.	883999	1471958528696	1471958528875		32
1797	18503	He said he saw no damage to the airport.	He said he saw no damage to the airport.	884002	1471958528840	1471958529032		72
1797	18503	He said he saw no damage to the airport.	He said he saw no damage to the airport.	884005	1471958529032	1471958529128		83
1797	18503	He said he saw no damage to the airport.	He said he saw no damage to the airport.	884057	1471958529097	1471958529240		32
1797	18503	He said he saw no damage to the airport.	He said he saw no damage to the airport.	884060	1471958529912	1471958529976		8
1797	18503	He said he saw no damage to the airport.	He said he saw no damage to the airport.	884064	1471958530040	1471958530152		8
1797	18503	He said he saw no damage to the airport.	He said he saw no damage to the airport.	884067	1471958530200	1471958530328		69
1797	18503	He said he saw no damage to the airport.	He said he saw no damage to the airport.	884071	1471958530329	1471958530456		32
1797	18503	He said he saw no damage to the airport.	He said he saw no damage to the airport.	884076	1471958530616	1471958530792		83
1797	18503	He said he saw no damage to the airport.	He said he saw no damage to the airport.	884091	1471958530824	1471958530952		65
1797	18503	He said he saw no damage to the airport.	He said he saw no damage to the airport.	884092	1471958530984	1471958531144		87
1797	18503	He said he saw no damage to the airport.	He said he saw no damage to the airport.	884094	1471958531096	1471958531256		32
1797	18503	He said he saw no damage to the airport.	He said he saw no damage to the airport.	884099	1471958531320	1471958531447		78
1797	18503	He said he saw no damage to the airport.	He said he saw no damage to the airport.	884116	1471958531416	1471958531560		79
1797	18503	He said he saw no damage to the airport.	He said he saw no damage to the airport.	884117	1471958531528	1471958531655		32
1797	18503	He said he saw no damage to the airport.	He said he saw no damage to the airport.	884120	1471958531639	1471958531800		68
1797	18503	He said he saw no damage to the airport.	He said he saw no damage to the airport.	884122	1471958531800	1471958531912		65
1797	18503	He said he saw no damage to the airport.	He said he saw no damage to the airport.	884124	1471958531880	1471958532040		77
1797	18503	He said he saw no damage to the airport.	He said he saw no damage to the airport.	884146	1471958532024	1471958532137		65
1797	18503	He said he saw no damage to the airport.	He said he saw no damage to the airport.	884149	1471958532119	1471958532232		71
1797	18503	He said he saw no damage to the airport.	He said he saw no damage to the airport.	884153	1471958532216	1471958532344		69
1797	18503	He said he saw no damage to the airport.	He said he saw no damage to the airport.	884157	1471958532312	1471958532440		32
1797	18503	He said he saw no damage to the airport.	He said he saw no damage to the airport.	884161	1471958532536	1471958532664		84
1797	18503	He said he saw no damage to the airport.	He said he saw no damage to the airport.	884167	1471958532632	1471958532744		79
1797	18503	He said he saw no damage to the airport.	He said he saw no damage to the airport.	884171	1471958532680	1471958532759		32
1797	18503	He said he saw no damage to the airport.	He said he saw no damage to the airport.	884175	1471958532776	1471958532903		84
1797	18503	He said he saw no damage to the airport.	He said he saw no damage to the airport.	884179	1471958532807	1471958532951		72
1797	18503	He said he saw no damage to the airport.	He said he saw no damage to the airport.	884253	1471958532872	1471958532999		69
1797	18503	He said he saw no damage to the airport.	He said he saw no damage to the airport.	884257	1471958532919	1471958533095		32
1797	18503	He said he saw no damage to the airport.	He said he saw no damage to the airport.	884260	1471958533271	1471958533351		73
1797	18503	He said he saw no damage to the airport.	He said he saw no damage to the airport.	884264	1471958533639	1471958533703		8
1797	18503	He said he saw no damage to the airport.	He said he saw no damage to the airport.	884267	1471958533799	1471958533975		65
1797	18503	He said he saw no damage to the airport.	He said he saw no damage to the airport.	884270	1471958533927	1471958534071		73
1797	18503	He said he saw no damage to the airport.	He said he saw no damage to the airport.	884285	1471958534023	1471958534183		82
1797	18503	He said he saw no damage to the airport.	He said he saw no damage to the airport.	884290	1471958534151	1471958534279		80
1797	18503	He said he saw no damage to the airport.	He said he saw no damage to the airport.	884295	1471958534247	1471958534423		79
1797	18503	He said he saw no damage to the airport.	He said he saw no damage to the airport.	884300	1471958534359	1471958534455		82
1797	18503	He said he saw no damage to the airport.	He said he saw no damage to the airport.	884305	1471958534519	1471958534663		84
1797	18503	He said he saw no damage to the airport.	He said he saw no damage to the airport.	884311	1471958534615	1471958534727		190
1797	18509	If it needs to be paid, we will need to add the day to the deal.	If it needs to be paid, we will need to add the day to the deal.	884481	1471958536375	1471958536519	SHIFT	16
1797	18509	If it needs to be paid, we will need to add the day to the deal.	If it needs to be paid, we will need to add the day to the deal.	884485	1471958536471	1471958536615		73
1797	18509	If it needs to be paid, we will need to add the day to the deal.	If it needs to be paid, we will need to add the day to the deal.	884488	1471958536567	1471958536727		84
1797	18509	If it needs to be paid, we will need to add the day to the deal.	If it needs to be paid, we will need to add the day to the deal.	884490	1471958536665	1471958536791		32
1797	18509	If it needs to be paid, we will need to add the day to the deal.	If it needs to be paid, we will need to add the day to the deal.	884492	1471958536983	1471958537111		73
1797	18509	If it needs to be paid, we will need to add the day to the deal.	If it needs to be paid, we will need to add the day to the deal.	884539	1471958537095	1471958537271		70
1797	18509	If it needs to be paid, we will need to add the day to the deal.	If it needs to be paid, we will need to add the day to the deal.	884540	1471958537559	1471958537639		8
1797	18509	If it needs to be paid, we will need to add the day to the deal.	If it needs to be paid, we will need to add the day to the deal.	884542	1471958537703	1471958537768		8
1797	18509	If it needs to be paid, we will need to add the day to the deal.	If it needs to be paid, we will need to add the day to the deal.	884545	1471958537831	1471958537879		8
1797	18509	If it needs to be paid, we will need to add the day to the deal.	If it needs to be paid, we will need to add the day to the deal.	884549	1471958537943	1471958538039		8
1797	18509	If it needs to be paid, we will need to add the day to the deal.	If it needs to be paid, we will need to add the day to the deal.	884552	1471958538103	1471958538295		70
1797	18509	If it needs to be paid, we will need to add the day to the deal.	If it needs to be paid, we will need to add the day to the deal.	884569	1471958538215	1471958538343		32
1797	18509	If it needs to be paid, we will need to add the day to the deal.	If it needs to be paid, we will need to add the day to the deal.	884572	1471958538343	1471958538471		73
1797	18509	If it needs to be paid, we will need to add the day to the deal.	If it needs to be paid, we will need to add the day to the deal.	884575	1471958538423	1471958538551		84
1797	18509	If it needs to be paid, we will need to add the day to the deal.	If it needs to be paid, we will need to add the day to the deal.	884577	1471958538551	1471958538679		32
1797	18509	If it needs to be paid, we will need to add the day to the deal.	If it needs to be paid, we will need to add the day to the deal.	884580	1471958538744	1471958538903		78
1797	18509	If it needs to be paid, we will need to add the day to the deal.	If it needs to be paid, we will need to add the day to the deal.	884619	1471958538855	1471958538904		69
1797	18509	If it needs to be paid, we will need to add the day to the deal.	If it needs to be paid, we will need to add the day to the deal.	884623	1471958539015	1471958539111		69
1797	18509	If it needs to be paid, we will need to add the day to the deal.	If it needs to be paid, we will need to add the day to the deal.	884626	1471958539207	1471958539383		68
1797	18509	If it needs to be paid, we will need to add the day to the deal.	If it needs to be paid, we will need to add the day to the deal.	884629	1471958539319	1471958539463		83
1797	18509	If it needs to be paid, we will need to add the day to the deal.	If it needs to be paid, we will need to add the day to the deal.	884632	1471958539367	1471958539511		32
1797	18509	If it needs to be paid, we will need to add the day to the deal.	If it needs to be paid, we will need to add the day to the deal.	884634	1471958539511	1471958539655		84
1797	18509	If it needs to be paid, we will need to add the day to the deal.	If it needs to be paid, we will need to add the day to the deal.	884643	1471958539575	1471958539703		79
1797	18509	If it needs to be paid, we will need to add the day to the deal.	If it needs to be paid, we will need to add the day to the deal.	884645	1471958539656	1471958539767		32
1797	18509	If it needs to be paid, we will need to add the day to the deal.	If it needs to be paid, we will need to add the day to the deal.	884650	1471958539943	1471958540023		66
1797	18509	If it needs to be paid, we will need to add the day to the deal.	If it needs to be paid, we will need to add the day to the deal.	884654	1471958540103	1471958540215		69
1797	18509	If it needs to be paid, we will need to add the day to the deal.	If it needs to be paid, we will need to add the day to the deal.	884657	1471958540215	1471958540375		32
1797	18509	If it needs to be paid, we will need to add the day to the deal.	If it needs to be paid, we will need to add the day to the deal.	884679	1471958540359	1471958540519		80
1797	18509	If it needs to be paid, we will need to add the day to the deal.	If it needs to be paid, we will need to add the day to the deal.	884682	1471958540423	1471958540567		65
1797	18509	If it needs to be paid, we will need to add the day to the deal.	If it needs to be paid, we will need to add the day to the deal.	884685	1471958540519	1471958540647		73
1797	18509	If it needs to be paid, we will need to add the day to the deal.	If it needs to be paid, we will need to add the day to the deal.	884688	1471958540583	1471958540744		68
1797	18509	If it needs to be paid, we will need to add the day to the deal.	If it needs to be paid, we will need to add the day to the deal.	884690	1471958540776	1471958540903		188
1797	18509	If it needs to be paid, we will need to add the day to the deal.	If it needs to be paid, we will need to add the day to the deal.	884692	1471958540903	1471958541063		32
1797	18509	If it needs to be paid, we will need to add the day to the deal.	If it needs to be paid, we will need to add the day to the deal.	884752	1471958541015	1471958541207		87
1797	18509	If it needs to be paid, we will need to add the day to the deal.	If it needs to be paid, we will need to add the day to the deal.	884754	1471958541127	1471958541239		73
1797	18509	If it needs to be paid, we will need to add the day to the deal.	If it needs to be paid, we will need to add the day to the deal.	884757	1471958541527	1471958541655		32
1797	18509	If it needs to be paid, we will need to add the day to the deal.	If it needs to be paid, we will need to add the day to the deal.	884760	1471958541848	1471958541896		8
1797	18509	If it needs to be paid, we will need to add the day to the deal.	If it needs to be paid, we will need to add the day to the deal.	884761	1471958541975	1471958542071		8
1797	18509	If it needs to be paid, we will need to add the day to the deal.	If it needs to be paid, we will need to add the day to the deal.	884763	1471958542103	1471958542263		69
1797	18509	If it needs to be paid, we will need to add the day to the deal.	If it needs to be paid, we will need to add the day to the deal.	884812	1471958542199	1471958542375		32
1797	18509	If it needs to be paid, we will need to add the day to the deal.	If it needs to be paid, we will need to add the day to the deal.	884814	1471958542407	1471958542583		69
1797	18509	If it needs to be paid, we will need to add the day to the deal.	If it needs to be paid, we will need to add the day to the deal.	884815	1471958542919	1471958542999		8
1797	18509	If it needs to be paid, we will need to add the day to the deal.	If it needs to be paid, we will need to add the day to the deal.	884816	1471958543063	1471958543223		87
1797	18509	If it needs to be paid, we will need to add the day to the deal.	If it needs to be paid, we will need to add the day to the deal.	884818	1471958543207	1471958543271		73
1797	18509	If it needs to be paid, we will need to add the day to the deal.	If it needs to be paid, we will need to add the day to the deal.	884821	1471958543383	1471958543447		76
1797	18509	If it needs to be paid, we will need to add the day to the deal.	If it needs to be paid, we will need to add the day to the deal.	884832	1471958543511	1471958543607		76
1797	18509	If it needs to be paid, we will need to add the day to the deal.	If it needs to be paid, we will need to add the day to the deal.	884836	1471958543543	1471958543687		32
1797	18509	If it needs to be paid, we will need to add the day to the deal.	If it needs to be paid, we will need to add the day to the deal.	884840	1471958543671	1471958543831		78
1797	18509	If it needs to be paid, we will need to add the day to the deal.	If it needs to be paid, we will need to add the day to the deal.	884845	1471958543783	1471958543831		69
1797	18509	If it needs to be paid, we will need to add the day to the deal.	If it needs to be paid, we will need to add the day to the deal.	884850	1471958543927	1471958544007		69
1797	18509	If it needs to be paid, we will need to add the day to the deal.	If it needs to be paid, we will need to add the day to the deal.	884932	1471958544183	1471958544326		32
1797	18509	If it needs to be paid, we will need to add the day to the deal.	If it needs to be paid, we will need to add the day to the deal.	884937	1471958544806	1471958544870		8
1797	18509	If it needs to be paid, we will need to add the day to the deal.	If it needs to be paid, we will need to add the day to the deal.	884940	1471958544967	1471958545014		8
1797	18509	If it needs to be paid, we will need to add the day to the deal.	If it needs to be paid, we will need to add the day to the deal.	884946	1471958545079	1471958545238		68
1797	18509	If it needs to be paid, we will need to add the day to the deal.	If it needs to be paid, we will need to add the day to the deal.	885020	1471958545223	1471958545335		32
1797	18509	If it needs to be paid, we will need to add the day to the deal.	If it needs to be paid, we will need to add the day to the deal.	885025	1471958545686	1471958545782		8
1797	18509	If it needs to be paid, we will need to add the day to the deal.	If it needs to be paid, we will need to add the day to the deal.	885029	1471958546127	1471958546199		8
1797	18509	If it needs to be paid, we will need to add the day to the deal.	If it needs to be paid, we will need to add the day to the deal.	885031	1471958546415	1471958546471		69
1797	18509	If it needs to be paid, we will need to add the day to the deal.	If it needs to be paid, we will need to add the day to the deal.	885033	1471958546566	1471958546662		68
1797	18509	If it needs to be paid, we will need to add the day to the deal.	If it needs to be paid, we will need to add the day to the deal.	885052	1471958546599	1471958546727		32
1797	18509	If it needs to be paid, we will need to add the day to the deal.	If it needs to be paid, we will need to add the day to the deal.	885055	1471958546743	1471958546859		84
1797	18509	If it needs to be paid, we will need to add the day to the deal.	If it needs to be paid, we will need to add the day to the deal.	885058	1471958546806	1471958546935		79
1797	18509	If it needs to be paid, we will need to add the day to the deal.	If it needs to be paid, we will need to add the day to the deal.	885059	1471958546870	1471958546998		32
1797	18509	If it needs to be paid, we will need to add the day to the deal.	If it needs to be paid, we will need to add the day to the deal.	885060	1471958546982	1471958547062		66
1797	18509	If it needs to be paid, we will need to add the day to the deal.	If it needs to be paid, we will need to add the day to the deal.	885061	1471958547638	1471958547734		8
1797	18509	If it needs to be paid, we will need to add the day to the deal.	If it needs to be paid, we will need to add the day to the deal.	885074	1471958547814	1471958547958		65
1797	18509	If it needs to be paid, we will need to add the day to the deal.	If it needs to be paid, we will need to add the day to the deal.	885075	1471958547974	1471958548038		68
1797	18509	If it needs to be paid, we will need to add the day to the deal.	If it needs to be paid, we will need to add the day to the deal.	885077	1471958548119	1471958548230		68
1797	18509	If it needs to be paid, we will need to add the day to the deal.	If it needs to be paid, we will need to add the day to the deal.	885078	1471958548231	1471958548364		32
1797	18509	If it needs to be paid, we will need to add the day to the deal.	If it needs to be paid, we will need to add the day to the deal.	885106	1471958548310	1471958548438		84
1797	18509	If it needs to be paid, we will need to add the day to the deal.	If it needs to be paid, we will need to add the day to the deal.	885110	1471958548390	1471958548534		72
1797	18509	If it needs to be paid, we will need to add the day to the deal.	If it needs to be paid, we will need to add the day to the deal.	885114	1471958548535	1471958548678		32
1797	18509	If it needs to be paid, we will need to add the day to the deal.	If it needs to be paid, we will need to add the day to the deal.	885116	1471958549014	1471958549079		8
1797	18509	If it needs to be paid, we will need to add the day to the deal.	If it needs to be paid, we will need to add the day to the deal.	885118	1471958549142	1471958549238		8
1797	18509	If it needs to be paid, we will need to add the day to the deal.	If it needs to be paid, we will need to add the day to the deal.	885121	1471958549239	1471958549335		69
1797	18509	If it needs to be paid, we will need to add the day to the deal.	If it needs to be paid, we will need to add the day to the deal.	885167	1471958549798	1471958549894		8
1797	18509	If it needs to be paid, we will need to add the day to the deal.	If it needs to be paid, we will need to add the day to the deal.	885171	1471958550054	1471958550166		72
1797	18509	If it needs to be paid, we will need to add the day to the deal.	If it needs to be paid, we will need to add the day to the deal.	885174	1471958550119	1471958550246		69
1797	18509	If it needs to be paid, we will need to add the day to the deal.	If it needs to be paid, we will need to add the day to the deal.	885176	1471958550230	1471958550390		32
1797	18509	If it needs to be paid, we will need to add the day to the deal.	If it needs to be paid, we will need to add the day to the deal.	885192	1471958550342	1471958550454		68
1797	18509	If it needs to be paid, we will need to add the day to the deal.	If it needs to be paid, we will need to add the day to the deal.	885195	1471958550422	1471958550614		65
1797	18509	If it needs to be paid, we will need to add the day to the deal.	If it needs to be paid, we will need to add the day to the deal.	885199	1471958550553	1471958550678		89
1797	18509	If it needs to be paid, we will need to add the day to the deal.	If it needs to be paid, we will need to add the day to the deal.	885202	1471958550662	1471958550742		32
1797	18509	If it needs to be paid, we will need to add the day to the deal.	If it needs to be paid, we will need to add the day to the deal.	885205	1471958550854	1471958551014		84
1797	18509	If it needs to be paid, we will need to add the day to the deal.	If it needs to be paid, we will need to add the day to the deal.	885221	1471958550950	1471958551062		79
1797	18509	If it needs to be paid, we will need to add the day to the deal.	If it needs to be paid, we will need to add the day to the deal.	885224	1471958551016	1471958551126		32
1797	18509	If it needs to be paid, we will need to add the day to the deal.	If it needs to be paid, we will need to add the day to the deal.	885229	1471958551158	1471958551286		84
1797	18509	If it needs to be paid, we will need to add the day to the deal.	If it needs to be paid, we will need to add the day to the deal.	885233	1471958551238	1471958551382		72
1797	18509	If it needs to be paid, we will need to add the day to the deal.	If it needs to be paid, we will need to add the day to the deal.	885236	1471958551302	1471958551415		69
1797	18509	If it needs to be paid, we will need to add the day to the deal.	If it needs to be paid, we will need to add the day to the deal.	885246	1471958551382	1471958551510		32
1797	18509	If it needs to be paid, we will need to add the day to the deal.	If it needs to be paid, we will need to add the day to the deal.	885248	1471958551510	1471958551590		68
1797	18509	If it needs to be paid, we will need to add the day to the deal.	If it needs to be paid, we will need to add the day to the deal.	885251	1471958551670	1471958551798		69
1797	18509	If it needs to be paid, we will need to add the day to the deal.	If it needs to be paid, we will need to add the day to the deal.	885255	1471958551766	1471958551943		65
1797	18509	If it needs to be paid, we will need to add the day to the deal.	If it needs to be paid, we will need to add the day to the deal.	885258	1471958551862	1471958552006		76
1797	18509	If it needs to be paid, we will need to add the day to the deal.	If it needs to be paid, we will need to add the day to the deal.	885260	1471958552038	1471958552150		190
1797	18527	See client Help for more information.	See client Help for more information.	885388	1471958553910	1471958554070	SHIFT	16
1797	18527	See client Help for more information.	See client Help for more information.	885391	1471958554006	1471958554102		83
1797	18527	See client Help for more information.	See client Help for more information.	885396	1471958554182	1471958554262		69
1797	18527	See client Help for more information.	See client Help for more information.	885401	1471958554326	1471958554454		69
1797	18527	See client Help for more information.	See client Help for more information.	885405	1471958554380	1471958554566		32
1797	18527	See client Help for more information.	See client Help for more information.	885416	1471958554630	1471958554822		67
1797	18527	See client Help for more information.	See client Help for more information.	885409	1471958554726	1471958554806		76
1797	18527	See client Help for more information.	See client Help for more information.	885418	1471958554870	1471958554998		73
1797	18527	See client Help for more information.	See client Help for more information.	885420	1471958554950	1471958555078		69
1797	18527	See client Help for more information.	See client Help for more information.	885422	1471958555062	1471958555254		78
1797	18527	See client Help for more information.	See client Help for more information.	885425	1471958555158	1471958555318		84
1797	18527	See client Help for more information.	See client Help for more information.	885482	1471958555302	1471958555418		32
1797	18527	See client Help for more information.	See client Help for more information.	885484	1471958555782	1471958555910	SHIFT	16
1797	18527	See client Help for more information.	See client Help for more information.	885486	1471958555862	1471958556038		72
1797	18527	See client Help for more information.	See client Help for more information.	885488	1471958555990	1471958556150		69
1797	18527	See client Help for more information.	See client Help for more information.	885490	1471958556086	1471958556294		76
1797	18527	See client Help for more information.	See client Help for more information.	885492	1471958556278	1471958556438		80
1797	18527	See client Help for more information.	See client Help for more information.	885519	1471958556406	1471958556518		32
1797	18527	See client Help for more information.	See client Help for more information.	885521	1471958556552	1471958556677		70
1797	18527	See client Help for more information.	See client Help for more information.	885523	1471958556646	1471958556806		79
1797	18527	See client Help for more information.	See client Help for more information.	885525	1471958556758	1471958556917		82
1797	18527	See client Help for more information.	See client Help for more information.	885527	1471958556821	1471958556950		32
1797	18527	See client Help for more information.	See client Help for more information.	885529	1471958557125	1471958557238		77
1797	18527	See client Help for more information.	See client Help for more information.	885535	1471958557222	1471958557422		79
1797	18527	See client Help for more information.	See client Help for more information.	885537	1471958557333	1471958557493		82
1797	18527	See client Help for more information.	See client Help for more information.	885542	1471958557422	1471958557574		69
1797	18527	See client Help for more information.	See client Help for more information.	885546	1471958557542	1471958557701		73
1797	18527	See client Help for more information.	See client Help for more information.	885567	1471958557654	1471958557797		78
1797	18527	See client Help for more information.	See client Help for more information.	885569	1471958557782	1471958557893		70
1797	18527	See client Help for more information.	See client Help for more information.	885573	1471958557861	1471958557989		79
1797	18527	See client Help for more information.	See client Help for more information.	885575	1471958557973	1471958558085		82
1797	18527	See client Help for more information.	See client Help for more information.	885576	1471958558069	1471958558229		77
1797	18527	See client Help for more information.	See client Help for more information.	885591	1471958558149	1471958558373		65
1797	18527	See client Help for more information.	See client Help for more information.	885593	1471958558213	1471958558389		84
1797	18527	See client Help for more information.	See client Help for more information.	885597	1471958558261	1471958558501		73
1797	18527	See client Help for more information.	See client Help for more information.	885595	1471958558357	1471958558485		79
1797	18527	See client Help for more information.	See client Help for more information.	885600	1471958558453	1471958558598		78
1797	18527	See client Help for more information.	See client Help for more information.	885602	1471958558581	1471958558709		190
1797	18532	The Fed has not taken an official position on the issue.	The Fed has not taken an official position on the issue.	885740	1471958560645	1471958560789	SHIFT	16
1797	18532	The Fed has not taken an official position on the issue.	The Fed has not taken an official position on the issue.	885742	1471958560741	1471958560885		84
1797	18532	The Fed has not taken an official position on the issue.	The Fed has not taken an official position on the issue.	885745	1471958560869	1471958561029		72
1797	18532	The Fed has not taken an official position on the issue.	The Fed has not taken an official position on the issue.	885747	1471958560901	1471958561061		69
1797	18532	The Fed has not taken an official position on the issue.	The Fed has not taken an official position on the issue.	885751	1471958561030	1471958561159		32
1797	18532	The Fed has not taken an official position on the issue.	The Fed has not taken an official position on the issue.	885755	1471958561221	1471958561525	SHIFT	16
1797	18532	The Fed has not taken an official position on the issue.	The Fed has not taken an official position on the issue.	885790	1471958561381	1471958561541		82
1797	18532	The Fed has not taken an official position on the issue.	The Fed has not taken an official position on the issue.	885794	1471958561542	1471958561717		69
1797	18532	The Fed has not taken an official position on the issue.	The Fed has not taken an official position on the issue.	885797	1471958561829	1471958561989		68
1797	18532	The Fed has not taken an official position on the issue.	The Fed has not taken an official position on the issue.	885801	1471958562277	1471958562341		8
1797	18532	The Fed has not taken an official position on the issue.	The Fed has not taken an official position on the issue.	885805	1471958562406	1471958562501		8
1797	18532	The Fed has not taken an official position on the issue.	The Fed has not taken an official position on the issue.	885808	1471958562629	1471958562677		8
1797	18532	The Fed has not taken an official position on the issue.	The Fed has not taken an official position on the issue.	885837	1471958563143	1471958563317	SHIFT	16
1797	18532	The Fed has not taken an official position on the issue.	The Fed has not taken an official position on the issue.	885841	1471958563205	1471958563349		70
1797	18532	The Fed has not taken an official position on the issue.	The Fed has not taken an official position on the issue.	885845	1471958563398	1471958563477		69
1797	18532	The Fed has not taken an official position on the issue.	The Fed has not taken an official position on the issue.	885850	1471958563573	1471958563718		68
1797	18532	The Fed has not taken an official position on the issue.	The Fed has not taken an official position on the issue.	885854	1471958563638	1471958563765		32
1797	18532	The Fed has not taken an official position on the issue.	The Fed has not taken an official position on the issue.	885861	1471958563765	1471958563941		72
1797	18532	The Fed has not taken an official position on the issue.	The Fed has not taken an official position on the issue.	885871	1471958563830	1471958564037		65
1797	18532	The Fed has not taken an official position on the issue.	The Fed has not taken an official position on the issue.	885878	1471958563943	1471958564149		83
1797	18532	The Fed has not taken an official position on the issue.	The Fed has not taken an official position on the issue.	885874	1471958563989	1471958564149		32
1797	18532	The Fed has not taken an official position on the issue.	The Fed has not taken an official position on the issue.	885881	1471958564165	1471958564294		78
1797	18532	The Fed has not taken an official position on the issue.	The Fed has not taken an official position on the issue.	885885	1471958564245	1471958564405		79
1797	18532	The Fed has not taken an official position on the issue.	The Fed has not taken an official position on the issue.	885914	1471958564294	1471958564423		84
1797	18532	The Fed has not taken an official position on the issue.	The Fed has not taken an official position on the issue.	885916	1471958564410	1471958564501		32
1797	18532	The Fed has not taken an official position on the issue.	The Fed has not taken an official position on the issue.	885918	1471958564725	1471958564853		84
1797	18532	The Fed has not taken an official position on the issue.	The Fed has not taken an official position on the issue.	885921	1471958564885	1471958565061		65
1797	18532	The Fed has not taken an official position on the issue.	The Fed has not taken an official position on the issue.	885924	1471958565061	1471958565205		75
1797	18532	The Fed has not taken an official position on the issue.	The Fed has not taken an official position on the issue.	885946	1471958565157	1471958565301		69
1797	18532	The Fed has not taken an official position on the issue.	The Fed has not taken an official position on the issue.	885948	1471958565269	1471958565424		78
1797	18532	The Fed has not taken an official position on the issue.	The Fed has not taken an official position on the issue.	885951	1471958565381	1471958565525		32
1797	18532	The Fed has not taken an official position on the issue.	The Fed has not taken an official position on the issue.	885955	1471958565573	1471958565733		65
1797	18532	The Fed has not taken an official position on the issue.	The Fed has not taken an official position on the issue.	885957	1471958565669	1471958565829		78
1797	18532	The Fed has not taken an official position on the issue.	The Fed has not taken an official position on the issue.	886007	1471958565781	1471958565925		32
1797	18532	The Fed has not taken an official position on the issue.	The Fed has not taken an official position on the issue.	886011	1471958565989	1471958566069		79
1797	18532	The Fed has not taken an official position on the issue.	The Fed has not taken an official position on the issue.	886014	1471958566149	1471958566261		79
1797	18532	The Fed has not taken an official position on the issue.	The Fed has not taken an official position on the issue.	886017	1471958566629	1471958566709		8
1797	18532	The Fed has not taken an official position on the issue.	The Fed has not taken an official position on the issue.	886020	1471958566885	1471958566949		70
1797	18532	The Fed has not taken an official position on the issue.	The Fed has not taken an official position on the issue.	886023	1471958567045	1471958567125		70
1797	18532	The Fed has not taken an official position on the issue.	The Fed has not taken an official position on the issue.	886024	1471958567141	1471958567221		73
1797	18532	The Fed has not taken an official position on the issue.	The Fed has not taken an official position on the issue.	886027	1471958567221	1471958567365		67
1797	18532	The Fed has not taken an official position on the issue.	The Fed has not taken an official position on the issue.	886031	1471958567333	1471958567445		73
1797	18532	The Fed has not taken an official position on the issue.	The Fed has not taken an official position on the issue.	886036	1471958567525	1471958567669		65
1797	18532	The Fed has not taken an official position on the issue.	The Fed has not taken an official position on the issue.	886058	1471958567573	1471958567717		76
1797	18532	The Fed has not taken an official position on the issue.	The Fed has not taken an official position on the issue.	886060	1471958567717	1471958567861		32
1797	18532	The Fed has not taken an official position on the issue.	The Fed has not taken an official position on the issue.	886064	1471958567989	1471958568117		80
1797	18532	The Fed has not taken an official position on the issue.	The Fed has not taken an official position on the issue.	886068	1471958568165	1471958568293		79
1797	18532	The Fed has not taken an official position on the issue.	The Fed has not taken an official position on the issue.	886072	1471958568293	1471958568424		83
1797	18532	The Fed has not taken an official position on the issue.	The Fed has not taken an official position on the issue.	886089	1471958568389	1471958568469		73
1797	18532	The Fed has not taken an official position on the issue.	The Fed has not taken an official position on the issue.	886093	1471958568485	1471958568645		84
1797	18532	The Fed has not taken an official position on the issue.	The Fed has not taken an official position on the issue.	886096	1471958568565	1471958568740		73
1797	18532	The Fed has not taken an official position on the issue.	The Fed has not taken an official position on the issue.	886101	1471958568629	1471958568853		79
1797	18532	The Fed has not taken an official position on the issue.	The Fed has not taken an official position on the issue.	886103	1471958568805	1471958568949		78
1797	18532	The Fed has not taken an official position on the issue.	The Fed has not taken an official position on the issue.	886131	1471958568901	1471958568997		32
1797	18532	The Fed has not taken an official position on the issue.	The Fed has not taken an official position on the issue.	886136	1471958568997	1471958569140		79
1797	18532	The Fed has not taken an official position on the issue.	The Fed has not taken an official position on the issue.	886139	1471958569141	1471958569301		78
1797	18532	The Fed has not taken an official position on the issue.	The Fed has not taken an official position on the issue.	886142	1471958569301	1471958569364		32
1797	18532	The Fed has not taken an official position on the issue.	The Fed has not taken an official position on the issue.	886195	1471958569413	1471958569572		72
1797	18532	The Fed has not taken an official position on the issue.	The Fed has not taken an official position on the issue.	886198	1471958569573	1471958569700		32
1797	18532	The Fed has not taken an official position on the issue.	The Fed has not taken an official position on the issue.	886201	1471958570037	1471958570164		73
1797	18532	The Fed has not taken an official position on the issue.	The Fed has not taken an official position on the issue.	886203	1471958570197	1471958570244		83
1797	18532	The Fed has not taken an official position on the issue.	The Fed has not taken an official position on the issue.	886206	1471958570324	1471958570428		83
1797	18532	The Fed has not taken an official position on the issue.	The Fed has not taken an official position on the issue.	886218	1471958570405	1471958570532		85
1797	18532	The Fed has not taken an official position on the issue.	The Fed has not taken an official position on the issue.	886220	1471958570485	1471958570644		69
1797	18532	The Fed has not taken an official position on the issue.	The Fed has not taken an official position on the issue.	886225	1471958570645	1471958570756		190
