PARTICIPANT_ID	TEST_SECTION_ID	SENTENCE	USER_INPUT	KEYSTROKE_ID	PRESS_TIME	RELEASE_TIME	LETTER	KEYCODE
1802	18423	I was out Thurs.	i was out thurs.	880059	1471958465021	1471958465102	i	73
1802	18423	I was out Thurs.	i was out thurs.	880063	1471958465415	1471958465470	 	32
1802	18423	I was out Thurs.	i was out thurs.	880068	1471958466160	1471958466251	w	87
1802	18423	I was out Thurs.	i was out thurs.	880074	1471958466407	1471958466453	a	65
1802	18423	I was out Thurs.	i was out thurs.	880078	1471958466563	1471958466604	s	83
1802	18423	I was out Thurs.	i was out thurs.	880218	1471958466661	1471958466721	 	32
1802	18423	I was out Thurs.	i was out thurs.	880220	1471958467848	1471958467951	o	79
1802	18423	I was out Thurs.	i was out thurs.	880225	1471958468326	1471958468401	u	85
1802	18423	I was out Thurs.	i was out thurs.	880231	1471958468557	1471958468620	t	84
1802	18423	I was out Thurs.	i was out thurs.	880241	1471958468792	1471958468862	 	32
1802	18423	I was out Thurs.	i was out thurs.	880318	1471958469355	1471958469434	t	84
1802	18423	I was out Thurs.	i was out thurs.	880320	1471958469575	1471958469634	h	72
1802	18423	I was out Thurs.	i was out thurs.	880321	1471958469902	1471958469970	u	85
1802	18423	I was out Thurs.	i was out thurs.	880322	1471958470173	1471958470236	r	82
1802	18423	I was out Thurs.	i was out thurs.	880323	1471958470236	1471958470303	s	83
1802	18423	I was out Thurs.	i was out thurs.	881137	1471958471338	1471958471401	.	190
1802	18423	I was out Thurs.	i was out thurs.	881140	1471958474954	1471958475063	BKSP	8
1802	18423	I was out Thurs.	i was out thurs.	881143	1471958475406	1471958475514	SHIFT	16
1802	18423	I was out Thurs.	i was out thurs.	881144	1471958475514	1471958475568	i	73
1802	18423	I was out Thurs.	i was out thurs.	881145	1471958478866	1471958478979	BKSP	8
1802	18423	I was out Thurs.	i was out thurs.	881146	1471958479339	1471958479418	SHIFT	16
1802	18423	I was out Thurs.	i was out thurs.	881147	1471958479419	1471958479482	t	84
1802	18447	We have lots of forks, etc.	We have lots of forks, etc.	881354	1471958486678	1471958486746	SHIFT	16
1802	18447	We have lots of forks, etc.	We have lots of forks, etc.	881356	1471958486710	1471958486778	W	87
1802	18447	We have lots of forks, etc.	We have lots of forks, etc.	881358	1471958486903	1471958486962	e	69
1802	18447	We have lots of forks, etc.	We have lots of forks, etc.	881360	1471958487180	1471958487231	 	32
1802	18447	We have lots of forks, etc.	We have lots of forks, etc.	881364	1471958488762	1471958488842	h	72
1802	18447	We have lots of forks, etc.	We have lots of forks, etc.	881446	1471958488797	1471958488942	a	65
1802	18447	We have lots of forks, etc.	We have lots of forks, etc.	881448	1471958489004	1471958489078	v	86
1802	18447	We have lots of forks, etc.	We have lots of forks, etc.	881452	1471958489171	1471958489212	e	69
1802	18447	We have lots of forks, etc.	We have lots of forks, etc.	881459	1471958489259	1471958489328	 	32
1802	18447	We have lots of forks, etc.	We have lots of forks, etc.	881465	1471958490292	1471958490360	l	76
1802	18447	We have lots of forks, etc.	We have lots of forks, etc.	881469	1471958490469	1471958490521	o	79
1802	18447	We have lots of forks, etc.	We have lots of forks, etc.	881542	1471958490751	1471958490810	t	84
1802	18447	We have lots of forks, etc.	We have lots of forks, etc.	881545	1471958490857	1471958490895	s	83
1802	18447	We have lots of forks, etc.	We have lots of forks, etc.	881549	1471958490973	1471958491042	 	32
1802	18447	We have lots of forks, etc.	We have lots of forks, etc.	881553	1471958491826	1471958491893	o	79
1802	18447	We have lots of forks, etc.	We have lots of forks, etc.	881558	1471958492080	1471958492158	f	70
1802	18447	We have lots of forks, etc.	We have lots of forks, etc.	881707	1471958492196	1471958492243	 	32
1802	18447	We have lots of forks, etc.	We have lots of forks, etc.	881710	1471958493357	1471958493426	f	70
1802	18447	We have lots of forks, etc.	We have lots of forks, etc.	881713	1471958493504	1471958493559	o	79
1802	18447	We have lots of forks, etc.	We have lots of forks, etc.	881716	1471958493856	1471958493894	k	75
1802	18447	We have lots of forks, etc.	We have lots of forks, etc.	881719	1471958494568	1471958494640	BKSP	8
1802	18447	We have lots of forks, etc.	We have lots of forks, etc.	881723	1471958495457	1471958495526	r	82
1802	18447	We have lots of forks, etc.	We have lots of forks, etc.	881914	1471958495899	1471958495975	k	75
1802	18447	We have lots of forks, etc.	We have lots of forks, etc.	881922	1471958495990	1471958496060	s	83
1802	18447	We have lots of forks, etc.	We have lots of forks, etc.	881927	1471958497361	1471958497425	,	188
1802	18447	We have lots of forks, etc.	We have lots of forks, etc.	881932	1471958498131	1471958498191	 	32
1802	18447	We have lots of forks, etc.	We have lots of forks, etc.	881934	1471958499084	1471958499161	e	69
1802	18447	We have lots of forks, etc.	We have lots of forks, etc.	882025	1471958499141	1471958499222	t	84
1802	18447	We have lots of forks, etc.	We have lots of forks, etc.	882030	1471958499316	1471958499359	c	67
1802	18447	We have lots of forks, etc.	We have lots of forks, etc.	882036	1471958500237	1471958500306	.	190
1802	18462	Kay Mann is going to take the lead on this.	kay mann is goinh to take the lead on this.	882227	1471958504257	1471958504329	k	75
1802	18462	Kay Mann is going to take the lead on this.	kay mann is goinh to take the lead on this.	882230	1471958504306	1471958504403	a	65
1802	18462	Kay Mann is going to take the lead on this.	kay mann is goinh to take the lead on this.	882232	1471958504450	1471958504507	u	85
1802	18462	Kay Mann is going to take the lead on this.	kay mann is goinh to take the lead on this.	882235	1471958504473	1471958504507	y	89
1802	18462	Kay Mann is going to take the lead on this.	kay mann is goinh to take the lead on this.	882237	1471958505509	1471958505618	BKSP	8
1802	18462	Kay Mann is going to take the lead on this.	kay mann is goinh to take the lead on this.	882240	1471958505680	1471958505801	BKSP	8
1802	18462	Kay Mann is going to take the lead on this.	kay mann is goinh to take the lead on this.	882242	1471958506176	1471958506255	y	89
1802	18462	Kay Mann is going to take the lead on this.	kay mann is goinh to take the lead on this.	882308	1471958506448	1471958506522	 	32
1802	18462	Kay Mann is going to take the lead on this.	kay mann is goinh to take the lead on this.	882311	1471958507211	1471958507335	m	77
1802	18462	Kay Mann is going to take the lead on this.	kay mann is goinh to take the lead on this.	882314	1471958507351	1471958507420	a	65
1802	18462	Kay Mann is going to take the lead on this.	kay mann is goinh to take the lead on this.	882317	1471958507467	1471958507553	n	78
1802	18462	Kay Mann is going to take the lead on this.	kay mann is goinh to take the lead on this.	882322	1471958508086	1471958508249	n	78
1802	18462	Kay Mann is going to take the lead on this.	kay mann is goinh to take the lead on this.	882444	1471958508416	1471958508551	 	32
1802	18462	Kay Mann is going to take the lead on this.	kay mann is goinh to take the lead on this.	882448	1471958509160	1471958509251	i	73
1802	18462	Kay Mann is going to take the lead on this.	kay mann is goinh to take the lead on this.	882451	1471958510014	1471958510169	s	83
1802	18462	Kay Mann is going to take the lead on this.	kay mann is goinh to take the lead on this.	882454	1471958510149	1471958510221	 	32
1802	18462	Kay Mann is going to take the lead on this.	kay mann is goinh to take the lead on this.	882456	1471958510596	1471958510685	g	71
1802	18462	Kay Mann is going to take the lead on this.	kay mann is goinh to take the lead on this.	882496	1471958510685	1471958510785	o	79
1802	18462	Kay Mann is going to take the lead on this.	kay mann is goinh to take the lead on this.	882498	1471958510894	1471958510985	i	73
1802	18462	Kay Mann is going to take the lead on this.	kay mann is goinh to take the lead on this.	882504	1471958511110	1471958511185	n	78
1802	18462	Kay Mann is going to take the lead on this.	kay mann is goinh to take the lead on this.	882508	1471958511326	1471958511434	h	72
1802	18462	Kay Mann is going to take the lead on this.	kay mann is goinh to take the lead on this.	882514	1471958511621	1471958511719	 	32
1802	18462	Kay Mann is going to take the lead on this.	kay mann is goinh to take the lead on this.	882580	1471958512234	1471958512320	t	84
1802	18462	Kay Mann is going to take the lead on this.	kay mann is goinh to take the lead on this.	882581	1471958512367	1471958512436	o	79
1802	18462	Kay Mann is going to take the lead on this.	kay mann is goinh to take the lead on this.	882583	1471958512624	1471958512749	 	32
1802	18462	Kay Mann is going to take the lead on this.	kay mann is goinh to take the lead on this.	882585	1471958513062	1471958513145	t	84
1802	18462	Kay Mann is going to take the lead on this.	kay mann is goinh to take the lead on this.	882587	1471958513164	1471958513298	a	65
1802	18462	Kay Mann is going to take the lead on this.	kay mann is goinh to take the lead on this.	882652	1471958513347	1471958513403	k	75
1802	18462	Kay Mann is going to take the lead on this.	kay mann is goinh to take the lead on this.	882653	1471958513622	1471958513702	 	32
1802	18462	Kay Mann is going to take the lead on this.	kay mann is goinh to take the lead on this.	882654	1471958514422	1471958514552	BKSP	8
1802	18462	Kay Mann is going to take the lead on this.	kay mann is goinh to take the lead on this.	882655	1471958514516	1471958514616	e	69
1802	18462	Kay Mann is going to take the lead on this.	kay mann is goinh to take the lead on this.	882656	1471958514959	1471958515052	 	32
1802	18462	Kay Mann is going to take the lead on this.	kay mann is goinh to take the lead on this.	882657	1471958515396	1471958515467	t	84
1802	18462	Kay Mann is going to take the lead on this.	kay mann is goinh to take the lead on this.	882726	1471958515601	1471958515673	h	72
1802	18462	Kay Mann is going to take the lead on this.	kay mann is goinh to take the lead on this.	882729	1471958515653	1471958515733	e	69
1802	18462	Kay Mann is going to take the lead on this.	kay mann is goinh to take the lead on this.	882732	1471958515842	1471958515902	 	32
1802	18462	Kay Mann is going to take the lead on this.	kay mann is goinh to take the lead on this.	882735	1471958516560	1471958516634	l	76
1802	18462	Kay Mann is going to take the lead on this.	kay mann is goinh to take the lead on this.	882738	1471958516973	1471958517050	e	69
1802	18462	Kay Mann is going to take the lead on this.	kay mann is goinh to take the lead on this.	882805	1471958517066	1471958517134	a	65
1802	18462	Kay Mann is going to take the lead on this.	kay mann is goinh to take the lead on this.	882808	1471958517165	1471958517250	d	68
1802	18462	Kay Mann is going to take the lead on this.	kay mann is goinh to take the lead on this.	882813	1471958517437	1471958517502	 	32
1802	18462	Kay Mann is going to take the lead on this.	kay mann is goinh to take the lead on this.	882815	1471958518144	1471958518232	o	79
1802	18462	Kay Mann is going to take the lead on this.	kay mann is goinh to take the lead on this.	882818	1471958518420	1471958518468	n	78
1802	18462	Kay Mann is going to take the lead on this.	kay mann is goinh to take the lead on this.	882829	1471958518593	1471958518648	 	32
1802	18462	Kay Mann is going to take the lead on this.	kay mann is goinh to take the lead on this.	882831	1471958518841	1471958518918	t	84
1802	18462	Kay Mann is going to take the lead on this.	kay mann is goinh to take the lead on this.	882834	1471958518869	1471958518965	h	72
1802	18462	Kay Mann is going to take the lead on this.	kay mann is goinh to take the lead on this.	882837	1471958519145	1471958519235	i	73
1802	18462	Kay Mann is going to take the lead on this.	kay mann is goinh to take the lead on this.	882889	1471958519201	1471958519299	s	83
1802	18462	Kay Mann is going to take the lead on this.	kay mann is goinh to take the lead on this.	882891	1471958519701	1471958519752	.	190
1802	18485	He is pretty tapped into it all.	he is pretty tapped into it all.	883029	1471958522880	1471958522950	h	72
1802	18485	He is pretty tapped into it all.	he is pretty tapped into it all.	883033	1471958522950	1471958523016	e	69
1802	18485	He is pretty tapped into it all.	he is pretty tapped into it all.	883039	1471958523078	1471958523164	 	32
1802	18485	He is pretty tapped into it all.	he is pretty tapped into it all.	883044	1471958523807	1471958523866	i	73
1802	18485	He is pretty tapped into it all.	he is pretty tapped into it all.	883051	1471958523945	1471958524015	s	83
1802	18485	He is pretty tapped into it all.	he is pretty tapped into it all.	883175	1471958524380	1471958524448	 	32
1802	18485	He is pretty tapped into it all.	he is pretty tapped into it all.	883177	1471958525610	1471958525666	p	80
1802	18485	He is pretty tapped into it all.	he is pretty tapped into it all.	883179	1471958526051	1471958526131	r	82
1802	18485	He is pretty tapped into it all.	he is pretty tapped into it all.	883181	1471958526194	1471958526250	e	69
1802	18485	He is pretty tapped into it all.	he is pretty tapped into it all.	883184	1471958526328	1471958526414	t	84
1802	18485	He is pretty tapped into it all.	he is pretty tapped into it all.	883273	1471958526498	1471958526601	t	84
1802	18485	He is pretty tapped into it all.	he is pretty tapped into it all.	883277	1471958527193	1471958527232	y	89
1802	18485	He is pretty tapped into it all.	he is pretty tapped into it all.	883280	1471958527404	1471958527544	 	32
1802	18485	He is pretty tapped into it all.	he is pretty tapped into it all.	883283	1471958528140	1471958528230	t	84
1802	18485	He is pretty tapped into it all.	he is pretty tapped into it all.	883287	1471958528262	1471958528346	a	65
1802	18485	He is pretty tapped into it all.	he is pretty tapped into it all.	883320	1471958528622	1471958528682	p	80
1802	18485	He is pretty tapped into it all.	he is pretty tapped into it all.	883321	1471958528760	1471958528831	p	80
1802	18485	He is pretty tapped into it all.	he is pretty tapped into it all.	883323	1471958528878	1471958528963	e	69
1802	18485	He is pretty tapped into it all.	he is pretty tapped into it all.	883324	1471958529041	1471958529113	d	68
1802	18485	He is pretty tapped into it all.	he is pretty tapped into it all.	883326	1471958529113	1471958529180	 	32
1802	18485	He is pretty tapped into it all.	he is pretty tapped into it all.	883404	1471958529838	1471958529897	i	73
1802	18485	He is pretty tapped into it all.	he is pretty tapped into it all.	883405	1471958530100	1471958530137	n	78
1802	18485	He is pretty tapped into it all.	he is pretty tapped into it all.	883407	1471958530274	1471958530347	t	84
1802	18485	He is pretty tapped into it all.	he is pretty tapped into it all.	883410	1471958530456	1471958530528	o	79
1802	18485	He is pretty tapped into it all.	he is pretty tapped into it all.	883412	1471958530778	1471958530848	 	32
1802	18485	He is pretty tapped into it all.	he is pretty tapped into it all.	883464	1471958531369	1471958531430	i	73
1802	18485	He is pretty tapped into it all.	he is pretty tapped into it all.	883467	1471958531555	1471958531614	t	84
1802	18485	He is pretty tapped into it all.	he is pretty tapped into it all.	883472	1471958531645	1471958531712	 	32
1802	18485	He is pretty tapped into it all.	he is pretty tapped into it all.	883475	1471958532103	1471958532194	a	65
1802	18485	He is pretty tapped into it all.	he is pretty tapped into it all.	883478	1471958532194	1471958532246	l	76
1802	18485	He is pretty tapped into it all.	he is pretty tapped into it all.	883555	1471958532353	1471958532408	l	76
1802	18485	He is pretty tapped into it all.	he is pretty tapped into it all.	883558	1471958533776	1471958533846	.	190
1802	18497	We're not aware of any possible changes at Stanford Stadium.	we're not aware of any possible changes at stanford stafium.	883832	1471958537015	1471958537079	w	87
1802	18497	We're not aware of any possible changes at Stanford Stadium.	we're not aware of any possible changes at stanford stafium.	883834	1471958537110	1471958537177	r	82
1802	18497	We're not aware of any possible changes at Stanford Stadium.	we're not aware of any possible changes at stanford stafium.	883838	1471958538415	1471958538457	'	222
1802	18497	We're not aware of any possible changes at Stanford Stadium.	we're not aware of any possible changes at stanford stafium.	883842	1471958539810	1471958539877	e	69
1802	18497	We're not aware of any possible changes at Stanford Stadium.	we're not aware of any possible changes at stanford stafium.	883846	1471958539893	1471958539976	r	82
1802	18497	We're not aware of any possible changes at Stanford Stadium.	we're not aware of any possible changes at stanford stafium.	884041	1471958541277	1471958541359	BKSP	8
1802	18497	We're not aware of any possible changes at Stanford Stadium.	we're not aware of any possible changes at stanford stafium.	884044	1471958541391	1471958541474	BKSP	8
1802	18497	We're not aware of any possible changes at Stanford Stadium.	we're not aware of any possible changes at stanford stafium.	884047	1471958541787	1471958541875	r	82
1802	18497	We're not aware of any possible changes at Stanford Stadium.	we're not aware of any possible changes at stanford stafium.	884049	1471958541875	1471958541927	e	69
1802	18497	We're not aware of any possible changes at Stanford Stadium.	we're not aware of any possible changes at stanford stafium.	884051	1471958542052	1471958542109	 	32
1802	18497	We're not aware of any possible changes at Stanford Stadium.	we're not aware of any possible changes at stanford stafium.	884053	1471958543536	1471958543624	BKSP	8
1802	18497	We're not aware of any possible changes at Stanford Stadium.	we're not aware of any possible changes at stanford stafium.	884055	1471958543733	1471958543792	BKSP	8
1802	18497	We're not aware of any possible changes at Stanford Stadium.	we're not aware of any possible changes at stanford stafium.	884058	1471958543917	1471958543992	BKSP	8
1802	18497	We're not aware of any possible changes at Stanford Stadium.	we're not aware of any possible changes at stanford stafium.	884061	1471958544132	1471958544192	BKSP	8
1802	18497	We're not aware of any possible changes at Stanford Stadium.	we're not aware of any possible changes at stanford stafium.	884066	1471958544317	1471958544391	BKSP	8
1802	18497	We're not aware of any possible changes at Stanford Stadium.	we're not aware of any possible changes at stanford stafium.	884070	1471958544893	1471958544961	e	69
1802	18497	We're not aware of any possible changes at Stanford Stadium.	we're not aware of any possible changes at stanford stafium.	884073	1471958545742	1471958545809	'	222
1802	18497	We're not aware of any possible changes at Stanford Stadium.	we're not aware of any possible changes at stanford stafium.	884230	1471958546625	1471958546740	r	82
1802	18497	We're not aware of any possible changes at Stanford Stadium.	we're not aware of any possible changes at stanford stafium.	884234	1471958546674	1471958546740	e	69
1802	18497	We're not aware of any possible changes at Stanford Stadium.	we're not aware of any possible changes at stanford stafium.	884241	1471958547337	1471958547423	 	32
1802	18497	We're not aware of any possible changes at Stanford Stadium.	we're not aware of any possible changes at stanford stafium.	884247	1471958548912	1471958548973	n	78
1802	18497	We're not aware of any possible changes at Stanford Stadium.	we're not aware of any possible changes at stanford stafium.	884252	1471958549191	1471958549240	o	79
1802	18497	We're not aware of any possible changes at Stanford Stadium.	we're not aware of any possible changes at stanford stafium.	884346	1471958549282	1471958549340	t	84
1802	18497	We're not aware of any possible changes at Stanford Stadium.	we're not aware of any possible changes at stanford stafium.	884349	1471958549402	1471958549472	 	32
1802	18497	We're not aware of any possible changes at Stanford Stadium.	we're not aware of any possible changes at stanford stafium.	884352	1471958550209	1471958550302	a	65
1802	18497	We're not aware of any possible changes at Stanford Stadium.	we're not aware of any possible changes at stanford stafium.	884355	1471958550505	1471958550588	w	87
1802	18497	We're not aware of any possible changes at Stanford Stadium.	we're not aware of any possible changes at stanford stafium.	884358	1471958550697	1471958550803	a	65
1802	18497	We're not aware of any possible changes at Stanford Stadium.	we're not aware of any possible changes at stanford stafium.	884471	1471958550850	1471958550921	r	82
1802	18497	We're not aware of any possible changes at Stanford Stadium.	we're not aware of any possible changes at stanford stafium.	884474	1471958551030	1471958551104	e	69
1802	18497	We're not aware of any possible changes at Stanford Stadium.	we're not aware of any possible changes at stanford stafium.	884478	1471958551430	1471958551504	 	32
1802	18497	We're not aware of any possible changes at Stanford Stadium.	we're not aware of any possible changes at stanford stafium.	884482	1471958552006	1471958552057	o	79
1802	18497	We're not aware of any possible changes at Stanford Stadium.	we're not aware of any possible changes at stanford stafium.	884486	1471958552338	1471958552405	f	70
1802	18497	We're not aware of any possible changes at Stanford Stadium.	we're not aware of any possible changes at stanford stafium.	884525	1471958552405	1471958552487	 	32
1802	18497	We're not aware of any possible changes at Stanford Stadium.	we're not aware of any possible changes at stanford stafium.	884527	1471958552784	1471958552855	n	65
1802	18497	We're not aware of any possible changes at Stanford Stadium.	we're not aware of any possible changes at stanford stafium.	884529	1471958552996	1471958553056	y	89
1802	18497	We're not aware of any possible changes at Stanford Stadium.	we're not aware of any possible changes at stanford stafium.	884531	1471958553290	1471958553340	 	32
1802	18497	We're not aware of any possible changes at Stanford Stadium.	we're not aware of any possible changes at stanford stafium.	884648	1471958554201	1471958554263	[	80
1802	18497	We're not aware of any possible changes at Stanford Stadium.	we're not aware of any possible changes at stanford stafium.	884649	1471958554821	1471958554918	BKSP	8
1802	18497	We're not aware of any possible changes at Stanford Stadium.	we're not aware of any possible changes at stanford stafium.	884653	1471958555435	1471958555488	o	79
1802	18497	We're not aware of any possible changes at Stanford Stadium.	we're not aware of any possible changes at stanford stafium.	884656	1471958555629	1471958555703	s	83
1802	18497	We're not aware of any possible changes at Stanford Stadium.	we're not aware of any possible changes at stanford stafium.	884660	1471958555828	1471958555872	s	83
1802	18497	We're not aware of any possible changes at Stanford Stadium.	we're not aware of any possible changes at stanford stafium.	884764	1471958556734	1471958556850	i	73
1802	18497	We're not aware of any possible changes at Stanford Stadium.	we're not aware of any possible changes at stanford stafium.	884766	1471958557240	1471958557319	b	66
1802	18497	We're not aware of any possible changes at Stanford Stadium.	we're not aware of any possible changes at stanford stafium.	884767	1471958557647	1471958557704	l	76
1802	18497	We're not aware of any possible changes at Stanford Stadium.	we're not aware of any possible changes at stanford stafium.	884769	1471958557735	1471958557788	e	69
1802	18497	We're not aware of any possible changes at Stanford Stadium.	we're not aware of any possible changes at stanford stafium.	884770	1471958557850	1471958557919	 	32
1802	18497	We're not aware of any possible changes at Stanford Stadium.	we're not aware of any possible changes at stanford stafium.	884828	1471958558577	1471958558652	c	67
1802	18497	We're not aware of any possible changes at Stanford Stadium.	we're not aware of any possible changes at stanford stafium.	884830	1471958558715	1471958558787	h	72
1802	18497	We're not aware of any possible changes at Stanford Stadium.	we're not aware of any possible changes at stanford stafium.	884831	1471958558943	1471958559021	a	65
1802	18497	We're not aware of any possible changes at Stanford Stadium.	we're not aware of any possible changes at stanford stafium.	884835	1471958558983	1471958559021	n	78
1802	18497	We're not aware of any possible changes at Stanford Stadium.	we're not aware of any possible changes at stanford stafium.	884837	1471958559240	1471958559350	g	71
1802	18497	We're not aware of any possible changes at Stanford Stadium.	we're not aware of any possible changes at stanford stafium.	884926	1471958559409	1471958559469	e	69
1802	18497	We're not aware of any possible changes at Stanford Stadium.	we're not aware of any possible changes at stanford stafium.	884931	1471958559593	1471958559668	s	83
1802	18497	We're not aware of any possible changes at Stanford Stadium.	we're not aware of any possible changes at stanford stafium.	884936	1471958559699	1471958559737	 	32
1802	18497	We're not aware of any possible changes at Stanford Stadium.	we're not aware of any possible changes at stanford stafium.	884942	1471958560426	1471958560532	a	65
1802	18497	We're not aware of any possible changes at Stanford Stadium.	we're not aware of any possible changes at stanford stafium.	884947	1471958560532	1471958560602	t	84
1802	18497	We're not aware of any possible changes at Stanford Stadium.	we're not aware of any possible changes at stanford stafium.	885008	1471958560876	1471958560982	 	32
1802	18497	We're not aware of any possible changes at Stanford Stadium.	we're not aware of any possible changes at stanford stafium.	885012	1471958561326	1471958561402	s	83
1802	18497	We're not aware of any possible changes at Stanford Stadium.	we're not aware of any possible changes at stanford stafium.	885018	1471958561457	1471958561535	t	84
1802	18497	We're not aware of any possible changes at Stanford Stadium.	we're not aware of any possible changes at stanford stafium.	885022	1471958561597	1471958561683	a	65
1802	18497	We're not aware of any possible changes at Stanford Stadium.	we're not aware of any possible changes at stanford stafium.	885027	1471958561902	1471958561968	n	78
1802	18497	We're not aware of any possible changes at Stanford Stadium.	we're not aware of any possible changes at stanford stafium.	885178	1471958562721	1471958562799	d	68
1802	18497	We're not aware of any possible changes at Stanford Stadium.	we're not aware of any possible changes at stanford stafium.	885179	1471958563929	1471958564047	BKSP	8
1802	18497	We're not aware of any possible changes at Stanford Stadium.	we're not aware of any possible changes at stanford stafium.	885180	1471958564313	1471958564390	f	70
1802	18497	We're not aware of any possible changes at Stanford Stadium.	we're not aware of any possible changes at stanford stafium.	885181	1471958565544	1471958565601	o	79
1802	18497	We're not aware of any possible changes at Stanford Stadium.	we're not aware of any possible changes at stanford stafium.	885182	1471958565882	1471958565966	r	82
1802	18497	We're not aware of any possible changes at Stanford Stadium.	we're not aware of any possible changes at stanford stafium.	885183	1471958565997	1471958566067	d	68
1802	18497	We're not aware of any possible changes at Stanford Stadium.	we're not aware of any possible changes at stanford stafium.	885382	1471958566160	1471958566231	 	32
1802	18497	We're not aware of any possible changes at Stanford Stadium.	we're not aware of any possible changes at stanford stafium.	885387	1471958569447	1471958569516	s	83
1802	18497	We're not aware of any possible changes at Stanford Stadium.	we're not aware of any possible changes at stanford stafium.	885394	1471958569547	1471958569663	t	84
1802	18497	We're not aware of any possible changes at Stanford Stadium.	we're not aware of any possible changes at stanford stafium.	885398	1471958569898	1471958569982	a	65
1802	18497	We're not aware of any possible changes at Stanford Stadium.	we're not aware of any possible changes at stanford stafium.	885403	1471958570013	1471958570176	f	70
1802	18497	We're not aware of any possible changes at Stanford Stadium.	we're not aware of any possible changes at stanford stafium.	885626	1471958571084	1471958571150	i	73
1802	18497	We're not aware of any possible changes at Stanford Stadium.	we're not aware of any possible changes at stanford stafium.	885629	1471958571275	1471958571349	u	85
1802	18497	We're not aware of any possible changes at Stanford Stadium.	we're not aware of any possible changes at stanford stafium.	885631	1471958571489	1471958571549	m	77
1802	18497	We're not aware of any possible changes at Stanford Stadium.	we're not aware of any possible changes at stanford stafium.	885634	1471958574056	1471958574087	.	190
1802	18533	We currently have 6 employees.	we currently have 6 employess.	885833	1471958577676	1471958577786	SHIFT	16
1802	18533	We currently have 6 employees.	we currently have 6 employess.	885836	1471958577786	1471958577863	w	87
1802	18533	We currently have 6 employees.	we currently have 6 employess.	885840	1471958577972	1471958578062	e	69
1802	18533	We currently have 6 employees.	we currently have 6 employess.	885844	1471958578297	1471958578375	 	86
1802	18533	We currently have 6 employees.	we currently have 6 employess.	885847	1471958578945	1471958579044	BKSP	8
1802	18533	We currently have 6 employees.	we currently have 6 employess.	885853	1471958579122	1471958579195	BKSP	8
1802	18533	We currently have 6 employees.	we currently have 6 employess.	885858	1471958579242	1471958579328	 	32
1802	18533	We currently have 6 employees.	we currently have 6 employess.	885976	1471958580002	1471958580079	c	67
1802	18533	We currently have 6 employees.	we currently have 6 employess.	885978	1471958580376	1471958580446	u	85
1802	18533	We currently have 6 employees.	we currently have 6 employess.	885980	1471958580535	1471958580580	r	82
1802	18533	We currently have 6 employees.	we currently have 6 employess.	885984	1471958580658	1471958580712	r	82
1802	18533	We currently have 6 employees.	we currently have 6 employess.	885987	1471958581887	1471958581945	e	69
1802	18533	We currently have 6 employees.	we currently have 6 employess.	886063	1471958581961	1471958582060	n	78
1802	18533	We currently have 6 employees.	we currently have 6 employess.	886065	1471958582200	1471958582309	t	84
1802	18533	We currently have 6 employees.	we currently have 6 employess.	886070	1471958583626	1471958583725	l	76
1802	18533	We currently have 6 employees.	we currently have 6 employess.	886074	1471958583725	1471958583794	y	89
1802	18533	We currently have 6 employees.	we currently have 6 employess.	886078	1471958583888	1471958583945	 	32
1802	18533	We currently have 6 employees.	we currently have 6 employess.	886221	1471958584524	1471958584594	h	72
1802	18533	We currently have 6 employees.	we currently have 6 employess.	886224	1471958584657	1471958584743	a	65
1802	18533	We currently have 6 employees.	we currently have 6 employess.	886230	1471958584805	1471958584877	b	66
1802	18533	We currently have 6 employees.	we currently have 6 employess.	886235	1471958585018	1471958585079	e	69
1802	18533	We currently have 6 employees.	we currently have 6 employess.	886238	1471958585485	1471958585544	BKSP	8
1802	18533	We currently have 6 employees.	we currently have 6 employess.	886244	1471958585623	1471958585678	BKSP	8
1802	18533	We currently have 6 employees.	we currently have 6 employess.	886248	1471958586335	1471958586410	v	86
1802	18533	We currently have 6 employees.	we currently have 6 employess.	886385	1471958586410	1471958586493	e	69
1802	18533	We currently have 6 employees.	we currently have 6 employess.	886389	1471958586555	1471958586641	 	32
1802	18533	We currently have 6 employees.	we currently have 6 employess.	886394	1471958587708	1471958587776	6	102
1802	18533	We currently have 6 employees.	we currently have 6 employess.	886398	1471958588419	1471958588470	 	32
1802	18533	We currently have 6 employees.	we currently have 6 employess.	886402	1471958589165	1471958589226	e	69
1802	18533	We currently have 6 employees.	we currently have 6 employess.	886497	1471958589250	1471958589372	m	77
1802	18533	We currently have 6 employees.	we currently have 6 employess.	886502	1471958590249	1471958590309	p	80
1802	18533	We currently have 6 employees.	we currently have 6 employess.	886509	1471958590434	1471958590492	l	76
1802	18533	We currently have 6 employees.	we currently have 6 employess.	886514	1471958590617	1471958590691	o	79
1802	18533	We currently have 6 employees.	we currently have 6 employess.	886519	1471958591081	1471958591158	y	89
1802	18533	We currently have 6 employees.	we currently have 6 employess.	886620	1471958591283	1471958591373	e	69
1802	18533	We currently have 6 employees.	we currently have 6 employess.	886622	1471958591717	1471958591791	s	83
1802	18533	We currently have 6 employees.	we currently have 6 employess.	886625	1471958591853	1471958591924	s	83
1802	18533	We currently have 6 employees.	we currently have 6 employess.	886628	1471958593574	1471958593622	.	190
1802	18554	If not can I call you?	If not can i call you?	886920	1471958597252	1471958597345	SHIFT	16
1802	18554	If not can I call you?	If not can i call you?	886922	1471958597345	1471958597469	i	73
1802	18554	If not can I call you?	If not can i call you?	886925	1471958597625	1471958597706	f	70
1802	18554	If not can I call you?	If not can i call you?	886928	1471958597768	1471958597838	 	32
1802	18554	If not can I call you?	If not can i call you?	886931	1471958599048	1471958599121	BKSP	8
1802	18554	If not can I call you?	If not can i call you?	886939	1471958599231	1471958599493	BKSP	8
1802	18554	If not can I call you?	If not can i call you?	886944	1471958599618	1471958599655	BKSP	8
1802	18554	If not can I call you?	If not can i call you?	886948	1471958600183	1471958600327	SHIFT	16
1802	18554	If not can I call you?	If not can i call you?	886951	1471958600300	1471958600404	I	73
1802	18554	If not can I call you?	If not can i call you?	886955	1471958600634	1471958600720	f	70
1802	18554	If not can I call you?	If not can i call you?	887001	1471958601035	1471958601121	 	32
1802	18554	If not can I call you?	If not can i call you?	887004	1471958601574	1471958601653	n	78
1802	18554	If not can I call you?	If not can i call you?	887009	1471958601856	1471958601920	o	79
1802	18554	If not can I call you?	If not can i call you?	887014	1471958602202	1471958602270	t	84
1802	18554	If not can I call you?	If not can i call you?	887019	1471958602458	1471958602522	 	32
1802	18554	If not can I call you?	If not can i call you?	887103	1471958603258	1471958603337	c	67
1802	18554	If not can I call you?	If not can i call you?	887106	1471958603368	1471958603485	a	65
1802	18554	If not can I call you?	If not can i call you?	887107	1471958603531	1471958603604	n	78
1802	18554	If not can I call you?	If not can i call you?	887110	1471958603745	1471958603789	 	32
1802	18554	If not can I call you?	If not can i call you?	887111	1471958604493	1471958604554	i	73
1802	18554	If not can I call you?	If not can i call you?	887144	1471958604718	1471958604786	 	32
1802	18554	If not can I call you?	If not can i call you?	887147	1471958604974	1471958605038	c	67
1802	18554	If not can I call you?	If not can i call you?	887151	1471958605288	1471958605369	s	65
1802	18554	If not can I call you?	If not can i call you?	887155	1471958605385	1471958605469	l	76
1802	18554	If not can I call you?	If not can i call you?	887263	1471958605530	1471958605618	l	76
1802	18554	If not can I call you?	If not can i call you?	887265	1471958605774	1471958605837	 	32
1802	18554	If not can I call you?	If not can i call you?	887267	1471958606387	1471958606453	BKSP	8
1802	18554	If not can I call you?	If not can i call you?	887268	1471958606562	1471958606599	BKSP	8
1802	18554	If not can I call you?	If not can i call you?	887269	1471958606667	1471958606711	BKSP	8
1802	18554	If not can I call you?	If not can i call you?	887270	1471958606768	1471958606821	BKSP	8
1802	18554	If not can I call you?	If not can i call you?	887271	1471958607384	1471958607446	l	76
1802	18554	If not can I call you?	If not can i call you?	887273	1471958607533	1471958607559	l	76
1802	18554	If not can I call you?	If not can i call you?	887276	1471958607712	1471958607767	 	32
1802	18554	If not can I call you?	If not can i call you?	887428	1471958608246	1471958608294	y	89
1802	18554	If not can I call you?	If not can i call you?	887430	1471958608335	1471958608387	o	79
1802	18554	If not can I call you?	If not can i call you?	887433	1471958608575	1471958608630	u	85
1802	18554	If not can I call you?	If not can i call you?	887435	1471958610171	1471958610663	SHIFT	16
1802	18554	If not can I call you?	If not can i call you?	887439	1471958610626	1471958610678	?	191
1802	18572	Japan's first man in space was a journalist.	Japan's first man in space was a journalist.	887596	1471958614049	1471958614310	SHIFT	16
1802	18572	Japan's first man in space was a journalist.	Japan's first man in space was a journalist.	887599	1471958614263	1471958614334	J	74
1802	18572	Japan's first man in space was a journalist.	Japan's first man in space was a journalist.	887601	1471958614380	1471958614482	a	65
1802	18572	Japan's first man in space was a journalist.	Japan's first man in space was a journalist.	887602	1471958614560	1471958614649	p	80
1802	18572	Japan's first man in space was a journalist.	Japan's first man in space was a journalist.	887603	1471958614915	1471958615014	a	65
1802	18572	Japan's first man in space was a journalist.	Japan's first man in space was a journalist.	887604	1471958615061	1471958615110	n	78
1802	18572	Japan's first man in space was a journalist.	Japan's first man in space was a journalist.	887726	1471958615917	1471958616701	SHIFT	16
1802	18572	Japan's first man in space was a journalist.	Japan's first man in space was a journalist.	887729	1471958616732	1471958616784	'	222
1802	18572	Japan's first man in space was a journalist.	Japan's first man in space was a journalist.	887732	1471958617616	1471958617683	s	83
1802	18572	Japan's first man in space was a journalist.	Japan's first man in space was a journalist.	887734	1471958617980	1471958618048	 	32
1802	18572	Japan's first man in space was a journalist.	Japan's first man in space was a journalist.	887736	1471958618615	1471958618683	f	70
1802	18572	Japan's first man in space was a journalist.	Japan's first man in space was a journalist.	887737	1471958618776	1471958618848	i	73
1802	18572	Japan's first man in space was a journalist.	Japan's first man in space was a journalist.	887815	1471958618944	1471958619001	r	82
1802	18572	Japan's first man in space was a journalist.	Japan's first man in space was a journalist.	887816	1471958619173	1471958619215	t	84
1802	18572	Japan's first man in space was a journalist.	Japan's first man in space was a journalist.	887817	1471958619262	1471958619331	s	83
1802	18572	Japan's first man in space was a journalist.	Japan's first man in space was a journalist.	887818	1471958620100	1471958620164	BKSP	8
1802	18572	Japan's first man in space was a journalist.	Japan's first man in space was a journalist.	887819	1471958620242	1471958620299	BKSP	8
1802	18572	Japan's first man in space was a journalist.	Japan's first man in space was a journalist.	887820	1471958620807	1471958620864	BKSP	8
1802	18572	Japan's first man in space was a journalist.	Japan's first man in space was a journalist.	887821	1471958621570	1471958621646	r	82
1802	18572	Japan's first man in space was a journalist.	Japan's first man in space was a journalist.	887822	1471958621661	1471958621747	s	83
1802	18572	Japan's first man in space was a journalist.	Japan's first man in space was a journalist.	887861	1471958621762	1471958621847	t	84
1802	18572	Japan's first man in space was a journalist.	Japan's first man in space was a journalist.	887864	1471958622348	1471958622415	 	32
1802	18572	Japan's first man in space was a journalist.	Japan's first man in space was a journalist.	887868	1471958622883	1471958622947	m	77
1802	18572	Japan's first man in space was a journalist.	Japan's first man in space was a journalist.	887875	1471958622978	1471958623031	a	65
1802	18572	Japan's first man in space was a journalist.	Japan's first man in space was a journalist.	887880	1471958623078	1471958623146	n	78
1802	18572	Japan's first man in space was a journalist.	Japan's first man in space was a journalist.	887946	1471958623326	1471958623381	 	32
1802	18572	Japan's first man in space was a journalist.	Japan's first man in space was a journalist.	887948	1471958623898	1471958623958	i	73
1802	18572	Japan's first man in space was a journalist.	Japan's first man in space was a journalist.	887950	1471958624107	1471958624164	n	78
1802	18572	Japan's first man in space was a journalist.	Japan's first man in space was a journalist.	887954	1471958624268	1471958624315	 	32
1802	18572	Japan's first man in space was a journalist.	Japan's first man in space was a journalist.	887958	1471958624674	1471958624731	s	83
1802	18572	Japan's first man in space was a journalist.	Japan's first man in space was a journalist.	887995	1471958624785	1471958624831	p	80
1802	18572	Japan's first man in space was a journalist.	Japan's first man in space was a journalist.	887999	1471958624909	1471958624980	a	65
1802	18572	Japan's first man in space was a journalist.	Japan's first man in space was a journalist.	888002	1471958625462	1471958625530	c	67
1802	18572	Japan's first man in space was a journalist.	Japan's first man in space was a journalist.	888005	1471958625530	1471958625598	e	69
1802	18572	Japan's first man in space was a journalist.	Japan's first man in space was a journalist.	888009	1471958625677	1471958625746	 	32
1802	18572	Japan's first man in space was a journalist.	Japan's first man in space was a journalist.	888092	1471958626342	1471958626412	w	87
1802	18572	Japan's first man in space was a journalist.	Japan's first man in space was a journalist.	888093	1471958626506	1471958626595	a	65
1802	18572	Japan's first man in space was a journalist.	Japan's first man in space was a journalist.	888094	1471958626673	1471958626730	s	83
1802	18572	Japan's first man in space was a journalist.	Japan's first man in space was a journalist.	888095	1471958626730	1471958626781	 	32
1802	18572	Japan's first man in space was a journalist.	Japan's first man in space was a journalist.	888096	1471958627241	1471958627312	a	65
1802	18572	Japan's first man in space was a journalist.	Japan's first man in space was a journalist.	888283	1471958627392	1471958627462	 	32
1802	18572	Japan's first man in space was a journalist.	Japan's first man in space was a journalist.	888285	1471958628042	1471958628113	j	74
1802	18572	Japan's first man in space was a journalist.	Japan's first man in space was a journalist.	888289	1471958628300	1471958628411	o	79
1802	18572	Japan's first man in space was a journalist.	Japan's first man in space was a journalist.	888294	1471958628536	1471958628643	u	85
1802	18572	Japan's first man in space was a journalist.	Japan's first man in space was a journalist.	888299	1471958631024	1471958631172	r	82
1802	18572	Japan's first man in space was a journalist.	Japan's first man in space was a journalist.	888370	1471958631786	1471958631861	n	78
1802	18572	Japan's first man in space was a journalist.	Japan's first man in space was a journalist.	888374	1471958631877	1471958631976	a	65
1802	18572	Japan's first man in space was a journalist.	Japan's first man in space was a journalist.	888376	1471958632085	1471958632191	l	76
1802	18572	Japan's first man in space was a journalist.	Japan's first man in space was a journalist.	888380	1471958632426	1471958632478	i	73
1802	18572	Japan's first man in space was a journalist.	Japan's first man in space was a journalist.	888386	1471958632603	1471958632693	s	83
1802	18572	Japan's first man in space was a journalist.	Japan's first man in space was a journalist.	888461	1471958632737	1471958632795	t	84
1802	18572	Japan's first man in space was a journalist.	Japan's first man in space was a journalist.	888464	1471958633656	1471958633710	.	190
1802	18592	We've advised the family how to go about it.	we've advised the family how to go about it .	888745	1471958636126	1471958636192	w	87
1802	18592	We've advised the family how to go about it.	we've advised the family how to go about it .	888748	1471958636192	1471958636275	e	69
1802	18592	We've advised the family how to go about it.	we've advised the family how to go about it .	888753	1471958636603	1471958636870	SHIFT	16
1802	18592	We've advised the family how to go about it.	we've advised the family how to go about it .	888757	1471958636809	1471958636870	:	186
1802	18592	We've advised the family how to go about it.	we've advised the family how to go about it .	888760	1471958637520	1471958637576	BKSP	8
1802	18592	We've advised the family how to go about it.	we've advised the family how to go about it .	888762	1471958637733	1471958637863	SHIFT	16
1802	18592	We've advised the family how to go about it.	we've advised the family how to go about it .	888766	1471958637842	1471958637892	"	222
1802	18592	We've advised the family how to go about it.	we've advised the family how to go about it .	888771	1471958639054	1471958639125	BKSP	8
1802	18592	We've advised the family how to go about it.	we've advised the family how to go about it .	888777	1471958639219	1471958639275	BKSP	8
1802	18592	We've advised the family how to go about it.	we've advised the family how to go about it .	888782	1471958640342	1471958640424	e	69
1802	18592	We've advised the family how to go about it.	we've advised the family how to go about it .	888960	1471958640699	1471958641123	SHIFT	16
1802	18592	We've advised the family how to go about it.	we've advised the family how to go about it .	888961	1471958641036	1471958641123	"	222
1802	18592	We've advised the family how to go about it.	we've advised the family how to go about it .	888962	1471958642048	1471958642134	INSERT	45
1802	18592	We've advised the family how to go about it.	we've advised the family how to go about it .	888963	1471958642135	1471958642191	BKSP	8
1802	18592	We've advised the family how to go about it.	we've advised the family how to go about it .	888964	1471958642457	1471958642524	'	222
1802	18592	We've advised the family how to go about it.	we've advised the family how to go about it .	888966	1471958643246	1471958643302	 	32
1802	18592	We've advised the family how to go about it.	we've advised the family how to go about it .	888969	1471958644765	1471958644825	BKSP	8
1802	18592	We've advised the family how to go about it.	we've advised the family how to go about it .	888972	1471958645389	1471958645471	v	86
1802	18592	We've advised the family how to go about it.	we've advised the family how to go about it .	888975	1471958645503	1471958645588	e	69
1802	18592	We've advised the family how to go about it.	we've advised the family how to go about it .	889067	1471958645617	1471958645690	 	32
1802	18592	We've advised the family how to go about it.	we've advised the family how to go about it .	889069	1471958646741	1471958646837	a	65
1802	18592	We've advised the family how to go about it.	we've advised the family how to go about it .	889074	1471958646868	1471958646954	d	68
1802	18592	We've advised the family how to go about it.	we've advised the family how to go about it .	889078	1471958647251	1471958647307	v	86
1802	18592	We've advised the family how to go about it.	we've advised the family how to go about it .	889081	1471958648090	1471958648156	i	73
1802	18592	We've advised the family how to go about it.	we've advised the family how to go about it .	889130	1471958648209	1471958648288	s	83
1802	18592	We've advised the family how to go about it.	we've advised the family how to go about it .	889133	1471958648398	1471958648473	e	69
1802	18592	We've advised the family how to go about it.	we've advised the family how to go about it .	889135	1471958648567	1471958648637	d	68
1802	18592	We've advised the family how to go about it.	we've advised the family how to go about it .	889137	1471958648809	1471958648870	 	32
1802	18592	We've advised the family how to go about it.	we've advised the family how to go about it .	889140	1471958649311	1471958649390	t	84
1802	18592	We've advised the family how to go about it.	we've advised the family how to go about it .	889155	1471958649503	1471958649573	h	72
1802	18592	We've advised the family how to go about it.	we've advised the family how to go about it .	889156	1471958649604	1471958649654	e	69
1802	18592	We've advised the family how to go about it.	we've advised the family how to go about it .	889157	1471958649688	1471958649773	 	32
1802	18592	We've advised the family how to go about it.	we've advised the family how to go about it .	889158	1471958649945	1471958650021	f	70
1802	18592	We've advised the family how to go about it.	we've advised the family how to go about it .	889160	1471958650021	1471958650089	a	65
1802	18592	We've advised the family how to go about it.	we've advised the family how to go about it .	889319	1471958651059	1471958651137	m	77
1802	18592	We've advised the family how to go about it.	we've advised the family how to go about it .	889324	1471958651733	1471958651772	i	73
1802	18592	We've advised the family how to go about it.	we've advised the family how to go about it .	889328	1471958652838	1471958652886	l	76
1802	18592	We've advised the family how to go about it.	we've advised the family how to go about it .	889331	1471958653092	1471958653154	y	89
1802	18592	We've advised the family how to go about it.	we've advised the family how to go about it .	889335	1471958653185	1471958653253	 	32
1802	18592	We've advised the family how to go about it.	we've advised the family how to go about it .	889444	1471958653834	1471958653887	h	72
1802	18592	We've advised the family how to go about it.	we've advised the family how to go about it .	889449	1471958654215	1471958654287	o	79
1802	18592	We've advised the family how to go about it.	we've advised the family how to go about it .	889454	1471958654537	1471958654604	w	87
1802	18592	We've advised the family how to go about it.	we've advised the family how to go about it .	889457	1471958654635	1471958654703	 	32
1802	18592	We've advised the family how to go about it.	we've advised the family how to go about it .	889464	1471958655394	1471958655455	t	84
1802	18592	We've advised the family how to go about it.	we've advised the family how to go about it .	889524	1471958655504	1471958655631	o	79
1802	18592	We've advised the family how to go about it.	we've advised the family how to go about it .	889530	1471958655786	1471958655853	 	32
1802	18592	We've advised the family how to go about it.	we've advised the family how to go about it .	889535	1471958656072	1471958656136	g	71
1802	18592	We've advised the family how to go about it.	we've advised the family how to go about it .	889540	1471958656230	1471958656262	o	79
1802	18592	We've advised the family how to go about it.	we've advised the family how to go about it .	889544	1471958656774	1471958656820	 	32
1802	18592	We've advised the family how to go about it.	we've advised the family how to go about it .	889617	1471958657334	1471958657434	a	65
1802	18592	We've advised the family how to go about it.	we've advised the family how to go about it .	889620	1471958657434	1471958657518	b	66
1802	18592	We've advised the family how to go about it.	we've advised the family how to go about it .	889623	1471958658083	1471958658134	o	79
1802	18592	We've advised the family how to go about it.	we've advised the family how to go about it .	889627	1471958658340	1471958658419	u	85
1802	18592	We've advised the family how to go about it.	we've advised the family how to go about it .	889629	1471958658466	1471958658534	t	84
1802	18592	We've advised the family how to go about it.	we've advised the family how to go about it .	889680	1471958658608	1471958658670	 	32
1802	18592	We've advised the family how to go about it.	we've advised the family how to go about it .	889684	1471958659327	1471958659402	i	73
1802	18592	We've advised the family how to go about it.	we've advised the family how to go about it .	889689	1471958659605	1471958659669	t	84
1802	18592	We've advised the family how to go about it.	we've advised the family how to go about it .	889696	1471958659794	1471958659830	 	32
1802	18592	We've advised the family how to go about it.	we've advised the family how to go about it .	889697	1471958660087	1471958660119	.	190
1802	18617	Milly is a seller.	Milly is a seller .	889850	1471958663111	1471958663200	m	77
1802	18617	Milly is a seller.	Milly is a seller .	889852	1471958663341	1471958663402	i	73
1802	18617	Milly is a seller.	Milly is a seller .	889854	1471958663590	1471958663650	l	76
1802	18617	Milly is a seller.	Milly is a seller .	889856	1471958663775	1471958663850	l	76
1802	18617	Milly is a seller.	Milly is a seller .	889858	1471958663898	1471958663998	y	89
1802	18617	Milly is a seller.	Milly is a seller .	890090	1471958665362	1471958665481	BKSP	8
1802	18617	Milly is a seller.	Milly is a seller .	890093	1471958665762	1471958665802	BKSP	8
1802	18617	Milly is a seller.	Milly is a seller .	890097	1471958665927	1471958665999	BKSP	8
1802	18617	Milly is a seller.	Milly is a seller .	890100	1471958666517	1471958666661	BKSP	8
1802	18617	Milly is a seller.	Milly is a seller .	890104	1471958666770	1471958666864	BKSP	8
1802	18617	Milly is a seller.	Milly is a seller .	890110	1471958666973	1471958667361	SHIFT	16
1802	18617	Milly is a seller.	Milly is a seller .	890107	1471958667207	1471958667298	M	77
1802	18617	Milly is a seller.	Milly is a seller .	890117	1471958667564	1471958667663	i	73
1802	18617	Milly is a seller.	Milly is a seller .	890122	1471958667804	1471958667862	l	76
1802	18617	Milly is a seller.	Milly is a seller .	890126	1471958667960	1471958668064	l	76
1802	18617	Milly is a seller.	Milly is a seller .	890130	1471958668377	1471958668512	y	89
1802	18617	Milly is a seller.	Milly is a seller .	890215	1471958668701	1471958668782	 	32
1802	18617	Milly is a seller.	Milly is a seller .	890217	1471958669330	1471958669398	i	73
1802	18617	Milly is a seller.	Milly is a seller .	890221	1471958669476	1471958669595	s	83
1802	18617	Milly is a seller.	Milly is a seller .	890227	1471958669595	1471958669666	 	32
1802	18617	Milly is a seller.	Milly is a seller .	890232	1471958670322	1471958670428	a	65
1802	18617	Milly is a seller.	Milly is a seller .	890305	1471958670510	1471958670563	 	32
1802	18617	Milly is a seller.	Milly is a seller .	890307	1471958671076	1471958671145	s	83
1802	18617	Milly is a seller.	Milly is a seller .	890308	1471958671254	1471958671345	e	69
1802	18617	Milly is a seller.	Milly is a seller .	890309	1471958671391	1471958671444	l	76
1802	18617	Milly is a seller.	Milly is a seller .	890312	1471958671526	1471958671639	l	76
1802	18617	Milly is a seller.	Milly is a seller .	890437	1471958672441	1471958672530	e	69
1802	18617	Milly is a seller.	Milly is a seller .	890438	1471958672496	1471958672624	r	82
1802	18617	Milly is a seller.	Milly is a seller .	890441	1471958673060	1471958673129	 	32
1802	18617	Milly is a seller.	Milly is a seller .	890443	1471958673129	1471958673196	.	190
1802	18635	Are you going to call?	Are you going to call?	890730	1471958675932	1471958676011	SHIFT	16
1802	18635	Are you going to call?	Are you going to call?	890733	1471958676167	1471958676246	a	65
1802	18635	Are you going to call?	Are you going to call?	890735	1471958676371	1471958676459	r	82
1802	18635	Are you going to call?	Are you going to call?	890738	1471958676553	1471958676736	e	69
1802	18635	Are you going to call?	Are you going to call?	890742	1471958677442	1471958677495	BKSP	8
1802	18635	Are you going to call?	Are you going to call?	890746	1471958677620	1471958677677	BKSP	8
1802	18635	Are you going to call?	Are you going to call?	890750	1471958677771	1471958677937	BKSP	8
1802	18635	Are you going to call?	Are you going to call?	890752	1471958678172	1471958678467	SHIFT	16
1802	18635	Are you going to call?	Are you going to call?	890757	1471958678424	1471958678540	A	65
1802	18635	Are you going to call?	Are you going to call?	890760	1471958678618	1471958678708	r	82
1802	18635	Are you going to call?	Are you going to call?	890806	1471958678708	1471958678776	e	69
1802	18635	Are you going to call?	Are you going to call?	890808	1471958678870	1471958678927	 	32
1802	18635	Are you going to call?	Are you going to call?	890810	1471958679773	1471958679843	y	89
1802	18635	Are you going to call?	Are you going to call?	890811	1471958679906	1471958679961	o	79
1802	18635	Are you going to call?	Are you going to call?	890813	1471958680086	1471958680160	u	85
1802	18635	Are you going to call?	Are you going to call?	890883	1471958680316	1471958680393	 	32
1802	18635	Are you going to call?	Are you going to call?	890885	1471958680910	1471958680960	g	71
1802	18635	Are you going to call?	Are you going to call?	890887	1471958681054	1471958681094	o	79
1802	18635	Are you going to call?	Are you going to call?	890890	1471958681250	1471958681277	i	73
1802	18635	Are you going to call?	Are you going to call?	890893	1471958681495	1471958681543	n	78
1802	18635	Are you going to call?	Are you going to call?	890979	1471958681598	1471958681643	g	71
1802	18635	Are you going to call?	Are you going to call?	890982	1471958681690	1471958681774	 	32
1802	18635	Are you going to call?	Are you going to call?	890986	1471958682573	1471958682641	t	84
1802	18635	Are you going to call?	Are you going to call?	890992	1471958682719	1471958682772	o	79
1802	18635	Are you going to call?	Are you going to call?	890996	1471958682964	1471958683026	 	32
1802	18635	Are you going to call?	Are you going to call?	891088	1471958683242	1471958683293	c	67
1802	18635	Are you going to call?	Are you going to call?	891090	1471958683339	1471958683424	a	65
1802	18635	Are you going to call?	Are you going to call?	891092	1471958683612	1471958683659	l	76
1802	18635	Are you going to call?	Are you going to call?	891094	1471958683752	1471958683824	l	76
1802	18635	Are you going to call?	Are you going to call?	891107	1471958684374	1471958684943	SHIFT	16
1802	18635	Are you going to call?	Are you going to call?	891098	1471958684859	1471958684910	?	191
1802	18648	You have a nice holiday too.	You have a nice holiday too.	891313	1471958687855	1471958687923	y	89
1802	18648	You have a nice holiday too.	You have a nice holiday too.	891315	1471958687938	1471958688006	o	79
1802	18648	You have a nice holiday too.	You have a nice holiday too.	891316	1471958688131	1471958688206	u	85
1802	18648	You have a nice holiday too.	You have a nice holiday too.	891317	1471958688543	1471958688621	BKSP	8
1802	18648	You have a nice holiday too.	You have a nice holiday too.	891318	1471958688715	1471958688775	BKSP	8
1802	18648	You have a nice holiday too.	You have a nice holiday too.	891319	1471958688869	1471958688940	BKSP	8
1802	18648	You have a nice holiday too.	You have a nice holiday too.	891321	1471958689003	1471958689072	BKSP	8
1802	18648	You have a nice holiday too.	You have a nice holiday too.	891327	1471958689166	1471958689539	SHIFT	16
1802	18648	You have a nice holiday too.	You have a nice holiday too.	891324	1471958689447	1471958689508	Y	89
1802	18648	You have a nice holiday too.	You have a nice holiday too.	891329	1471958689805	1471958689904	o	79
1802	18648	You have a nice holiday too.	You have a nice holiday too.	891405	1471958689934	1471958690007	u	85
1802	18648	You have a nice holiday too.	You have a nice holiday too.	891407	1471958690070	1471958690124	 	77
1802	18648	You have a nice holiday too.	You have a nice holiday too.	891409	1471958690628	1471958690690	BKSP	8
1802	18648	You have a nice holiday too.	You have a nice holiday too.	891412	1471958690799	1471958690857	BKSP	8
1802	18648	You have a nice holiday too.	You have a nice holiday too.	891418	1471958690935	1471958691036	BKSP	8
1802	18648	You have a nice holiday too.	You have a nice holiday too.	891421	1471958691160	1471958691204	BKSP	8
1802	18648	You have a nice holiday too.	You have a nice holiday too.	891425	1471958692054	1471958692131	o	79
1802	18648	You have a nice holiday too.	You have a nice holiday too.	891467	1471958692115	1471958692188	u	85
1802	18648	You have a nice holiday too.	You have a nice holiday too.	891471	1471958692297	1471958692371	 	32
1802	18648	You have a nice holiday too.	You have a nice holiday too.	891476	1471958692921	1471958692989	h	72
1802	18648	You have a nice holiday too.	You have a nice holiday too.	891482	1471958693005	1471958693118	a	65
1802	18648	You have a nice holiday too.	You have a nice holiday too.	891489	1471958693259	1471958693338	v	86
1802	18648	You have a nice holiday too.	You have a nice holiday too.	891493	1471958693385	1471958693423	r	69
1802	18648	You have a nice holiday too.	You have a nice holiday too.	891559	1471958693470	1471958693555	 	32
1802	18648	You have a nice holiday too.	You have a nice holiday too.	891561	1471958694102	1471958694172	BKSP	8
1802	18648	You have a nice holiday too.	You have a nice holiday too.	891563	1471958694266	1471958694339	BKSP	8
1802	18648	You have a nice holiday too.	You have a nice holiday too.	891565	1471958694510	1471958694573	 	32
1802	18648	You have a nice holiday too.	You have a nice holiday too.	891569	1471958694862	1471958694938	a	65
1802	18648	You have a nice holiday too.	You have a nice holiday too.	891570	1471958694969	1471958695038	 	32
1802	18648	You have a nice holiday too.	You have a nice holiday too.	891572	1471958695194	1471958695255	n	78
1802	18648	You have a nice holiday too.	You have a nice holiday too.	891629	1471958695419	1471958695504	i	73
1802	18648	You have a nice holiday too.	You have a nice holiday too.	891630	1471958695847	1471958695936	c	67
1802	18648	You have a nice holiday too.	You have a nice holiday too.	891631	1471958695952	1471958695989	e	69
1802	18648	You have a nice holiday too.	You have a nice holiday too.	891635	1471958696067	1471958696122	 	32
1802	18648	You have a nice holiday too.	You have a nice holiday too.	891637	1471958696966	1471958697052	h	72
1802	18648	You have a nice holiday too.	You have a nice holiday too.	891721	1471958697290	1471958697432	o	79
1802	18648	You have a nice holiday too.	You have a nice holiday too.	891728	1471958698075	1471958698131	l	76
1802	18648	You have a nice holiday too.	You have a nice holiday too.	891735	1471958698262	1471958698321	i	73
1802	18648	You have a nice holiday too.	You have a nice holiday too.	891741	1471958699073	1471958699151	d	68
1802	18648	You have a nice holiday too.	You have a nice holiday too.	891745	1471958699151	1471958699250	a	65
1802	18648	You have a nice holiday too.	You have a nice holiday too.	891775	1471958699294	1471958699369	y	89
1802	18648	You have a nice holiday too.	You have a nice holiday too.	891777	1471958699557	1471958699620	 	32
1802	18648	You have a nice holiday too.	You have a nice holiday too.	891779	1471958700116	1471958700170	t	84
1802	18648	You have a nice holiday too.	You have a nice holiday too.	891781	1471958700217	1471958700301	o	79
1802	18648	You have a nice holiday too.	You have a nice holiday too.	891784	1471958700379	1471958700467	o	79
1802	18648	You have a nice holiday too.	You have a nice holiday too.	891852	1471958700663	1471958700720	.	188
1802	18648	You have a nice holiday too.	You have a nice holiday too.	891855	1471958701269	1471958701320	BKSP	8
1802	18648	You have a nice holiday too.	You have a nice holiday too.	891856	1471958701445	1471958701502	BKSP	8
1802	18648	You have a nice holiday too.	You have a nice holiday too.	891859	1471958701987	1471958702051	.	190
1802	18660	Did we plan that?	Did we plan that?	892036	1471958704466	1471958705950	SHIFT	16
1802	18660	Did we plan that?	Did we plan that?	892038	1471958705890	1471958705982	D	68
1802	18660	Did we plan that?	Did we plan that?	892040	1471958706044	1471958706131	i	73
1802	18660	Did we plan that?	Did we plan that?	892043	1471958706086	1471958706168	d	68
1802	18660	Did we plan that?	Did we plan that?	892046	1471958706644	1471958706701	 	32
1802	18660	Did we plan that?	Did we plan that?	892048	1471958707139	1471958707207	w	87
1802	18660	Did we plan that?	Did we plan that?	892073	1471958707293	1471958707367	e	69
1802	18660	Did we plan that?	Did we plan that?	892075	1471958707382	1471958707444	 	32
1802	18660	Did we plan that?	Did we plan that?	892076	1471958707781	1471958707843	p	80
1802	18660	Did we plan that?	Did we plan that?	892077	1471958707882	1471958707966	a	65
1802	18660	Did we plan that?	Did we plan that?	892079	1471958708169	1471958708234	l	76
1802	18660	Did we plan that?	Did we plan that?	892144	1471958708489	1471958708548	BKSP	8
1802	18660	Did we plan that?	Did we plan that?	892147	1471958708645	1471958708716	BKSP	8
1802	18660	Did we plan that?	Did we plan that?	892151	1471958709249	1471958709301	l	76
1802	18660	Did we plan that?	Did we plan that?	892155	1471958709333	1471958709415	a	65
1802	18660	Did we plan that?	Did we plan that?	892156	1471958709462	1471958709548	n	78
1802	18660	Did we plan that?	Did we plan that?	892158	1471958709688	1471958709751	 	32
1802	18660	Did we plan that?	Did we plan that?	892161	1471958710376	1471958710450	t	84
1802	18660	Did we plan that?	Did we plan that?	892246	1471958710556	1471958710631	h	72
1802	18660	Did we plan that?	Did we plan that?	892249	1471958710647	1471958710716	a	65
1802	18660	Did we plan that?	Did we plan that?	892252	1471958710748	1471958710815	t	84
1802	18660	Did we plan that?	Did we plan that?	892254	1471958711724	1471958711917	SHIFT	16
1802	18660	Did we plan that?	Did we plan that?	892256	1471958711881	1471958711948	?	191
1802	18673	Thanks for your leadership on this issue.	Thanks for your leadership on this issue.	892329	1471958714381	1471958714630	SHIFT	16
1802	18673	Thanks for your leadership on this issue.	Thanks for your leadership on this issue.	892331	1471958714553	1471958714630	T	84
1802	18673	Thanks for your leadership on this issue.	Thanks for your leadership on this issue.	892333	1471958714802	1471958714863	h	72
1802	18673	Thanks for your leadership on this issue.	Thanks for your leadership on this issue.	892335	1471958714894	1471958714979	a	65
1802	18673	Thanks for your leadership on this issue.	Thanks for your leadership on this issue.	892336	1471958714994	1471958715063	n	78
1802	18673	Thanks for your leadership on this issue.	Thanks for your leadership on this issue.	892337	1471958715204	1471958715279	k	75
1802	18673	Thanks for your leadership on this issue.	Thanks for your leadership on this issue.	892378	1471958715295	1471958715348	s	83
1802	18673	Thanks for your leadership on this issue.	Thanks for your leadership on this issue.	892379	1471958715426	1471958715481	 	32
1802	18673	Thanks for your leadership on this issue.	Thanks for your leadership on this issue.	892380	1471958716483	1471958716562	d	68
1802	18673	Thanks for your leadership on this issue.	Thanks for your leadership on this issue.	892381	1471958716578	1471958716646	o	79
1802	18673	Thanks for your leadership on this issue.	Thanks for your leadership on this issue.	892382	1471958716677	1471958716747	r	82
1802	18673	Thanks for your leadership on this issue.	Thanks for your leadership on this issue.	892467	1471958716798	1471958716864	 	32
1802	18673	Thanks for your leadership on this issue.	Thanks for your leadership on this issue.	892470	1471958717709	1471958717779	BKSP	8
1802	18673	Thanks for your leadership on this issue.	Thanks for your leadership on this issue.	892472	1471958717826	1471958717880	BKSP	8
1802	18673	Thanks for your leadership on this issue.	Thanks for your leadership on this issue.	892476	1471958717974	1471958718031	BKSP	8
1802	18673	Thanks for your leadership on this issue.	Thanks for your leadership on this issue.	892479	1471958718313	1471958718379	BKSP	8
1802	18673	Thanks for your leadership on this issue.	Thanks for your leadership on this issue.	892482	1471958718976	1471958719045	f	70
1802	18673	Thanks for your leadership on this issue.	Thanks for your leadership on this issue.	892485	1471958719061	1471958719181	o	79
1802	18673	Thanks for your leadership on this issue.	Thanks for your leadership on this issue.	892488	1471958719147	1471958719228	r	82
1802	18673	Thanks for your leadership on this issue.	Thanks for your leadership on this issue.	892490	1471958719337	1471958719398	 	32
1802	18673	Thanks for your leadership on this issue.	Thanks for your leadership on this issue.	892519	1471958720368	1471958720444	y	89
1802	18673	Thanks for your leadership on this issue.	Thanks for your leadership on this issue.	892521	1471958720444	1471958720543	o	79
1802	18673	Thanks for your leadership on this issue.	Thanks for your leadership on this issue.	892525	1471958720683	1471958720762	u	85
1802	18673	Thanks for your leadership on this issue.	Thanks for your leadership on this issue.	892529	1471958720856	1471958720897	r	82
1802	18673	Thanks for your leadership on this issue.	Thanks for your leadership on this issue.	892532	1471958720943	1471958721027	 	32
1802	18673	Thanks for your leadership on this issue.	Thanks for your leadership on this issue.	892590	1471958721807	1471958721862	l	76
1802	18673	Thanks for your leadership on this issue.	Thanks for your leadership on this issue.	892593	1471958722237	1471958722296	e	69
1802	18673	Thanks for your leadership on this issue.	Thanks for your leadership on this issue.	892597	1471958722327	1471958722395	a	65
1802	18673	Thanks for your leadership on this issue.	Thanks for your leadership on this issue.	892601	1471958722426	1471958722494	d	68
1802	18673	Thanks for your leadership on this issue.	Thanks for your leadership on this issue.	892604	1471958722713	1471958722794	s	83
1802	18673	Thanks for your leadership on this issue.	Thanks for your leadership on this issue.	892672	1471958722982	1471958723045	r	82
1802	18673	Thanks for your leadership on this issue.	Thanks for your leadership on this issue.	892673	1471958723124	1471958723178	e	69
1802	18673	Thanks for your leadership on this issue.	Thanks for your leadership on this issue.	892674	1471958723566	1471958723627	BKSP	8
1802	18673	Thanks for your leadership on this issue.	Thanks for your leadership on this issue.	892675	1471958723736	1471958723826	BKSP	8
1802	18673	Thanks for your leadership on this issue.	Thanks for your leadership on this issue.	892677	1471958723967	1471958724011	BKSP	8
1802	18673	Thanks for your leadership on this issue.	Thanks for your leadership on this issue.	892679	1471958724515	1471958724595	e	69
1802	18673	Thanks for your leadership on this issue.	Thanks for your leadership on this issue.	892681	1471958724627	1471958724678	r	82
1802	18673	Thanks for your leadership on this issue.	Thanks for your leadership on this issue.	892683	1471958724819	1471958724877	d	68
1802	18673	Thanks for your leadership on this issue.	Thanks for your leadership on this issue.	892735	1471958725219	1471958725355	BKSP	8
1802	18673	Thanks for your leadership on this issue.	Thanks for your leadership on this issue.	892737	1471958725386	1471958725461	s	83
1802	18673	Thanks for your leadership on this issue.	Thanks for your leadership on this issue.	892740	1471958725618	1471958725693	h	72
1802	18673	Thanks for your leadership on this issue.	Thanks for your leadership on this issue.	892743	1471958725896	1471958725976	i	73
1802	18673	Thanks for your leadership on this issue.	Thanks for your leadership on this issue.	892746	1471958726148	1471958726211	p	80
1802	18673	Thanks for your leadership on this issue.	Thanks for your leadership on this issue.	892750	1471958726446	1471958726494	 	32
1802	18673	Thanks for your leadership on this issue.	Thanks for your leadership on this issue.	892796	1471958727168	1471958727211	o	79
1802	18673	Thanks for your leadership on this issue.	Thanks for your leadership on this issue.	892798	1471958727430	1471958727478	n	78
1802	18673	Thanks for your leadership on this issue.	Thanks for your leadership on this issue.	892801	1471958727603	1471958727659	 	32
1802	18673	Thanks for your leadership on this issue.	Thanks for your leadership on this issue.	892804	1471958727956	1471958728003	t	84
1802	18673	Thanks for your leadership on this issue.	Thanks for your leadership on this issue.	892807	1471958728120	1471958728188	h	72
1802	18673	Thanks for your leadership on this issue.	Thanks for your leadership on this issue.	892839	1471958728331	1471958728410	i	73
1802	18673	Thanks for your leadership on this issue.	Thanks for your leadership on this issue.	892841	1471958728410	1471958728491	s	83
1802	18673	Thanks for your leadership on this issue.	Thanks for your leadership on this issue.	892843	1471958728553	1471958728610	 	32
1802	18673	Thanks for your leadership on this issue.	Thanks for your leadership on this issue.	892846	1471958729456	1471958729556	i	73
1802	18673	Thanks for your leadership on this issue.	Thanks for your leadership on this issue.	892850	1471958729603	1471958729706	s	83
1802	18673	Thanks for your leadership on this issue.	Thanks for your leadership on this issue.	892917	1471958729789	1471958729858	s	83
1802	18673	Thanks for your leadership on this issue.	Thanks for your leadership on this issue.	892919	1471958730046	1471958730108	u	85
1802	18673	Thanks for your leadership on this issue.	Thanks for your leadership on this issue.	892921	1471958730217	1471958730307	e	69
1802	18673	Thanks for your leadership on this issue.	Thanks for your leadership on this issue.	892923	1471958731374	1471958731472	.	190
1802	18689	New York's Supreme Court upheld a lower court decision.	New York's supreme court upheld a lower court decision.	893075	1471958735187	1471958735374	SHIFT	16
1802	18689	New York's Supreme Court upheld a lower court decision.	New York's supreme court upheld a lower court decision.	893077	1471958735330	1471958735405	N	78
1802	18689	New York's Supreme Court upheld a lower court decision.	New York's supreme court upheld a lower court decision.	893079	1471958735749	1471958735838	e	69
1802	18689	New York's Supreme Court upheld a lower court decision.	New York's supreme court upheld a lower court decision.	893081	1471958735854	1471958735923	w	87
1802	18689	New York's Supreme Court upheld a lower court decision.	New York's supreme court upheld a lower court decision.	893082	1471958735985	1471958736057	 	32
1802	18689	New York's Supreme Court upheld a lower court decision.	New York's supreme court upheld a lower court decision.	893145	1471958737232	1471958737469	CTRL	17
1802	18689	New York's Supreme Court upheld a lower court decision.	New York's supreme court upheld a lower court decision.	893083	1471958737357	1471958737420		89
1802	18689	New York's Supreme Court upheld a lower court decision.	New York's supreme court upheld a lower court decision.	893148	1471958737889	1471958737941	o	79
1802	18689	New York's Supreme Court upheld a lower court decision.	New York's supreme court upheld a lower court decision.	893151	1471958738347	1471958738406	r	82
1802	18689	New York's Supreme Court upheld a lower court decision.	New York's supreme court upheld a lower court decision.	893154	1471958738860	1471958738907	k	75
1802	18689	New York's Supreme Court upheld a lower court decision.	New York's supreme court upheld a lower court decision.	893158	1471958739831	1471958739889	'	222
1802	18689	New York's Supreme Court upheld a lower court decision.	New York's supreme court upheld a lower court decision.	893160	1471958739889	1471958739956	s	83
1802	18689	New York's Supreme Court upheld a lower court decision.	New York's supreme court upheld a lower court decision.	893302	1471958740488	1471958740556	BKSP	8
1802	18689	New York's Supreme Court upheld a lower court decision.	New York's supreme court upheld a lower court decision.	893304	1471958740665	1471958740738	BKSP	8
1802	18689	New York's Supreme Court upheld a lower court decision.	New York's supreme court upheld a lower court decision.	893308	1471958740801	1471958740840	BKSP	8
1802	18689	New York's Supreme Court upheld a lower court decision.	New York's supreme court upheld a lower court decision.	893312	1471958741043	1471958741073	BKSP	8
1802	18689	New York's Supreme Court upheld a lower court decision.	New York's supreme court upheld a lower court decision.	893316	1471958741183	1471958741223	BKSP	8
1802	18689	New York's Supreme Court upheld a lower court decision.	New York's supreme court upheld a lower court decision.	893319	1471958741458	1471958741490	BKSP	8
1802	18689	New York's Supreme Court upheld a lower court decision.	New York's supreme court upheld a lower court decision.	893322	1471958741881	1471958741923	 	32
1802	18689	New York's Supreme Court upheld a lower court decision.	New York's supreme court upheld a lower court decision.	893323	1471958743648	1471958744239	SHIFT	16
1802	18689	New York's Supreme Court upheld a lower court decision.	New York's supreme court upheld a lower court decision.	893324	1471958744181	1471958744270	Y	89
1802	18689	New York's Supreme Court upheld a lower court decision.	New York's supreme court upheld a lower court decision.	893325	1471958744598	1471958744670	o	79
1802	18689	New York's Supreme Court upheld a lower court decision.	New York's supreme court upheld a lower court decision.	893326	1471958744873	1471958744937	r	82
1802	18689	New York's Supreme Court upheld a lower court decision.	New York's supreme court upheld a lower court decision.	893327	1471958745234	1471958745287	k	75
1802	18689	New York's Supreme Court upheld a lower court decision.	New York's supreme court upheld a lower court decision.	893381	1471958746904	1471958746955	'	222
1802	18689	New York's Supreme Court upheld a lower court decision.	New York's supreme court upheld a lower court decision.	893382	1471958747095	1471958747201	s	83
1802	18689	New York's Supreme Court upheld a lower court decision.	New York's supreme court upheld a lower court decision.	893384	1471958747545	1471958747634	 	32
1802	18689	New York's Supreme Court upheld a lower court decision.	New York's supreme court upheld a lower court decision.	893387	1471958747900	1471958748000	s	83
1802	18689	New York's Supreme Court upheld a lower court decision.	New York's supreme court upheld a lower court decision.	893390	1471958748266	1471958748336	u	85
1802	18689	New York's Supreme Court upheld a lower court decision.	New York's supreme court upheld a lower court decision.	893454	1471958749322	1471958749386	p	80
1802	18689	New York's Supreme Court upheld a lower court decision.	New York's supreme court upheld a lower court decision.	893459	1471958749715	1471958749769	r	82
1802	18689	New York's Supreme Court upheld a lower court decision.	New York's supreme court upheld a lower court decision.	893463	1471958749816	1471958749886	e	69
1802	18689	New York's Supreme Court upheld a lower court decision.	New York's supreme court upheld a lower court decision.	893467	1471958750121	1471958750163	m	77
1802	18689	New York's Supreme Court upheld a lower court decision.	New York's supreme court upheld a lower court decision.	893473	1471958750202	1471958750253	e	69
1802	18689	New York's Supreme Court upheld a lower court decision.	New York's supreme court upheld a lower court decision.	893570	1471958750359	1471958750419	 	32
1802	18689	New York's Supreme Court upheld a lower court decision.	New York's supreme court upheld a lower court decision.	893573	1471958751923	1471958751989	c	67
1802	18689	New York's Supreme Court upheld a lower court decision.	New York's supreme court upheld a lower court decision.	893576	1471958752020	1471958752085	o	79
1802	18689	New York's Supreme Court upheld a lower court decision.	New York's supreme court upheld a lower court decision.	893579	1471958752272	1471958752334	u	85
1802	18689	New York's Supreme Court upheld a lower court decision.	New York's supreme court upheld a lower court decision.	893583	1471958752787	1471958752819	r	82
1802	18689	New York's Supreme Court upheld a lower court decision.	New York's supreme court upheld a lower court decision.	893630	1471958752846	1471958752934	t	84
1802	18689	New York's Supreme Court upheld a lower court decision.	New York's supreme court upheld a lower court decision.	893631	1471958753200	1471958753251	 	32
1802	18689	New York's Supreme Court upheld a lower court decision.	New York's supreme court upheld a lower court decision.	893632	1471958754067	1471958754119	u	85
1802	18689	New York's Supreme Court upheld a lower court decision.	New York's supreme court upheld a lower court decision.	893635	1471958754353	1471958754401	p	80
1802	18689	New York's Supreme Court upheld a lower court decision.	New York's supreme court upheld a lower court decision.	893638	1471958754729	1471958754816	h	72
1802	18689	New York's Supreme Court upheld a lower court decision.	New York's supreme court upheld a lower court decision.	893707	1471958755049	1471958755133	e	69
1802	18689	New York's Supreme Court upheld a lower court decision.	New York's supreme court upheld a lower court decision.	893709	1471958755164	1471958755251	l	76
1802	18689	New York's Supreme Court upheld a lower court decision.	New York's supreme court upheld a lower court decision.	893711	1471958755293	1471958755351	d	68
1802	18689	New York's Supreme Court upheld a lower court decision.	New York's supreme court upheld a lower court decision.	893712	1471958755430	1471958755484	 	32
1802	18689	New York's Supreme Court upheld a lower court decision.	New York's supreme court upheld a lower court decision.	893714	1471958756160	1471958756233	a	65
1802	18689	New York's Supreme Court upheld a lower court decision.	New York's supreme court upheld a lower court decision.	893748	1471958756301	1471958756334	 	32
1802	18689	New York's Supreme Court upheld a lower court decision.	New York's supreme court upheld a lower court decision.	893750	1471958756678	1471958756751	l	76
1802	18689	New York's Supreme Court upheld a lower court decision.	New York's supreme court upheld a lower court decision.	893752	1471958756860	1471958756932	o	79
1802	18689	New York's Supreme Court upheld a lower court decision.	New York's supreme court upheld a lower court decision.	893753	1471958757042	1471958757131	w	87
1802	18689	New York's Supreme Court upheld a lower court decision.	New York's supreme court upheld a lower court decision.	893754	1471958757209	1471958757282	e	69
1802	18689	New York's Supreme Court upheld a lower court decision.	New York's supreme court upheld a lower court decision.	893803	1471958757310	1471958757367	r	82
1802	18689	New York's Supreme Court upheld a lower court decision.	New York's supreme court upheld a lower court decision.	893806	1471958757633	1471958757683	 	32
1802	18689	New York's Supreme Court upheld a lower court decision.	New York's supreme court upheld a lower court decision.	893810	1471958758201	1471958758268	c	67
1802	18689	New York's Supreme Court upheld a lower court decision.	New York's supreme court upheld a lower court decision.	893814	1471958758393	1471958758482	o	79
1802	18689	New York's Supreme Court upheld a lower court decision.	New York's supreme court upheld a lower court decision.	893817	1471958758622	1471958758683	u	85
1802	18689	New York's Supreme Court upheld a lower court decision.	New York's supreme court upheld a lower court decision.	893842	1471958758827	1471958758899	r	82
1802	18689	New York's Supreme Court upheld a lower court decision.	New York's supreme court upheld a lower court decision.	893843	1471958758946	1471958759001	t	84
1802	18689	New York's Supreme Court upheld a lower court decision.	New York's supreme court upheld a lower court decision.	893845	1471958759235	1471958759283	 	32
1802	18689	New York's Supreme Court upheld a lower court decision.	New York's supreme court upheld a lower court decision.	893848	1471958759725	1471958759815	s	83
1802	18689	New York's Supreme Court upheld a lower court decision.	New York's supreme court upheld a lower court decision.	893851	1471958760205	1471958760314	BKSP	8
1802	18689	New York's Supreme Court upheld a lower court decision.	New York's supreme court upheld a lower court decision.	893854	1471958760392	1471958760480	d	68
1802	18689	New York's Supreme Court upheld a lower court decision.	New York's supreme court upheld a lower court decision.	893919	1471958760635	1471958760715	e	69
1802	18689	New York's Supreme Court upheld a lower court decision.	New York's supreme court upheld a lower court decision.	893926	1471958761357	1471958761495	c	67
1802	18689	New York's Supreme Court upheld a lower court decision.	New York's supreme court upheld a lower court decision.	893931	1471958762717	1471958762781	i	73
1802	18689	New York's Supreme Court upheld a lower court decision.	New York's supreme court upheld a lower court decision.	893935	1471958762859	1471958762963	s	83
1802	18689	New York's Supreme Court upheld a lower court decision.	New York's supreme court upheld a lower court decision.	893938	1471958763072	1471958763116	i	73
1802	18689	New York's Supreme Court upheld a lower court decision.	New York's supreme court upheld a lower court decision.	893995	1471958763275	1471958763331	o	79
1802	18689	New York's Supreme Court upheld a lower court decision.	New York's supreme court upheld a lower court decision.	893997	1471958763534	1471958763581	n	78
1802	18689	New York's Supreme Court upheld a lower court decision.	New York's supreme court upheld a lower court decision.	894000	1471958763776	1471958763816	 	32
1802	18689	New York's Supreme Court upheld a lower court decision.	New York's supreme court upheld a lower court decision.	894004	1471958764191	1471958764242	BKSP	8
1802	18689	New York's Supreme Court upheld a lower court decision.	New York's supreme court upheld a lower court decision.	894007	1471958764797	1471958764849	.	190
