PARTICIPANT_ID	TEST_SECTION_ID	SENTENCE	USER_INPUT	KEYSTROKE_ID	PRESS_TIME	RELEASE_TIME	LETTER	KEYCODE
1808	18501	How are things with you?	How are things with you?	883926	1471958525718	1471958525761	CAPS_LOCK	20
1808	18501	How are things with you?	How are things with you?	883928	1471958525804	1471958525880	H	72
1808	18501	How are things with you?	How are things with you?	883930	1471958525888	1471958525955	CAPS_LOCK	20
1808	18501	How are things with you?	How are things with you?	883933	1471958525964	1471958526037	o	79
1808	18501	How are things with you?	How are things with you?	883936	1471958526064	1471958526122	w	87
1808	18501	How are things with you?	How are things with you?	883939	1471958526167	1471958526251	 	32
1808	18501	How are things with you?	How are things with you?	883948	1471958526228	1471958526317	a	65
1808	18501	How are things with you?	How are things with you?	883950	1471958526459	1471958526527	r	82
1808	18501	How are things with you?	How are things with you?	883954	1471958526629	1471958526704	e	69
1808	18501	How are things with you?	How are things with you?	883957	1471958526728	1471958526806	 	32
1808	18501	How are things with you?	How are things with you?	883959	1471958526831	1471958526909	t	84
1808	18501	How are things with you?	How are things with you?	883972	1471958526881	1471958526947	h	72
1808	18501	How are things with you?	How are things with you?	883975	1471958527032	1471958527162	i	73
1808	18501	How are things with you?	How are things with you?	883980	1471958527134	1471958527229	n	78
1808	18501	How are things with you?	How are things with you?	883986	1471958527190	1471958527264	g	71
1808	18501	How are things with you?	How are things with you?	883988	1471958527418	1471958527454	s	83
1808	18501	How are things with you?	How are things with you?	883992	1471958527504	1471958527601	 	32
1808	18501	How are things with you?	How are things with you?	884007	1471958527612	1471958527692	w	87
1808	18501	How are things with you?	How are things with you?	884012	1471958527728	1471958527804	i	73
1808	18501	How are things with you?	How are things with you?	884017	1471958527899	1471958527996	t	84
1808	18501	How are things with you?	How are things with you?	884023	1471958528006	1471958528068	h	72
1808	18501	How are things with you?	How are things with you?	884027	1471958528406	1471958528476	 	32
1808	18501	How are things with you?	How are things with you?	884096	1471958528730	1471958528819	y	89
1808	18501	How are things with you?	How are things with you?	884098	1471958528928	1471958528993	u	85
1808	18501	How are things with you?	How are things with you?	884101	1471958529281	1471958529354	BKSP	8
1808	18501	How are things with you?	How are things with you?	884103	1471958529467	1471958529541	o	79
1808	18501	How are things with you?	How are things with you?	884104	1471958529601	1471958529687	u	85
1808	18501	How are things with you?	How are things with you?	884106	1471958529795	1471958529960	SHIFT	16
1808	18501	How are things with you?	How are things with you?	884095	1471958529891	1471958530036	?	191
1808	18507	I agree since I am at the bank right now.	I agree since I am at the bank right now.	884316	1471958533234	1471958533317	CAPS_LOCK	20
1808	18507	I agree since I am at the bank right now.	I agree since I am at the bank right now.	884320	1471958533420	1471958533502	I	73
1808	18507	I agree since I am at the bank right now.	I agree since I am at the bank right now.	884323	1471958533548	1471958533630	CAPS_LOCK	20
1808	18507	I agree since I am at the bank right now.	I agree since I am at the bank right now.	884325	1471958533642	1471958533730	 	32
1808	18507	I agree since I am at the bank right now.	I agree since I am at the bank right now.	884328	1471958533745	1471958533828	a	65
1808	18507	I agree since I am at the bank right now.	I agree since I am at the bank right now.	884332	1471958533875	1471958533941	g	71
1808	18507	I agree since I am at the bank right now.	I agree since I am at the bank right now.	884333	1471958534004	1471958534080	r	82
1808	18507	I agree since I am at the bank right now.	I agree since I am at the bank right now.	884365	1471958534184	1471958534259	e	69
1808	18507	I agree since I am at the bank right now.	I agree since I am at the bank right now.	884368	1471958534357	1471958534428	e	69
1808	18507	I agree since I am at the bank right now.	I agree since I am at the bank right now.	884371	1471958534488	1471958534551	 	32
1808	18507	I agree since I am at the bank right now.	I agree since I am at the bank right now.	884374	1471958534670	1471958534730	s	83
1808	18507	I agree since I am at the bank right now.	I agree since I am at the bank right now.	884379	1471958534752	1471958534831	i	73
1808	18507	I agree since I am at the bank right now.	I agree since I am at the bank right now.	884406	1471958534846	1471958534940	n	78
1808	18507	I agree since I am at the bank right now.	I agree since I am at the bank right now.	884410	1471958534912	1471958534988	c	67
1808	18507	I agree since I am at the bank right now.	I agree since I am at the bank right now.	884414	1471958535097	1471958535169	e	69
1808	18507	I agree since I am at the bank right now.	I agree since I am at the bank right now.	884420	1471958535186	1471958535274	 	32
1808	18507	I agree since I am at the bank right now.	I agree since I am at the bank right now.	884425	1471958535330	1471958535389	CAPS_LOCK	20
1808	18507	I agree since I am at the bank right now.	I agree since I am at the bank right now.	884453	1471958535377	1471958535439	I	73
1808	18507	I agree since I am at the bank right now.	I agree since I am at the bank right now.	884460	1471958535477	1471958535549	CAPS_LOCK	20
1808	18507	I agree since I am at the bank right now.	I agree since I am at the bank right now.	884466	1471958535560	1471958535657	 	32
1808	18507	I agree since I am at the bank right now.	I agree since I am at the bank right now.	884470	1471958535647	1471958535725	a	65
1808	18507	I agree since I am at the bank right now.	I agree since I am at the bank right now.	884475	1471958535732	1471958535782	m	77
1808	18507	I agree since I am at the bank right now.	I agree since I am at the bank right now.	884479	1471958535847	1471958535921	 	32
1808	18507	I agree since I am at the bank right now.	I agree since I am at the bank right now.	884504	1471958535901	1471958535996	a	65
1808	18507	I agree since I am at the bank right now.	I agree since I am at the bank right now.	884506	1471958536137	1471958536199	t	84
1808	18507	I agree since I am at the bank right now.	I agree since I am at the bank right now.	884509	1471958536238	1471958536307	 	32
1808	18507	I agree since I am at the bank right now.	I agree since I am at the bank right now.	884510	1471958536317	1471958536385	t	84
1808	18507	I agree since I am at the bank right now.	I agree since I am at the bank right now.	884512	1471958536410	1471958536456	h	72
1808	18507	I agree since I am at the bank right now.	I agree since I am at the bank right now.	884515	1471958536511	1471958536598	e	69
1808	18507	I agree since I am at the bank right now.	I agree since I am at the bank right now.	884554	1471958536577	1471958536627	 	32
1808	18507	I agree since I am at the bank right now.	I agree since I am at the bank right now.	884556	1471958536694	1471958536758	b	66
1808	18507	I agree since I am at the bank right now.	I agree since I am at the bank right now.	884557	1471958536796	1471958536883	a	65
1808	18507	I agree since I am at the bank right now.	I agree since I am at the bank right now.	884558	1471958536890	1471958536950	n	78
1808	18507	I agree since I am at the bank right now.	I agree since I am at the bank right now.	884559	1471958537139	1471958537208	 	32
1808	18507	I agree since I am at the bank right now.	I agree since I am at the bank right now.	884560	1471958537457	1471958537502	BKSP	8
1808	18507	I agree since I am at the bank right now.	I agree since I am at the bank right now.	884562	1471958537635	1471958537693	k	75
1808	18507	I agree since I am at the bank right now.	I agree since I am at the bank right now.	884579	1471958537784	1471958537868	 	32
1808	18507	I agree since I am at the bank right now.	I agree since I am at the bank right now.	884582	1471958537835	1471958537894	r	82
1808	18507	I agree since I am at the bank right now.	I agree since I am at the bank right now.	884584	1471958537936	1471958538014	i	73
1808	18507	I agree since I am at the bank right now.	I agree since I am at the bank right now.	884586	1471958538022	1471958538085	g	71
1808	18507	I agree since I am at the bank right now.	I agree since I am at the bank right now.	884589	1471958538093	1471958538153	h	72
1808	18507	I agree since I am at the bank right now.	I agree since I am at the bank right now.	884617	1471958538186	1471958538259	t	84
1808	18507	I agree since I am at the bank right now.	I agree since I am at the bank right now.	884620	1471958538275	1471958538349	 	32
1808	18507	I agree since I am at the bank right now.	I agree since I am at the bank right now.	884624	1471958538418	1471958538479	n	78
1808	18507	I agree since I am at the bank right now.	I agree since I am at the bank right now.	884628	1471958538513	1471958538610	o	79
1808	18507	I agree since I am at the bank right now.	I agree since I am at the bank right now.	884631	1471958538657	1471958538753	w	87
1808	18507	I agree since I am at the bank right now.	I agree since I am at the bank right now.	884635	1471958538768	1471958538842	.	190
1808	18514	There are differing views among the dissident community.	There are differing views among the dissident community.	884765	1471958540557	1471958540623	CAPS_LOCK	20
1808	18514	There are differing views among the dissident community.	There are differing views among the dissident community.	884768	1471958540717	1471958540781	T	84
1808	18514	There are differing views among the dissident community.	There are differing views among the dissident community.	884771	1471958540788	1471958540866	CAPS_LOCK	20
1808	18514	There are differing views among the dissident community.	There are differing views among the dissident community.	884774	1471958540942	1471958541002	h	72
1808	18514	There are differing views among the dissident community.	There are differing views among the dissident community.	884777	1471958541031	1471958541123	e	69
1808	18514	There are differing views among the dissident community.	There are differing views among the dissident community.	884781	1471958541210	1471958541280	r	82
1808	18514	There are differing views among the dissident community.	There are differing views among the dissident community.	884784	1471958541378	1471958541451	e	69
1808	18514	There are differing views among the dissident community.	There are differing views among the dissident community.	884803	1471958541549	1471958541654	 	32
1808	18514	There are differing views among the dissident community.	There are differing views among the dissident community.	884804	1471958541694	1471958541760	a	65
1808	18514	There are differing views among the dissident community.	There are differing views among the dissident community.	884805	1471958541922	1471958541985	r	82
1808	18514	There are differing views among the dissident community.	There are differing views among the dissident community.	884806	1471958542104	1471958542163	e	69
1808	18514	There are differing views among the dissident community.	There are differing views among the dissident community.	884808	1471958542182	1471958542270	 	32
1808	18514	There are differing views among the dissident community.	There are differing views among the dissident community.	884841	1471958542285	1471958542352	s	83
1808	18514	There are differing views among the dissident community.	There are differing views among the dissident community.	884846	1471958542563	1471958542646	i	73
1808	18514	There are differing views among the dissident community.	There are differing views among the dissident community.	884851	1471958542829	1471958542881	BKSP	8
1808	18514	There are differing views among the dissident community.	There are differing views among the dissident community.	884854	1471958542956	1471958543017	BKSP	8
1808	18514	There are differing views among the dissident community.	There are differing views among the dissident community.	884861	1471958543038	1471958543084	d	68
1808	18514	There are differing views among the dissident community.	There are differing views among the dissident community.	884865	1471958543142	1471958543216	i	73
1808	18514	There are differing views among the dissident community.	There are differing views among the dissident community.	884899	1471958543200	1471958543259	f	70
1808	18514	There are differing views among the dissident community.	There are differing views among the dissident community.	884903	1471958543350	1471958543427	f	70
1808	18514	There are differing views among the dissident community.	There are differing views among the dissident community.	884909	1471958543509	1471958543587	e	69
1808	18514	There are differing views among the dissident community.	There are differing views among the dissident community.	884914	1471958543662	1471958543719	r	82
1808	18514	There are differing views among the dissident community.	There are differing views among the dissident community.	884918	1471958543811	1471958543881	e	69
1808	18514	There are differing views among the dissident community.	There are differing views among the dissident community.	884923	1471958543888	1471958543995	i	73
1808	18514	There are differing views among the dissident community.	There are differing views among the dissident community.	885006	1471958543953	1471958544044	n	78
1808	18514	There are differing views among the dissident community.	There are differing views among the dissident community.	885010	1471958544143	1471958544213	 	32
1808	18514	There are differing views among the dissident community.	There are differing views among the dissident community.	885015	1471958544328	1471958544381	v	86
1808	18514	There are differing views among the dissident community.	There are differing views among the dissident community.	885023	1471958544578	1471958544631	BKSP	8
1808	18514	There are differing views among the dissident community.	There are differing views among the dissident community.	885028	1471958544743	1471958544791	BKSP	8
1808	18514	There are differing views among the dissident community.	There are differing views among the dissident community.	885030	1471958544895	1471958544950	BKSP	8
1808	18514	There are differing views among the dissident community.	There are differing views among the dissident community.	885032	1471958545033	1471958545104	BKSP	8
1808	18514	There are differing views among the dissident community.	There are differing views among the dissident community.	885034	1471958545183	1471958545277	BKSP	8
1808	18514	There are differing views among the dissident community.	There are differing views among the dissident community.	885035	1471958545428	1471958545574	i	73
1808	18514	There are differing views among the dissident community.	There are differing views among the dissident community.	885036	1471958545527	1471958545639	n	78
1808	18514	There are differing views among the dissident community.	There are differing views among the dissident community.	885040	1471958545597	1471958545709	g	71
1808	18514	There are differing views among the dissident community.	There are differing views among the dissident community.	885041	1471958545771	1471958545853	 	32
1808	18514	There are differing views among the dissident community.	There are differing views among the dissident community.	885042	1471958545994	1471958546066	v	86
1808	18514	There are differing views among the dissident community.	There are differing views among the dissident community.	885043	1471958546172	1471958546248	i	73
1808	18514	There are differing views among the dissident community.	There are differing views among the dissident community.	885044	1471958546281	1471958546357	e	69
1808	18514	There are differing views among the dissident community.	There are differing views among the dissident community.	885045	1471958546466	1471958546519	w	87
1808	18514	There are differing views among the dissident community.	There are differing views among the dissident community.	885064	1471958546619	1471958546691	s	83
1808	18514	There are differing views among the dissident community.	There are differing views among the dissident community.	885066	1471958546708	1471958546812	 	32
1808	18514	There are differing views among the dissident community.	There are differing views among the dissident community.	885068	1471958546813	1471958546909	a	65
1808	18514	There are differing views among the dissident community.	There are differing views among the dissident community.	885070	1471958546960	1471958547027	m	77
1808	18514	There are differing views among the dissident community.	There are differing views among the dissident community.	885072	1471958547076	1471958547188	o	79
1808	18514	There are differing views among the dissident community.	There are differing views among the dissident community.	885082	1471958547198	1471958547260	n	78
1808	18514	There are differing views among the dissident community.	There are differing views among the dissident community.	885085	1471958547321	1471958547405	g	71
1808	18514	There are differing views among the dissident community.	There are differing views among the dissident community.	885089	1471958547435	1471958547502	 	32
1808	18514	There are differing views among the dissident community.	There are differing views among the dissident community.	885092	1471958547509	1471958547579	t	84
1808	18514	There are differing views among the dissident community.	There are differing views among the dissident community.	885095	1471958547592	1471958547655	h	72
1808	18514	There are differing views among the dissident community.	There are differing views among the dissident community.	885104	1471958547712	1471958547784	e	69
1808	18514	There are differing views among the dissident community.	There are differing views among the dissident community.	885105	1471958547793	1471958547900	 	32
1808	18514	There are differing views among the dissident community.	There are differing views among the dissident community.	885107	1471958547924	1471958548005	d	68
1808	18514	There are differing views among the dissident community.	There are differing views among the dissident community.	885111	1471958548198	1471958548275	i	73
1808	18514	There are differing views among the dissident community.	There are differing views among the dissident community.	885113	1471958548366	1471958548430	s	83
1808	18514	There are differing views among the dissident community.	There are differing views among the dissident community.	885335	1471958548532	1471958548602	s	83
1808	18514	There are differing views among the dissident community.	There are differing views among the dissident community.	885337	1471958548941	1471958549016	i	73
1808	18514	There are differing views among the dissident community.	There are differing views among the dissident community.	885343	1471958549050	1471958549127	d	68
1808	18514	There are differing views among the dissident community.	There are differing views among the dissident community.	885347	1471958549199	1471958549274	e	69
1808	18514	There are differing views among the dissident community.	There are differing views among the dissident community.	885351	1471958549307	1471958549384	n	78
1808	18514	There are differing views among the dissident community.	There are differing views among the dissident community.	885334	1471958549402	1471958549473	t	84
1808	18514	There are differing views among the dissident community.	There are differing views among the dissident community.	885336	1471958549494	1471958549569	 	32
1808	18514	There are differing views among the dissident community.	There are differing views among the dissident community.	885340	1471958549617	1471958549689	c	67
1808	18514	There are differing views among the dissident community.	There are differing views among the dissident community.	885344	1471958549668	1471958549722	o	79
1808	18514	There are differing views among the dissident community.	There are differing views among the dissident community.	885349	1471958549817	1471958549864	m	77
1808	18514	There are differing views among the dissident community.	There are differing views among the dissident community.	885339	1471958549950	1471958550024	m	77
1808	18514	There are differing views among the dissident community.	There are differing views among the dissident community.	885341	1471958550088	1471958550155	u	85
1808	18514	There are differing views among the dissident community.	There are differing views among the dissident community.	885345	1471958550265	1471958550336	n	78
1808	18514	There are differing views among the dissident community.	There are differing views among the dissident community.	885348	1471958550383	1471958550458	i	73
1808	18514	There are differing views among the dissident community.	There are differing views among the dissident community.	885352	1471958550465	1471958550538	t	84
1808	18514	There are differing views among the dissident community.	There are differing views among the dissident community.	885338	1471958550582	1471958550639	y	89
1808	18514	There are differing views among the dissident community.	There are differing views among the dissident community.	885342	1471958551496	1471958551560	.	190
1808	18529	I haven't adapted really.	I haven't adapted really.	885526	1471958555682	1471958555896	CAPS_LOCK	20
1808	18529	I haven't adapted really.	I haven't adapted really.	885528	1471958555897	1471958555899	I	73
1808	18529	I haven't adapted really.	I haven't adapted really.	885530	1471958555900	1471958555953	CAPS_LOCK	20
1808	18529	I haven't adapted really.	I haven't adapted really.	885531	1471958555968	1471958556067	 	32
1808	18529	I haven't adapted really.	I haven't adapted really.	885532	1471958556075	1471958556153	h	65
1808	18529	I haven't adapted really.	I haven't adapted really.	885533	1471958556233	1471958556536	v	86
1808	18529	I haven't adapted really.	I haven't adapted really.	885563	1471958556540	1471958556542	e	69
1808	18529	I haven't adapted really.	I haven't adapted really.	885565	1471958556543	1471958556544	n	78
1808	18529	I haven't adapted really.	I haven't adapted really.	885568	1471958556728	1471958557256	'	192
1808	18529	I haven't adapted really.	I haven't adapted really.	885571	1471958557257	1471958557268	t	84
1808	18529	I haven't adapted really.	I haven't adapted really.	885574	1471958557269	1471958557271	 	32
1808	18529	I haven't adapted really.	I haven't adapted really.	885611	1471958557274	1471958557276	a	65
1808	18529	I haven't adapted really.	I haven't adapted really.	885613	1471958557309	1471958557381	d	68
1808	18529	I haven't adapted really.	I haven't adapted really.	885615	1471958557575	1471958557638	p	80
1808	18529	I haven't adapted really.	I haven't adapted really.	885617	1471958557934	1471958557982	BKSP	8
1808	18529	I haven't adapted really.	I haven't adapted really.	885620	1471958558029	1471958558110	a	65
1808	18529	I haven't adapted really.	I haven't adapted really.	885624	1471958558160	1471958558229	p	80
1808	18529	I haven't adapted really.	I haven't adapted really.	885713	1471958558864	1471958558946	t	84
1808	18529	I haven't adapted really.	I haven't adapted really.	885718	1471958559061	1471958559123	e	69
1808	18529	I haven't adapted really.	I haven't adapted really.	885722	1471958559218	1471958559293	d	68
1808	18529	I haven't adapted really.	I haven't adapted really.	885726	1471958559322	1471958559409	 	32
1808	18529	I haven't adapted really.	I haven't adapted really.	885730	1471958559441	1471958559497	r	82
1808	18529	I haven't adapted really.	I haven't adapted really.	885728	1471958559585	1471958559663	e	69
1808	18529	I haven't adapted really.	I haven't adapted really.	885731	1471958559778	1471958559851	a	65
1808	18529	I haven't adapted really.	I haven't adapted really.	885733	1471958559869	1471958559920	l	76
1808	18529	I haven't adapted really.	I haven't adapted really.	885736	1471958559999	1471958560057	l	76
1808	18529	I haven't adapted really.	I haven't adapted really.	885739	1471958560165	1471958560227	y	89
1808	18529	I haven't adapted really.	I haven't adapted really.	885859	1471958560203	1471958560279	.	190
1808	18529	I haven't adapted really.	I haven't adapted really.	885863	1471958562312	1471958562340	BKSP	8
1808	18529	I haven't adapted really.	I haven't adapted really.	885865	1471958562438	1471958562514	BKSP	8
1808	18529	I haven't adapted really.	I haven't adapted really.	885869	1471958562736	1471958562824	h	72
1808	18529	I haven't adapted really.	I haven't adapted really.	885872	1471958562905	1471958562991	a	65
1808	18540	We are working on this as we speak.	We are working on this as we speak.	886092	1471958566418	1471958566515	CAPS_LOCK	20
1808	18540	We are working on this as we speak.	We are working on this as we speak.	886095	1471958566659	1471958566715	W	87
1808	18540	We are working on this as we speak.	We are working on this as we speak.	886099	1471958566875	1471958566954	CAPS_LOCK	20
1808	18540	We are working on this as we speak.	We are working on this as we speak.	886105	1471958567108	1471958567174	e	69
1808	18540	We are working on this as we speak.	We are working on this as we speak.	886110	1471958567363	1471958567440	 	32
1808	18540	We are working on this as we speak.	We are working on this as we speak.	886113	1471958567534	1471958567603	a	65
1808	18540	We are working on this as we speak.	We are working on this as we speak.	886116	1471958567732	1471958567783	r	82
1808	18540	We are working on this as we speak.	We are working on this as we speak.	886117	1471958567877	1471958567960	e	69
1808	18540	We are working on this as we speak.	We are working on this as we speak.	886120	1471958567979	1471958568070	 	32
1808	18540	We are working on this as we speak.	We are working on this as we speak.	886123	1471958568122	1471958568182	w	87
1808	18540	We are working on this as we speak.	We are working on this as we speak.	886127	1471958568200	1471958568252	o	79
1808	18540	We are working on this as we speak.	We are working on this as we speak.	886133	1471958568325	1471958568400	r	82
1808	18540	We are working on this as we speak.	We are working on this as we speak.	886154	1471958568361	1471958568438	k	75
1808	18540	We are working on this as we speak.	We are working on this as we speak.	886157	1471958568489	1471958568597	i	73
1808	18540	We are working on this as we speak.	We are working on this as we speak.	886159	1471958568566	1471958568639	n	78
1808	18540	We are working on this as we speak.	We are working on this as we speak.	886161	1471958568605	1471958568676	g	71
1808	18540	We are working on this as we speak.	We are working on this as we speak.	886163	1471958568721	1471958568802	 	32
1808	18540	We are working on this as we speak.	We are working on this as we speak.	886166	1471958568873	1471958568955	o	79
1808	18540	We are working on this as we speak.	We are working on this as we speak.	886200	1471958568964	1471958569051	n	78
1808	18540	We are working on this as we speak.	We are working on this as we speak.	886205	1471958569126	1471958569211	 	32
1808	18540	We are working on this as we speak.	We are working on this as we speak.	886209	1471958569199	1471958569281	t	84
1808	18540	We are working on this as we speak.	We are working on this as we speak.	886212	1471958569291	1471958569352	b	66
1808	18540	We are working on this as we speak.	We are working on this as we speak.	886215	1471958569497	1471958569611	i	73
1808	18540	We are working on this as we speak.	We are working on this as we speak.	886256	1471958569840	1471958569899	BKSP	8
1808	18540	We are working on this as we speak.	We are working on this as we speak.	886259	1471958569983	1471958570042	BKSP	8
1808	18540	We are working on this as we speak.	We are working on this as we speak.	886262	1471958570158	1471958570269	h	72
1808	18540	We are working on this as we speak.	We are working on this as we speak.	886264	1471958570282	1471958570459	i	73
1808	18540	We are working on this as we speak.	We are working on this as we speak.	886265	1471958570460	1471958570467	s	83
1808	18540	We are working on this as we speak.	We are working on this as we speak.	886269	1471958570473	1471958570539	 	32
1808	18540	We are working on this as we speak.	We are working on this as we speak.	886273	1471958570593	1471958570661	a	65
1808	18540	We are working on this as we speak.	We are working on this as we speak.	886318	1471958570763	1471958570868	s	83
1808	18540	We are working on this as we speak.	We are working on this as we speak.	886319	1471958570918	1471958570990	 	32
1808	18540	We are working on this as we speak.	We are working on this as we speak.	886320	1471958571241	1471958571303	w	87
1808	18540	We are working on this as we speak.	We are working on this as we speak.	886321	1471958571422	1471958571499	e	69
1808	18540	We are working on this as we speak.	We are working on this as we speak.	886322	1471958571566	1471958571654	 	32
1808	18540	We are working on this as we speak.	We are working on this as we speak.	886356	1471958571906	1471958571971	s	83
1808	18540	We are working on this as we speak.	We are working on this as we speak.	886360	1471958571986	1471958572044	p	80
1808	18540	We are working on this as we speak.	We are working on this as we speak.	886366	1471958572067	1471958572123	e	69
1808	18540	We are working on this as we speak.	We are working on this as we speak.	886371	1471958572237	1471958572333	a	65
1808	18540	We are working on this as we speak.	We are working on this as we speak.	886406	1471958572319	1471958572374	k	75
1808	18540	We are working on this as we speak.	We are working on this as we speak.	886409	1471958572517	1471958572579	.	190
1808	18549	Clinton attended the US college basketball finals.	Clinton attended the US college basketball finals.	886566	1471958574724	1471958574809	CAPS_LOCK	20
1808	18549	Clinton attended the US college basketball finals.	Clinton attended the US college basketball finals.	886569	1471958574972	1471958575052	C	67
1808	18549	Clinton attended the US college basketball finals.	Clinton attended the US college basketball finals.	886574	1471958575196	1471958575283	CAPS_LOCK	20
1808	18549	Clinton attended the US college basketball finals.	Clinton attended the US college basketball finals.	886576	1471958575292	1471958575360	l	76
1808	18549	Clinton attended the US college basketball finals.	Clinton attended the US college basketball finals.	886580	1471958575442	1471958575533	i	73
1808	18549	Clinton attended the US college basketball finals.	Clinton attended the US college basketball finals.	886583	1471958575513	1471958575632	n	78
1808	18549	Clinton attended the US college basketball finals.	Clinton attended the US college basketball finals.	886586	1471958575639	1471958575707	t	84
1808	18549	Clinton attended the US college basketball finals.	Clinton attended the US college basketball finals.	886588	1471958575730	1471958575805	o	79
1808	18549	Clinton attended the US college basketball finals.	Clinton attended the US college basketball finals.	886589	1471958575813	1471958575891	n	78
1808	18549	Clinton attended the US college basketball finals.	Clinton attended the US college basketball finals.	886592	1471958575957	1471958576069	 	32
1808	18549	Clinton attended the US college basketball finals.	Clinton attended the US college basketball finals.	886594	1471958576122	1471958576224	a	65
1808	18549	Clinton attended the US college basketball finals.	Clinton attended the US college basketball finals.	886597	1471958576239	1471958576302	t	84
1808	18549	Clinton attended the US college basketball finals.	Clinton attended the US college basketball finals.	886613	1471958576367	1471958576440	t	84
1808	18549	Clinton attended the US college basketball finals.	Clinton attended the US college basketball finals.	886616	1471958576501	1471958576583	e	69
1808	18549	Clinton attended the US college basketball finals.	Clinton attended the US college basketball finals.	886617	1471958576629	1471958576696	n	78
1808	18549	Clinton attended the US college basketball finals.	Clinton attended the US college basketball finals.	886618	1471958576731	1471958576811	d	68
1808	18549	Clinton attended the US college basketball finals.	Clinton attended the US college basketball finals.	886619	1471958576913	1471958576973	e	69
1808	18549	Clinton attended the US college basketball finals.	Clinton attended the US college basketball finals.	886621	1471958577082	1471958577154	d	68
1808	18549	Clinton attended the US college basketball finals.	Clinton attended the US college basketball finals.	886623	1471958577174	1471958577258	 	32
1808	18549	Clinton attended the US college basketball finals.	Clinton attended the US college basketball finals.	886627	1471958577284	1471958577353	t	84
1808	18549	Clinton attended the US college basketball finals.	Clinton attended the US college basketball finals.	886630	1471958577360	1471958577418	h	72
1808	18549	Clinton attended the US college basketball finals.	Clinton attended the US college basketball finals.	886632	1471958577515	1471958577588	e	69
1808	18549	Clinton attended the US college basketball finals.	Clinton attended the US college basketball finals.	886671	1471958577631	1471958577732	 	32
1808	18549	Clinton attended the US college basketball finals.	Clinton attended the US college basketball finals.	886672	1471958577800	1471958577884	CAPS_LOCK	20
1808	18549	Clinton attended the US college basketball finals.	Clinton attended the US college basketball finals.	886676	1471958577874	1471958577951	U	85
1808	18549	Clinton attended the US college basketball finals.	Clinton attended the US college basketball finals.	886680	1471958578001	1471958578081	S	83
1808	18549	Clinton attended the US college basketball finals.	Clinton attended the US college basketball finals.	886682	1471958578186	1471958578196	 	32
1808	18549	Clinton attended the US college basketball finals.	Clinton attended the US college basketball finals.	886684	1471958578241	1471958578313	CAPS_LOCK	20
1808	18549	Clinton attended the US college basketball finals.	Clinton attended the US college basketball finals.	886685	1471958578451	1471958578531	c	67
1808	18549	Clinton attended the US college basketball finals.	Clinton attended the US college basketball finals.	886716	1471958578648	1471958578711	o	79
1808	18549	Clinton attended the US college basketball finals.	Clinton attended the US college basketball finals.	886718	1471958578847	1471958578906	l	76
1808	18549	Clinton attended the US college basketball finals.	Clinton attended the US college basketball finals.	886720	1471958579006	1471958579085	l	76
1808	18549	Clinton attended the US college basketball finals.	Clinton attended the US college basketball finals.	886721	1471958579130	1471958579209	e	69
1808	18549	Clinton attended the US college basketball finals.	Clinton attended the US college basketball finals.	886722	1471958579800	1471958579862	g	71
1808	18549	Clinton attended the US college basketball finals.	Clinton attended the US college basketball finals.	886743	1471958579912	1471958579992	e	69
1808	18549	Clinton attended the US college basketball finals.	Clinton attended the US college basketball finals.	886746	1471958580058	1471958580149	 	32
1808	18549	Clinton attended the US college basketball finals.	Clinton attended the US college basketball finals.	886749	1471958580278	1471958580350	b	66
1808	18549	Clinton attended the US college basketball finals.	Clinton attended the US college basketball finals.	886751	1471958580381	1471958580447	a	65
1808	18549	Clinton attended the US college basketball finals.	Clinton attended the US college basketball finals.	886753	1471958580564	1471958580641	s	83
1808	18549	Clinton attended the US college basketball finals.	Clinton attended the US college basketball finals.	886794	1471958580702	1471958580770	k	75
1808	18549	Clinton attended the US college basketball finals.	Clinton attended the US college basketball finals.	886799	1471958580900	1471958580960	e	69
1808	18549	Clinton attended the US college basketball finals.	Clinton attended the US college basketball finals.	886805	1471958581155	1471958581232	t	84
1808	18549	Clinton attended the US college basketball finals.	Clinton attended the US college basketball finals.	886810	1471958581342	1471958581406	b	66
1808	18549	Clinton attended the US college basketball finals.	Clinton attended the US college basketball finals.	886816	1471958581480	1471958581567	a	65
1808	18549	Clinton attended the US college basketball finals.	Clinton attended the US college basketball finals.	886835	1471958581603	1471958581654	l	76
1808	18549	Clinton attended the US college basketball finals.	Clinton attended the US college basketball finals.	886837	1471958581751	1471958581771	l	186
1808	18549	Clinton attended the US college basketball finals.	Clinton attended the US college basketball finals.	886838	1471958581868	1471958581968	 	32
1808	18549	Clinton attended the US college basketball finals.	Clinton attended the US college basketball finals.	886893	1471958581955	1471958582043	f	70
1808	18549	Clinton attended the US college basketball finals.	Clinton attended the US college basketball finals.	886896	1471958582033	1471958582159	i	73
1808	18549	Clinton attended the US college basketball finals.	Clinton attended the US college basketball finals.	886899	1471958582153	1471958582174	n	78
1808	18549	Clinton attended the US college basketball finals.	Clinton attended the US college basketball finals.	886901	1471958582350	1471958582394	BKSP	8
1808	18549	Clinton attended the US college basketball finals.	Clinton attended the US college basketball finals.	886905	1471958582499	1471958582538	BKSP	8
1808	18549	Clinton attended the US college basketball finals.	Clinton attended the US college basketball finals.	886909	1471958582620	1471958582682	BKSP	8
1808	18549	Clinton attended the US college basketball finals.	Clinton attended the US college basketball finals.	886911	1471958582748	1471958582833	BKSP	8
1808	18549	Clinton attended the US college basketball finals.	Clinton attended the US college basketball finals.	886912	1471958582869	1471958582939	BKSP	8
1808	18549	Clinton attended the US college basketball finals.	Clinton attended the US college basketball finals.	886913	1471958583032	1471958583079	BKSP	8
1808	18549	Clinton attended the US college basketball finals.	Clinton attended the US college basketball finals.	886914	1471958583305	1471958583388	l	76
1808	18549	Clinton attended the US college basketball finals.	Clinton attended the US college basketball finals.	886915	1471958583481	1471958583554	 	32
1808	18549	Clinton attended the US college basketball finals.	Clinton attended the US college basketball finals.	886916	1471958583615	1471958583697	f	70
1808	18549	Clinton attended the US college basketball finals.	Clinton attended the US college basketball finals.	886933	1471958583636	1471958583753	i	73
1808	18549	Clinton attended the US college basketball finals.	Clinton attended the US college basketball finals.	886937	1471958583729	1471958583835	n	78
1808	18549	Clinton attended the US college basketball finals.	Clinton attended the US college basketball finals.	886943	1471958583889	1471958583979	a	65
1808	18549	Clinton attended the US college basketball finals.	Clinton attended the US college basketball finals.	886946	1471958584010	1471958584069	l	76
1808	18549	Clinton attended the US college basketball finals.	Clinton attended the US college basketball finals.	886949	1471958584108	1471958584192	s	83
1808	18549	Clinton attended the US college basketball finals.	Clinton attended the US college basketball finals.	886953	1471958584228	1471958584506	.	190
1808	18561	The volumes tie, so the pricing must be off somewhere.	The volumes tie, so the pricing must be off somewhere.	887078	1471958586849	1471958586923	CAPS_LOCK	20
1808	18561	The volumes tie, so the pricing must be off somewhere.	The volumes tie, so the pricing must be off somewhere.	887081	1471958586973	1471958587041	T	84
1808	18561	The volumes tie, so the pricing must be off somewhere.	The volumes tie, so the pricing must be off somewhere.	887086	1471958587055	1471958587126	CAPS_LOCK	20
1808	18561	The volumes tie, so the pricing must be off somewhere.	The volumes tie, so the pricing must be off somewhere.	887091	1471958587169	1471958587230	h	72
1808	18561	The volumes tie, so the pricing must be off somewhere.	The volumes tie, so the pricing must be off somewhere.	887097	1471958587274	1471958587355	e	69
1808	18561	The volumes tie, so the pricing must be off somewhere.	The volumes tie, so the pricing must be off somewhere.	887099	1471958587316	1471958587394	 	32
1808	18561	The volumes tie, so the pricing must be off somewhere.	The volumes tie, so the pricing must be off somewhere.	887102	1471958587482	1471958587554	v	86
1808	18561	The volumes tie, so the pricing must be off somewhere.	The volumes tie, so the pricing must be off somewhere.	887124	1471958587699	1471958587753	o	79
1808	18561	The volumes tie, so the pricing must be off somewhere.	The volumes tie, so the pricing must be off somewhere.	887127	1471958587863	1471958587930	l	76
1808	18561	The volumes tie, so the pricing must be off somewhere.	The volumes tie, so the pricing must be off somewhere.	887131	1471958588030	1471958588092	u	85
1808	18561	The volumes tie, so the pricing must be off somewhere.	The volumes tie, so the pricing must be off somewhere.	887133	1471958588227	1471958588295	m	77
1808	18561	The volumes tie, so the pricing must be off somewhere.	The volumes tie, so the pricing must be off somewhere.	887138	1471958588313	1471958588386	e	69
1808	18561	The volumes tie, so the pricing must be off somewhere.	The volumes tie, so the pricing must be off somewhere.	887176	1471958588505	1471958588589	s	83
1808	18561	The volumes tie, so the pricing must be off somewhere.	The volumes tie, so the pricing must be off somewhere.	887178	1471958588577	1471958588680	 	32
1808	18561	The volumes tie, so the pricing must be off somewhere.	The volumes tie, so the pricing must be off somewhere.	887180	1471958588737	1471958588811	t	84
1808	18561	The volumes tie, so the pricing must be off somewhere.	The volumes tie, so the pricing must be off somewhere.	887182	1471958588798	1471958588938	i	73
1808	18561	The volumes tie, so the pricing must be off somewhere.	The volumes tie, so the pricing must be off somewhere.	887192	1471958588915	1471958588970	n	78
1808	18561	The volumes tie, so the pricing must be off somewhere.	The volumes tie, so the pricing must be off somewhere.	887197	1471958589279	1471958589329	BKSP	8
1808	18561	The volumes tie, so the pricing must be off somewhere.	The volumes tie, so the pricing must be off somewhere.	887200	1471958589392	1471958589482	e	69
1808	18561	The volumes tie, so the pricing must be off somewhere.	The volumes tie, so the pricing must be off somewhere.	887204	1471958589513	1471958589589	,	188
1808	18561	The volumes tie, so the pricing must be off somewhere.	The volumes tie, so the pricing must be off somewhere.	887208	1471958589662	1471958589744	 	32
1808	18561	The volumes tie, so the pricing must be off somewhere.	The volumes tie, so the pricing must be off somewhere.	887213	1471958589838	1471958589942	s	83
1808	18561	The volumes tie, so the pricing must be off somewhere.	The volumes tie, so the pricing must be off somewhere.	887228	1471958589912	1471958589961	o	79
1808	18561	The volumes tie, so the pricing must be off somewhere.	The volumes tie, so the pricing must be off somewhere.	887229	1471958590062	1471958590152	 	32
1808	18561	The volumes tie, so the pricing must be off somewhere.	The volumes tie, so the pricing must be off somewhere.	887230	1471958590181	1471958590248	t	84
1808	18561	The volumes tie, so the pricing must be off somewhere.	The volumes tie, so the pricing must be off somewhere.	887231	1471958590266	1471958590321	h	72
1808	18561	The volumes tie, so the pricing must be off somewhere.	The volumes tie, so the pricing must be off somewhere.	887232	1471958590387	1471958590465	e	69
1808	18561	The volumes tie, so the pricing must be off somewhere.	The volumes tie, so the pricing must be off somewhere.	887297	1471958590435	1471958590525	 	32
1808	18561	The volumes tie, so the pricing must be off somewhere.	The volumes tie, so the pricing must be off somewhere.	887299	1471958590648	1471958590717	p	80
1808	18561	The volumes tie, so the pricing must be off somewhere.	The volumes tie, so the pricing must be off somewhere.	887301	1471958590704	1471958590789	r	82
1808	18561	The volumes tie, so the pricing must be off somewhere.	The volumes tie, so the pricing must be off somewhere.	887302	1471958590889	1471958590957	i	73
1808	18561	The volumes tie, so the pricing must be off somewhere.	The volumes tie, so the pricing must be off somewhere.	887304	1471958591237	1471958591317	c	67
1808	18561	The volumes tie, so the pricing must be off somewhere.	The volumes tie, so the pricing must be off somewhere.	887306	1471958591388	1471958591566	i	73
1808	18561	The volumes tie, so the pricing must be off somewhere.	The volumes tie, so the pricing must be off somewhere.	887300	1471958591498	1471958591649	n	78
1808	18561	The volumes tie, so the pricing must be off somewhere.	The volumes tie, so the pricing must be off somewhere.	887303	1471958591656	1471958591739	g	71
1808	18561	The volumes tie, so the pricing must be off somewhere.	The volumes tie, so the pricing must be off somewhere.	887305	1471958591779	1471958591887	 	32
1808	18561	The volumes tie, so the pricing must be off somewhere.	The volumes tie, so the pricing must be off somewhere.	887307	1471958591939	1471958592012	m	77
1808	18561	The volumes tie, so the pricing must be off somewhere.	The volumes tie, so the pricing must be off somewhere.	887308	1471958592112	1471958592191	u	85
1808	18561	The volumes tie, so the pricing must be off somewhere.	The volumes tie, so the pricing must be off somewhere.	887318	1471958592180	1471958592229	s	83
1808	18561	The volumes tie, so the pricing must be off somewhere.	The volumes tie, so the pricing must be off somewhere.	887323	1471958592367	1471958592448	t	84
1808	18561	The volumes tie, so the pricing must be off somewhere.	The volumes tie, so the pricing must be off somewhere.	887328	1471958592436	1471958592499	 	32
1808	18561	The volumes tie, so the pricing must be off somewhere.	The volumes tie, so the pricing must be off somewhere.	887332	1471958592580	1471958592662	b	66
1808	18561	The volumes tie, so the pricing must be off somewhere.	The volumes tie, so the pricing must be off somewhere.	887336	1471958592670	1471958592724	e	69
1808	18561	The volumes tie, so the pricing must be off somewhere.	The volumes tie, so the pricing must be off somewhere.	887341	1471958592754	1471958592819	 	32
1808	18561	The volumes tie, so the pricing must be off somewhere.	The volumes tie, so the pricing must be off somewhere.	887368	1471958592906	1471958592976	o	79
1808	18561	The volumes tie, so the pricing must be off somewhere.	The volumes tie, so the pricing must be off somewhere.	887370	1471958592944	1471958592988	f	70
1808	18561	The volumes tie, so the pricing must be off somewhere.	The volumes tie, so the pricing must be off somewhere.	887372	1471958593097	1471958593178	f	70
1808	18561	The volumes tie, so the pricing must be off somewhere.	The volumes tie, so the pricing must be off somewhere.	887374	1471958593192	1471958593272	 	32
1808	18561	The volumes tie, so the pricing must be off somewhere.	The volumes tie, so the pricing must be off somewhere.	887375	1471958593487	1471958593577	s	83
1808	18561	The volumes tie, so the pricing must be off somewhere.	The volumes tie, so the pricing must be off somewhere.	887400	1471958593556	1471958593630	o	79
1808	18561	The volumes tie, so the pricing must be off somewhere.	The volumes tie, so the pricing must be off somewhere.	887405	1471958593665	1471958593781	m	77
1808	18561	The volumes tie, so the pricing must be off somewhere.	The volumes tie, so the pricing must be off somewhere.	887410	1471958593766	1471958593828	w	87
1808	18561	The volumes tie, so the pricing must be off somewhere.	The volumes tie, so the pricing must be off somewhere.	887415	1471958593948	1471958594012	e	69
1808	18561	The volumes tie, so the pricing must be off somewhere.	The volumes tie, so the pricing must be off somewhere.	887418	1471958594000	1471958594062	h	72
1808	18561	The volumes tie, so the pricing must be off somewhere.	The volumes tie, so the pricing must be off somewhere.	887420	1471958594114	1471958594174	e	69
1808	18561	The volumes tie, so the pricing must be off somewhere.	The volumes tie, so the pricing must be off somewhere.	887475	1471958594256	1471958594312	r	82
1808	18561	The volumes tie, so the pricing must be off somewhere.	The volumes tie, so the pricing must be off somewhere.	887476	1471958594418	1471958594503	e	69
1808	18561	The volumes tie, so the pricing must be off somewhere.	The volumes tie, so the pricing must be off somewhere.	887480	1471958594591	1471958594648	BKSP	8
1808	18561	The volumes tie, so the pricing must be off somewhere.	The volumes tie, so the pricing must be off somewhere.	887484	1471958594728	1471958594795	BKSP	8
1808	18561	The volumes tie, so the pricing must be off somewhere.	The volumes tie, so the pricing must be off somewhere.	887488	1471958594898	1471958594948	BKSP	8
1808	18561	The volumes tie, so the pricing must be off somewhere.	The volumes tie, so the pricing must be off somewhere.	887493	1471958595053	1471958595094	BKSP	8
1808	18561	The volumes tie, so the pricing must be off somewhere.	The volumes tie, so the pricing must be off somewhere.	887498	1471958595188	1471958595251	BKSP	8
1808	18561	The volumes tie, so the pricing must be off somewhere.	The volumes tie, so the pricing must be off somewhere.	887502	1471958595292	1471958595393	e	69
1808	18561	The volumes tie, so the pricing must be off somewhere.	The volumes tie, so the pricing must be off somewhere.	887504	1471958595530	1471958595573	BKSP	8
1808	18561	The volumes tie, so the pricing must be off somewhere.	The volumes tie, so the pricing must be off somewhere.	887507	1471958595654	1471958595705	BKSP	8
1808	18561	The volumes tie, so the pricing must be off somewhere.	The volumes tie, so the pricing must be off somewhere.	887510	1471958595714	1471958595796	e	69
1808	18561	The volumes tie, so the pricing must be off somewhere.	The volumes tie, so the pricing must be off somewhere.	887513	1471958595841	1471958595908	h	72
1808	18561	The volumes tie, so the pricing must be off somewhere.	The volumes tie, so the pricing must be off somewhere.	887548	1471958595917	1471958595976	w	87
1808	18561	The volumes tie, so the pricing must be off somewhere.	The volumes tie, so the pricing must be off somewhere.	887551	1471958596063	1471958596157	e	69
1808	18561	The volumes tie, so the pricing must be off somewhere.	The volumes tie, so the pricing must be off somewhere.	887554	1471958596222	1471958596287	r	82
1808	18561	The volumes tie, so the pricing must be off somewhere.	The volumes tie, so the pricing must be off somewhere.	887556	1471958596458	1471958596505	BKSP	8
1808	18561	The volumes tie, so the pricing must be off somewhere.	The volumes tie, so the pricing must be off somewhere.	887558	1471958596600	1471958596653	BKSP	8
1808	18561	The volumes tie, so the pricing must be off somewhere.	The volumes tie, so the pricing must be off somewhere.	887561	1471958596747	1471958596799	BKSP	8
1808	18561	The volumes tie, so the pricing must be off somewhere.	The volumes tie, so the pricing must be off somewhere.	887563	1471958597082	1471958597145	BKSP	8
1808	18561	The volumes tie, so the pricing must be off somewhere.	The volumes tie, so the pricing must be off somewhere.	887565	1471958597215	1471958597304	w	87
1808	18561	The volumes tie, so the pricing must be off somewhere.	The volumes tie, so the pricing must be off somewhere.	887567	1471958597337	1471958597400	h	72
1808	18561	The volumes tie, so the pricing must be off somewhere.	The volumes tie, so the pricing must be off somewhere.	887593	1471958597427	1471958597502	e	69
1808	18561	The volumes tie, so the pricing must be off somewhere.	The volumes tie, so the pricing must be off somewhere.	887595	1471958597576	1471958597650	r	82
1808	18561	The volumes tie, so the pricing must be off somewhere.	The volumes tie, so the pricing must be off somewhere.	887598	1471958597757	1471958597826	e	69
1808	18561	The volumes tie, so the pricing must be off somewhere.	The volumes tie, so the pricing must be off somewhere.	887600	1471958597849	1471958597914	.	190
1808	18575	That's a lot of dollars.	That's a lot of dollars.	887684	1471958600648	1471958600728	CAPS_LOCK	20
1808	18575	That's a lot of dollars.	That's a lot of dollars.	887687	1471958600823	1471958600877	T	84
1808	18575	That's a lot of dollars.	That's a lot of dollars.	887690	1471958600891	1471958600952	CAPS_LOCK	20
1808	18575	That's a lot of dollars.	That's a lot of dollars.	887693	1471958601024	1471958601093	h	72
1808	18575	That's a lot of dollars.	That's a lot of dollars.	887695	1471958601078	1471958601162	a	65
1808	18575	That's a lot of dollars.	That's a lot of dollars.	887697	1471958601176	1471958601235	t	84
1808	18575	That's a lot of dollars.	That's a lot of dollars.	887702	1471958601473	1471958601545	'	192
1808	18575	That's a lot of dollars.	That's a lot of dollars.	887700	1471958601606	1471958601682	s	83
1808	18575	That's a lot of dollars.	That's a lot of dollars.	887703	1471958601723	1471958601788	 	32
1808	18575	That's a lot of dollars.	That's a lot of dollars.	887708	1471958601828	1471958601901	a	65
1808	18575	That's a lot of dollars.	That's a lot of dollars.	887713	1471958601909	1471958601986	 	32
1808	18575	That's a lot of dollars.	That's a lot of dollars.	887715	1471958602106	1471958602168	l	76
1808	18575	That's a lot of dollars.	That's a lot of dollars.	887740	1471958602246	1471958602294	o	79
1808	18575	That's a lot of dollars.	That's a lot of dollars.	887742	1471958602379	1471958602436	t	84
1808	18575	That's a lot of dollars.	That's a lot of dollars.	887743	1471958602641	1471958602729	 	32
1808	18575	That's a lot of dollars.	That's a lot of dollars.	887744	1471958602806	1471958602858	o	79
1808	18575	That's a lot of dollars.	That's a lot of dollars.	887745	1471958602885	1471958602962	f	70
1808	18575	That's a lot of dollars.	That's a lot of dollars.	887754	1471958602994	1471958603060	 	32
1808	18575	That's a lot of dollars.	That's a lot of dollars.	887756	1471958603194	1471958603266	d	68
1808	18575	That's a lot of dollars.	That's a lot of dollars.	887760	1471958603274	1471958603334	o	79
1808	18575	That's a lot of dollars.	That's a lot of dollars.	887765	1471958603440	1471958603486	l	76
1808	18575	That's a lot of dollars.	That's a lot of dollars.	887769	1471958603561	1471958603621	l	76
1808	18575	That's a lot of dollars.	That's a lot of dollars.	887776	1471958603609	1471958603692	a	65
1808	18575	That's a lot of dollars.	That's a lot of dollars.	887778	1471958603829	1471958603883	r	82
1808	18575	That's a lot of dollars.	That's a lot of dollars.	887780	1471958603996	1471958604096	s	83
1808	18575	That's a lot of dollars.	That's a lot of dollars.	887784	1471958604103	1471958604160	.	190
1808	18582	Have a good weekend.	Have a good weekend.	887894	1471958606269	1471958606336	CAPS_LOCK	20
1808	18582	Have a good weekend.	Have a good weekend.	887896	1471958606407	1471958606468	H	72
1808	18582	Have a good weekend.	Have a good weekend.	887898	1471958606476	1471958606542	CAPS_LOCK	20
1808	18582	Have a good weekend.	Have a good weekend.	887901	1471958606645	1471958606731	a	65
1808	18582	Have a good weekend.	Have a good weekend.	887905	1471958606837	1471958606886	v	86
1808	18582	Have a good weekend.	Have a good weekend.	887910	1471958606909	1471958606988	e	69
1808	18582	Have a good weekend.	Have a good weekend.	887917	1471958607081	1471958607137	 	32
1808	18582	Have a good weekend.	Have a good weekend.	887921	1471958607149	1471958607214	a	65
1808	18582	Have a good weekend.	Have a good weekend.	887925	1471958607236	1471958607290	 	32
1808	18582	Have a good weekend.	Have a good weekend.	887929	1471958607362	1471958607424	g	71
1808	18582	Have a good weekend.	Have a good weekend.	887932	1471958607601	1471958607652	o	79
1808	18582	Have a good weekend.	Have a good weekend.	887935	1471958607723	1471958607792	o	79
1808	18582	Have a good weekend.	Have a good weekend.	887953	1471958607872	1471958607933	d	68
1808	18582	Have a good weekend.	Have a good weekend.	887955	1471958607950	1471958608026	 	32
1808	18582	Have a good weekend.	Have a good weekend.	887959	1471958608088	1471958608144	w	87
1808	18582	Have a good weekend.	Have a good weekend.	887964	1471958608264	1471958608315	e	69
1808	18582	Have a good weekend.	Have a good weekend.	887967	1471958608410	1471958608463	e	69
1808	18582	Have a good weekend.	Have a good weekend.	888047	1471958608491	1471958608548	k	75
1808	18582	Have a good weekend.	Have a good weekend.	888051	1471958608557	1471958608633	e	69
1808	18582	Have a good weekend.	Have a good weekend.	888056	1471958608808	1471958608878	d	68
1808	18582	Have a good weekend.	Have a good weekend.	888059	1471958609205	1471958609255	BKSP	8
1808	18582	Have a good weekend.	Have a good weekend.	888063	1471958609465	1471958609526	n	78
1808	18582	Have a good weekend.	Have a good weekend.	888069	1471958609618	1471958609702	d	68
1808	18582	Have a good weekend.	Have a good weekend.	888032	1471958609716	1471958609773	.	190
1808	18586	Call me if you have any questions.	Call me if you have any questions.	888199	1471958611780	1471958611855	CAPS_LOCK	20
1808	18586	Call me if you have any questions.	Call me if you have any questions.	888201	1471958612002	1471958612069	C	67
1808	18586	Call me if you have any questions.	Call me if you have any questions.	888205	1471958612235	1471958612271	CAPS_LOCK	20
1808	18586	Call me if you have any questions.	Call me if you have any questions.	888213	1471958612374	1471958612447	a	65
1808	18586	Call me if you have any questions.	Call me if you have any questions.	888218	1471958612482	1471958612540	l	76
1808	18586	Call me if you have any questions.	Call me if you have any questions.	888223	1471958612625	1471958612684	l	76
1808	18586	Call me if you have any questions.	Call me if you have any questions.	888228	1471958612764	1471958612821	 	32
1808	18586	Call me if you have any questions.	Call me if you have any questions.	888234	1471958612865	1471958612940	m	77
1808	18586	Call me if you have any questions.	Call me if you have any questions.	888236	1471958612947	1471958613014	e	69
1808	18586	Call me if you have any questions.	Call me if you have any questions.	888237	1471958612994	1471958613095	 	32
1808	18586	Call me if you have any questions.	Call me if you have any questions.	888239	1471958613153	1471958613236	i	73
1808	18586	Call me if you have any questions.	Call me if you have any questions.	888240	1471958613257	1471958613328	f	70
1808	18586	Call me if you have any questions.	Call me if you have any questions.	888252	1471958613356	1471958613444	 	32
1808	18586	Call me if you have any questions.	Call me if you have any questions.	888255	1471958613522	1471958613588	y	89
1808	18586	Call me if you have any questions.	Call me if you have any questions.	888258	1471958613557	1471958613636	o	79
1808	18586	Call me if you have any questions.	Call me if you have any questions.	888263	1471958613665	1471958613717	u	85
1808	18586	Call me if you have any questions.	Call me if you have any questions.	888269	1471958613845	1471958613949	 	32
1808	18586	Call me if you have any questions.	Call me if you have any questions.	888277	1471958613956	1471958614048	h	72
1808	18586	Call me if you have any questions.	Call me if you have any questions.	888278	1471958614003	1471958614069	a	65
1808	18586	Call me if you have any questions.	Call me if you have any questions.	888279	1471958614109	1471958614162	v	86
1808	18586	Call me if you have any questions.	Call me if you have any questions.	888280	1471958614180	1471958614253	e	69
1808	18586	Call me if you have any questions.	Call me if you have any questions.	888281	1471958614296	1471958614354	 	32
1808	18586	Call me if you have any questions.	Call me if you have any questions.	888319	1471958614415	1471958614480	a	65
1808	18586	Call me if you have any questions.	Call me if you have any questions.	888321	1471958614460	1471958614541	n	78
1808	18586	Call me if you have any questions.	Call me if you have any questions.	888322	1471958614595	1471958614644	u	85
1808	18586	Call me if you have any questions.	Call me if you have any questions.	888324	1471958614777	1471958614868	 	32
1808	18586	Call me if you have any questions.	Call me if you have any questions.	888326	1471958614875	1471958614944	q	81
1808	18586	Call me if you have any questions.	Call me if you have any questions.	888383	1471958615021	1471958615049	i	73
1808	18586	Call me if you have any questions.	Call me if you have any questions.	888389	1471958615334	1471958615385	BKSP	8
1808	18586	Call me if you have any questions.	Call me if you have any questions.	888391	1471958615490	1471958615545	BKSP	8
1808	18586	Call me if you have any questions.	Call me if you have any questions.	888395	1471958615632	1471958615687	BKSP	8
1808	18586	Call me if you have any questions.	Call me if you have any questions.	888402	1471958615782	1471958615824	BKSP	8
1808	18586	Call me if you have any questions.	Call me if you have any questions.	888405	1471958616033	1471958616088	y	89
1808	18586	Call me if you have any questions.	Call me if you have any questions.	888408	1471958616205	1471958616303	 	32
1808	18586	Call me if you have any questions.	Call me if you have any questions.	888412	1471958616291	1471958616369	q	81
1808	18586	Call me if you have any questions.	Call me if you have any questions.	888417	1471958616376	1471958616436	u	85
1808	18586	Call me if you have any questions.	Call me if you have any questions.	888431	1471958616470	1471958616526	e	69
1808	18586	Call me if you have any questions.	Call me if you have any questions.	888435	1471958616636	1471958616703	s	83
1808	18586	Call me if you have any questions.	Call me if you have any questions.	888437	1471958616827	1471958616896	t	84
1808	18586	Call me if you have any questions.	Call me if you have any questions.	888441	1471958616883	1471958616946	i	73
1808	18586	Call me if you have any questions.	Call me if you have any questions.	888444	1471958617033	1471958617144	o	79
1808	18586	Call me if you have any questions.	Call me if you have any questions.	888462	1471958617115	1471958617217	n	78
1808	18586	Call me if you have any questions.	Call me if you have any questions.	888465	1471958617229	1471958617330	s	83
1808	18586	Call me if you have any questions.	Call me if you have any questions.	888467	1471958617344	1471958617423	.	190
1808	18593	Maybe stuff we do more of next year.	Maybe stuff we do more of next year.	888609	1471958620104	1471958620169	CAPS_LOCK	20
1808	18593	Maybe stuff we do more of next year.	Maybe stuff we do more of next year.	888610	1471958620205	1471958620271	M	77
1808	18593	Maybe stuff we do more of next year.	Maybe stuff we do more of next year.	888611	1471958620309	1471958620395	CAPS_LOCK	20
1808	18593	Maybe stuff we do more of next year.	Maybe stuff we do more of next year.	888612	1471958620510	1471958620602	a	65
1808	18593	Maybe stuff we do more of next year.	Maybe stuff we do more of next year.	888614	1471958620633	1471958620697	y	89
1808	18593	Maybe stuff we do more of next year.	Maybe stuff we do more of next year.	888617	1471958620799	1471958620856	b	66
1808	18593	Maybe stuff we do more of next year.	Maybe stuff we do more of next year.	888621	1471958620911	1471958620975	e	69
1808	18593	Maybe stuff we do more of next year.	Maybe stuff we do more of next year.	888697	1471958621351	1471958621374	BKSP	8
1808	18593	Maybe stuff we do more of next year.	Maybe stuff we do more of next year.	888699	1471958621832	1471958621908	e	69
1808	18593	Maybe stuff we do more of next year.	Maybe stuff we do more of next year.	888702	1471958621920	1471958622002	 	32
1808	18593	Maybe stuff we do more of next year.	Maybe stuff we do more of next year.	888703	1471958622075	1471958622149	s	83
1808	18593	Maybe stuff we do more of next year.	Maybe stuff we do more of next year.	888708	1471958622130	1471958622197	t	84
1808	18593	Maybe stuff we do more of next year.	Maybe stuff we do more of next year.	888712	1471958622317	1471958622389	u	85
1808	18593	Maybe stuff we do more of next year.	Maybe stuff we do more of next year.	888704	1471958622430	1471958622490	f	70
1808	18593	Maybe stuff we do more of next year.	Maybe stuff we do more of next year.	888707	1471958622586	1471958622669	f	70
1808	18593	Maybe stuff we do more of next year.	Maybe stuff we do more of next year.	888711	1471958622699	1471958622876	 	32
1808	18593	Maybe stuff we do more of next year.	Maybe stuff we do more of next year.	888716	1471958622877	1471958622882	w	87
1808	18593	Maybe stuff we do more of next year.	Maybe stuff we do more of next year.	888720	1471958622948	1471958623014	e	69
1808	18593	Maybe stuff we do more of next year.	Maybe stuff we do more of next year.	888728	1471958623032	1471958623115	 	32
1808	18593	Maybe stuff we do more of next year.	Maybe stuff we do more of next year.	888730	1471958623147	1471958623234	d	68
1808	18593	Maybe stuff we do more of next year.	Maybe stuff we do more of next year.	888732	1471958623224	1471958623272	o	79
1808	18593	Maybe stuff we do more of next year.	Maybe stuff we do more of next year.	888735	1471958623380	1471958623433	 	32
1808	18593	Maybe stuff we do more of next year.	Maybe stuff we do more of next year.	888739	1471958623536	1471958623624	m	77
1808	18593	Maybe stuff we do more of next year.	Maybe stuff we do more of next year.	888763	1471958623633	1471958623669	o	79
1808	18593	Maybe stuff we do more of next year.	Maybe stuff we do more of next year.	888765	1471958623694	1471958623756	r	82
1808	18593	Maybe stuff we do more of next year.	Maybe stuff we do more of next year.	888770	1471958623860	1471958623928	e	69
1808	18593	Maybe stuff we do more of next year.	Maybe stuff we do more of next year.	888776	1471958623893	1471958623970	 	32
1808	18593	Maybe stuff we do more of next year.	Maybe stuff we do more of next year.	888783	1471958624036	1471958624091	o	79
1808	18593	Maybe stuff we do more of next year.	Maybe stuff we do more of next year.	888799	1471958624099	1471958624187	f	70
1808	18593	Maybe stuff we do more of next year.	Maybe stuff we do more of next year.	888801	1471958624368	1471958624437	n	78
1808	18593	Maybe stuff we do more of next year.	Maybe stuff we do more of next year.	888802	1471958624671	1471958624723	BKSP	8
1808	18593	Maybe stuff we do more of next year.	Maybe stuff we do more of next year.	888803	1471958624866	1471958624971	 	32
1808	18593	Maybe stuff we do more of next year.	Maybe stuff we do more of next year.	888804	1471958624988	1471958625038	n	78
1808	18593	Maybe stuff we do more of next year.	Maybe stuff we do more of next year.	888826	1471958625025	1471958625088	e	69
1808	18593	Maybe stuff we do more of next year.	Maybe stuff we do more of next year.	888828	1471958625224	1471958625296	x	88
1808	18593	Maybe stuff we do more of next year.	Maybe stuff we do more of next year.	888831	1471958625302	1471958625337	t	84
1808	18593	Maybe stuff we do more of next year.	Maybe stuff we do more of next year.	888834	1471958625462	1471958625572	 	32
1808	18593	Maybe stuff we do more of next year.	Maybe stuff we do more of next year.	888835	1471958625657	1471958625733	y	89
1808	18593	Maybe stuff we do more of next year.	Maybe stuff we do more of next year.	888836	1471958625740	1471958625792	e	69
1808	18593	Maybe stuff we do more of next year.	Maybe stuff we do more of next year.	888859	1471958625922	1471958625998	a	65
1808	18593	Maybe stuff we do more of next year.	Maybe stuff we do more of next year.	888862	1471958626129	1471958626206	r	82
1808	18593	Maybe stuff we do more of next year.	Maybe stuff we do more of next year.	888864	1471958626195	1471958626279	.	190
1808	18601	I'll just have her call Tracy.	I'll just have her call Tracy.	888965	1471958628204	1471958628267	CAPS_LOCK	20
1808	18601	I'll just have her call Tracy.	I'll just have her call Tracy.	888967	1471958628318	1471958628379	I	73
1808	18601	I'll just have her call Tracy.	I'll just have her call Tracy.	888970	1471958628404	1471958628478	CAPS_LOCK	20
1808	18601	I'll just have her call Tracy.	I'll just have her call Tracy.	888973	1471958628613	1471958628670	'	192
1808	18601	I'll just have her call Tracy.	I'll just have her call Tracy.	888976	1471958628817	1471958628888	l	76
1808	18601	I'll just have her call Tracy.	I'll just have her call Tracy.	888978	1471958628973	1471958629053	l	76
1808	18601	I'll just have her call Tracy.	I'll just have her call Tracy.	888980	1471958629131	1471958629198	 	32
1808	18601	I'll just have her call Tracy.	I'll just have her call Tracy.	889044	1471958629454	1471958629521	u	85
1808	18601	I'll just have her call Tracy.	I'll just have her call Tracy.	889046	1471958629558	1471958629579	s	83
1808	18601	I'll just have her call Tracy.	I'll just have her call Tracy.	889047	1471958629772	1471958629850	t	84
1808	18601	I'll just have her call Tracy.	I'll just have her call Tracy.	889049	1471958630116	1471958630166	BKSP	8
1808	18601	I'll just have her call Tracy.	I'll just have her call Tracy.	889050	1471958630261	1471958630309	BKSP	8
1808	18601	I'll just have her call Tracy.	I'll just have her call Tracy.	889051	1471958630401	1471958630453	BKSP	8
1808	18601	I'll just have her call Tracy.	I'll just have her call Tracy.	889054	1471958630725	1471958630784	j	74
1808	18601	I'll just have her call Tracy.	I'll just have her call Tracy.	889057	1471958630908	1471958630971	u	85
1808	18601	I'll just have her call Tracy.	I'll just have her call Tracy.	889085	1471958631040	1471958631122	s	83
1808	18601	I'll just have her call Tracy.	I'll just have her call Tracy.	889087	1471958631146	1471958631204	t	84
1808	18601	I'll just have her call Tracy.	I'll just have her call Tracy.	889088	1471958631325	1471958631426	 	32
1808	18601	I'll just have her call Tracy.	I'll just have her call Tracy.	889090	1471958631433	1471958631526	h	72
1808	18601	I'll just have her call Tracy.	I'll just have her call Tracy.	889102	1471958631487	1471958631572	a	65
1808	18601	I'll just have her call Tracy.	I'll just have her call Tracy.	889106	1471958631598	1471958631671	v	86
1808	18601	I'll just have her call Tracy.	I'll just have her call Tracy.	889109	1471958631679	1471958631764	e	69
1808	18601	I'll just have her call Tracy.	I'll just have her call Tracy.	889112	1471958631814	1471958631901	 	32
1808	18601	I'll just have her call Tracy.	I'll just have her call Tracy.	889116	1471958631999	1471958632062	h	72
1808	18601	I'll just have her call Tracy.	I'll just have her call Tracy.	889121	1471958632080	1471958632147	e	69
1808	18601	I'll just have her call Tracy.	I'll just have her call Tracy.	889118	1471958632222	1471958632284	r	82
1808	18601	I'll just have her call Tracy.	I'll just have her call Tracy.	889120	1471958632321	1471958632386	 	32
1808	18601	I'll just have her call Tracy.	I'll just have her call Tracy.	889123	1471958632432	1471958632495	c	67
1808	18601	I'll just have her call Tracy.	I'll just have her call Tracy.	889126	1471958632627	1471958632681	a	65
1808	18601	I'll just have her call Tracy.	I'll just have her call Tracy.	889147	1471958632671	1471958632723	l	76
1808	18601	I'll just have her call Tracy.	I'll just have her call Tracy.	889148	1471958632797	1471958632845	l	76
1808	18601	I'll just have her call Tracy.	I'll just have her call Tracy.	889149	1471958632929	1471958633022	 	32
1808	18601	I'll just have her call Tracy.	I'll just have her call Tracy.	889150	1471958633031	1471958633085	CAPS_LOCK	20
1808	18601	I'll just have her call Tracy.	I'll just have her call Tracy.	889151	1471958633154	1471958633224	T	84
1808	18601	I'll just have her call Tracy.	I'll just have her call Tracy.	889152	1471958633206	1471958633262	CAPS_LOCK	20
1808	18601	I'll just have her call Tracy.	I'll just have her call Tracy.	889153	1471958633281	1471958633353	r	82
1808	18601	I'll just have her call Tracy.	I'll just have her call Tracy.	889154	1471958633373	1471958633422	a	65
1808	18601	I'll just have her call Tracy.	I'll just have her call Tracy.	889187	1471958633583	1471958633668	c	67
1808	18601	I'll just have her call Tracy.	I'll just have her call Tracy.	889188	1471958634389	1471958634465	y	89
1808	18601	I'll just have her call Tracy.	I'll just have her call Tracy.	889190	1471958634500	1471958634564	.	190
1808	18611	Here it is again in case you didn't receive it.	Here it is again in case you didn't receive it.	889350	1471958636385	1471958636447	CAPS_LOCK	20
1808	18611	Here it is again in case you didn't receive it.	Here it is again in case you didn't receive it.	889355	1471958636572	1471958636630	H	72
1808	18611	Here it is again in case you didn't receive it.	Here it is again in case you didn't receive it.	889359	1471958636645	1471958636710	CAPS_LOCK	20
1808	18611	Here it is again in case you didn't receive it.	Here it is again in case you didn't receive it.	889362	1471958636852	1471958636924	e	69
1808	18611	Here it is again in case you didn't receive it.	Here it is again in case you didn't receive it.	889366	1471958637011	1471958637090	r	82
1808	18611	Here it is again in case you didn't receive it.	Here it is again in case you didn't receive it.	889369	1471958637183	1471958637284	e	69
1808	18611	Here it is again in case you didn't receive it.	Here it is again in case you didn't receive it.	889380	1471958637271	1471958637341	 	32
1808	18611	Here it is again in case you didn't receive it.	Here it is again in case you didn't receive it.	889383	1471958637421	1471958637500	i	73
1808	18611	Here it is again in case you didn't receive it.	Here it is again in case you didn't receive it.	889386	1471958637483	1471958637561	t	84
1808	18611	Here it is again in case you didn't receive it.	Here it is again in case you didn't receive it.	889388	1471958637612	1471958637675	 	32
1808	18611	Here it is again in case you didn't receive it.	Here it is again in case you didn't receive it.	889389	1471958637724	1471958637818	i	73
1808	18611	Here it is again in case you didn't receive it.	Here it is again in case you didn't receive it.	889396	1471958637806	1471958637891	s	83
1808	18611	Here it is again in case you didn't receive it.	Here it is again in case you didn't receive it.	889400	1471958637926	1471958637997	 	32
1808	18611	Here it is again in case you didn't receive it.	Here it is again in case you didn't receive it.	889406	1471958638052	1471958638119	a	65
1808	18611	Here it is again in case you didn't receive it.	Here it is again in case you didn't receive it.	889412	1471958638143	1471958638207	g	71
1808	18611	Here it is again in case you didn't receive it.	Here it is again in case you didn't receive it.	889419	1471958638235	1471958638328	a	65
1808	18611	Here it is again in case you didn't receive it.	Here it is again in case you didn't receive it.	889443	1471958638299	1471958638417	i	73
1808	18611	Here it is again in case you didn't receive it.	Here it is again in case you didn't receive it.	889446	1471958638392	1471958638494	n	78
1808	18611	Here it is again in case you didn't receive it.	Here it is again in case you didn't receive it.	889453	1471958638579	1471958638647	 	32
1808	18611	Here it is again in case you didn't receive it.	Here it is again in case you didn't receive it.	889459	1471958638694	1471958638815	i	73
1808	18611	Here it is again in case you didn't receive it.	Here it is again in case you didn't receive it.	889463	1471958638788	1471958638886	n	78
1808	18611	Here it is again in case you didn't receive it.	Here it is again in case you didn't receive it.	889468	1471958638972	1471958639061	 	32
1808	18611	Here it is again in case you didn't receive it.	Here it is again in case you didn't receive it.	889514	1471958639430	1471958639518	c	67
1808	18611	Here it is again in case you didn't receive it.	Here it is again in case you didn't receive it.	889517	1471958639659	1471958639725	a	65
1808	18611	Here it is again in case you didn't receive it.	Here it is again in case you didn't receive it.	889520	1471958639822	1471958639858	s	83
1808	18611	Here it is again in case you didn't receive it.	Here it is again in case you didn't receive it.	889526	1471958639959	1471958640047	e	69
1808	18611	Here it is again in case you didn't receive it.	Here it is again in case you didn't receive it.	889533	1471958640148	1471958640247	 	32
1808	18611	Here it is again in case you didn't receive it.	Here it is again in case you didn't receive it.	889547	1471958640290	1471958640384	y	89
1808	18611	Here it is again in case you didn't receive it.	Here it is again in case you didn't receive it.	889548	1471958640371	1471958640449	o	79
1808	18611	Here it is again in case you didn't receive it.	Here it is again in case you didn't receive it.	889550	1471958640479	1471958640548	u	85
1808	18611	Here it is again in case you didn't receive it.	Here it is again in case you didn't receive it.	889551	1471958640669	1471958640758	 	32
1808	18611	Here it is again in case you didn't receive it.	Here it is again in case you didn't receive it.	889553	1471958640766	1471958640846	d	68
1808	18611	Here it is again in case you didn't receive it.	Here it is again in case you didn't receive it.	889584	1471958640862	1471958640924	i	73
1808	18611	Here it is again in case you didn't receive it.	Here it is again in case you didn't receive it.	889588	1471958640959	1471958641036	d	68
1808	18611	Here it is again in case you didn't receive it.	Here it is again in case you didn't receive it.	889595	1471958641019	1471958641105	n	78
1808	18611	Here it is again in case you didn't receive it.	Here it is again in case you didn't receive it.	889600	1471958641287	1471958641301	'	192
1808	18611	Here it is again in case you didn't receive it.	Here it is again in case you didn't receive it.	889605	1471958641709	1471958641812	t	84
1808	18611	Here it is again in case you didn't receive it.	Here it is again in case you didn't receive it.	889646	1471958641895	1471958641983	 	32
1808	18611	Here it is again in case you didn't receive it.	Here it is again in case you didn't receive it.	889649	1471958642095	1471958642147	r	82
1808	18611	Here it is again in case you didn't receive it.	Here it is again in case you didn't receive it.	889651	1471958642282	1471958642348	e	69
1808	18611	Here it is again in case you didn't receive it.	Here it is again in case you didn't receive it.	889653	1471958642510	1471958642591	c	67
1808	18611	Here it is again in case you didn't receive it.	Here it is again in case you didn't receive it.	889655	1471958642944	1471958643036	e	69
1808	18611	Here it is again in case you didn't receive it.	Here it is again in case you didn't receive it.	889675	1471958643088	1471958643169	i	73
1808	18611	Here it is again in case you didn't receive it.	Here it is again in case you didn't receive it.	889678	1471958643294	1471958643363	v	86
1808	18611	Here it is again in case you didn't receive it.	Here it is again in case you didn't receive it.	889683	1471958643386	1471958643475	e	69
1808	18611	Here it is again in case you didn't receive it.	Here it is again in case you didn't receive it.	889687	1471958643554	1471958643616	 	32
1808	18611	Here it is again in case you didn't receive it.	Here it is again in case you didn't receive it.	889692	1471958643677	1471958643749	i	73
1808	18611	Here it is again in case you didn't receive it.	Here it is again in case you didn't receive it.	889715	1471958643737	1471958643818	t	84
1808	18611	Here it is again in case you didn't receive it.	Here it is again in case you didn't receive it.	889719	1471958643933	1471958643993	.	190
1808	18614	The majority owner of Telecom is a consortium.	The majority owner of Telecom is consortium.	889834	1471958646100	1471958646174	CAPS_LOCK	20
1808	18614	The majority owner of Telecom is a consortium.	The majority owner of Telecom is consortium.	889836	1471958646279	1471958646329	T	84
1808	18614	The majority owner of Telecom is a consortium.	The majority owner of Telecom is consortium.	889837	1471958646331	1471958646387	CAPS_LOCK	20
1808	18614	The majority owner of Telecom is a consortium.	The majority owner of Telecom is consortium.	889838	1471958646418	1471958646488	h	72
1808	18614	The majority owner of Telecom is a consortium.	The majority owner of Telecom is consortium.	889839	1471958646518	1471958646591	e	69
1808	18614	The majority owner of Telecom is a consortium.	The majority owner of Telecom is consortium.	889840	1471958646606	1471958646707	 	32
1808	18614	The majority owner of Telecom is a consortium.	The majority owner of Telecom is consortium.	889842	1471958646749	1471958646829	m	77
1808	18614	The majority owner of Telecom is a consortium.	The majority owner of Telecom is consortium.	889872	1471958646819	1471958646902	a	65
1808	18614	The majority owner of Telecom is a consortium.	The majority owner of Telecom is consortium.	889878	1471958646925	1471958646979	j	74
1808	18614	The majority owner of Telecom is a consortium.	The majority owner of Telecom is consortium.	889883	1471958647079	1471958647153	o	79
1808	18614	The majority owner of Telecom is a consortium.	The majority owner of Telecom is consortium.	889887	1471958647646	1471958647740	r	82
1808	18614	The majority owner of Telecom is a consortium.	The majority owner of Telecom is consortium.	889892	1471958647781	1471958647859	i	73
1808	18614	The majority owner of Telecom is a consortium.	The majority owner of Telecom is consortium.	889894	1471958647903	1471958648003	t	84
1808	18614	The majority owner of Telecom is a consortium.	The majority owner of Telecom is consortium.	889937	1471958648055	1471958648119	y	89
1808	18614	The majority owner of Telecom is a consortium.	The majority owner of Telecom is consortium.	889940	1471958648261	1471958648338	 	32
1808	18614	The majority owner of Telecom is a consortium.	The majority owner of Telecom is consortium.	889943	1471958648446	1471958648499	o	79
1808	18614	The majority owner of Telecom is a consortium.	The majority owner of Telecom is consortium.	889947	1471958648530	1471958648628	w	87
1808	18614	The majority owner of Telecom is a consortium.	The majority owner of Telecom is consortium.	889950	1471958648850	1471958648935	n	78
1808	18614	The majority owner of Telecom is a consortium.	The majority owner of Telecom is consortium.	889961	1471958648951	1471958649025	e	69
1808	18614	The majority owner of Telecom is a consortium.	The majority owner of Telecom is consortium.	889963	1471958649120	1471958649210	r	82
1808	18614	The majority owner of Telecom is a consortium.	The majority owner of Telecom is consortium.	889966	1471958649222	1471958649289	 	32
1808	18614	The majority owner of Telecom is a consortium.	The majority owner of Telecom is consortium.	889969	1471958649371	1471958649430	o	79
1808	18614	The majority owner of Telecom is a consortium.	The majority owner of Telecom is consortium.	889973	1471958649449	1471958649544	f	70
1808	18614	The majority owner of Telecom is a consortium.	The majority owner of Telecom is consortium.	889997	1471958649559	1471958649671	 	32
1808	18614	The majority owner of Telecom is a consortium.	The majority owner of Telecom is consortium.	890000	1471958649749	1471958649822	CAPS_LOCK	20
1808	18614	The majority owner of Telecom is a consortium.	The majority owner of Telecom is consortium.	890003	1471958649858	1471958649917	T	84
1808	18614	The majority owner of Telecom is a consortium.	The majority owner of Telecom is consortium.	890007	1471958649930	1471958649990	CAPS_LOCK	20
1808	18614	The majority owner of Telecom is a consortium.	The majority owner of Telecom is consortium.	890011	1471958650136	1471958650181	e	69
1808	18614	The majority owner of Telecom is a consortium.	The majority owner of Telecom is consortium.	890014	1471958650232	1471958650274	l	76
1808	18614	The majority owner of Telecom is a consortium.	The majority owner of Telecom is consortium.	890016	1471958650284	1471958650333	e	69
1808	18614	The majority owner of Telecom is a consortium.	The majority owner of Telecom is consortium.	890068	1471958650461	1471958650563	c	67
1808	18614	The majority owner of Telecom is a consortium.	The majority owner of Telecom is consortium.	890069	1471958650514	1471958650648	o	79
1808	18614	The majority owner of Telecom is a consortium.	The majority owner of Telecom is consortium.	890070	1471958650636	1471958650680	m	77
1808	18614	The majority owner of Telecom is a consortium.	The majority owner of Telecom is consortium.	890071	1471958650789	1471958650896	 	32
1808	18614	The majority owner of Telecom is a consortium.	The majority owner of Telecom is consortium.	890072	1471958650978	1471958651071	i	73
1808	18614	The majority owner of Telecom is a consortium.	The majority owner of Telecom is consortium.	890092	1471958651179	1471958651247	s	83
1808	18614	The majority owner of Telecom is a consortium.	The majority owner of Telecom is consortium.	890098	1471958651354	1471958651440	 	32
1808	18614	The majority owner of Telecom is a consortium.	The majority owner of Telecom is consortium.	890105	1471958651895	1471958651994	c	67
1808	18614	The majority owner of Telecom is a consortium.	The majority owner of Telecom is consortium.	890112	1471958651968	1471958652023	o	79
1808	18614	The majority owner of Telecom is a consortium.	The majority owner of Telecom is consortium.	890118	1471958652081	1471958652183	n	78
1808	18614	The majority owner of Telecom is a consortium.	The majority owner of Telecom is consortium.	890171	1471958652355	1471958652430	s	83
1808	18614	The majority owner of Telecom is a consortium.	The majority owner of Telecom is consortium.	890177	1471958652581	1471958652650	o	79
1808	18614	The majority owner of Telecom is a consortium.	The majority owner of Telecom is consortium.	890187	1471958652741	1471958652811	r	82
1808	18614	The majority owner of Telecom is a consortium.	The majority owner of Telecom is consortium.	890192	1471958653009	1471958653086	t	84
1808	18614	The majority owner of Telecom is a consortium.	The majority owner of Telecom is consortium.	890197	1471958653254	1471958653333	i	73
1808	18614	The majority owner of Telecom is a consortium.	The majority owner of Telecom is consortium.	890228	1471958653543	1471958653611	u	85
1808	18614	The majority owner of Telecom is a consortium.	The majority owner of Telecom is consortium.	890231	1471958653757	1471958653823	m	77
1808	18614	The majority owner of Telecom is a consortium.	The majority owner of Telecom is consortium.	890237	1471958653961	1471958654010	.	190
1808	18630	Probably need to check with HR group providing services.	Probably need to check with HR group providing services.	890410	1471958655972	1471958656036	CAPS_LOCK	20
1808	18630	Probably need to check with HR group providing services.	Probably need to check with HR group providing services.	890413	1471958656058	1471958656097	P	80
1808	18630	Probably need to check with HR group providing services.	Probably need to check with HR group providing services.	890418	1471958656139	1471958656213	CAPS_LOCK	20
1808	18630	Probably need to check with HR group providing services.	Probably need to check with HR group providing services.	890423	1471958656363	1471958656436	r	82
1808	18630	Probably need to check with HR group providing services.	Probably need to check with HR group providing services.	890425	1471958656399	1471958656484	o	79
1808	18630	Probably need to check with HR group providing services.	Probably need to check with HR group providing services.	890427	1471958656557	1471958656618	b	66
1808	18630	Probably need to check with HR group providing services.	Probably need to check with HR group providing services.	890429	1471958656645	1471958656744	a	65
1808	18630	Probably need to check with HR group providing services.	Probably need to check with HR group providing services.	890448	1471958656715	1471958656781	b	66
1808	18630	Probably need to check with HR group providing services.	Probably need to check with HR group providing services.	890453	1471958656906	1471958656980	l	76
1808	18630	Probably need to check with HR group providing services.	Probably need to check with HR group providing services.	890459	1471958656996	1471958657076	y	89
1808	18630	Probably need to check with HR group providing services.	Probably need to check with HR group providing services.	890464	1471958657094	1471958657205	 	32
1808	18630	Probably need to check with HR group providing services.	Probably need to check with HR group providing services.	890469	1471958657252	1471958657323	n	78
1808	18630	Probably need to check with HR group providing services.	Probably need to check with HR group providing services.	890473	1471958657331	1471958657398	e	69
1808	18630	Probably need to check with HR group providing services.	Probably need to check with HR group providing services.	890485	1471958657479	1471958657553	e	69
1808	18630	Probably need to check with HR group providing services.	Probably need to check with HR group providing services.	890489	1471958657636	1471958657734	d	68
1808	18630	Probably need to check with HR group providing services.	Probably need to check with HR group providing services.	890493	1471958657724	1471958657803	 	32
1808	18630	Probably need to check with HR group providing services.	Probably need to check with HR group providing services.	890497	1471958657852	1471958657935	t	84
1808	18630	Probably need to check with HR group providing services.	Probably need to check with HR group providing services.	890515	1471958657890	1471958657944	o	79
1808	18630	Probably need to check with HR group providing services.	Probably need to check with HR group providing services.	890517	1471958658054	1471958658127	 	32
1808	18630	Probably need to check with HR group providing services.	Probably need to check with HR group providing services.	890518	1471958658114	1471958658198	c	67
1808	18630	Probably need to check with HR group providing services.	Probably need to check with HR group providing services.	890521	1471958658211	1471958658277	h	72
1808	18630	Probably need to check with HR group providing services.	Probably need to check with HR group providing services.	890522	1471958658319	1471958658370	e	69
1808	18630	Probably need to check with HR group providing services.	Probably need to check with HR group providing services.	890525	1471958658480	1471958658572	c	67
1808	18630	Probably need to check with HR group providing services.	Probably need to check with HR group providing services.	890544	1471958658555	1471958658618	k	75
1808	18630	Probably need to check with HR group providing services.	Probably need to check with HR group providing services.	890547	1471958658702	1471958658795	 	32
1808	18630	Probably need to check with HR group providing services.	Probably need to check with HR group providing services.	890549	1471958658813	1471958658893	w	87
1808	18630	Probably need to check with HR group providing services.	Probably need to check with HR group providing services.	890551	1471958658901	1471958658977	i	73
1808	18630	Probably need to check with HR group providing services.	Probably need to check with HR group providing services.	890554	1471958659033	1471958659124	t	84
1808	18630	Probably need to check with HR group providing services.	Probably need to check with HR group providing services.	890628	1471958659105	1471958659162	h	72
1808	18630	Probably need to check with HR group providing services.	Probably need to check with HR group providing services.	890631	1471958659273	1471958659366	 	32
1808	18630	Probably need to check with HR group providing services.	Probably need to check with HR group providing services.	890633	1471958659393	1471958659445	CAPS_LOCK	20
1808	18630	Probably need to check with HR group providing services.	Probably need to check with HR group providing services.	890636	1471958659463	1471958659526	H	72
1808	18630	Probably need to check with HR group providing services.	Probably need to check with HR group providing services.	890638	1471958659616	1471958659689	R	82
1808	18630	Probably need to check with HR group providing services.	Probably need to check with HR group providing services.	890642	1471958659728	1471958659793	 	32
1808	18630	Probably need to check with HR group providing services.	Probably need to check with HR group providing services.	890646	1471958660231	1471958660314	CAPS_LOCK	20
1808	18630	Probably need to check with HR group providing services.	Probably need to check with HR group providing services.	890649	1471958660540	1471958660608	g	71
1808	18630	Probably need to check with HR group providing services.	Probably need to check with HR group providing services.	890672	1471958660718	1471958660799	r	82
1808	18630	Probably need to check with HR group providing services.	Probably need to check with HR group providing services.	890673	1471958660767	1471958660842	o	79
1808	18630	Probably need to check with HR group providing services.	Probably need to check with HR group providing services.	890676	1471958660908	1471958660971	u	85
1808	18630	Probably need to check with HR group providing services.	Probably need to check with HR group providing services.	890679	1471958661061	1471958661130	p	80
1808	18630	Probably need to check with HR group providing services.	Probably need to check with HR group providing services.	890682	1471958661251	1471958661323	 	32
1808	18630	Probably need to check with HR group providing services.	Probably need to check with HR group providing services.	890703	1471958661414	1471958661477	p	80
1808	18630	Probably need to check with HR group providing services.	Probably need to check with HR group providing services.	890707	1471958661509	1471958661546	r	82
1808	18630	Probably need to check with HR group providing services.	Probably need to check with HR group providing services.	890714	1471958661578	1471958661651	o	79
1808	18630	Probably need to check with HR group providing services.	Probably need to check with HR group providing services.	890719	1471958661728	1471958661807	v	86
1808	18630	Probably need to check with HR group providing services.	Probably need to check with HR group providing services.	890724	1471958661826	1471958661886	i	73
1808	18630	Probably need to check with HR group providing services.	Probably need to check with HR group providing services.	890777	1471958662673	1471958662766	d	68
1808	18630	Probably need to check with HR group providing services.	Probably need to check with HR group providing services.	890781	1471958662774	1471958662887	i	73
1808	18630	Probably need to check with HR group providing services.	Probably need to check with HR group providing services.	890786	1471958662847	1471958662965	n	78
1808	18630	Probably need to check with HR group providing services.	Probably need to check with HR group providing services.	890790	1471958662936	1471958663026	g	71
1808	18630	Probably need to check with HR group providing services.	Probably need to check with HR group providing services.	890793	1471958663055	1471958663143	 	32
1808	18630	Probably need to check with HR group providing services.	Probably need to check with HR group providing services.	890805	1471958663239	1471958663303	s	83
1808	18630	Probably need to check with HR group providing services.	Probably need to check with HR group providing services.	890807	1471958663382	1471958663452	e	69
1808	18630	Probably need to check with HR group providing services.	Probably need to check with HR group providing services.	890809	1471958663546	1471958663623	r	82
1808	18630	Probably need to check with HR group providing services.	Probably need to check with HR group providing services.	890812	1471958663609	1471958663683	v	86
1808	18630	Probably need to check with HR group providing services.	Probably need to check with HR group providing services.	890814	1471958663792	1471958663853	i	73
1808	18630	Probably need to check with HR group providing services.	Probably need to check with HR group providing services.	890841	1471958663838	1471958663928	c	67
1808	18630	Probably need to check with HR group providing services.	Probably need to check with HR group providing services.	890847	1471958664063	1471958664110	e	69
1808	18630	Probably need to check with HR group providing services.	Probably need to check with HR group providing services.	890852	1471958664228	1471958664323	s	83
1808	18630	Probably need to check with HR group providing services.	Probably need to check with HR group providing services.	890856	1471958664281	1471958664343	.	190
