PARTICIPANT_ID	TEST_SECTION_ID	SENTENCE	USER_INPUT	KEYSTROKE_ID	PRESS_TIME	RELEASE_TIME	LETTER	KEYCODE
1988	20074	Keep him in mind as a No.	Keep him in mind as a No.	957935	1471960046508	1471960046675	SHIFT	16
1988	20074	Keep him in mind as a No.	Keep him in mind as a No.	957939	1471960046627	1471960046762		75
1988	20074	Keep him in mind as a No.	Keep him in mind as a No.	957945	1471960046802	1471960046867		69
1988	20074	Keep him in mind as a No.	Keep him in mind as a No.	957949	1471960046930	1471960047050		69
1988	20074	Keep him in mind as a No.	Keep him in mind as a No.	957953	1471960047043	1471960047122		80
1988	20074	Keep him in mind as a No.	Keep him in mind as a No.	957956	1471960047426	1471960047546		32
1988	20074	Keep him in mind as a No.	Keep him in mind as a No.	957965	1471960047626	1471960047763		72
1988	20074	Keep him in mind as a No.	Keep him in mind as a No.	957970	1471960047707	1471960047866		73
1988	20074	Keep him in mind as a No.	Keep him in mind as a No.	957974	1471960047978	1471960048107		77
1988	20074	Keep him in mind as a No.	Keep him in mind as a No.	957980	1471960048068	1471960048187		32
1988	20074	Keep him in mind as a No.	Keep him in mind as a No.	957985	1471960048224	1471960048306		73
1988	20074	Keep him in mind as a No.	Keep him in mind as a No.	958039	1471960048414	1471960048672		78
1988	20074	Keep him in mind as a No.	Keep him in mind as a No.	958044	1471960048671	1471960048672		32
1988	20074	Keep him in mind as a No.	Keep him in mind as a No.	958048	1471960049146	1471960049274		77
1988	20074	Keep him in mind as a No.	Keep him in mind as a No.	958051	1471960049402	1471960049530		73
1988	20074	Keep him in mind as a No.	Keep him in mind as a No.	958055	1471960049619	1471960049754		78
1988	20074	Keep him in mind as a No.	Keep him in mind as a No.	958094	1471960049738	1471960049866		68
1988	20074	Keep him in mind as a No.	Keep him in mind as a No.	958097	1471960050123	1471960050290		32
1988	20074	Keep him in mind as a No.	Keep him in mind as a No.	958101	1471960050332	1471960050537		65
1988	20074	Keep him in mind as a No.	Keep him in mind as a No.	958104	1471960050418	1471960050547		83
1988	20074	Keep him in mind as a No.	Keep him in mind as a No.	958107	1471960050547	1471960050626		32
1988	20074	Keep him in mind as a No.	Keep him in mind as a No.	958111	1471960050634	1471960050763		65
1988	20074	Keep him in mind as a No.	Keep him in mind as a No.	958172	1471960050730	1471960050851		32
1988	20074	Keep him in mind as a No.	Keep him in mind as a No.	958177	1471960050991	1471960051162	SHIFT	16
1988	20074	Keep him in mind as a No.	Keep him in mind as a No.	958174	1471960051051	1471960051153		78
1988	20074	Keep him in mind as a No.	Keep him in mind as a No.	958180	1471960051298	1471960051458		79
1988	20074	Keep him in mind as a No.	Keep him in mind as a No.	958186	1471960051738	1471960051882		190
1988	20083	Sorry for the unfriendly greeting in the lobby.	Sorry for the unfriendly greeting in the lobby.	958360	1471960054316	1471960054563	SHIFT	16
1988	20083	Sorry for the unfriendly greeting in the lobby.	Sorry for the unfriendly greeting in the lobby.	958364	1471960054450	1471960054564		83
1988	20083	Sorry for the unfriendly greeting in the lobby.	Sorry for the unfriendly greeting in the lobby.	958367	1471960054642	1471960054794		79
1988	20083	Sorry for the unfriendly greeting in the lobby.	Sorry for the unfriendly greeting in the lobby.	958374	1471960054813	1471960054891		82
1988	20083	Sorry for the unfriendly greeting in the lobby.	Sorry for the unfriendly greeting in the lobby.	958382	1471960054954	1471960055066		82
1988	20083	Sorry for the unfriendly greeting in the lobby.	Sorry for the unfriendly greeting in the lobby.	958387	1471960055099	1471960055226		89
1988	20083	Sorry for the unfriendly greeting in the lobby.	Sorry for the unfriendly greeting in the lobby.	958400	1471960055186	1471960055314		32
1988	20083	Sorry for the unfriendly greeting in the lobby.	Sorry for the unfriendly greeting in the lobby.	958403	1471960055330	1471960055426		70
1988	20083	Sorry for the unfriendly greeting in the lobby.	Sorry for the unfriendly greeting in the lobby.	958407	1471960055410	1471960055530		79
1988	20083	Sorry for the unfriendly greeting in the lobby.	Sorry for the unfriendly greeting in the lobby.	958410	1471960055514	1471960055597		82
1988	20083	Sorry for the unfriendly greeting in the lobby.	Sorry for the unfriendly greeting in the lobby.	958413	1471960055587	1471960055717		32
1988	20083	Sorry for the unfriendly greeting in the lobby.	Sorry for the unfriendly greeting in the lobby.	958452	1471960055698	1471960055818		84
1988	20083	Sorry for the unfriendly greeting in the lobby.	Sorry for the unfriendly greeting in the lobby.	958454	1471960055778	1471960055892		72
1988	20083	Sorry for the unfriendly greeting in the lobby.	Sorry for the unfriendly greeting in the lobby.	958456	1471960055883	1471960055994		69
1988	20083	Sorry for the unfriendly greeting in the lobby.	Sorry for the unfriendly greeting in the lobby.	958458	1471960055947	1471960056050		32
1988	20083	Sorry for the unfriendly greeting in the lobby.	Sorry for the unfriendly greeting in the lobby.	958459	1471960056411	1471960056506		85
1988	20083	Sorry for the unfriendly greeting in the lobby.	Sorry for the unfriendly greeting in the lobby.	958460	1471960056602	1471960056738		78
1988	20083	Sorry for the unfriendly greeting in the lobby.	Sorry for the unfriendly greeting in the lobby.	958486	1471960056762	1471960056819		70
1988	20083	Sorry for the unfriendly greeting in the lobby.	Sorry for the unfriendly greeting in the lobby.	958489	1471960056922	1471960057064		82
1988	20083	Sorry for the unfriendly greeting in the lobby.	Sorry for the unfriendly greeting in the lobby.	958490	1471960057050	1471960057184		73
1988	20083	Sorry for the unfriendly greeting in the lobby.	Sorry for the unfriendly greeting in the lobby.	958492	1471960057170	1471960057298		69
1988	20083	Sorry for the unfriendly greeting in the lobby.	Sorry for the unfriendly greeting in the lobby.	958494	1471960057306	1471960057450		78
1988	20083	Sorry for the unfriendly greeting in the lobby.	Sorry for the unfriendly greeting in the lobby.	958531	1471960057455	1471960057530		68
1988	20083	Sorry for the unfriendly greeting in the lobby.	Sorry for the unfriendly greeting in the lobby.	958534	1471960057594	1471960057730		76
1988	20083	Sorry for the unfriendly greeting in the lobby.	Sorry for the unfriendly greeting in the lobby.	958537	1471960057866	1471960058002		89
1988	20083	Sorry for the unfriendly greeting in the lobby.	Sorry for the unfriendly greeting in the lobby.	958540	1471960057954	1471960058082		32
1988	20083	Sorry for the unfriendly greeting in the lobby.	Sorry for the unfriendly greeting in the lobby.	958544	1471960058588	1471960058667		71
1988	20083	Sorry for the unfriendly greeting in the lobby.	Sorry for the unfriendly greeting in the lobby.	958565	1471960058772	1471960058938		82
1988	20083	Sorry for the unfriendly greeting in the lobby.	Sorry for the unfriendly greeting in the lobby.	958568	1471960058953	1471960059095		69
1988	20083	Sorry for the unfriendly greeting in the lobby.	Sorry for the unfriendly greeting in the lobby.	958571	1471960059123	1471960059290		69
1988	20083	Sorry for the unfriendly greeting in the lobby.	Sorry for the unfriendly greeting in the lobby.	958574	1471960059315	1471960059442		84
1988	20083	Sorry for the unfriendly greeting in the lobby.	Sorry for the unfriendly greeting in the lobby.	958613	1471960059411	1471960059514		73
1988	20083	Sorry for the unfriendly greeting in the lobby.	Sorry for the unfriendly greeting in the lobby.	958616	1471960059594	1471960059738		78
1988	20083	Sorry for the unfriendly greeting in the lobby.	Sorry for the unfriendly greeting in the lobby.	958621	1471960059682	1471960059746		71
1988	20083	Sorry for the unfriendly greeting in the lobby.	Sorry for the unfriendly greeting in the lobby.	958626	1471960059762	1471960059898		32
1988	20083	Sorry for the unfriendly greeting in the lobby.	Sorry for the unfriendly greeting in the lobby.	958629	1471960059994	1471960060082		73
1988	20083	Sorry for the unfriendly greeting in the lobby.	Sorry for the unfriendly greeting in the lobby.	958635	1471960060170	1471960060290		78
1988	20083	Sorry for the unfriendly greeting in the lobby.	Sorry for the unfriendly greeting in the lobby.	958692	1471960060250	1471960060402		32
1988	20083	Sorry for the unfriendly greeting in the lobby.	Sorry for the unfriendly greeting in the lobby.	958696	1471960060451	1471960060570		72
1988	20083	Sorry for the unfriendly greeting in the lobby.	Sorry for the unfriendly greeting in the lobby.	958704	1471960061066	1471960061130		8
1988	20083	Sorry for the unfriendly greeting in the lobby.	Sorry for the unfriendly greeting in the lobby.	958709	1471960061178	1471960061266		8
1988	20083	Sorry for the unfriendly greeting in the lobby.	Sorry for the unfriendly greeting in the lobby.	958714	1471960061314	1471960061426		84
1988	20083	Sorry for the unfriendly greeting in the lobby.	Sorry for the unfriendly greeting in the lobby.	958758	1471960061402	1471960061522		72
1988	20083	Sorry for the unfriendly greeting in the lobby.	Sorry for the unfriendly greeting in the lobby.	958761	1471960061522	1471960061635		69
1988	20083	Sorry for the unfriendly greeting in the lobby.	Sorry for the unfriendly greeting in the lobby.	958764	1471960061618	1471960061714		32
1988	20083	Sorry for the unfriendly greeting in the lobby.	Sorry for the unfriendly greeting in the lobby.	958767	1471960061850	1471960061938		76
1988	20083	Sorry for the unfriendly greeting in the lobby.	Sorry for the unfriendly greeting in the lobby.	958770	1471960062018	1471960062146		79
1988	20083	Sorry for the unfriendly greeting in the lobby.	Sorry for the unfriendly greeting in the lobby.	958773	1471960062162	1471960062234		66
1988	20083	Sorry for the unfriendly greeting in the lobby.	Sorry for the unfriendly greeting in the lobby.	958830	1471960062306	1471960062442		66
1988	20083	Sorry for the unfriendly greeting in the lobby.	Sorry for the unfriendly greeting in the lobby.	958832	1471960062482	1471960062594		89
1988	20083	Sorry for the unfriendly greeting in the lobby.	Sorry for the unfriendly greeting in the lobby.	958834	1471960062778	1471960062890		190
1988	20095	I have the option of starting Jim Miller or picking up Chris Weinke.	I have the option of starting Jim Miller or picking up Christ Weinke.	958968	1471960065090	1471960065274	SHIFT	16
1988	20095	I have the option of starting Jim Miller or picking up Chris Weinke.	I have the option of starting Jim Miller or picking up Christ Weinke.	958969	1471960065170	1471960065298		73
1988	20095	I have the option of starting Jim Miller or picking up Chris Weinke.	I have the option of starting Jim Miller or picking up Christ Weinke.	958970	1471960065250	1471960065354		32
1988	20095	I have the option of starting Jim Miller or picking up Chris Weinke.	I have the option of starting Jim Miller or picking up Christ Weinke.	958973	1471960065418	1471960065554		72
1988	20095	I have the option of starting Jim Miller or picking up Chris Weinke.	I have the option of starting Jim Miller or picking up Christ Weinke.	958976	1471960065549	1471960065602		65
1988	20095	I have the option of starting Jim Miller or picking up Chris Weinke.	I have the option of starting Jim Miller or picking up Christ Weinke.	958978	1471960065698	1471960065786		86
1988	20095	I have the option of starting Jim Miller or picking up Chris Weinke.	I have the option of starting Jim Miller or picking up Christ Weinke.	958996	1471960065842	1471960065970		69
1988	20095	I have the option of starting Jim Miller or picking up Chris Weinke.	I have the option of starting Jim Miller or picking up Christ Weinke.	958998	1471960065922	1471960066034		32
1988	20095	I have the option of starting Jim Miller or picking up Chris Weinke.	I have the option of starting Jim Miller or picking up Christ Weinke.	959001	1471960066051	1471960066154		84
1988	20095	I have the option of starting Jim Miller or picking up Chris Weinke.	I have the option of starting Jim Miller or picking up Christ Weinke.	959004	1471960066114	1471960066218		72
1988	20095	I have the option of starting Jim Miller or picking up Chris Weinke.	I have the option of starting Jim Miller or picking up Christ Weinke.	959006	1471960066242	1471960066346		69
1988	20095	I have the option of starting Jim Miller or picking up Chris Weinke.	I have the option of starting Jim Miller or picking up Christ Weinke.	959080	1471960066282	1471960066426		32
1988	20095	I have the option of starting Jim Miller or picking up Chris Weinke.	I have the option of starting Jim Miller or picking up Christ Weinke.	959084	1471960066850	1471960067066		79
1988	20095	I have the option of starting Jim Miller or picking up Chris Weinke.	I have the option of starting Jim Miller or picking up Christ Weinke.	959087	1471960067258	1471960067362		80
1988	20095	I have the option of starting Jim Miller or picking up Chris Weinke.	I have the option of starting Jim Miller or picking up Christ Weinke.	959090	1471960067458	1471960067562		84
1988	20095	I have the option of starting Jim Miller or picking up Chris Weinke.	I have the option of starting Jim Miller or picking up Christ Weinke.	959091	1471960067635	1471960067802		73
1988	20095	I have the option of starting Jim Miller or picking up Chris Weinke.	I have the option of starting Jim Miller or picking up Christ Weinke.	959097	1471960067746	1471960067834		79
1988	20095	I have the option of starting Jim Miller or picking up Chris Weinke.	I have the option of starting Jim Miller or picking up Christ Weinke.	959098	1471960067930	1471960068058		78
1988	20095	I have the option of starting Jim Miller or picking up Chris Weinke.	I have the option of starting Jim Miller or picking up Christ Weinke.	959099	1471960068066	1471960068194		32
1988	20095	I have the option of starting Jim Miller or picking up Chris Weinke.	I have the option of starting Jim Miller or picking up Christ Weinke.	959103	1471960068242	1471960068386		79
1988	20095	I have the option of starting Jim Miller or picking up Chris Weinke.	I have the option of starting Jim Miller or picking up Christ Weinke.	959110	1471960068362	1471960068459		70
1988	20095	I have the option of starting Jim Miller or picking up Chris Weinke.	I have the option of starting Jim Miller or picking up Christ Weinke.	959116	1471960068466	1471960068562		32
1988	20095	I have the option of starting Jim Miller or picking up Chris Weinke.	I have the option of starting Jim Miller or picking up Christ Weinke.	959190	1471960068954	1471960069058		83
1988	20095	I have the option of starting Jim Miller or picking up Chris Weinke.	I have the option of starting Jim Miller or picking up Christ Weinke.	959192	1471960069450	1471960069546		84
1988	20095	I have the option of starting Jim Miller or picking up Chris Weinke.	I have the option of starting Jim Miller or picking up Christ Weinke.	959195	1471960069810	1471960069906		65
1988	20095	I have the option of starting Jim Miller or picking up Chris Weinke.	I have the option of starting Jim Miller or picking up Christ Weinke.	959198	1471960070010	1471960070114		82
1988	20095	I have the option of starting Jim Miller or picking up Chris Weinke.	I have the option of starting Jim Miller or picking up Christ Weinke.	959201	1471960070210	1471960070322		84
1988	20095	I have the option of starting Jim Miller or picking up Chris Weinke.	I have the option of starting Jim Miller or picking up Christ Weinke.	959257	1471960070410	1471960070522		73
1988	20095	I have the option of starting Jim Miller or picking up Chris Weinke.	I have the option of starting Jim Miller or picking up Christ Weinke.	959260	1471960070610	1471960070747		78
1988	20095	I have the option of starting Jim Miller or picking up Chris Weinke.	I have the option of starting Jim Miller or picking up Christ Weinke.	959262	1471960070706	1471960070810		71
1988	20095	I have the option of starting Jim Miller or picking up Chris Weinke.	I have the option of starting Jim Miller or picking up Christ Weinke.	959263	1471960070826	1471960070930		32
1988	20095	I have the option of starting Jim Miller or picking up Chris Weinke.	I have the option of starting Jim Miller or picking up Christ Weinke.	959308	1471960071154	1471960071378	SHIFT	16
1988	20095	I have the option of starting Jim Miller or picking up Chris Weinke.	I have the option of starting Jim Miller or picking up Christ Weinke.	959264	1471960071274	1471960071354		74
1988	20095	I have the option of starting Jim Miller or picking up Chris Weinke.	I have the option of starting Jim Miller or picking up Christ Weinke.	959310	1471960071674	1471960071786		73
1988	20095	I have the option of starting Jim Miller or picking up Chris Weinke.	I have the option of starting Jim Miller or picking up Christ Weinke.	959311	1471960072066	1471960072130		75
1988	20095	I have the option of starting Jim Miller or picking up Chris Weinke.	I have the option of starting Jim Miller or picking up Christ Weinke.	959313	1471960072186	1471960072282		32
1988	20095	I have the option of starting Jim Miller or picking up Chris Weinke.	I have the option of starting Jim Miller or picking up Christ Weinke.	959315	1471960072698	1471960072762		8
1988	20095	I have the option of starting Jim Miller or picking up Chris Weinke.	I have the option of starting Jim Miller or picking up Christ Weinke.	959319	1471960072811	1471960072898		8
1988	20095	I have the option of starting Jim Miller or picking up Chris Weinke.	I have the option of starting Jim Miller or picking up Christ Weinke.	959368	1471960073018	1471960073114		77
1988	20095	I have the option of starting Jim Miller or picking up Chris Weinke.	I have the option of starting Jim Miller or picking up Christ Weinke.	959370	1471960073122	1471960073234		32
1988	20095	I have the option of starting Jim Miller or picking up Chris Weinke.	I have the option of starting Jim Miller or picking up Christ Weinke.	959374	1471960073594	1471960073842	SHIFT	16
1988	20095	I have the option of starting Jim Miller or picking up Chris Weinke.	I have the option of starting Jim Miller or picking up Christ Weinke.	959372	1471960073682	1471960073810		77
1988	20095	I have the option of starting Jim Miller or picking up Chris Weinke.	I have the option of starting Jim Miller or picking up Christ Weinke.	959376	1471960073866	1471960073972		73
1988	20095	I have the option of starting Jim Miller or picking up Chris Weinke.	I have the option of starting Jim Miller or picking up Christ Weinke.	959378	1471960074067	1471960074130		76
1988	20095	I have the option of starting Jim Miller or picking up Chris Weinke.	I have the option of starting Jim Miller or picking up Christ Weinke.	959410	1471960074178	1471960074330		76
1988	20095	I have the option of starting Jim Miller or picking up Chris Weinke.	I have the option of starting Jim Miller or picking up Christ Weinke.	959412	1471960074346	1471960074530		69
1988	20095	I have the option of starting Jim Miller or picking up Chris Weinke.	I have the option of starting Jim Miller or picking up Christ Weinke.	959415	1471960074474	1471960074554		82
1988	20095	I have the option of starting Jim Miller or picking up Chris Weinke.	I have the option of starting Jim Miller or picking up Christ Weinke.	959420	1471960074578	1471960074682		32
1988	20095	I have the option of starting Jim Miller or picking up Chris Weinke.	I have the option of starting Jim Miller or picking up Christ Weinke.	959426	1471960074994	1471960075082		79
1988	20095	I have the option of starting Jim Miller or picking up Chris Weinke.	I have the option of starting Jim Miller or picking up Christ Weinke.	959530	1471960075658	1471960075762		82
1988	20095	I have the option of starting Jim Miller or picking up Chris Weinke.	I have the option of starting Jim Miller or picking up Christ Weinke.	959531	1471960075794	1471960075890		32
1988	20095	I have the option of starting Jim Miller or picking up Chris Weinke.	I have the option of starting Jim Miller or picking up Christ Weinke.	959534	1471960075986	1471960076074		80
1988	20095	I have the option of starting Jim Miller or picking up Chris Weinke.	I have the option of starting Jim Miller or picking up Christ Weinke.	959536	1471960076178	1471960076250		73
1988	20095	I have the option of starting Jim Miller or picking up Chris Weinke.	I have the option of starting Jim Miller or picking up Christ Weinke.	959539	1471960077154	1471960077266		67
1988	20095	I have the option of starting Jim Miller or picking up Chris Weinke.	I have the option of starting Jim Miller or picking up Christ Weinke.	959607	1471960077738	1471960077810		75
1988	20095	I have the option of starting Jim Miller or picking up Chris Weinke.	I have the option of starting Jim Miller or picking up Christ Weinke.	959608	1471960077914	1471960077994		73
1988	20095	I have the option of starting Jim Miller or picking up Chris Weinke.	I have the option of starting Jim Miller or picking up Christ Weinke.	959609	1471960078106	1471960078243		78
1988	20095	I have the option of starting Jim Miller or picking up Chris Weinke.	I have the option of starting Jim Miller or picking up Christ Weinke.	959610	1471960078218	1471960078330		71
1988	20095	I have the option of starting Jim Miller or picking up Chris Weinke.	I have the option of starting Jim Miller or picking up Christ Weinke.	959612	1471960078346	1471960078490		32
1988	20095	I have the option of starting Jim Miller or picking up Chris Weinke.	I have the option of starting Jim Miller or picking up Christ Weinke.	959689	1471960078674	1471960078794		85
1988	20095	I have the option of starting Jim Miller or picking up Chris Weinke.	I have the option of starting Jim Miller or picking up Christ Weinke.	959694	1471960078882	1471960079034		80
1988	20095	I have the option of starting Jim Miller or picking up Chris Weinke.	I have the option of starting Jim Miller or picking up Christ Weinke.	959698	1471960079035	1471960079178		32
1988	20095	I have the option of starting Jim Miller or picking up Chris Weinke.	I have the option of starting Jim Miller or picking up Christ Weinke.	959701	1471960079258	1471960079458	SHIFT	16
1988	20095	I have the option of starting Jim Miller or picking up Chris Weinke.	I have the option of starting Jim Miller or picking up Christ Weinke.	959704	1471960079402	1471960079482		67
1988	20095	I have the option of starting Jim Miller or picking up Chris Weinke.	I have the option of starting Jim Miller or picking up Christ Weinke.	959707	1471960079762	1471960079858		72
1988	20095	I have the option of starting Jim Miller or picking up Chris Weinke.	I have the option of starting Jim Miller or picking up Christ Weinke.	959731	1471960079994	1471960080130		73
1988	20095	I have the option of starting Jim Miller or picking up Chris Weinke.	I have the option of starting Jim Miller or picking up Christ Weinke.	959735	1471960080186	1471960080282		82
1988	20095	I have the option of starting Jim Miller or picking up Chris Weinke.	I have the option of starting Jim Miller or picking up Christ Weinke.	959739	1471960080601	1471960080666		8
1988	20095	I have the option of starting Jim Miller or picking up Chris Weinke.	I have the option of starting Jim Miller or picking up Christ Weinke.	959743	1471960080706	1471960080818		8
1988	20095	I have the option of starting Jim Miller or picking up Chris Weinke.	I have the option of starting Jim Miller or picking up Christ Weinke.	959749	1471960080874	1471960080978		82
1988	20095	I have the option of starting Jim Miller or picking up Chris Weinke.	I have the option of starting Jim Miller or picking up Christ Weinke.	959802	1471960080962	1471960081106		73
1988	20095	I have the option of starting Jim Miller or picking up Chris Weinke.	I have the option of starting Jim Miller or picking up Christ Weinke.	959806	1471960081154	1471960081258		83
1988	20095	I have the option of starting Jim Miller or picking up Chris Weinke.	I have the option of starting Jim Miller or picking up Christ Weinke.	959809	1471960081380	1471960081498		84
1988	20095	I have the option of starting Jim Miller or picking up Chris Weinke.	I have the option of starting Jim Miller or picking up Christ Weinke.	959813	1471960081522	1471960081650		32
1988	20095	I have the option of starting Jim Miller or picking up Chris Weinke.	I have the option of starting Jim Miller or picking up Christ Weinke.	959819	1471960081826	1471960082114	SHIFT	16
1988	20095	I have the option of starting Jim Miller or picking up Chris Weinke.	I have the option of starting Jim Miller or picking up Christ Weinke.	959816	1471960081994	1471960082106		87
1988	20095	I have the option of starting Jim Miller or picking up Chris Weinke.	I have the option of starting Jim Miller or picking up Christ Weinke.	959825	1471960082658	1471960082786		69
1988	20095	I have the option of starting Jim Miller or picking up Chris Weinke.	I have the option of starting Jim Miller or picking up Christ Weinke.	959878	1471960082789	1471960082882		73
1988	20095	I have the option of starting Jim Miller or picking up Chris Weinke.	I have the option of starting Jim Miller or picking up Christ Weinke.	959880	1471960083050	1471960083154		78
1988	20095	I have the option of starting Jim Miller or picking up Chris Weinke.	I have the option of starting Jim Miller or picking up Christ Weinke.	959883	1471960083450	1471960083586		75
1988	20095	I have the option of starting Jim Miller or picking up Chris Weinke.	I have the option of starting Jim Miller or picking up Christ Weinke.	959884	1471960083554	1471960083650		69
1988	20095	I have the option of starting Jim Miller or picking up Chris Weinke.	I have the option of starting Jim Miller or picking up Christ Weinke.	959887	1471960084178	1471960084298		190
1988	20117	I guess the next time I'll see you is for Superbowl.	I guess the next tine I'll see you is for Superbowl.	959982	1471960086118	1471960086330	SHIFT	16
1988	20117	I guess the next time I'll see you is for Superbowl.	I guess the next tine I'll see you is for Superbowl.	959986	1471960086234	1471960086395		73
1988	20117	I guess the next time I'll see you is for Superbowl.	I guess the next tine I'll see you is for Superbowl.	959990	1471960086338	1471960086482		32
1988	20117	I guess the next time I'll see you is for Superbowl.	I guess the next tine I'll see you is for Superbowl.	959993	1471960086514	1471960086618		71
1988	20117	I guess the next time I'll see you is for Superbowl.	I guess the next tine I'll see you is for Superbowl.	959997	1471960086650	1471960086760		85
1988	20117	I guess the next time I'll see you is for Superbowl.	I guess the next tine I'll see you is for Superbowl.	960033	1471960086746	1471960086858		69
1988	20117	I guess the next time I'll see you is for Superbowl.	I guess the next tine I'll see you is for Superbowl.	960036	1471960087260	1471960087322		8
1988	20117	I guess the next time I'll see you is for Superbowl.	I guess the next tine I'll see you is for Superbowl.	960040	1471960087423	1471960087514		8
1988	20117	I guess the next time I'll see you is for Superbowl.	I guess the next tine I'll see you is for Superbowl.	960044	1471960087754	1471960087818		69
1988	20117	I guess the next time I'll see you is for Superbowl.	I guess the next tine I'll see you is for Superbowl.	960050	1471960088018	1471960088106		83
1988	20117	I guess the next time I'll see you is for Superbowl.	I guess the next tine I'll see you is for Superbowl.	960056	1471960088178	1471960088293		83
1988	20117	I guess the next time I'll see you is for Superbowl.	I guess the next tine I'll see you is for Superbowl.	960068	1471960088274	1471960088402		32
1988	20117	I guess the next time I'll see you is for Superbowl.	I guess the next tine I'll see you is for Superbowl.	960071	1471960088379	1471960088506		84
1988	20117	I guess the next time I'll see you is for Superbowl.	I guess the next tine I'll see you is for Superbowl.	960074	1471960088458	1471960088563		72
1988	20117	I guess the next time I'll see you is for Superbowl.	I guess the next tine I'll see you is for Superbowl.	960078	1471960088579	1471960088698		69
1988	20117	I guess the next time I'll see you is for Superbowl.	I guess the next tine I'll see you is for Superbowl.	960082	1471960088635	1471960088754		32
1988	20117	I guess the next time I'll see you is for Superbowl.	I guess the next tine I'll see you is for Superbowl.	960086	1471960088866	1471960089018		78
1988	20117	I guess the next time I'll see you is for Superbowl.	I guess the next tine I'll see you is for Superbowl.	960104	1471960089058	1471960089154		69
1988	20117	I guess the next time I'll see you is for Superbowl.	I guess the next tine I'll see you is for Superbowl.	960107	1471960089290	1471960089410		88
1988	20117	I guess the next time I'll see you is for Superbowl.	I guess the next tine I'll see you is for Superbowl.	960112	1471960089506	1471960089610		84
1988	20117	I guess the next time I'll see you is for Superbowl.	I guess the next tine I'll see you is for Superbowl.	960116	1471960089570	1471960089698		32
1988	20117	I guess the next time I'll see you is for Superbowl.	I guess the next tine I'll see you is for Superbowl.	960120	1471960089706	1471960089834		84
1988	20117	I guess the next time I'll see you is for Superbowl.	I guess the next tine I'll see you is for Superbowl.	960206	1471960089778	1471960089874		73
1988	20117	I guess the next time I'll see you is for Superbowl.	I guess the next tine I'll see you is for Superbowl.	960209	1471960089986	1471960090082		78
1988	20117	I guess the next time I'll see you is for Superbowl.	I guess the next tine I'll see you is for Superbowl.	960215	1471960090066	1471960090170		69
1988	20117	I guess the next time I'll see you is for Superbowl.	I guess the next tine I'll see you is for Superbowl.	960220	1471960090930	1471960091044		32
1988	20117	I guess the next time I'll see you is for Superbowl.	I guess the next tine I'll see you is for Superbowl.	960224	1471960091538	1471960091770	SHIFT	16
1988	20117	I guess the next time I'll see you is for Superbowl.	I guess the next tine I'll see you is for Superbowl.	960227	1471960091659	1471960091778		73
1988	20117	I guess the next time I'll see you is for Superbowl.	I guess the next tine I'll see you is for Superbowl.	960231	1471960091874	1471960092002		222
1988	20117	I guess the next time I'll see you is for Superbowl.	I guess the next tine I'll see you is for Superbowl.	960264	1471960092089	1471960092161		76
1988	20117	I guess the next time I'll see you is for Superbowl.	I guess the next tine I'll see you is for Superbowl.	960267	1471960092217	1471960092361		76
1988	20117	I guess the next time I'll see you is for Superbowl.	I guess the next tine I'll see you is for Superbowl.	960269	1471960092321	1471960092481		32
1988	20117	I guess the next time I'll see you is for Superbowl.	I guess the next tine I'll see you is for Superbowl.	960273	1471960092465	1471960092569		83
1988	20117	I guess the next time I'll see you is for Superbowl.	I guess the next tine I'll see you is for Superbowl.	960278	1471960092865	1471960092969		69
1988	20117	I guess the next time I'll see you is for Superbowl.	I guess the next tine I'll see you is for Superbowl.	960328	1471960093570	1471960093666		69
1988	20117	I guess the next time I'll see you is for Superbowl.	I guess the next tine I'll see you is for Superbowl.	960329	1471960093674	1471960093818		32
1988	20117	I guess the next time I'll see you is for Superbowl.	I guess the next tine I'll see you is for Superbowl.	960331	1471960093882	1471960093978		89
1988	20117	I guess the next time I'll see you is for Superbowl.	I guess the next tine I'll see you is for Superbowl.	960333	1471960093994	1471960094163		79
1988	20117	I guess the next time I'll see you is for Superbowl.	I guess the next tine I'll see you is for Superbowl.	960384	1471960094074	1471960094218		85
1988	20117	I guess the next time I'll see you is for Superbowl.	I guess the next tine I'll see you is for Superbowl.	960385	1471960094146	1471960094282		32
1988	20117	I guess the next time I'll see you is for Superbowl.	I guess the next tine I'll see you is for Superbowl.	960388	1471960094386	1471960094514		73
1988	20117	I guess the next time I'll see you is for Superbowl.	I guess the next tine I'll see you is for Superbowl.	960389	1471960094506	1471960094610		83
1988	20117	I guess the next time I'll see you is for Superbowl.	I guess the next tine I'll see you is for Superbowl.	960392	1471960094602	1471960094730		32
1988	20117	I guess the next time I'll see you is for Superbowl.	I guess the next tine I'll see you is for Superbowl.	960393	1471960094994	1471960095058		70
1988	20117	I guess the next time I'll see you is for Superbowl.	I guess the next tine I'll see you is for Superbowl.	960396	1471960095066	1471960095226		79
1988	20117	I guess the next time I'll see you is for Superbowl.	I guess the next tine I'll see you is for Superbowl.	960453	1471960095498	1471960095562		82
1988	20117	I guess the next time I'll see you is for Superbowl.	I guess the next tine I'll see you is for Superbowl.	960456	1471960095706	1471960095834		32
1988	20117	I guess the next time I'll see you is for Superbowl.	I guess the next tine I'll see you is for Superbowl.	960461	1471960096018	1471960096242	SHIFT	16
1988	20117	I guess the next time I'll see you is for Superbowl.	I guess the next tine I'll see you is for Superbowl.	960466	1471960096138	1471960096258		83
1988	20117	I guess the next time I'll see you is for Superbowl.	I guess the next tine I'll see you is for Superbowl.	960472	1471960096346	1471960096434		85
1988	20117	I guess the next time I'll see you is for Superbowl.	I guess the next tine I'll see you is for Superbowl.	960475	1471960096490	1471960096658		80
1988	20117	I guess the next time I'll see you is for Superbowl.	I guess the next tine I'll see you is for Superbowl.	960517	1471960096610	1471960096794		69
1988	20117	I guess the next time I'll see you is for Superbowl.	I guess the next tine I'll see you is for Superbowl.	960520	1471960096730	1471960096842		82
1988	20117	I guess the next time I'll see you is for Superbowl.	I guess the next tine I'll see you is for Superbowl.	960524	1471960097250	1471960097354		66
1988	20117	I guess the next time I'll see you is for Superbowl.	I guess the next tine I'll see you is for Superbowl.	960527	1471960097434	1471960097570		79
1988	20117	I guess the next time I'll see you is for Superbowl.	I guess the next tine I'll see you is for Superbowl.	960532	1471960097682	1471960097762		87
1988	20117	I guess the next time I'll see you is for Superbowl.	I guess the next tine I'll see you is for Superbowl.	960536	1471960097914	1471960098042		76
1988	20117	I guess the next time I'll see you is for Superbowl.	I guess the next tine I'll see you is for Superbowl.	960547	1471960098250	1471960098346		190
1988	20133	He is listed as probable for Monday's game against Tennessee.	He is listed as probable for Monday's game against Tennessee.	960713	1471960100204	1471960100362	SHIFT	16
1988	20133	He is listed as probable for Monday's game against Tennessee.	He is listed as probable for Monday's game against Tennessee.	960715	1471960100290	1471960100402		72
1988	20133	He is listed as probable for Monday's game against Tennessee.	He is listed as probable for Monday's game against Tennessee.	960717	1471960100458	1471960100578		69
1988	20133	He is listed as probable for Monday's game against Tennessee.	He is listed as probable for Monday's game against Tennessee.	960719	1471960100554	1471960100642		32
1988	20133	He is listed as probable for Monday's game against Tennessee.	He is listed as probable for Monday's game against Tennessee.	960721	1471960100698	1471960100834		73
1988	20133	He is listed as probable for Monday's game against Tennessee.	He is listed as probable for Monday's game against Tennessee.	960788	1471960100786	1471960100899		83
1988	20133	He is listed as probable for Monday's game against Tennessee.	He is listed as probable for Monday's game against Tennessee.	960791	1471960100890	1471960100986		32
1988	20133	He is listed as probable for Monday's game against Tennessee.	He is listed as probable for Monday's game against Tennessee.	960794	1471960101090	1471960101202		76
1988	20133	He is listed as probable for Monday's game against Tennessee.	He is listed as probable for Monday's game against Tennessee.	960799	1471960101298	1471960101370		79
1988	20133	He is listed as probable for Monday's game against Tennessee.	He is listed as probable for Monday's game against Tennessee.	960803	1471960101914	1471960102010		8
1988	20133	He is listed as probable for Monday's game against Tennessee.	He is listed as probable for Monday's game against Tennessee.	960806	1471960102098	1471960102210		73
1988	20133	He is listed as probable for Monday's game against Tennessee.	He is listed as probable for Monday's game against Tennessee.	960853	1471960102202	1471960102314		83
1988	20133	He is listed as probable for Monday's game against Tennessee.	He is listed as probable for Monday's game against Tennessee.	960855	1471960102410	1471960102514		69
1988	20133	He is listed as probable for Monday's game against Tennessee.	He is listed as probable for Monday's game against Tennessee.	960856	1471960102954	1471960103066		8
1988	20133	He is listed as probable for Monday's game against Tennessee.	He is listed as probable for Monday's game against Tennessee.	960857	1471960103058	1471960103154		84
1988	20133	He is listed as probable for Monday's game against Tennessee.	He is listed as probable for Monday's game against Tennessee.	960858	1471960103251	1471960103346		69
1988	20133	He is listed as probable for Monday's game against Tennessee.	He is listed as probable for Monday's game against Tennessee.	960859	1471960103442	1471960103546		68
1988	20133	He is listed as probable for Monday's game against Tennessee.	He is listed as probable for Monday's game against Tennessee.	960889	1471960103562	1471960103666		32
1988	20133	He is listed as probable for Monday's game against Tennessee.	He is listed as probable for Monday's game against Tennessee.	960892	1471960103722	1471960103915		65
1988	20133	He is listed as probable for Monday's game against Tennessee.	He is listed as probable for Monday's game against Tennessee.	960897	1471960103810	1471960103938		83
1988	20133	He is listed as probable for Monday's game against Tennessee.	He is listed as probable for Monday's game against Tennessee.	960900	1471960103962	1471960104074		32
1988	20133	He is listed as probable for Monday's game against Tennessee.	He is listed as probable for Monday's game against Tennessee.	960903	1471960104130	1471960104258		65
1988	20133	He is listed as probable for Monday's game against Tennessee.	He is listed as probable for Monday's game against Tennessee.	961030	1471960104202	1471960104314		32
1988	20133	He is listed as probable for Monday's game against Tennessee.	He is listed as probable for Monday's game against Tennessee.	961034	1471960104642	1471960104770		80
1988	20133	He is listed as probable for Monday's game against Tennessee.	He is listed as probable for Monday's game against Tennessee.	961038	1471960106178	1471960106258		8
1988	20133	He is listed as probable for Monday's game against Tennessee.	He is listed as probable for Monday's game against Tennessee.	961042	1471960106314	1471960106394		8
1988	20133	He is listed as probable for Monday's game against Tennessee.	He is listed as probable for Monday's game against Tennessee.	961045	1471960106442	1471960106562		8
1988	20133	He is listed as probable for Monday's game against Tennessee.	He is listed as probable for Monday's game against Tennessee.	961046	1471960107098	1471960107202		80
1988	20133	He is listed as probable for Monday's game against Tennessee.	He is listed as probable for Monday's game against Tennessee.	961090	1471960107322	1471960107442		82
1988	20133	He is listed as probable for Monday's game against Tennessee.	He is listed as probable for Monday's game against Tennessee.	961093	1471960107434	1471960107578		79
1988	20133	He is listed as probable for Monday's game against Tennessee.	He is listed as probable for Monday's game against Tennessee.	961097	1471960107690	1471960107794		66
1988	20133	He is listed as probable for Monday's game against Tennessee.	He is listed as probable for Monday's game against Tennessee.	961100	1471960107922	1471960108034		65
1988	20133	He is listed as probable for Monday's game against Tennessee.	He is listed as probable for Monday's game against Tennessee.	961104	1471960108146	1471960108274		66
1988	20133	He is listed as probable for Monday's game against Tennessee.	He is listed as probable for Monday's game against Tennessee.	961136	1471960108290	1471960108418		76
1988	20133	He is listed as probable for Monday's game against Tennessee.	He is listed as probable for Monday's game against Tennessee.	961139	1471960108474	1471960108586		69
1988	20133	He is listed as probable for Monday's game against Tennessee.	He is listed as probable for Monday's game against Tennessee.	961142	1471960108618	1471960108778		32
1988	20133	He is listed as probable for Monday's game against Tennessee.	He is listed as probable for Monday's game against Tennessee.	961145	1471960108946	1471960109026		70
1988	20133	He is listed as probable for Monday's game against Tennessee.	He is listed as probable for Monday's game against Tennessee.	961212	1471960109010	1471960109146		79
1988	20133	He is listed as probable for Monday's game against Tennessee.	He is listed as probable for Monday's game against Tennessee.	961216	1471960109138	1471960109251		82
1988	20133	He is listed as probable for Monday's game against Tennessee.	He is listed as probable for Monday's game against Tennessee.	961223	1471960109234	1471960109338		32
1988	20133	He is listed as probable for Monday's game against Tennessee.	He is listed as probable for Monday's game against Tennessee.	961227	1471960109418	1471960109578	SHIFT	16
1988	20133	He is listed as probable for Monday's game against Tennessee.	He is listed as probable for Monday's game against Tennessee.	961230	1471960109474	1471960109602		77
1988	20133	He is listed as probable for Monday's game against Tennessee.	He is listed as probable for Monday's game against Tennessee.	961234	1471960109666	1471960109794		79
1988	20133	He is listed as probable for Monday's game against Tennessee.	He is listed as probable for Monday's game against Tennessee.	961238	1471960109858	1471960109978		78
1988	20133	He is listed as probable for Monday's game against Tennessee.	He is listed as probable for Monday's game against Tennessee.	961285	1471960110122	1471960110234		68
1988	20133	He is listed as probable for Monday's game against Tennessee.	He is listed as probable for Monday's game against Tennessee.	961287	1471960110674	1471960110863		65
1988	20133	He is listed as probable for Monday's game against Tennessee.	He is listed as probable for Monday's game against Tennessee.	961290	1471960110794	1471960110930		89
1988	20133	He is listed as probable for Monday's game against Tennessee.	He is listed as probable for Monday's game against Tennessee.	961294	1471960111066	1471960111234		222
1988	20133	He is listed as probable for Monday's game against Tennessee.	He is listed as probable for Monday's game against Tennessee.	961329	1471960111218	1471960111314		83
1988	20133	He is listed as probable for Monday's game against Tennessee.	He is listed as probable for Monday's game against Tennessee.	961336	1471960111298	1471960111442		32
1988	20133	He is listed as probable for Monday's game against Tennessee.	He is listed as probable for Monday's game against Tennessee.	961339	1471960111890	1471960111970		71
1988	20133	He is listed as probable for Monday's game against Tennessee.	He is listed as probable for Monday's game against Tennessee.	961345	1471960112122	1471960112234		65
1988	20133	He is listed as probable for Monday's game against Tennessee.	He is listed as probable for Monday's game against Tennessee.	961352	1471960112218	1471960112362		77
1988	20133	He is listed as probable for Monday's game against Tennessee.	He is listed as probable for Monday's game against Tennessee.	961405	1471960112354	1471960112458		69
1988	20133	He is listed as probable for Monday's game against Tennessee.	He is listed as probable for Monday's game against Tennessee.	961406	1471960112466	1471960112586		32
1988	20133	He is listed as probable for Monday's game against Tennessee.	He is listed as probable for Monday's game against Tennessee.	961407	1471960112986	1471960113098		65
1988	20133	He is listed as probable for Monday's game against Tennessee.	He is listed as probable for Monday's game against Tennessee.	961409	1471960113298	1471960113394		71
1988	20133	He is listed as probable for Monday's game against Tennessee.	He is listed as probable for Monday's game against Tennessee.	961411	1471960113514	1471960113626		65
1988	20133	He is listed as probable for Monday's game against Tennessee.	He is listed as probable for Monday's game against Tennessee.	961432	1471960113610	1471960113698		73
1988	20133	He is listed as probable for Monday's game against Tennessee.	He is listed as probable for Monday's game against Tennessee.	961436	1471960113786	1471960113922		78
1988	20133	He is listed as probable for Monday's game against Tennessee.	He is listed as probable for Monday's game against Tennessee.	961442	1471960113890	1471960114010		83
1988	20133	He is listed as probable for Monday's game against Tennessee.	He is listed as probable for Monday's game against Tennessee.	961448	1471960114114	1471960114218		84
1988	20133	He is listed as probable for Monday's game against Tennessee.	He is listed as probable for Monday's game against Tennessee.	961455	1471960114226	1471960114338		32
1988	20133	He is listed as probable for Monday's game against Tennessee.	He is listed as probable for Monday's game against Tennessee.	961525	1471960114378	1471960114618	SHIFT	16
1988	20133	He is listed as probable for Monday's game against Tennessee.	He is listed as probable for Monday's game against Tennessee.	961463	1471960114490	1471960114610		84
1988	20133	He is listed as probable for Monday's game against Tennessee.	He is listed as probable for Monday's game against Tennessee.	961526	1471960114722	1471960114850		69
1988	20133	He is listed as probable for Monday's game against Tennessee.	He is listed as probable for Monday's game against Tennessee.	961528	1471960115042	1471960115138		78
1988	20133	He is listed as probable for Monday's game against Tennessee.	He is listed as probable for Monday's game against Tennessee.	961530	1471960115210	1471960115330		78
1988	20133	He is listed as probable for Monday's game against Tennessee.	He is listed as probable for Monday's game against Tennessee.	961532	1471960115698	1471960115834		69
1988	20133	He is listed as probable for Monday's game against Tennessee.	He is listed as probable for Monday's game against Tennessee.	961535	1471960116058	1471960116130		83
1988	20133	He is listed as probable for Monday's game against Tennessee.	He is listed as probable for Monday's game against Tennessee.	961584	1471960116218	1471960116330		83
1988	20133	He is listed as probable for Monday's game against Tennessee.	He is listed as probable for Monday's game against Tennessee.	961588	1471960116818	1471960116930		69
1988	20133	He is listed as probable for Monday's game against Tennessee.	He is listed as probable for Monday's game against Tennessee.	961589	1471960117002	1471960117074		69
1988	20133	He is listed as probable for Monday's game against Tennessee.	He is listed as probable for Monday's game against Tennessee.	961592	1471960117226	1471960117306		190
1988	20156	The phones should be on now.	The phones should be on now.	961749	1471960119399	1471960119610	SHIFT	16
1988	20156	The phones should be on now.	The phones should be on now.	961754	1471960119690	1471960119826		84
1988	20156	The phones should be on now.	The phones should be on now.	961759	1471960120219	1471960120330		8
1988	20156	The phones should be on now.	The phones should be on now.	961764	1471960120298	1471960120506	SHIFT	16
1988	20156	The phones should be on now.	The phones should be on now.	961769	1471960120427	1471960120554		84
1988	20156	The phones should be on now.	The phones should be on now.	961774	1471960120570	1471960120682		72
1988	20156	The phones should be on now.	The phones should be on now.	961779	1471960120690	1471960120778		69
1988	20156	The phones should be on now.	The phones should be on now.	961829	1471960120810	1471960120938		32
1988	20156	The phones should be on now.	The phones should be on now.	961830	1471960121026	1471960121137		79
1988	20156	The phones should be on now.	The phones should be on now.	961831	1471960121618	1471960121738		8
1988	20156	The phones should be on now.	The phones should be on now.	961833	1471960121874	1471960121986		80
1988	20156	The phones should be on now.	The phones should be on now.	961835	1471960122138	1471960122266		72
1988	20156	The phones should be on now.	The phones should be on now.	961869	1471960122273	1471960122403		79
1988	20156	The phones should be on now.	The phones should be on now.	961871	1471960122442	1471960122586		78
1988	20156	The phones should be on now.	The phones should be on now.	961875	1471960122562	1471960122660		69
1988	20156	The phones should be on now.	The phones should be on now.	961876	1471960122770	1471960122898		83
1988	20156	The phones should be on now.	The phones should be on now.	961940	1471960122874	1471960123010		32
1988	20156	The phones should be on now.	The phones should be on now.	961944	1471960123242	1471960123378		83
1988	20156	The phones should be on now.	The phones should be on now.	961947	1471960123338	1471960123394		72
1988	20156	The phones should be on now.	The phones should be on now.	961949	1471960123403	1471960123562		79
1988	20156	The phones should be on now.	The phones should be on now.	961951	1471960123490	1471960123602		85
1988	20156	The phones should be on now.	The phones should be on now.	961953	1471960123666	1471960123826		76
1988	20156	The phones should be on now.	The phones should be on now.	961973	1471960123786	1471960123882		68
1988	20156	The phones should be on now.	The phones should be on now.	961978	1471960123883	1471960124010		32
1988	20156	The phones should be on now.	The phones should be on now.	961983	1471960124066	1471960124154		66
1988	20156	The phones should be on now.	The phones should be on now.	961989	1471960124290	1471960124418		69
1988	20156	The phones should be on now.	The phones should be on now.	961995	1471960124378	1471960124490		32
1988	20156	The phones should be on now.	The phones should be on now.	961999	1471960124538	1471960124626		79
1988	20156	The phones should be on now.	The phones should be on now.	962014	1471960124714	1471960124866		78
1988	20156	The phones should be on now.	The phones should be on now.	962019	1471960124826	1471960124946		32
1988	20156	The phones should be on now.	The phones should be on now.	962026	1471960125026	1471960125210		78
1988	20156	The phones should be on now.	The phones should be on now.	962031	1471960125114	1471960125281		79
1988	20156	The phones should be on now.	The phones should be on now.	962056	1471960125242	1471960125321		87
1988	20156	The phones should be on now.	The phones should be on now.	962060	1471960125418	1471960125538		190
1988	20165	Don't know how that happened.	Don't know how that happened.	962208	1471960127426	1471960128026	SHIFT	16
1988	20165	Don't know how that happened.	Don't know how that happened.	962214	1471960127946	1471960128090		68
1988	20165	Don't know how that happened.	Don't know how that happened.	962218	1471960128154	1471960128226		79
1988	20165	Don't know how that happened.	Don't know how that happened.	962221	1471960128362	1471960128490		78
1988	20165	Don't know how that happened.	Don't know how that happened.	962223	1471960128786	1471960128946		222
1988	20165	Don't know how that happened.	Don't know how that happened.	962241	1471960128914	1471960128994		84
1988	20165	Don't know how that happened.	Don't know how that happened.	962245	1471960129114	1471960129218		32
1988	20165	Don't know how that happened.	Don't know how that happened.	962249	1471960129290	1471960129394		75
1988	20165	Don't know how that happened.	Don't know how that happened.	962254	1471960129490	1471960129658		78
1988	20165	Don't know how that happened.	Don't know how that happened.	962320	1471960129554	1471960129730		79
1988	20165	Don't know how that happened.	Don't know how that happened.	962324	1471960129634	1471960129754		87
1988	20165	Don't know how that happened.	Don't know how that happened.	962327	1471960129794	1471960129938		32
1988	20165	Don't know how that happened.	Don't know how that happened.	962329	1471960130290	1471960130426		72
1988	20165	Don't know how that happened.	Don't know how that happened.	962334	1471960130370	1471960130562		79
1988	20165	Don't know how that happened.	Don't know how that happened.	962338	1471960130514	1471960130626		87
1988	20165	Don't know how that happened.	Don't know how that happened.	962342	1471960130714	1471960130834		32
1988	20165	Don't know how that happened.	Don't know how that happened.	962365	1471960130802	1471960130922		84
1988	20165	Don't know how that happened.	Don't know how that happened.	962373	1471960130923	1471960131018		72
1988	20165	Don't know how that happened.	Don't know how that happened.	962380	1471960130954	1471960131090		65
1988	20165	Don't know how that happened.	Don't know how that happened.	962387	1471960131026	1471960131154		84
1988	20165	Don't know how that happened.	Don't know how that happened.	962392	1471960131106	1471960131226		32
1988	20165	Don't know how that happened.	Don't know how that happened.	962397	1471960131306	1471960131434		72
1988	20165	Don't know how that happened.	Don't know how that happened.	962446	1471960131450	1471960131570		65
1988	20165	Don't know how that happened.	Don't know how that happened.	962449	1471960131586	1471960131818		80
1988	20165	Don't know how that happened.	Don't know how that happened.	962452	1471960132042	1471960132154		80
1988	20165	Don't know how that happened.	Don't know how that happened.	962455	1471960132522	1471960132642		69
1988	20165	Don't know how that happened.	Don't know how that happened.	962459	1471960132722	1471960132842		78
1988	20165	Don't know how that happened.	Don't know how that happened.	962491	1471960132874	1471960132970		69
1988	20165	Don't know how that happened.	Don't know how that happened.	962495	1471960133090	1471960133202		68
1988	20165	Don't know how that happened.	Don't know how that happened.	962499	1471960133290	1471960133403		190
1988	20174	If so Whitt is done.	If so Whitt is done.	962700	1471960135538	1471960135754	SHIFT	16
1988	20174	If so Whitt is done.	If so Whitt is done.	962702	1471960135658	1471960135786		73
1988	20174	If so Whitt is done.	If so Whitt is done.	962704	1471960136554	1471960136586		70
1988	20174	If so Whitt is done.	If so Whitt is done.	962705	1471960137242	1471960137362		32
1988	20174	If so Whitt is done.	If so Whitt is done.	962707	1471960137410	1471960137506		83
1988	20174	If so Whitt is done.	If so Whitt is done.	962711	1471960137507	1471960137687		79
1988	20174	If so Whitt is done.	If so Whitt is done.	962783	1471960137658	1471960137762		32
1988	20174	If so Whitt is done.	If so Whitt is done.	962786	1471960138034	1471960138258	SHIFT	16
1988	20174	If so Whitt is done.	If so Whitt is done.	962789	1471960138146	1471960138274		87
1988	20174	If so Whitt is done.	If so Whitt is done.	962791	1471960138338	1471960138458		72
1988	20174	If so Whitt is done.	If so Whitt is done.	962793	1471960138546	1471960138682		73
1988	20174	If so Whitt is done.	If so Whitt is done.	962795	1471960138778	1471960138858		84
1988	20174	If so Whitt is done.	If so Whitt is done.	962797	1471960138914	1471960138994		84
1988	20174	If so Whitt is done.	If so Whitt is done.	962830	1471960139107	1471960139234		32
1988	20174	If so Whitt is done.	If so Whitt is done.	962834	1471960139370	1471960139498		73
1988	20174	If so Whitt is done.	If so Whitt is done.	962840	1471960139458	1471960139562		83
1988	20174	If so Whitt is done.	If so Whitt is done.	962844	1471960139602	1471960139730		32
1988	20174	If so Whitt is done.	If so Whitt is done.	962850	1471960139882	1471960139937		68
1988	20174	If so Whitt is done.	If so Whitt is done.	962918	1471960139906	1471960140018		79
1988	20174	If so Whitt is done.	If so Whitt is done.	962922	1471960140330	1471960140474		78
1988	20174	If so Whitt is done.	If so Whitt is done.	962926	1471960140426	1471960140530		69
1988	20174	If so Whitt is done.	If so Whitt is done.	962932	1471960140682	1471960140809		190
1988	20185	Can you supplement the answer to the visa question?	Can you supplement the answer to the visa question?	963043	1471960142658	1471960142874	SHIFT	16
1988	20185	Can you supplement the answer to the visa question?	Can you supplement the answer to the visa question?	963046	1471960142787	1471960142914		67
1988	20185	Can you supplement the answer to the visa question?	Can you supplement the answer to the visa question?	963050	1471960142994	1471960143107		65
1988	20185	Can you supplement the answer to the visa question?	Can you supplement the answer to the visa question?	963054	1471960143090	1471960143226		78
1988	20185	Can you supplement the answer to the visa question?	Can you supplement the answer to the visa question?	963057	1471960143187	1471960143322		32
1988	20185	Can you supplement the answer to the visa question?	Can you supplement the answer to the visa question?	963059	1471960143370	1471960143468		89
1988	20185	Can you supplement the answer to the visa question?	Can you supplement the answer to the visa question?	963133	1471960143450	1471960143602		79
1988	20185	Can you supplement the answer to the visa question?	Can you supplement the answer to the visa question?	963137	1471960143538	1471960143682		85
1988	20185	Can you supplement the answer to the visa question?	Can you supplement the answer to the visa question?	963143	1471960143610	1471960143738		32
1988	20185	Can you supplement the answer to the visa question?	Can you supplement the answer to the visa question?	963148	1471960144074	1471960144186		83
1988	20185	Can you supplement the answer to the visa question?	Can you supplement the answer to the visa question?	963152	1471960144386	1471960144498		85
1988	20185	Can you supplement the answer to the visa question?	Can you supplement the answer to the visa question?	963156	1471960144586	1471960144650		80
1988	20185	Can you supplement the answer to the visa question?	Can you supplement the answer to the visa question?	963218	1471960144714	1471960144810		80
1988	20185	Can you supplement the answer to the visa question?	Can you supplement the answer to the visa question?	963220	1471960144906	1471960145082		76
1988	20185	Can you supplement the answer to the visa question?	Can you supplement the answer to the visa question?	963225	1471960145090	1471960145194		69
1988	20185	Can you supplement the answer to the visa question?	Can you supplement the answer to the visa question?	963227	1471960145258	1471960145394		77
1988	20185	Can you supplement the answer to the visa question?	Can you supplement the answer to the visa question?	963231	1471960145786	1471960145923		69
1988	20185	Can you supplement the answer to the visa question?	Can you supplement the answer to the visa question?	963255	1471960145914	1471960146026		78
1988	20185	Can you supplement the answer to the visa question?	Can you supplement the answer to the visa question?	963257	1471960146058	1471960146146		84
1988	20185	Can you supplement the answer to the visa question?	Can you supplement the answer to the visa question?	963264	1471960146202	1471960146330		32
1988	20185	Can you supplement the answer to the visa question?	Can you supplement the answer to the visa question?	963270	1471960146282	1471960146394		84
1988	20185	Can you supplement the answer to the visa question?	Can you supplement the answer to the visa question?	963276	1471960146378	1471960146482		72
1988	20185	Can you supplement the answer to the visa question?	Can you supplement the answer to the visa question?	963333	1471960146466	1471960146586		69
1988	20185	Can you supplement the answer to the visa question?	Can you supplement the answer to the visa question?	963337	1471960146562	1471960146674		32
1988	20185	Can you supplement the answer to the visa question?	Can you supplement the answer to the visa question?	963342	1471960146769	1471960146898		65
1988	20185	Can you supplement the answer to the visa question?	Can you supplement the answer to the visa question?	963347	1471960146890	1471960147026		78
1988	20185	Can you supplement the answer to the visa question?	Can you supplement the answer to the visa question?	963354	1471960147146	1471960147250		83
1988	20185	Can you supplement the answer to the visa question?	Can you supplement the answer to the visa question?	963364	1471960147402	1471960147554		87
1988	20185	Can you supplement the answer to the visa question?	Can you supplement the answer to the visa question?	963407	1471960147482	1471960147650		69
1988	20185	Can you supplement the answer to the visa question?	Can you supplement the answer to the visa question?	963411	1471960147770	1471960147898		82
1988	20185	Can you supplement the answer to the visa question?	Can you supplement the answer to the visa question?	963420	1471960148010	1471960148122		32
1988	20185	Can you supplement the answer to the visa question?	Can you supplement the answer to the visa question?	963427	1471960148138	1471960148284		84
1988	20185	Can you supplement the answer to the visa question?	Can you supplement the answer to the visa question?	963433	1471960148234	1471960148370		79
1988	20185	Can you supplement the answer to the visa question?	Can you supplement the answer to the visa question?	963530	1471960148330	1471960148458		32
1988	20185	Can you supplement the answer to the visa question?	Can you supplement the answer to the visa question?	963533	1471960148522	1471960148634		84
1988	20185	Can you supplement the answer to the visa question?	Can you supplement the answer to the visa question?	963537	1471960148578	1471960148698		72
1988	20185	Can you supplement the answer to the visa question?	Can you supplement the answer to the visa question?	963542	1471960148730	1471960148834		69
1988	20185	Can you supplement the answer to the visa question?	Can you supplement the answer to the visa question?	963549	1471960148810	1471960148962		32
1988	20185	Can you supplement the answer to the visa question?	Can you supplement the answer to the visa question?	963555	1471960149506	1471960149602		66
1988	20185	Can you supplement the answer to the visa question?	Can you supplement the answer to the visa question?	963663	1471960150258	1471960150370		8
1988	20185	Can you supplement the answer to the visa question?	Can you supplement the answer to the visa question?	963666	1471960150554	1471960150650		86
1988	20185	Can you supplement the answer to the visa question?	Can you supplement the answer to the visa question?	963668	1471960150651	1471960150770		73
1988	20185	Can you supplement the answer to the visa question?	Can you supplement the answer to the visa question?	963670	1471960150914	1471960151010		83
1988	20185	Can you supplement the answer to the visa question?	Can you supplement the answer to the visa question?	963671	1471960151106	1471960151218		65
1988	20185	Can you supplement the answer to the visa question?	Can you supplement the answer to the visa question?	963747	1471960151194	1471960151314		32
1988	20185	Can you supplement the answer to the visa question?	Can you supplement the answer to the visa question?	963752	1471960151602	1471960151682		81
1988	20185	Can you supplement the answer to the visa question?	Can you supplement the answer to the visa question?	963757	1471960152146	1471960152282		85
1988	20185	Can you supplement the answer to the visa question?	Can you supplement the answer to the visa question?	963761	1471960152250	1471960152346		69
1988	20185	Can you supplement the answer to the visa question?	Can you supplement the answer to the visa question?	963765	1471960152426	1471960152522		83
1988	20185	Can you supplement the answer to the visa question?	Can you supplement the answer to the visa question?	963774	1471960152594	1471960152730		84
1988	20185	Can you supplement the answer to the visa question?	Can you supplement the answer to the visa question?	963924	1471960152722	1471960152818		73
1988	20185	Can you supplement the answer to the visa question?	Can you supplement the answer to the visa question?	963927	1471960152786	1471960152882		79
1988	20185	Can you supplement the answer to the visa question?	Can you supplement the answer to the visa question?	963931	1471960153097	1471960153233		78
1988	20185	Can you supplement the answer to the visa question?	Can you supplement the answer to the visa question?	963935	1471960153313	1471960153521	SHIFT	16
1988	20185	Can you supplement the answer to the visa question?	Can you supplement the answer to the visa question?	963939	1471960153905	1471960154218	SHIFT	16
1988	20185	Can you supplement the answer to the visa question?	Can you supplement the answer to the visa question?	963946	1471960154618	1471960155330	SHIFT	16
1988	20185	Can you supplement the answer to the visa question?	Can you supplement the answer to the visa question?	963943	1471960155138	1471960155274		191
1988	20202	US vessels will form two separate training units.	US vessels will form two separate training units.	964126	1471960157522	1471960158402	SHIFT	16
1988	20202	US vessels will form two separate training units.	US vessels will form two separate training units.	964120	1471960157802	1471960157890		85
1988	20202	US vessels will form two separate training units.	US vessels will form two separate training units.	964122	1471960158210	1471960158305		83
1988	20202	US vessels will form two separate training units.	US vessels will form two separate training units.	964130	1471960158410	1471960158530		32
1988	20202	US vessels will form two separate training units.	US vessels will form two separate training units.	964135	1471960158698	1471960158786		86
1988	20202	US vessels will form two separate training units.	US vessels will form two separate training units.	964140	1471960158906	1471960159026		69
1988	20202	US vessels will form two separate training units.	US vessels will form two separate training units.	964162	1471960159274	1471960159345		83
1988	20202	US vessels will form two separate training units.	US vessels will form two separate training units.	964163	1471960159426	1471960159546		83
1988	20202	US vessels will form two separate training units.	US vessels will form two separate training units.	964164	1471960159610	1471960159706		69
1988	20202	US vessels will form two separate training units.	US vessels will form two separate training units.	964165	1471960159898	1471960160034		76
1988	20202	US vessels will form two separate training units.	US vessels will form two separate training units.	964167	1471960160050	1471960160130		83
1988	20202	US vessels will form two separate training units.	US vessels will form two separate training units.	964242	1471960160170	1471960160306		32
1988	20202	US vessels will form two separate training units.	US vessels will form two separate training units.	964243	1471960160458	1471960160562		87
1988	20202	US vessels will form two separate training units.	US vessels will form two separate training units.	964244	1471960160538	1471960160642		73
1988	20202	US vessels will form two separate training units.	US vessels will form two separate training units.	964245	1471960160754	1471960160810		76
1988	20202	US vessels will form two separate training units.	US vessels will form two separate training units.	964248	1471960160874	1471960161034		76
1988	20202	US vessels will form two separate training units.	US vessels will form two separate training units.	964319	1471960160986	1471960161130		32
1988	20202	US vessels will form two separate training units.	US vessels will form two separate training units.	964326	1471960161162	1471960161258		70
1988	20202	US vessels will form two separate training units.	US vessels will form two separate training units.	964331	1471960161274	1471960161410		79
1988	20202	US vessels will form two separate training units.	US vessels will form two separate training units.	964338	1471960161842	1471960161906		82
1988	20202	US vessels will form two separate training units.	US vessels will form two separate training units.	964343	1471960162218	1471960162370		77
1988	20202	US vessels will form two separate training units.	US vessels will form two separate training units.	964386	1471960162354	1471960162498		32
1988	20202	US vessels will form two separate training units.	US vessels will form two separate training units.	964388	1471960162818	1471960162922		87
1988	20202	US vessels will form two separate training units.	US vessels will form two separate training units.	964391	1471960163210	1471960163338		8
1988	20202	US vessels will form two separate training units.	US vessels will form two separate training units.	964394	1471960163322	1471960163378		84
1988	20202	US vessels will form two separate training units.	US vessels will form two separate training units.	964397	1471960163530	1471960163650		87
1988	20202	US vessels will form two separate training units.	US vessels will form two separate training units.	964507	1471960163618	1471960163762		79
1988	20202	US vessels will form two separate training units.	US vessels will form two separate training units.	964511	1471960163722	1471960163858		32
1988	20202	US vessels will form two separate training units.	US vessels will form two separate training units.	964515	1471960164034	1471960164146		83
1988	20202	US vessels will form two separate training units.	US vessels will form two separate training units.	964517	1471960164370	1471960164474		69
1988	20202	US vessels will form two separate training units.	US vessels will form two separate training units.	964520	1471960164786	1471960164898		80
1988	20202	US vessels will form two separate training units.	US vessels will form two separate training units.	964524	1471960165162	1471960165274		65
1988	20202	US vessels will form two separate training units.	US vessels will form two separate training units.	964594	1471960165370	1471960165482		82
1988	20202	US vessels will form two separate training units.	US vessels will form two separate training units.	964597	1471960165578	1471960165714		65
1988	20202	US vessels will form two separate training units.	US vessels will form two separate training units.	964601	1471960166106	1471960166154		84
1988	20202	US vessels will form two separate training units.	US vessels will form two separate training units.	964606	1471960166530	1471960166666		69
1988	20202	US vessels will form two separate training units.	US vessels will form two separate training units.	964697	1471960166642	1471960166778		32
1988	20202	US vessels will form two separate training units.	US vessels will form two separate training units.	964698	1471960166890	1471960166994		84
1988	20202	US vessels will form two separate training units.	US vessels will form two separate training units.	964703	1471960167090	1471960167194		82
1988	20202	US vessels will form two separate training units.	US vessels will form two separate training units.	964706	1471960167322	1471960167458		65
1988	20202	US vessels will form two separate training units.	US vessels will form two separate training units.	964709	1471960167482	1471960167586		73
1988	20202	US vessels will form two separate training units.	US vessels will form two separate training units.	964711	1471960167850	1471960167962		78
1988	20202	US vessels will form two separate training units.	US vessels will form two separate training units.	964768	1471960168058	1471960168154		73
1988	20202	US vessels will form two separate training units.	US vessels will form two separate training units.	964775	1471960168210	1471960168330		78
1988	20202	US vessels will form two separate training units.	US vessels will form two separate training units.	964781	1471960168370	1471960168466		71
1988	20202	US vessels will form two separate training units.	US vessels will form two separate training units.	964787	1471960168498	1471960168626		32
1988	20202	US vessels will form two separate training units.	US vessels will form two separate training units.	964789	1471960169058	1471960169146		85
1988	20202	US vessels will form two separate training units.	US vessels will form two separate training units.	964813	1471960169242	1471960169378		78
1988	20202	US vessels will form two separate training units.	US vessels will form two separate training units.	964818	1471960169434	1471960169610		73
1988	20202	US vessels will form two separate training units.	US vessels will form two separate training units.	964823	1471960169562	1471960169642		84
1988	20202	US vessels will form two separate training units.	US vessels will form two separate training units.	964829	1471960169754	1471960169914		83
1988	20202	US vessels will form two separate training units.	US vessels will form two separate training units.	964835	1471960169890	1471960169994		190
1988	20224	Still hustling to find dollars for the quarter end.	Still hustling to find dollars for the quarter end.	965013	1471960171794	1471960172106	SHIFT	16
1988	20224	Still hustling to find dollars for the quarter end.	Still hustling to find dollars for the quarter end.	965007	1471960171978	1471960172098		83
1988	20224	Still hustling to find dollars for the quarter end.	Still hustling to find dollars for the quarter end.	965019	1471960172242	1471960172370		84
1988	20224	Still hustling to find dollars for the quarter end.	Still hustling to find dollars for the quarter end.	965025	1471960172410	1471960172514		73
1988	20224	Still hustling to find dollars for the quarter end.	Still hustling to find dollars for the quarter end.	965033	1471960172642	1471960172706		76
1988	20224	Still hustling to find dollars for the quarter end.	Still hustling to find dollars for the quarter end.	965037	1471960172770	1471960172930		76
1988	20224	Still hustling to find dollars for the quarter end.	Still hustling to find dollars for the quarter end.	965096	1471960172874	1471960173034		32
1988	20224	Still hustling to find dollars for the quarter end.	Still hustling to find dollars for the quarter end.	965097	1471960173322	1471960173546		72
1988	20224	Still hustling to find dollars for the quarter end.	Still hustling to find dollars for the quarter end.	965098	1471960173482	1471960173634		85
1988	20224	Still hustling to find dollars for the quarter end.	Still hustling to find dollars for the quarter end.	965099	1471960173802	1471960173890		83
1988	20224	Still hustling to find dollars for the quarter end.	Still hustling to find dollars for the quarter end.	965101	1471960174138	1471960174274		84
1988	20224	Still hustling to find dollars for the quarter end.	Still hustling to find dollars for the quarter end.	965103	1471960174314	1471960174418		76
1988	20224	Still hustling to find dollars for the quarter end.	Still hustling to find dollars for the quarter end.	965133	1471960174498	1471960174610		73
1988	20224	Still hustling to find dollars for the quarter end.	Still hustling to find dollars for the quarter end.	965139	1471960174674	1471960174819		78
1988	20224	Still hustling to find dollars for the quarter end.	Still hustling to find dollars for the quarter end.	965143	1471960174810	1471960174898		71
1988	20224	Still hustling to find dollars for the quarter end.	Still hustling to find dollars for the quarter end.	965148	1471960174898	1471960175019		32
1988	20224	Still hustling to find dollars for the quarter end.	Still hustling to find dollars for the quarter end.	965196	1471960175010	1471960175137		84
1988	20224	Still hustling to find dollars for the quarter end.	Still hustling to find dollars for the quarter end.	965198	1471960175074	1471960175218		79
1988	20224	Still hustling to find dollars for the quarter end.	Still hustling to find dollars for the quarter end.	965201	1471960175170	1471960175282		32
1988	20224	Still hustling to find dollars for the quarter end.	Still hustling to find dollars for the quarter end.	965206	1471960175426	1471960175530		70
1988	20224	Still hustling to find dollars for the quarter end.	Still hustling to find dollars for the quarter end.	965208	1471960175522	1471960175626		73
1988	20224	Still hustling to find dollars for the quarter end.	Still hustling to find dollars for the quarter end.	965212	1471960175722	1471960175858		78
1988	20224	Still hustling to find dollars for the quarter end.	Still hustling to find dollars for the quarter end.	965261	1471960175890	1471960175994		68
1988	20224	Still hustling to find dollars for the quarter end.	Still hustling to find dollars for the quarter end.	965265	1471960175970	1471960176090		32
1988	20224	Still hustling to find dollars for the quarter end.	Still hustling to find dollars for the quarter end.	965268	1471960176314	1471960176410		68
1988	20224	Still hustling to find dollars for the quarter end.	Still hustling to find dollars for the quarter end.	965271	1471960176394	1471960176506		79
1988	20224	Still hustling to find dollars for the quarter end.	Still hustling to find dollars for the quarter end.	965274	1471960176682	1471960176746		76
1988	20224	Still hustling to find dollars for the quarter end.	Still hustling to find dollars for the quarter end.	965335	1471960176810	1471960176954		76
1988	20224	Still hustling to find dollars for the quarter end.	Still hustling to find dollars for the quarter end.	965340	1471960176962	1471960177074		65
1988	20224	Still hustling to find dollars for the quarter end.	Still hustling to find dollars for the quarter end.	965345	1471960177146	1471960177266		82
1988	20224	Still hustling to find dollars for the quarter end.	Still hustling to find dollars for the quarter end.	965347	1471960177386	1471960177498		83
1988	20224	Still hustling to find dollars for the quarter end.	Still hustling to find dollars for the quarter end.	965350	1471960177506	1471960177634		32
1988	20224	Still hustling to find dollars for the quarter end.	Still hustling to find dollars for the quarter end.	965388	1471960177714	1471960177785		70
1988	20224	Still hustling to find dollars for the quarter end.	Still hustling to find dollars for the quarter end.	965393	1471960177762	1471960177899		79
1988	20224	Still hustling to find dollars for the quarter end.	Still hustling to find dollars for the quarter end.	965400	1471960177882	1471960177994		82
1988	20224	Still hustling to find dollars for the quarter end.	Still hustling to find dollars for the quarter end.	965403	1471960177962	1471960178090		32
1988	20224	Still hustling to find dollars for the quarter end.	Still hustling to find dollars for the quarter end.	965407	1471960178106	1471960178226		84
1988	20224	Still hustling to find dollars for the quarter end.	Still hustling to find dollars for the quarter end.	965553	1471960178186	1471960178290		72
1988	20224	Still hustling to find dollars for the quarter end.	Still hustling to find dollars for the quarter end.	965558	1471960178298	1471960178426		69
1988	20224	Still hustling to find dollars for the quarter end.	Still hustling to find dollars for the quarter end.	965563	1471960178362	1471960178490		32
1988	20224	Still hustling to find dollars for the quarter end.	Still hustling to find dollars for the quarter end.	965569	1471960179138	1471960179274		81
1988	20224	Still hustling to find dollars for the quarter end.	Still hustling to find dollars for the quarter end.	965577	1471960179466	1471960179602		85
1988	20224	Still hustling to find dollars for the quarter end.	Still hustling to find dollars for the quarter end.	965582	1471960180058	1471960180194		65
1988	20224	Still hustling to find dollars for the quarter end.	Still hustling to find dollars for the quarter end.	965641	1471960180298	1471960180386		82
1988	20224	Still hustling to find dollars for the quarter end.	Still hustling to find dollars for the quarter end.	965647	1471960180482	1471960180586		84
1988	20224	Still hustling to find dollars for the quarter end.	Still hustling to find dollars for the quarter end.	965652	1471960180698	1471960180866		69
1988	20224	Still hustling to find dollars for the quarter end.	Still hustling to find dollars for the quarter end.	965658	1471960180786	1471960180906		82
1988	20224	Still hustling to find dollars for the quarter end.	Still hustling to find dollars for the quarter end.	965665	1471960180914	1471960181050		32
1988	20224	Still hustling to find dollars for the quarter end.	Still hustling to find dollars for the quarter end.	965739	1471960181090	1471960181210		69
1988	20224	Still hustling to find dollars for the quarter end.	Still hustling to find dollars for the quarter end.	965742	1471960181194	1471960181322		78
1988	20224	Still hustling to find dollars for the quarter end.	Still hustling to find dollars for the quarter end.	965746	1471960181298	1471960181402		68
1988	20224	Still hustling to find dollars for the quarter end.	Still hustling to find dollars for the quarter end.	965753	1471960181778	1471960181890		191
1988	20224	Still hustling to find dollars for the quarter end.	Still hustling to find dollars for the quarter end.	965758	1471960182362	1471960182450		8
1988	20224	Still hustling to find dollars for the quarter end.	Still hustling to find dollars for the quarter end.	965792	1471960182882	1471960182970		190
1988	20244	I am walking in now.	I am walking in now.	965956	1471960184578	1471960184786	SHIFT	16
1988	20244	I am walking in now.	I am walking in now.	965958	1471960184674	1471960184794		73
1988	20244	I am walking in now.	I am walking in now.	965962	1471960184810	1471960184954		32
1988	20244	I am walking in now.	I am walking in now.	965966	1471960185026	1471960185146		65
1988	20244	I am walking in now.	I am walking in now.	965973	1471960185106	1471960185218		77
1988	20244	I am walking in now.	I am walking in now.	965978	1471960185394	1471960185530		32
1988	20244	I am walking in now.	I am walking in now.	966043	1471960185594	1471960185706		87
1988	20244	I am walking in now.	I am walking in now.	966050	1471960185778	1471960185914		76
1988	20244	I am walking in now.	I am walking in now.	966055	1471960185969	1471960186130		65
1988	20244	I am walking in now.	I am walking in now.	966060	1471960186106	1471960186202		75
1988	20244	I am walking in now.	I am walking in now.	966066	1471960186482	1471960186546		8
1988	20244	I am walking in now.	I am walking in now.	966121	1471960186602	1471960186666		8
1988	20244	I am walking in now.	I am walking in now.	966125	1471960186722	1471960186834		8
1988	20244	I am walking in now.	I am walking in now.	966129	1471960186906	1471960187050		65
1988	20244	I am walking in now.	I am walking in now.	966134	1471960187026	1471960187137		76
1988	20244	I am walking in now.	I am walking in now.	966139	1471960187298	1471960187394		75
1988	20244	I am walking in now.	I am walking in now.	966190	1471960187634	1471960187730		73
1988	20244	I am walking in now.	I am walking in now.	966192	1471960187817	1471960187946		78
1988	20244	I am walking in now.	I am walking in now.	966195	1471960187922	1471960187985		71
1988	20244	I am walking in now.	I am walking in now.	966199	1471960188026	1471960188122		32
1988	20244	I am walking in now.	I am walking in now.	966202	1471960188290	1471960188386		73
1988	20244	I am walking in now.	I am walking in now.	966225	1471960188506	1471960188650		78
1988	20244	I am walking in now.	I am walking in now.	966231	1471960188602	1471960188730		32
1988	20244	I am walking in now.	I am walking in now.	966236	1471960188778	1471960188922		78
1988	20244	I am walking in now.	I am walking in now.	966241	1471960188833	1471960189002		79
1988	20244	I am walking in now.	I am walking in now.	966263	1471960188938	1471960189026		87
1988	20244	I am walking in now.	I am walking in now.	966269	1471960189154	1471960189266		190
1988	20256	Our numbers are correct in the system now.	Our numbers are correct in the system now.	966411	1471960190970	1471960191162	SHIFT	16
1988	20256	Our numbers are correct in the system now.	Our numbers are correct in the system now.	966416	1471960191050	1471960191186		79
1988	20256	Our numbers are correct in the system now.	Our numbers are correct in the system now.	966417	1471960191274	1471960191418		85
1988	20256	Our numbers are correct in the system now.	Our numbers are correct in the system now.	966420	1471960191442	1471960191538		82
1988	20256	Our numbers are correct in the system now.	Our numbers are correct in the system now.	966425	1471960191546	1471960191650		32
1988	20256	Our numbers are correct in the system now.	Our numbers are correct in the system now.	966428	1471960191714	1471960191874		78
1988	20256	Our numbers are correct in the system now.	Our numbers are correct in the system now.	966514	1471960191818	1471960191946		85
1988	20256	Our numbers are correct in the system now.	Our numbers are correct in the system now.	966516	1471960192050	1471960192162		77
1988	20256	Our numbers are correct in the system now.	Our numbers are correct in the system now.	966523	1471960192506	1471960192594		66
1988	20256	Our numbers are correct in the system now.	Our numbers are correct in the system now.	966528	1471960192754	1471960192938		69
1988	20256	Our numbers are correct in the system now.	Our numbers are correct in the system now.	966535	1471960192858	1471960192970		82
1988	20256	Our numbers are correct in the system now.	Our numbers are correct in the system now.	966540	1471960193274	1471960193386		83
1988	20256	Our numbers are correct in the system now.	Our numbers are correct in the system now.	966591	1471960193482	1471960193610		32
1988	20256	Our numbers are correct in the system now.	Our numbers are correct in the system now.	966594	1471960193626	1471960193730		65
1988	20256	Our numbers are correct in the system now.	Our numbers are correct in the system now.	966597	1471960193826	1471960193930		82
1988	20256	Our numbers are correct in the system now.	Our numbers are correct in the system now.	966600	1471960193890	1471960194026		69
1988	20256	Our numbers are correct in the system now.	Our numbers are correct in the system now.	966606	1471960194266	1471960194410		32
1988	20256	Our numbers are correct in the system now.	Our numbers are correct in the system now.	966640	1471960194482	1471960194594		67
1988	20256	Our numbers are correct in the system now.	Our numbers are correct in the system now.	966642	1471960194626	1471960194754		79
1988	20256	Our numbers are correct in the system now.	Our numbers are correct in the system now.	966643	1471960194826	1471960194882		82
1988	20256	Our numbers are correct in the system now.	Our numbers are correct in the system now.	966644	1471960194954	1471960195074		82
1988	20256	Our numbers are correct in the system now.	Our numbers are correct in the system now.	966647	1471960195130	1471960195209		69
1988	20256	Our numbers are correct in the system now.	Our numbers are correct in the system now.	966694	1471960195322	1471960195434		67
1988	20256	Our numbers are correct in the system now.	Our numbers are correct in the system now.	966695	1471960195578	1471960195698		84
1988	20256	Our numbers are correct in the system now.	Our numbers are correct in the system now.	966696	1471960195690	1471960195809		32
1988	20256	Our numbers are correct in the system now.	Our numbers are correct in the system now.	966698	1471960195874	1471960195962		73
1988	20256	Our numbers are correct in the system now.	Our numbers are correct in the system now.	966701	1471960196050	1471960196194		78
1988	20256	Our numbers are correct in the system now.	Our numbers are correct in the system now.	966739	1471960196138	1471960196290		32
1988	20256	Our numbers are correct in the system now.	Our numbers are correct in the system now.	966744	1471960196258	1471960196370		84
1988	20256	Our numbers are correct in the system now.	Our numbers are correct in the system now.	966750	1471960196338	1471960196458		72
1988	20256	Our numbers are correct in the system now.	Our numbers are correct in the system now.	966757	1471960196474	1471960196578		69
1988	20256	Our numbers are correct in the system now.	Our numbers are correct in the system now.	966762	1471960196530	1471960196682		32
1988	20256	Our numbers are correct in the system now.	Our numbers are correct in the system now.	966766	1471960196786	1471960196882		83
1988	20256	Our numbers are correct in the system now.	Our numbers are correct in the system now.	966899	1471960197098	1471960197194		85
1988	20256	Our numbers are correct in the system now.	Our numbers are correct in the system now.	966901	1471960197698	1471960197786		8
1988	20256	Our numbers are correct in the system now.	Our numbers are correct in the system now.	966903	1471960198610	1471960198730		89
1988	20256	Our numbers are correct in the system now.	Our numbers are correct in the system now.	966905	1471960198874	1471960198946		83
1988	20256	Our numbers are correct in the system now.	Our numbers are correct in the system now.	966908	1471960199058	1471960199154		84
1988	20256	Our numbers are correct in the system now.	Our numbers are correct in the system now.	966945	1471960199306	1471960199442		69
1988	20256	Our numbers are correct in the system now.	Our numbers are correct in the system now.	966952	1471960199393	1471960199545		77
1988	20256	Our numbers are correct in the system now.	Our numbers are correct in the system now.	966958	1471960199578	1471960199714		32
1988	20256	Our numbers are correct in the system now.	Our numbers are correct in the system now.	966968	1471960199794	1471960199994		78
1988	20256	Our numbers are correct in the system now.	Our numbers are correct in the system now.	967006	1471960199890	1471960200050		79
1988	20256	Our numbers are correct in the system now.	Our numbers are correct in the system now.	967008	1471960200002	1471960200106		87
1988	20256	Our numbers are correct in the system now.	Our numbers are correct in the system now.	967011	1471960200210	1471960200337		190
1988	20270	In a couple of weeks.	In a couple of weeks.	967149	1471960202130	1471960202346	SHIFT	16
1988	20270	In a couple of weeks.	In a couple of weeks.	967152	1471960202266	1471960202370		73
1988	20270	In a couple of weeks.	In a couple of weeks.	967153	1471960202514	1471960202657		78
1988	20270	In a couple of weeks.	In a couple of weeks.	967155	1471960202618	1471960202738		32
1988	20270	In a couple of weeks.	In a couple of weeks.	967157	1471960202770	1471960202906		65
1988	20270	In a couple of weeks.	In a couple of weeks.	967324	1471960202858	1471960202978		32
1988	20270	In a couple of weeks.	In a couple of weeks.	967329	1471960203154	1471960203245		67
1988	20270	In a couple of weeks.	In a couple of weeks.	967332	1471960203226	1471960203330		79
1988	20270	In a couple of weeks.	In a couple of weeks.	967335	1471960203946	1471960204058		85
1988	20270	In a couple of weeks.	In a couple of weeks.	967339	1471960204922	1471960205010		80
1988	20270	In a couple of weeks.	In a couple of weeks.	967342	1471960205858	1471960205986		76
1988	20270	In a couple of weeks.	In a couple of weeks.	967373	1471960206106	1471960206202		69
1988	20270	In a couple of weeks.	In a couple of weeks.	967376	1471960206218	1471960206322		32
1988	20270	In a couple of weeks.	In a couple of weeks.	967380	1471960206394	1471960206538		79
1988	20270	In a couple of weeks.	In a couple of weeks.	967384	1471960206506	1471960206610		70
1988	20270	In a couple of weeks.	In a couple of weeks.	967387	1471960206626	1471960206746		32
1988	20270	In a couple of weeks.	In a couple of weeks.	967496	1471960206842	1471960206953		87
1988	20270	In a couple of weeks.	In a couple of weeks.	967500	1471960207026	1471960207090		69
1988	20270	In a couple of weeks.	In a couple of weeks.	967505	1471960207170	1471960207282		69
1988	20270	In a couple of weeks.	In a couple of weeks.	967512	1471960208034	1471960208122		75
1988	20270	In a couple of weeks.	In a couple of weeks.	967515	1471960208162	1471960208266		83
1988	20270	In a couple of weeks.	In a couple of weeks.	967519	1471960208306	1471960208434		190
1988	20282	Add a Star Trek convention and sports memorabilia show to the mix.	Add a Star Trek convention and sports memorabilia show to the mix.	967777	1471960210330	1471960211202	SHIFT	16
1988	20282	Add a Star Trek convention and sports memorabilia show to the mix.	Add a Star Trek convention and sports memorabilia show to the mix.	967774	1471960211066	1471960211154		65
1988	20282	Add a Star Trek convention and sports memorabilia show to the mix.	Add a Star Trek convention and sports memorabilia show to the mix.	967780	1471960211602	1471960211642		68
1988	20282	Add a Star Trek convention and sports memorabilia show to the mix.	Add a Star Trek convention and sports memorabilia show to the mix.	967781	1471960212026	1471960212138		68
1988	20282	Add a Star Trek convention and sports memorabilia show to the mix.	Add a Star Trek convention and sports memorabilia show to the mix.	967782	1471960212322	1471960212426		32
1988	20282	Add a Star Trek convention and sports memorabilia show to the mix.	Add a Star Trek convention and sports memorabilia show to the mix.	967783	1471960212474	1471960212596		65
1988	20282	Add a Star Trek convention and sports memorabilia show to the mix.	Add a Star Trek convention and sports memorabilia show to the mix.	967891	1471960212578	1471960212681		32
1988	20282	Add a Star Trek convention and sports memorabilia show to the mix.	Add a Star Trek convention and sports memorabilia show to the mix.	967895	1471960212922	1471960213298	SHIFT	16
1988	20282	Add a Star Trek convention and sports memorabilia show to the mix.	Add a Star Trek convention and sports memorabilia show to the mix.	967893	1471960213106	1471960213225		83
1988	20282	Add a Star Trek convention and sports memorabilia show to the mix.	Add a Star Trek convention and sports memorabilia show to the mix.	967897	1471960213594	1471960213682		82
1988	20282	Add a Star Trek convention and sports memorabilia show to the mix.	Add a Star Trek convention and sports memorabilia show to the mix.	967900	1471960213858	1471960213962		65
1988	20282	Add a Star Trek convention and sports memorabilia show to the mix.	Add a Star Trek convention and sports memorabilia show to the mix.	967905	1471960214353	1471960214561		8
1988	20282	Add a Star Trek convention and sports memorabilia show to the mix.	Add a Star Trek convention and sports memorabilia show to the mix.	967908	1471960214753	1471960214897		8
1988	20282	Add a Star Trek convention and sports memorabilia show to the mix.	Add a Star Trek convention and sports memorabilia show to the mix.	967967	1471960214905	1471960215009		84
1988	20282	Add a Star Trek convention and sports memorabilia show to the mix.	Add a Star Trek convention and sports memorabilia show to the mix.	967972	1471960215186	1471960215282		65
1988	20282	Add a Star Trek convention and sports memorabilia show to the mix.	Add a Star Trek convention and sports memorabilia show to the mix.	967976	1471960215410	1471960215530		82
1988	20282	Add a Star Trek convention and sports memorabilia show to the mix.	Add a Star Trek convention and sports memorabilia show to the mix.	967980	1471960215706	1471960215826		32
1988	20282	Add a Star Trek convention and sports memorabilia show to the mix.	Add a Star Trek convention and sports memorabilia show to the mix.	967984	1471960215842	1471960216122	SHIFT	16
1988	20282	Add a Star Trek convention and sports memorabilia show to the mix.	Add a Star Trek convention and sports memorabilia show to the mix.	968081	1471960216026	1471960216129		84
1988	20282	Add a Star Trek convention and sports memorabilia show to the mix.	Add a Star Trek convention and sports memorabilia show to the mix.	968083	1471960216226	1471960216330		82
1988	20282	Add a Star Trek convention and sports memorabilia show to the mix.	Add a Star Trek convention and sports memorabilia show to the mix.	968087	1471960216730	1471960216850		69
1988	20282	Add a Star Trek convention and sports memorabilia show to the mix.	Add a Star Trek convention and sports memorabilia show to the mix.	968092	1471960217186	1471960217346		65
1988	20282	Add a Star Trek convention and sports memorabilia show to the mix.	Add a Star Trek convention and sports memorabilia show to the mix.	968094	1471960217970	1471960218066		8
1988	20282	Add a Star Trek convention and sports memorabilia show to the mix.	Add a Star Trek convention and sports memorabilia show to the mix.	968098	1471960218186	1471960218338		75
1988	20282	Add a Star Trek convention and sports memorabilia show to the mix.	Add a Star Trek convention and sports memorabilia show to the mix.	968144	1471960218362	1471960218500		32
1988	20282	Add a Star Trek convention and sports memorabilia show to the mix.	Add a Star Trek convention and sports memorabilia show to the mix.	968146	1471960218746	1471960218882		67
1988	20282	Add a Star Trek convention and sports memorabilia show to the mix.	Add a Star Trek convention and sports memorabilia show to the mix.	968149	1471960218818	1471960218914		79
1988	20282	Add a Star Trek convention and sports memorabilia show to the mix.	Add a Star Trek convention and sports memorabilia show to the mix.	968151	1471960219026	1471960219162		78
1988	20282	Add a Star Trek convention and sports memorabilia show to the mix.	Add a Star Trek convention and sports memorabilia show to the mix.	968153	1471960219226	1471960219329		86
1988	20282	Add a Star Trek convention and sports memorabilia show to the mix.	Add a Star Trek convention and sports memorabilia show to the mix.	968199	1471960219490	1471960219618		69
1988	20282	Add a Star Trek convention and sports memorabilia show to the mix.	Add a Star Trek convention and sports memorabilia show to the mix.	968203	1471960219618	1471960219746		78
1988	20282	Add a Star Trek convention and sports memorabilia show to the mix.	Add a Star Trek convention and sports memorabilia show to the mix.	968207	1471960219777	1471960219882		84
1988	20282	Add a Star Trek convention and sports memorabilia show to the mix.	Add a Star Trek convention and sports memorabilia show to the mix.	968211	1471960219978	1471960220130		73
1988	20282	Add a Star Trek convention and sports memorabilia show to the mix.	Add a Star Trek convention and sports memorabilia show to the mix.	968227	1471960220066	1471960220169		79
1988	20282	Add a Star Trek convention and sports memorabilia show to the mix.	Add a Star Trek convention and sports memorabilia show to the mix.	968229	1471960220266	1471960220402		78
1988	20282	Add a Star Trek convention and sports memorabilia show to the mix.	Add a Star Trek convention and sports memorabilia show to the mix.	968232	1471960220378	1471960220545		32
1988	20282	Add a Star Trek convention and sports memorabilia show to the mix.	Add a Star Trek convention and sports memorabilia show to the mix.	968235	1471960220506	1471960220633		65
1988	20282	Add a Star Trek convention and sports memorabilia show to the mix.	Add a Star Trek convention and sports memorabilia show to the mix.	968238	1471960220626	1471960220729		78
1988	20282	Add a Star Trek convention and sports memorabilia show to the mix.	Add a Star Trek convention and sports memorabilia show to the mix.	968365	1471960220690	1471960220834		68
1988	20282	Add a Star Trek convention and sports memorabilia show to the mix.	Add a Star Trek convention and sports memorabilia show to the mix.	968369	1471960221682	1471960221794		32
1988	20282	Add a Star Trek convention and sports memorabilia show to the mix.	Add a Star Trek convention and sports memorabilia show to the mix.	968376	1471960222050	1471960222154		83
1988	20282	Add a Star Trek convention and sports memorabilia show to the mix.	Add a Star Trek convention and sports memorabilia show to the mix.	968381	1471960222186	1471960222290		80
1988	20282	Add a Star Trek convention and sports memorabilia show to the mix.	Add a Star Trek convention and sports memorabilia show to the mix.	968384	1471960222618	1471960222762		79
1988	20282	Add a Star Trek convention and sports memorabilia show to the mix.	Add a Star Trek convention and sports memorabilia show to the mix.	968388	1471960222858	1471960222954		82
1988	20282	Add a Star Trek convention and sports memorabilia show to the mix.	Add a Star Trek convention and sports memorabilia show to the mix.	968430	1471960223066	1471960223162		84
1988	20282	Add a Star Trek convention and sports memorabilia show to the mix.	Add a Star Trek convention and sports memorabilia show to the mix.	968433	1471960223386	1471960223522		83
1988	20282	Add a Star Trek convention and sports memorabilia show to the mix.	Add a Star Trek convention and sports memorabilia show to the mix.	968436	1471960223522	1471960223633		32
1988	20282	Add a Star Trek convention and sports memorabilia show to the mix.	Add a Star Trek convention and sports memorabilia show to the mix.	968438	1471960223890	1471960224002		77
1988	20282	Add a Star Trek convention and sports memorabilia show to the mix.	Add a Star Trek convention and sports memorabilia show to the mix.	968439	1471960224082	1471960224178		69
1988	20282	Add a Star Trek convention and sports memorabilia show to the mix.	Add a Star Trek convention and sports memorabilia show to the mix.	968554	1471960224242	1471960224386		77
1988	20282	Add a Star Trek convention and sports memorabilia show to the mix.	Add a Star Trek convention and sports memorabilia show to the mix.	968558	1471960224650	1471960224730		79
1988	20282	Add a Star Trek convention and sports memorabilia show to the mix.	Add a Star Trek convention and sports memorabilia show to the mix.	968564	1471960226226	1471960226353		82
1988	20282	Add a Star Trek convention and sports memorabilia show to the mix.	Add a Star Trek convention and sports memorabilia show to the mix.	968570	1471960226538	1471960226650		65
1988	20282	Add a Star Trek convention and sports memorabilia show to the mix.	Add a Star Trek convention and sports memorabilia show to the mix.	968574	1471960226826	1471960226953		66
1988	20282	Add a Star Trek convention and sports memorabilia show to the mix.	Add a Star Trek convention and sports memorabilia show to the mix.	968663	1471960227762	1471960227841		73
1988	20282	Add a Star Trek convention and sports memorabilia show to the mix.	Add a Star Trek convention and sports memorabilia show to the mix.	968668	1471960227962	1471960228058		76
1988	20282	Add a Star Trek convention and sports memorabilia show to the mix.	Add a Star Trek convention and sports memorabilia show to the mix.	968673	1471960228146	1471960228250		73
1988	20282	Add a Star Trek convention and sports memorabilia show to the mix.	Add a Star Trek convention and sports memorabilia show to the mix.	968679	1471960228418	1471960228529		65
1988	20282	Add a Star Trek convention and sports memorabilia show to the mix.	Add a Star Trek convention and sports memorabilia show to the mix.	968750	1471960228522	1471960228633		32
1988	20282	Add a Star Trek convention and sports memorabilia show to the mix.	Add a Star Trek convention and sports memorabilia show to the mix.	968753	1471960228914	1471960229031		83
1988	20282	Add a Star Trek convention and sports memorabilia show to the mix.	Add a Star Trek convention and sports memorabilia show to the mix.	968756	1471960229018	1471960229138		72
1988	20282	Add a Star Trek convention and sports memorabilia show to the mix.	Add a Star Trek convention and sports memorabilia show to the mix.	968759	1471960229146	1471960229361		79
1988	20282	Add a Star Trek convention and sports memorabilia show to the mix.	Add a Star Trek convention and sports memorabilia show to the mix.	968761	1471960229722	1471960229841		87
1988	20282	Add a Star Trek convention and sports memorabilia show to the mix.	Add a Star Trek convention and sports memorabilia show to the mix.	968763	1471960229850	1471960229977		32
1988	20282	Add a Star Trek convention and sports memorabilia show to the mix.	Add a Star Trek convention and sports memorabilia show to the mix.	968767	1471960230090	1471960230201		84
1988	20282	Add a Star Trek convention and sports memorabilia show to the mix.	Add a Star Trek convention and sports memorabilia show to the mix.	968773	1471960230146	1471960230289		79
1988	20282	Add a Star Trek convention and sports memorabilia show to the mix.	Add a Star Trek convention and sports memorabilia show to the mix.	968776	1471960230234	1471960230386		32
1988	20282	Add a Star Trek convention and sports memorabilia show to the mix.	Add a Star Trek convention and sports memorabilia show to the mix.	968780	1471960230362	1471960230466		84
1988	20282	Add a Star Trek convention and sports memorabilia show to the mix.	Add a Star Trek convention and sports memorabilia show to the mix.	968807	1471960230458	1471960230578		72
1988	20282	Add a Star Trek convention and sports memorabilia show to the mix.	Add a Star Trek convention and sports memorabilia show to the mix.	968812	1471960230554	1471960230665		69
1988	20282	Add a Star Trek convention and sports memorabilia show to the mix.	Add a Star Trek convention and sports memorabilia show to the mix.	968815	1471960230642	1471960230746		32
1988	20282	Add a Star Trek convention and sports memorabilia show to the mix.	Add a Star Trek convention and sports memorabilia show to the mix.	968821	1471960230843	1471960231042		77
1988	20282	Add a Star Trek convention and sports memorabilia show to the mix.	Add a Star Trek convention and sports memorabilia show to the mix.	968825	1471960231038	1471960231105		73
1988	20282	Add a Star Trek convention and sports memorabilia show to the mix.	Add a Star Trek convention and sports memorabilia show to the mix.	968829	1471960231250	1471960231386		88
1988	20282	Add a Star Trek convention and sports memorabilia show to the mix.	Add a Star Trek convention and sports memorabilia show to the mix.	968840	1471960231618	1471960231697		190
