PARTICIPANT_ID	TEST_SECTION_ID	SENTENCE	USER_INPUT	KEYSTROKE_ID	PRESS_TIME	RELEASE_TIME	LETTER	KEYCODE
2040	20607	Amy will be here to cover.	Amy will be here to cover.	982426	1471960477422	1471960477664	SHIFT	16
2040	20607	Amy will be here to cover.	Amy will be here to cover.	982428	1471960477617	1471960477741	A	65
2040	20607	Amy will be here to cover.	Amy will be here to cover.	982431	1471960477656	1471960477748	M	77
2040	20607	Amy will be here to cover.	Amy will be here to cover.	982434	1471960477859	1471960477963	y	89
2040	20607	Amy will be here to cover.	Amy will be here to cover.	982438	1471960477899	1471960478026	 	32
2040	20607	Amy will be here to cover.	Amy will be here to cover.	982514	1471960478019	1471960478143	w	87
2040	20607	Amy will be here to cover.	Amy will be here to cover.	982517	1471960478146	1471960478224	i	73
2040	20607	Amy will be here to cover.	Amy will be here to cover.	982520	1471960478537	1471960478620	BKSP	8
2040	20607	Amy will be here to cover.	Amy will be here to cover.	982524	1471960478696	1471960478783	BKSP	8
2040	20607	Amy will be here to cover.	Amy will be here to cover.	982528	1471960478856	1471960478938	BKSP	8
2040	20607	Amy will be here to cover.	Amy will be here to cover.	982533	1471960479015	1471960479098	BKSP	8
2040	20607	Amy will be here to cover.	Amy will be here to cover.	982537	1471960479174	1471960479257	BKSP	8
2040	20607	Amy will be here to cover.	Amy will be here to cover.	982542	1471960479451	1471960479533	m	77
2040	20607	Amy will be here to cover.	Amy will be here to cover.	982544	1471960479536	1471960479615	y	89
2040	20607	Amy will be here to cover.	Amy will be here to cover.	982546	1471960480044	1471960480205	 	32
2040	20607	Amy will be here to cover.	Amy will be here to cover.	982548	1471960480281	1471960480443	w	87
2040	20607	Amy will be here to cover.	Amy will be here to cover.	982552	1471960480399	1471960480449	i	73
2040	20607	Amy will be here to cover.	Amy will be here to cover.	982555	1471960480561	1471960480604	l	76
2040	20607	Amy will be here to cover.	Amy will be here to cover.	982558	1471960480681	1471960480764	l	76
2040	20607	Amy will be here to cover.	Amy will be here to cover.	982563	1471960480721	1471960480845	 	32
2040	20607	Amy will be here to cover.	Amy will be here to cover.	982568	1471960480922	1471960481007	b	66
2040	20607	Amy will be here to cover.	Amy will be here to cover.	982572	1471960481001	1471960481085	e	69
2040	20607	Amy will be here to cover.	Amy will be here to cover.	982573	1471960481088	1471960481206	 	32
2040	20607	Amy will be here to cover.	Amy will be here to cover.	982576	1471960481243	1471960481326	h	72
2040	20607	Amy will be here to cover.	Amy will be here to cover.	982578	1471960481283	1471960481408	e	69
2040	20607	Amy will be here to cover.	Amy will be here to cover.	982583	1471960481364	1471960481491	r	82
2040	20607	Amy will be here to cover.	Amy will be here to cover.	982618	1471960481485	1471960481608	e	69
2040	20607	Amy will be here to cover.	Amy will be here to cover.	982621	1471960481920	1471960482045	 	32
2040	20607	Amy will be here to cover.	Amy will be here to cover.	982624	1471960482038	1471960482122	t	84
2040	20607	Amy will be here to cover.	Amy will be here to cover.	982627	1471960482126	1471960482204	o	79
2040	20607	Amy will be here to cover.	Amy will be here to cover.	982631	1471960482281	1471960482402	c	67
2040	20607	Amy will be here to cover.	Amy will be here to cover.	982635	1471960482405	1471960482562	o	79
2040	20607	Amy will be here to cover.	Amy will be here to cover.	982653	1471960482756	1471960482839	BKSP	8
2040	20607	Amy will be here to cover.	Amy will be here to cover.	982654	1471960482915	1471960482959	BKSP	8
2040	20607	Amy will be here to cover.	Amy will be here to cover.	982656	1471960482996	1471960483121	 	32
2040	20607	Amy will be here to cover.	Amy will be here to cover.	982658	1471960483115	1471960483206	c	67
2040	20607	Amy will be here to cover.	Amy will be here to cover.	982661	1471960483243	1471960483326	o	79
2040	20607	Amy will be here to cover.	Amy will be here to cover.	982665	1471960483364	1471960483449	v	86
2040	20607	Amy will be here to cover.	Amy will be here to cover.	982743	1471960483443	1471960483645	e	69
2040	20607	Amy will be here to cover.	Amy will be here to cover.	982745	1471960483602	1471960483726	r	82
2040	20607	Amy will be here to cover.	Amy will be here to cover.	982748	1471960484038	1471960484120	.	190
2040	20617	Did you not read my first email?	Did you not read my first email?	982894	1471960486674	1471960486875	SHIFT	16
2040	20617	Did you not read my first email?	Did you not read my first email?	982897	1471960486831	1471960486956	D	68
2040	20617	Did you not read my first email?	Did you not read my first email?	982902	1471960486912	1471960486997	i	73
2040	20617	Did you not read my first email?	Did you not read my first email?	982907	1471960487035	1471960487157	d	68
2040	20617	Did you not read my first email?	Did you not read my first email?	982911	1471960487351	1471960487473	 	32
2040	20617	Did you not read my first email?	Did you not read my first email?	982914	1471960487549	1471960487632	y	89
2040	20617	Did you not read my first email?	Did you not read my first email?	982979	1471960487724	1471960487885	o	79
2040	20617	Did you not read my first email?	Did you not read my first email?	982982	1471960487842	1471960488005	 	32
2040	20617	Did you not read my first email?	Did you not read my first email?	982985	1471960488395	1471960488439	BKSP	8
2040	20617	Did you not read my first email?	Did you not read my first email?	982988	1471960488789	1471960488872	u	85
2040	20617	Did you not read my first email?	Did you not read my first email?	982990	1471960488988	1471960489110	 	32
2040	20617	Did you not read my first email?	Did you not read my first email?	982993	1471960489147	1471960489269	n	78
2040	20617	Did you not read my first email?	Did you not read my first email?	983018	1471960489226	1471960489311	o	79
2040	20617	Did you not read my first email?	Did you not read my first email?	983022	1471960489348	1471960489431	t	84
2040	20617	Did you not read my first email?	Did you not read my first email?	983025	1471960489434	1471960489563	 	32
2040	20617	Did you not read my first email?	Did you not read my first email?	983028	1471960489556	1471960489681	r	82
2040	20617	Did you not read my first email?	Did you not read my first email?	983033	1471960489637	1471960489722	e	69
2040	20617	Did you not read my first email?	Did you not read my first email?	983036	1471960489839	1471960489999	a	65
2040	20617	Did you not read my first email?	Did you not read my first email?	983052	1471960489917	1471960490041	d	68
2040	20617	Did you not read my first email?	Did you not read my first email?	983056	1471960490002	1471960490125	 	32
2040	20617	Did you not read my first email?	Did you not read my first email?	983062	1471960490118	1471960490203	m	77
2040	20617	Did you not read my first email?	Did you not read my first email?	983065	1471960490241	1471960490363	y	89
2040	20617	Did you not read my first email?	Did you not read my first email?	983070	1471960490596	1471960490739	 	32
2040	20617	Did you not read my first email?	Did you not read my first email?	983101	1471960490732	1471960490817	f	70
2040	20617	Did you not read my first email?	Did you not read my first email?	983102	1471960490854	1471960490977	i	73
2040	20617	Did you not read my first email?	Did you not read my first email?	983103	1471960490933	1471960491097	r	82
2040	20617	Did you not read my first email?	Did you not read my first email?	983105	1471960491053	1471960491139	s	83
2040	20617	Did you not read my first email?	Did you not read my first email?	983109	1471960491254	1471960491297	t	84
2040	20617	Did you not read my first email?	Did you not read my first email?	983114	1471960491301	1471960491460	 	32
2040	20617	Did you not read my first email?	Did you not read my first email?	983173	1471960491454	1471960491577	e	69
2040	20617	Did you not read my first email?	Did you not read my first email?	983174	1471960491580	1471960491662	m	77
2040	20617	Did you not read my first email?	Did you not read my first email?	983175	1471960491658	1471960491818	a	65
2040	20617	Did you not read my first email?	Did you not read my first email?	983176	1471960491775	1471960491860	i	73
2040	20617	Did you not read my first email?	Did you not read my first email?	983177	1471960491976	1471960492098	l	76
2040	20617	Did you not read my first email?	Did you not read my first email?	983178	1471960492409	1471960493042	SHIFT	16
2040	20617	Did you not read my first email?	Did you not read my first email?	983207	1471960492959	1471960493084	?	191
2040	20624	Giants, but he didn't finish it.	Giants, but he didn't finish it.	983318	1471960495441	1471960495645	SHIFT	16
2040	20624	Giants, but he didn't finish it.	Giants, but he didn't finish it.	983321	1471960495638	1471960495724	G	71
2040	20624	Giants, but he didn't finish it.	Giants, but he didn't finish it.	983326	1471960495679	1471960495803	i	73
2040	20624	Giants, but he didn't finish it.	Giants, but he didn't finish it.	983332	1471960495842	1471960495924	a	65
2040	20624	Giants, but he didn't finish it.	Giants, but he didn't finish it.	983337	1471960495927	1471960496009	n	78
2040	20624	Giants, but he didn't finish it.	Giants, but he didn't finish it.	983377	1471960496002	1471960496166	t	84
2040	20624	Giants, but he didn't finish it.	Giants, but he didn't finish it.	983380	1471960496123	1471960496285	s	83
2040	20624	Giants, but he didn't finish it.	Giants, but he didn't finish it.	983382	1471960496479	1471960496562	,	188
2040	20624	Giants, but he didn't finish it.	Giants, but he didn't finish it.	983384	1471960496913	1471960497039	 	32
2040	20624	Giants, but he didn't finish it.	Giants, but he didn't finish it.	983386	1471960497031	1471960497117	b	66
2040	20624	Giants, but he didn't finish it.	Giants, but he didn't finish it.	983390	1471960497153	1471960497197	u	85
2040	20624	Giants, but he didn't finish it.	Giants, but he didn't finish it.	983401	1471960497234	1471960497316	t	84
2040	20624	Giants, but he didn't finish it.	Giants, but he didn't finish it.	983404	1471960497320	1471960497418	 	32
2040	20624	Giants, but he didn't finish it.	Giants, but he didn't finish it.	983407	1471960497494	1471960497541	h	72
2040	20624	Giants, but he didn't finish it.	Giants, but he didn't finish it.	983411	1471960497534	1471960497618	e	69
2040	20624	Giants, but he didn't finish it.	Giants, but he didn't finish it.	983414	1471960497622	1471960497742	 	32
2040	20624	Giants, but he didn't finish it.	Giants, but he didn't finish it.	983443	1471960497736	1471960497820	d	68
2040	20624	Giants, but he didn't finish it.	Giants, but he didn't finish it.	983452	1471960497824	1471960497904	i	73
2040	20624	Giants, but he didn't finish it.	Giants, but he didn't finish it.	983462	1471960497898	1471960497982	d	68
2040	20624	Giants, but he didn't finish it.	Giants, but he didn't finish it.	983475	1471960498020	1471960498064	n	78
2040	20624	Giants, but he didn't finish it.	Giants, but he didn't finish it.	983483	1471960498454	1471960498575	'	222
2040	20624	Giants, but he didn't finish it.	Giants, but he didn't finish it.	983489	1471960498613	1471960498695	t	84
2040	20624	Giants, but he didn't finish it.	Giants, but he didn't finish it.	983511	1471960498733	1471960498855	 	32
2040	20624	Giants, but he didn't finish it.	Giants, but he didn't finish it.	983513	1471960499049	1471960499211	f	70
2040	20624	Giants, but he didn't finish it.	Giants, but he didn't finish it.	983518	1471960499128	1471960499217	i	73
2040	20624	Giants, but he didn't finish it.	Giants, but he didn't finish it.	983522	1471960499328	1471960499371	n	78
2040	20624	Giants, but he didn't finish it.	Giants, but he didn't finish it.	983526	1471960499375	1471960499497	i	73
2040	20624	Giants, but he didn't finish it.	Giants, but he didn't finish it.	983633	1471960499453	1471960499617	s	83
2040	20624	Giants, but he didn't finish it.	Giants, but he didn't finish it.	983642	1471960499574	1471960499698	h	72
2040	20624	Giants, but he didn't finish it.	Giants, but he didn't finish it.	983647	1471960499814	1471960499975	 	32
2040	20624	Giants, but he didn't finish it.	Giants, but he didn't finish it.	983652	1471960500051	1471960500137	i	73
2040	20624	Giants, but he didn't finish it.	Giants, but he didn't finish it.	983657	1471960500130	1471960500254	t	84
2040	20624	Giants, but he didn't finish it.	Giants, but he didn't finish it.	983663	1471960501156	1471960501238	.	190
2040	20634	That calendar was enough to put me on a diet.	That calendar was enough to put me on a diet.	983787	1471960503125	1471960503332	SHIFT	16
2040	20634	That calendar was enough to put me on a diet.	That calendar was enough to put me on a diet.	983783	1471960503282	1471960503326	T	84
2040	20634	That calendar was enough to put me on a diet.	That calendar was enough to put me on a diet.	983795	1471960503444	1471960503527	h	72
2040	20634	That calendar was enough to put me on a diet.	That calendar was enough to put me on a diet.	983802	1471960503483	1471960503646	a	65
2040	20634	That calendar was enough to put me on a diet.	That calendar was enough to put me on a diet.	983805	1471960503676	1471960503739	t	84
2040	20634	That calendar was enough to put me on a diet.	That calendar was enough to put me on a diet.	983829	1471960503738	1471960503848	 	32
2040	20634	That calendar was enough to put me on a diet.	That calendar was enough to put me on a diet.	983831	1471960503805	1471960503971	c	67
2040	20634	That calendar was enough to put me on a diet.	That calendar was enough to put me on a diet.	983833	1471960503888	1471960504052	a	65
2040	20634	That calendar was enough to put me on a diet.	That calendar was enough to put me on a diet.	983835	1471960504008	1471960504132	l	76
2040	20634	That calendar was enough to put me on a diet.	That calendar was enough to put me on a diet.	983837	1471960504838	1471960504958	e	69
2040	20634	That calendar was enough to put me on a diet.	That calendar was enough to put me on a diet.	983839	1471960504962	1471960505079	n	78
2040	20634	That calendar was enough to put me on a diet.	That calendar was enough to put me on a diet.	983876	1471960505117	1471960505199	d	68
2040	20634	That calendar was enough to put me on a diet.	That calendar was enough to put me on a diet.	983879	1471960505354	1471960505476	a	65
2040	20634	That calendar was enough to put me on a diet.	That calendar was enough to put me on a diet.	983890	1471960505514	1471960505596	r	82
2040	20634	That calendar was enough to put me on a diet.	That calendar was enough to put me on a diet.	983896	1471960505599	1471960505736	 	32
2040	20634	That calendar was enough to put me on a diet.	That calendar was enough to put me on a diet.	983903	1471960505774	1471960505857	w	87
2040	20634	That calendar was enough to put me on a diet.	That calendar was enough to put me on a diet.	983929	1471960505813	1471960506055	a	65
2040	20634	That calendar was enough to put me on a diet.	That calendar was enough to put me on a diet.	983933	1471960506012	1471960506061	s	83
2040	20634	That calendar was enough to put me on a diet.	That calendar was enough to put me on a diet.	983938	1471960506065	1471960506178	 	32
2040	20634	That calendar was enough to put me on a diet.	That calendar was enough to put me on a diet.	983942	1471960506215	1471960506298	e	69
2040	20634	That calendar was enough to put me on a diet.	That calendar was enough to put me on a diet.	983945	1471960506301	1471960506418	n	78
2040	20634	That calendar was enough to put me on a diet.	That calendar was enough to put me on a diet.	983952	1471960506456	1471960506617	o	79
2040	20634	That calendar was enough to put me on a diet.	That calendar was enough to put me on a diet.	983964	1471960506535	1471960506662	u	85
2040	20634	That calendar was enough to put me on a diet.	That calendar was enough to put me on a diet.	983967	1471960506655	1471960506779	g	71
2040	20634	That calendar was enough to put me on a diet.	That calendar was enough to put me on a diet.	983970	1471960506782	1471960506860	h	72
2040	20634	That calendar was enough to put me on a diet.	That calendar was enough to put me on a diet.	983973	1471960506863	1471960507023	 	32
2040	20634	That calendar was enough to put me on a diet.	That calendar was enough to put me on a diet.	983977	1471960507016	1471960507140	t	84
2040	20634	That calendar was enough to put me on a diet.	That calendar was enough to put me on a diet.	984006	1471960507097	1471960507222	o	79
2040	20634	That calendar was enough to put me on a diet.	That calendar was enough to put me on a diet.	984009	1471960507178	1471960507345	 	32
2040	20634	That calendar was enough to put me on a diet.	That calendar was enough to put me on a diet.	984014	1471960507338	1471960507462	p	80
2040	20634	That calendar was enough to put me on a diet.	That calendar was enough to put me on a diet.	984020	1471960507510	1471960507635	u	85
2040	20634	That calendar was enough to put me on a diet.	That calendar was enough to put me on a diet.	984027	1471960507628	1471960507752	t	84
2040	20634	That calendar was enough to put me on a diet.	That calendar was enough to put me on a diet.	984034	1471960507755	1471960507872	 	32
2040	20634	That calendar was enough to put me on a diet.	That calendar was enough to put me on a diet.	984049	1471960507921	1471960508044	m	77
2040	20634	That calendar was enough to put me on a diet.	That calendar was enough to put me on a diet.	984051	1471960508000	1471960508124	e	69
2040	20634	That calendar was enough to put me on a diet.	That calendar was enough to put me on a diet.	984054	1471960508081	1471960508208	 	32
2040	20634	That calendar was enough to put me on a diet.	That calendar was enough to put me on a diet.	984058	1471960508201	1471960508286	o	79
2040	20634	That calendar was enough to put me on a diet.	That calendar was enough to put me on a diet.	984063	1471960508362	1471960508446	n	78
2040	20634	That calendar was enough to put me on a diet.	That calendar was enough to put me on a diet.	984112	1471960508402	1471960508526	 	32
2040	20634	That calendar was enough to put me on a diet.	That calendar was enough to put me on a diet.	984116	1471960508799	1471960508960	a	65
2040	20634	That calendar was enough to put me on a diet.	That calendar was enough to put me on a diet.	984118	1471960508917	1471960509062	 	32
2040	20634	That calendar was enough to put me on a diet.	That calendar was enough to put me on a diet.	984122	1471960509055	1471960509179	d	68
2040	20634	That calendar was enough to put me on a diet.	That calendar was enough to put me on a diet.	984126	1471960509182	1471960509299	i	73
2040	20634	That calendar was enough to put me on a diet.	That calendar was enough to put me on a diet.	984129	1471960509343	1471960509472	e	69
2040	20634	That calendar was enough to put me on a diet.	That calendar was enough to put me on a diet.	984271	1471960509588	1471960509710	t	84
2040	20634	That calendar was enough to put me on a diet.	That calendar was enough to put me on a diet.	984274	1471960511988	1471960512110	.	190
2040	20651	Would you mind taking the lead on this?	Would you mind taking the lead on this?	984396	1471960514783	1471960515023	SHIFT	16
2040	20651	Would you mind taking the lead on this?	Would you mind taking the lead on this?	984397	1471960514979	1471960515143	W	87
2040	20651	Would you mind taking the lead on this?	Would you mind taking the lead on this?	984398	1471960515099	1471960515224	o	79
2040	20651	Would you mind taking the lead on this?	Would you mind taking the lead on this?	984399	1471960515181	1471960515266	u	85
2040	20651	Would you mind taking the lead on this?	Would you mind taking the lead on this?	984400	1471960515381	1471960515481	l	76
2040	20651	Would you mind taking the lead on this?	Would you mind taking the lead on this?	984418	1471960515475	1471960515598	d	68
2040	20651	Would you mind taking the lead on this?	Would you mind taking the lead on this?	984420	1471960515601	1471960515719	 	32
2040	20651	Would you mind taking the lead on this?	Would you mind taking the lead on this?	984423	1471960515795	1471960515877	y	89
2040	20651	Would you mind taking the lead on this?	Would you mind taking the lead on this?	984424	1471960515881	1471960515959	o	79
2040	20651	Would you mind taking the lead on this?	Would you mind taking the lead on this?	984426	1471960516007	1471960516091	u	85
2040	20651	Would you mind taking the lead on this?	Would you mind taking the lead on this?	984455	1471960516047	1471960516213	 	32
2040	20651	Would you mind taking the lead on this?	Would you mind taking the lead on this?	984457	1471960516207	1471960516302	m	77
2040	20651	Would you mind taking the lead on this?	Would you mind taking the lead on this?	984460	1471960516418	1471960516462	i	73
2040	20651	Would you mind taking the lead on this?	Would you mind taking the lead on this?	984462	1471960516577	1471960516661	n	78
2040	20651	Would you mind taking the lead on this?	Would you mind taking the lead on this?	984466	1471960516617	1471960516702	d	68
2040	20651	Would you mind taking the lead on this?	Would you mind taking the lead on this?	984471	1471960516740	1471960516901	 	32
2040	20651	Would you mind taking the lead on this?	Would you mind taking the lead on this?	984486	1471960516818	1471960516985	t	84
2040	20651	Would you mind taking the lead on this?	Would you mind taking the lead on this?	984489	1471960516978	1471960517142	a	65
2040	20651	Would you mind taking the lead on this?	Would you mind taking the lead on this?	984491	1471960517059	1471960517148	k	75
2040	20651	Would you mind taking the lead on this?	Would you mind taking the lead on this?	984493	1471960517260	1471960517303	i	73
2040	20651	Would you mind taking the lead on this?	Would you mind taking the lead on this?	984494	1471960517419	1471960517505	n	78
2040	20651	Would you mind taking the lead on this?	Would you mind taking the lead on this?	984500	1471960517498	1471960517582	g	71
2040	20651	Would you mind taking the lead on this?	Would you mind taking the lead on this?	984502	1471960517586	1471960517706	 	32
2040	20651	Would you mind taking the lead on this?	Would you mind taking the lead on this?	984505	1471960517700	1471960517823	t	84
2040	20651	Would you mind taking the lead on this?	Would you mind taking the lead on this?	984506	1471960517826	1471960517865	h	72
2040	20651	Would you mind taking the lead on this?	Would you mind taking the lead on this?	984509	1471960517903	1471960518025	e	69
2040	20651	Would you mind taking the lead on this?	Would you mind taking the lead on this?	984527	1471960517982	1471960518109	 	32
2040	20651	Would you mind taking the lead on this?	Would you mind taking the lead on this?	984531	1471960518102	1471960518225	l	76
2040	20651	Would you mind taking the lead on this?	Would you mind taking the lead on this?	984534	1471960518183	1471960518308	e	69
2040	20651	Would you mind taking the lead on this?	Would you mind taking the lead on this?	984535	1471960518264	1471960518428	a	65
2040	20651	Would you mind taking the lead on this?	Would you mind taking the lead on this?	984538	1471960518384	1471960518508	d	68
2040	20651	Would you mind taking the lead on this?	Would you mind taking the lead on this?	984544	1471960518465	1471960518551	 	32
2040	20651	Would you mind taking the lead on this?	Would you mind taking the lead on this?	984545	1471960518512	1471960518592	o	79
2040	20651	Would you mind taking the lead on this?	Would you mind taking the lead on this?	984547	1471960518708	1471960518831	n	78
2040	20651	Would you mind taking the lead on this?	Would you mind taking the lead on this?	984609	1471960518787	1471960519087	 	32
2040	20651	Would you mind taking the lead on this?	Would you mind taking the lead on this?	984550	1471960518868	1471960519077	t	84
2040	20651	Would you mind taking the lead on this?	Would you mind taking the lead on this?	984612	1471960519021	1471960519122	h	72
2040	20651	Would you mind taking the lead on this?	Would you mind taking the lead on this?	984617	1471960519081	1471960519203	i	73
2040	20651	Would you mind taking the lead on this?	Would you mind taking the lead on this?	984621	1471960519159	1471960519283	s	83
2040	20651	Would you mind taking the lead on this?	Would you mind taking the lead on this?	984624	1471960519399	1471960519444	/	190
2040	20651	Would you mind taking the lead on this?	Would you mind taking the lead on this?	984628	1471960519835	1471960519879	BKSP	8
2040	20651	Would you mind taking the lead on this?	Would you mind taking the lead on this?	984630	1471960519995	1471960520077	BKSP	8
2040	20651	Would you mind taking the lead on this?	Would you mind taking the lead on this?	984666	1471960520115	1471960520357	SHIFT	16
2040	20651	Would you mind taking the lead on this?	Would you mind taking the lead on this?	984633	1471960520233	1471960520316	>	190
2040	20651	Would you mind taking the lead on this?	Would you mind taking the lead on this?	984668	1471960520826	1471960520908	BKSP	8
2040	20651	Would you mind taking the lead on this?	Would you mind taking the lead on this?	984674	1471960521024	1471960521227	SHIFT	16
2040	20651	Would you mind taking the lead on this?	Would you mind taking the lead on this?	984671	1471960521142	1471960521185	?	191
2040	20658	We are looking at military assistance.	We are looking at military assistance.	984896	1471960523703	1471960524338	SHIFT	16
2040	20658	We are looking at military assistance.	We are looking at military assistance.	984898	1471960526814	1471960527132	SHIFT	16
2040	20658	We are looking at military assistance.	We are looking at military assistance.	984900	1471960527089	1471960527213	W	87
2040	20658	We are looking at military assistance.	We are looking at military assistance.	984902	1471960527289	1471960527371	e	69
2040	20658	We are looking at military assistance.	We are looking at military assistance.	984904	1471960527329	1471960527493	 	32
2040	20658	We are looking at military assistance.	We are looking at military assistance.	984906	1471960527410	1471960527535	a	65
2040	20658	We are looking at military assistance.	We are looking at military assistance.	984907	1471960527572	1471960527700	r	82
2040	20658	We are looking at military assistance.	We are looking at military assistance.	984934	1471960527618	1471960527781	e	69
2040	20658	We are looking at military assistance.	We are looking at military assistance.	984936	1471960527704	1471960527824	 	32
2040	20658	We are looking at military assistance.	We are looking at military assistance.	984939	1471960527784	1471960527904	l	76
2040	20658	We are looking at military assistance.	We are looking at military assistance.	984942	1471960527981	1471960528142	o	79
2040	20658	We are looking at military assistance.	We are looking at military assistance.	984945	1471960528258	1471960528301	k	75
2040	20658	We are looking at military assistance.	We are looking at military assistance.	984948	1471960528378	1471960528461	i	73
2040	20658	We are looking at military assistance.	We are looking at military assistance.	985006	1471960528538	1471960528620	n	78
2040	20658	We are looking at military assistance.	We are looking at military assistance.	985012	1471960528658	1471960528760	g	71
2040	20658	We are looking at military assistance.	We are looking at military assistance.	985016	1471960528717	1471960528880	 	32
2040	20658	We are looking at military assistance.	We are looking at military assistance.	985025	1471960528996	1471960529079	BKSP	8
2040	20658	We are looking at military assistance.	We are looking at military assistance.	985029	1471960529135	1471960529218	BKSP	8
2040	20658	We are looking at military assistance.	We are looking at military assistance.	985036	1471960529295	1471960529338	BKSP	8
2040	20658	We are looking at military assistance.	We are looking at military assistance.	985042	1471960529454	1471960529498	BKSP	8
2040	20658	We are looking at military assistance.	We are looking at military assistance.	985047	1471960529575	1471960529657	BKSP	8
2040	20658	We are looking at military assistance.	We are looking at military assistance.	985052	1471960529734	1471960529817	o	79
2040	20658	We are looking at military assistance.	We are looking at military assistance.	985057	1471960529933	1471960529976	k	75
2040	20658	We are looking at military assistance.	We are looking at military assistance.	985056	1471960530092	1471960530136	i	73
2040	20658	We are looking at military assistance.	We are looking at military assistance.	985060	1471960530212	1471960530298	n	78
2040	20658	We are looking at military assistance.	We are looking at military assistance.	985063	1471960530291	1471960530375	g	71
2040	20658	We are looking at military assistance.	We are looking at military assistance.	985065	1471960530379	1471960530497	 	32
2040	20658	We are looking at military assistance.	We are looking at military assistance.	985094	1471960530453	1471960530578	a	65
2040	20658	We are looking at military assistance.	We are looking at military assistance.	985096	1471960530615	1471960530708	t	84
2040	20658	We are looking at military assistance.	We are looking at military assistance.	985098	1471960530654	1471960530751	 	32
2040	20658	We are looking at military assistance.	We are looking at military assistance.	985100	1471960530712	1471960530832	m	77
2040	20658	We are looking at military assistance.	We are looking at military assistance.	985102	1471960530909	1471960530953	i	73
2040	20658	We are looking at military assistance.	We are looking at military assistance.	985104	1471960531147	1471960531308	l	76
2040	20658	We are looking at military assistance.	We are looking at military assistance.	985173	1471960531777	1471960531859	i	73
2040	20658	We are looking at military assistance.	We are looking at military assistance.	985175	1471960532132	1471960532213	t	84
2040	20658	We are looking at military assistance.	We are looking at military assistance.	985178	1471960532252	1471960532412	a	65
2040	20658	We are looking at military assistance.	We are looking at military assistance.	985181	1471960532415	1471960532533	r	82
2040	20658	We are looking at military assistance.	We are looking at military assistance.	985184	1471960532688	1471960532771	y	89
2040	20658	We are looking at military assistance.	We are looking at military assistance.	985254	1471960533161	1471960533326	 	32
2040	20658	We are looking at military assistance.	We are looking at military assistance.	985257	1471960533320	1471960533522	a	65
2040	20658	We are looking at military assistance.	We are looking at military assistance.	985261	1471960533440	1471960533603	s	83
2040	20658	We are looking at military assistance.	We are looking at military assistance.	985264	1471960533680	1471960533806	s	83
2040	20658	We are looking at military assistance.	We are looking at military assistance.	985266	1471960534432	1471960534554	i	73
2040	20658	We are looking at military assistance.	We are looking at military assistance.	985312	1471960534904	1471960535026	s	83
2040	20658	We are looking at military assistance.	We are looking at military assistance.	985314	1471960535299	1471960535459	t	84
2040	20658	We are looking at military assistance.	We are looking at military assistance.	985316	1471960535732	1471960535892	a	65
2040	20658	We are looking at military assistance.	We are looking at military assistance.	985318	1471960535895	1471960536013	n	78
2040	20658	We are looking at military assistance.	We are looking at military assistance.	985368	1471960535932	1471960536172	c	67
2040	20658	We are looking at military assistance.	We are looking at military assistance.	985372	1471960536484	1471960536606	e	69
2040	20658	We are looking at military assistance.	We are looking at military assistance.	985377	1471960537075	1471960537157	.	190
2040	20670	We can discuss options early next week.	We can discuss options early next week.	985494	1471960539633	1471960539873	SHIFT	16
2040	20670	We can discuss options early next week.	We can discuss options early next week.	985497	1471960539829	1471960539914	W	87
2040	20670	We can discuss options early next week.	We can discuss options early next week.	985503	1471960540030	1471960540113	e	69
2040	20670	We can discuss options early next week.	We can discuss options early next week.	985509	1471960540150	1471960540275	 	32
2040	20670	We can discuss options early next week.	We can discuss options early next week.	985514	1471960540269	1471960540431	c	67
2040	20670	We can discuss options early next week.	We can discuss options early next week.	985527	1471960540349	1471960540513	a	65
2040	20670	We can discuss options early next week.	We can discuss options early next week.	985532	1471960540435	1471960540555	n	78
2040	20670	We can discuss options early next week.	We can discuss options early next week.	985536	1471960540516	1471960540694	 	32
2040	20670	We can discuss options early next week.	We can discuss options early next week.	985543	1471960540771	1471960540892	d	68
2040	20670	We can discuss options early next week.	We can discuss options early next week.	985546	1471960540896	1471960541014	i	73
2040	20670	We can discuss options early next week.	We can discuss options early next week.	985580	1471960540970	1471960541094	s	83
2040	20670	We can discuss options early next week.	We can discuss options early next week.	985584	1471960541171	1471960541253	c	67
2040	20670	We can discuss options early next week.	We can discuss options early next week.	985587	1471960541256	1471960541374	u	85
2040	20670	We can discuss options early next week.	We can discuss options early next week.	985591	1471960541331	1471960541416	s	83
2040	20670	We can discuss options early next week.	We can discuss options early next week.	985595	1471960541532	1471960541614	s	83
2040	20670	We can discuss options early next week.	We can discuss options early next week.	985599	1471960541730	1471960541891	 	32
2040	20670	We can discuss options early next week.	We can discuss options early next week.	985619	1471960542046	1471960542168	o	79
2040	20670	We can discuss options early next week.	We can discuss options early next week.	985621	1471960542086	1471960542249	p	80
2040	20670	We can discuss options early next week.	We can discuss options early next week.	985623	1471960542404	1471960542566	t	84
2040	20670	We can discuss options early next week.	We can discuss options early next week.	985648	1471960542443	1471960542572	i	73
2040	20670	We can discuss options early next week.	We can discuss options early next week.	985650	1471960542483	1471960542649	o	79
2040	20670	We can discuss options early next week.	We can discuss options early next week.	985652	1471960542725	1471960542850	n	78
2040	20670	We can discuss options early next week.	We can discuss options early next week.	985656	1471960542844	1471960542967	s	83
2040	20670	We can discuss options early next week.	We can discuss options early next week.	985658	1471960542970	1471960543127	 	32
2040	20670	We can discuss options early next week.	We can discuss options early next week.	985659	1471960543204	1471960543365	e	69
2040	20670	We can discuss options early next week.	We can discuss options early next week.	985681	1471960543321	1471960543446	a	65
2040	20670	We can discuss options early next week.	We can discuss options early next week.	985684	1471960543483	1471960543605	r	82
2040	20670	We can discuss options early next week.	We can discuss options early next week.	985689	1471960543682	1471960543805	l	76
2040	20670	We can discuss options early next week.	We can discuss options early next week.	985692	1471960543880	1471960544001	y	89
2040	20670	We can discuss options early next week.	We can discuss options early next week.	985695	1471960544005	1471960544162	 	32
2040	20670	We can discuss options early next week.	We can discuss options early next week.	985696	1471960544277	1471960544402	n	78
2040	20670	We can discuss options early next week.	We can discuss options early next week.	985711	1471960544396	1471960544480	e	69
2040	20670	We can discuss options early next week.	We can discuss options early next week.	985713	1471960544635	1471960544796	x	88
2040	20670	We can discuss options early next week.	We can discuss options early next week.	985714	1471960544873	1471960544955	t	84
2040	20670	We can discuss options early next week.	We can discuss options early next week.	985715	1471960544958	1471960545115	 	32
2040	20670	We can discuss options early next week.	We can discuss options early next week.	985716	1471960545072	1471960545236	w	87
2040	20670	We can discuss options early next week.	We can discuss options early next week.	985753	1471960545153	1471960545277	e	69
2040	20670	We can discuss options early next week.	We can discuss options early next week.	985754	1471960545354	1471960545437	e	69
2040	20670	We can discuss options early next week.	We can discuss options early next week.	985756	1471960545474	1471960545596	k	75
2040	20670	We can discuss options early next week.	We can discuss options early next week.	985757	1471960545907	1471960545990	.	190
2040	20677	I'll bug Holloway and let you know what he says.	I'll bug Holloway and let you know what he says.	986038	1471960552198	1471960552406	SHIFT	16
2040	20677	I'll bug Holloway and let you know what he says.	I'll bug Holloway and let you know what he says.	986036	1471960552316	1471960552399	I	73
2040	20677	I'll bug Holloway and let you know what he says.	I'll bug Holloway and let you know what he says.	986041	1471960552909	1471960553031	'	222
2040	20677	I'll bug Holloway and let you know what he says.	I'll bug Holloway and let you know what he says.	986044	1471960553147	1471960553205	l	76
2040	20677	I'll bug Holloway and let you know what he says.	I'll bug Holloway and let you know what he says.	986048	1471960553282	1471960553404	l	76
2040	20677	I'll bug Holloway and let you know what he says.	I'll bug Holloway and let you know what he says.	986096	1471960553322	1471960553531	 	32
2040	20677	I'll bug Holloway and let you know what he says.	I'll bug Holloway and let you know what he says.	986099	1471960553521	1471960553605	b	66
2040	20677	I'll bug Holloway and let you know what he says.	I'll bug Holloway and let you know what he says.	986101	1471960553643	1471960553686	u	85
2040	20677	I'll bug Holloway and let you know what he says.	I'll bug Holloway and let you know what he says.	986102	1471960553724	1471960553807	g	71
2040	20677	I'll bug Holloway and let you know what he says.	I'll bug Holloway and let you know what he says.	986103	1471960554590	1471960554751	 	32
2040	20677	I'll bug Holloway and let you know what he says.	I'll bug Holloway and let you know what he says.	986147	1471960554788	1471960554995	SHIFT	16
2040	20677	I'll bug Holloway and let you know what he says.	I'll bug Holloway and let you know what he says.	986105	1471960554906	1471960554989	H	72
2040	20677	I'll bug Holloway and let you know what he says.	I'll bug Holloway and let you know what he says.	986152	1471960555146	1471960555229	o	79
2040	20677	I'll bug Holloway and let you know what he says.	I'll bug Holloway and let you know what he says.	986158	1471960555345	1471960555388	l	76
2040	20677	I'll bug Holloway and let you know what he says.	I'll bug Holloway and let you know what he says.	986164	1471960555465	1471960555548	l	76
2040	20677	I'll bug Holloway and let you know what he says.	I'll bug Holloway and let you know what he says.	986167	1471960555624	1471960555746	o	79
2040	20677	I'll bug Holloway and let you know what he says.	I'll bug Holloway and let you know what he says.	986171	1471960555823	1471960555943	w	87
2040	20677	I'll bug Holloway and let you know what he says.	I'll bug Holloway and let you know what he says.	986175	1471960555982	1471960556142	a	65
2040	20677	I'll bug Holloway and let you know what he says.	I'll bug Holloway and let you know what he says.	986178	1471960556146	1471960556224	y	89
2040	20677	I'll bug Holloway and let you know what he says.	I'll bug Holloway and let you know what he says.	986181	1471960556227	1471960556347	 	32
2040	20677	I'll bug Holloway and let you know what he says.	I'll bug Holloway and let you know what he says.	986184	1471960556341	1471960556427	a	65
2040	20677	I'll bug Holloway and let you know what he says.	I'll bug Holloway and let you know what he says.	986186	1471960556430	1471960556512	n	78
2040	20677	I'll bug Holloway and let you know what he says.	I'll bug Holloway and let you know what he says.	986187	1471960556505	1471960556669	d	68
2040	20677	I'll bug Holloway and let you know what he says.	I'll bug Holloway and let you know what he says.	986188	1471960556586	1471960556710	 	32
2040	20677	I'll bug Holloway and let you know what he says.	I'll bug Holloway and let you know what he says.	986192	1471960556748	1471960556872	l	76
2040	20677	I'll bug Holloway and let you know what he says.	I'll bug Holloway and let you know what he says.	986195	1471960556866	1471960556990	e	69
2040	20677	I'll bug Holloway and let you know what he says.	I'll bug Holloway and let you know what he says.	986200	1471960556947	1471960557071	t	84
2040	20677	I'll bug Holloway and let you know what he says.	I'll bug Holloway and let you know what he says.	986211	1471960557028	1471960557152	 	32
2040	20677	I'll bug Holloway and let you know what he says.	I'll bug Holloway and let you know what he says.	986213	1471960557189	1471960557272	y	89
2040	20677	I'll bug Holloway and let you know what he says.	I'll bug Holloway and let you know what he says.	986216	1471960557275	1471960557353	o	79
2040	20677	I'll bug Holloway and let you know what he says.	I'll bug Holloway and let you know what he says.	986219	1471960557391	1471960557474	u	85
2040	20677	I'll bug Holloway and let you know what he says.	I'll bug Holloway and let you know what he says.	986221	1471960557430	1471960557594	 	32
2040	20677	I'll bug Holloway and let you know what he says.	I'll bug Holloway and let you know what he says.	986235	1471960557511	1471960557636	k	75
2040	20677	I'll bug Holloway and let you know what he says.	I'll bug Holloway and let you know what he says.	986238	1471960557751	1471960557835	n	78
2040	20677	I'll bug Holloway and let you know what he says.	I'll bug Holloway and let you know what he says.	986242	1471960557791	1471960557921	o	79
2040	20677	I'll bug Holloway and let you know what he says.	I'll bug Holloway and let you know what he says.	986246	1471960557912	1471960557957	w	87
2040	20677	I'll bug Holloway and let you know what he says.	I'll bug Holloway and let you know what he says.	986251	1471960557960	1471960558121	 	32
2040	20677	I'll bug Holloway and let you know what he says.	I'll bug Holloway and let you know what he says.	986261	1471960558113	1471960558237	w	87
2040	20677	I'll bug Holloway and let you know what he says.	I'll bug Holloway and let you know what he says.	986265	1471960558194	1471960558278	h	72
2040	20677	I'll bug Holloway and let you know what he says.	I'll bug Holloway and let you know what he says.	986269	1471960558316	1471960558438	a	65
2040	20677	I'll bug Holloway and let you know what he says.	I'll bug Holloway and let you know what he says.	986277	1471960558395	1471960558481	t	84
2040	20677	I'll bug Holloway and let you know what he says.	I'll bug Holloway and let you know what he says.	986278	1471960558441	1471960558561	 	32
2040	20677	I'll bug Holloway and let you know what he says.	I'll bug Holloway and let you know what he says.	986279	1471960558599	1471960558681	h	72
2040	20677	I'll bug Holloway and let you know what he says.	I'll bug Holloway and let you know what he says.	986285	1471960558719	1471960558801	e	69
2040	20677	I'll bug Holloway and let you know what he says.	I'll bug Holloway and let you know what he says.	986286	1471960558804	1471960558963	 	32
2040	20677	I'll bug Holloway and let you know what he says.	I'll bug Holloway and let you know what he says.	986287	1471960558957	1471960559043	s	83
2040	20677	I'll bug Holloway and let you know what he says.	I'll bug Holloway and let you know what he says.	986288	1471960558999	1471960559163	a	65
2040	20677	I'll bug Holloway and let you know what he says.	I'll bug Holloway and let you know what he says.	986338	1471960559119	1471960559207	y	89
2040	20677	I'll bug Holloway and let you know what he says.	I'll bug Holloway and let you know what he says.	986339	1471960559201	1471960559325	s	83
2040	20677	I'll bug Holloway and let you know what he says.	I'll bug Holloway and let you know what he says.	986340	1471960560226	1471960560270	.	190
2040	20693	The French diplomat meanwhile reiterated his condemnation.	The French diplomat meanwhile reiterated his condemnation.	986663	1471960568098	1471960568260	SHIFT	16
2040	20693	The French diplomat meanwhile reiterated his condemnation.	The French diplomat meanwhile reiterated his condemnation.	986665	1471960568216	1471960568301	T	84
2040	20693	The French diplomat meanwhile reiterated his condemnation.	The French diplomat meanwhile reiterated his condemnation.	986669	1471960568378	1471960568461	h	72
2040	20693	The French diplomat meanwhile reiterated his condemnation.	The French diplomat meanwhile reiterated his condemnation.	986671	1471960568418	1471960568503	e	69
2040	20693	The French diplomat meanwhile reiterated his condemnation.	The French diplomat meanwhile reiterated his condemnation.	986676	1471960568618	1471960568741	 	32
2040	20693	The French diplomat meanwhile reiterated his condemnation.	The French diplomat meanwhile reiterated his condemnation.	986681	1471960568697	1471960568861	SHIFT	16
2040	20693	The French diplomat meanwhile reiterated his condemnation.	The French diplomat meanwhile reiterated his condemnation.	986712	1471960568817	1471960568902	F	70
2040	20693	The French diplomat meanwhile reiterated his condemnation.	The French diplomat meanwhile reiterated his condemnation.	986718	1471960569018	1471960569141	r	82
2040	20693	The French diplomat meanwhile reiterated his condemnation.	The French diplomat meanwhile reiterated his condemnation.	986722	1471960569097	1471960569222	e	69
2040	20693	The French diplomat meanwhile reiterated his condemnation.	The French diplomat meanwhile reiterated his condemnation.	986726	1471960569178	1471960569305	n	78
2040	20693	The French diplomat meanwhile reiterated his condemnation.	The French diplomat meanwhile reiterated his condemnation.	986730	1471960569299	1471960569422	c	67
2040	20693	The French diplomat meanwhile reiterated his condemnation.	The French diplomat meanwhile reiterated his condemnation.	986733	1471960569425	1471960569543	h	72
2040	20693	The French diplomat meanwhile reiterated his condemnation.	The French diplomat meanwhile reiterated his condemnation.	986774	1471960569500	1471960569663	 	32
2040	20693	The French diplomat meanwhile reiterated his condemnation.	The French diplomat meanwhile reiterated his condemnation.	986776	1471960569740	1471960569861	d	68
2040	20693	The French diplomat meanwhile reiterated his condemnation.	The French diplomat meanwhile reiterated his condemnation.	986778	1471960569864	1471960569943	i	73
2040	20693	The French diplomat meanwhile reiterated his condemnation.	The French diplomat meanwhile reiterated his condemnation.	986780	1471960570293	1471960570376	p	80
2040	20693	The French diplomat meanwhile reiterated his condemnation.	The French diplomat meanwhile reiterated his condemnation.	986783	1471960570453	1471960570535	l	76
2040	20693	The French diplomat meanwhile reiterated his condemnation.	The French diplomat meanwhile reiterated his condemnation.	986785	1471960570612	1471960570656	o	79
2040	20693	The French diplomat meanwhile reiterated his condemnation.	The French diplomat meanwhile reiterated his condemnation.	986811	1471960570771	1471960570857	m	77
2040	20693	The French diplomat meanwhile reiterated his condemnation.	The French diplomat meanwhile reiterated his condemnation.	986812	1471960570850	1471960570935	a	65
2040	20693	The French diplomat meanwhile reiterated his condemnation.	The French diplomat meanwhile reiterated his condemnation.	986813	1471960571012	1471960571134	t	84
2040	20693	The French diplomat meanwhile reiterated his condemnation.	The French diplomat meanwhile reiterated his condemnation.	986815	1471960571091	1471960571254	 	32
2040	20693	The French diplomat meanwhile reiterated his condemnation.	The French diplomat meanwhile reiterated his condemnation.	986818	1471960571526	1471960571686	m	77
2040	20693	The French diplomat meanwhile reiterated his condemnation.	The French diplomat meanwhile reiterated his condemnation.	986829	1471960571644	1471960571769	e	69
2040	20693	The French diplomat meanwhile reiterated his condemnation.	The French diplomat meanwhile reiterated his condemnation.	986831	1471960571725	1471960571850	a	65
2040	20693	The French diplomat meanwhile reiterated his condemnation.	The French diplomat meanwhile reiterated his condemnation.	986832	1471960571806	1471960571891	n	78
2040	20693	The French diplomat meanwhile reiterated his condemnation.	The French diplomat meanwhile reiterated his condemnation.	986833	1471960571968	1471960572130	w	87
2040	20693	The French diplomat meanwhile reiterated his condemnation.	The French diplomat meanwhile reiterated his condemnation.	986834	1471960572047	1471960572136	h	72
2040	20693	The French diplomat meanwhile reiterated his condemnation.	The French diplomat meanwhile reiterated his condemnation.	986835	1471960572209	1471960572291	i	73
2040	20693	The French diplomat meanwhile reiterated his condemnation.	The French diplomat meanwhile reiterated his condemnation.	986873	1471960572407	1471960572532	l	76
2040	20693	The French diplomat meanwhile reiterated his condemnation.	The French diplomat meanwhile reiterated his condemnation.	986875	1471960572525	1471960572669	e	69
2040	20693	The French diplomat meanwhile reiterated his condemnation.	The French diplomat meanwhile reiterated his condemnation.	986878	1471960572626	1471960572789	 	32
2040	20693	The French diplomat meanwhile reiterated his condemnation.	The French diplomat meanwhile reiterated his condemnation.	986883	1471960572826	1471960573027	r	82
2040	20693	The French diplomat meanwhile reiterated his condemnation.	The French diplomat meanwhile reiterated his condemnation.	986884	1471960573188	1471960573349	e	69
2040	20693	The French diplomat meanwhile reiterated his condemnation.	The French diplomat meanwhile reiterated his condemnation.	986928	1471960573426	1471960573547	i	73
2040	20693	The French diplomat meanwhile reiterated his condemnation.	The French diplomat meanwhile reiterated his condemnation.	986931	1471960573828	1471960573950	t	84
2040	20693	The French diplomat meanwhile reiterated his condemnation.	The French diplomat meanwhile reiterated his condemnation.	986934	1471960573988	1471960574188	e	69
2040	20693	The French diplomat meanwhile reiterated his condemnation.	The French diplomat meanwhile reiterated his condemnation.	986936	1471960574106	1471960574230	r	82
2040	20693	The French diplomat meanwhile reiterated his condemnation.	The French diplomat meanwhile reiterated his condemnation.	986938	1471960574542	1471960574663	a	65
2040	20693	The French diplomat meanwhile reiterated his condemnation.	The French diplomat meanwhile reiterated his condemnation.	986949	1471960574740	1471960574862	t	84
2040	20693	The French diplomat meanwhile reiterated his condemnation.	The French diplomat meanwhile reiterated his condemnation.	986950	1471960574819	1471960574943	e	69
2040	20693	The French diplomat meanwhile reiterated his condemnation.	The French diplomat meanwhile reiterated his condemnation.	986954	1471960575019	1471960575142	d	68
2040	20693	The French diplomat meanwhile reiterated his condemnation.	The French diplomat meanwhile reiterated his condemnation.	986958	1471960575098	1471960575264	 	32
2040	20693	The French diplomat meanwhile reiterated his condemnation.	The French diplomat meanwhile reiterated his condemnation.	986972	1471960575258	1471960575421	h	72
2040	20693	The French diplomat meanwhile reiterated his condemnation.	The French diplomat meanwhile reiterated his condemnation.	986974	1471960575339	1471960575465	i	73
2040	20693	The French diplomat meanwhile reiterated his condemnation.	The French diplomat meanwhile reiterated his condemnation.	986976	1471960575459	1471960575543	s	83
2040	20693	The French diplomat meanwhile reiterated his condemnation.	The French diplomat meanwhile reiterated his condemnation.	986977	1471960575547	1471960575684	 	32
2040	20693	The French diplomat meanwhile reiterated his condemnation.	The French diplomat meanwhile reiterated his condemnation.	986978	1471960575621	1471960575766	c	67
2040	20693	The French diplomat meanwhile reiterated his condemnation.	The French diplomat meanwhile reiterated his condemnation.	987025	1471960575722	1471960575807	o	79
2040	20693	The French diplomat meanwhile reiterated his condemnation.	The French diplomat meanwhile reiterated his condemnation.	987026	1471960575923	1471960576044	n	78
2040	20693	The French diplomat meanwhile reiterated his condemnation.	The French diplomat meanwhile reiterated his condemnation.	987028	1471960576238	1471960576399	d	68
2040	20693	The French diplomat meanwhile reiterated his condemnation.	The French diplomat meanwhile reiterated his condemnation.	987030	1471960576317	1471960576479	e	69
2040	20693	The French diplomat meanwhile reiterated his condemnation.	The French diplomat meanwhile reiterated his condemnation.	987033	1471960576482	1471960576600	m	77
2040	20693	The French diplomat meanwhile reiterated his condemnation.	The French diplomat meanwhile reiterated his condemnation.	987037	1471960576950	1471960577075	n	78
2040	20693	The French diplomat meanwhile reiterated his condemnation.	The French diplomat meanwhile reiterated his condemnation.	987094	1471960577031	1471960577155	a	65
2040	20693	The French diplomat meanwhile reiterated his condemnation.	The French diplomat meanwhile reiterated his condemnation.	987099	1471960577193	1471960577315	t	84
2040	20693	The French diplomat meanwhile reiterated his condemnation.	The French diplomat meanwhile reiterated his condemnation.	987107	1471960577272	1471960577396	i	73
2040	20693	The French diplomat meanwhile reiterated his condemnation.	The French diplomat meanwhile reiterated his condemnation.	987112	1471960577353	1471960577453	o	79
2040	20693	The French diplomat meanwhile reiterated his condemnation.	The French diplomat meanwhile reiterated his condemnation.	987116	1471960577569	1471960577651	n	78
2040	20693	The French diplomat meanwhile reiterated his condemnation.	The French diplomat meanwhile reiterated his condemnation.	987121	1471960577963	1471960578085	.	190
2040	20713	Do you want to fax it to my hotel?	DO you want to fax it to my hotel>	987346	1471960582164	1471960582304	SHIFT	16
2040	20713	Do you want to fax it to my hotel?	DO you want to fax it to my hotel>	987348	1471960582243	1471960582343	D	68
2040	20713	Do you want to fax it to my hotel?	DO you want to fax it to my hotel>	987350	1471960582298	1471960582386	O	79
2040	20713	Do you want to fax it to my hotel?	DO you want to fax it to my hotel>	987353	1471960582346	1471960582488	 	32
2040	20713	Do you want to fax it to my hotel?	DO you want to fax it to my hotel>	987357	1471960582481	1471960582566	y	89
2040	20713	Do you want to fax it to my hotel?	DO you want to fax it to my hotel>	987361	1471960582603	1471960582689	o	79
2040	20713	Do you want to fax it to my hotel?	DO you want to fax it to my hotel>	987366	1471960582682	1471960582727	u	85
2040	20713	Do you want to fax it to my hotel?	DO you want to fax it to my hotel>	987369	1471960582730	1471960582887	 	32
2040	20713	Do you want to fax it to my hotel?	DO you want to fax it to my hotel>	987375	1471960582926	1471960583048	w	87
2040	20713	Do you want to fax it to my hotel?	DO you want to fax it to my hotel>	987380	1471960582965	1471960583089	a	65
2040	20713	Do you want to fax it to my hotel?	DO you want to fax it to my hotel>	987385	1471960583092	1471960583174	n	78
2040	20713	Do you want to fax it to my hotel?	DO you want to fax it to my hotel>	987425	1471960583167	1471960583251	t	84
2040	20713	Do you want to fax it to my hotel?	DO you want to fax it to my hotel>	987428	1471960583254	1471960583372	 	32
2040	20713	Do you want to fax it to my hotel?	DO you want to fax it to my hotel>	987431	1471960583329	1471960583413	t	84
2040	20713	Do you want to fax it to my hotel?	DO you want to fax it to my hotel>	987434	1471960583417	1471960583496	o	79
2040	20713	Do you want to fax it to my hotel?	DO you want to fax it to my hotel>	987437	1471960583452	1471960583615	 	32
2040	20713	Do you want to fax it to my hotel?	DO you want to fax it to my hotel>	987440	1471960583966	1471960584052	f	70
2040	20713	Do you want to fax it to my hotel?	DO you want to fax it to my hotel>	987494	1471960584045	1471960584208	a	65
2040	20713	Do you want to fax it to my hotel?	DO you want to fax it to my hotel>	987495	1471960584211	1471960584329	c	67
2040	20713	Do you want to fax it to my hotel?	DO you want to fax it to my hotel>	987499	1471960584285	1471960584449	 	32
2040	20713	Do you want to fax it to my hotel?	DO you want to fax it to my hotel>	987503	1471960585036	1471960585118	BKSP	8
2040	20713	Do you want to fax it to my hotel?	DO you want to fax it to my hotel>	987508	1471960585195	1471960585278	BKSP	8
2040	20713	Do you want to fax it to my hotel?	DO you want to fax it to my hotel>	987511	1471960585511	1471960585633	x	88
2040	20713	Do you want to fax it to my hotel?	DO you want to fax it to my hotel>	987513	1471960585590	1471960585753	 	32
2040	20713	Do you want to fax it to my hotel?	DO you want to fax it to my hotel>	987516	1471960585791	1471960585876	i	73
2040	20713	Do you want to fax it to my hotel?	DO you want to fax it to my hotel>	987522	1471960585870	1471960585994	t	84
2040	20713	Do you want to fax it to my hotel?	DO you want to fax it to my hotel>	987523	1471960585950	1471960586075	 	32
2040	20713	Do you want to fax it to my hotel?	DO you want to fax it to my hotel>	987524	1471960586112	1471960586234	t	84
2040	20713	Do you want to fax it to my hotel?	DO you want to fax it to my hotel>	987525	1471960586191	1471960586277	o	79
2040	20713	Do you want to fax it to my hotel?	DO you want to fax it to my hotel>	987527	1471960586237	1471960586357	 	32
2040	20713	Do you want to fax it to my hotel?	DO you want to fax it to my hotel>	987530	1471960586434	1471960586479	m	77
2040	20713	Do you want to fax it to my hotel?	DO you want to fax it to my hotel>	987557	1471960586515	1471960586597	y	89
2040	20713	Do you want to fax it to my hotel?	DO you want to fax it to my hotel>	987559	1471960586600	1471960586721	 	32
2040	20713	Do you want to fax it to my hotel?	DO you want to fax it to my hotel>	987561	1471960586714	1471960586838	h	72
2040	20713	Do you want to fax it to my hotel?	DO you want to fax it to my hotel>	987562	1471960586876	1471960587040	o	79
2040	20713	Do you want to fax it to my hotel?	DO you want to fax it to my hotel>	987584	1471960586993	1471960587079	t	84
2040	20713	Do you want to fax it to my hotel?	DO you want to fax it to my hotel>	987586	1471960587033	1471960587159	e	69
2040	20713	Do you want to fax it to my hotel?	DO you want to fax it to my hotel>	987589	1471960587162	1471960587279	l	76
2040	20713	Do you want to fax it to my hotel?	DO you want to fax it to my hotel>	987594	1471960587282	1471960587525	SHIFT	16
2040	20713	Do you want to fax it to my hotel?	DO you want to fax it to my hotel>	987592	1471960587435	1471960587518	>	190
2040	20721	I need to go to Stan's office.	I need to go to Stan's office.	987764	1471960590547	1471960590764	SHIFT	16
2040	20721	I need to go to Stan's office.	I need to go to Stan's office.	987759	1471960590626	1471960590749	I	73
2040	20721	I need to go to Stan's office.	I need to go to Stan's office.	987768	1471960590705	1471960590831	 	32
2040	20721	I need to go to Stan's office.	I need to go to Stan's office.	987772	1471960590908	1471960590954	n	78
2040	20721	I need to go to Stan's office.	I need to go to Stan's office.	987778	1471960590948	1471960591072	e	69
2040	20721	I need to go to Stan's office.	I need to go to Stan's office.	987782	1471960591149	1471960591231	e	69
2040	20721	I need to go to Stan's office.	I need to go to Stan's office.	987791	1471960591347	1471960591469	d	68
2040	20721	I need to go to Stan's office.	I need to go to Stan's office.	987793	1471960591426	1471960591553	 	32
2040	20721	I need to go to Stan's office.	I need to go to Stan's office.	987797	1471960591546	1471960591639	t	84
2040	20721	I need to go to Stan's office.	I need to go to Stan's office.	987800	1471960591642	1471960591721	o	79
2040	20721	I need to go to Stan's office.	I need to go to Stan's office.	987835	1471960591679	1471960591841	 	32
2040	20721	I need to go to Stan's office.	I need to go to Stan's office.	987839	1471960591996	1471960592118	g	71
2040	20721	I need to go to Stan's office.	I need to go to Stan's office.	987844	1471960592075	1471960592160	o	79
2040	20721	I need to go to Stan's office.	I need to go to Stan's office.	987847	1471960592121	1471960592244	 	32
2040	20721	I need to go to Stan's office.	I need to go to Stan's office.	987851	1471960592237	1471960592322	t	84
2040	20721	I need to go to Stan's office.	I need to go to Stan's office.	987854	1471960592360	1471960592462	o	79
2040	20721	I need to go to Stan's office.	I need to go to Stan's office.	987923	1471960592419	1471960592621	 	32
2040	20721	I need to go to Stan's office.	I need to go to Stan's office.	987925	1471960592776	1471960593016	SHIFT	16
2040	20721	I need to go to Stan's office.	I need to go to Stan's office.	987928	1471960592972	1471960593057	S	83
2040	20721	I need to go to Stan's office.	I need to go to Stan's office.	987931	1471960593134	1471960593225	t	84
2040	20721	I need to go to Stan's office.	I need to go to Stan's office.	987933	1471960593302	1471960593463	a	65
2040	20721	I need to go to Stan's office.	I need to go to Stan's office.	987935	1471960593420	1471960593505	n	78
2040	20721	I need to go to Stan's office.	I need to go to Stan's office.	987937	1471960593699	1471960593824	'	222
2040	20721	I need to go to Stan's office.	I need to go to Stan's office.	987968	1471960593817	1471960593981	s	83
2040	20721	I need to go to Stan's office.	I need to go to Stan's office.	987971	1471960593937	1471960594100	 	32
2040	20721	I need to go to Stan's office.	I need to go to Stan's office.	987974	1471960594138	1471960594263	o	79
2040	20721	I need to go to Stan's office.	I need to go to Stan's office.	987979	1471960594256	1471960594310	f	70
2040	20721	I need to go to Stan's office.	I need to go to Stan's office.	987983	1471960594387	1471960594509	f	70
2040	20721	I need to go to Stan's office.	I need to go to Stan's office.	987987	1471960594586	1471960594713	i	73
2040	20721	I need to go to Stan's office.	I need to go to Stan's office.	988088	1471960594703	1471960594915	v	67
2040	20721	I need to go to Stan's office.	I need to go to Stan's office.	988091	1471960595148	1471960595192	BKSP	8
2040	20721	I need to go to Stan's office.	I need to go to Stan's office.	988094	1471960595660	1471960595782	e	69
2040	20721	I need to go to Stan's office.	I need to go to Stan's office.	988098	1471960595820	1471960595902	/	191
2040	20721	I need to go to Stan's office.	I need to go to Stan's office.	988103	1471960596331	1471960596414	BKSP	8
2040	20721	I need to go to Stan's office.	I need to go to Stan's office.	988106	1471960596804	1471960596886	.	190
2040	20731	This has now become the most pressing story in the capital.	This has now become the most pressing story in the capital.	988511	1471960604715	1471960604879	SHIFT	16
2040	20731	This has now become the most pressing story in the capital.	This has now become the most pressing story in the capital.	988508	1471960604794	1471960604838	T	84
2040	20731	This has now become the most pressing story in the capital.	This has now become the most pressing story in the capital.	988514	1471960604995	1471960605078	h	72
2040	20731	This has now become the most pressing story in the capital.	This has now become the most pressing story in the capital.	988517	1471960605035	1471960605166	i	73
2040	20731	This has now become the most pressing story in the capital.	This has now become the most pressing story in the capital.	988521	1471960605160	1471960605323	s	83
2040	20731	This has now become the most pressing story in the capital.	This has now become the most pressing story in the capital.	988553	1471960605201	1471960605384	 	32
2040	20731	This has now become the most pressing story in the capital.	This has now become the most pressing story in the capital.	988554	1471960605421	1471960605465	h	72
2040	20731	This has now become the most pressing story in the capital.	This has now become the most pressing story in the capital.	988556	1471960605933	1471960606095	a	65
2040	20731	This has now become the most pressing story in the capital.	This has now become the most pressing story in the capital.	988558	1471960606012	1471960606214	s	83
2040	20731	This has now become the most pressing story in the capital.	This has now become the most pressing story in the capital.	988562	1471960606252	1471960606374	 	32
2040	20731	This has now become the most pressing story in the capital.	This has now become the most pressing story in the capital.	988565	1471960606450	1471960606534	n	78
2040	20731	This has now become the most pressing story in the capital.	This has now become the most pressing story in the capital.	988586	1471960606490	1471960606621	o	79
2040	20731	This has now become the most pressing story in the capital.	This has now become the most pressing story in the capital.	988589	1471960606611	1471960606695	w	87
2040	20731	This has now become the most pressing story in the capital.	This has now become the most pressing story in the capital.	988592	1471960606698	1471960606816	 	32
2040	20731	This has now become the most pressing story in the capital.	This has now become the most pressing story in the capital.	988595	1471960606892	1471960607015	b	66
2040	20731	This has now become the most pressing story in the capital.	This has now become the most pressing story in the capital.	988600	1471960606971	1471960607056	e	69
2040	20731	This has now become the most pressing story in the capital.	This has now become the most pressing story in the capital.	988603	1471960607133	1471960607294	c	67
2040	20731	This has now become the most pressing story in the capital.	This has now become the most pressing story in the capital.	988629	1471960607251	1471960607336	o	79
2040	20731	This has now become the most pressing story in the capital.	This has now become the most pressing story in the capital.	988632	1471960607647	1471960607733	m	77
2040	20731	This has now become the most pressing story in the capital.	This has now become the most pressing story in the capital.	988635	1471960607726	1471960607851	e	69
2040	20731	This has now become the most pressing story in the capital.	This has now become the most pressing story in the capital.	988638	1471960607807	1471960607934	 	32
2040	20731	This has now become the most pressing story in the capital.	This has now become the most pressing story in the capital.	988640	1471960607928	1471960608012	t	84
2040	20731	This has now become the most pressing story in the capital.	This has now become the most pressing story in the capital.	988642	1471960608050	1471960608093	h	72
2040	20731	This has now become the most pressing story in the capital.	This has now become the most pressing story in the capital.	988644	1471960608170	1471960608292	e	69
2040	20731	This has now become the most pressing story in the capital.	This has now become the most pressing story in the capital.	988647	1471960608249	1471960608396	 	32
2040	20731	This has now become the most pressing story in the capital.	This has now become the most pressing story in the capital.	988650	1471960608330	1471960608448	m	77
2040	20731	This has now become the most pressing story in the capital.	This has now become the most pressing story in the capital.	988675	1471960608389	1471960608527	o	79
2040	20731	This has now become the most pressing story in the capital.	This has now become the most pressing story in the capital.	988677	1471960608443	1471960608568	s	83
2040	20731	This has now become the most pressing story in the capital.	This has now become the most pressing story in the capital.	988679	1471960608571	1471960608689	t	84
2040	20731	This has now become the most pressing story in the capital.	This has now become the most pressing story in the capital.	988681	1471960608645	1471960608821	 	32
2040	20731	This has now become the most pressing story in the capital.	This has now become the most pressing story in the capital.	988684	1471960608726	1471960608860	p	80
2040	20731	This has now become the most pressing story in the capital.	This has now become the most pressing story in the capital.	988688	1471960608814	1471960608941	r	82
2040	20731	This has now become the most pressing story in the capital.	This has now become the most pressing story in the capital.	988703	1471960608897	1471960608983	e	69
2040	20731	This has now become the most pressing story in the capital.	This has now become the most pressing story in the capital.	988705	1471960609098	1471960609142	s	83
2040	20731	This has now become the most pressing story in the capital.	This has now become the most pressing story in the capital.	988708	1471960609219	1471960609301	s	83
2040	20731	This has now become the most pressing story in the capital.	This has now become the most pressing story in the capital.	988712	1471960609377	1471960609422	i	83
2040	20731	This has now become the most pressing story in the capital.	This has now become the most pressing story in the capital.	988717	1471960609579	1471960609626	n	78
2040	20731	This has now become the most pressing story in the capital.	This has now become the most pressing story in the capital.	988735	1471960609619	1471960609704	g	71
2040	20731	This has now become the most pressing story in the capital.	This has now become the most pressing story in the capital.	988746	1471960609741	1471960609870	 	32
2040	20731	This has now become the most pressing story in the capital.	This has now become the most pressing story in the capital.	988740	1471960609781	1471960609864	s	83
2040	20731	This has now become the most pressing story in the capital.	This has now become the most pressing story in the capital.	988750	1471960609943	1471960610025	t	84
2040	20731	This has now become the most pressing story in the capital.	This has now become the most pressing story in the capital.	988754	1471960610028	1471960610188	o	79
2040	20731	This has now become the most pressing story in the capital.	This has now become the most pressing story in the capital.	988975	1471960610181	1471960610305	r	82
2040	20731	This has now become the most pressing story in the capital.	This has now become the most pressing story in the capital.	988977	1471960610308	1471960610465	y	89
2040	20731	This has now become the most pressing story in the capital.	This has now become the most pressing story in the capital.	988979	1471960610422	1471960610585	 	32
2040	20731	This has now become the most pressing story in the capital.	This has now become the most pressing story in the capital.	988980	1471960612864	1471960612952	BKSP	8
2040	20731	This has now become the most pressing story in the capital.	This has now become the most pressing story in the capital.	988981	1471960614085	1471960614168	i	73
2040	20731	This has now become the most pressing story in the capital.	This has now become the most pressing story in the capital.	988982	1471960614245	1471960614370	n	78
2040	20731	This has now become the most pressing story in the capital.	This has now become the most pressing story in the capital.	989023	1471960614324	1471960614409	 	32
2040	20731	This has now become the most pressing story in the capital.	This has now become the most pressing story in the capital.	989026	1471960614364	1471960614490	t	84
2040	20731	This has now become the most pressing story in the capital.	This has now become the most pressing story in the capital.	989028	1471960614801	1471960614884	h	72
2040	20731	This has now become the most pressing story in the capital.	This has now become the most pressing story in the capital.	989033	1471960614922	1471960615024	e	69
2040	20731	This has now become the most pressing story in the capital.	This has now become the most pressing story in the capital.	989036	1471960614981	1471960615144	 	32
2040	20731	This has now become the most pressing story in the capital.	This has now become the most pressing story in the capital.	989039	1471960615181	1471960615343	c	67
2040	20731	This has now become the most pressing story in the capital.	This has now become the most pressing story in the capital.	989066	1471960615299	1471960615463	a	65
2040	20731	This has now become the most pressing story in the capital.	This has now become the most pressing story in the capital.	989069	1471960615420	1471960615544	p	80
2040	20731	This has now become the most pressing story in the capital.	This has now become the most pressing story in the capital.	989071	1471960615581	1471960615663	t	84
2040	20731	This has now become the most pressing story in the capital.	This has now become the most pressing story in the capital.	989074	1471960615667	1471960615784	i	73
2040	20731	This has now become the most pressing story in the capital.	This has now become the most pressing story in the capital.	989075	1471960616057	1471960616179	a	65
2040	20731	This has now become the most pressing story in the capital.	This has now become the most pressing story in the capital.	989259	1471960616135	1471960616220	l	76
2040	20731	This has now become the most pressing story in the capital.	This has now become the most pressing story in the capital.	989262	1471960617043	1471960617126	BKSP	8
2040	20731	This has now become the most pressing story in the capital.	This has now become the most pressing story in the capital.	989264	1471960617202	1471960617285	BKSP	8
2040	20731	This has now become the most pressing story in the capital.	This has now become the most pressing story in the capital.	989268	1471960618974	1471960619096	a	65
2040	20731	This has now become the most pressing story in the capital.	This has now become the most pressing story in the capital.	989273	1471960619486	1471960619569	BKSP	8
2040	20731	This has now become the most pressing story in the capital.	This has now become the most pressing story in the capital.	989277	1471960619685	1471960619767	BKSP	8
2040	20731	This has now become the most pressing story in the capital.	This has now become the most pressing story in the capital.	989281	1471960619883	1471960619926	BKSP	8
2040	20731	This has now become the most pressing story in the capital.	This has now become the most pressing story in the capital.	989285	1471960620434	1471960620556	i	73
2040	20731	This has now become the most pressing story in the capital.	This has now become the most pressing story in the capital.	989289	1471960620513	1471960620679	t	84
2040	20731	This has now become the most pressing story in the capital.	This has now become the most pressing story in the capital.	989291	1471960620635	1471960620799	a	65
2040	20731	This has now become the most pressing story in the capital.	This has now become the most pressing story in the capital.	989293	1471960620755	1471960620840	l	76
2040	20731	This has now become the most pressing story in the capital.	This has now become the most pressing story in the capital.	989294	1471960620995	1471960621078	.	190
2040	20757	Please feel free to add to it if I missed something.	Please feel free to add to it if I missed something.	989569	1471960626269	1471960626433	SHIFT	16
2040	20757	Please feel free to add to it if I missed something.	Please feel free to add to it if I missed something.	989565	1471960626348	1471960626391	P	80
2040	20757	Please feel free to add to it if I missed something.	Please feel free to add to it if I missed something.	989572	1471960626549	1471960626632	l	76
2040	20757	Please feel free to add to it if I missed something.	Please feel free to add to it if I missed something.	989575	1471960626588	1471960626752	e	69
2040	20757	Please feel free to add to it if I missed something.	Please feel free to add to it if I missed something.	989579	1471960626708	1471960626872	a	65
2040	20757	Please feel free to add to it if I missed something.	Please feel free to add to it if I missed something.	989582	1471960627027	1471960627192	s	83
2040	20757	Please feel free to add to it if I missed something.	Please feel free to add to it if I missed something.	989597	1471960627196	1471960627273	e	69
2040	20757	Please feel free to add to it if I missed something.	Please feel free to add to it if I missed something.	989599	1471960627311	1471960627435	 	32
2040	20757	Please feel free to add to it if I missed something.	Please feel free to add to it if I missed something.	989605	1471960627429	1471960627592	f	70
2040	20757	Please feel free to add to it if I missed something.	Please feel free to add to it if I missed something.	989608	1471960627549	1471960627634	e	69
2040	20757	Please feel free to add to it if I missed something.	Please feel free to add to it if I missed something.	989612	1471960627711	1471960627832	e	69
2040	20757	Please feel free to add to it if I missed something.	Please feel free to add to it if I missed something.	989630	1471960627909	1471960628031	l	76
2040	20757	Please feel free to add to it if I missed something.	Please feel free to add to it if I missed something.	989641	1471960628068	1471960628245	 	32
2040	20757	Please feel free to add to it if I missed something.	Please feel free to add to it if I missed something.	989634	1471960628156	1471960628239	f	70
2040	20757	Please feel free to add to it if I missed something.	Please feel free to add to it if I missed something.	989644	1471960628396	1471960628486	r	82
2040	20757	Please feel free to add to it if I missed something.	Please feel free to add to it if I missed something.	989664	1471960628442	1471960628533	e	69
2040	20757	Please feel free to add to it if I missed something.	Please feel free to add to it if I missed something.	989666	1471960628649	1471960628732	e	69
2040	20757	Please feel free to add to it if I missed something.	Please feel free to add to it if I missed something.	989669	1471960629122	1471960629244	 	32
2040	20757	Please feel free to add to it if I missed something.	Please feel free to add to it if I missed something.	989672	1471960629200	1471960629324	t	84
2040	20757	Please feel free to add to it if I missed something.	Please feel free to add to it if I missed something.	989674	1471960629327	1471960629444	o	79
2040	20757	Please feel free to add to it if I missed something.	Please feel free to add to it if I missed something.	989693	1471960629402	1471960629546	 	32
2040	20757	Please feel free to add to it if I missed something.	Please feel free to add to it if I missed something.	989694	1471960629483	1471960629666	a	65
2040	20757	Please feel free to add to it if I missed something.	Please feel free to add to it if I missed something.	989695	1471960629742	1471960629825	d	68
2040	20757	Please feel free to add to it if I missed something.	Please feel free to add to it if I missed something.	989697	1471960629941	1471960630063	d	68
2040	20757	Please feel free to add to it if I missed something.	Please feel free to add to it if I missed something.	989699	1471960630100	1471960630225	 	32
2040	20757	Please feel free to add to it if I missed something.	Please feel free to add to it if I missed something.	989729	1471960630218	1471960630311	t	84
2040	20757	Please feel free to add to it if I missed something.	Please feel free to add to it if I missed something.	989731	1471960630314	1471960630432	o	79
2040	20757	Please feel free to add to it if I missed something.	Please feel free to add to it if I missed something.	989738	1471960630389	1471960630591	 	32
2040	20757	Please feel free to add to it if I missed something.	Please feel free to add to it if I missed something.	989744	1471960630707	1471960630830	i	73
2040	20757	Please feel free to add to it if I missed something.	Please feel free to add to it if I missed something.	989748	1471960630786	1471960630910	t	84
2040	20757	Please feel free to add to it if I missed something.	Please feel free to add to it if I missed something.	989752	1471960630913	1471960631070	 	32
2040	20757	Please feel free to add to it if I missed something.	Please feel free to add to it if I missed something.	989810	1471960631342	1471960631464	i	73
2040	20757	Please feel free to add to it if I missed something.	Please feel free to add to it if I missed something.	989816	1471960631501	1471960631632	f	70
2040	20757	Please feel free to add to it if I missed something.	Please feel free to add to it if I missed something.	989821	1471960631580	1471960631751	 	32
2040	20757	Please feel free to add to it if I missed something.	Please feel free to add to it if I missed something.	989826	1471960631789	1471960631911	a	65
2040	20757	Please feel free to add to it if I missed something.	Please feel free to add to it if I missed something.	989833	1471960632184	1471960632306	BKSP	8
2040	20757	Please feel free to add to it if I missed something.	Please feel free to add to it if I missed something.	989837	1471960632421	1471960632586	SHIFT	16
2040	20757	Please feel free to add to it if I missed something.	Please feel free to add to it if I missed something.	989859	1471960632500	1471960632625	I	73
2040	20757	Please feel free to add to it if I missed something.	Please feel free to add to it if I missed something.	989861	1471960632579	1471960632784	 	32
2040	20757	Please feel free to add to it if I missed something.	Please feel free to add to it if I missed something.	989864	1471960632900	1471960632982	m	77
2040	20757	Please feel free to add to it if I missed something.	Please feel free to add to it if I missed something.	989874	1471960633059	1471960633188	i	73
2040	20757	Please feel free to add to it if I missed something.	Please feel free to add to it if I missed something.	989868	1471960633138	1471960633182	s	83
2040	20757	Please feel free to add to it if I missed something.	Please feel free to add to it if I missed something.	989881	1471960633260	1471960633421	s	83
2040	20757	Please feel free to add to it if I missed something.	Please feel free to add to it if I missed something.	989886	1471960633424	1471960633502	e	69
2040	20757	Please feel free to add to it if I missed something.	Please feel free to add to it if I missed something.	989922	1471960633657	1471960633740	d	68
2040	20757	Please feel free to add to it if I missed something.	Please feel free to add to it if I missed something.	989925	1471960633697	1471960633863	 	32
2040	20757	Please feel free to add to it if I missed something.	Please feel free to add to it if I missed something.	989926	1471960633857	1471960634020	s	83
2040	20757	Please feel free to add to it if I missed something.	Please feel free to add to it if I missed something.	989928	1471960633937	1471960634027	o	79
2040	20757	Please feel free to add to it if I missed something.	Please feel free to add to it if I missed something.	989930	1471960634138	1471960634300	m	77
2040	20757	Please feel free to add to it if I missed something.	Please feel free to add to it if I missed something.	989943	1471960634256	1471960634380	e	69
2040	20757	Please feel free to add to it if I missed something.	Please feel free to add to it if I missed something.	989947	1471960634418	1471960634580	t	84
2040	20757	Please feel free to add to it if I missed something.	Please feel free to add to it if I missed something.	989950	1471960634497	1471960634586	h	72
2040	20757	Please feel free to add to it if I missed something.	Please feel free to add to it if I missed something.	989953	1471960634536	1471960634624	i	73
2040	20757	Please feel free to add to it if I missed something.	Please feel free to add to it if I missed something.	989957	1471960634700	1471960634786	n	78
2040	20757	Please feel free to add to it if I missed something.	Please feel free to add to it if I missed something.	989970	1471960634779	1471960634903	g	71
2040	20757	Please feel free to add to it if I missed something.	Please feel free to add to it if I missed something.	989973	1471960634980	1471960635063	.	190
2040	20771	The partial list announcement came.	The partial list announcement came.	990214	1471960638771	1471960638933	SHIFT	16
2040	20771	The partial list announcement came.	The partial list announcement came.	990218	1471960638889	1471960638974	T	84
2040	20771	The partial list announcement came.	The partial list announcement came.	990222	1471960639090	1471960639136	h	72
2040	20771	The partial list announcement came.	The partial list announcement came.	990227	1471960639130	1471960639274	e	69
2040	20771	The partial list announcement came.	The partial list announcement came.	990231	1471960639230	1471960639393	 	32
2040	20771	The partial list announcement came.	The partial list announcement came.	990344	1471960639350	1471960639438	p	80
2040	20771	The partial list announcement came.	The partial list announcement came.	990346	1471960639432	1471960639556	a	65
2040	20771	The partial list announcement came.	The partial list announcement came.	990352	1471960639632	1471960639754	r	82
2040	20771	The partial list announcement came.	The partial list announcement came.	990354	1471960639870	1471960640070	t	84
2040	20771	The partial list announcement came.	The partial list announcement came.	990358	1471960641602	1471960641696	i	73
2040	20771	The partial list announcement came.	The partial list announcement came.	990363	1471960641735	1471960641856	a	65
2040	20771	The partial list announcement came.	The partial list announcement came.	990378	1471960641860	1471960641977	l	76
2040	20771	The partial list announcement came.	The partial list announcement came.	990382	1471960641934	1471960642098	 	32
2040	20771	The partial list announcement came.	The partial list announcement came.	990387	1471960642055	1471960642178	l	76
2040	20771	The partial list announcement came.	The partial list announcement came.	990392	1471960642255	1471960642340	i	73
2040	20771	The partial list announcement came.	The partial list announcement came.	990434	1471960642334	1471960642419	s	83
2040	20771	The partial list announcement came.	The partial list announcement came.	990439	1471960642495	1471960642578	t	84
2040	20771	The partial list announcement came.	The partial list announcement came.	990443	1471960642581	1471960642699	 	32
2040	20771	The partial list announcement came.	The partial list announcement came.	990446	1471960642655	1471960642819	a	65
2040	20771	The partial list announcement came.	The partial list announcement came.	990450	1471960642973	1471960643056	n	78
2040	20771	The partial list announcement came.	The partial list announcement came.	990453	1471960643133	1471960643216	n	78
2040	20771	The partial list announcement came.	The partial list announcement came.	990465	1471960643331	1471960643440	o	79
2040	20771	The partial list announcement came.	The partial list announcement came.	990466	1471960643382	1471960643482	u	85
2040	20771	The partial list announcement came.	The partial list announcement came.	990467	1471960643598	1471960643720	n	78
2040	20771	The partial list announcement came.	The partial list announcement came.	990468	1471960643676	1471960643878	c	67
2040	20771	The partial list announcement came.	The partial list announcement came.	990497	1471960643797	1471960643920	e	69
2040	20771	The partial list announcement came.	The partial list announcement came.	990500	1471960643881	1471960643962	m	77
2040	20771	The partial list announcement came.	The partial list announcement came.	990505	1471960644038	1471960644171	e	69
2040	20771	The partial list announcement came.	The partial list announcement came.	990510	1471960644128	1471960644255	n	78
2040	20771	The partial list announcement came.	The partial list announcement came.	990514	1471960644249	1471960644372	t	84
2040	20771	The partial list announcement came.	The partial list announcement came.	990518	1471960644375	1471960644532	 	32
2040	20771	The partial list announcement came.	The partial list announcement came.	990537	1471960644961	1471960645125	c	67
2040	20771	The partial list announcement came.	The partial list announcement came.	990539	1471960645119	1471960645245	a	65
2040	20771	The partial list announcement came.	The partial list announcement came.	990541	1471960645199	1471960645329	m	77
2040	20771	The partial list announcement came.	The partial list announcement came.	990543	1471960645322	1471960645407	e	69
2040	20771	The partial list announcement came.	The partial list announcement came.	990544	1471960645483	1471960645566	.	190
2040	20783	Rothenberg said the trend in Europe was away from fencing.	Rothenberg said the trend in Europe was away from fencing.	990746	1471960650955	1471960651085	SHIFT	16
2040	20783	Rothenberg said the trend in Europe was away from fencing.	Rothenberg said the trend in Europe was away from fencing.	990748	1471960651042	1471960651166	R	82
2040	20783	Rothenberg said the trend in Europe was away from fencing.	Rothenberg said the trend in Europe was away from fencing.	990749	1471960651204	1471960651289	o	79
2040	20783	Rothenberg said the trend in Europe was away from fencing.	Rothenberg said the trend in Europe was away from fencing.	990750	1471960651283	1471960651367	t	84
2040	20783	Rothenberg said the trend in Europe was away from fencing.	Rothenberg said the trend in Europe was away from fencing.	990752	1471960651405	1471960651488	h	72
2040	20783	Rothenberg said the trend in Europe was away from fencing.	Rothenberg said the trend in Europe was away from fencing.	990780	1471960651445	1471960651569	e	69
2040	20783	Rothenberg said the trend in Europe was away from fencing.	Rothenberg said the trend in Europe was away from fencing.	990785	1471960651606	1471960651689	n	78
2040	20783	Rothenberg said the trend in Europe was away from fencing.	Rothenberg said the trend in Europe was away from fencing.	990791	1471960651844	1471960651965	b	66
2040	20783	Rothenberg said the trend in Europe was away from fencing.	Rothenberg said the trend in Europe was away from fencing.	990796	1471960651968	1471960652125	u	85
2040	20783	Rothenberg said the trend in Europe was away from fencing.	Rothenberg said the trend in Europe was away from fencing.	990801	1471960652280	1471960652363	r	82
2040	20783	Rothenberg said the trend in Europe was away from fencing.	Rothenberg said the trend in Europe was away from fencing.	990804	1471960652480	1471960652602	g	71
2040	20783	Rothenberg said the trend in Europe was away from fencing.	Rothenberg said the trend in Europe was away from fencing.	990938	1471960652639	1471960652800	 	32
2040	20783	Rothenberg said the trend in Europe was away from fencing.	Rothenberg said the trend in Europe was away from fencing.	990942	1471960652838	1471960652999	s	83
2040	20783	Rothenberg said the trend in Europe was away from fencing.	Rothenberg said the trend in Europe was away from fencing.	990947	1471960652916	1471960653080	a	65
2040	20783	Rothenberg said the trend in Europe was away from fencing.	Rothenberg said the trend in Europe was away from fencing.	990948	1471960653509	1471960653592	BKSP	8
2040	20783	Rothenberg said the trend in Europe was away from fencing.	Rothenberg said the trend in Europe was away from fencing.	990951	1471960653864	1471960653947	BKSP	8
2040	20783	Rothenberg said the trend in Europe was away from fencing.	Rothenberg said the trend in Europe was away from fencing.	990956	1471960654337	1471960654419	BKSP	8
2040	20783	Rothenberg said the trend in Europe was away from fencing.	Rothenberg said the trend in Europe was away from fencing.	990963	1471960654535	1471960654579	BKSP	8
2040	20783	Rothenberg said the trend in Europe was away from fencing.	Rothenberg said the trend in Europe was away from fencing.	990972	1471960654694	1471960654738	BKSP	8
2040	20783	Rothenberg said the trend in Europe was away from fencing.	Rothenberg said the trend in Europe was away from fencing.	990977	1471960655010	1471960655054	BKSP	8
2040	20783	Rothenberg said the trend in Europe was away from fencing.	Rothenberg said the trend in Europe was away from fencing.	990983	1471960655209	1471960655369	e	69
2040	20783	Rothenberg said the trend in Europe was away from fencing.	Rothenberg said the trend in Europe was away from fencing.	990991	1471960655373	1471960655529	r	82
2040	20783	Rothenberg said the trend in Europe was away from fencing.	Rothenberg said the trend in Europe was away from fencing.	991030	1471960655841	1471960655963	g	71
2040	20783	Rothenberg said the trend in Europe was away from fencing.	Rothenberg said the trend in Europe was away from fencing.	991037	1471960656039	1471960656200	 	32
2040	20783	Rothenberg said the trend in Europe was away from fencing.	Rothenberg said the trend in Europe was away from fencing.	991045	1471960656355	1471960656517	s	83
2040	20783	Rothenberg said the trend in Europe was away from fencing.	Rothenberg said the trend in Europe was away from fencing.	991049	1471960656434	1471960656598	a	65
2040	20783	Rothenberg said the trend in Europe was away from fencing.	Rothenberg said the trend in Europe was away from fencing.	991407	1471960656554	1471960656678	i	73
2040	20783	Rothenberg said the trend in Europe was away from fencing.	Rothenberg said the trend in Europe was away from fencing.	991410	1471960656931	1471960657014	BKSP	8
2040	20783	Rothenberg said the trend in Europe was away from fencing.	Rothenberg said the trend in Europe was away from fencing.	991411	1471960657325	1471960657408	BKSP	8
2040	20783	Rothenberg said the trend in Europe was away from fencing.	Rothenberg said the trend in Europe was away from fencing.	991412	1471960662876	1471960662997	a	65
2040	20783	Rothenberg said the trend in Europe was away from fencing.	Rothenberg said the trend in Europe was away from fencing.	991414	1471960663000	1471960663121	i	73
2040	20783	Rothenberg said the trend in Europe was away from fencing.	Rothenberg said the trend in Europe was away from fencing.	991418	1471960663114	1471960663244	d	68
2040	20783	Rothenberg said the trend in Europe was away from fencing.	Rothenberg said the trend in Europe was away from fencing.	991422	1471960663247	1471960663368	 	32
2040	20783	Rothenberg said the trend in Europe was away from fencing.	Rothenberg said the trend in Europe was away from fencing.	991439	1471960663361	1471960663485	t	84
2040	20783	Rothenberg said the trend in Europe was away from fencing.	Rothenberg said the trend in Europe was away from fencing.	991441	1471960663488	1471960663569	h	72
2040	20783	Rothenberg said the trend in Europe was away from fencing.	Rothenberg said the trend in Europe was away from fencing.	991445	1471960663563	1471960663647	e	69
2040	20783	Rothenberg said the trend in Europe was away from fencing.	Rothenberg said the trend in Europe was away from fencing.	991448	1471960663650	1471960663810	 	32
2040	20783	Rothenberg said the trend in Europe was away from fencing.	Rothenberg said the trend in Europe was away from fencing.	991452	1471960663803	1471960663888	t	84
2040	20783	Rothenberg said the trend in Europe was away from fencing.	Rothenberg said the trend in Europe was away from fencing.	991456	1471960664043	1471960664204	r	82
2040	20783	Rothenberg said the trend in Europe was away from fencing.	Rothenberg said the trend in Europe was away from fencing.	991478	1471960664083	1471960664245	e	69
2040	20783	Rothenberg said the trend in Europe was away from fencing.	Rothenberg said the trend in Europe was away from fencing.	991481	1471960664249	1471960664366	n	78
2040	20783	Rothenberg said the trend in Europe was away from fencing.	Rothenberg said the trend in Europe was away from fencing.	991484	1471960664443	1471960664565	d	68
2040	20783	Rothenberg said the trend in Europe was away from fencing.	Rothenberg said the trend in Europe was away from fencing.	991487	1471960664522	1471960664646	 	32
2040	20783	Rothenberg said the trend in Europe was away from fencing.	Rothenberg said the trend in Europe was away from fencing.	991489	1471960664603	1471960664727	i	73
2040	20783	Rothenberg said the trend in Europe was away from fencing.	Rothenberg said the trend in Europe was away from fencing.	991491	1471960664775	1471960664937	n	78
2040	20783	Rothenberg said the trend in Europe was away from fencing.	Rothenberg said the trend in Europe was away from fencing.	991525	1471960664854	1471960665017	 	32
2040	20783	Rothenberg said the trend in Europe was away from fencing.	Rothenberg said the trend in Europe was away from fencing.	991529	1471960665133	1471960665373	SHIFT	16
2040	20783	Rothenberg said the trend in Europe was away from fencing.	Rothenberg said the trend in Europe was away from fencing.	991536	1471960665329	1471960665453	E	69
2040	20783	Rothenberg said the trend in Europe was away from fencing.	Rothenberg said the trend in Europe was away from fencing.	991539	1471960665491	1471960665574	u	85
2040	20783	Rothenberg said the trend in Europe was away from fencing.	Rothenberg said the trend in Europe was away from fencing.	991544	1471960665611	1471960665772	r	82
2040	20783	Rothenberg said the trend in Europe was away from fencing.	Rothenberg said the trend in Europe was away from fencing.	991548	1471960665775	1471960665893	o	79
2040	20783	Rothenberg said the trend in Europe was away from fencing.	Rothenberg said the trend in Europe was away from fencing.	991577	1471960665849	1471960666013	p	80
2040	20783	Rothenberg said the trend in Europe was away from fencing.	Rothenberg said the trend in Europe was away from fencing.	991581	1471960666050	1471960666191	e	69
2040	20783	Rothenberg said the trend in Europe was away from fencing.	Rothenberg said the trend in Europe was away from fencing.	991584	1471960666194	1471960666351	 	32
2040	20783	Rothenberg said the trend in Europe was away from fencing.	Rothenberg said the trend in Europe was away from fencing.	991587	1471960666428	1471960666550	w	87
2040	20783	Rothenberg said the trend in Europe was away from fencing.	Rothenberg said the trend in Europe was away from fencing.	991589	1471960666506	1471960666748	a	65
2040	20783	Rothenberg said the trend in Europe was away from fencing.	Rothenberg said the trend in Europe was away from fencing.	991610	1471960666666	1471960666791	s	83
2040	20783	Rothenberg said the trend in Europe was away from fencing.	Rothenberg said the trend in Europe was away from fencing.	991617	1471960666751	1471960666911	 	32
2040	20783	Rothenberg said the trend in Europe was away from fencing.	Rothenberg said the trend in Europe was away from fencing.	991625	1471960666867	1471960666992	a	65
2040	20783	Rothenberg said the trend in Europe was away from fencing.	Rothenberg said the trend in Europe was away from fencing.	991633	1471960666948	1471960667112	w	87
2040	20783	Rothenberg said the trend in Europe was away from fencing.	Rothenberg said the trend in Europe was away from fencing.	991644	1471960667068	1471960667232	a	65
2040	20783	Rothenberg said the trend in Europe was away from fencing.	Rothenberg said the trend in Europe was away from fencing.	991651	1471960667269	1471960667430	y	89
2040	20783	Rothenberg said the trend in Europe was away from fencing.	Rothenberg said the trend in Europe was away from fencing.	991657	1471960667526	1471960667688	 	32
2040	20783	Rothenberg said the trend in Europe was away from fencing.	Rothenberg said the trend in Europe was away from fencing.	991660	1471960667644	1471960667729	f	70
2040	20783	Rothenberg said the trend in Europe was away from fencing.	Rothenberg said the trend in Europe was away from fencing.	991664	1471960667845	1471960667968	r	82
2040	20783	Rothenberg said the trend in Europe was away from fencing.	Rothenberg said the trend in Europe was away from fencing.	991666	1471960667885	1471960667974	o	79
2040	20783	Rothenberg said the trend in Europe was away from fencing.	Rothenberg said the trend in Europe was away from fencing.	991668	1471960668086	1471960668208	m	77
2040	20783	Rothenberg said the trend in Europe was away from fencing.	Rothenberg said the trend in Europe was away from fencing.	991692	1471960668164	1471960668328	 	32
2040	20783	Rothenberg said the trend in Europe was away from fencing.	Rothenberg said the trend in Europe was away from fencing.	991695	1471960668365	1471960668487	f	70
2040	20783	Rothenberg said the trend in Europe was away from fencing.	Rothenberg said the trend in Europe was away from fencing.	991697	1471960668444	1471960668608	e	69
2040	20783	Rothenberg said the trend in Europe was away from fencing.	Rothenberg said the trend in Europe was away from fencing.	991702	1471960668564	1471960668691	n	78
2040	20783	Rothenberg said the trend in Europe was away from fencing.	Rothenberg said the trend in Europe was away from fencing.	991706	1471960668685	1471960668808	c	67
2040	20783	Rothenberg said the trend in Europe was away from fencing.	Rothenberg said the trend in Europe was away from fencing.	991711	1471960668811	1471960668890	i	73
2040	20783	Rothenberg said the trend in Europe was away from fencing.	Rothenberg said the trend in Europe was away from fencing.	991752	1471960669005	1471960669088	n	78
2040	20783	Rothenberg said the trend in Europe was away from fencing.	Rothenberg said the trend in Europe was away from fencing.	991755	1471960669165	1471960669287	g	71
2040	20783	Rothenberg said the trend in Europe was away from fencing.	Rothenberg said the trend in Europe was away from fencing.	991758	1471960669363	1471960669461	.	190
