PARTICIPANT_ID	TEST_SECTION_ID	SENTENCE	USER_INPUT	KEYSTROKE_ID	PRESS_TIME	RELEASE_TIME	LETTER	KEYCODE
2054	20786	Ty needs to work on our model before we could start anything anyway.	Ty need to work in our model before we could start anything anyway. 	990957	1471960658453	1471960658601	CAPS_LOCK	20
2054	20786	Ty needs to work on our model before we could start anything anyway.	Ty need to work in our model before we could start anything anyway. 	990962	1471960658785	1471960658880		84
2054	20786	Ty needs to work on our model before we could start anything anyway.	Ty need to work in our model before we could start anything anyway. 	990970	1471960659001	1471960659136	CAPS_LOCK	20
2054	20786	Ty needs to work on our model before we could start anything anyway.	Ty need to work in our model before we could start anything anyway. 	990978	1471960659312	1471960659417		89
2054	20786	Ty needs to work on our model before we could start anything anyway.	Ty need to work in our model before we could start anything anyway. 	990982	1471960659989	1471960660072		32
2054	20786	Ty needs to work on our model before we could start anything anyway.	Ty need to work in our model before we could start anything anyway. 	990988	1471960660239	1471960660296		78
2054	20786	Ty needs to work on our model before we could start anything anyway.	Ty need to work in our model before we could start anything anyway. 	990994	1471960660352	1471960660440		69
2054	20786	Ty needs to work on our model before we could start anything anyway.	Ty need to work in our model before we could start anything anyway. 	991024	1471960660513	1471960660627		69
2054	20786	Ty needs to work on our model before we could start anything anyway.	Ty need to work in our model before we could start anything anyway. 	991029	1471960660715	1471960660816		68
2054	20786	Ty needs to work on our model before we could start anything anyway.	Ty need to work in our model before we could start anything anyway. 	991036	1471960660840	1471960660968		32
2054	20786	Ty needs to work on our model before we could start anything anyway.	Ty need to work in our model before we could start anything anyway. 	991043	1471960660994	1471960661080		84
2054	20786	Ty needs to work on our model before we could start anything anyway.	Ty need to work in our model before we could start anything anyway. 	991050	1471960661112	1471960661208		79
2054	20786	Ty needs to work on our model before we could start anything anyway.	Ty need to work in our model before we could start anything anyway. 	991089	1471960661320	1471960661448		32
2054	20786	Ty needs to work on our model before we could start anything anyway.	Ty need to work in our model before we could start anything anyway. 	991091	1471960661416	1471960661560		87
2054	20786	Ty needs to work on our model before we could start anything anyway.	Ty need to work in our model before we could start anything anyway. 	991093	1471960661561	1471960661656		79
2054	20786	Ty needs to work on our model before we could start anything anyway.	Ty need to work in our model before we could start anything anyway. 	991096	1471960661664	1471960661776		82
2054	20786	Ty needs to work on our model before we could start anything anyway.	Ty need to work in our model before we could start anything anyway. 	991099	1471960661800	1471960661896		75
2054	20786	Ty needs to work on our model before we could start anything anyway.	Ty need to work in our model before we could start anything anyway. 	991138	1471960661984	1471960662080		32
2054	20786	Ty needs to work on our model before we could start anything anyway.	Ty need to work in our model before we could start anything anyway. 	991142	1471960662152	1471960662240		73
2054	20786	Ty needs to work on our model before we could start anything anyway.	Ty need to work in our model before we could start anything anyway. 	991149	1471960662336	1471960662411		78
2054	20786	Ty needs to work on our model before we could start anything anyway.	Ty need to work in our model before we could start anything anyway. 	991152	1471960662472	1471960662560		32
2054	20786	Ty needs to work on our model before we could start anything anyway.	Ty need to work in our model before we could start anything anyway. 	991159	1471960662664	1471960662760		79
2054	20786	Ty needs to work on our model before we could start anything anyway.	Ty need to work in our model before we could start anything anyway. 	991190	1471960662857	1471960662953		85
2054	20786	Ty needs to work on our model before we could start anything anyway.	Ty need to work in our model before we could start anything anyway. 	991192	1471960663024	1471960663144		82
2054	20786	Ty needs to work on our model before we could start anything anyway.	Ty need to work in our model before we could start anything anyway. 	991195	1471960663081	1471960663219		32
2054	20786	Ty needs to work on our model before we could start anything anyway.	Ty need to work in our model before we could start anything anyway. 	991198	1471960663304	1471960663400		77
2054	20786	Ty needs to work on our model before we could start anything anyway.	Ty need to work in our model before we could start anything anyway. 	991200	1471960663448	1471960663552		79
2054	20786	Ty needs to work on our model before we could start anything anyway.	Ty need to work in our model before we could start anything anyway. 	991265	1471960663556	1471960663648		68
2054	20786	Ty needs to work on our model before we could start anything anyway.	Ty need to work in our model before we could start anything anyway. 	991266	1471960663728	1471960663840		69
2054	20786	Ty needs to work on our model before we could start anything anyway.	Ty need to work in our model before we could start anything anyway. 	991267	1471960663856	1471960663967		76
2054	20786	Ty needs to work on our model before we could start anything anyway.	Ty need to work in our model before we could start anything anyway. 	991268	1471960664048	1471960664152		32
2054	20786	Ty needs to work on our model before we could start anything anyway.	Ty need to work in our model before we could start anything anyway. 	991269	1471960665064	1471960665160		66
2054	20786	Ty needs to work on our model before we could start anything anyway.	Ty need to work in our model before we could start anything anyway. 	991297	1471960665176	1471960665288		69
2054	20786	Ty needs to work on our model before we could start anything anyway.	Ty need to work in our model before we could start anything anyway. 	991304	1471960665384	1471960665528		70
2054	20786	Ty needs to work on our model before we could start anything anyway.	Ty need to work in our model before we could start anything anyway. 	991308	1471960665480	1471960665624		79
2054	20786	Ty needs to work on our model before we could start anything anyway.	Ty need to work in our model before we could start anything anyway. 	991311	1471960665625	1471960665720		82
2054	20786	Ty needs to work on our model before we could start anything anyway.	Ty need to work in our model before we could start anything anyway. 	991313	1471960665824	1471960665938		69
2054	20786	Ty needs to work on our model before we could start anything anyway.	Ty need to work in our model before we could start anything anyway. 	991369	1471960665952	1471960666056		32
2054	20786	Ty needs to work on our model before we could start anything anyway.	Ty need to work in our model before we could start anything anyway. 	991374	1471960666129	1471960666256		87
2054	20786	Ty needs to work on our model before we could start anything anyway.	Ty need to work in our model before we could start anything anyway. 	991381	1471960666484	1471960666585		32
2054	20786	Ty needs to work on our model before we could start anything anyway.	Ty need to work in our model before we could start anything anyway. 	991386	1471960666952	1471960667048		8
2054	20786	Ty needs to work on our model before we could start anything anyway.	Ty need to work in our model before we could start anything anyway. 	991391	1471960667096	1471960667168		82
2054	20786	Ty needs to work on our model before we could start anything anyway.	Ty need to work in our model before we could start anything anyway. 	991415	1471960667240	1471960667344		32
2054	20786	Ty needs to work on our model before we could start anything anyway.	Ty need to work in our model before we could start anything anyway. 	991417	1471960667744	1471960667816		8
2054	20786	Ty needs to work on our model before we could start anything anyway.	Ty need to work in our model before we could start anything anyway. 	991421	1471960667880	1471960667967		8
2054	20786	Ty needs to work on our model before we could start anything anyway.	Ty need to work in our model before we could start anything anyway. 	991423	1471960667968	1471960668056		69
2054	20786	Ty needs to work on our model before we could start anything anyway.	Ty need to work in our model before we could start anything anyway. 	991428	1471960668104	1471960668216		32
2054	20786	Ty needs to work on our model before we could start anything anyway.	Ty need to work in our model before we could start anything anyway. 	991444	1471960668292	1471960668368		67
2054	20786	Ty needs to work on our model before we could start anything anyway.	Ty need to work in our model before we could start anything anyway. 	991449	1471960668369	1471960668480		79
2054	20786	Ty needs to work on our model before we could start anything anyway.	Ty need to work in our model before we could start anything anyway. 	991453	1471960668576	1471960668656		85
2054	20786	Ty needs to work on our model before we could start anything anyway.	Ty need to work in our model before we could start anything anyway. 	991455	1471960668776	1471960668856		76
2054	20786	Ty needs to work on our model before we could start anything anyway.	Ty need to work in our model before we could start anything anyway. 	991458	1471960668872	1471960668967		68
2054	20786	Ty needs to work on our model before we could start anything anyway.	Ty need to work in our model before we could start anything anyway. 	991557	1471960668952	1471960669039		32
2054	20786	Ty needs to work on our model before we could start anything anyway.	Ty need to work in our model before we could start anything anyway. 	991558	1471960670184	1471960670296		68
2054	20786	Ty needs to work on our model before we could start anything anyway.	Ty need to work in our model before we could start anything anyway. 	991559	1471960670632	1471960670720		8
2054	20786	Ty needs to work on our model before we could start anything anyway.	Ty need to work in our model before we could start anything anyway. 	991560	1471960670717	1471960670824		83
2054	20786	Ty needs to work on our model before we could start anything anyway.	Ty need to work in our model before we could start anything anyway. 	991561	1471960670920	1471960671048		84
2054	20786	Ty needs to work on our model before we could start anything anyway.	Ty need to work in our model before we could start anything anyway. 	991613	1471960671032	1471960671160		65
2054	20786	Ty needs to work on our model before we could start anything anyway.	Ty need to work in our model before we could start anything anyway. 	991622	1471960671184	1471960671304		82
2054	20786	Ty needs to work on our model before we could start anything anyway.	Ty need to work in our model before we could start anything anyway. 	991630	1471960671360	1471960671464		84
2054	20786	Ty needs to work on our model before we could start anything anyway.	Ty need to work in our model before we could start anything anyway. 	991640	1471960671584	1471960671688		32
2054	20786	Ty needs to work on our model before we could start anything anyway.	Ty need to work in our model before we could start anything anyway. 	991647	1471960671896	1471960672032		65
2054	20786	Ty needs to work on our model before we could start anything anyway.	Ty need to work in our model before we could start anything anyway. 	991653	1471960672072	1471960672184		78
2054	20786	Ty needs to work on our model before we could start anything anyway.	Ty need to work in our model before we could start anything anyway. 	991682	1471960672256	1471960672352		89
2054	20786	Ty needs to work on our model before we could start anything anyway.	Ty need to work in our model before we could start anything anyway. 	991683	1471960672464	1471960672544		84
2054	20786	Ty needs to work on our model before we could start anything anyway.	Ty need to work in our model before we could start anything anyway. 	991684	1471960672937	1471960673048		72
2054	20786	Ty needs to work on our model before we could start anything anyway.	Ty need to work in our model before we could start anything anyway. 	991686	1471960673104	1471960673208		73
2054	20786	Ty needs to work on our model before we could start anything anyway.	Ty need to work in our model before we could start anything anyway. 	991690	1471960673320	1471960673400		78
2054	20786	Ty needs to work on our model before we could start anything anyway.	Ty need to work in our model before we could start anything anyway. 	991738	1471960673432	1471960673528		71
2054	20786	Ty needs to work on our model before we could start anything anyway.	Ty need to work in our model before we could start anything anyway. 	991743	1471960673504	1471960673620		32
2054	20786	Ty needs to work on our model before we could start anything anyway.	Ty need to work in our model before we could start anything anyway. 	991748	1471960673736	1471960673872		65
2054	20786	Ty needs to work on our model before we could start anything anyway.	Ty need to work in our model before we could start anything anyway. 	991751	1471960673896	1471960674008		78
2054	20786	Ty needs to work on our model before we could start anything anyway.	Ty need to work in our model before we could start anything anyway. 	991754	1471960674080	1471960674184		89
2054	20786	Ty needs to work on our model before we could start anything anyway.	Ty need to work in our model before we could start anything anyway. 	991814	1471960674264	1471960674360		87
2054	20786	Ty needs to work on our model before we could start anything anyway.	Ty need to work in our model before we could start anything anyway. 	991818	1471960674480	1471960674648		65
2054	20786	Ty needs to work on our model before we could start anything anyway.	Ty need to work in our model before we could start anything anyway. 	991822	1471960674620	1471960674712		89
2054	20786	Ty needs to work on our model before we could start anything anyway.	Ty need to work in our model before we could start anything anyway. 	991825	1471960675432	1471960675504		190
2054	20786	Ty needs to work on our model before we could start anything anyway.	Ty need to work in our model before we could start anything anyway. 	991828	1471960675626	1471960675696		32
2054	20808	If not can I call you?	If not can I call you?	992050	1471960679233	1471960679384	CAPS_LOCK	20
2054	20808	If not can I call you?	If not can I call you?	992055	1471960679409	1471960679512		73
2054	20808	If not can I call you?	If not can I call you?	992059	1471960679497	1471960679600	CAPS_LOCK	20
2054	20808	If not can I call you?	If not can I call you?	992063	1471960679656	1471960679800		70
2054	20808	If not can I call you?	If not can I call you?	992065	1471960679768	1471960679872		32
2054	20808	If not can I call you?	If not can I call you?	992068	1471960679984	1471960680080		78
2054	20808	If not can I call you?	If not can I call you?	992071	1471960680136	1471960680248		79
2054	20808	If not can I call you?	If not can I call you?	992089	1471960680264	1471960680379		84
2054	20808	If not can I call you?	If not can I call you?	992090	1471960680360	1471960680448		32
2054	20808	If not can I call you?	If not can I call you?	992093	1471960680568	1471960680776		67
2054	20808	If not can I call you?	If not can I call you?	992094	1471960680696	1471960680848		65
2054	20808	If not can I call you?	If not can I call you?	992135	1471960680832	1471960680928		78
2054	20808	If not can I call you?	If not can I call you?	992137	1471960681016	1471960681120		32
2054	20808	If not can I call you?	If not can I call you?	992140	1471960681144	1471960681272	CAPS_LOCK	20
2054	20808	If not can I call you?	If not can I call you?	992145	1471960681256	1471960681320		73
2054	20808	If not can I call you?	If not can I call you?	992149	1471960681361	1471960681472	CAPS_LOCK	20
2054	20808	If not can I call you?	If not can I call you?	992156	1471960681592	1471960681709		32
2054	20808	If not can I call you?	If not can I call you?	992162	1471960681840	1471960682048		67
2054	20808	If not can I call you?	If not can I call you?	992192	1471960681952	1471960682112		65
2054	20808	If not can I call you?	If not can I call you?	992195	1471960682128	1471960682224		76
2054	20808	If not can I call you?	If not can I call you?	992198	1471960682296	1471960682369		76
2054	20808	If not can I call you?	If not can I call you?	992200	1471960682456	1471960682560		32
2054	20808	If not can I call you?	If not can I call you?	992201	1471960682648	1471960682744		89
2054	20808	If not can I call you?	If not can I call you?	992202	1471960682872	1471960682968		79
2054	20808	If not can I call you?	If not can I call you?	992241	1471960683048	1471960683120		85
2054	20808	If not can I call you?	If not can I call you?	992244	1471960683544	1471960683808	SHIFT	16
2054	20808	If not can I call you?	If not can I call you?	992242	1471960683688	1471960683792		191
2054	20818	You snooze, you lose!	You snoozem you lose!	992403	1471960685897	1471960686056	CAPS_LOCK	20
2054	20818	You snooze, you lose!	You snoozem you lose!	992406	1471960686440	1471960686552		89
2054	20818	You snooze, you lose!	You snoozem you lose!	992409	1471960686568	1471960686664	CAPS_LOCK	20
2054	20818	You snooze, you lose!	You snoozem you lose!	992412	1471960686664	1471960686784		79
2054	20818	You snooze, you lose!	You snoozem you lose!	992415	1471960686848	1471960686944		85
2054	20818	You snooze, you lose!	You snoozem you lose!	992418	1471960687040	1471960687136		32
2054	20818	You snooze, you lose!	You snoozem you lose!	992494	1471960687120	1471960687248		83
2054	20818	You snooze, you lose!	You snoozem you lose!	992496	1471960687296	1471960687376		78
2054	20818	You snooze, you lose!	You snoozem you lose!	992499	1471960687640	1471960687688		79
2054	20818	You snooze, you lose!	You snoozem you lose!	992503	1471960687800	1471960687872		79
2054	20818	You snooze, you lose!	You snoozem you lose!	992507	1471960688088	1471960688224		90
2054	20818	You snooze, you lose!	You snoozem you lose!	992513	1471960688360	1471960688488		69
2054	20818	You snooze, you lose!	You snoozem you lose!	992576	1471960688528	1471960688632		77
2054	20818	You snooze, you lose!	You snoozem you lose!	992578	1471960688688	1471960688808		32
2054	20818	You snooze, you lose!	You snoozem you lose!	992580	1471960689144	1471960689216		89
2054	20818	You snooze, you lose!	You snoozem you lose!	992587	1471960689424	1471960689520		79
2054	20818	You snooze, you lose!	You snoozem you lose!	992593	1471960689619	1471960689688		85
2054	20818	You snooze, you lose!	You snoozem you lose!	992632	1471960689784	1471960689864		32
2054	20818	You snooze, you lose!	You snoozem you lose!	992633	1471960689976	1471960690056		76
2054	20818	You snooze, you lose!	You snoozem you lose!	992635	1471960690120	1471960690200		79
2054	20818	You snooze, you lose!	You snoozem you lose!	992637	1471960690176	1471960690312		83
2054	20818	You snooze, you lose!	You snoozem you lose!	992640	1471960690384	1471960690520		69
2054	20818	You snooze, you lose!	You snoozem you lose!	992690	1471960690736	1471960691056	SHIFT	16
2054	20818	You snooze, you lose!	You snoozem you lose!	992694	1471960690944	1471960691080		49
2054	20823	He was in great shape last night.	He was in great shape last night. 	992829	1471960693672	1471960693832	CAPS_LOCK	20
2054	20823	He was in great shape last night.	He was in great shape last night. 	992833	1471960694320	1471960694424		72
2054	20823	He was in great shape last night.	He was in great shape last night. 	992836	1471960694408	1471960694520	CAPS_LOCK	20
2054	20823	He was in great shape last night.	He was in great shape last night. 	992840	1471960694576	1471960694688		69
2054	20823	He was in great shape last night.	He was in great shape last night. 	992844	1471960694720	1471960694832		32
2054	20823	He was in great shape last night.	He was in great shape last night. 	992846	1471960694872	1471960695008		87
2054	20823	He was in great shape last night.	He was in great shape last night. 	992848	1471960695072	1471960695272		65
2054	20823	He was in great shape last night.	He was in great shape last night. 	992895	1471960695208	1471960695312		83
2054	20823	He was in great shape last night.	He was in great shape last night. 	992899	1471960695276	1471960695376		32
2054	20823	He was in great shape last night.	He was in great shape last night. 	992904	1471960695472	1471960695552		85
2054	20823	He was in great shape last night.	He was in great shape last night. 	992907	1471960696024	1471960696120		8
2054	20823	He was in great shape last night.	He was in great shape last night. 	992910	1471960696264	1471960696336		73
2054	20823	He was in great shape last night.	He was in great shape last night. 	992912	1471960696432	1471960696512		78
2054	20823	He was in great shape last night.	He was in great shape last night. 	992974	1471960697888	1471960698000		32
2054	20823	He was in great shape last night.	He was in great shape last night. 	992975	1471960698064	1471960698168		71
2054	20823	He was in great shape last night.	He was in great shape last night. 	992976	1471960698248	1471960698344		82
2054	20823	He was in great shape last night.	He was in great shape last night. 	992977	1471960698408	1471960698528		69
2054	20823	He was in great shape last night.	He was in great shape last night. 	992978	1471960698576	1471960698736		65
2054	20823	He was in great shape last night.	He was in great shape last night. 	993000	1471960698680	1471960698800		84
2054	20823	He was in great shape last night.	He was in great shape last night. 	993003	1471960698928	1471960699032		32
2054	20823	He was in great shape last night.	He was in great shape last night. 	993007	1471960699048	1471960699179		83
2054	20823	He was in great shape last night.	He was in great shape last night. 	993009	1471960699160	1471960699296		72
2054	20823	He was in great shape last night.	He was in great shape last night. 	993011	1471960699280	1471960699433		65
2054	20823	He was in great shape last night.	He was in great shape last night. 	993015	1471960699496	1471960699624		79
2054	20823	He was in great shape last night.	He was in great shape last night. 	993054	1471960700048	1471960700144		8
2054	20823	He was in great shape last night.	He was in great shape last night. 	993057	1471960700280	1471960700376		80
2054	20823	He was in great shape last night.	He was in great shape last night. 	993059	1471960700384	1471960700504		69
2054	20823	He was in great shape last night.	He was in great shape last night. 	993061	1471960700488	1471960700592		32
2054	20823	He was in great shape last night.	He was in great shape last night. 	993062	1471960700688	1471960700800		76
2054	20823	He was in great shape last night.	He was in great shape last night. 	993119	1471960700736	1471960700944		65
2054	20823	He was in great shape last night.	He was in great shape last night. 	993123	1471960700856	1471960701000		83
2054	20823	He was in great shape last night.	He was in great shape last night. 	993127	1471960701001	1471960701112		84
2054	20823	He was in great shape last night.	He was in great shape last night. 	993132	1471960701248	1471960701328		32
2054	20823	He was in great shape last night.	He was in great shape last night. 	993138	1471960701640	1471960701784		78
2054	20823	He was in great shape last night.	He was in great shape last night. 	993144	1471960701824	1471960701928		73
2054	20823	He was in great shape last night.	He was in great shape last night. 	993224	1471960702042	1471960702120		71
2054	20823	He was in great shape last night.	He was in great shape last night. 	993226	1471960702480	1471960702568		72
2054	20823	He was in great shape last night.	He was in great shape last night. 	993229	1471960702992	1471960703136		84
2054	20823	He was in great shape last night.	He was in great shape last night. 	993231	1471960703512	1471960703584		190
2054	20823	He was in great shape last night.	He was in great shape last night. 	993234	1471960703707	1471960703776		32
2054	20837	I wanted to go drinking with you.	I wanted to go drining with you. 	993399	1471960706305	1471960706464	CAPS_LOCK	20
2054	20837	I wanted to go drinking with you.	I wanted to go drining with you. 	993401	1471960706707	1471960706792		73
2054	20837	I wanted to go drinking with you.	I wanted to go drining with you. 	993407	1471960706840	1471960706968	CAPS_LOCK	20
2054	20837	I wanted to go drinking with you.	I wanted to go drining with you. 	993413	1471960706912	1471960707039		32
2054	20837	I wanted to go drinking with you.	I wanted to go drining with you. 	993416	1471960707120	1471960707232		87
2054	20837	I wanted to go drinking with you.	I wanted to go drining with you. 	993421	1471960707320	1471960707488		65
2054	20837	I wanted to go drinking with you.	I wanted to go drining with you. 	993436	1471960707448	1471960707560		78
2054	20837	I wanted to go drinking with you.	I wanted to go drining with you. 	993437	1471960707688	1471960707800		84
2054	20837	I wanted to go drinking with you.	I wanted to go drining with you. 	993438	1471960707728	1471960707905		69
2054	20837	I wanted to go drinking with you.	I wanted to go drining with you. 	993440	1471960707888	1471960708024		68
2054	20837	I wanted to go drinking with you.	I wanted to go drining with you. 	993446	1471960707992	1471960708096		32
2054	20837	I wanted to go drinking with you.	I wanted to go drining with you. 	993450	1471960708128	1471960708248		84
2054	20837	I wanted to go drinking with you.	I wanted to go drining with you. 	993479	1471960708232	1471960708344		79
2054	20837	I wanted to go drinking with you.	I wanted to go drining with you. 	993481	1471960708440	1471960708536		32
2054	20837	I wanted to go drinking with you.	I wanted to go drining with you. 	993482	1471960709024	1471960709128		71
2054	20837	I wanted to go drinking with you.	I wanted to go drining with you. 	993483	1471960709176	1471960709263		79
2054	20837	I wanted to go drinking with you.	I wanted to go drining with you. 	993484	1471960709400	1471960709496		32
2054	20837	I wanted to go drinking with you.	I wanted to go drining with you. 	993485	1471960709513	1471960709608		68
2054	20837	I wanted to go drinking with you.	I wanted to go drining with you. 	993508	1471960709696	1471960709784		82
2054	20837	I wanted to go drinking with you.	I wanted to go drining with you. 	993511	1471960709760	1471960709872		73
2054	20837	I wanted to go drinking with you.	I wanted to go drining with you. 	993515	1471960709944	1471960710040		78
2054	20837	I wanted to go drinking with you.	I wanted to go drining with you. 	993517	1471960710072	1471960710184		73
2054	20837	I wanted to go drinking with you.	I wanted to go drining with you. 	993520	1471960710272	1471960710368		78
2054	20837	I wanted to go drinking with you.	I wanted to go drining with you. 	993548	1471960710392	1471960710503		71
2054	20837	I wanted to go drinking with you.	I wanted to go drining with you. 	993551	1471960710464	1471960710584		32
2054	20837	I wanted to go drinking with you.	I wanted to go drining with you. 	993558	1471960711072	1471960711168		87
2054	20837	I wanted to go drinking with you.	I wanted to go drining with you. 	993562	1471960711256	1471960711352		73
2054	20837	I wanted to go drinking with you.	I wanted to go drining with you. 	993566	1471960711448	1471960711552		84
2054	20837	I wanted to go drinking with you.	I wanted to go drining with you. 	993674	1471960711480	1471960711568		72
2054	20837	I wanted to go drinking with you.	I wanted to go drining with you. 	993680	1471960711752	1471960711888		32
2054	20837	I wanted to go drinking with you.	I wanted to go drining with you. 	993689	1471960712600	1471960712712		89
2054	20837	I wanted to go drinking with you.	I wanted to go drining with you. 	993698	1471960712824	1471960712905		79
2054	20837	I wanted to go drinking with you.	I wanted to go drining with you. 	993705	1471960713000	1471960713080		85
2054	20837	I wanted to go drinking with you.	I wanted to go drining with you. 	993711	1471960713624	1471960713712		190
2054	20837	I wanted to go drinking with you.	I wanted to go drining with you. 	993712	1471960713784	1471960713856		32
2054	20847	Who should I contact regarding severance?	Who should I contact regarding severance?	993923	1471960716553	1471960716708	CAPS_LOCK	20
2054	20847	Who should I contact regarding severance?	Who should I contact regarding severance?	993926	1471960717232	1471960717344		87
2054	20847	Who should I contact regarding severance?	Who should I contact regarding severance?	993931	1471960717416	1471960717560	CAPS_LOCK	20
2054	20847	Who should I contact regarding severance?	Who should I contact regarding severance?	993938	1471960717560	1471960717656		72
2054	20847	Who should I contact regarding severance?	Who should I contact regarding severance?	993943	1471960717752	1471960717832		79
2054	20847	Who should I contact regarding severance?	Who should I contact regarding severance?	993949	1471960717944	1471960718040		32
2054	20847	Who should I contact regarding severance?	Who should I contact regarding severance?	993954	1471960718104	1471960718128		83
2054	20847	Who should I contact regarding severance?	Who should I contact regarding severance?	994077	1471960718937	1471960719032		72
2054	20847	Who should I contact regarding severance?	Who should I contact regarding severance?	994078	1471960719152	1471960719248		79
2054	20847	Who should I contact regarding severance?	Who should I contact regarding severance?	994079	1471960719481	1471960719560		8
2054	20847	Who should I contact regarding severance?	Who should I contact regarding severance?	994080	1471960720128	1471960720208		79
2054	20847	Who should I contact regarding severance?	Who should I contact regarding severance?	994081	1471960720320	1471960720392		85
2054	20847	Who should I contact regarding severance?	Who should I contact regarding severance?	994114	1471960720536	1471960720624		76
2054	20847	Who should I contact regarding severance?	Who should I contact regarding severance?	994116	1471960720672	1471960720776		68
2054	20847	Who should I contact regarding severance?	Who should I contact regarding severance?	994120	1471960720712	1471960720832		32
2054	20847	Who should I contact regarding severance?	Who should I contact regarding severance?	994125	1471960720944	1471960721064	CAPS_LOCK	20
2054	20847	Who should I contact regarding severance?	Who should I contact regarding severance?	994128	1471960720992	1471960721128		73
2054	20847	Who should I contact regarding severance?	Who should I contact regarding severance?	994130	1471960721168	1471960721296	CAPS_LOCK	20
2054	20847	Who should I contact regarding severance?	Who should I contact regarding severance?	994162	1471960721240	1471960721352		32
2054	20847	Who should I contact regarding severance?	Who should I contact regarding severance?	994164	1471960721408	1471960721544		67
2054	20847	Who should I contact regarding severance?	Who should I contact regarding severance?	994167	1471960721488	1471960721584		79
2054	20847	Who should I contact regarding severance?	Who should I contact regarding severance?	994170	1471960721680	1471960721775		78
2054	20847	Who should I contact regarding severance?	Who should I contact regarding severance?	994172	1471960721840	1471960721952		84
2054	20847	Who should I contact regarding severance?	Who should I contact regarding severance?	994173	1471960722048	1471960722184		65
2054	20847	Who should I contact regarding severance?	Who should I contact regarding severance?	994222	1471960722312	1471960722432		67
2054	20847	Who should I contact regarding severance?	Who should I contact regarding severance?	994226	1471960722536	1471960722640		84
2054	20847	Who should I contact regarding severance?	Who should I contact regarding severance?	994230	1471960722680	1471960722800		32
2054	20847	Who should I contact regarding severance?	Who should I contact regarding severance?	994233	1471960723168	1471960723256		82
2054	20847	Who should I contact regarding severance?	Who should I contact regarding severance?	994235	1471960723328	1471960723432		69
2054	20847	Who should I contact regarding severance?	Who should I contact regarding severance?	994261	1471960723480	1471960723568		71
2054	20847	Who should I contact regarding severance?	Who should I contact regarding severance?	994266	1471960723592	1471960723712		65
2054	20847	Who should I contact regarding severance?	Who should I contact regarding severance?	994271	1471960723800	1471960723905		82
2054	20847	Who should I contact regarding severance?	Who should I contact regarding severance?	994274	1471960724048	1471960724178		68
2054	20847	Who should I contact regarding severance?	Who should I contact regarding severance?	994347	1471960724160	1471960724264		73
2054	20847	Who should I contact regarding severance?	Who should I contact regarding severance?	994352	1471960724368	1471960724488		78
2054	20847	Who should I contact regarding severance?	Who should I contact regarding severance?	994357	1471960724480	1471960724595		71
2054	20847	Who should I contact regarding severance?	Who should I contact regarding severance?	994362	1471960724576	1471960724720		32
2054	20847	Who should I contact regarding severance?	Who should I contact regarding severance?	994365	1471960725040	1471960725160		83
2054	20847	Who should I contact regarding severance?	Who should I contact regarding severance?	994368	1471960725272	1471960725376		69
2054	20847	Who should I contact regarding severance?	Who should I contact regarding severance?	994413	1471960725736	1471960725832		86
2054	20847	Who should I contact regarding severance?	Who should I contact regarding severance?	994418	1471960725856	1471960725976		69
2054	20847	Who should I contact regarding severance?	Who should I contact regarding severance?	994424	1471960726072	1471960726168		82
2054	20847	Who should I contact regarding severance?	Who should I contact regarding severance?	994430	1471960726232	1471960726384		65
2054	20847	Who should I contact regarding severance?	Who should I contact regarding severance?	994495	1471960726336	1471960726480		78
2054	20847	Who should I contact regarding severance?	Who should I contact regarding severance?	994498	1471960726535	1471960726608		67
2054	20847	Who should I contact regarding severance?	Who should I contact regarding severance?	994500	1471960726632	1471960726760		69
2054	20847	Who should I contact regarding severance?	Who should I contact regarding severance?	994508	1471960727032	1471960727357	SHIFT	16
2054	20847	Who should I contact regarding severance?	Who should I contact regarding severance?	994505	1471960727184	1471960727304		191
2054	20865	Did we plan that?	Did we plan that?	994685	1471960730169	1471960730296	CAPS_LOCK	20
2054	20865	Did we plan that?	Did we plan that?	994687	1471960730440	1471960730552		68
2054	20865	Did we plan that?	Did we plan that?	994690	1471960730524	1471960730672	CAPS_LOCK	20
2054	20865	Did we plan that?	Did we plan that?	994692	1471960730697	1471960730792		73
2054	20865	Did we plan that?	Did we plan that?	994694	1471960731032	1471960731136		68
2054	20865	Did we plan that?	Did we plan that?	994698	1471960731152	1471960731256		32
2054	20865	Did we plan that?	Did we plan that?	994703	1471960731360	1471960731488		87
2054	20865	Did we plan that?	Did we plan that?	994747	1471960731576	1471960731672		69
2054	20865	Did we plan that?	Did we plan that?	994752	1471960731712	1471960731824		32
2054	20865	Did we plan that?	Did we plan that?	994754	1471960731952	1471960732024		80
2054	20865	Did we plan that?	Did we plan that?	994758	1471960732184	1471960732328		76
2054	20865	Did we plan that?	Did we plan that?	994762	1471960732368	1471960732464		65
2054	20865	Did we plan that?	Did we plan that?	994821	1471960732959	1471960733048		78
2054	20865	Did we plan that?	Did we plan that?	994823	1471960733120	1471960733216		32
2054	20865	Did we plan that?	Did we plan that?	994825	1471960733384	1471960733512		84
2054	20865	Did we plan that?	Did we plan that?	994827	1471960733608	1471960733696		72
2054	20865	Did we plan that?	Did we plan that?	994892	1471960733680	1471960733824		65
2054	20865	Did we plan that?	Did we plan that?	994897	1471960733785	1471960733872		84
2054	20865	Did we plan that?	Did we plan that?	994903	1471960734456	1471960734656	SHIFT	16
2054	20865	Did we plan that?	Did we plan that?	994909	1471960734560	1471960734709		191
2054	20873	We have lots of forks, etc.	We have lots of forks, etc.	995091	1471960737336	1471960737464	CAPS_LOCK	20
2054	20873	We have lots of forks, etc.	We have lots of forks, etc.	995093	1471960737560	1471960737717		87
2054	20873	We have lots of forks, etc.	We have lots of forks, etc.	995095	1471960737718	1471960737872	CAPS_LOCK	20
2054	20873	We have lots of forks, etc.	We have lots of forks, etc.	995097	1471960737897	1471960738032		69
2054	20873	We have lots of forks, etc.	We have lots of forks, etc.	995098	1471960738168	1471960738280		32
2054	20873	We have lots of forks, etc.	We have lots of forks, etc.	995100	1471960738360	1471960738472		71
2054	20873	We have lots of forks, etc.	We have lots of forks, etc.	995171	1471960738456	1471960738600		65
2054	20873	We have lots of forks, etc.	We have lots of forks, etc.	995175	1471960739104	1471960739192		8
2054	20873	We have lots of forks, etc.	We have lots of forks, etc.	995179	1471960739544	1471960739640		8
2054	20873	We have lots of forks, etc.	We have lots of forks, etc.	995183	1471960740032	1471960740128		72
2054	20873	We have lots of forks, etc.	We have lots of forks, etc.	995186	1471960740128	1471960740288		65
2054	20873	We have lots of forks, etc.	We have lots of forks, etc.	995205	1471960740224	1471960740320		86
2054	20873	We have lots of forks, etc.	We have lots of forks, etc.	995207	1471960740352	1471960740504		69
2054	20873	We have lots of forks, etc.	We have lots of forks, etc.	995211	1471960740416	1471960740520		32
2054	20873	We have lots of forks, etc.	We have lots of forks, etc.	995215	1471960740632	1471960740720		76
2054	20873	We have lots of forks, etc.	We have lots of forks, etc.	995218	1471960740816	1471960740896		79
2054	20873	We have lots of forks, etc.	We have lots of forks, etc.	995220	1471960741008	1471960741104		84
2054	20873	We have lots of forks, etc.	We have lots of forks, etc.	995276	1471960741240	1471960741352		83
2054	20873	We have lots of forks, etc.	We have lots of forks, etc.	995281	1471960741880	1471960741984		32
2054	20873	We have lots of forks, etc.	We have lots of forks, etc.	995285	1471960742088	1471960742176		79
2054	20873	We have lots of forks, etc.	We have lots of forks, etc.	995288	1471960742200	1471960742312		70
2054	20873	We have lots of forks, etc.	We have lots of forks, etc.	995291	1471960742328	1471960742440		32
2054	20873	We have lots of forks, etc.	We have lots of forks, etc.	995372	1471960742544	1471960742688		70
2054	20873	We have lots of forks, etc.	We have lots of forks, etc.	995377	1471960742640	1471960742752		79
2054	20873	We have lots of forks, etc.	We have lots of forks, etc.	995383	1471960742816	1471960742944		82
2054	20873	We have lots of forks, etc.	We have lots of forks, etc.	995387	1471960743856	1471960743928		75
2054	20873	We have lots of forks, etc.	We have lots of forks, etc.	995390	1471960743929	1471960744032		83
2054	20873	We have lots of forks, etc.	We have lots of forks, etc.	995470	1471960744952	1471960745040		188
2054	20873	We have lots of forks, etc.	We have lots of forks, etc.	995475	1471960745112	1471960745208		32
2054	20873	We have lots of forks, etc.	We have lots of forks, etc.	995479	1471960745328	1471960745424		82
2054	20873	We have lots of forks, etc.	We have lots of forks, etc.	995486	1471960745907	1471960745979		8
2054	20873	We have lots of forks, etc.	We have lots of forks, etc.	995571	1471960745961	1471960746064		69
2054	20873	We have lots of forks, etc.	We have lots of forks, etc.	995574	1471960746168	1471960746248		84
2054	20873	We have lots of forks, etc.	We have lots of forks, etc.	995579	1471960746424	1471960746512		67
2054	20873	We have lots of forks, etc.	We have lots of forks, etc.	995584	1471960746656	1471960746728		191
2054	20873	We have lots of forks, etc.	We have lots of forks, etc.	995592	1471960747008	1471960747088		8
2054	20873	We have lots of forks, etc.	We have lots of forks, etc.	995597	1471960747546	1471960747622		190
2054	20885	Can you call me at home?	Can you call me at home/	995785	1471960750416	1471960750576	CAPS_LOCK	20
2054	20885	Can you call me at home?	Can you call me at home/	995789	1471960750656	1471960750736		67
2054	20885	Can you call me at home?	Can you call me at home/	995791	1471960750752	1471960750888	CAPS_LOCK	20
2054	20885	Can you call me at home?	Can you call me at home/	995794	1471960750856	1471960751016		65
2054	20885	Can you call me at home?	Can you call me at home/	995796	1471960751048	1471960751136		78
2054	20885	Can you call me at home?	Can you call me at home/	995798	1471960751216	1471960751312		32
2054	20885	Can you call me at home?	Can you call me at home/	995799	1471960751376	1471960751472		89
2054	20885	Can you call me at home?	Can you call me at home/	995809	1471960751568	1471960751648		79
2054	20885	Can you call me at home?	Can you call me at home/	995810	1471960751736	1471960751816		85
2054	20885	Can you call me at home?	Can you call me at home/	995813	1471960751912	1471960752016		32
2054	20885	Can you call me at home?	Can you call me at home/	995816	1471960752000	1471960752162		67
2054	20885	Can you call me at home?	Can you call me at home/	995840	1471960752104	1471960752216		65
2054	20885	Can you call me at home?	Can you call me at home/	995844	1471960752144	1471960752248		76
2054	20885	Can you call me at home?	Can you call me at home/	995850	1471960752320	1471960752391		76
2054	20885	Can you call me at home?	Can you call me at home/	995856	1471960752472	1471960752576		32
2054	20885	Can you call me at home?	Can you call me at home/	995861	1471960752620	1471960752760		77
2054	20885	Can you call me at home?	Can you call me at home/	995864	1471960752707	1471960752848		69
2054	20885	Can you call me at home?	Can you call me at home/	995892	1471960752832	1471960752962		32
2054	20885	Can you call me at home?	Can you call me at home/	995895	1471960752944	1471960753056		65
2054	20885	Can you call me at home?	Can you call me at home/	995905	1471960753184	1471960753312		84
2054	20885	Can you call me at home?	Can you call me at home/	995912	1471960753352	1471960753463		32
2054	20885	Can you call me at home?	Can you call me at home/	995954	1471960753600	1471960753671		72
2054	20885	Can you call me at home?	Can you call me at home/	995917	1471960753620	1471960753639		74
2054	20885	Can you call me at home?	Can you call me at home/	995956	1471960753768	1471960753880		79
2054	20885	Can you call me at home?	Can you call me at home/	995958	1471960753992	1471960754056		77
2054	20885	Can you call me at home?	Can you call me at home/	995960	1471960754256	1471960754367		8
2054	20885	Can you call me at home?	Can you call me at home/	995964	1471960754432	1471960754528		8
2054	20885	Can you call me at home?	Can you call me at home/	995967	1471960754592	1471960754696		8
2054	20885	Can you call me at home?	Can you call me at home/	996027	1471960754872	1471960754968		79
2054	20885	Can you call me at home?	Can you call me at home/	996029	1471960755072	1471960755200		77
2054	20885	Can you call me at home?	Can you call me at home/	996032	1471960755168	1471960755320		69
2054	20885	Can you call me at home?	Can you call me at home/	996040	1471960755448	1471960755707	SHIFT	16
2054	20885	Can you call me at home?	Can you call me at home/	996035	1471960755632	1471960755688		190
2054	20885	Can you call me at home?	Can you call me at home/	996043	1471960756256	1471960756384		8
2054	20885	Can you call me at home?	Can you call me at home/	996063	1471960756576	1471960756808		191
2054	20885	Can you call me at home?	Can you call me at home/	996069	1471960756656	1471960756872	SHIFT	16
2054	20895	What does Hunter think?	What does Hunter think>	996295	1471960759336	1471960759472	CAPS_LOCK	20
2054	20895	What does Hunter think?	What does Hunter think>	996297	1471960759672	1471960759759		72
2054	20895	What does Hunter think?	What does Hunter think>	996302	1471960759792	1471960759944	CAPS_LOCK	20
2054	20895	What does Hunter think?	What does Hunter think>	996306	1471960760152	1471960760239		8
2054	20895	What does Hunter think?	What does Hunter think>	996313	1471960760464	1471960760576	CAPS_LOCK	20
2054	20895	What does Hunter think?	What does Hunter think>	996319	1471960760656	1471960760792		87
2054	20895	What does Hunter think?	What does Hunter think>	996324	1471960760808	1471960760968	CAPS_LOCK	20
2054	20895	What does Hunter think?	What does Hunter think>	996330	1471960761184	1471960761304		72
2054	20895	What does Hunter think?	What does Hunter think>	996376	1471960761272	1471960761376		65
2054	20895	What does Hunter think?	What does Hunter think>	996381	1471960761504	1471960761576		84
2054	20895	What does Hunter think?	What does Hunter think>	996386	1471960761600	1471960761736		32
2054	20895	What does Hunter think?	What does Hunter think>	996389	1471960761799	1471960761888		68
2054	20895	What does Hunter think?	What does Hunter think>	996393	1471960761872	1471960761984		79
2054	20895	What does Hunter think?	What does Hunter think>	996399	1471960762000	1471960762112		69
2054	20895	What does Hunter think?	What does Hunter think>	996495	1471960762200	1471960762312		83
2054	20895	What does Hunter think?	What does Hunter think>	996498	1471960762296	1471960762416		32
2054	20895	What does Hunter think?	What does Hunter think>	996502	1471960762688	1471960762799	CAPS_LOCK	20
2054	20895	What does Hunter think?	What does Hunter think>	996505	1471960762928	1471960763039		74
2054	20895	What does Hunter think?	What does Hunter think>	996508	1471960763336	1471960763416		8
2054	20895	What does Hunter think?	What does Hunter think>	996511	1471960763488	1471960763619	CAPS_LOCK	20
2054	20895	What does Hunter think?	What does Hunter think>	996514	1471960763768	1471960763896	CAPS_LOCK	20
2054	20895	What does Hunter think?	What does Hunter think>	996516	1471960764264	1471960764409	CAPS_LOCK	20
2054	20895	What does Hunter think?	What does Hunter think>	996518	1471960764568	1471960764680		72
2054	20895	What does Hunter think?	What does Hunter think>	996590	1471960764992	1471960765120	CAPS_LOCK	20
2054	20895	What does Hunter think?	What does Hunter think>	996594	1471960765288	1471960765376		8
2054	20895	What does Hunter think?	What does Hunter think>	996599	1471960765528	1471960765624		72
2054	20895	What does Hunter think?	What does Hunter think>	996604	1471960765856	1471960765960	CAPS_LOCK	20
2054	20895	What does Hunter think?	What does Hunter think>	996608	1471960766176	1471960766256		85
2054	20895	What does Hunter think?	What does Hunter think>	996613	1471960766376	1471960766488		78
2054	20895	What does Hunter think?	What does Hunter think>	996615	1471960766664	1471960766760		84
2054	20895	What does Hunter think?	What does Hunter think>	996642	1471960766800	1471960766992		69
2054	20895	What does Hunter think?	What does Hunter think>	996645	1471960766937	1471960767088		82
2054	20895	What does Hunter think?	What does Hunter think>	996647	1471960767032	1471960767144		32
2054	20895	What does Hunter think?	What does Hunter think>	996648	1471960767272	1471960767384		84
2054	20895	What does Hunter think?	What does Hunter think>	996650	1471960767480	1471960767568		72
2054	20895	What does Hunter think?	What does Hunter think>	996691	1471960767672	1471960767752		73
2054	20895	What does Hunter think?	What does Hunter think>	996692	1471960767848	1471960767992		78
2054	20895	What does Hunter think?	What does Hunter think>	996694	1471960768008	1471960768120		75
2054	20895	What does Hunter think?	What does Hunter think>	996698	1471960768280	1471960768600	SHIFT	16
2054	20895	What does Hunter think?	What does Hunter think>	996696	1471960768456	1471960768568		190
2054	20907	Are you in today?	Are you in today?	996888	1471960771146	1471960771264	CAPS_LOCK	20
2054	20907	Are you in today?	Are you in today?	996889	1471960771552	1471960771719		65
2054	20907	Are you in today?	Are you in today?	996891	1471960771688	1471960771855	CAPS_LOCK	20
2054	20907	Are you in today?	Are you in today?	996894	1471960771960	1471960772056		82
2054	20907	Are you in today?	Are you in today?	996897	1471960772136	1471960772256		69
2054	20907	Are you in today?	Are you in today?	996900	1471960772232	1471960772367		32
2054	20907	Are you in today?	Are you in today?	996904	1471960772504	1471960772600		89
2054	20907	Are you in today?	Are you in today?	996948	1471960772728	1471960772824		79
2054	20907	Are you in today?	Are you in today?	996953	1471960772968	1471960773064		85
2054	20907	Are you in today?	Are you in today?	996958	1471960773159	1471960773263		32
2054	20907	Are you in today?	Are you in today?	996962	1471960773416	1471960773512		73
2054	20907	Are you in today?	Are you in today?	996966	1471960773584	1471960773688		78
2054	20907	Are you in today?	Are you in today?	996989	1471960773768	1471960773855		32
2054	20907	Are you in today?	Are you in today?	996993	1471960773816	1471960773951		84
2054	20907	Are you in today?	Are you in today?	996997	1471960773952	1471960774064		79
2054	20907	Are you in today?	Are you in today?	997002	1471960774112	1471960774344		68
2054	20907	Are you in today?	Are you in today?	997045	1471960774256	1471960774456		65
2054	20907	Are you in today?	Are you in today?	997049	1471960774640	1471960774712		89
2054	20907	Are you in today?	Are you in today?	997052	1471960775128	1471960775295	SHIFT	16
2054	20907	Are you in today?	Are you in today?	997056	1471960775224	1471960775351		191
2054	20913	These are big storms and traffic isn't moving.	These are big storm and traffic isn't moving.	997209	1471960777504	1471960777648	CAPS_LOCK	20
2054	20913	These are big storms and traffic isn't moving.	These are big storm and traffic isn't moving.	997216	1471960777784	1471960777896		84
2054	20913	These are big storms and traffic isn't moving.	These are big storm and traffic isn't moving.	997222	1471960777880	1471960778015	CAPS_LOCK	20
2054	20913	These are big storms and traffic isn't moving.	These are big storm and traffic isn't moving.	997229	1471960778040	1471960778136		72
2054	20913	These are big storms and traffic isn't moving.	These are big storm and traffic isn't moving.	997236	1471960778152	1471960778280		69
2054	20913	These are big storms and traffic isn't moving.	These are big storm and traffic isn't moving.	997240	1471960778360	1471960778456		83
2054	20913	These are big storms and traffic isn't moving.	These are big storm and traffic isn't moving.	997242	1471960778552	1471960778647		69
2054	20913	These are big storms and traffic isn't moving.	These are big storm and traffic isn't moving.	997246	1471960778650	1471960778775		32
2054	20913	These are big storms and traffic isn't moving.	These are big storm and traffic isn't moving.	997247	1471960778800	1471960778936		65
2054	20913	These are big storms and traffic isn't moving.	These are big storm and traffic isn't moving.	997248	1471960779016	1471960779111		82
2054	20913	These are big storms and traffic isn't moving.	These are big storm and traffic isn't moving.	997249	1471960779192	1471960779319		69
2054	20913	These are big storms and traffic isn't moving.	These are big storm and traffic isn't moving.	997305	1471960779247	1471960779351		32
2054	20913	These are big storms and traffic isn't moving.	These are big storm and traffic isn't moving.	997307	1471960779456	1471960779543		66
2054	20913	These are big storms and traffic isn't moving.	These are big storm and traffic isn't moving.	997311	1471960779632	1471960779767		73
2054	20913	These are big storms and traffic isn't moving.	These are big storm and traffic isn't moving.	997314	1471960780424	1471960780520		71
2054	20913	These are big storms and traffic isn't moving.	These are big storm and traffic isn't moving.	997316	1471960780536	1471960780656		32
2054	20913	These are big storms and traffic isn't moving.	These are big storm and traffic isn't moving.	997319	1471960780864	1471960781000		83
2054	20913	These are big storms and traffic isn't moving.	These are big storm and traffic isn't moving.	997348	1471960781128	1471960781232		84
2054	20913	These are big storms and traffic isn't moving.	These are big storm and traffic isn't moving.	997350	1471960781232	1471960781343		79
2054	20913	These are big storms and traffic isn't moving.	These are big storm and traffic isn't moving.	997352	1471960781409	1471960781528		82
2054	20913	These are big storms and traffic isn't moving.	These are big storm and traffic isn't moving.	997356	1471960781512	1471960781623		77
2054	20913	These are big storms and traffic isn't moving.	These are big storm and traffic isn't moving.	997358	1471960781872	1471960781959		32
2054	20913	These are big storms and traffic isn't moving.	These are big storm and traffic isn't moving.	997387	1471960782048	1471960782191		65
2054	20913	These are big storms and traffic isn't moving.	These are big storm and traffic isn't moving.	997389	1471960782160	1471960782279		78
2054	20913	These are big storms and traffic isn't moving.	These are big storm and traffic isn't moving.	997392	1471960782416	1471960782511		32
2054	20913	These are big storms and traffic isn't moving.	These are big storm and traffic isn't moving.	997396	1471960782864	1471960782937		8
2054	20913	These are big storms and traffic isn't moving.	These are big storm and traffic isn't moving.	997399	1471960782952	1471960783063		68
2054	20913	These are big storms and traffic isn't moving.	These are big storm and traffic isn't moving.	997441	1471960783152	1471960783247		32
2054	20913	These are big storms and traffic isn't moving.	These are big storm and traffic isn't moving.	997444	1471960783504	1471960783620		84
2054	20913	These are big storms and traffic isn't moving.	These are big storm and traffic isn't moving.	997447	1471960783708	1471960783815		82
2054	20913	These are big storms and traffic isn't moving.	These are big storm and traffic isn't moving.	997451	1471960783872	1471960783992		65
2054	20913	These are big storms and traffic isn't moving.	These are big storm and traffic isn't moving.	997458	1471960784080	1471960784151		70
2054	20913	These are big storms and traffic isn't moving.	These are big storm and traffic isn't moving.	997500	1471960784232	1471960784327		70
2054	20913	These are big storms and traffic isn't moving.	These are big storm and traffic isn't moving.	997502	1471960784296	1471960784430		73
2054	20913	These are big storms and traffic isn't moving.	These are big storm and traffic isn't moving.	997506	1471960784463	1471960784628		67
2054	20913	These are big storms and traffic isn't moving.	These are big storm and traffic isn't moving.	997509	1471960784608	1471960784719		32
2054	20913	These are big storms and traffic isn't moving.	These are big storm and traffic isn't moving.	997511	1471960785632	1471960785719		73
2054	20913	These are big storms and traffic isn't moving.	These are big storm and traffic isn't moving.	997607	1471960785776	1471960785887		83
2054	20913	These are big storms and traffic isn't moving.	These are big storm and traffic isn't moving.	997610	1471960786845	1471960786911		78
2054	20913	These are big storms and traffic isn't moving.	These are big storm and traffic isn't moving.	997612	1471960787504	1471960787599		222
2054	20913	These are big storms and traffic isn't moving.	These are big storm and traffic isn't moving.	997613	1471960787584	1471960787707		84
2054	20913	These are big storms and traffic isn't moving.	These are big storm and traffic isn't moving.	997614	1471960787708	1471960787815		32
2054	20913	These are big storms and traffic isn't moving.	These are big storm and traffic isn't moving.	997673	1471960788288	1471960788383		77
2054	20913	These are big storms and traffic isn't moving.	These are big storm and traffic isn't moving.	997676	1471960788448	1471960788535		79
2054	20913	These are big storms and traffic isn't moving.	These are big storm and traffic isn't moving.	997680	1471960788648	1471960788736		86
2054	20913	These are big storms and traffic isn't moving.	These are big storm and traffic isn't moving.	997684	1471960788720	1471960788823		73
2054	20913	These are big storms and traffic isn't moving.	These are big storm and traffic isn't moving.	997687	1471960788936	1471960789047		78
2054	20913	These are big storms and traffic isn't moving.	These are big storm and traffic isn't moving.	997782	1471960789050	1471960789159		70
2054	20913	These are big storms and traffic isn't moving.	These are big storm and traffic isn't moving.	997785	1471960790304	1471960790408		8
2054	20913	These are big storms and traffic isn't moving.	These are big storm and traffic isn't moving.	997789	1471960790409	1471960790519		71
2054	20913	These are big storms and traffic isn't moving.	These are big storm and traffic isn't moving.	997793	1471960790600	1471960790647		190
2054	20928	Is this cash coming into TW?	Is this cash coming into TW?	997959	1471960793709	1471960793839	CAPS_LOCK	20
2054	20928	Is this cash coming into TW?	Is this cash coming into TW?	997964	1471960793840	1471960793937		73
2054	20928	Is this cash coming into TW?	Is this cash coming into TW?	997970	1471960793952	1471960794079	CAPS_LOCK	20
2054	20928	Is this cash coming into TW?	Is this cash coming into TW?	997979	1471960794167	1471960794303		83
2054	20928	Is this cash coming into TW?	Is this cash coming into TW?	997985	1471960794264	1471960794391		32
2054	20928	Is this cash coming into TW?	Is this cash coming into TW?	997990	1471960794496	1471960794623		84
2054	20928	Is this cash coming into TW?	Is this cash coming into TW?	997995	1471960794648	1471960794800		72
2054	20928	Is this cash coming into TW?	Is this cash coming into TW?	998022	1471960794784	1471960794936		73
2054	20928	Is this cash coming into TW?	Is this cash coming into TW?	998024	1471960795039	1471960795175		83
2054	20928	Is this cash coming into TW?	Is this cash coming into TW?	998026	1471960795216	1471960795319		32
2054	20928	Is this cash coming into TW?	Is this cash coming into TW?	998027	1471960795439	1471960795623		67
2054	20928	Is this cash coming into TW?	Is this cash coming into TW?	998028	1471960795528	1471960795679		65
2054	20928	Is this cash coming into TW?	Is this cash coming into TW?	998031	1471960795744	1471960795863		83
2054	20928	Is this cash coming into TW?	Is this cash coming into TW?	998102	1471960796696	1471960796751		72
2054	20928	Is this cash coming into TW?	Is this cash coming into TW?	998105	1471960797120	1471960797215		32
2054	20928	Is this cash coming into TW?	Is this cash coming into TW?	998109	1471960797375	1471960797495		67
2054	20928	Is this cash coming into TW?	Is this cash coming into TW?	998113	1471960797472	1471960797591		79
2054	20928	Is this cash coming into TW?	Is this cash coming into TW?	998115	1471960797688	1471960797784		77
2054	20928	Is this cash coming into TW?	Is this cash coming into TW?	998161	1471960797815	1471960797927		73
2054	20928	Is this cash coming into TW?	Is this cash coming into TW?	998164	1471960797976	1471960798111		78
2054	20928	Is this cash coming into TW?	Is this cash coming into TW?	998167	1471960798440	1471960798568		71
2054	20928	Is this cash coming into TW?	Is this cash coming into TW?	998170	1471960798568	1471960798679		32
2054	20928	Is this cash coming into TW?	Is this cash coming into TW?	998172	1471960799232	1471960799327		73
2054	20928	Is this cash coming into TW?	Is this cash coming into TW?	998220	1471960799392	1471960799527		78
2054	20928	Is this cash coming into TW?	Is this cash coming into TW?	998223	1471960799511	1471960799645		84
2054	20928	Is this cash coming into TW?	Is this cash coming into TW?	998225	1471960799624	1471960799735		79
2054	20928	Is this cash coming into TW?	Is this cash coming into TW?	998231	1471960799839	1471960799967		32
2054	20928	Is this cash coming into TW?	Is this cash coming into TW?	998237	1471960800199	1471960800335	CAPS_LOCK	20
2054	20928	Is this cash coming into TW?	Is this cash coming into TW?	998244	1471960800439	1471960800535		84
2054	20928	Is this cash coming into TW?	Is this cash coming into TW?	998296	1471960800760	1471960800879		87
2054	20928	Is this cash coming into TW?	Is this cash coming into TW?	998299	1471960801231	1471960801551	SHIFT	16
2054	20928	Is this cash coming into TW?	Is this cash coming into TW?	998297	1471960801392	1471960801503		191
2054	20940	There are some different rules here.	There are some different rules here.	998462	1471960804896	1471960805027	CAPS_LOCK	20
2054	20940	There are some different rules here.	There are some different rules here.	998466	1471960805152	1471960805247		84
2054	20940	There are some different rules here.	There are some different rules here.	998470	1471960805224	1471960805399	CAPS_LOCK	20
2054	20940	There are some different rules here.	There are some different rules here.	998475	1471960805344	1471960805472		72
2054	20940	There are some different rules here.	There are some different rules here.	998479	1471960805584	1471960805711		69
2054	20940	There are some different rules here.	There are some different rules here.	998481	1471960805792	1471960805927		83
2054	20940	There are some different rules here.	There are some different rules here.	998486	1471960806088	1471960806183		8
2054	20940	There are some different rules here.	There are some different rules here.	998545	1471960806239	1471960806327		8
2054	20940	There are some different rules here.	There are some different rules here.	998550	1471960806391	1471960806487		8
2054	20940	There are some different rules here.	There are some different rules here.	998556	1471960806536	1471960806631		8
2054	20940	There are some different rules here.	There are some different rules here.	998563	1471960807048	1471960807143		84
2054	20940	There are some different rules here.	There are some different rules here.	998567	1471960807184	1471960807311	CAPS_LOCK	20
2054	20940	There are some different rules here.	There are some different rules here.	998571	1471960807328	1471960807423		72
2054	20940	There are some different rules here.	There are some different rules here.	998626	1471960807488	1471960807599		69
2054	20940	There are some different rules here.	There are some different rules here.	998630	1471960807776	1471960807863		82
2054	20940	There are some different rules here.	There are some different rules here.	998633	1471960807976	1471960808087		69
2054	20940	There are some different rules here.	There are some different rules here.	998636	1471960808176	1471960808264		32
2054	20940	There are some different rules here.	There are some different rules here.	998640	1471960808656	1471960808791		65
2054	20940	There are some different rules here.	There are some different rules here.	998685	1471960808848	1471960808936		83
2054	20940	There are some different rules here.	There are some different rules here.	998687	1471960809335	1471960809447		8
2054	20940	There are some different rules here.	There are some different rules here.	998689	1471960809432	1471960809519		82
2054	20940	There are some different rules here.	There are some different rules here.	998691	1471960809621	1471960809719		69
2054	20940	There are some different rules here.	There are some different rules here.	998693	1471960809759	1471960809887		32
2054	20940	There are some different rules here.	There are some different rules here.	998720	1471960809927	1471960810055		83
2054	20940	There are some different rules here.	There are some different rules here.	998721	1471960810008	1471960810119		79
2054	20940	There are some different rules here.	There are some different rules here.	998722	1471960810239	1471960810335		77
2054	20940	There are some different rules here.	There are some different rules here.	998723	1471960810312	1471960810439		69
2054	20940	There are some different rules here.	There are some different rules here.	998724	1471960810463	1471960810575		32
2054	20940	There are some different rules here.	There are some different rules here.	998765	1471960810927	1471960811047		68
2054	20940	There are some different rules here.	There are some different rules here.	998768	1471960811360	1471960811431		73
2054	20940	There are some different rules here.	There are some different rules here.	998771	1471960811536	1471960811623		70
2054	20940	There are some different rules here.	There are some different rules here.	998776	1471960811712	1471960811839		70
2054	20940	There are some different rules here.	There are some different rules here.	998780	1471960811944	1471960812087		69
2054	20940	There are some different rules here.	There are some different rules here.	998804	1471960812183	1471960812279		82
2054	20940	There are some different rules here.	There are some different rules here.	998806	1471960812351	1471960812479		69
2054	20940	There are some different rules here.	There are some different rules here.	998810	1471960812503	1471960812640		78
2054	20940	There are some different rules here.	There are some different rules here.	998815	1471960812656	1471960812767		84
2054	20940	There are some different rules here.	There are some different rules here.	998820	1471960812768	1471960812879		32
2054	20940	There are some different rules here.	There are some different rules here.	998873	1471960813231	1471960813343		82
2054	20940	There are some different rules here.	There are some different rules here.	998877	1471960813431	1471960813479		85
2054	20940	There are some different rules here.	There are some different rules here.	998882	1471960813647	1471960813743		76
2054	20940	There are some different rules here.	There are some different rules here.	998887	1471960813719	1471960813839		69
2054	20940	There are some different rules here.	There are some different rules here.	998893	1471960813927	1471960814039		83
2054	20940	There are some different rules here.	There are some different rules here.	998921	1471960814056	1471960814159		32
2054	20940	There are some different rules here.	There are some different rules here.	998925	1471960814487	1471960814575		72
2054	20940	There are some different rules here.	There are some different rules here.	998928	1471960814575	1471960814759		69
2054	20940	There are some different rules here.	There are some different rules here.	998933	1471960814708	1471960814831		82
2054	20940	There are some different rules here.	There are some different rules here.	998937	1471960815215	1471960815343		69
2054	20940	There are some different rules here.	There are some different rules here.	998948	1471960815663	1471960815751		190
2054	21170	Just don't start him against the stifling Ravens defense this week.	Just don't start him against the stifling Ravens defense this week.	1008965	1471961006068	1471961006175	CAPS_LOCK	20
2054	21170	Just don't start him against the stifling Ravens defense this week.	Just don't start him against the stifling Ravens defense this week.	1008966	1471961006216	1471961006343		74
2054	21170	Just don't start him against the stifling Ravens defense this week.	Just don't start him against the stifling Ravens defense this week.	1008968	1471961006303	1471961006415	CAPS_LOCK	20
2054	21170	Just don't start him against the stifling Ravens defense this week.	Just don't start him against the stifling Ravens defense this week.	1008970	1471961006416	1471961006519		85
2054	21170	Just don't start him against the stifling Ravens defense this week.	Just don't start him against the stifling Ravens defense this week.	1008974	1471961006583	1471961006743		83
2054	21170	Just don't start him against the stifling Ravens defense this week.	Just don't start him against the stifling Ravens defense this week.	1008978	1471961006983	1471961007087		84
2054	21170	Just don't start him against the stifling Ravens defense this week.	Just don't start him against the stifling Ravens defense this week.	1008985	1471961007103	1471961007199		32
2054	21170	Just don't start him against the stifling Ravens defense this week.	Just don't start him against the stifling Ravens defense this week.	1009070	1471961007631	1471961007735		68
2054	21170	Just don't start him against the stifling Ravens defense this week.	Just don't start him against the stifling Ravens defense this week.	1009076	1471961007807	1471961007879		79
2054	21170	Just don't start him against the stifling Ravens defense this week.	Just don't start him against the stifling Ravens defense this week.	1009083	1471961008023	1471961008071		78
2054	21170	Just don't start him against the stifling Ravens defense this week.	Just don't start him against the stifling Ravens defense this week.	1009088	1471961008512	1471961008599		222
2054	21170	Just don't start him against the stifling Ravens defense this week.	Just don't start him against the stifling Ravens defense this week.	1009091	1471961008647	1471961008726		84
2054	21170	Just don't start him against the stifling Ravens defense this week.	Just don't start him against the stifling Ravens defense this week.	1009164	1471961008743	1471961008839		32
2054	21170	Just don't start him against the stifling Ravens defense this week.	Just don't start him against the stifling Ravens defense this week.	1009171	1471961008895	1471961009031		83
2054	21170	Just don't start him against the stifling Ravens defense this week.	Just don't start him against the stifling Ravens defense this week.	1009174	1471961009127	1471961009243		84
2054	21170	Just don't start him against the stifling Ravens defense this week.	Just don't start him against the stifling Ravens defense this week.	1009178	1471961009244	1471961009375		65
2054	21170	Just don't start him against the stifling Ravens defense this week.	Just don't start him against the stifling Ravens defense this week.	1009182	1471961009727	1471961009767		82
2054	21170	Just don't start him against the stifling Ravens defense this week.	Just don't start him against the stifling Ravens defense this week.	1009289	1471961009924	1471961010000		84
2054	21170	Just don't start him against the stifling Ravens defense this week.	Just don't start him against the stifling Ravens defense this week.	1009293	1471961010119	1471961010230		32
2054	21170	Just don't start him against the stifling Ravens defense this week.	Just don't start him against the stifling Ravens defense this week.	1009297	1471961010968	1471961011072		72
2054	21170	Just don't start him against the stifling Ravens defense this week.	Just don't start him against the stifling Ravens defense this week.	1009302	1471961011095	1471961011207		73
2054	21170	Just don't start him against the stifling Ravens defense this week.	Just don't start him against the stifling Ravens defense this week.	1009307	1471961011295	1471961011375		77
2054	21170	Just don't start him against the stifling Ravens defense this week.	Just don't start him against the stifling Ravens defense this week.	1009346	1471961011471	1471961011551		32
2054	21170	Just don't start him against the stifling Ravens defense this week.	Just don't start him against the stifling Ravens defense this week.	1009347	1471961011527	1471961011655		65
2054	21170	Just don't start him against the stifling Ravens defense this week.	Just don't start him against the stifling Ravens defense this week.	1009348	1471961011703	1471961011799		71
2054	21170	Just don't start him against the stifling Ravens defense this week.	Just don't start him against the stifling Ravens defense this week.	1009350	1471961011815	1471961011927		65
2054	21170	Just don't start him against the stifling Ravens defense this week.	Just don't start him against the stifling Ravens defense this week.	1009352	1471961011951	1471961012042		73
2054	21170	Just don't start him against the stifling Ravens defense this week.	Just don't start him against the stifling Ravens defense this week.	1009408	1471961012127	1471961012231		78
2054	21170	Just don't start him against the stifling Ravens defense this week.	Just don't start him against the stifling Ravens defense this week.	1009410	1471961012252	1471961012343		83
2054	21170	Just don't start him against the stifling Ravens defense this week.	Just don't start him against the stifling Ravens defense this week.	1009413	1471961012415	1471961012479		84
2054	21170	Just don't start him against the stifling Ravens defense this week.	Just don't start him against the stifling Ravens defense this week.	1009417	1471961012911	1471961012999		84
2054	21170	Just don't start him against the stifling Ravens defense this week.	Just don't start him against the stifling Ravens defense this week.	1009420	1471961013262	1471961013350		8
2054	21170	Just don't start him against the stifling Ravens defense this week.	Just don't start him against the stifling Ravens defense this week.	1009472	1471961013519	1471961013615		32
2054	21170	Just don't start him against the stifling Ravens defense this week.	Just don't start him against the stifling Ravens defense this week.	1009475	1471961013823	1471961013935		84
2054	21170	Just don't start him against the stifling Ravens defense this week.	Just don't start him against the stifling Ravens defense this week.	1009480	1471961014039	1471961014135		72
2054	21170	Just don't start him against the stifling Ravens defense this week.	Just don't start him against the stifling Ravens defense this week.	1009485	1471961014119	1471961014255		69
2054	21170	Just don't start him against the stifling Ravens defense this week.	Just don't start him against the stifling Ravens defense this week.	1009549	1471961014244	1471961014335		32
2054	21170	Just don't start him against the stifling Ravens defense this week.	Just don't start him against the stifling Ravens defense this week.	1009554	1471961014383	1471961014535		83
2054	21170	Just don't start him against the stifling Ravens defense this week.	Just don't start him against the stifling Ravens defense this week.	1009560	1471961014743	1471961014839		84
2054	21170	Just don't start him against the stifling Ravens defense this week.	Just don't start him against the stifling Ravens defense this week.	1009565	1471961014967	1471961015055		73
2054	21170	Just don't start him against the stifling Ravens defense this week.	Just don't start him against the stifling Ravens defense this week.	1009572	1471961015215	1471961015279		70
2054	21170	Just don't start him against the stifling Ravens defense this week.	Just don't start him against the stifling Ravens defense this week.	1009575	1471961015319	1471961015415		76
2054	21170	Just don't start him against the stifling Ravens defense this week.	Just don't start him against the stifling Ravens defense this week.	1009610	1471961015511	1471961015591		73
2054	21170	Just don't start him against the stifling Ravens defense this week.	Just don't start him against the stifling Ravens defense this week.	1009613	1471961015703	1471961015828		78
2054	21170	Just don't start him against the stifling Ravens defense this week.	Just don't start him against the stifling Ravens defense this week.	1009617	1471961015807	1471961015935		71
2054	21170	Just don't start him against the stifling Ravens defense this week.	Just don't start him against the stifling Ravens defense this week.	1009621	1471961015919	1471961016031		32
2054	21170	Just don't start him against the stifling Ravens defense this week.	Just don't start him against the stifling Ravens defense this week.	1009626	1471961016303	1471961016415	CAPS_LOCK	20
2054	21170	Just don't start him against the stifling Ravens defense this week.	Just don't start him against the stifling Ravens defense this week.	1009629	1471961016535	1471961016647		82
2054	21170	Just don't start him against the stifling Ravens defense this week.	Just don't start him against the stifling Ravens defense this week.	1009688	1471961016672	1471961016911	CAPS_LOCK	20
2054	21170	Just don't start him against the stifling Ravens defense this week.	Just don't start him against the stifling Ravens defense this week.	1009694	1471961016815	1471961016983		65
2054	21170	Just don't start him against the stifling Ravens defense this week.	Just don't start him against the stifling Ravens defense this week.	1009699	1471961017065	1471961017159		86
2054	21170	Just don't start him against the stifling Ravens defense this week.	Just don't start him against the stifling Ravens defense this week.	1009703	1471961017215	1471961017351		69
2054	21170	Just don't start him against the stifling Ravens defense this week.	Just don't start him against the stifling Ravens defense this week.	1009709	1471961017375	1471961017487		78
2054	21170	Just don't start him against the stifling Ravens defense this week.	Just don't start him against the stifling Ravens defense this week.	1009712	1471961017543	1471961017679		83
2054	21170	Just don't start him against the stifling Ravens defense this week.	Just don't start him against the stifling Ravens defense this week.	1009838	1471961018294	1471961018399		32
2054	21170	Just don't start him against the stifling Ravens defense this week.	Just don't start him against the stifling Ravens defense this week.	1009844	1471961018591	1471961018727		68
2054	21170	Just don't start him against the stifling Ravens defense this week.	Just don't start him against the stifling Ravens defense this week.	1009848	1471961018783	1471961018895		69
2054	21170	Just don't start him against the stifling Ravens defense this week.	Just don't start him against the stifling Ravens defense this week.	1009851	1471961019244	1471961019318		70
2054	21170	Just don't start him against the stifling Ravens defense this week.	Just don't start him against the stifling Ravens defense this week.	1009856	1471961019367	1471961019471		69
2054	21170	Just don't start him against the stifling Ravens defense this week.	Just don't start him against the stifling Ravens defense this week.	1009919	1471961019567	1471961019679		78
2054	21170	Just don't start him against the stifling Ravens defense this week.	Just don't start him against the stifling Ravens defense this week.	1009922	1471961019719	1471961019815		83
2054	21170	Just don't start him against the stifling Ravens defense this week.	Just don't start him against the stifling Ravens defense this week.	1009925	1471961019919	1471961020015		69
2054	21170	Just don't start him against the stifling Ravens defense this week.	Just don't start him against the stifling Ravens defense this week.	1009929	1471961019991	1471961020119		32
2054	21170	Just don't start him against the stifling Ravens defense this week.	Just don't start him against the stifling Ravens defense this week.	1009933	1471961020455	1471961020559		84
2054	21170	Just don't start him against the stifling Ravens defense this week.	Just don't start him against the stifling Ravens defense this week.	1009983	1471961020631	1471961020687		72
2054	21170	Just don't start him against the stifling Ravens defense this week.	Just don't start him against the stifling Ravens defense this week.	1009988	1471961020927	1471961021023		73
2054	21170	Just don't start him against the stifling Ravens defense this week.	Just don't start him against the stifling Ravens defense this week.	1009994	1471961021095	1471961021252		83
2054	21170	Just don't start him against the stifling Ravens defense this week.	Just don't start him against the stifling Ravens defense this week.	1010001	1471961021223	1471961021342		32
2054	21170	Just don't start him against the stifling Ravens defense this week.	Just don't start him against the stifling Ravens defense this week.	1010007	1471961021415	1471961021551		87
2054	21170	Just don't start him against the stifling Ravens defense this week.	Just don't start him against the stifling Ravens defense this week.	1010081	1471961021655	1471961021743		69
2054	21170	Just don't start him against the stifling Ravens defense this week.	Just don't start him against the stifling Ravens defense this week.	1010084	1471961021847	1471961021983		69
2054	21170	Just don't start him against the stifling Ravens defense this week.	Just don't start him against the stifling Ravens defense this week.	1010090	1471961022287	1471961022342		76
2054	21170	Just don't start him against the stifling Ravens defense this week.	Just don't start him against the stifling Ravens defense this week.	1010096	1471961022607	1471961022679		8
2054	21170	Just don't start him against the stifling Ravens defense this week.	Just don't start him against the stifling Ravens defense this week.	1010102	1471961022831	1471961022903		75
2054	21170	Just don't start him against the stifling Ravens defense this week.	Just don't start him against the stifling Ravens defense this week.	1010115	1471961023031	1471961023103		190
