PARTICIPANT_ID	TEST_SECTION_ID	SENTENCE	USER_INPUT	KEYSTROKE_ID	PRESS_TIME	RELEASE_TIME	LETTER	KEYCODE
2135	21468	Come join the fun.	Come join the fun.	1023391	1471961200449	1471961200728	SHIFT	16
2135	21468	Come join the fun.	Come join the fun.	1023399	1471961200672	1471961200807	C	67
2135	21468	Come join the fun.	Come join the fun.	1023412	1471961200832	1471961200984	o	79
2135	21468	Come join the fun.	Come join the fun.	1023423	1471961200928	1471961201063	m	77
2135	21468	Come join the fun.	Come join the fun.	1023433	1471961201040	1471961201136	e	69
2135	21468	Come join the fun.	Come join the fun.	1023438	1471961201568	1471961201640	 	32
2135	21468	Come join the fun.	Come join the fun.	1023611	1471961202120	1471961202248	j	74
2135	21468	Come join the fun.	Come join the fun.	1023619	1471961202240	1471961202352	o	79
2135	21468	Come join the fun.	Come join the fun.	1023627	1471961202456	1471961202519	i	73
2135	21468	Come join the fun.	Come join the fun.	1023636	1471961202680	1471961202752	n	78
2135	21468	Come join the fun.	Come join the fun.	1023645	1471961202888	1471961202967	 	32
2135	21468	Come join the fun.	Come join the fun.	1023712	1471961203024	1471961203087	t	84
2135	21468	Come join the fun.	Come join the fun.	1023718	1471961203152	1471961203223	h	72
2135	21468	Come join the fun.	Come join the fun.	1023725	1471961203248	1471961203327	e	69
2135	21468	Come join the fun.	Come join the fun.	1023731	1471961203384	1471961203439	 	32
2135	21468	Come join the fun.	Come join the fun.	1023739	1471961203728	1471961203807	f	70
2135	21468	Come join the fun.	Come join the fun.	1023894	1471961203840	1471961203951	u	85
2135	21468	Come join the fun.	Come join the fun.	1023898	1471961203920	1471961204015	n	78
2135	21468	Come join the fun.	Come join the fun.	1023902	1471961204792	1471961204855	.	190
2135	21482	No there will be plenty of others.	NO there will be plenty of others. 	1024866	1471961211423	1471961211655	SHIFT	16
2135	21482	No there will be plenty of others.	NO there will be plenty of others. 	1024875	1471961211535	1471961211687	N	78
2135	21482	No there will be plenty of others.	NO there will be plenty of others. 	1024883	1471961211608	1471961211759	O	79
2135	21482	No there will be plenty of others.	NO there will be plenty of others. 	1024889	1471961211880	1471961211967	 	32
2135	21482	No there will be plenty of others.	NO there will be plenty of others. 	1024897	1471961212447	1471961212511	t	84
2135	21482	No there will be plenty of others.	NO there will be plenty of others. 	1024905	1471961212559	1471961212631	h	72
2135	21482	No there will be plenty of others.	NO there will be plenty of others. 	1024962	1471961212687	1471961212799	e	69
2135	21482	No there will be plenty of others.	NO there will be plenty of others. 	1024969	1471961212879	1471961212951	r	82
2135	21482	No there will be plenty of others.	NO there will be plenty of others. 	1024975	1471961213039	1471961213103	e	69
2135	21482	No there will be plenty of others.	NO there will be plenty of others. 	1024981	1471961213183	1471961213263	 	32
2135	21482	No there will be plenty of others.	NO there will be plenty of others. 	1024991	1471961213431	1471961213511	w	87
2135	21482	No there will be plenty of others.	NO there will be plenty of others. 	1025073	1471961213583	1471961213647	i	73
2135	21482	No there will be plenty of others.	NO there will be plenty of others. 	1025078	1471961213815	1471961213879	l	76
2135	21482	No there will be plenty of others.	NO there will be plenty of others. 	1025086	1471961213943	1471961214007	l	76
2135	21482	No there will be plenty of others.	NO there will be plenty of others. 	1025092	1471961214159	1471961214223	 	32
2135	21482	No there will be plenty of others.	NO there will be plenty of others. 	1025099	1471961214351	1471961214407	b	66
2135	21482	No there will be plenty of others.	NO there will be plenty of others. 	1025209	1471961214447	1471961214527	e	69
2135	21482	No there will be plenty of others.	NO there will be plenty of others. 	1025216	1471961214591	1471961214663	 	32
2135	21482	No there will be plenty of others.	NO there will be plenty of others. 	1025225	1471961215287	1471961215399	p	80
2135	21482	No there will be plenty of others.	NO there will be plenty of others. 	1025235	1471961215343	1471961215471	l	76
2135	21482	No there will be plenty of others.	NO there will be plenty of others. 	1025242	1471961215719	1471961215823	e	69
2135	21482	No there will be plenty of others.	NO there will be plenty of others. 	1025378	1471961215887	1471961215975	n	78
2135	21482	No there will be plenty of others.	NO there will be plenty of others. 	1025382	1471961216159	1471961216223	t	84
2135	21482	No there will be plenty of others.	NO there will be plenty of others. 	1025386	1471961216319	1471961216383	y	89
2135	21482	No there will be plenty of others.	NO there will be plenty of others. 	1025395	1471961216551	1471961216591	 	32
2135	21482	No there will be plenty of others.	NO there will be plenty of others. 	1025402	1471961216815	1471961216887	o	79
2135	21482	No there will be plenty of others.	NO there will be plenty of others. 	1025477	1471961216959	1471961217039	f	70
2135	21482	No there will be plenty of others.	NO there will be plenty of others. 	1025483	1471961217063	1471961217151	 	32
2135	21482	No there will be plenty of others.	NO there will be plenty of others. 	1025494	1471961217423	1471961217495	o	79
2135	21482	No there will be plenty of others.	NO there will be plenty of others. 	1025506	1471961217583	1471961217655	t	84
2135	21482	No there will be plenty of others.	NO there will be plenty of others. 	1025519	1471961217735	1471961217791	h	72
2135	21482	No there will be plenty of others.	NO there will be plenty of others. 	1025665	1471961217831	1471961217919	e	69
2135	21482	No there will be plenty of others.	NO there will be plenty of others. 	1025672	1471961218023	1471961218087	r	82
2135	21482	No there will be plenty of others.	NO there will be plenty of others. 	1025680	1471961218279	1471961218375	s	83
2135	21482	No there will be plenty of others.	NO there will be plenty of others. 	1025685	1471961218639	1471961218703	.	190
2135	21482	No there will be plenty of others.	NO there will be plenty of others. 	1025690	1471961218775	1471961218863	 	32
2135	21518	We can work around these plans if you prefer.	We can work around these plans if you prefer.	1026057	1471961220895	1471961221207	SHIFT	16
2135	21518	We can work around these plans if you prefer.	We can work around these plans if you prefer.	1026061	1471961221135	1471961221207	W	87
2135	21518	We can work around these plans if you prefer.	We can work around these plans if you prefer.	1026071	1471961221399	1471961221463	e	69
2135	21518	We can work around these plans if you prefer.	We can work around these plans if you prefer.	1026077	1471961221655	1471961221735	 	32
2135	21518	We can work around these plans if you prefer.	We can work around these plans if you prefer.	1026085	1471961221871	1471961221927	c	67
2135	21518	We can work around these plans if you prefer.	We can work around these plans if you prefer.	1026092	1471961221967	1471961222079	a	65
2135	21518	We can work around these plans if you prefer.	We can work around these plans if you prefer.	1026265	1471961222135	1471961222199	n	78
2135	21518	We can work around these plans if you prefer.	We can work around these plans if you prefer.	1026269	1471961222327	1471961222383	 	32
2135	21518	We can work around these plans if you prefer.	We can work around these plans if you prefer.	1026276	1471961223543	1471961223647	w	87
2135	21518	We can work around these plans if you prefer.	We can work around these plans if you prefer.	1026283	1471961223663	1471961223743	o	79
2135	21518	We can work around these plans if you prefer.	We can work around these plans if you prefer.	1026289	1471961223807	1471961223879	r	82
2135	21518	We can work around these plans if you prefer.	We can work around these plans if you prefer.	1026466	1471961224215	1471961224279	k	75
2135	21518	We can work around these plans if you prefer.	We can work around these plans if you prefer.	1026474	1471961224423	1471961224487	 	32
2135	21518	We can work around these plans if you prefer.	We can work around these plans if you prefer.	1026483	1471961225119	1471961225231	a	65
2135	21518	We can work around these plans if you prefer.	We can work around these plans if you prefer.	1026492	1471961225447	1471961225503	r	82
2135	21518	We can work around these plans if you prefer.	We can work around these plans if you prefer.	1026503	1471961225559	1471961225639	o	79
2135	21518	We can work around these plans if you prefer.	We can work around these plans if you prefer.	1026631	1471961225775	1471961225863	u	85
2135	21518	We can work around these plans if you prefer.	We can work around these plans if you prefer.	1026638	1471961225887	1471961225999	n	78
2135	21518	We can work around these plans if you prefer.	We can work around these plans if you prefer.	1026643	1471961226047	1471961226134	d	68
2135	21518	We can work around these plans if you prefer.	We can work around these plans if you prefer.	1026649	1471961226231	1471961226303	 	32
2135	21518	We can work around these plans if you prefer.	We can work around these plans if you prefer.	1026660	1471961226959	1471961227022	t	84
2135	21518	We can work around these plans if you prefer.	We can work around these plans if you prefer.	1026764	1471961227103	1471961227174	h	72
2135	21518	We can work around these plans if you prefer.	We can work around these plans if you prefer.	1026769	1471961227223	1471961227310	e	69
2135	21518	We can work around these plans if you prefer.	We can work around these plans if you prefer.	1026774	1471961227455	1471961227591	s	83
2135	21518	We can work around these plans if you prefer.	We can work around these plans if you prefer.	1026782	1471961227695	1471961227775	e	69
2135	21518	We can work around these plans if you prefer.	We can work around these plans if you prefer.	1026788	1471961227911	1471961227950	 	32
2135	21518	We can work around these plans if you prefer.	We can work around these plans if you prefer.	1026909	1471961228567	1471961228686	p	80
2135	21518	We can work around these plans if you prefer.	We can work around these plans if you prefer.	1026915	1471961228655	1471961228742	l	76
2135	21518	We can work around these plans if you prefer.	We can work around these plans if you prefer.	1026922	1471961228783	1471961228910	a	65
2135	21518	We can work around these plans if you prefer.	We can work around these plans if you prefer.	1026929	1471961228951	1471961229014	n	78
2135	21518	We can work around these plans if you prefer.	We can work around these plans if you prefer.	1026933	1471961229087	1471961229183	s	83
2135	21518	We can work around these plans if you prefer.	We can work around these plans if you prefer.	1027056	1471961229255	1471961229351	 	32
2135	21518	We can work around these plans if you prefer.	We can work around these plans if you prefer.	1027062	1471961230143	1471961230230	i	73
2135	21518	We can work around these plans if you prefer.	We can work around these plans if you prefer.	1027072	1471961230263	1471961230375	f	70
2135	21518	We can work around these plans if you prefer.	We can work around these plans if you prefer.	1027081	1471961230375	1471961230470	 	32
2135	21518	We can work around these plans if you prefer.	We can work around these plans if you prefer.	1027088	1471961230687	1471961230782	y	89
2135	21518	We can work around these plans if you prefer.	We can work around these plans if you prefer.	1027150	1471961230847	1471961230910	o	79
2135	21518	We can work around these plans if you prefer.	We can work around these plans if you prefer.	1027153	1471961230959	1471961231014	u	85
2135	21518	We can work around these plans if you prefer.	We can work around these plans if you prefer.	1027159	1471961231087	1471961231158	 	32
2135	21518	We can work around these plans if you prefer.	We can work around these plans if you prefer.	1027164	1471961231335	1471961231398	p	80
2135	21518	We can work around these plans if you prefer.	We can work around these plans if you prefer.	1027169	1471961231527	1471961231590	r	82
2135	21518	We can work around these plans if you prefer.	We can work around these plans if you prefer.	1027466	1471961231879	1471961231958	e	69
2135	21518	We can work around these plans if you prefer.	We can work around these plans if you prefer.	1027469	1471961232567	1471961232638	f	70
2135	21518	We can work around these plans if you prefer.	We can work around these plans if you prefer.	1027474	1471961232703	1471961232806	e	69
2135	21518	We can work around these plans if you prefer.	We can work around these plans if you prefer.	1027481	1471961233543	1471961233630	r	82
2135	21518	We can work around these plans if you prefer.	We can work around these plans if you prefer.	1027485	1471961233999	1471961234078	.	190
2135	21561	Here's your Gas Daily pricing.	Here's your  Gas Daily pricing.	1028819	1471961242582	1471961242766	SHIFT	16
2135	21561	Here's your Gas Daily pricing.	Here's your  Gas Daily pricing.	1028822	1471961242750	1471961242838	H	72
2135	21561	Here's your Gas Daily pricing.	Here's your  Gas Daily pricing.	1028827	1471961243038	1471961243118	e	69
2135	21561	Here's your Gas Daily pricing.	Here's your  Gas Daily pricing.	1028838	1471961243198	1471961243278	r	82
2135	21561	Here's your Gas Daily pricing.	Here's your  Gas Daily pricing.	1028844	1471961243350	1471961243406	e	69
2135	21561	Here's your Gas Daily pricing.	Here's your  Gas Daily pricing.	1028850	1471961243918	1471961243990	'	222
2135	21561	Here's your Gas Daily pricing.	Here's your  Gas Daily pricing.	1028931	1471961244070	1471961244174	s	83
2135	21561	Here's your Gas Daily pricing.	Here's your  Gas Daily pricing.	1028937	1471961244254	1471961244326	 	32
2135	21561	Here's your Gas Daily pricing.	Here's your  Gas Daily pricing.	1028941	1471961244502	1471961244574	y	89
2135	21561	Here's your Gas Daily pricing.	Here's your  Gas Daily pricing.	1028948	1471961244678	1471961244742	o	79
2135	21561	Here's your Gas Daily pricing.	Here's your  Gas Daily pricing.	1028951	1471961244814	1471961244878	u	85
2135	21561	Here's your Gas Daily pricing.	Here's your  Gas Daily pricing.	1029070	1471961245134	1471961245206	r	82
2135	21561	Here's your Gas Daily pricing.	Here's your  Gas Daily pricing.	1029074	1471961245294	1471961245374	 	32
2135	21561	Here's your Gas Daily pricing.	Here's your  Gas Daily pricing.	1029079	1471961245758	1471961245830	g	71
2135	21561	Here's your Gas Daily pricing.	Here's your  Gas Daily pricing.	1029084	1471961245902	1471961245998	a	65
2135	21561	Here's your Gas Daily pricing.	Here's your  Gas Daily pricing.	1029090	1471961246134	1471961246206	s	83
2135	21561	Here's your Gas Daily pricing.	Here's your  Gas Daily pricing.	1029502	1471961246302	1471961246374	 	32
2135	21561	Here's your Gas Daily pricing.	Here's your  Gas Daily pricing.	1029510	1471961248230	1471961248294	BKSP	8
2135	21561	Here's your Gas Daily pricing.	Here's your  Gas Daily pricing.	1029520	1471961248366	1471961248430	BKSP	8
2135	21561	Here's your Gas Daily pricing.	Here's your  Gas Daily pricing.	1029527	1471961248502	1471961248566	BKSP	8
2135	21561	Here's your Gas Daily pricing.	Here's your  Gas Daily pricing.	1029532	1471961248630	1471961248694	BKSP	8
2135	21561	Here's your Gas Daily pricing.	Here's your  Gas Daily pricing.	1029537	1471961249182	1471961249246	 	32
2135	21561	Here's your Gas Daily pricing.	Here's your  Gas Daily pricing.	1029545	1471961249350	1471961249581	SHIFT	16
2135	21561	Here's your Gas Daily pricing.	Here's your  Gas Daily pricing.	1029541	1471961249502	1471961249566	G	71
2135	21561	Here's your Gas Daily pricing.	Here's your  Gas Daily pricing.	1029550	1471961249718	1471961249798	a	65
2135	21561	Here's your Gas Daily pricing.	Here's your  Gas Daily pricing.	1029562	1471961249950	1471961250014	s	83
2135	21561	Here's your Gas Daily pricing.	Here's your  Gas Daily pricing.	1029651	1471961250094	1471961250166	 	32
2135	21561	Here's your Gas Daily pricing.	Here's your  Gas Daily pricing.	1029665	1471961250334	1471961250814	SHIFT	16
2135	21561	Here's your Gas Daily pricing.	Here's your  Gas Daily pricing.	1029654	1471961250710	1471961250782	D	68
2135	21561	Here's your Gas Daily pricing.	Here's your  Gas Daily pricing.	1029674	1471961250942	1471961251038	a	65
2135	21561	Here's your Gas Daily pricing.	Here's your  Gas Daily pricing.	1029690	1471961251166	1471961251221	i	73
2135	21561	Here's your Gas Daily pricing.	Here's your  Gas Daily pricing.	1029702	1471961251350	1471961251430	l	76
2135	21561	Here's your Gas Daily pricing.	Here's your  Gas Daily pricing.	1029925	1471961251846	1471961251918	y	89
2135	21561	Here's your Gas Daily pricing.	Here's your  Gas Daily pricing.	1029935	1471961252102	1471961252182	 	32
2135	21561	Here's your Gas Daily pricing.	Here's your  Gas Daily pricing.	1029949	1471961253198	1471961253270	p	80
2135	21561	Here's your Gas Daily pricing.	Here's your  Gas Daily pricing.	1029957	1471961253302	1471961253373	r	82
2135	21561	Here's your Gas Daily pricing.	Here's your  Gas Daily pricing.	1029964	1471961253622	1471961253701	i	73
2135	21561	Here's your Gas Daily pricing.	Here's your  Gas Daily pricing.	1030126	1471961253918	1471961253997	c	67
2135	21561	Here's your Gas Daily pricing.	Here's your  Gas Daily pricing.	1030130	1471961254374	1471961254501	i	73
2135	21561	Here's your Gas Daily pricing.	Here's your  Gas Daily pricing.	1030136	1471961254454	1471961254581	n	78
2135	21561	Here's your Gas Daily pricing.	Here's your  Gas Daily pricing.	1030143	1471961254734	1471961254806	g	71
2135	21561	Here's your Gas Daily pricing.	Here's your  Gas Daily pricing.	1030152	1471961255158	1471961255213	.	190
2135	21615	It's all about making the whole story public.	It's all about making the whole story public.	1030853	1471961259733	1471961260021	SHIFT	16
2135	21615	It's all about making the whole story public.	It's all about making the whole story public.	1030864	1471961259950	1471961260029	I	73
2135	21615	It's all about making the whole story public.	It's all about making the whole story public.	1030872	1471961260229	1471961260309	t	84
2135	21615	It's all about making the whole story public.	It's all about making the whole story public.	1030879	1471961260862	1471961260925	'	222
2135	21615	It's all about making the whole story public.	It's all about making the whole story public.	1030889	1471961261013	1471961261109	s	83
2135	21615	It's all about making the whole story public.	It's all about making the whole story public.	1030897	1471961261157	1471961261213	 	32
2135	21615	It's all about making the whole story public.	It's all about making the whole story public.	1031079	1471961261334	1471961261445	a	65
2135	21615	It's all about making the whole story public.	It's all about making the whole story public.	1031087	1471961261526	1471961261597	l	76
2135	21615	It's all about making the whole story public.	It's all about making the whole story public.	1031093	1471961261677	1471961261741	l	76
2135	21615	It's all about making the whole story public.	It's all about making the whole story public.	1031102	1471961261870	1471961261941	 	32
2135	21615	It's all about making the whole story public.	It's all about making the whole story public.	1031110	1471961263013	1471961263133	a	65
2135	21615	It's all about making the whole story public.	It's all about making the whole story public.	1031408	1471961263125	1471961263237	b	66
2135	21615	It's all about making the whole story public.	It's all about making the whole story public.	1031419	1471961263333	1471961263461	o	79
2135	21615	It's all about making the whole story public.	It's all about making the whole story public.	1031432	1471961263565	1471961263637	u	85
2135	21615	It's all about making the whole story public.	It's all about making the whole story public.	1031444	1471961263781	1471961263853	 	32
2135	21615	It's all about making the whole story public.	It's all about making the whole story public.	1031452	1471961263909	1471961263957	t	84
2135	21615	It's all about making the whole story public.	It's all about making the whole story public.	1031455	1471961265093	1471961265141	BKSP	8
2135	21615	It's all about making the whole story public.	It's all about making the whole story public.	1031461	1471961265221	1471961265285	BKSP	8
2135	21615	It's all about making the whole story public.	It's all about making the whole story public.	1031465	1471961265333	1471961265421	t	84
2135	21615	It's all about making the whole story public.	It's all about making the whole story public.	1031596	1471961265613	1471961265693	 	32
2135	21615	It's all about making the whole story public.	It's all about making the whole story public.	1031602	1471961266533	1471961266613	m	77
2135	21615	It's all about making the whole story public.	It's all about making the whole story public.	1031611	1471961266621	1471961266749	a	65
2135	21615	It's all about making the whole story public.	It's all about making the whole story public.	1031621	1471961266773	1471961266861	k	75
2135	21615	It's all about making the whole story public.	It's all about making the whole story public.	1031628	1471961266973	1471961267037	i	73
2135	21615	It's all about making the whole story public.	It's all about making the whole story public.	1031766	1471961267157	1471961267245	n	78
2135	21615	It's all about making the whole story public.	It's all about making the whole story public.	1031769	1471961267333	1471961267421	g	71
2135	21615	It's all about making the whole story public.	It's all about making the whole story public.	1031776	1471961267477	1471961267541	 	32
2135	21615	It's all about making the whole story public.	It's all about making the whole story public.	1031781	1471961268317	1471961268389	t	84
2135	21615	It's all about making the whole story public.	It's all about making the whole story public.	1031786	1471961268437	1471961268509	h	72
2135	21615	It's all about making the whole story public.	It's all about making the whole story public.	1031971	1471961268565	1471961268637	e	69
2135	21615	It's all about making the whole story public.	It's all about making the whole story public.	1031980	1471961268701	1471961268805	 	32
2135	21615	It's all about making the whole story public.	It's all about making the whole story public.	1031988	1471961268877	1471961268973	w	87
2135	21615	It's all about making the whole story public.	It's all about making the whole story public.	1031994	1471961269181	1471961269245	j	74
2135	21615	It's all about making the whole story public.	It's all about making the whole story public.	1031998	1471961269773	1471961269829	BKSP	8
2135	21615	It's all about making the whole story public.	It's all about making the whole story public.	1032002	1471961270045	1471961270109	h	72
2135	21615	It's all about making the whole story public.	It's all about making the whole story public.	1032141	1471961270157	1471961270221	o	79
2135	21615	It's all about making the whole story public.	It's all about making the whole story public.	1032147	1471961270349	1471961270421	l	76
2135	21615	It's all about making the whole story public.	It's all about making the whole story public.	1032153	1471961270525	1471961270589	e	69
2135	21615	It's all about making the whole story public.	It's all about making the whole story public.	1032160	1471961270661	1471961270733	 	32
2135	21615	It's all about making the whole story public.	It's all about making the whole story public.	1032164	1471961271661	1471961271765	s	83
2135	21615	It's all about making the whole story public.	It's all about making the whole story public.	1032243	1471961271829	1471961271901	t	84
2135	21615	It's all about making the whole story public.	It's all about making the whole story public.	1032246	1471961272253	1471961272317	o	79
2135	21615	It's all about making the whole story public.	It's all about making the whole story public.	1032251	1471961272413	1471961272485	r	82
2135	21615	It's all about making the whole story public.	It's all about making the whole story public.	1032259	1471961272573	1471961272629	y	89
2135	21615	It's all about making the whole story public.	It's all about making the whole story public.	1032267	1471961272757	1471961272829	 	32
2135	21615	It's all about making the whole story public.	It's all about making the whole story public.	1032381	1471961273013	1471961273101	p	80
2135	21615	It's all about making the whole story public.	It's all about making the whole story public.	1032388	1471961273349	1471961273413	u	85
2135	21615	It's all about making the whole story public.	It's all about making the whole story public.	1032393	1471961273605	1471961273677	b	66
2135	21615	It's all about making the whole story public.	It's all about making the whole story public.	1032409	1471961273933	1471961274005	l	76
2135	21615	It's all about making the whole story public.	It's all about making the whole story public.	1032413	1471961274173	1471961274237	i	73
2135	21615	It's all about making the whole story public.	It's all about making the whole story public.	1032502	1471961274365	1471961274453	c	67
2135	21615	It's all about making the whole story public.	It's all about making the whole story public.	1032515	1471961274837	1471961274893	.	190
2135	21667	I would suggest you and Mark address this together.	I would suggest you and Mark address this together.	1033602	1471961282532	1471961282732	SHIFT	16
2135	21667	I would suggest you and Mark address this together.	I would suggest you and Mark address this together.	1033607	1471961282693	1471961282756	I	73
2135	21667	I would suggest you and Mark address this together.	I would suggest you and Mark address this together.	1033613	1471961282852	1471961282940	 	32
2135	21667	I would suggest you and Mark address this together.	I would suggest you and Mark address this together.	1033620	1471961283429	1471961283524	w	87
2135	21667	I would suggest you and Mark address this together.	I would suggest you and Mark address this together.	1033627	1471961283541	1471961283612	o	79
2135	21667	I would suggest you and Mark address this together.	I would suggest you and Mark address this together.	1033635	1471961283741	1471961283812	u	85
2135	21667	I would suggest you and Mark address this together.	I would suggest you and Mark address this together.	1033748	1471961284149	1471961284212	l	76
2135	21667	I would suggest you and Mark address this together.	I would suggest you and Mark address this together.	1033754	1471961284341	1471961284420	d	68
2135	21667	I would suggest you and Mark address this together.	I would suggest you and Mark address this together.	1033761	1471961284477	1471961284548	 	32
2135	21667	I would suggest you and Mark address this together.	I would suggest you and Mark address this together.	1033769	1471961284621	1471961284724	s	83
2135	21667	I would suggest you and Mark address this together.	I would suggest you and Mark address this together.	1033776	1471961284837	1471961284900	u	85
2135	21667	I would suggest you and Mark address this together.	I would suggest you and Mark address this together.	1033875	1471961285229	1471961285292	g	71
2135	21667	I would suggest you and Mark address this together.	I would suggest you and Mark address this together.	1033884	1471961285357	1471961285420	g	71
2135	21667	I would suggest you and Mark address this together.	I would suggest you and Mark address this together.	1033894	1471961285461	1471961285524	e	69
2135	21667	I would suggest you and Mark address this together.	I would suggest you and Mark address this together.	1033902	1471961285669	1471961285764	s	83
2135	21667	I would suggest you and Mark address this together.	I would suggest you and Mark address this together.	1033911	1471961285797	1471961285860	t	84
2135	21667	I would suggest you and Mark address this together.	I would suggest you and Mark address this together.	1033987	1471961285988	1471961286044	 	32
2135	21667	I would suggest you and Mark address this together.	I would suggest you and Mark address this together.	1033993	1471961286212	1471961286300	y	89
2135	21667	I would suggest you and Mark address this together.	I would suggest you and Mark address this together.	1034003	1471961286357	1471961286412	o	79
2135	21667	I would suggest you and Mark address this together.	I would suggest you and Mark address this together.	1034011	1471961286508	1471961286564	u	85
2135	21667	I would suggest you and Mark address this together.	I would suggest you and Mark address this together.	1034021	1471961286692	1471961286796	 	32
2135	21667	I would suggest you and Mark address this together.	I would suggest you and Mark address this together.	1034210	1471961286916	1471961286996	a	65
2135	21667	I would suggest you and Mark address this together.	I would suggest you and Mark address this together.	1034216	1471961287044	1471961287108	n	78
2135	21667	I would suggest you and Mark address this together.	I would suggest you and Mark address this together.	1034225	1471961287356	1471961287420	d	68
2135	21667	I would suggest you and Mark address this together.	I would suggest you and Mark address this together.	1034232	1471961288036	1471961288100	 	32
2135	21667	I would suggest you and Mark address this together.	I would suggest you and Mark address this together.	1034244	1471961288196	1471961288380	SHIFT	16
2135	21667	I would suggest you and Mark address this together.	I would suggest you and Mark address this together.	1034604	1471961288324	1471961288404	M	77
2135	21667	I would suggest you and Mark address this together.	I would suggest you and Mark address this together.	1034608	1471961288524	1471961288620	a	65
2135	21667	I would suggest you and Mark address this together.	I would suggest you and Mark address this together.	1034614	1471961288932	1471961288996	r	82
2135	21667	I would suggest you and Mark address this together.	I would suggest you and Mark address this together.	1034618	1471961289132	1471961289196	k	75
2135	21667	I would suggest you and Mark address this together.	I would suggest you and Mark address this together.	1034623	1471961289372	1471961289436	 	32
2135	21667	I would suggest you and Mark address this together.	I would suggest you and Mark address this together.	1034629	1471961291180	1471961291252	a	65
2135	21667	I would suggest you and Mark address this together.	I would suggest you and Mark address this together.	1034702	1471961291324	1471961291396	d	68
2135	21667	I would suggest you and Mark address this together.	I would suggest you and Mark address this together.	1034707	1471961291468	1471961291540	d	68
2135	21667	I would suggest you and Mark address this together.	I would suggest you and Mark address this together.	1034712	1471961291668	1471961291740	r	82
2135	21667	I would suggest you and Mark address this together.	I would suggest you and Mark address this together.	1034719	1471961291828	1471961291900	e	69
2135	21667	I would suggest you and Mark address this together.	I would suggest you and Mark address this together.	1034725	1471961292092	1471961292156	s	83
2135	21667	I would suggest you and Mark address this together.	I would suggest you and Mark address this together.	1034796	1471961292260	1471961292324	s	83
2135	21667	I would suggest you and Mark address this together.	I would suggest you and Mark address this together.	1034803	1471961292428	1471961292508	 	32
2135	21667	I would suggest you and Mark address this together.	I would suggest you and Mark address this together.	1034813	1471961292596	1471961292660	t	84
2135	21667	I would suggest you and Mark address this together.	I would suggest you and Mark address this together.	1034829	1471961292748	1471961292852	h	72
2135	21667	I would suggest you and Mark address this together.	I would suggest you and Mark address this together.	1034849	1471961292892	1471961292972	i	73
2135	21667	I would suggest you and Mark address this together.	I would suggest you and Mark address this together.	1035046	1471961293060	1471961293132	s	83
2135	21667	I would suggest you and Mark address this together.	I would suggest you and Mark address this together.	1035054	1471961293188	1471961293268	 	32
2135	21667	I would suggest you and Mark address this together.	I would suggest you and Mark address this together.	1035060	1471961293444	1471961293500	t	84
2135	21667	I would suggest you and Mark address this together.	I would suggest you and Mark address this together.	1035066	1471961293988	1471961294060	BKSP	8
2135	21667	I would suggest you and Mark address this together.	I would suggest you and Mark address this together.	1035074	1471961294412	1471961294484	t	84
2135	21667	I would suggest you and Mark address this together.	I would suggest you and Mark address this together.	1035081	1471961294556	1471961294628	o	79
2135	21667	I would suggest you and Mark address this together.	I would suggest you and Mark address this together.	1035151	1471961294836	1471961294908	g	71
2135	21667	I would suggest you and Mark address this together.	I would suggest you and Mark address this together.	1035159	1471961294996	1471961295068	e	69
2135	21667	I would suggest you and Mark address this together.	I would suggest you and Mark address this together.	1035167	1471961295116	1471961295188	t	84
2135	21667	I would suggest you and Mark address this together.	I would suggest you and Mark address this together.	1035180	1471961295308	1471961295396	h	72
2135	21667	I would suggest you and Mark address this together.	I would suggest you and Mark address this together.	1035186	1471961295412	1471961295532	e	69
2135	21667	I would suggest you and Mark address this together.	I would suggest you and Mark address this together.	1035321	1471961295660	1471961295724	r	82
2135	21667	I would suggest you and Mark address this together.	I would suggest you and Mark address this together.	1035328	1471961296580	1471961296644	.	190
2135	21728	Louis defensive backs should be able to match his downfield speed.	Louis defensive backs should be able to match his downfield speed. 	1036662	1471961305307	1471961305523	SHIFT	16
2135	21728	Louis defensive backs should be able to match his downfield speed.	Louis defensive backs should be able to match his downfield speed. 	1036673	1471961305468	1471961305555	L	76
2135	21728	Louis defensive backs should be able to match his downfield speed.	Louis defensive backs should be able to match his downfield speed. 	1036685	1471961305644	1471961305699	o	79
2135	21728	Louis defensive backs should be able to match his downfield speed.	Louis defensive backs should be able to match his downfield speed. 	1036690	1471961305956	1471961306019	u	85
2135	21728	Louis defensive backs should be able to match his downfield speed.	Louis defensive backs should be able to match his downfield speed. 	1036703	1471961306452	1471961306523	i	73
2135	21728	Louis defensive backs should be able to match his downfield speed.	Louis defensive backs should be able to match his downfield speed. 	1036714	1471961306604	1471961306707	s	83
2135	21728	Louis defensive backs should be able to match his downfield speed.	Louis defensive backs should be able to match his downfield speed. 	1036873	1471961306724	1471961306803	 	32
2135	21728	Louis defensive backs should be able to match his downfield speed.	Louis defensive backs should be able to match his downfield speed. 	1036882	1471961307668	1471961307731	d	68
2135	21728	Louis defensive backs should be able to match his downfield speed.	Louis defensive backs should be able to match his downfield speed. 	1036893	1471961307771	1471961307851	e	69
2135	21728	Louis defensive backs should be able to match his downfield speed.	Louis defensive backs should be able to match his downfield speed. 	1036902	1471961307916	1471961307987	f	70
2135	21728	Louis defensive backs should be able to match his downfield speed.	Louis defensive backs should be able to match his downfield speed. 	1036909	1471961308068	1471961308139	e	69
2135	21728	Louis defensive backs should be able to match his downfield speed.	Louis defensive backs should be able to match his downfield speed. 	1037066	1471961308412	1471961308483	n	78
2135	21728	Louis defensive backs should be able to match his downfield speed.	Louis defensive backs should be able to match his downfield speed. 	1037074	1471961308796	1471961308891	s	83
2135	21728	Louis defensive backs should be able to match his downfield speed.	Louis defensive backs should be able to match his downfield speed. 	1037079	1471961308948	1471961309019	i	73
2135	21728	Louis defensive backs should be able to match his downfield speed.	Louis defensive backs should be able to match his downfield speed. 	1037086	1471961309276	1471961309355	v	86
2135	21728	Louis defensive backs should be able to match his downfield speed.	Louis defensive backs should be able to match his downfield speed. 	1037090	1471961309444	1471961309515	e	69
2135	21728	Louis defensive backs should be able to match his downfield speed.	Louis defensive backs should be able to match his downfield speed. 	1037293	1471961309595	1471961309667	 	32
2135	21728	Louis defensive backs should be able to match his downfield speed.	Louis defensive backs should be able to match his downfield speed. 	1037299	1471961310371	1471961310459	b	66
2135	21728	Louis defensive backs should be able to match his downfield speed.	Louis defensive backs should be able to match his downfield speed. 	1037305	1471961310515	1471961310619	a	65
2135	21728	Louis defensive backs should be able to match his downfield speed.	Louis defensive backs should be able to match his downfield speed. 	1037309	1471961310916	1471961311003	c	67
2135	21728	Louis defensive backs should be able to match his downfield speed.	Louis defensive backs should be able to match his downfield speed. 	1037316	1471961311107	1471961311179	k	75
2135	21728	Louis defensive backs should be able to match his downfield speed.	Louis defensive backs should be able to match his downfield speed. 	1037498	1471961311212	1471961311275	s	83
2135	21728	Louis defensive backs should be able to match his downfield speed.	Louis defensive backs should be able to match his downfield speed. 	1037503	1471961311396	1471961311459	 	32
2135	21728	Louis defensive backs should be able to match his downfield speed.	Louis defensive backs should be able to match his downfield speed. 	1037506	1471961312372	1471961312444	s	83
2135	21728	Louis defensive backs should be able to match his downfield speed.	Louis defensive backs should be able to match his downfield speed. 	1037513	1471961312443	1471961312539	h	72
2135	21728	Louis defensive backs should be able to match his downfield speed.	Louis defensive backs should be able to match his downfield speed. 	1037516	1471961312612	1471961312739	o	79
2135	21728	Louis defensive backs should be able to match his downfield speed.	Louis defensive backs should be able to match his downfield speed. 	1037643	1471961312827	1471961312899	u	85
2135	21728	Louis defensive backs should be able to match his downfield speed.	Louis defensive backs should be able to match his downfield speed. 	1037650	1471961313355	1471961313427	l	76
2135	21728	Louis defensive backs should be able to match his downfield speed.	Louis defensive backs should be able to match his downfield speed. 	1037659	1471961313499	1471961313595	d	68
2135	21728	Louis defensive backs should be able to match his downfield speed.	Louis defensive backs should be able to match his downfield speed. 	1037668	1471961313643	1471961313731	 	32
2135	21728	Louis defensive backs should be able to match his downfield speed.	Louis defensive backs should be able to match his downfield speed. 	1037677	1471961313891	1471961313955	b	66
2135	21728	Louis defensive backs should be able to match his downfield speed.	Louis defensive backs should be able to match his downfield speed. 	1037833	1471961314027	1471961314083	e	69
2135	21728	Louis defensive backs should be able to match his downfield speed.	Louis defensive backs should be able to match his downfield speed. 	1037837	1471961314155	1471961314235	 	32
2135	21728	Louis defensive backs should be able to match his downfield speed.	Louis defensive backs should be able to match his downfield speed. 	1037843	1471961314907	1471961315003	a	65
2135	21728	Louis defensive backs should be able to match his downfield speed.	Louis defensive backs should be able to match his downfield speed. 	1037854	1471961315019	1471961315099	b	66
2135	21728	Louis defensive backs should be able to match his downfield speed.	Louis defensive backs should be able to match his downfield speed. 	1037858	1471961315307	1471961315411	l	76
2135	21728	Louis defensive backs should be able to match his downfield speed.	Louis defensive backs should be able to match his downfield speed. 	1038033	1471961315483	1471961315571	e	69
2135	21728	Louis defensive backs should be able to match his downfield speed.	Louis defensive backs should be able to match his downfield speed. 	1038038	1471961315659	1471961315739	 	32
2135	21728	Louis defensive backs should be able to match his downfield speed.	Louis defensive backs should be able to match his downfield speed. 	1038044	1471961316443	1471961316507	t	84
2135	21728	Louis defensive backs should be able to match his downfield speed.	Louis defensive backs should be able to match his downfield speed. 	1038049	1471961316563	1471961316635	o	79
2135	21728	Louis defensive backs should be able to match his downfield speed.	Louis defensive backs should be able to match his downfield speed. 	1038055	1471961316755	1471961316835	 	32
2135	21728	Louis defensive backs should be able to match his downfield speed.	Louis defensive backs should be able to match his downfield speed. 	1038172	1471961316939	1471961317003	m	77
2135	21728	Louis defensive backs should be able to match his downfield speed.	Louis defensive backs should be able to match his downfield speed. 	1038174	1471961317059	1471961317163	a	65
2135	21728	Louis defensive backs should be able to match his downfield speed.	Louis defensive backs should be able to match his downfield speed. 	1038178	1471961317299	1471961317411	t	84
2135	21728	Louis defensive backs should be able to match his downfield speed.	Louis defensive backs should be able to match his downfield speed. 	1038180	1471961317675	1471961317755	c	67
2135	21728	Louis defensive backs should be able to match his downfield speed.	Louis defensive backs should be able to match his downfield speed. 	1038190	1471961317795	1471961317859	h	72
2135	21728	Louis defensive backs should be able to match his downfield speed.	Louis defensive backs should be able to match his downfield speed. 	1038434	1471961317987	1471961318051	 	32
2135	21728	Louis defensive backs should be able to match his downfield speed.	Louis defensive backs should be able to match his downfield speed. 	1038445	1471961318803	1471961318859	h	72
2135	21728	Louis defensive backs should be able to match his downfield speed.	Louis defensive backs should be able to match his downfield speed. 	1038458	1471961319283	1471961319355	i	73
2135	21728	Louis defensive backs should be able to match his downfield speed.	Louis defensive backs should be able to match his downfield speed. 	1038466	1471961319427	1471961319523	s	83
2135	21728	Louis defensive backs should be able to match his downfield speed.	Louis defensive backs should be able to match his downfield speed. 	1038475	1471961319667	1471961319707	 	32
2135	21728	Louis defensive backs should be able to match his downfield speed.	Louis defensive backs should be able to match his downfield speed. 	1038658	1471961320379	1471961320475	d	68
2135	21728	Louis defensive backs should be able to match his downfield speed.	Louis defensive backs should be able to match his downfield speed. 	1038664	1471961320571	1471961320643	o	79
2135	21728	Louis defensive backs should be able to match his downfield speed.	Louis defensive backs should be able to match his downfield speed. 	1038670	1471961320707	1471961320763	w	87
2135	21728	Louis defensive backs should be able to match his downfield speed.	Louis defensive backs should be able to match his downfield speed. 	1038675	1471961320947	1471961321019	n	78
2135	21728	Louis defensive backs should be able to match his downfield speed.	Louis defensive backs should be able to match his downfield speed. 	1038684	1471961321299	1471961321363	f	70
2135	21728	Louis defensive backs should be able to match his downfield speed.	Louis defensive backs should be able to match his downfield speed. 	1038792	1471961321651	1471961321715	i	73
2135	21728	Louis defensive backs should be able to match his downfield speed.	Louis defensive backs should be able to match his downfield speed. 	1038796	1471961321899	1471961321971	e	69
2135	21728	Louis defensive backs should be able to match his downfield speed.	Louis defensive backs should be able to match his downfield speed. 	1038802	1471961322043	1471961322115	l	76
2135	21728	Louis defensive backs should be able to match his downfield speed.	Louis defensive backs should be able to match his downfield speed. 	1038808	1471961322179	1471961322235	d	68
2135	21728	Louis defensive backs should be able to match his downfield speed.	Louis defensive backs should be able to match his downfield speed. 	1038817	1471961322323	1471961322387	 	32
2135	21728	Louis defensive backs should be able to match his downfield speed.	Louis defensive backs should be able to match his downfield speed. 	1038991	1471961323067	1471961323171	s	83
2135	21728	Louis defensive backs should be able to match his downfield speed.	Louis defensive backs should be able to match his downfield speed. 	1039001	1471961323219	1471961323283	p	80
2135	21728	Louis defensive backs should be able to match his downfield speed.	Louis defensive backs should be able to match his downfield speed. 	1039013	1471961323387	1471961323459	e	69
2135	21728	Louis defensive backs should be able to match his downfield speed.	Louis defensive backs should be able to match his downfield speed. 	1039023	1471961323539	1471961323619	e	69
2135	21728	Louis defensive backs should be able to match his downfield speed.	Louis defensive backs should be able to match his downfield speed. 	1039035	1471961323731	1471961323843	d	68
2135	21728	Louis defensive backs should be able to match his downfield speed.	Louis defensive backs should be able to match his downfield speed. 	1039103	1471961324075	1471961324131	.	190
2135	21728	Louis defensive backs should be able to match his downfield speed.	Louis defensive backs should be able to match his downfield speed. 	1039113	1471961324195	1471961324251	 	32
2135	21805	Then we lit our candles and just stood there silently, holding them.	Then we lit our candles and just stood there silently, holding them.	1040098	1471961331618	1471961331802	SHIFT	16
2135	21805	Then we lit our candles and just stood there silently, holding them.	Then we lit our candles and just stood there silently, holding them.	1040103	1471961331787	1471961331874	T	84
2135	21805	Then we lit our candles and just stood there silently, holding them.	Then we lit our candles and just stood there silently, holding them.	1040107	1471961331995	1471961332050	h	72
2135	21805	Then we lit our candles and just stood there silently, holding them.	Then we lit our candles and just stood there silently, holding them.	1040112	1471961332131	1471961332194	e	69
2135	21805	Then we lit our candles and just stood there silently, holding them.	Then we lit our candles and just stood there silently, holding them.	1040116	1471961332299	1471961332370	n	78
2135	21805	Then we lit our candles and just stood there silently, holding them.	Then we lit our candles and just stood there silently, holding them.	1040123	1471961332467	1471961332538	 	32
2135	21805	Then we lit our candles and just stood there silently, holding them.	Then we lit our candles and just stood there silently, holding them.	1040205	1471961332771	1471961332858	w	87
2135	21805	Then we lit our candles and just stood there silently, holding them.	Then we lit our candles and just stood there silently, holding them.	1040213	1471961332963	1471961333018	e	69
2135	21805	Then we lit our candles and just stood there silently, holding them.	Then we lit our candles and just stood there silently, holding them.	1040219	1471961333123	1471961333195	 	32
2135	21805	Then we lit our candles and just stood there silently, holding them.	Then we lit our candles and just stood there silently, holding them.	1040225	1471961333371	1471961333458	l	76
2135	21805	Then we lit our candles and just stood there silently, holding them.	Then we lit our candles and just stood there silently, holding them.	1040234	1471961333578	1471961333658	i	73
2135	21805	Then we lit our candles and just stood there silently, holding them.	Then we lit our candles and just stood there silently, holding them.	1040350	1471961333715	1471961333794	t	84
2135	21805	Then we lit our candles and just stood there silently, holding them.	Then we lit our candles and just stood there silently, holding them.	1040354	1471961333890	1471961333954	 	32
2135	21805	Then we lit our candles and just stood there silently, holding them.	Then we lit our candles and just stood there silently, holding them.	1040361	1471961334099	1471961334194	o	79
2135	21805	Then we lit our candles and just stood there silently, holding them.	Then we lit our candles and just stood there silently, holding them.	1040369	1471961334451	1471961334522	u	85
2135	21805	Then we lit our candles and just stood there silently, holding them.	Then we lit our candles and just stood there silently, holding them.	1040373	1471961334715	1471961334786	r	82
2135	21805	Then we lit our candles and just stood there silently, holding them.	Then we lit our candles and just stood there silently, holding them.	1040425	1471961334875	1471961334946	 	32
2135	21805	Then we lit our candles and just stood there silently, holding them.	Then we lit our candles and just stood there silently, holding them.	1040434	1471961335107	1471961335170	c	67
2135	21805	Then we lit our candles and just stood there silently, holding them.	Then we lit our candles and just stood there silently, holding them.	1040445	1471961335210	1471961335290	a	65
2135	21805	Then we lit our candles and just stood there silently, holding them.	Then we lit our candles and just stood there silently, holding them.	1040456	1471961335395	1471961335466	n	78
2135	21805	Then we lit our candles and just stood there silently, holding them.	Then we lit our candles and just stood there silently, holding them.	1040468	1471961335555	1471961335618	d	68
2135	21805	Then we lit our candles and just stood there silently, holding them.	Then we lit our candles and just stood there silently, holding them.	1040704	1471961335811	1471961335882	l	76
2135	21805	Then we lit our candles and just stood there silently, holding them.	Then we lit our candles and just stood there silently, holding them.	1040708	1471961335946	1471961336002	e	69
2135	21805	Then we lit our candles and just stood there silently, holding them.	Then we lit our candles and just stood there silently, holding them.	1040717	1471961336146	1471961336210	s	83
2135	21805	Then we lit our candles and just stood there silently, holding them.	Then we lit our candles and just stood there silently, holding them.	1040724	1471961337410	1471961337490	 	32
2135	21805	Then we lit our candles and just stood there silently, holding them.	Then we lit our candles and just stood there silently, holding them.	1040729	1471961337650	1471961337762	a	65
2135	21805	Then we lit our candles and just stood there silently, holding them.	Then we lit our candles and just stood there silently, holding them.	1040808	1471961337795	1471961337858	n	78
2135	21805	Then we lit our candles and just stood there silently, holding them.	Then we lit our candles and just stood there silently, holding them.	1040815	1471961337930	1471961337994	d	68
2135	21805	Then we lit our candles and just stood there silently, holding them.	Then we lit our candles and just stood there silently, holding them.	1040820	1471961338066	1471961338146	 	32
2135	21805	Then we lit our candles and just stood there silently, holding them.	Then we lit our candles and just stood there silently, holding them.	1040826	1471961338362	1471961338434	j	74
2135	21805	Then we lit our candles and just stood there silently, holding them.	Then we lit our candles and just stood there silently, holding them.	1040832	1471961338538	1471961338610	u	85
2135	21805	Then we lit our candles and just stood there silently, holding them.	Then we lit our candles and just stood there silently, holding them.	1040884	1471961338666	1471961338770	s	83
2135	21805	Then we lit our candles and just stood there silently, holding them.	Then we lit our candles and just stood there silently, holding them.	1040890	1471961338810	1471961338874	t	84
2135	21805	Then we lit our candles and just stood there silently, holding them.	Then we lit our candles and just stood there silently, holding them.	1040899	1471961339026	1471961339106	 	32
2135	21805	Then we lit our candles and just stood there silently, holding them.	Then we lit our candles and just stood there silently, holding them.	1040904	1471961339242	1471961339338	s	83
2135	21805	Then we lit our candles and just stood there silently, holding them.	Then we lit our candles and just stood there silently, holding them.	1040909	1471961339378	1471961339442	t	84
2135	21805	Then we lit our candles and just stood there silently, holding them.	Then we lit our candles and just stood there silently, holding them.	1041097	1471961339778	1471961339834	o	79
2135	21805	Then we lit our candles and just stood there silently, holding them.	Then we lit our candles and just stood there silently, holding them.	1041102	1471961339898	1471961339970	o	79
2135	21805	Then we lit our candles and just stood there silently, holding them.	Then we lit our candles and just stood there silently, holding them.	1041112	1471961340050	1471961340114	d	68
2135	21805	Then we lit our candles and just stood there silently, holding them.	Then we lit our candles and just stood there silently, holding them.	1041116	1471961340202	1471961340250	 	32
2135	21805	Then we lit our candles and just stood there silently, holding them.	Then we lit our candles and just stood there silently, holding them.	1041122	1471961340890	1471961340946	t	84
2135	21805	Then we lit our candles and just stood there silently, holding them.	Then we lit our candles and just stood there silently, holding them.	1041211	1471961341066	1471961341130	h	72
2135	21805	Then we lit our candles and just stood there silently, holding them.	Then we lit our candles and just stood there silently, holding them.	1041215	1471961341178	1471961341242	e	69
2135	21805	Then we lit our candles and just stood there silently, holding them.	Then we lit our candles and just stood there silently, holding them.	1041226	1471961341394	1471961341466	r	82
2135	21805	Then we lit our candles and just stood there silently, holding them.	Then we lit our candles and just stood there silently, holding them.	1041235	1471961341610	1471961341666	e	69
2135	21805	Then we lit our candles and just stood there silently, holding them.	Then we lit our candles and just stood there silently, holding them.	1041243	1471961341938	1471961342010	 	32
2135	21805	Then we lit our candles and just stood there silently, holding them.	Then we lit our candles and just stood there silently, holding them.	1041295	1471961342090	1471961342146	s	83
2135	21805	Then we lit our candles and just stood there silently, holding them.	Then we lit our candles and just stood there silently, holding them.	1041298	1471961342194	1471961342258	i	73
2135	21805	Then we lit our candles and just stood there silently, holding them.	Then we lit our candles and just stood there silently, holding them.	1041302	1471961342402	1471961342466	l	76
2135	21805	Then we lit our candles and just stood there silently, holding them.	Then we lit our candles and just stood there silently, holding them.	1041310	1471961342522	1471961342586	e	69
2135	21805	Then we lit our candles and just stood there silently, holding them.	Then we lit our candles and just stood there silently, holding them.	1041320	1471961342690	1471961342778	n	78
2135	21805	Then we lit our candles and just stood there silently, holding them.	Then we lit our candles and just stood there silently, holding them.	1041515	1471961343042	1471961343074	t	84
2135	21805	Then we lit our candles and just stood there silently, holding them.	Then we lit our candles and just stood there silently, holding them.	1041522	1471961343210	1471961343282	l	76
2135	21805	Then we lit our candles and just stood there silently, holding them.	Then we lit our candles and just stood there silently, holding them.	1041534	1471961343514	1471961343586	u	85
2135	21805	Then we lit our candles and just stood there silently, holding them.	Then we lit our candles and just stood there silently, holding them.	1041543	1471961344074	1471961344146	BKSP	8
2135	21805	Then we lit our candles and just stood there silently, holding them.	Then we lit our candles and just stood there silently, holding them.	1041549	1471961344490	1471961344554	y	89
2135	21805	Then we lit our candles and just stood there silently, holding them.	Then we lit our candles and just stood there silently, holding them.	1041560	1471961344762	1471961344834	,	188
2135	21805	Then we lit our candles and just stood there silently, holding them.	Then we lit our candles and just stood there silently, holding them.	1041803	1471961344986	1471961345050	 	32
2135	21805	Then we lit our candles and just stood there silently, holding them.	Then we lit our candles and just stood there silently, holding them.	1041814	1471961346514	1471961346594	h	72
2135	21805	Then we lit our candles and just stood there silently, holding them.	Then we lit our candles and just stood there silently, holding them.	1041826	1471961346682	1471961346786	o	79
2135	21805	Then we lit our candles and just stood there silently, holding them.	Then we lit our candles and just stood there silently, holding them.	1041839	1471961346986	1471961347058	l	76
2135	21805	Then we lit our candles and just stood there silently, holding them.	Then we lit our candles and just stood there silently, holding them.	1041848	1471961347114	1471961347178	d	68
2135	21805	Then we lit our candles and just stood there silently, holding them.	Then we lit our candles and just stood there silently, holding them.	1041922	1471961347338	1471961347466	i	73
2135	21805	Then we lit our candles and just stood there silently, holding them.	Then we lit our candles and just stood there silently, holding them.	1041929	1471961347426	1471961347546	n	78
2135	21805	Then we lit our candles and just stood there silently, holding them.	Then we lit our candles and just stood there silently, holding them.	1041937	1471961347682	1471961347754	g	71
2135	21805	Then we lit our candles and just stood there silently, holding them.	Then we lit our candles and just stood there silently, holding them.	1041943	1471961347858	1471961347946	 	32
2135	21805	Then we lit our candles and just stood there silently, holding them.	Then we lit our candles and just stood there silently, holding them.	1041946	1471961347986	1471961348058	t	84
2135	21805	Then we lit our candles and just stood there silently, holding them.	Then we lit our candles and just stood there silently, holding them.	1042132	1471961348130	1471961348194	h	72
2135	21805	Then we lit our candles and just stood there silently, holding them.	Then we lit our candles and just stood there silently, holding them.	1042138	1471961348234	1471961348306	e	69
2135	21805	Then we lit our candles and just stood there silently, holding them.	Then we lit our candles and just stood there silently, holding them.	1042142	1471961348466	1471961348522	,	188
2135	21805	Then we lit our candles and just stood there silently, holding them.	Then we lit our candles and just stood there silently, holding them.	1042149	1471961349218	1471961349282	BKSP	8
2135	21805	Then we lit our candles and just stood there silently, holding them.	Then we lit our candles and just stood there silently, holding them.	1042155	1471961349394	1471961349482	m	77
2135	21805	Then we lit our candles and just stood there silently, holding them.	Then we lit our candles and just stood there silently, holding them.	1042160	1471961349626	1471961349698	.	190
2135	21867	We're not a lock for the pole.	We're not a lock for the Pole	1043333	1471961357153	1471961357769	SHIFT	16
2135	21867	We're not a lock for the pole.	We're not a lock for the Pole	1043327	1471961357690	1471961357761	W	87
2135	21867	We're not a lock for the pole.	We're not a lock for the Pole	1043340	1471961357930	1471961358001	e	69
2135	21867	We're not a lock for the pole.	We're not a lock for the Pole	1043346	1471961358834	1471961358913	'	222
2135	21867	We're not a lock for the pole.	We're not a lock for the Pole	1043351	1471961358970	1471961359073	r	82
2135	21867	We're not a lock for the pole.	We're not a lock for the Pole	1043355	1471961359298	1471961359393	e	69
2135	21867	We're not a lock for the pole.	We're not a lock for the Pole	1043481	1471961359466	1471961359545	 	32
2135	21867	We're not a lock for the pole.	We're not a lock for the Pole	1043485	1471961360001	1471961360161	n	78
2135	21867	We're not a lock for the pole.	We're not a lock for the Pole	1043489	1471961360106	1471961360257	o	79
2135	21867	We're not a lock for the pole.	We're not a lock for the Pole	1043492	1471961360290	1471961360361	t	84
2135	21867	We're not a lock for the pole.	We're not a lock for the Pole	1043495	1471961360418	1471961360513	 	32
2135	21867	We're not a lock for the pole.	We're not a lock for the Pole	1043643	1471961360698	1471961360801	a	65
2135	21867	We're not a lock for the pole.	We're not a lock for the Pole	1043645	1471961360850	1471961360953	 	32
2135	21867	We're not a lock for the pole.	We're not a lock for the Pole	1043649	1471961361258	1471961361337	l	76
2135	21867	We're not a lock for the pole.	We're not a lock for the Pole	1043650	1471961361450	1471961361521	o	79
2135	21867	We're not a lock for the pole.	We're not a lock for the Pole	1043654	1471961361953	1471961362025	c	67
2135	21867	We're not a lock for the pole.	We're not a lock for the Pole	1043760	1471961362058	1471961362121	k	75
2135	21867	We're not a lock for the pole.	We're not a lock for the Pole	1043766	1471961362241	1471961362321	 	32
2135	21867	We're not a lock for the pole.	We're not a lock for the Pole	1043770	1471961362529	1471961362633	f	70
2135	21867	We're not a lock for the pole.	We're not a lock for the Pole	1043777	1471961362682	1471961362753	o	79
2135	21867	We're not a lock for the pole.	We're not a lock for the Pole	1043781	1471961362850	1471961362913	r	82
2135	21867	We're not a lock for the pole.	We're not a lock for the Pole	1043897	1471961363090	1471961363169	 	32
2135	21867	We're not a lock for the pole.	We're not a lock for the Pole	1043902	1471961363706	1471961363769	t	84
2135	21867	We're not a lock for the pole.	We're not a lock for the Pole	1043907	1471961363858	1471961363921	h	72
2135	21867	We're not a lock for the pole.	We're not a lock for the Pole	1043912	1471961363985	1471961364041	e	69
2135	21867	We're not a lock for the pole.	We're not a lock for the Pole	1043916	1471961364121	1471961364201	 	32
2135	21867	We're not a lock for the pole.	We're not a lock for the Pole	1044009	1471961364345	1471961364561	SHIFT	16
2135	21867	We're not a lock for the pole.	We're not a lock for the Pole	1044015	1471961364497	1471961364593	P	80
2135	21867	We're not a lock for the pole.	We're not a lock for the Pole	1044024	1471961364713	1471961364777	o	79
2135	21867	We're not a lock for the pole.	We're not a lock for the Pole	1044036	1471961365025	1471961365097	l	76
2135	21867	We're not a lock for the pole.	We're not a lock for the Pole	1044047	1471961365249	1471961365313	e	69
2135	21902	Please coordinate with him.	Please coordinate with him.	1044854	1471961371457	1471961371601	SHIFT	16
2135	21902	Please coordinate with him.	Please coordinate with him.	1044860	1471961371545	1471961371665	P	80
2135	21902	Please coordinate with him.	Please coordinate with him.	1044870	1471961371609	1471961371721	l	76
2135	21902	Please coordinate with him.	Please coordinate with him.	1044880	1471961371801	1471961371865	e	69
2135	21902	Please coordinate with him.	Please coordinate with him.	1044893	1471961372121	1471961372201	a	65
2135	21902	Please coordinate with him.	Please coordinate with him.	1044900	1471961372305	1471961372369	s	83
2135	21902	Please coordinate with him.	Please coordinate with him.	1044978	1471961372473	1471961372537	e	69
2135	21902	Please coordinate with him.	Please coordinate with him.	1044985	1471961372601	1471961372689	 	32
2135	21902	Please coordinate with him.	Please coordinate with him.	1044997	1471961372865	1471961372921	c	67
2135	21902	Please coordinate with him.	Please coordinate with him.	1045006	1471961373081	1471961373145	o	79
2135	21902	Please coordinate with him.	Please coordinate with him.	1045014	1471961373217	1471961373289	o	79
2135	21902	Please coordinate with him.	Please coordinate with him.	1045113	1471961373457	1471961373529	r	82
2135	21902	Please coordinate with him.	Please coordinate with him.	1045118	1471961374049	1471961374113	d	68
2135	21902	Please coordinate with him.	Please coordinate with him.	1045123	1471961374145	1471961374241	i	73
2135	21902	Please coordinate with him.	Please coordinate with him.	1045128	1471961374297	1471961374385	n	78
2135	21902	Please coordinate with him.	Please coordinate with him.	1045132	1471961374465	1471961374585	a	65
2135	21902	Please coordinate with him.	Please coordinate with him.	1045220	1471961374617	1471961374681	t	84
2135	21902	Please coordinate with him.	Please coordinate with him.	1045224	1471961374785	1471961374865	e	69
2135	21902	Please coordinate with him.	Please coordinate with him.	1045229	1471961374969	1471961375049	 	32
2135	21902	Please coordinate with him.	Please coordinate with him.	1045233	1471961375073	1471961375185	w	87
2135	21902	Please coordinate with him.	Please coordinate with him.	1045238	1471961375761	1471961375825	i	73
2135	21902	Please coordinate with him.	Please coordinate with him.	1045316	1471961375921	1471961375993	t	84
2135	21902	Please coordinate with him.	Please coordinate with him.	1045321	1471961376041	1471961376105	h	72
2135	21902	Please coordinate with him.	Please coordinate with him.	1045328	1471961376241	1471961376321	 	32
2135	21902	Please coordinate with him.	Please coordinate with him.	1045337	1471961376569	1471961376657	h	72
2135	21902	Please coordinate with him.	Please coordinate with him.	1045342	1471961376721	1471961376825	i	73
2135	21902	Please coordinate with him.	Please coordinate with him.	1045428	1471961376817	1471961376913	m	77
2135	21902	Please coordinate with him.	Please coordinate with him.	1045433	1471961377489	1471961377545	.	190
2135	21932	We will keep trying.	We will keep trying.	1045947	1471961382409	1471961382560	SHIFT	16
2135	21932	We will keep trying.	We will keep trying.	1045950	1471961382521	1471961382608	W	87
2135	21932	We will keep trying.	We will keep trying.	1045956	1471961382681	1471961382760	e	69
2135	21932	We will keep trying.	We will keep trying.	1045965	1471961382993	1471961383072	 	32
2135	21932	We will keep trying.	We will keep trying.	1045970	1471961383137	1471961383216	w	87
2135	21932	We will keep trying.	We will keep trying.	1045976	1471961383281	1471961383352	i	73
2135	21932	We will keep trying.	We will keep trying.	1046065	1471961383489	1471961383552	l	76
2135	21932	We will keep trying.	We will keep trying.	1046069	1471961383624	1471961383688	l	76
2135	21932	We will keep trying.	We will keep trying.	1046072	1471961383841	1471961383912	 	32
2135	21932	We will keep trying.	We will keep trying.	1046079	1471961384193	1471961384256	k	75
2135	21932	We will keep trying.	We will keep trying.	1046085	1471961384361	1471961384432	e	69
2135	21932	We will keep trying.	We will keep trying.	1046199	1471961384521	1471961384600	e	69
2135	21932	We will keep trying.	We will keep trying.	1046203	1471961384656	1471961384736	p	80
2135	21932	We will keep trying.	We will keep trying.	1046208	1471961384849	1471961384928	 	32
2135	21932	We will keep trying.	We will keep trying.	1046212	1471961385080	1471961385184	t	84
2135	21932	We will keep trying.	We will keep trying.	1046214	1471961385329	1471961385400	r	82
2135	21932	We will keep trying.	We will keep trying.	1046300	1471961385464	1471961385544	y	89
2135	21932	We will keep trying.	We will keep trying.	1046304	1471961385769	1471961385928	i	73
2135	21932	We will keep trying.	We will keep trying.	1046309	1471961385865	1471961386000	n	78
2135	21932	We will keep trying.	We will keep trying.	1046321	1471961386088	1471961386184	g	71
2135	21932	We will keep trying.	We will keep trying.	1046327	1471961386432	1471961386472	.	190
2135	21953	Don't use him this week.	Don't use him this week.	1047030	1471961391440	1471961391736	SHIFT	16
2135	21953	Don't use him this week.	Don't use him this week.	1047036	1471961391672	1471961391776	D	68
2135	21953	Don't use him this week.	Don't use him this week.	1047042	1471961391776	1471961391944	o	79
2135	21953	Don't use him this week.	Don't use him this week.	1047048	1471961391864	1471961391992	n	78
2135	21953	Don't use him this week.	Don't use him this week.	1047052	1471961392424	1471961392496	'	222
2135	21953	Don't use him this week.	Don't use him this week.	1047056	1471961392592	1471961392680	t	84
2135	21953	Don't use him this week.	Don't use him this week.	1047122	1471961392776	1471961392856	 	32
2135	21953	Don't use him this week.	Don't use him this week.	1047125	1471961393040	1471961393112	u	85
2135	21953	Don't use him this week.	Don't use him this week.	1047128	1471961393160	1471961393272	s	83
2135	21953	Don't use him this week.	Don't use him this week.	1047130	1471961393376	1471961393448	e	69
2135	21953	Don't use him this week.	Don't use him this week.	1047132	1471961393496	1471961393584	 	32
2135	21953	Don't use him this week.	Don't use him this week.	1047205	1471961393736	1471961393872	h	72
2135	21953	Don't use him this week.	Don't use him this week.	1047210	1471961393880	1471961393976	i	73
2135	21953	Don't use him this week.	Don't use him this week.	1047217	1471961394064	1471961394160	m	77
2135	21953	Don't use him this week.	Don't use him this week.	1047224	1471961394376	1471961394464	 	32
2135	21953	Don't use him this week.	Don't use him this week.	1047231	1471961394608	1471961394680	t	84
2135	21953	Don't use him this week.	Don't use him this week.	1047363	1471961394776	1471961394848	h	72
2135	21953	Don't use him this week.	Don't use him this week.	1047366	1471961394904	1471961394976	e	69
2135	21953	Don't use him this week.	Don't use him this week.	1047368	1471961395360	1471961395440	BKSP	8
2135	21953	Don't use him this week.	Don't use him this week.	1047372	1471961395792	1471961395856	i	73
2135	21953	Don't use him this week.	Don't use him this week.	1047376	1471961395920	1471961396024	s	83
2135	21953	Don't use him this week.	Don't use him this week.	1047383	1471961396040	1471961396112	 	32
2135	21953	Don't use him this week.	Don't use him this week.	1047496	1471961396168	1471961396248	w	87
2135	21953	Don't use him this week.	Don't use him this week.	1047500	1471961396368	1471961396432	e	69
2135	21953	Don't use him this week.	Don't use him this week.	1047502	1471961396512	1471961396600	e	69
2135	21953	Don't use him this week.	Don't use him this week.	1047509	1471961396744	1471961396808	k	75
2135	21953	Don't use him this week.	Don't use him this week.	1047514	1471961397224	1471961397296	.	190
2135	21979	Please let us know asap.	Please let us know assap.	1047972	1471961401032	1471961401192	SHIFT	16
2135	21979	Please let us know asap.	Please let us know assap.	1047978	1471961401160	1471961401288	P	80
2135	21979	Please let us know asap.	Please let us know assap.	1047984	1471961401232	1471961401352	l	76
2135	21979	Please let us know asap.	Please let us know assap.	1047988	1471961401400	1471961401472	e	69
2135	21979	Please let us know asap.	Please let us know assap.	1047996	1471961401656	1471961401752	a	65
2135	21979	Please let us know asap.	Please let us know assap.	1048005	1471961401848	1471961401920	s	83
2135	21979	Please let us know asap.	Please let us know assap.	1048081	1471961402024	1471961402088	e	69
2135	21979	Please let us know asap.	Please let us know assap.	1048086	1471961402176	1471961402248	 	32
2135	21979	Please let us know asap.	Please let us know assap.	1048089	1471961402368	1471961402512	k	75
2135	21979	Please let us know asap.	Please let us know assap.	1048093	1471961402480	1471961402592	n	78
2135	21979	Please let us know asap.	Please let us know assap.	1048097	1471961402704	1471961402776	o	79
2135	21979	Please let us know asap.	Please let us know assap.	1048309	1471961403088	1471961403151	BKSP	8
2135	21979	Please let us know asap.	Please let us know assap.	1048312	1471961403216	1471961403287	BKSP	8
2135	21979	Please let us know asap.	Please let us know assap.	1048318	1471961403344	1471961403408	BKSP	8
2135	21979	Please let us know asap.	Please let us know assap.	1048326	1471961404040	1471961404096	l	76
2135	21979	Please let us know asap.	Please let us know assap.	1048333	1471961404200	1471961404288	e	69
2135	21979	Please let us know asap.	Please let us know assap.	1048340	1471961404448	1471961404511	t	84
2135	21979	Please let us know asap.	Please let us know assap.	1048346	1471961404624	1471961404712	 	32
2135	21979	Please let us know asap.	Please let us know assap.	1048351	1471961404872	1471961404951	u	85
2135	21979	Please let us know asap.	Please let us know assap.	1048397	1471961405032	1471961405127	s	83
2135	21979	Please let us know asap.	Please let us know assap.	1048400	1471961405152	1471961405231	 	32
2135	21979	Please let us know asap.	Please let us know assap.	1048405	1471961405456	1471961405575	k	75
2135	21979	Please let us know asap.	Please let us know assap.	1048412	1471961405536	1471961405663	n	78
2135	21979	Please let us know asap.	Please let us know assap.	1048422	1471961405736	1471961405863	o	79
2135	21979	Please let us know asap.	Please let us know assap.	1048516	1471961405928	1471961406007	w	87
2135	21979	Please let us know asap.	Please let us know assap.	1048521	1471961406048	1471961406152	 	32
2135	21979	Please let us know asap.	Please let us know assap.	1048526	1471961406256	1471961406359	a	65
2135	21979	Please let us know asap.	Please let us know assap.	1048528	1471961406472	1471961406551	s	83
2135	21979	Please let us know asap.	Please let us know assap.	1048531	1471961406680	1471961406735	a	83
2135	21979	Please let us know asap.	Please let us know assap.	1048610	1471961406952	1471961407031	p	80
2135	21979	Please let us know asap.	Please let us know assap.	1048616	1471961407568	1471961407631	.	190
2135	22003	I was a bit rusty but I didn't want to miss the elections back home.	I was a bit rusty, but I didn't want to miss the elections back home.	1049286	1471961413743	1471961413959	SHIFT	16
2135	22003	I was a bit rusty but I didn't want to miss the elections back home.	I was a bit rusty, but I didn't want to miss the elections back home.	1049294	1471961413903	1471961413975	I	73
2135	22003	I was a bit rusty but I didn't want to miss the elections back home.	I was a bit rusty, but I didn't want to miss the elections back home.	1049301	1471961414103	1471961414191	 	32
2135	22003	I was a bit rusty but I didn't want to miss the elections back home.	I was a bit rusty, but I didn't want to miss the elections back home.	1049307	1471961414263	1471961414335	w	87
2135	22003	I was a bit rusty but I didn't want to miss the elections back home.	I was a bit rusty, but I didn't want to miss the elections back home.	1049315	1471961414471	1471961414559	a	65
2135	22003	I was a bit rusty but I didn't want to miss the elections back home.	I was a bit rusty, but I didn't want to miss the elections back home.	1049322	1471961414655	1471961414735	s	83
2135	22003	I was a bit rusty but I didn't want to miss the elections back home.	I was a bit rusty, but I didn't want to miss the elections back home.	1049394	1471961414816	1471961414887	 	32
2135	22003	I was a bit rusty but I didn't want to miss the elections back home.	I was a bit rusty, but I didn't want to miss the elections back home.	1049401	1471961414927	1471961415031	a	65
2135	22003	I was a bit rusty but I didn't want to miss the elections back home.	I was a bit rusty, but I didn't want to miss the elections back home.	1049411	1471961415119	1471961415183	 	32
2135	22003	I was a bit rusty but I didn't want to miss the elections back home.	I was a bit rusty, but I didn't want to miss the elections back home.	1049421	1471961415520	1471961415631	b	66
2135	22003	I was a bit rusty but I didn't want to miss the elections back home.	I was a bit rusty, but I didn't want to miss the elections back home.	1049429	1471961415639	1471961415767	i	73
2135	22003	I was a bit rusty but I didn't want to miss the elections back home.	I was a bit rusty, but I didn't want to miss the elections back home.	1049524	1471961415872	1471961415943	t	84
2135	22003	I was a bit rusty but I didn't want to miss the elections back home.	I was a bit rusty, but I didn't want to miss the elections back home.	1049527	1471961416015	1471961416095	 	32
2135	22003	I was a bit rusty but I didn't want to miss the elections back home.	I was a bit rusty, but I didn't want to miss the elections back home.	1049530	1471961416495	1471961416535	r	82
2135	22003	I was a bit rusty but I didn't want to miss the elections back home.	I was a bit rusty, but I didn't want to miss the elections back home.	1049534	1471961416743	1471961416823	u	85
2135	22003	I was a bit rusty but I didn't want to miss the elections back home.	I was a bit rusty, but I didn't want to miss the elections back home.	1049538	1471961416959	1471961417055	s	83
2135	22003	I was a bit rusty but I didn't want to miss the elections back home.	I was a bit rusty, but I didn't want to miss the elections back home.	1049659	1471961417079	1471961417159	t	84
2135	22003	I was a bit rusty but I didn't want to miss the elections back home.	I was a bit rusty, but I didn't want to miss the elections back home.	1049662	1471961417295	1471961417359	y	89
2135	22003	I was a bit rusty but I didn't want to miss the elections back home.	I was a bit rusty, but I didn't want to miss the elections back home.	1049666	1471961417887	1471961417951	,	188
2135	22003	I was a bit rusty but I didn't want to miss the elections back home.	I was a bit rusty, but I didn't want to miss the elections back home.	1049674	1471961418055	1471961418127	 	32
2135	22003	I was a bit rusty but I didn't want to miss the elections back home.	I was a bit rusty, but I didn't want to miss the elections back home.	1049682	1471961418447	1471961418551	b	66
2135	22003	I was a bit rusty but I didn't want to miss the elections back home.	I was a bit rusty, but I didn't want to miss the elections back home.	1049792	1471961418535	1471961418639	u	85
2135	22003	I was a bit rusty but I didn't want to miss the elections back home.	I was a bit rusty, but I didn't want to miss the elections back home.	1049795	1471961418767	1471961418831	t	84
2135	22003	I was a bit rusty but I didn't want to miss the elections back home.	I was a bit rusty, but I didn't want to miss the elections back home.	1049800	1471961418927	1471961419015	 	32
2135	22003	I was a bit rusty but I didn't want to miss the elections back home.	I was a bit rusty, but I didn't want to miss the elections back home.	1049805	1471961419247	1471961419376	SHIFT	16
2135	22003	I was a bit rusty but I didn't want to miss the elections back home.	I was a bit rusty, but I didn't want to miss the elections back home.	1049809	1471961419359	1471961419439	I	73
2135	22003	I was a bit rusty but I didn't want to miss the elections back home.	I was a bit rusty, but I didn't want to miss the elections back home.	1049812	1471961419535	1471961419615	 	32
2135	22003	I was a bit rusty but I didn't want to miss the elections back home.	I was a bit rusty, but I didn't want to miss the elections back home.	1049815	1471961419711	1471961419791	d	68
2135	22003	I was a bit rusty but I didn't want to miss the elections back home.	I was a bit rusty, but I didn't want to miss the elections back home.	1050100	1471961419863	1471961419943	i	73
2135	22003	I was a bit rusty but I didn't want to miss the elections back home.	I was a bit rusty, but I didn't want to miss the elections back home.	1050107	1471961419983	1471961420071	d	68
2135	22003	I was a bit rusty but I didn't want to miss the elections back home.	I was a bit rusty, but I didn't want to miss the elections back home.	1050111	1471961420127	1471961420191	n	78
2135	22003	I was a bit rusty but I didn't want to miss the elections back home.	I was a bit rusty, but I didn't want to miss the elections back home.	1050119	1471961421583	1471961421663	;	186
2135	22003	I was a bit rusty but I didn't want to miss the elections back home.	I was a bit rusty, but I didn't want to miss the elections back home.	1050126	1471961422471	1471961422527	BKSP	8
2135	22003	I was a bit rusty but I didn't want to miss the elections back home.	I was a bit rusty, but I didn't want to miss the elections back home.	1050134	1471961422943	1471961423015	'	222
2135	22003	I was a bit rusty but I didn't want to miss the elections back home.	I was a bit rusty, but I didn't want to miss the elections back home.	1050201	1471961423063	1471961423127	t	84
2135	22003	I was a bit rusty but I didn't want to miss the elections back home.	I was a bit rusty, but I didn't want to miss the elections back home.	1050209	1471961423199	1471961423279	 	32
2135	22003	I was a bit rusty but I didn't want to miss the elections back home.	I was a bit rusty, but I didn't want to miss the elections back home.	1050218	1471961423383	1471961423487	w	87
2135	22003	I was a bit rusty but I didn't want to miss the elections back home.	I was a bit rusty, but I didn't want to miss the elections back home.	1050225	1471961423615	1471961423703	a	65
2135	22003	I was a bit rusty but I didn't want to miss the elections back home.	I was a bit rusty, but I didn't want to miss the elections back home.	1050233	1471961423767	1471961423839	n	78
2135	22003	I was a bit rusty but I didn't want to miss the elections back home.	I was a bit rusty, but I didn't want to miss the elections back home.	1050305	1471961424063	1471961424151	t	84
2135	22003	I was a bit rusty but I didn't want to miss the elections back home.	I was a bit rusty, but I didn't want to miss the elections back home.	1050313	1471961424287	1471961424359	 	32
2135	22003	I was a bit rusty but I didn't want to miss the elections back home.	I was a bit rusty, but I didn't want to miss the elections back home.	1050323	1471961424439	1471961424519	t	84
2135	22003	I was a bit rusty but I didn't want to miss the elections back home.	I was a bit rusty, but I didn't want to miss the elections back home.	1050331	1471961424575	1471961424639	o	79
2135	22003	I was a bit rusty but I didn't want to miss the elections back home.	I was a bit rusty, but I didn't want to miss the elections back home.	1050342	1471961424727	1471961424807	 	32
2135	22003	I was a bit rusty but I didn't want to miss the elections back home.	I was a bit rusty, but I didn't want to miss the elections back home.	1050410	1471961424927	1471961425023	m	77
2135	22003	I was a bit rusty but I didn't want to miss the elections back home.	I was a bit rusty, but I didn't want to miss the elections back home.	1050414	1471961425071	1471961425167	i	73
2135	22003	I was a bit rusty but I didn't want to miss the elections back home.	I was a bit rusty, but I didn't want to miss the elections back home.	1050419	1471961425279	1471961425383	s	83
2135	22003	I was a bit rusty but I didn't want to miss the elections back home.	I was a bit rusty, but I didn't want to miss the elections back home.	1050421	1471961425463	1471961425559	s	83
2135	22003	I was a bit rusty but I didn't want to miss the elections back home.	I was a bit rusty, but I didn't want to miss the elections back home.	1050426	1471961425639	1471961425727	 	32
2135	22003	I was a bit rusty but I didn't want to miss the elections back home.	I was a bit rusty, but I didn't want to miss the elections back home.	1050492	1471961425823	1471961425887	t	84
2135	22003	I was a bit rusty but I didn't want to miss the elections back home.	I was a bit rusty, but I didn't want to miss the elections back home.	1050500	1471961425959	1471961426031	h	72
2135	22003	I was a bit rusty but I didn't want to miss the elections back home.	I was a bit rusty, but I didn't want to miss the elections back home.	1050507	1471961426063	1471961426159	e	69
2135	22003	I was a bit rusty but I didn't want to miss the elections back home.	I was a bit rusty, but I didn't want to miss the elections back home.	1050516	1471961426215	1471961426287	 	32
2135	22003	I was a bit rusty but I didn't want to miss the elections back home.	I was a bit rusty, but I didn't want to miss the elections back home.	1050525	1471961426399	1471961426487	e	69
2135	22003	I was a bit rusty but I didn't want to miss the elections back home.	I was a bit rusty, but I didn't want to miss the elections back home.	1050724	1471961426567	1471961426591	;	186
2135	22003	I was a bit rusty but I didn't want to miss the elections back home.	I was a bit rusty, but I didn't want to miss the elections back home.	1050729	1471961427087	1471961427151	BKSP	8
2135	22003	I was a bit rusty but I didn't want to miss the elections back home.	I was a bit rusty, but I didn't want to miss the elections back home.	1050734	1471961427439	1471961427495	l	76
2135	22003	I was a bit rusty but I didn't want to miss the elections back home.	I was a bit rusty, but I didn't want to miss the elections back home.	1050737	1471961428151	1471961428231	e	69
2135	22003	I was a bit rusty but I didn't want to miss the elections back home.	I was a bit rusty, but I didn't want to miss the elections back home.	1050741	1471961428287	1471961428391	c	67
2135	22003	I was a bit rusty but I didn't want to miss the elections back home.	I was a bit rusty, but I didn't want to miss the elections back home.	1050745	1471961428439	1471961428543	t	84
2135	22003	I was a bit rusty but I didn't want to miss the elections back home.	I was a bit rusty, but I didn't want to miss the elections back home.	1050803	1471961428879	1471961428999	i	73
2135	22003	I was a bit rusty but I didn't want to miss the elections back home.	I was a bit rusty, but I didn't want to miss the elections back home.	1050806	1471961428951	1471961429062	o	79
2135	22003	I was a bit rusty but I didn't want to miss the elections back home.	I was a bit rusty, but I didn't want to miss the elections back home.	1050809	1471961429183	1471961429255	n	78
2135	22003	I was a bit rusty but I didn't want to miss the elections back home.	I was a bit rusty, but I didn't want to miss the elections back home.	1050815	1471961429319	1471961429415	s	83
2135	22003	I was a bit rusty but I didn't want to miss the elections back home.	I was a bit rusty, but I didn't want to miss the elections back home.	1050823	1471961429463	1471961429526	 	32
2135	22003	I was a bit rusty but I didn't want to miss the elections back home.	I was a bit rusty, but I didn't want to miss the elections back home.	1050987	1471961430703	1471961430775	b	66
2135	22003	I was a bit rusty but I didn't want to miss the elections back home.	I was a bit rusty, but I didn't want to miss the elections back home.	1050991	1471961430831	1471961430918	a	65
2135	22003	I was a bit rusty but I didn't want to miss the elections back home.	I was a bit rusty, but I didn't want to miss the elections back home.	1050997	1471961431159	1471961431246	c	67
2135	22003	I was a bit rusty but I didn't want to miss the elections back home.	I was a bit rusty, but I didn't want to miss the elections back home.	1051005	1471961431343	1471961431407	k	75
2135	22003	I was a bit rusty but I didn't want to miss the elections back home.	I was a bit rusty, but I didn't want to miss the elections back home.	1051012	1471961431527	1471961431606	 	32
2135	22003	I was a bit rusty but I didn't want to miss the elections back home.	I was a bit rusty, but I didn't want to miss the elections back home.	1051218	1471961431991	1471961432110	h	72
2135	22003	I was a bit rusty but I didn't want to miss the elections back home.	I was a bit rusty, but I didn't want to miss the elections back home.	1051220	1471961432071	1471961432326	o	79
2135	22003	I was a bit rusty but I didn't want to miss the elections back home.	I was a bit rusty, but I didn't want to miss the elections back home.	1051225	1471961432431	1471961432470	m	77
2135	22003	I was a bit rusty but I didn't want to miss the elections back home.	I was a bit rusty, but I didn't want to miss the elections back home.	1051230	1471961433615	1471961433726	e	69
2135	22003	I was a bit rusty but I didn't want to miss the elections back home.	I was a bit rusty, but I didn't want to miss the elections back home.	1051233	1471961434159	1471961434222	.	190
2135	22050	Out of office but have people working on info.	Out of office but have poepple working on info	1051728	1471961439582	1471961439734	SHIFT	16
2135	22050	Out of office but have people working on info.	Out of office but have poepple working on info	1051734	1471961439678	1471961439774	O	79
2135	22050	Out of office but have people working on info.	Out of office but have poepple working on info	1051741	1471961439894	1471961439966	u	85
2135	22050	Out of office but have people working on info.	Out of office but have poepple working on info	1051749	1471961440142	1471961440230	t	84
2135	22050	Out of office but have people working on info.	Out of office but have poepple working on info	1051758	1471961440278	1471961440358	 	32
2135	22050	Out of office but have people working on info.	Out of office but have poepple working on info	1051763	1471961440470	1471961440558	o	79
2135	22050	Out of office but have people working on info.	Out of office but have poepple working on info	1051844	1471961440702	1471961440782	f	70
2135	22050	Out of office but have people working on info.	Out of office but have poepple working on info	1051850	1471961440862	1471961440926	 	32
2135	22050	Out of office but have people working on info.	Out of office but have poepple working on info	1051854	1471961441102	1471961441182	o	79
2135	22050	Out of office but have people working on info.	Out of office but have poepple working on info	1051859	1471961441398	1471961441454	f	70
2135	22050	Out of office but have people working on info.	Out of office but have poepple working on info	1051865	1471961441542	1471961441614	f	70
2135	22050	Out of office but have people working on info.	Out of office but have poepple working on info	1052029	1471961441702	1471961441774	i	73
2135	22050	Out of office but have people working on info.	Out of office but have poepple working on info	1052032	1471961441998	1471961442070	c	67
2135	22050	Out of office but have people working on info.	Out of office but have poepple working on info	1052035	1471961442150	1471961442230	e	69
2135	22050	Out of office but have people working on info.	Out of office but have poepple working on info	1052038	1471961443030	1471961443102	 	32
2135	22050	Out of office but have people working on info.	Out of office but have poepple working on info	1052045	1471961443342	1471961443486	b	66
2135	22050	Out of office but have people working on info.	Out of office but have poepple working on info	1052103	1471961443446	1471961443550	u	85
2135	22050	Out of office but have people working on info.	Out of office but have poepple working on info	1052107	1471961443630	1471961443702	t	84
2135	22050	Out of office but have people working on info.	Out of office but have poepple working on info	1052115	1471961443758	1471961443838	 	32
2135	22050	Out of office but have people working on info.	Out of office but have poepple working on info	1052127	1471961443974	1471961444054	h	72
2135	22050	Out of office but have people working on info.	Out of office but have poepple working on info	1052136	1471961444086	1471961444198	a	65
2135	22050	Out of office but have people working on info.	Out of office but have poepple working on info	1052141	1471961444246	1471961444334	v	86
2135	22050	Out of office but have people working on info.	Out of office but have poepple working on info	1052198	1471961444382	1471961444454	e	69
2135	22050	Out of office but have people working on info.	Out of office but have poepple working on info	1052204	1471961444534	1471961444606	 	32
2135	22050	Out of office but have people working on info.	Out of office but have poepple working on info	1052208	1471961444830	1471961444966	p	80
2135	22050	Out of office but have people working on info.	Out of office but have poepple working on info	1052213	1471961444942	1471961445094	o	79
2135	22050	Out of office but have people working on info.	Out of office but have poepple working on info	1052441	1471961445038	1471961445158	e	69
2135	22050	Out of office but have people working on info.	Out of office but have poepple working on info	1052443	1471961445142	1471961445198	p	80
2135	22050	Out of office but have people working on info.	Out of office but have poepple working on info	1052447	1471961445230	1471961445310	l	76
2135	22050	Out of office but have people working on info.	Out of office but have poepple working on info	1052452	1471961445302	1471961445423	p	80
2135	22050	Out of office but have people working on info.	Out of office but have poepple working on info	1052459	1471961445414	1471961445462	l	76
2135	22050	Out of office but have people working on info.	Out of office but have poepple working on info	1052463	1471961446142	1471961446206	BKSP	8
2135	22050	Out of office but have people working on info.	Out of office but have poepple working on info	1052470	1471961446278	1471961446342	BKSP	8
2135	22050	Out of office but have people working on info.	Out of office but have poepple working on info	1052473	1471961446414	1471961446462	BKSP	8
2135	22050	Out of office but have people working on info.	Out of office but have poepple working on info	1052476	1471961447470	1471961447598	p	80
2135	22050	Out of office but have people working on info.	Out of office but have poepple working on info	1052619	1471961447534	1471961447662	l	76
2135	22050	Out of office but have people working on info.	Out of office but have poepple working on info	1052625	1471961447670	1471961447758	e	69
2135	22050	Out of office but have people working on info.	Out of office but have poepple working on info	1052631	1471961447846	1471961447934	 	32
2135	22050	Out of office but have people working on info.	Out of office but have poepple working on info	1052635	1471961449030	1471961449126	w	87
2135	22050	Out of office but have people working on info.	Out of office but have poepple working on info	1052637	1471961449190	1471961449270	o	79
2135	22050	Out of office but have people working on info.	Out of office but have poepple working on info	1052638	1471961449390	1471961449470	r	82
2135	22050	Out of office but have people working on info.	Out of office but have poepple working on info	1052681	1471961449638	1471961449726	k	75
2135	22050	Out of office but have people working on info.	Out of office but have poepple working on info	1052688	1471961449910	1471961450062	i	73
2135	22050	Out of office but have people working on info.	Out of office but have poepple working on info	1052692	1471961450022	1471961450142	n	78
2135	22050	Out of office but have people working on info.	Out of office but have poepple working on info	1052698	1471961450206	1471961450294	g	71
2135	22050	Out of office but have people working on info.	Out of office but have poepple working on info	1052701	1471961450350	1471961450446	 	32
2135	22050	Out of office but have people working on info.	Out of office but have poepple working on info	1052801	1471961451390	1471961451518	o	79
2135	22050	Out of office but have people working on info.	Out of office but have poepple working on info	1052805	1471961451494	1471961451622	n	78
2135	22050	Out of office but have people working on info.	Out of office but have poepple working on info	1052811	1471961451718	1471961451846	 	32
2135	22050	Out of office but have people working on info.	Out of office but have poepple working on info	1052816	1471961451934	1471961452070	i	73
2135	22050	Out of office but have people working on info.	Out of office but have poepple working on info	1052907	1471961452022	1471961452150	n	78
2135	22050	Out of office but have people working on info.	Out of office but have poepple working on info	1052912	1471961452230	1471961452302	f	70
2135	22050	Out of office but have people working on info.	Out of office but have poepple working on info	1052917	1471961452942	1471961453014	o	79
