PARTICIPANT_ID	TEST_SECTION_ID	SENTENCE	USER_INPUT	KEYSTROKE_ID	PRESS_TIME	RELEASE_TIME	LETTER	KEYCODE
2147	21701	Thus have nothing to destroy.	Thus have nothing to destory.	1035370	1471961290831	1471961291036	SHIFT	16
2147	21701	Thus have nothing to destroy.	Thus have nothing to destory.	1035377	1471961290987	1471961291051	T	84
2147	21701	Thus have nothing to destroy.	Thus have nothing to destory.	1035383	1471961291207	1471961291354	h	72
2147	21701	Thus have nothing to destroy.	Thus have nothing to destory.	1035388	1471961291316	1471961291416	u	85
2147	21701	Thus have nothing to destroy.	Thus have nothing to destory.	1035396	1471961291541	1471961291620	s	83
2147	21701	Thus have nothing to destroy.	Thus have nothing to destory.	1035402	1471961291730	1471961291820	 	32
2147	21701	Thus have nothing to destroy.	Thus have nothing to destory.	1035525	1471961292385	1471961292455	h	72
2147	21701	Thus have nothing to destroy.	Thus have nothing to destory.	1035530	1471961292502	1471961292572	a	65
2147	21701	Thus have nothing to destroy.	Thus have nothing to destory.	1035533	1471961292759	1471961292824	v	86
2147	21701	Thus have nothing to destroy.	Thus have nothing to destory.	1035544	1471961292918	1471961292974	e	69
2147	21701	Thus have nothing to destroy.	Thus have nothing to destory.	1035554	1471961293036	1471961293107	 	32
2147	21701	Thus have nothing to destroy.	Thus have nothing to destory.	1035697	1471961293657	1471961293773	n	78
2147	21701	Thus have nothing to destroy.	Thus have nothing to destory.	1035703	1471961293929	1471961294025	o	79
2147	21701	Thus have nothing to destroy.	Thus have nothing to destory.	1035711	1471961294150	1471961294226	t	84
2147	21701	Thus have nothing to destroy.	Thus have nothing to destory.	1035718	1471961294242	1471961294342	h	72
2147	21701	Thus have nothing to destroy.	Thus have nothing to destory.	1035725	1471961294467	1471961294605	i	73
2147	21701	Thus have nothing to destroy.	Thus have nothing to destory.	1035928	1471961294559	1471961294648	n	78
2147	21701	Thus have nothing to destroy.	Thus have nothing to destory.	1035933	1471961294993	1471961295049	g	71
2147	21701	Thus have nothing to destroy.	Thus have nothing to destory.	1035942	1471961295095	1471961295163	 	32
2147	21701	Thus have nothing to destroy.	Thus have nothing to destory.	1035945	1471961295728	1471961295797	t	84
2147	21701	Thus have nothing to destroy.	Thus have nothing to destory.	1035950	1471961295813	1471961295865	o	79
2147	21701	Thus have nothing to destroy.	Thus have nothing to destory.	1035963	1471961296053	1471961296131	 	32
2147	21701	Thus have nothing to destroy.	Thus have nothing to destory.	1036184	1471961296713	1471961296768	d	68
2147	21701	Thus have nothing to destroy.	Thus have nothing to destory.	1036192	1471961296862	1471961296917	e	69
2147	21701	Thus have nothing to destroy.	Thus have nothing to destory.	1036203	1471961297160	1471961297203	a	65
2147	21701	Thus have nothing to destroy.	Thus have nothing to destory.	1036219	1471961297438	1471961297518	BKSP	8
2147	21701	Thus have nothing to destroy.	Thus have nothing to destory.	1036230	1471961297580	1471961297652	s	83
2147	21701	Thus have nothing to destroy.	Thus have nothing to destory.	1036238	1471961297980	1471961298053	t	84
2147	21701	Thus have nothing to destroy.	Thus have nothing to destory.	1036521	1471961298588	1471961298670	o	79
2147	21701	Thus have nothing to destroy.	Thus have nothing to destory.	1036527	1471961298748	1471961298807	r	82
2147	21701	Thus have nothing to destroy.	Thus have nothing to destory.	1036535	1471961298917	1471961298989	y	89
2147	21701	Thus have nothing to destroy.	Thus have nothing to destory.	1036543	1471961300074	1471961300145	.	190
2147	21751	I need your home cell or whatever.	I need your home cell or whatever.	1037446	1471961305871	1471961306126	SHIFT	16
2147	21751	I need your home cell or whatever.	I need your home cell or whatever.	1037456	1471961306089	1471961306188	I	73
2147	21751	I need your home cell or whatever.	I need your home cell or whatever.	1037464	1471961306345	1471961306409	 	32
2147	21751	I need your home cell or whatever.	I need your home cell or whatever.	1037473	1471961306597	1471961306661	n	78
2147	21751	I need your home cell or whatever.	I need your home cell or whatever.	1037480	1471961306754	1471961306826	e	69
2147	21751	I need your home cell or whatever.	I need your home cell or whatever.	1037486	1471961306920	1471961306961	e	69
2147	21751	I need your home cell or whatever.	I need your home cell or whatever.	1037595	1471961307080	1471961307162	d	68
2147	21751	I need your home cell or whatever.	I need your home cell or whatever.	1037605	1471961307193	1471961307261	 	32
2147	21751	I need your home cell or whatever.	I need your home cell or whatever.	1037611	1471961307889	1471961307947	y	89
2147	21751	I need your home cell or whatever.	I need your home cell or whatever.	1037619	1471961308009	1471961308114	o	79
2147	21751	I need your home cell or whatever.	I need your home cell or whatever.	1037927	1471961308063	1471961308141	u	85
2147	21751	I need your home cell or whatever.	I need your home cell or whatever.	1037931	1471961308360	1471961308430	r	82
2147	21751	I need your home cell or whatever.	I need your home cell or whatever.	1037935	1471961308493	1471961308595	 	32
2147	21751	I need your home cell or whatever.	I need your home cell or whatever.	1037943	1471961309239	1471961309362	h	72
2147	21751	I need your home cell or whatever.	I need your home cell or whatever.	1037948	1471961309331	1471961309416	i	73
2147	21751	I need your home cell or whatever.	I need your home cell or whatever.	1037953	1471961310310	1471961310399	BKSP	8
2147	21751	I need your home cell or whatever.	I need your home cell or whatever.	1038316	1471961310524	1471961310727	m	77
2147	21751	I need your home cell or whatever.	I need your home cell or whatever.	1037958	1471961310559	1471961310682	o	79
2147	21751	I need your home cell or whatever.	I need your home cell or whatever.	1038323	1471961311311	1471961311372	BKSP	8
2147	21751	I need your home cell or whatever.	I need your home cell or whatever.	1038331	1471961311841	1471961311922	BKSP	8
2147	21751	I need your home cell or whatever.	I need your home cell or whatever.	1038340	1471961312188	1471961312308	o	79
2147	21751	I need your home cell or whatever.	I need your home cell or whatever.	1038347	1471961312258	1471961312356	m	77
2147	21751	I need your home cell or whatever.	I need your home cell or whatever.	1038349	1471961312497	1471961312528	e	69
2147	21751	I need your home cell or whatever.	I need your home cell or whatever.	1038352	1471961312591	1471961312658	 	32
2147	21751	I need your home cell or whatever.	I need your home cell or whatever.	1038358	1471961313397	1471961313460	c	67
2147	21751	I need your home cell or whatever.	I need your home cell or whatever.	1038504	1471961313559	1471961313642	e	69
2147	21751	I need your home cell or whatever.	I need your home cell or whatever.	1038509	1471961313783	1471961313861	l	76
2147	21751	I need your home cell or whatever.	I need your home cell or whatever.	1038517	1471961313924	1471961313980	l	76
2147	21751	I need your home cell or whatever.	I need your home cell or whatever.	1038529	1471961314168	1471961314229	 	32
2147	21751	I need your home cell or whatever.	I need your home cell or whatever.	1038539	1471961314780	1471961314846	o	79
2147	21751	I need your home cell or whatever.	I need your home cell or whatever.	1038787	1471961315601	1471961315666	r	82
2147	21751	I need your home cell or whatever.	I need your home cell or whatever.	1038794	1471961315775	1471961315832	 	32
2147	21751	I need your home cell or whatever.	I need your home cell or whatever.	1038798	1471961316286	1471961316383	w	87
2147	21751	I need your home cell or whatever.	I need your home cell or whatever.	1038806	1471961316743	1471961316819	h	72
2147	21751	I need your home cell or whatever.	I need your home cell or whatever.	1038815	1471961316866	1471961316967	a	65
2147	21751	I need your home cell or whatever.	I need your home cell or whatever.	1039008	1471961317037	1471961317136	t	84
2147	21751	I need your home cell or whatever.	I need your home cell or whatever.	1039018	1471961317920	1471961317989	e	69
2147	21751	I need your home cell or whatever.	I need your home cell or whatever.	1039028	1471961318161	1471961318222	v	86
2147	21751	I need your home cell or whatever.	I need your home cell or whatever.	1039038	1471961318332	1471961318421	e	69
2147	21751	I need your home cell or whatever.	I need your home cell or whatever.	1039047	1471961318452	1471961318523	r	82
2147	21751	I need your home cell or whatever.	I need your home cell or whatever.	1039221	1471961319356	1471961319426	.	190
2147	21808	Our schedule now calls for critical communication in the afternoons.	Our schedule now calls for critical communication in the afternoons.	1041439	1471961335931	1471961336345	SHIFT	16
2147	21808	Our schedule now calls for critical communication in the afternoons.	Our schedule now calls for critical communication in the afternoons.	1041432	1471961336165	1471961336330	O	79
2147	21808	Our schedule now calls for critical communication in the afternoons.	Our schedule now calls for critical communication in the afternoons.	1041445	1471961336802	1471961336840	u	85
2147	21808	Our schedule now calls for critical communication in the afternoons.	Our schedule now calls for critical communication in the afternoons.	1041452	1471961337656	1471961337707	r	82
2147	21808	Our schedule now calls for critical communication in the afternoons.	Our schedule now calls for critical communication in the afternoons.	1041460	1471961337895	1471961337975	 	32
2147	21808	Our schedule now calls for critical communication in the afternoons.	Our schedule now calls for critical communication in the afternoons.	1041471	1471961338680	1471961338743	s	83
2147	21808	Our schedule now calls for critical communication in the afternoons.	Our schedule now calls for critical communication in the afternoons.	1041966	1471961338925	1471961339009	h	72
2147	21808	Our schedule now calls for critical communication in the afternoons.	Our schedule now calls for critical communication in the afternoons.	1041973	1471961339577	1471961339629	e	69
2147	21808	Our schedule now calls for critical communication in the afternoons.	Our schedule now calls for critical communication in the afternoons.	1041981	1471961340020	1471961340080	c	67
2147	21808	Our schedule now calls for critical communication in the afternoons.	Our schedule now calls for critical communication in the afternoons.	1041992	1471961341668	1471961341719	BKSP	8
2147	21808	Our schedule now calls for critical communication in the afternoons.	Our schedule now calls for critical communication in the afternoons.	1042000	1471961341953	1471961342034	BKSP	8
2147	21808	Our schedule now calls for critical communication in the afternoons.	Our schedule now calls for critical communication in the afternoons.	1042009	1471961342488	1471961342568	BKSP	8
2147	21808	Our schedule now calls for critical communication in the afternoons.	Our schedule now calls for critical communication in the afternoons.	1042017	1471961342864	1471961342952	c	67
2147	21808	Our schedule now calls for critical communication in the afternoons.	Our schedule now calls for critical communication in the afternoons.	1042024	1471961342952	1471961343020	h	72
2147	21808	Our schedule now calls for critical communication in the afternoons.	Our schedule now calls for critical communication in the afternoons.	1042251	1471961343085	1471961343138	e	69
2147	21808	Our schedule now calls for critical communication in the afternoons.	Our schedule now calls for critical communication in the afternoons.	1042256	1471961344180	1471961344241	d	68
2147	21808	Our schedule now calls for critical communication in the afternoons.	Our schedule now calls for critical communication in the afternoons.	1042263	1471961344319	1471961344407	u	85
2147	21808	Our schedule now calls for critical communication in the afternoons.	Our schedule now calls for critical communication in the afternoons.	1042266	1471961344673	1471961344742	e	69
2147	21808	Our schedule now calls for critical communication in the afternoons.	Our schedule now calls for critical communication in the afternoons.	1042270	1471961345164	1471961345250	BKSP	8
2147	21808	Our schedule now calls for critical communication in the afternoons.	Our schedule now calls for critical communication in the afternoons.	1042278	1471961345437	1471961345542	l	76
2147	21808	Our schedule now calls for critical communication in the afternoons.	Our schedule now calls for critical communication in the afternoons.	1042422	1471961345603	1471961345646	e	69
2147	21808	Our schedule now calls for critical communication in the afternoons.	Our schedule now calls for critical communication in the afternoons.	1042431	1471961345990	1471961346047	 	32
2147	21808	Our schedule now calls for critical communication in the afternoons.	Our schedule now calls for critical communication in the afternoons.	1042441	1471961346391	1471961346483	n	78
2147	21808	Our schedule now calls for critical communication in the afternoons.	Our schedule now calls for critical communication in the afternoons.	1042452	1471961346463	1471961346547	o	79
2147	21808	Our schedule now calls for critical communication in the afternoons.	Our schedule now calls for critical communication in the afternoons.	1042457	1471961346953	1471961347015	w	87
2147	21808	Our schedule now calls for critical communication in the afternoons.	Our schedule now calls for critical communication in the afternoons.	1042569	1471961347082	1471961347148	 	32
2147	21808	Our schedule now calls for critical communication in the afternoons.	Our schedule now calls for critical communication in the afternoons.	1042574	1471961347683	1471961347785	c	67
2147	21808	Our schedule now calls for critical communication in the afternoons.	Our schedule now calls for critical communication in the afternoons.	1042579	1471961347750	1471961347863	a	65
2147	21808	Our schedule now calls for critical communication in the afternoons.	Our schedule now calls for critical communication in the afternoons.	1042590	1471961347910	1471961347998	l	76
2147	21808	Our schedule now calls for critical communication in the afternoons.	Our schedule now calls for critical communication in the afternoons.	1042597	1471961348295	1471961348383	l	76
2147	21808	Our schedule now calls for critical communication in the afternoons.	Our schedule now calls for critical communication in the afternoons.	1042719	1471961348454	1471961348535	s	83
2147	21808	Our schedule now calls for critical communication in the afternoons.	Our schedule now calls for critical communication in the afternoons.	1042725	1471961348582	1471961348652	 	32
2147	21808	Our schedule now calls for critical communication in the afternoons.	Our schedule now calls for critical communication in the afternoons.	1042734	1471961349297	1471961349370	f	70
2147	21808	Our schedule now calls for critical communication in the afternoons.	Our schedule now calls for critical communication in the afternoons.	1042741	1471961349401	1471961349471	o	79
2147	21808	Our schedule now calls for critical communication in the afternoons.	Our schedule now calls for critical communication in the afternoons.	1042745	1471961349487	1471961349555	r	82
2147	21808	Our schedule now calls for critical communication in the afternoons.	Our schedule now calls for critical communication in the afternoons.	1043016	1471961349635	1471961349704	 	32
2147	21808	Our schedule now calls for critical communication in the afternoons.	Our schedule now calls for critical communication in the afternoons.	1043022	1471961350713	1471961350776	c	67
2147	21808	Our schedule now calls for critical communication in the afternoons.	Our schedule now calls for critical communication in the afternoons.	1043029	1471961351026	1471961351093	r	82
2147	21808	Our schedule now calls for critical communication in the afternoons.	Our schedule now calls for critical communication in the afternoons.	1043039	1471961351124	1471961351208	i	73
2147	21808	Our schedule now calls for critical communication in the afternoons.	Our schedule now calls for critical communication in the afternoons.	1043048	1471961351651	1471961351730	t	84
2147	21808	Our schedule now calls for critical communication in the afternoons.	Our schedule now calls for critical communication in the afternoons.	1043152	1471961351786	1471961351860	i	73
2147	21808	Our schedule now calls for critical communication in the afternoons.	Our schedule now calls for critical communication in the afternoons.	1043158	1471961352282	1471961352380	c	67
2147	21808	Our schedule now calls for critical communication in the afternoons.	Our schedule now calls for critical communication in the afternoons.	1043166	1471961352345	1471961352443	a	65
2147	21808	Our schedule now calls for critical communication in the afternoons.	Our schedule now calls for critical communication in the afternoons.	1043172	1471961352458	1471961352560	l	76
2147	21808	Our schedule now calls for critical communication in the afternoons.	Our schedule now calls for critical communication in the afternoons.	1043174	1471961352731	1471961352810	 	32
2147	21808	Our schedule now calls for critical communication in the afternoons.	Our schedule now calls for critical communication in the afternoons.	1043513	1471961353582	1471961353648	c	67
2147	21808	Our schedule now calls for critical communication in the afternoons.	Our schedule now calls for critical communication in the afternoons.	1043519	1471961354387	1471961354516	o	79
2147	21808	Our schedule now calls for critical communication in the afternoons.	Our schedule now calls for critical communication in the afternoons.	1043528	1471961354467	1471961354576	m	77
2147	21808	Our schedule now calls for critical communication in the afternoons.	Our schedule now calls for critical communication in the afternoons.	1043538	1471961355116	1471961355201	m	77
2147	21808	Our schedule now calls for critical communication in the afternoons.	Our schedule now calls for critical communication in the afternoons.	1043545	1471961355404	1471961355470	u	85
2147	21808	Our schedule now calls for critical communication in the afternoons.	Our schedule now calls for critical communication in the afternoons.	1043619	1471961355581	1471961355753	n	78
2147	21808	Our schedule now calls for critical communication in the afternoons.	Our schedule now calls for critical communication in the afternoons.	1043626	1471961355732	1471961355834	i	73
2147	21808	Our schedule now calls for critical communication in the afternoons.	Our schedule now calls for critical communication in the afternoons.	1043632	1471961356115	1471961356188	t	84
2147	21808	Our schedule now calls for critical communication in the afternoons.	Our schedule now calls for critical communication in the afternoons.	1043638	1471961356250	1471961356374	i	73
2147	21808	Our schedule now calls for critical communication in the afternoons.	Our schedule now calls for critical communication in the afternoons.	1044274	1471961356322	1471961356422	o	79
2147	21808	Our schedule now calls for critical communication in the afternoons.	Our schedule now calls for critical communication in the afternoons.	1044280	1471961356798	1471961356917	c	67
2147	21808	Our schedule now calls for critical communication in the afternoons.	Our schedule now calls for critical communication in the afternoons.	1044290	1471961356874	1471961357004	a	65
2147	21808	Our schedule now calls for critical communication in the afternoons.	Our schedule now calls for critical communication in the afternoons.	1044302	1471961357726	1471961357808	BKSP	8
2147	21808	Our schedule now calls for critical communication in the afternoons.	Our schedule now calls for critical communication in the afternoons.	1044317	1471961357870	1471961357944	BKSP	8
2147	21808	Our schedule now calls for critical communication in the afternoons.	Our schedule now calls for critical communication in the afternoons.	1044324	1471961358022	1471961358108	BKSP	8
2147	21808	Our schedule now calls for critical communication in the afternoons.	Our schedule now calls for critical communication in the afternoons.	1044335	1471961360736	1471961360817	BKSP	8
2147	21808	Our schedule now calls for critical communication in the afternoons.	Our schedule now calls for critical communication in the afternoons.	1044345	1471961360927	1471961361017	BKSP	8
2147	21808	Our schedule now calls for critical communication in the afternoons.	Our schedule now calls for critical communication in the afternoons.	1044355	1471961361582	1471961361780	c	67
2147	21808	Our schedule now calls for critical communication in the afternoons.	Our schedule now calls for critical communication in the afternoons.	1044364	1471961361621	1471961361827	a	65
2147	21808	Our schedule now calls for critical communication in the afternoons.	Our schedule now calls for critical communication in the afternoons.	1044373	1471961362077	1471961362169	t	84
2147	21808	Our schedule now calls for critical communication in the afternoons.	Our schedule now calls for critical communication in the afternoons.	1044451	1471961362138	1471961362239	i	73
2147	21808	Our schedule now calls for critical communication in the afternoons.	Our schedule now calls for critical communication in the afternoons.	1044455	1471961362197	1471961362286	o	79
2147	21808	Our schedule now calls for critical communication in the afternoons.	Our schedule now calls for critical communication in the afternoons.	1044461	1471961362474	1471961362570	n	78
2147	21808	Our schedule now calls for critical communication in the afternoons.	Our schedule now calls for critical communication in the afternoons.	1044463	1471961362868	1471961362939	 	32
2147	21808	Our schedule now calls for critical communication in the afternoons.	Our schedule now calls for critical communication in the afternoons.	1044467	1471961363330	1471961363443	i	73
2147	21808	Our schedule now calls for critical communication in the afternoons.	Our schedule now calls for critical communication in the afternoons.	1044578	1471961363406	1471961363496	n	78
2147	21808	Our schedule now calls for critical communication in the afternoons.	Our schedule now calls for critical communication in the afternoons.	1044587	1471961363971	1471961364058	 	32
2147	21808	Our schedule now calls for critical communication in the afternoons.	Our schedule now calls for critical communication in the afternoons.	1044597	1471961364183	1471961364245	t	72
2147	21808	Our schedule now calls for critical communication in the afternoons.	Our schedule now calls for critical communication in the afternoons.	1044611	1471961364448	1471961364535	e	69
2147	21808	Our schedule now calls for critical communication in the afternoons.	Our schedule now calls for critical communication in the afternoons.	1044618	1471961364581	1471961364660	 	32
2147	21808	Our schedule now calls for critical communication in the afternoons.	Our schedule now calls for critical communication in the afternoons.	1044838	1471961364828	1471961364896	BKSP	8
2147	21808	Our schedule now calls for critical communication in the afternoons.	Our schedule now calls for critical communication in the afternoons.	1044844	1471961364971	1471961365012	BKSP	8
2147	21808	Our schedule now calls for critical communication in the afternoons.	Our schedule now calls for critical communication in the afternoons.	1044850	1471961365059	1471961365144	BKSP	8
2147	21808	Our schedule now calls for critical communication in the afternoons.	Our schedule now calls for critical communication in the afternoons.	1044863	1471961365206	1471961365262	BKSP	8
2147	21808	Our schedule now calls for critical communication in the afternoons.	Our schedule now calls for critical communication in the afternoons.	1044871	1471961365622	1471961365712	t	84
2147	21808	Our schedule now calls for critical communication in the afternoons.	Our schedule now calls for critical communication in the afternoons.	1044881	1471961365774	1471961365847	h	72
2147	21808	Our schedule now calls for critical communication in the afternoons.	Our schedule now calls for critical communication in the afternoons.	1044889	1471961365862	1471961365946	e	69
2147	21808	Our schedule now calls for critical communication in the afternoons.	Our schedule now calls for critical communication in the afternoons.	1044899	1471961365977	1471961366064	 	32
2147	21808	Our schedule now calls for critical communication in the afternoons.	Our schedule now calls for critical communication in the afternoons.	1044905	1471961366817	1471961366898	a	65
2147	21808	Our schedule now calls for critical communication in the afternoons.	Our schedule now calls for critical communication in the afternoons.	1045024	1471961367300	1471961367352	f	70
2147	21808	Our schedule now calls for critical communication in the afternoons.	Our schedule now calls for critical communication in the afternoons.	1045028	1471961367493	1471961367551	t	84
2147	21808	Our schedule now calls for critical communication in the afternoons.	Our schedule now calls for critical communication in the afternoons.	1045036	1471961367597	1471961367704	e	69
2147	21808	Our schedule now calls for critical communication in the afternoons.	Our schedule now calls for critical communication in the afternoons.	1045043	1471961367684	1471961367768	r	82
2147	21808	Our schedule now calls for critical communication in the afternoons.	Our schedule now calls for critical communication in the afternoons.	1045048	1471961368192	1471961368303	n	78
2147	21808	Our schedule now calls for critical communication in the afternoons.	Our schedule now calls for critical communication in the afternoons.	1045209	1471961368270	1471961368377	o	79
2147	21808	Our schedule now calls for critical communication in the afternoons.	Our schedule now calls for critical communication in the afternoons.	1045211	1471961368502	1471961368570	o	79
2147	21808	Our schedule now calls for critical communication in the afternoons.	Our schedule now calls for critical communication in the afternoons.	1045214	1471961369030	1471961369105	n	78
2147	21808	Our schedule now calls for critical communication in the afternoons.	Our schedule now calls for critical communication in the afternoons.	1045216	1471961369324	1471961369390	s	83
2147	21808	Our schedule now calls for critical communication in the afternoons.	Our schedule now calls for critical communication in the afternoons.	1045219	1471961370002	1471961370091	.	190
2147	21926	Lusinchi is currently in Boston, MA, according to his attorney.	Lusinchi is currently in Boston, MA, according to his attorney.	1047096	1471961386476	1471961386685	SHIFT	16
2147	21926	Lusinchi is currently in Boston, MA, according to his attorney.	Lusinchi is currently in Boston, MA, according to his attorney.	1047106	1471961386617	1471961386716	L	76
2147	21926	Lusinchi is currently in Boston, MA, according to his attorney.	Lusinchi is currently in Boston, MA, according to his attorney.	1047110	1471961386841	1471961386918	u	85
2147	21926	Lusinchi is currently in Boston, MA, according to his attorney.	Lusinchi is currently in Boston, MA, according to his attorney.	1047115	1471961387309	1471961387386	s	83
2147	21926	Lusinchi is currently in Boston, MA, according to his attorney.	Lusinchi is currently in Boston, MA, according to his attorney.	1047119	1471961387402	1471961387486	i	73
2147	21926	Lusinchi is currently in Boston, MA, according to his attorney.	Lusinchi is currently in Boston, MA, according to his attorney.	1047121	1471961387846	1471961387907	n	78
2147	21926	Lusinchi is currently in Boston, MA, according to his attorney.	Lusinchi is currently in Boston, MA, according to his attorney.	1048025	1471961389225	1471961389276	c	67
2147	21926	Lusinchi is currently in Boston, MA, according to his attorney.	Lusinchi is currently in Boston, MA, according to his attorney.	1048034	1471961389355	1471961389456	h	72
2147	21926	Lusinchi is currently in Boston, MA, according to his attorney.	Lusinchi is currently in Boston, MA, according to his attorney.	1048042	1471961389471	1471961389574	i	73
2147	21926	Lusinchi is currently in Boston, MA, according to his attorney.	Lusinchi is currently in Boston, MA, according to his attorney.	1048051	1471961389949	1471961390013	 	32
2147	21926	Lusinchi is currently in Boston, MA, according to his attorney.	Lusinchi is currently in Boston, MA, according to his attorney.	1048058	1471961390796	1471961390863	BKSP	8
2147	21926	Lusinchi is currently in Boston, MA, according to his attorney.	Lusinchi is currently in Boston, MA, according to his attorney.	1048065	1471961390941	1471961390996	BKSP	8
2147	21926	Lusinchi is currently in Boston, MA, according to his attorney.	Lusinchi is currently in Boston, MA, according to his attorney.	1048071	1471961391090	1471961391147	BKSP	8
2147	21926	Lusinchi is currently in Boston, MA, according to his attorney.	Lusinchi is currently in Boston, MA, according to his attorney.	1048073	1471961396835	1471961396946	h	72
2147	21926	Lusinchi is currently in Boston, MA, according to his attorney.	Lusinchi is currently in Boston, MA, according to his attorney.	1048228	1471961396895	1471961397004	i	73
2147	21926	Lusinchi is currently in Boston, MA, according to his attorney.	Lusinchi is currently in Boston, MA, according to his attorney.	1048231	1471961397209	1471961397295	 	32
2147	21926	Lusinchi is currently in Boston, MA, according to his attorney.	Lusinchi is currently in Boston, MA, according to his attorney.	1048238	1471961397876	1471961397947	i	73
2147	21926	Lusinchi is currently in Boston, MA, according to his attorney.	Lusinchi is currently in Boston, MA, according to his attorney.	1048242	1471961397962	1471961398031	s	83
2147	21926	Lusinchi is currently in Boston, MA, according to his attorney.	Lusinchi is currently in Boston, MA, according to his attorney.	1048247	1471961398124	1471961398199	 	32
2147	21926	Lusinchi is currently in Boston, MA, according to his attorney.	Lusinchi is currently in Boston, MA, according to his attorney.	1048254	1471961398905	1471961398967	c	67
2147	21926	Lusinchi is currently in Boston, MA, according to his attorney.	Lusinchi is currently in Boston, MA, according to his attorney.	1048358	1471961399127	1471961399200	u	85
2147	21926	Lusinchi is currently in Boston, MA, according to his attorney.	Lusinchi is currently in Boston, MA, according to his attorney.	1048361	1471961399466	1471961399537	r	82
2147	21926	Lusinchi is currently in Boston, MA, according to his attorney.	Lusinchi is currently in Boston, MA, according to his attorney.	1048365	1471961399600	1471961399668	r	82
2147	21926	Lusinchi is currently in Boston, MA, according to his attorney.	Lusinchi is currently in Boston, MA, according to his attorney.	1048370	1471961399808	1471961399885	e	69
2147	21926	Lusinchi is currently in Boston, MA, according to his attorney.	Lusinchi is currently in Boston, MA, according to his attorney.	1048377	1471961399917	1471961400001	n	78
2147	21926	Lusinchi is currently in Boston, MA, according to his attorney.	Lusinchi is currently in Boston, MA, according to his attorney.	1048638	1471961401399	1471961401472	t	84
2147	21926	Lusinchi is currently in Boston, MA, according to his attorney.	Lusinchi is currently in Boston, MA, according to his attorney.	1048645	1471961401534	1471961401591	l	76
2147	21926	Lusinchi is currently in Boston, MA, according to his attorney.	Lusinchi is currently in Boston, MA, according to his attorney.	1048652	1471961401935	1471961402008	y	89
2147	21926	Lusinchi is currently in Boston, MA, according to his attorney.	Lusinchi is currently in Boston, MA, according to his attorney.	1048660	1471961402180	1471961402258	 	32
2147	21926	Lusinchi is currently in Boston, MA, according to his attorney.	Lusinchi is currently in Boston, MA, according to his attorney.	1048667	1471961402534	1471961402645	i	73
2147	21926	Lusinchi is currently in Boston, MA, according to his attorney.	Lusinchi is currently in Boston, MA, according to his attorney.	1048871	1471961402608	1471961402696	n	78
2147	21926	Lusinchi is currently in Boston, MA, according to his attorney.	Lusinchi is currently in Boston, MA, according to his attorney.	1048874	1471961403336	1471961403411	 	32
2147	21926	Lusinchi is currently in Boston, MA, according to his attorney.	Lusinchi is currently in Boston, MA, according to his attorney.	1048880	1471961403599	1471961404008	SHIFT	16
2147	21926	Lusinchi is currently in Boston, MA, according to his attorney.	Lusinchi is currently in Boston, MA, according to his attorney.	1048877	1471961403865	1471961403914	B	66
2147	21926	Lusinchi is currently in Boston, MA, according to his attorney.	Lusinchi is currently in Boston, MA, according to his attorney.	1048882	1471961403992	1471961404063	O	79
2147	21926	Lusinchi is currently in Boston, MA, according to his attorney.	Lusinchi is currently in Boston, MA, according to his attorney.	1048885	1471961404469	1471961404549	s	83
2147	21926	Lusinchi is currently in Boston, MA, according to his attorney.	Lusinchi is currently in Boston, MA, according to his attorney.	1048888	1471961404783	1471961404881	BKSP	8
2147	21926	Lusinchi is currently in Boston, MA, according to his attorney.	Lusinchi is currently in Boston, MA, according to his attorney.	1048894	1471961404959	1471961405033	BKSP	8
2147	21926	Lusinchi is currently in Boston, MA, according to his attorney.	Lusinchi is currently in Boston, MA, according to his attorney.	1048902	1471961405267	1471961405350	o	79
2147	21926	Lusinchi is currently in Boston, MA, according to his attorney.	Lusinchi is currently in Boston, MA, according to his attorney.	1049131	1471961405452	1471961405549	s	83
2147	21926	Lusinchi is currently in Boston, MA, according to his attorney.	Lusinchi is currently in Boston, MA, according to his attorney.	1049136	1471961406193	1471961406254	t	84
2147	21926	Lusinchi is currently in Boston, MA, according to his attorney.	Lusinchi is currently in Boston, MA, according to his attorney.	1049140	1471961406488	1471961406622	o	79
2147	21926	Lusinchi is currently in Boston, MA, according to his attorney.	Lusinchi is currently in Boston, MA, according to his attorney.	1049146	1471961406584	1471961406669	n	78
2147	21926	Lusinchi is currently in Boston, MA, according to his attorney.	Lusinchi is currently in Boston, MA, according to his attorney.	1049151	1471961407679	1471961407740	.	190
2147	21926	Lusinchi is currently in Boston, MA, according to his attorney.	Lusinchi is currently in Boston, MA, according to his attorney.	1049403	1471961408043	1471961408123	BKSP	8
2147	21926	Lusinchi is currently in Boston, MA, according to his attorney.	Lusinchi is currently in Boston, MA, according to his attorney.	1049413	1471961408258	1471961408341	,	188
2147	21926	Lusinchi is currently in Boston, MA, according to his attorney.	Lusinchi is currently in Boston, MA, according to his attorney.	1049419	1471961408435	1471961408509	 	32
2147	21926	Lusinchi is currently in Boston, MA, according to his attorney.	Lusinchi is currently in Boston, MA, according to his attorney.	1049433	1471961408728	1471961409575	SHIFT	16
2147	21926	Lusinchi is currently in Boston, MA, according to his attorney.	Lusinchi is currently in Boston, MA, according to his attorney.	1049426	1471961409465	1471961409543	M	77
2147	21926	Lusinchi is currently in Boston, MA, according to his attorney.	Lusinchi is currently in Boston, MA, according to his attorney.	1049441	1471961410140	1471961410346	SHIFT	16
2147	21926	Lusinchi is currently in Boston, MA, according to his attorney.	Lusinchi is currently in Boston, MA, according to his attorney.	1049453	1471961410265	1471961410393	M	77
2147	21926	Lusinchi is currently in Boston, MA, according to his attorney.	Lusinchi is currently in Boston, MA, according to his attorney.	1049462	1471961410424	1471961410497	a	65
2147	21926	Lusinchi is currently in Boston, MA, according to his attorney.	Lusinchi is currently in Boston, MA, according to his attorney.	1049669	1471961410850	1471961410916	BKSP	8
2147	21926	Lusinchi is currently in Boston, MA, according to his attorney.	Lusinchi is currently in Boston, MA, according to his attorney.	1049675	1471961410994	1471961411065	BKSP	8
2147	21926	Lusinchi is currently in Boston, MA, according to his attorney.	Lusinchi is currently in Boston, MA, according to his attorney.	1049691	1471961411409	1471961411663	SHIFT	16
2147	21926	Lusinchi is currently in Boston, MA, according to his attorney.	Lusinchi is currently in Boston, MA, according to his attorney.	1049681	1471961411559	1471961411616	A	65
2147	21926	Lusinchi is currently in Boston, MA, according to his attorney.	Lusinchi is currently in Boston, MA, according to his attorney.	1049698	1471961412214	1471961412301	,	188
2147	21926	Lusinchi is currently in Boston, MA, according to his attorney.	Lusinchi is currently in Boston, MA, according to his attorney.	1049705	1471961412441	1471961412519	 	32
2147	21926	Lusinchi is currently in Boston, MA, according to his attorney.	Lusinchi is currently in Boston, MA, according to his attorney.	1049711	1471961413022	1471961413103	a	65
2147	21926	Lusinchi is currently in Boston, MA, according to his attorney.	Lusinchi is currently in Boston, MA, according to his attorney.	1049720	1471961413212	1471961413256	c	67
2147	21926	Lusinchi is currently in Boston, MA, according to his attorney.	Lusinchi is currently in Boston, MA, according to his attorney.	1049992	1471961413499	1471961413573	c	67
2147	21926	Lusinchi is currently in Boston, MA, according to his attorney.	Lusinchi is currently in Boston, MA, according to his attorney.	1050002	1471961414122	1471961414205	o	79
2147	21926	Lusinchi is currently in Boston, MA, according to his attorney.	Lusinchi is currently in Boston, MA, according to his attorney.	1050009	1471961414408	1471961414458	t	84
2147	21926	Lusinchi is currently in Boston, MA, according to his attorney.	Lusinchi is currently in Boston, MA, according to his attorney.	1050017	1471961415621	1471961415693	BKSP	8
2147	21926	Lusinchi is currently in Boston, MA, according to his attorney.	Lusinchi is currently in Boston, MA, according to his attorney.	1050023	1471961416097	1471961416162	r	82
2147	21926	Lusinchi is currently in Boston, MA, according to his attorney.	Lusinchi is currently in Boston, MA, according to his attorney.	1050031	1471961416553	1471961416630	d	68
2147	21926	Lusinchi is currently in Boston, MA, according to his attorney.	Lusinchi is currently in Boston, MA, according to his attorney.	1050115	1471961416719	1471961416832	i	73
2147	21926	Lusinchi is currently in Boston, MA, according to his attorney.	Lusinchi is currently in Boston, MA, according to his attorney.	1050122	1471961416796	1471961416894	n	78
2147	21926	Lusinchi is currently in Boston, MA, according to his attorney.	Lusinchi is currently in Boston, MA, according to his attorney.	1050129	1471961416957	1471961417030	g	71
2147	21926	Lusinchi is currently in Boston, MA, according to his attorney.	Lusinchi is currently in Boston, MA, according to his attorney.	1050138	1471961417046	1471961417147	 	32
2147	21926	Lusinchi is currently in Boston, MA, according to his attorney.	Lusinchi is currently in Boston, MA, according to his attorney.	1050144	1471961417775	1471961417833	t	84
2147	21926	Lusinchi is currently in Boston, MA, according to his attorney.	Lusinchi is currently in Boston, MA, according to his attorney.	1050256	1471961417858	1471961417933	o	79
2147	21926	Lusinchi is currently in Boston, MA, according to his attorney.	Lusinchi is currently in Boston, MA, according to his attorney.	1050258	1471961418090	1471961418182	 	32
2147	21926	Lusinchi is currently in Boston, MA, according to his attorney.	Lusinchi is currently in Boston, MA, according to his attorney.	1050265	1471961418701	1471961418812	h	72
2147	21926	Lusinchi is currently in Boston, MA, according to his attorney.	Lusinchi is currently in Boston, MA, according to his attorney.	1050273	1471961418769	1471961418883	i	73
2147	21926	Lusinchi is currently in Boston, MA, according to his attorney.	Lusinchi is currently in Boston, MA, according to his attorney.	1050281	1471961419023	1471961419085	s	83
2147	21926	Lusinchi is currently in Boston, MA, according to his attorney.	Lusinchi is currently in Boston, MA, according to his attorney.	1050538	1471961419139	1471961419221	 	32
2147	21926	Lusinchi is currently in Boston, MA, according to his attorney.	Lusinchi is currently in Boston, MA, according to his attorney.	1050546	1471961419940	1471961419989	a	65
2147	21926	Lusinchi is currently in Boston, MA, according to his attorney.	Lusinchi is currently in Boston, MA, according to his attorney.	1050556	1471961420207	1471961420273	t	84
2147	21926	Lusinchi is currently in Boston, MA, according to his attorney.	Lusinchi is currently in Boston, MA, according to his attorney.	1050562	1471961420382	1471961420415	t	84
2147	21926	Lusinchi is currently in Boston, MA, according to his attorney.	Lusinchi is currently in Boston, MA, according to his attorney.	1050571	1471961421302	1471961421375	o	79
2147	21926	Lusinchi is currently in Boston, MA, according to his attorney.	Lusinchi is currently in Boston, MA, according to his attorney.	1050749	1471961421895	1471961421960	r	82
2147	21926	Lusinchi is currently in Boston, MA, according to his attorney.	Lusinchi is currently in Boston, MA, according to his attorney.	1050753	1471961422116	1471961422177	n	78
2147	21926	Lusinchi is currently in Boston, MA, according to his attorney.	Lusinchi is currently in Boston, MA, according to his attorney.	1050759	1471961422647	1471961422713	e	69
2147	21926	Lusinchi is currently in Boston, MA, according to his attorney.	Lusinchi is currently in Boston, MA, according to his attorney.	1050765	1471961422728	1471961422796	y	89
2147	21926	Lusinchi is currently in Boston, MA, according to his attorney.	Lusinchi is currently in Boston, MA, according to his attorney.	1050776	1471961423409	1471961423481	.	190
2147	22039	The UN still recognizes Lisbon as the administrator of the territory.	The UN still recognizes Lisbon as the administrator of the terrirory.	1051460	1471961430326	1471961430534	SHIFT	16
2147	22039	The UN still recognizes Lisbon as the administrator of the territory.	The UN still recognizes Lisbon as the administrator of the terrirory.	1051463	1471961430493	1471961430550	T	84
2147	22039	The UN still recognizes Lisbon as the administrator of the territory.	The UN still recognizes Lisbon as the administrator of the terrirory.	1051464	1471961430659	1471961430733	h	72
2147	22039	The UN still recognizes Lisbon as the administrator of the territory.	The UN still recognizes Lisbon as the administrator of the terrirory.	1051468	1471961430827	1471961430885	e	69
2147	22039	The UN still recognizes Lisbon as the administrator of the territory.	The UN still recognizes Lisbon as the administrator of the terrirory.	1051472	1471961430979	1471961431040	 	32
2147	22039	The UN still recognizes Lisbon as the administrator of the territory.	The UN still recognizes Lisbon as the administrator of the terrirory.	1051626	1471961431726	1471961432696	SHIFT	16
2147	22039	The UN still recognizes Lisbon as the administrator of the territory.	The UN still recognizes Lisbon as the administrator of the terrirory.	1051477	1471961432120	1471961432266	U	85
2147	22039	The UN still recognizes Lisbon as the administrator of the territory.	The UN still recognizes Lisbon as the administrator of the terrirory.	1051619	1471961432500	1471961432586	N	78
2147	22039	The UN still recognizes Lisbon as the administrator of the territory.	The UN still recognizes Lisbon as the administrator of the terrirory.	1051634	1471961432852	1471961432937	 	32
2147	22039	The UN still recognizes Lisbon as the administrator of the territory.	The UN still recognizes Lisbon as the administrator of the terrirory.	1051641	1471961433644	1471961433693	s	83
2147	22039	The UN still recognizes Lisbon as the administrator of the territory.	The UN still recognizes Lisbon as the administrator of the terrirory.	1051649	1471961434068	1471961434126	t	84
2147	22039	The UN still recognizes Lisbon as the administrator of the territory.	The UN still recognizes Lisbon as the administrator of the terrirory.	1051656	1471961434220	1471961434276	i	73
2147	22039	The UN still recognizes Lisbon as the administrator of the territory.	The UN still recognizes Lisbon as the administrator of the terrirory.	1051793	1471961434505	1471961434592	l	76
2147	22039	The UN still recognizes Lisbon as the administrator of the territory.	The UN still recognizes Lisbon as the administrator of the terrirory.	1051801	1471961434654	1471961434733	l	76
2147	22039	The UN still recognizes Lisbon as the administrator of the territory.	The UN still recognizes Lisbon as the administrator of the terrirory.	1051806	1471961435080	1471961435144	 	32
2147	22039	The UN still recognizes Lisbon as the administrator of the territory.	The UN still recognizes Lisbon as the administrator of the terrirory.	1051812	1471961435612	1471961435731	r	82
2147	22039	The UN still recognizes Lisbon as the administrator of the territory.	The UN still recognizes Lisbon as the administrator of the terrirory.	1052201	1471961435695	1471961435825	e	69
2147	22039	The UN still recognizes Lisbon as the administrator of the territory.	The UN still recognizes Lisbon as the administrator of the terrirory.	1052206	1471961436215	1471961436282	c	67
2147	22039	The UN still recognizes Lisbon as the administrator of the territory.	The UN still recognizes Lisbon as the administrator of the terrirory.	1052210	1471961436453	1471961436547	o	79
2147	22039	The UN still recognizes Lisbon as the administrator of the territory.	The UN still recognizes Lisbon as the administrator of the terrirory.	1052212	1471961437050	1471961437147	n	78
2147	22039	The UN still recognizes Lisbon as the administrator of the territory.	The UN still recognizes Lisbon as the administrator of the terrirory.	1052215	1471961438452	1471961438536	g	71
2147	22039	The UN still recognizes Lisbon as the administrator of the territory.	The UN still recognizes Lisbon as the administrator of the terrirory.	1052217	1471961439032	1471961439089	BKSP	8
2147	22039	The UN still recognizes Lisbon as the administrator of the territory.	The UN still recognizes Lisbon as the administrator of the terrirory.	1052222	1471961439167	1471961439254	BKSP	8
2147	22039	The UN still recognizes Lisbon as the administrator of the territory.	The UN still recognizes Lisbon as the administrator of the terrirory.	1052230	1471961439688	1471961439756	g	71
2147	22039	The UN still recognizes Lisbon as the administrator of the territory.	The UN still recognizes Lisbon as the administrator of the terrirory.	1052538	1471961439841	1471961439969	n	78
2147	22039	The UN still recognizes Lisbon as the administrator of the territory.	The UN still recognizes Lisbon as the administrator of the terrirory.	1052539	1471961439939	1471961440038	i	73
2147	22039	The UN still recognizes Lisbon as the administrator of the territory.	The UN still recognizes Lisbon as the administrator of the terrirory.	1052542	1471961442536	1471961442598	z	90
2147	22039	The UN still recognizes Lisbon as the administrator of the territory.	The UN still recognizes Lisbon as the administrator of the terrirory.	1052546	1471961443036	1471961443083	e	69
2147	22039	The UN still recognizes Lisbon as the administrator of the territory.	The UN still recognizes Lisbon as the administrator of the terrirory.	1052549	1471961443208	1471961443282	s	83
2147	22039	The UN still recognizes Lisbon as the administrator of the territory.	The UN still recognizes Lisbon as the administrator of the terrirory.	1052737	1471961443452	1471961443531	 	32
2147	22039	The UN still recognizes Lisbon as the administrator of the territory.	The UN still recognizes Lisbon as the administrator of the terrirory.	1052742	1471961443897	1471961444102	SHIFT	16
2147	22039	The UN still recognizes Lisbon as the administrator of the territory.	The UN still recognizes Lisbon as the administrator of the terrirory.	1052747	1471961444051	1471961444149	L	76
2147	22039	The UN still recognizes Lisbon as the administrator of the territory.	The UN still recognizes Lisbon as the administrator of the terrirory.	1052753	1471961444258	1471961444335	i	73
2147	22039	The UN still recognizes Lisbon as the administrator of the territory.	The UN still recognizes Lisbon as the administrator of the terrirory.	1052757	1471961444792	1471961444839	s	83
2147	22039	The UN still recognizes Lisbon as the administrator of the territory.	The UN still recognizes Lisbon as the administrator of the terrirory.	1052760	1471961445843	1471961445890	b	66
2147	22039	The UN still recognizes Lisbon as the administrator of the territory.	The UN still recognizes Lisbon as the administrator of the terrirory.	1052872	1471961445927	1471961446036	o	79
2147	22039	The UN still recognizes Lisbon as the administrator of the territory.	The UN still recognizes Lisbon as the administrator of the terrirory.	1052877	1471961446083	1471961446141	n	78
2147	22039	The UN still recognizes Lisbon as the administrator of the territory.	The UN still recognizes Lisbon as the administrator of the terrirory.	1052883	1471961446785	1471961446858	 	32
2147	22039	The UN still recognizes Lisbon as the administrator of the territory.	The UN still recognizes Lisbon as the administrator of the terrirory.	1052889	1471961447139	1471961447225	a	65
2147	22039	The UN still recognizes Lisbon as the administrator of the territory.	The UN still recognizes Lisbon as the administrator of the terrirory.	1052895	1471961447506	1471961447560	s	83
2147	22039	The UN still recognizes Lisbon as the administrator of the territory.	The UN still recognizes Lisbon as the administrator of the terrirory.	1052949	1471961447673	1471961447759	 	32
2147	22039	The UN still recognizes Lisbon as the administrator of the territory.	The UN still recognizes Lisbon as the administrator of the terrirory.	1052954	1471961447900	1471961447946	t	84
2147	22039	The UN still recognizes Lisbon as the administrator of the territory.	The UN still recognizes Lisbon as the administrator of the terrirory.	1052959	1471961447993	1471961448079	h	72
2147	22039	The UN still recognizes Lisbon as the administrator of the territory.	The UN still recognizes Lisbon as the administrator of the terrirory.	1052965	1471961448235	1471961448312	e	69
2147	22039	The UN still recognizes Lisbon as the administrator of the territory.	The UN still recognizes Lisbon as the administrator of the terrirory.	1052969	1471961448375	1471961448461	 	32
2147	22039	The UN still recognizes Lisbon as the administrator of the territory.	The UN still recognizes Lisbon as the administrator of the terrirory.	1053121	1471961449075	1471961449149	a	65
2147	22039	The UN still recognizes Lisbon as the administrator of the territory.	The UN still recognizes Lisbon as the administrator of the terrirory.	1053124	1471961449367	1471961449433	d	68
2147	22039	The UN still recognizes Lisbon as the administrator of the territory.	The UN still recognizes Lisbon as the administrator of the terrirory.	1053128	1471961449683	1471961449818	m	77
2147	22039	The UN still recognizes Lisbon as the administrator of the territory.	The UN still recognizes Lisbon as the administrator of the terrirory.	1053132	1471961449780	1471961449880	i	73
2147	22039	The UN still recognizes Lisbon as the administrator of the territory.	The UN still recognizes Lisbon as the administrator of the terrirory.	1053138	1471961450271	1471961450391	n	78
2147	22039	The UN still recognizes Lisbon as the administrator of the territory.	The UN still recognizes Lisbon as the administrator of the terrirory.	1053471	1471961450350	1471961450466	i	73
2147	22039	The UN still recognizes Lisbon as the administrator of the territory.	The UN still recognizes Lisbon as the administrator of the terrirory.	1053475	1471961450936	1471961450987	s	83
2147	22039	The UN still recognizes Lisbon as the administrator of the territory.	The UN still recognizes Lisbon as the administrator of the terrirory.	1053480	1471961451440	1471961451520	t	84
2147	22039	The UN still recognizes Lisbon as the administrator of the territory.	The UN still recognizes Lisbon as the administrator of the terrirory.	1053485	1471961451598	1471961451714	e	69
2147	22039	The UN still recognizes Lisbon as the administrator of the territory.	The UN still recognizes Lisbon as the administrator of the terrirory.	1053490	1471961451687	1471961451770	r	82
2147	22039	The UN still recognizes Lisbon as the administrator of the territory.	The UN still recognizes Lisbon as the administrator of the terrirory.	1053497	1471961452997	1471961453230	BKSP	8
2147	22039	The UN still recognizes Lisbon as the administrator of the territory.	The UN still recognizes Lisbon as the administrator of the terrirory.	1053501	1471961453355	1471961453441	BKSP	8
2147	22039	The UN still recognizes Lisbon as the administrator of the territory.	The UN still recognizes Lisbon as the administrator of the terrirory.	1053506	1471961453991	1471961454113	r	82
2147	22039	The UN still recognizes Lisbon as the administrator of the territory.	The UN still recognizes Lisbon as the administrator of the terrirory.	1053653	1471961454060	1471961454150	a	65
2147	22039	The UN still recognizes Lisbon as the administrator of the territory.	The UN still recognizes Lisbon as the administrator of the terrirory.	1053661	1471961454881	1471961454931	t	84
2147	22039	The UN still recognizes Lisbon as the administrator of the territory.	The UN still recognizes Lisbon as the administrator of the terrirory.	1053669	1471961455181	1471961455264	o	79
2147	22039	The UN still recognizes Lisbon as the administrator of the territory.	The UN still recognizes Lisbon as the administrator of the terrirory.	1053674	1471961455358	1471961455430	r	82
2147	22039	The UN still recognizes Lisbon as the administrator of the territory.	The UN still recognizes Lisbon as the administrator of the terrirory.	1053680	1471961455477	1471961455563	 	32
2147	22039	The UN still recognizes Lisbon as the administrator of the territory.	The UN still recognizes Lisbon as the administrator of the terrirory.	1053685	1471961456254	1471961456332	o	79
2147	22039	The UN still recognizes Lisbon as the administrator of the territory.	The UN still recognizes Lisbon as the administrator of the terrirory.	1053743	1471961456540	1471961456600	f	70
2147	22039	The UN still recognizes Lisbon as the administrator of the territory.	The UN still recognizes Lisbon as the administrator of the terrirory.	1053744	1471961456631	1471961456717	 	32
2147	22039	The UN still recognizes Lisbon as the administrator of the territory.	The UN still recognizes Lisbon as the administrator of the terrirory.	1053745	1471961456795	1471961456881	t	84
2147	22039	The UN still recognizes Lisbon as the administrator of the territory.	The UN still recognizes Lisbon as the administrator of the terrirory.	1053746	1471961456867	1471961456966	h	72
2147	22039	The UN still recognizes Lisbon as the administrator of the territory.	The UN still recognizes Lisbon as the administrator of the terrirory.	1053748	1471961456982	1471961457067	e	69
2147	22039	The UN still recognizes Lisbon as the administrator of the territory.	The UN still recognizes Lisbon as the administrator of the terrirory.	1053949	1471961457105	1471961457170	 	32
2147	22039	The UN still recognizes Lisbon as the administrator of the territory.	The UN still recognizes Lisbon as the administrator of the terrirory.	1053958	1471961458157	1471961458223	t	84
2147	22039	The UN still recognizes Lisbon as the administrator of the territory.	The UN still recognizes Lisbon as the administrator of the terrirory.	1053966	1471961458488	1471961458556	e	69
2147	22039	The UN still recognizes Lisbon as the administrator of the territory.	The UN still recognizes Lisbon as the administrator of the terrirory.	1053976	1471961459513	1471961459560	r	82
2147	22039	The UN still recognizes Lisbon as the administrator of the territory.	The UN still recognizes Lisbon as the administrator of the terrirory.	1053983	1471961459623	1471961459676	r	82
2147	22039	The UN still recognizes Lisbon as the administrator of the territory.	The UN still recognizes Lisbon as the administrator of the terrirory.	1054242	1471961460384	1471961460523	i	73
2147	22039	The UN still recognizes Lisbon as the administrator of the territory.	The UN still recognizes Lisbon as the administrator of the terrirory.	1054248	1471961461120	1471961461180	r	82
2147	22039	The UN still recognizes Lisbon as the administrator of the territory.	The UN still recognizes Lisbon as the administrator of the terrirory.	1054254	1471961461965	1471961462015	o	79
2147	22039	The UN still recognizes Lisbon as the administrator of the territory.	The UN still recognizes Lisbon as the administrator of the terrirory.	1054258	1471961462486	1471961462550	r	82
2147	22039	The UN still recognizes Lisbon as the administrator of the territory.	The UN still recognizes Lisbon as the administrator of the terrirory.	1054266	1471961462550	1471961462615	y	89
2147	22039	The UN still recognizes Lisbon as the administrator of the territory.	The UN still recognizes Lisbon as the administrator of the terrirory.	1054346	1471961463371	1471961463452	.	190
2147	22107	We'll tell you who has the edge.	We'll tell you who has the edge.	1055169	1471961470318	1471961470536	SHIFT	16
2147	22107	We'll tell you who has the edge.	We'll tell you who has the edge.	1055163	1471961470443	1471961470520	W	87
2147	22107	We'll tell you who has the edge.	We'll tell you who has the edge.	1055174	1471961470848	1471961470921	e	69
2147	22107	We'll tell you who has the edge.	We'll tell you who has the edge.	1055177	1471961471950	1471961471993	'	192
2147	22107	We'll tell you who has the edge.	We'll tell you who has the edge.	1055181	1471961472964	1471961473025	l	76
2147	22107	We'll tell you who has the edge.	We'll tell you who has the edge.	1055188	1471961473072	1471961473159	l	76
2147	22107	We'll tell you who has the edge.	We'll tell you who has the edge.	1055297	1471961473382	1471961473429	 	32
2147	22107	We'll tell you who has the edge.	We'll tell you who has the edge.	1055301	1471961473804	1471961473894	r	82
2147	22107	We'll tell you who has the edge.	We'll tell you who has the edge.	1055305	1471961474144	1471961474212	BKSP	8
2147	22107	We'll tell you who has the edge.	We'll tell you who has the edge.	1055308	1471961474306	1471961474423	t	84
2147	22107	We'll tell you who has the edge.	We'll tell you who has the edge.	1055310	1471961474396	1471961474480	e	69
2147	22107	We'll tell you who has the edge.	We'll tell you who has the edge.	1055314	1471961474621	1471961474697	l	76
2147	22107	We'll tell you who has the edge.	We'll tell you who has the edge.	1055550	1471961474743	1471961474814	l	76
2147	22107	We'll tell you who has the edge.	We'll tell you who has the edge.	1055555	1471961474987	1471961475048	 	32
2147	22107	We'll tell you who has the edge.	We'll tell you who has the edge.	1055560	1471961475740	1471961475832	y	89
2147	22107	We'll tell you who has the edge.	We'll tell you who has the edge.	1055565	1471961475973	1471961476068	u	85
2147	22107	We'll tell you who has the edge.	We'll tell you who has the edge.	1055570	1471961476743	1471961476819	BKSP	8
2147	22107	We'll tell you who has the edge.	We'll tell you who has the edge.	1055575	1471961477023	1471961477170	o	79
2147	22107	We'll tell you who has the edge.	We'll tell you who has the edge.	1055662	1471961477135	1471961477197	u	85
2147	22107	We'll tell you who has the edge.	We'll tell you who has the edge.	1055665	1471961477400	1471961477471	 	32
2147	22107	We'll tell you who has the edge.	We'll tell you who has the edge.	1055669	1471961477877	1471961477924	w	87
2147	22107	We'll tell you who has the edge.	We'll tell you who has the edge.	1055671	1471961477970	1471961478093	h	72
2147	22107	We'll tell you who has the edge.	We'll tell you who has the edge.	1055675	1471961478055	1471961478156	o	79
2147	22107	We'll tell you who has the edge.	We'll tell you who has the edge.	1055679	1471961478453	1471961478540	 	32
2147	22107	We'll tell you who has the edge.	We'll tell you who has the edge.	1055834	1471961479123	1471961479208	h	72
2147	22107	We'll tell you who has the edge.	We'll tell you who has the edge.	1055839	1471961479224	1471961479310	a	65
2147	22107	We'll tell you who has the edge.	We'll tell you who has the edge.	1055844	1471961479513	1471961479561	s	83
2147	22107	We'll tell you who has the edge.	We'll tell you who has the edge.	1055858	1471961479956	1471961480043	 	32
2147	22107	We'll tell you who has the edge.	We'll tell you who has the edge.	1055871	1471961480262	1471961480360	t	84
2147	22107	We'll tell you who has the edge.	We'll tell you who has the edge.	1055967	1471961480376	1471961480446	h	72
2147	22107	We'll tell you who has the edge.	We'll tell you who has the edge.	1055971	1471961480493	1471961480548	e	69
2147	22107	We'll tell you who has the edge.	We'll tell you who has the edge.	1055978	1471961480580	1471961480646	 	32
2147	22107	We'll tell you who has the edge.	We'll tell you who has the edge.	1055984	1471961481276	1471961481349	e	69
2147	22107	We'll tell you who has the edge.	We'll tell you who has the edge.	1055992	1471961481490	1471961481565	d	68
2147	22107	We'll tell you who has the edge.	We'll tell you who has the edge.	1056116	1471961482059	1471961482118	g	71
2147	22107	We'll tell you who has the edge.	We'll tell you who has the edge.	1056118	1471961482227	1471961482269	e	69
2147	22107	We'll tell you who has the edge.	We'll tell you who has the edge.	1056119	1471961482976	1471961483052	.	190
2147	22146	There's been a shortage of blood in this area.	There's been a shortage of blood in this area.	1056707	1471961488674	1471961488851	SHIFT	16
2147	22146	There's been a shortage of blood in this area.	There's been a shortage of blood in this area.	1056715	1471961488783	1471961488851	T	84
2147	22146	There's been a shortage of blood in this area.	There's been a shortage of blood in this area.	1056725	1471961488945	1471961489033	h	72
2147	22146	There's been a shortage of blood in this area.	There's been a shortage of blood in this area.	1056731	1471961489158	1471961489266	e	69
2147	22146	There's been a shortage of blood in this area.	There's been a shortage of blood in this area.	1056737	1471961489282	1471961489369	r	82
2147	22146	There's been a shortage of blood in this area.	There's been a shortage of blood in this area.	1056743	1471961490105	1471961490188	e	69
2147	22146	There's been a shortage of blood in this area.	There's been a shortage of blood in this area.	1056985	1471961490568	1471961490624	;	186
2147	22146	There's been a shortage of blood in this area.	There's been a shortage of blood in this area.	1056991	1471961490890	1471961490941	s	83
2147	22146	There's been a shortage of blood in this area.	There's been a shortage of blood in this area.	1056994	1471961491168	1471961491225	 	32
2147	22146	There's been a shortage of blood in this area.	There's been a shortage of blood in this area.	1057003	1471961491553	1471961491611	BKSP	8
2147	22146	There's been a shortage of blood in this area.	There's been a shortage of blood in this area.	1057011	1471961491673	1471961491727	BKSP	8
2147	22146	There's been a shortage of blood in this area.	There's been a shortage of blood in this area.	1057022	1471961491820	1471961491877	BKSP	8
2147	22146	There's been a shortage of blood in this area.	There's been a shortage of blood in this area.	1057033	1471961492330	1471961492426	'	192
2147	22146	There's been a shortage of blood in this area.	There's been a shortage of blood in this area.	1057044	1471961492426	1471961492494	s	83
2147	22146	There's been a shortage of blood in this area.	There's been a shortage of blood in this area.	1057158	1471961492715	1471961492780	 	32
2147	22146	There's been a shortage of blood in this area.	There's been a shortage of blood in this area.	1057167	1471961493344	1471961493397	b	66
2147	22146	There's been a shortage of blood in this area.	There's been a shortage of blood in this area.	1057174	1471961493522	1471961493582	e	69
2147	22146	There's been a shortage of blood in this area.	There's been a shortage of blood in this area.	1057182	1471961493660	1471961493699	e	69
2147	22146	There's been a shortage of blood in this area.	There's been a shortage of blood in this area.	1057189	1471961493777	1471961493847	n	78
2147	22146	There's been a shortage of blood in this area.	There's been a shortage of blood in this area.	1057323	1471961494091	1471961494149	 	32
2147	22146	There's been a shortage of blood in this area.	There's been a shortage of blood in this area.	1057326	1471961494364	1471961494448	a	65
2147	22146	There's been a shortage of blood in this area.	There's been a shortage of blood in this area.	1057330	1471961494526	1471961494585	 	32
2147	22146	There's been a shortage of blood in this area.	There's been a shortage of blood in this area.	1057337	1471961495306	1471961495370	s	83
2147	22146	There's been a shortage of blood in this area.	There's been a shortage of blood in this area.	1057343	1471961495416	1471961495548	h	72
2147	22146	There's been a shortage of blood in this area.	There's been a shortage of blood in this area.	1057487	1471961495865	1471961495968	o	79
2147	22146	There's been a shortage of blood in this area.	There's been a shortage of blood in this area.	1057494	1471961496062	1471961496152	r	82
2147	22146	There's been a shortage of blood in this area.	There's been a shortage of blood in this area.	1057500	1471961496673	1471961496739	t	84
2147	22146	There's been a shortage of blood in this area.	There's been a shortage of blood in this area.	1057505	1471961496911	1471961497005	a	65
2147	22146	There's been a shortage of blood in this area.	There's been a shortage of blood in this area.	1057512	1471961497146	1471961497239	h	72
2147	22146	There's been a shortage of blood in this area.	There's been a shortage of blood in this area.	1057686	1471961497719	1471961497775	BKSP	8
2147	22146	There's been a shortage of blood in this area.	There's been a shortage of blood in this area.	1057693	1471961498119	1471961498192	g	71
2147	22146	There's been a shortage of blood in this area.	There's been a shortage of blood in this area.	1057701	1471961498244	1471961498294	e	69
2147	22146	There's been a shortage of blood in this area.	There's been a shortage of blood in this area.	1057706	1471961498404	1471961498461	 	32
2147	22146	There's been a shortage of blood in this area.	There's been a shortage of blood in this area.	1057713	1471961499028	1471961499096	o	79
2147	22146	There's been a shortage of blood in this area.	There's been a shortage of blood in this area.	1057719	1471961499534	1471961499597	f	70
2147	22146	There's been a shortage of blood in this area.	There's been a shortage of blood in this area.	1057969	1471961499629	1471961499713	 	32
2147	22146	There's been a shortage of blood in this area.	There's been a shortage of blood in this area.	1057974	1471961500876	1471961500934	b	66
2147	22146	There's been a shortage of blood in this area.	There's been a shortage of blood in this area.	1057978	1471961501453	1471961501534	o	79
2147	22146	There's been a shortage of blood in this area.	There's been a shortage of blood in this area.	1057981	1471961501815	1471961501861	l	76
2147	22146	There's been a shortage of blood in this area.	There's been a shortage of blood in this area.	1057983	1471961501986	1471961502068	BKSP	8
2147	22146	There's been a shortage of blood in this area.	There's been a shortage of blood in this area.	1057985	1471961502209	1471961502285	l	76
2147	22146	There's been a shortage of blood in this area.	There's been a shortage of blood in this area.	1058138	1471961502436	1471961502488	o	79
2147	22146	There's been a shortage of blood in this area.	There's been a shortage of blood in this area.	1058148	1471961502566	1471961502622	o	79
2147	22146	There's been a shortage of blood in this area.	There's been a shortage of blood in this area.	1058154	1471961502989	1471961503055	BKSP	8
2147	22146	There's been a shortage of blood in this area.	There's been a shortage of blood in this area.	1058161	1471961503133	1471961503190	BKSP	8
2147	22146	There's been a shortage of blood in this area.	There's been a shortage of blood in this area.	1058169	1471961503252	1471961503323	BKSP	8
2147	22146	There's been a shortage of blood in this area.	There's been a shortage of blood in this area.	1058176	1471961503448	1471961503522	BKSP	8
2147	22146	There's been a shortage of blood in this area.	There's been a shortage of blood in this area.	1058185	1471961503631	1471961503706	l	76
2147	22146	There's been a shortage of blood in this area.	There's been a shortage of blood in this area.	1058191	1471961503784	1471961503841	o	79
2147	22146	There's been a shortage of blood in this area.	There's been a shortage of blood in this area.	1058199	1471961503919	1471961503959	o	79
2147	22146	There's been a shortage of blood in this area.	There's been a shortage of blood in this area.	1058382	1471961504622	1471961504677	d	68
2147	22146	There's been a shortage of blood in this area.	There's been a shortage of blood in this area.	1058387	1471961504739	1471961504811	 	32
2147	22146	There's been a shortage of blood in this area.	There's been a shortage of blood in this area.	1058396	1471961505439	1471961505480	n	78
2147	22146	There's been a shortage of blood in this area.	There's been a shortage of blood in this area.	1058407	1471961505839	1471961505928	BKSP	8
2147	22146	There's been a shortage of blood in this area.	There's been a shortage of blood in this area.	1058417	1471961506084	1471961506208	i	73
2147	22146	There's been a shortage of blood in this area.	There's been a shortage of blood in this area.	1058504	1471961506131	1471961506235	n	78
2147	22146	There's been a shortage of blood in this area.	There's been a shortage of blood in this area.	1058508	1471961506625	1471961506713	 	32
2147	22146	There's been a shortage of blood in this area.	There's been a shortage of blood in this area.	1058517	1471961506822	1471961506898	t	84
2147	22146	There's been a shortage of blood in this area.	There's been a shortage of blood in this area.	1058527	1471961506914	1471961506966	h	72
2147	22146	There's been a shortage of blood in this area.	There's been a shortage of blood in this area.	1058537	1471961507138	1471961507263	i	73
2147	22146	There's been a shortage of blood in this area.	There's been a shortage of blood in this area.	1058548	1471961507309	1471961507367	s	83
2147	22146	There's been a shortage of blood in this area.	There's been a shortage of blood in this area.	1058665	1471961507412	1471961507483	 	32
2147	22146	There's been a shortage of blood in this area.	There's been a shortage of blood in this area.	1058669	1471961508175	1471961508252	a	65
2147	22146	There's been a shortage of blood in this area.	There's been a shortage of blood in this area.	1058675	1471961508392	1471961508469	r	82
2147	22146	There's been a shortage of blood in this area.	There's been a shortage of blood in this area.	1058680	1471961508469	1471961508567	e	69
2147	22146	There's been a shortage of blood in this area.	There's been a shortage of blood in this area.	1058687	1471961508702	1471961508785	a	65
2147	22146	There's been a shortage of blood in this area.	There's been a shortage of blood in this area.	1058801	1471961509191	1471961509254	,	188
2147	22146	There's been a shortage of blood in this area.	There's been a shortage of blood in this area.	1058807	1471961509582	1471961509671	BKSP	8
2147	22146	There's been a shortage of blood in this area.	There's been a shortage of blood in this area.	1058812	1471961509812	1471961509904	.	190
2147	22208	I will call in 20 to 30 minutes.	I will call in 20 to 30 minutes.	1059313	1471961514210	1471961514985	SHIFT	16
2147	22208	I will call in 20 to 30 minutes.	I will call in 20 to 30 minutes.	1059318	1471961514935	1471961515035	I	73
2147	22208	I will call in 20 to 30 minutes.	I will call in 20 to 30 minutes.	1059323	1471961515269	1471961515336	 	32
2147	22208	I will call in 20 to 30 minutes.	I will call in 20 to 30 minutes.	1059329	1471961515492	1471961515541	w	87
2147	22208	I will call in 20 to 30 minutes.	I will call in 20 to 30 minutes.	1059340	1471961515604	1471961515672	i	73
2147	22208	I will call in 20 to 30 minutes.	I will call in 20 to 30 minutes.	1059346	1471961515797	1471961515871	l	76
2147	22208	I will call in 20 to 30 minutes.	I will call in 20 to 30 minutes.	1059454	1471961515913	1471961516005	l	76
2147	22208	I will call in 20 to 30 minutes.	I will call in 20 to 30 minutes.	1059461	1471961516161	1471961516224	 	32
2147	22208	I will call in 20 to 30 minutes.	I will call in 20 to 30 minutes.	1059466	1471961516520	1471961516659	c	67
2147	22208	I will call in 20 to 30 minutes.	I will call in 20 to 30 minutes.	1059475	1471961516606	1471961516690	a	65
2147	22208	I will call in 20 to 30 minutes.	I will call in 20 to 30 minutes.	1059485	1471961517003	1471961517090	l	76
2147	22208	I will call in 20 to 30 minutes.	I will call in 20 to 30 minutes.	1059616	1471961517280	1471961517389	l	76
2147	22208	I will call in 20 to 30 minutes.	I will call in 20 to 30 minutes.	1059621	1471961517546	1471961517617	 	32
2147	22208	I will call in 20 to 30 minutes.	I will call in 20 to 30 minutes.	1059626	1471961517930	1471961518046	i	73
2147	22208	I will call in 20 to 30 minutes.	I will call in 20 to 30 minutes.	1059630	1471961517979	1471961518093	n	78
2147	22208	I will call in 20 to 30 minutes.	I will call in 20 to 30 minutes.	1059633	1471961518452	1471961518512	 	32
2147	22208	I will call in 20 to 30 minutes.	I will call in 20 to 30 minutes.	1059806	1471961518867	1471961518917	2	98
2147	22208	I will call in 20 to 30 minutes.	I will call in 20 to 30 minutes.	1059811	1471961519020	1471961519098	0	96
2147	22208	I will call in 20 to 30 minutes.	I will call in 20 to 30 minutes.	1059814	1471961519772	1471961519848	 	32
2147	22208	I will call in 20 to 30 minutes.	I will call in 20 to 30 minutes.	1059815	1471961520020	1471961520083	t	84
2147	22208	I will call in 20 to 30 minutes.	I will call in 20 to 30 minutes.	1059817	1471961520129	1471961520215	o	79
2147	22208	I will call in 20 to 30 minutes.	I will call in 20 to 30 minutes.	1059973	1471961520813	1471961520936	3	99
2147	22208	I will call in 20 to 30 minutes.	I will call in 20 to 30 minutes.	1059981	1471961520900	1471961520983	0	96
2147	22208	I will call in 20 to 30 minutes.	I will call in 20 to 30 minutes.	1059987	1471961521421	1471961521503	 	32
2147	22208	I will call in 20 to 30 minutes.	I will call in 20 to 30 minutes.	1059992	1471961521848	1471961521968	m	77
2147	22208	I will call in 20 to 30 minutes.	I will call in 20 to 30 minutes.	1059996	1471961522124	1471961522235	i	73
2147	22208	I will call in 20 to 30 minutes.	I will call in 20 to 30 minutes.	1060213	1471961522304	1471961522388	n	78
2147	22208	I will call in 20 to 30 minutes.	I will call in 20 to 30 minutes.	1060218	1471961522859	1471961522924	BKSP	8
2147	22208	I will call in 20 to 30 minutes.	I will call in 20 to 30 minutes.	1060225	1471961523017	1471961523075	BKSP	8
2147	22208	I will call in 20 to 30 minutes.	I will call in 20 to 30 minutes.	1060229	1471961523137	1471961523210	BKSP	8
2147	22208	I will call in 20 to 30 minutes.	I will call in 20 to 30 minutes.	1060237	1471961523272	1471961523342	BKSP	8
2147	22208	I will call in 20 to 30 minutes.	I will call in 20 to 30 minutes.	1060243	1471961523406	1471961523475	BKSP	8
2147	22208	I will call in 20 to 30 minutes.	I will call in 20 to 30 minutes.	1060253	1471961523553	1471961523626	BKSP	8
2147	22208	I will call in 20 to 30 minutes.	I will call in 20 to 30 minutes.	1060263	1471961523970	1471961524012	 	32
2147	22208	I will call in 20 to 30 minutes.	I will call in 20 to 30 minutes.	1060270	1471961524579	1471961524695	3	99
2147	22208	I will call in 20 to 30 minutes.	I will call in 20 to 30 minutes.	1060276	1471961524646	1471961524758	0	96
2147	22208	I will call in 20 to 30 minutes.	I will call in 20 to 30 minutes.	1060281	1471961524992	1471961525047	 	32
2147	22208	I will call in 20 to 30 minutes.	I will call in 20 to 30 minutes.	1060484	1471961525614	1471961525734	m	77
2147	22208	I will call in 20 to 30 minutes.	I will call in 20 to 30 minutes.	1060486	1471961525697	1471961525812	i	73
2147	22208	I will call in 20 to 30 minutes.	I will call in 20 to 30 minutes.	1060492	1471961525984	1471961526064	n	78
2147	22208	I will call in 20 to 30 minutes.	I will call in 20 to 30 minutes.	1060496	1471961526927	1471961527002	u	85
2147	22208	I will call in 20 to 30 minutes.	I will call in 20 to 30 minutes.	1060504	1471961527111	1471961527200	t	84
2147	22208	I will call in 20 to 30 minutes.	I will call in 20 to 30 minutes.	1060615	1471961527260	1471961527350	e	69
2147	22208	I will call in 20 to 30 minutes.	I will call in 20 to 30 minutes.	1060616	1471961527521	1471961527554	s	83
2147	22208	I will call in 20 to 30 minutes.	I will call in 20 to 30 minutes.	1060617	1471961528107	1471961528202	.	190
2147	22245	Please make sure Bob Kelley is on the list.	Please make sure Bob Kelley is on the list.	1061581	1471961537501	1471961537696	SHIFT	16
2147	22245	Please make sure Bob Kelley is on the list.	Please make sure Bob Kelley is on the list.	1061587	1471961537628	1471961537712	P	80
2147	22245	Please make sure Bob Kelley is on the list.	Please make sure Bob Kelley is on the list.	1061593	1471961537821	1471961537911	l	76
2147	22245	Please make sure Bob Kelley is on the list.	Please make sure Bob Kelley is on the list.	1061599	1471961538146	1471961538298	e	69
2147	22245	Please make sure Bob Kelley is on the list.	Please make sure Bob Kelley is on the list.	1061603	1471961538246	1471961538361	a	65
2147	22245	Please make sure Bob Kelley is on the list.	Please make sure Bob Kelley is on the list.	1061612	1471961538548	1471961538600	s	83
2147	22245	Please make sure Bob Kelley is on the list.	Please make sure Bob Kelley is on the list.	1061721	1471961538732	1471961538767	e	69
2147	22245	Please make sure Bob Kelley is on the list.	Please make sure Bob Kelley is on the list.	1061729	1471961538877	1471961538934	 	32
2147	22245	Please make sure Bob Kelley is on the list.	Please make sure Bob Kelley is on the list.	1061739	1471961539326	1471961539384	m	77
2147	22245	Please make sure Bob Kelley is on the list.	Please make sure Bob Kelley is on the list.	1061749	1471961539415	1471961539468	a	65
2147	22245	Please make sure Bob Kelley is on the list.	Please make sure Bob Kelley is on the list.	1061754	1471961539639	1471961539717	k	75
2147	22245	Please make sure Bob Kelley is on the list.	Please make sure Bob Kelley is on the list.	1061948	1471961539904	1471961539968	e	69
2147	22245	Please make sure Bob Kelley is on the list.	Please make sure Bob Kelley is on the list.	1061957	1471961540046	1471961540118	 	32
2147	22245	Please make sure Bob Kelley is on the list.	Please make sure Bob Kelley is on the list.	1061966	1471961541219	1471961541303	s	83
2147	22245	Please make sure Bob Kelley is on the list.	Please make sure Bob Kelley is on the list.	1061971	1471961541350	1471961541406	u	85
2147	22245	Please make sure Bob Kelley is on the list.	Please make sure Bob Kelley is on the list.	1061976	1471961541672	1471961541804	r	82
2147	22245	Please make sure Bob Kelley is on the list.	Please make sure Bob Kelley is on the list.	1062248	1471961541757	1471961541878	e	69
2147	22245	Please make sure Bob Kelley is on the list.	Please make sure Bob Kelley is on the list.	1062255	1471961541956	1471961542039	 	32
2147	22245	Please make sure Bob Kelley is on the list.	Please make sure Bob Kelley is on the list.	1062272	1471961543265	1471961543573	SHIFT	16
2147	22245	Please make sure Bob Kelley is on the list.	Please make sure Bob Kelley is on the list.	1062266	1471961543437	1471961543495	B	66
2147	22245	Please make sure Bob Kelley is on the list.	Please make sure Bob Kelley is on the list.	1062280	1471961543589	1471961543676	o	79
2147	22245	Please make sure Bob Kelley is on the list.	Please make sure Bob Kelley is on the list.	1062284	1471961543864	1471961543929	b	66
2147	22245	Please make sure Bob Kelley is on the list.	Please make sure Bob Kelley is on the list.	1062290	1471961544164	1471961544229	 	32
2147	22245	Please make sure Bob Kelley is on the list.	Please make sure Bob Kelley is on the list.	1062531	1471961544765	1471961545198	SHIFT	16
2147	22245	Please make sure Bob Kelley is on the list.	Please make sure Bob Kelley is on the list.	1062537	1471961545156	1471961545231	K	75
2147	22245	Please make sure Bob Kelley is on the list.	Please make sure Bob Kelley is on the list.	1062543	1471961545403	1471961545466	e	69
2147	22245	Please make sure Bob Kelley is on the list.	Please make sure Bob Kelley is on the list.	1062546	1471961545607	1471961545666	l	76
2147	22245	Please make sure Bob Kelley is on the list.	Please make sure Bob Kelley is on the list.	1062548	1471961545713	1471961545800	l	76
2147	22245	Please make sure Bob Kelley is on the list.	Please make sure Bob Kelley is on the list.	1062553	1471961546788	1471961546869	e	69
2147	22245	Please make sure Bob Kelley is on the list.	Please make sure Bob Kelley is on the list.	1062674	1471961547188	1471961547271	y	89
2147	22245	Please make sure Bob Kelley is on the list.	Please make sure Bob Kelley is on the list.	1062680	1471961547552	1471961547621	 	32
2147	22245	Please make sure Bob Kelley is on the list.	Please make sure Bob Kelley is on the list.	1062684	1471961548043	1471961548107	i	73
2147	22245	Please make sure Bob Kelley is on the list.	Please make sure Bob Kelley is on the list.	1062695	1471961548232	1471961548290	s	83
2147	22245	Please make sure Bob Kelley is on the list.	Please make sure Bob Kelley is on the list.	1062704	1471961548337	1471961548407	 	32
2147	22245	Please make sure Bob Kelley is on the list.	Please make sure Bob Kelley is on the list.	1062760	1471961548607	1471961548734	o	79
2147	22245	Please make sure Bob Kelley is on the list.	Please make sure Bob Kelley is on the list.	1062764	1471961548706	1471961548760	n	78
2147	22245	Please make sure Bob Kelley is on the list.	Please make sure Bob Kelley is on the list.	1062772	1471961548943	1471961549024	 	32
2147	22245	Please make sure Bob Kelley is on the list.	Please make sure Bob Kelley is on the list.	1062781	1471961549197	1471961549275	t	84
2147	22245	Please make sure Bob Kelley is on the list.	Please make sure Bob Kelley is on the list.	1062790	1471961549291	1471961549359	h	72
2147	22245	Please make sure Bob Kelley is on the list.	Please make sure Bob Kelley is on the list.	1062898	1471961549391	1471961549475	e	69
2147	22245	Please make sure Bob Kelley is on the list.	Please make sure Bob Kelley is on the list.	1062901	1471961549491	1471961549561	 	32
2147	22245	Please make sure Bob Kelley is on the list.	Please make sure Bob Kelley is on the list.	1062905	1471961550110	1471961550178	l	76
2147	22245	Please make sure Bob Kelley is on the list.	Please make sure Bob Kelley is on the list.	1062910	1471961550287	1471961550361	i	73
2147	22245	Please make sure Bob Kelley is on the list.	Please make sure Bob Kelley is on the list.	1062913	1471961550596	1471961550647	s	83
2147	22245	Please make sure Bob Kelley is on the list.	Please make sure Bob Kelley is on the list.	1063033	1471961551495	1471961551548	t	84
2147	22245	Please make sure Bob Kelley is on the list.	Please make sure Bob Kelley is on the list.	1063036	1471961551970	1471961552081	.	190
2147	22297	I was a bit rusty but I didn't want to miss the elections back home.	I was a bit rusty but I didn't want to miss the elections back home.	1064019	1471961561932	1471961562110	SHIFT	16
2147	22297	I was a bit rusty but I didn't want to miss the elections back home.	I was a bit rusty but I didn't want to miss the elections back home.	1064023	1471961562073	1471961562174	I	73
2147	22297	I was a bit rusty but I didn't want to miss the elections back home.	I was a bit rusty but I didn't want to miss the elections back home.	1064029	1471961562283	1471961562376	 	32
2147	22297	I was a bit rusty but I didn't want to miss the elections back home.	I was a bit rusty but I didn't want to miss the elections back home.	1064039	1471961562423	1471961562593	w	87
2147	22297	I was a bit rusty but I didn't want to miss the elections back home.	I was a bit rusty but I didn't want to miss the elections back home.	1064046	1471961562524	1471961562657	a	65
2147	22297	I was a bit rusty but I didn't want to miss the elections back home.	I was a bit rusty but I didn't want to miss the elections back home.	1064052	1471961562846	1471961562912	d	68
2147	22297	I was a bit rusty but I didn't want to miss the elections back home.	I was a bit rusty but I didn't want to miss the elections back home.	1064167	1471961563330	1471961563427	BKSP	8
2147	22297	I was a bit rusty but I didn't want to miss the elections back home.	I was a bit rusty but I didn't want to miss the elections back home.	1064173	1471961563521	1471961563596	s	83
2147	22297	I was a bit rusty but I didn't want to miss the elections back home.	I was a bit rusty but I didn't want to miss the elections back home.	1064179	1471961563643	1471961563714	 	32
2147	22297	I was a bit rusty but I didn't want to miss the elections back home.	I was a bit rusty but I didn't want to miss the elections back home.	1064182	1471961563901	1471961563996	a	65
2147	22297	I was a bit rusty but I didn't want to miss the elections back home.	I was a bit rusty but I didn't want to miss the elections back home.	1064186	1471961564152	1471961564231	 	32
2147	22297	I was a bit rusty but I didn't want to miss the elections back home.	I was a bit rusty but I didn't want to miss the elections back home.	1064191	1471961564434	1471961564566	b	66
2147	22297	I was a bit rusty but I didn't want to miss the elections back home.	I was a bit rusty but I didn't want to miss the elections back home.	1064323	1471961564546	1471961564647	i	73
2147	22297	I was a bit rusty but I didn't want to miss the elections back home.	I was a bit rusty but I didn't want to miss the elections back home.	1064328	1471961564819	1471961564884	t	84
2147	22297	I was a bit rusty but I didn't want to miss the elections back home.	I was a bit rusty but I didn't want to miss the elections back home.	1064335	1471961564931	1471961565000	 	32
2147	22297	I was a bit rusty but I didn't want to miss the elections back home.	I was a bit rusty but I didn't want to miss the elections back home.	1064341	1471961565706	1471961565784	r	82
2147	22297	I was a bit rusty but I didn't want to miss the elections back home.	I was a bit rusty but I didn't want to miss the elections back home.	1064347	1471961565894	1471961565952	u	85
2147	22297	I was a bit rusty but I didn't want to miss the elections back home.	I was a bit rusty but I didn't want to miss the elections back home.	1064351	1471961566108	1471961566186	s	83
2147	22297	I was a bit rusty but I didn't want to miss the elections back home.	I was a bit rusty but I didn't want to miss the elections back home.	1064549	1471961566387	1471961566438	t	84
2147	22297	I was a bit rusty but I didn't want to miss the elections back home.	I was a bit rusty but I didn't want to miss the elections back home.	1064554	1471961566907	1471961566973	y	89
2147	22297	I was a bit rusty but I didn't want to miss the elections back home.	I was a bit rusty but I didn't want to miss the elections back home.	1064559	1471961567789	1471961567858	 	32
2147	22297	I was a bit rusty but I didn't want to miss the elections back home.	I was a bit rusty but I didn't want to miss the elections back home.	1064563	1471961568534	1471961568640	b	66
2147	22297	I was a bit rusty but I didn't want to miss the elections back home.	I was a bit rusty but I didn't want to miss the elections back home.	1064567	1471961568750	1471961568858	u	85
2147	22297	I was a bit rusty but I didn't want to miss the elections back home.	I was a bit rusty but I didn't want to miss the elections back home.	1064697	1471961569124	1471961569178	t	84
2147	22297	I was a bit rusty but I didn't want to miss the elections back home.	I was a bit rusty but I didn't want to miss the elections back home.	1064700	1471961569225	1471961569310	 	32
2147	22297	I was a bit rusty but I didn't want to miss the elections back home.	I was a bit rusty but I didn't want to miss the elections back home.	1064702	1471961569732	1471961570049	SHIFT	16
2147	22297	I was a bit rusty but I didn't want to miss the elections back home.	I was a bit rusty but I didn't want to miss the elections back home.	1064703	1471961570001	1471961570096	I	73
2147	22297	I was a bit rusty but I didn't want to miss the elections back home.	I was a bit rusty but I didn't want to miss the elections back home.	1064704	1471961570284	1471961570378	 	32
2147	22297	I was a bit rusty but I didn't want to miss the elections back home.	I was a bit rusty but I didn't want to miss the elections back home.	1064705	1471961570992	1471961571050	d	68
2147	22297	I was a bit rusty but I didn't want to miss the elections back home.	I was a bit rusty but I didn't want to miss the elections back home.	1064835	1471961571121	1471961571184	i	73
2147	22297	I was a bit rusty but I didn't want to miss the elections back home.	I was a bit rusty but I didn't want to miss the elections back home.	1064841	1471961571246	1471961571301	d	68
2147	22297	I was a bit rusty but I didn't want to miss the elections back home.	I was a bit rusty but I didn't want to miss the elections back home.	1064849	1471961572069	1471961572151	n	78
2147	22297	I was a bit rusty but I didn't want to miss the elections back home.	I was a bit rusty but I didn't want to miss the elections back home.	1064854	1471961572686	1471961572769	'	192
2147	22297	I was a bit rusty but I didn't want to miss the elections back home.	I was a bit rusty but I didn't want to miss the elections back home.	1064862	1471961573050	1471961573137	t	84
2147	22297	I was a bit rusty but I didn't want to miss the elections back home.	I was a bit rusty but I didn't want to miss the elections back home.	1064937	1471961573198	1471961573257	 	32
2147	22297	I was a bit rusty but I didn't want to miss the elections back home.	I was a bit rusty but I didn't want to miss the elections back home.	1064942	1471961573715	1471961573859	w	87
2147	22297	I was a bit rusty but I didn't want to miss the elections back home.	I was a bit rusty but I didn't want to miss the elections back home.	1064947	1471961573821	1471961573937	a	65
2147	22297	I was a bit rusty but I didn't want to miss the elections back home.	I was a bit rusty but I didn't want to miss the elections back home.	1064951	1471961574203	1471961574275	n	78
2147	22297	I was a bit rusty but I didn't want to miss the elections back home.	I was a bit rusty but I didn't want to miss the elections back home.	1064956	1471961574306	1471961574375	t	84
2147	22297	I was a bit rusty but I didn't want to miss the elections back home.	I was a bit rusty but I didn't want to miss the elections back home.	1065090	1471961574395	1471961574473	 	32
2147	22297	I was a bit rusty but I didn't want to miss the elections back home.	I was a bit rusty but I didn't want to miss the elections back home.	1065094	1471961575196	1471961575261	t	84
2147	22297	I was a bit rusty but I didn't want to miss the elections back home.	I was a bit rusty but I didn't want to miss the elections back home.	1065099	1471961575620	1471961575694	o	79
2147	22297	I was a bit rusty but I didn't want to miss the elections back home.	I was a bit rusty but I didn't want to miss the elections back home.	1065103	1471961575819	1471961575879	 	32
2147	22297	I was a bit rusty but I didn't want to miss the elections back home.	I was a bit rusty but I didn't want to miss the elections back home.	1065108	1471961576145	1471961576278	m	77
2147	22297	I was a bit rusty but I didn't want to miss the elections back home.	I was a bit rusty but I didn't want to miss the elections back home.	1065194	1471961576250	1471961576337	i	73
2147	22297	I was a bit rusty but I didn't want to miss the elections back home.	I was a bit rusty but I didn't want to miss the elections back home.	1065202	1471961576446	1471961576498	s	83
2147	22297	I was a bit rusty but I didn't want to miss the elections back home.	I was a bit rusty but I didn't want to miss the elections back home.	1065206	1471961576591	1471961576664	s	83
2147	22297	I was a bit rusty but I didn't want to miss the elections back home.	I was a bit rusty but I didn't want to miss the elections back home.	1065210	1471961576742	1471961576798	 	32
2147	22297	I was a bit rusty but I didn't want to miss the elections back home.	I was a bit rusty but I didn't want to miss the elections back home.	1065212	1471961577111	1471961577181	t	84
2147	22297	I was a bit rusty but I didn't want to miss the elections back home.	I was a bit rusty but I didn't want to miss the elections back home.	1065213	1471961577213	1471961577274	h	72
2147	22297	I was a bit rusty but I didn't want to miss the elections back home.	I was a bit rusty but I didn't want to miss the elections back home.	1065318	1471961577315	1471961577413	e	69
2147	22297	I was a bit rusty but I didn't want to miss the elections back home.	I was a bit rusty but I didn't want to miss the elections back home.	1065321	1471961577460	1471961577534	 	32
2147	22297	I was a bit rusty but I didn't want to miss the elections back home.	I was a bit rusty but I didn't want to miss the elections back home.	1065326	1471961578255	1471961578319	e	69
2147	22297	I was a bit rusty but I didn't want to miss the elections back home.	I was a bit rusty but I didn't want to miss the elections back home.	1065331	1471961578397	1471961578469	l	76
2147	22297	I was a bit rusty but I didn't want to miss the elections back home.	I was a bit rusty but I didn't want to miss the elections back home.	1065334	1471961579034	1471961579087	e	69
2147	22297	I was a bit rusty but I didn't want to miss the elections back home.	I was a bit rusty but I didn't want to miss the elections back home.	1065411	1471961579229	1471961579304	c	67
2147	22297	I was a bit rusty but I didn't want to miss the elections back home.	I was a bit rusty but I didn't want to miss the elections back home.	1065414	1471961579979	1471961580041	t	84
2147	22297	I was a bit rusty but I didn't want to miss the elections back home.	I was a bit rusty but I didn't want to miss the elections back home.	1065418	1471961580119	1471961580242	i	73
2147	22297	I was a bit rusty but I didn't want to miss the elections back home.	I was a bit rusty but I didn't want to miss the elections back home.	1065422	1471961580191	1471961580273	o	79
2147	22297	I was a bit rusty but I didn't want to miss the elections back home.	I was a bit rusty but I didn't want to miss the elections back home.	1065426	1471961580570	1471961580641	n	78
2147	22297	I was a bit rusty but I didn't want to miss the elections back home.	I was a bit rusty but I didn't want to miss the elections back home.	1065575	1471961581006	1471961581076	s	83
2147	22297	I was a bit rusty but I didn't want to miss the elections back home.	I was a bit rusty but I didn't want to miss the elections back home.	1065579	1471961581148	1471961581225	 	32
2147	22297	I was a bit rusty but I didn't want to miss the elections back home.	I was a bit rusty but I didn't want to miss the elections back home.	1065582	1471961582058	1471961582144	b	66
2147	22297	I was a bit rusty but I didn't want to miss the elections back home.	I was a bit rusty but I didn't want to miss the elections back home.	1065587	1471961582222	1471961582295	a	65
2147	22297	I was a bit rusty but I didn't want to miss the elections back home.	I was a bit rusty but I didn't want to miss the elections back home.	1065594	1471961583065	1471961583132	c	67
2147	22297	I was a bit rusty but I didn't want to miss the elections back home.	I was a bit rusty but I didn't want to miss the elections back home.	1065702	1471961583202	1471961583264	k	75
2147	22297	I was a bit rusty but I didn't want to miss the elections back home.	I was a bit rusty but I didn't want to miss the elections back home.	1065704	1471961583404	1471961583448	 	32
2147	22297	I was a bit rusty but I didn't want to miss the elections back home.	I was a bit rusty but I didn't want to miss the elections back home.	1065709	1471961584345	1471961584417	h	72
2147	22297	I was a bit rusty but I didn't want to miss the elections back home.	I was a bit rusty but I didn't want to miss the elections back home.	1065713	1471961584495	1471961584698	o	79
2147	22297	I was a bit rusty but I didn't want to miss the elections back home.	I was a bit rusty but I didn't want to miss the elections back home.	1065778	1471961584567	1471961584734	m	77
2147	22297	I was a bit rusty but I didn't want to miss the elections back home.	I was a bit rusty but I didn't want to miss the elections back home.	1065780	1471961584812	1471961584869	e	69
2147	22297	I was a bit rusty but I didn't want to miss the elections back home.	I was a bit rusty but I didn't want to miss the elections back home.	1065783	1471961585153	1471961585252	.	190
2147	22357	It would be great if I could have the files by the 18th or 19th.	It would be great if I could have the files by the 18th or 19th.	1066940	1471961600821	1471961601012	SHIFT	16
2147	22357	It would be great if I could have the files by the 18th or 19th.	It would be great if I could have the files by the 18th or 19th.	1066943	1471961600962	1471961601074	I	73
2147	22357	It would be great if I could have the files by the 18th or 19th.	It would be great if I could have the files by the 18th or 19th.	1066949	1471961601168	1471961601229	t	84
2147	22357	It would be great if I could have the files by the 18th or 19th.	It would be great if I could have the files by the 18th or 19th.	1066954	1471961601276	1471961601360	 	32
2147	22357	It would be great if I could have the files by the 18th or 19th.	It would be great if I could have the files by the 18th or 19th.	1066958	1471961601959	1471961602030	w	87
2147	22357	It would be great if I could have the files by the 18th or 19th.	It would be great if I could have the files by the 18th or 19th.	1066962	1471961602108	1471961602249	o	79
2147	22357	It would be great if I could have the files by the 18th or 19th.	It would be great if I could have the files by the 18th or 19th.	1067067	1471961602211	1471961602305	u	85
2147	22357	It would be great if I could have the files by the 18th or 19th.	It would be great if I could have the files by the 18th or 19th.	1067070	1471961602785	1471961602896	l	76
2147	22357	It would be great if I could have the files by the 18th or 19th.	It would be great if I could have the files by the 18th or 19th.	1067075	1471961603208	1471961603253	d	68
2147	22357	It would be great if I could have the files by the 18th or 19th.	It would be great if I could have the files by the 18th or 19th.	1067080	1471961603346	1471961603417	 	32
2147	22357	It would be great if I could have the files by the 18th or 19th.	It would be great if I could have the files by the 18th or 19th.	1067083	1471961604154	1471961604236	b	66
2147	22357	It would be great if I could have the files by the 18th or 19th.	It would be great if I could have the files by the 18th or 19th.	1067084	1471961604470	1471961604520	e	69
2147	22357	It would be great if I could have the files by the 18th or 19th.	It would be great if I could have the files by the 18th or 19th.	1067126	1471961604583	1471961604653	 	32
2147	22357	It would be great if I could have the files by the 18th or 19th.	It would be great if I could have the files by the 18th or 19th.	1067129	1471961605283	1471961605340	g	71
2147	22357	It would be great if I could have the files by the 18th or 19th.	It would be great if I could have the files by the 18th or 19th.	1067131	1471961605465	1471961605614	r	82
2147	22357	It would be great if I could have the files by the 18th or 19th.	It would be great if I could have the files by the 18th or 19th.	1067134	1471961605601	1471961605750	e	69
2147	22357	It would be great if I could have the files by the 18th or 19th.	It would be great if I could have the files by the 18th or 19th.	1067136	1471961605782	1471961605903	a	65
2147	22357	It would be great if I could have the files by the 18th or 19th.	It would be great if I could have the files by the 18th or 19th.	1067203	1471961606021	1471961606090	t	84
2147	22357	It would be great if I could have the files by the 18th or 19th.	It would be great if I could have the files by the 18th or 19th.	1067205	1471961606185	1471961606273	 	32
2147	22357	It would be great if I could have the files by the 18th or 19th.	It would be great if I could have the files by the 18th or 19th.	1067209	1471961606710	1471961606777	i	73
2147	22357	It would be great if I could have the files by the 18th or 19th.	It would be great if I could have the files by the 18th or 19th.	1067211	1471961607230	1471961607295	f	70
2147	22357	It would be great if I could have the files by the 18th or 19th.	It would be great if I could have the files by the 18th or 19th.	1067217	1471961607342	1471961607411	 	32
2147	22357	It would be great if I could have the files by the 18th or 19th.	It would be great if I could have the files by the 18th or 19th.	1067425	1471961607618	1471961607678	t	84
2147	22357	It would be great if I could have the files by the 18th or 19th.	It would be great if I could have the files by the 18th or 19th.	1067429	1471961607914	1471961607995	BKSP	8
2147	22357	It would be great if I could have the files by the 18th or 19th.	It would be great if I could have the files by the 18th or 19th.	1067438	1471961608167	1471961608363	SHIFT	16
2147	22357	It would be great if I could have the files by the 18th or 19th.	It would be great if I could have the files by the 18th or 19th.	1067435	1471961608292	1471961608347	T	84
2147	22357	It would be great if I could have the files by the 18th or 19th.	It would be great if I could have the files by the 18th or 19th.	1067441	1471961609008	1471961609066	BKSP	8
2147	22357	It would be great if I could have the files by the 18th or 19th.	It would be great if I could have the files by the 18th or 19th.	1067443	1471961609269	1471961609634	SHIFT	16
2147	22357	It would be great if I could have the files by the 18th or 19th.	It would be great if I could have the files by the 18th or 19th.	1067448	1471961609575	1471961609650	I	73
2147	22357	It would be great if I could have the files by the 18th or 19th.	It would be great if I could have the files by the 18th or 19th.	1067452	1471961609837	1471961609918	 	32
2147	22357	It would be great if I could have the files by the 18th or 19th.	It would be great if I could have the files by the 18th or 19th.	1067457	1471961610734	1471961610787	c	67
2147	22357	It would be great if I could have the files by the 18th or 19th.	It would be great if I could have the files by the 18th or 19th.	1067485	1471961610868	1471961610999	o	79
2147	22357	It would be great if I could have the files by the 18th or 19th.	It would be great if I could have the files by the 18th or 19th.	1067487	1471961611218	1471961611303	u	85
2147	22357	It would be great if I could have the files by the 18th or 19th.	It would be great if I could have the files by the 18th or 19th.	1067491	1471961611521	1471961611620	l	76
2147	22357	It would be great if I could have the files by the 18th or 19th.	It would be great if I could have the files by the 18th or 19th.	1067499	1471961611635	1471961611721	d	68
2147	22357	It would be great if I could have the files by the 18th or 19th.	It would be great if I could have the files by the 18th or 19th.	1067506	1471961611737	1471961611852	 	32
2147	22357	It would be great if I could have the files by the 18th or 19th.	It would be great if I could have the files by the 18th or 19th.	1067575	1471961612544	1471961612607	h	72
2147	22357	It would be great if I could have the files by the 18th or 19th.	It would be great if I could have the files by the 18th or 19th.	1067577	1471961612638	1471961612723	a	65
2147	22357	It would be great if I could have the files by the 18th or 19th.	It would be great if I could have the files by the 18th or 19th.	1067581	1471961612879	1471961612973	v	86
2147	22357	It would be great if I could have the files by the 18th or 19th.	It would be great if I could have the files by the 18th or 19th.	1067586	1471961612989	1471961613074	e	69
2147	22357	It would be great if I could have the files by the 18th or 19th.	It would be great if I could have the files by the 18th or 19th.	1067589	1471961613137	1471961613209	 	32
2147	22357	It would be great if I could have the files by the 18th or 19th.	It would be great if I could have the files by the 18th or 19th.	1067700	1471961613464	1471961613575	t	84
2147	22357	It would be great if I could have the files by the 18th or 19th.	It would be great if I could have the files by the 18th or 19th.	1067703	1471961613558	1471961613644	h	72
2147	22357	It would be great if I could have the files by the 18th or 19th.	It would be great if I could have the files by the 18th or 19th.	1067707	1471961613659	1471961613759	e	69
2147	22357	It would be great if I could have the files by the 18th or 19th.	It would be great if I could have the files by the 18th or 19th.	1067709	1471961613868	1471961613960	 	32
2147	22357	It would be great if I could have the files by the 18th or 19th.	It would be great if I could have the files by the 18th or 19th.	1067711	1471961614916	1471961615011	i	73
2147	22357	It would be great if I could have the files by the 18th or 19th.	It would be great if I could have the files by the 18th or 19th.	1067769	1471961615226	1471961615315	BKSP	8
2147	22357	It would be great if I could have the files by the 18th or 19th.	It would be great if I could have the files by the 18th or 19th.	1067771	1471961615394	1471961615481	f	70
2147	22357	It would be great if I could have the files by the 18th or 19th.	It would be great if I could have the files by the 18th or 19th.	1067773	1471961615497	1471961615580	i	73
2147	22357	It would be great if I could have the files by the 18th or 19th.	It would be great if I could have the files by the 18th or 19th.	1067775	1471961615752	1471961615847	l	76
2147	22357	It would be great if I could have the files by the 18th or 19th.	It would be great if I could have the files by the 18th or 19th.	1067780	1471961615863	1471961615934	e	69
2147	22357	It would be great if I could have the files by the 18th or 19th.	It would be great if I could have the files by the 18th or 19th.	1067784	1471961616153	1471961616233	s	83
2147	22357	It would be great if I could have the files by the 18th or 19th.	It would be great if I could have the files by the 18th or 19th.	1067861	1471961616341	1471961616433	 	32
2147	22357	It would be great if I could have the files by the 18th or 19th.	It would be great if I could have the files by the 18th or 19th.	1067862	1471961617061	1471961617120	b	66
2147	22357	It would be great if I could have the files by the 18th or 19th.	It would be great if I could have the files by the 18th or 19th.	1067863	1471961617733	1471961617820	y	89
2147	22357	It would be great if I could have the files by the 18th or 19th.	It would be great if I could have the files by the 18th or 19th.	1067864	1471961617914	1471961617972	 	32
2147	22357	It would be great if I could have the files by the 18th or 19th.	It would be great if I could have the files by the 18th or 19th.	1067865	1471961618097	1471961618188	t	84
2147	22357	It would be great if I could have the files by the 18th or 19th.	It would be great if I could have the files by the 18th or 19th.	1067927	1471961618215	1471961618305	h	72
2147	22357	It would be great if I could have the files by the 18th or 19th.	It would be great if I could have the files by the 18th or 19th.	1067929	1471961618399	1471961618488	r	82
2147	22357	It would be great if I could have the files by the 18th or 19th.	It would be great if I could have the files by the 18th or 19th.	1067931	1471961618582	1471961618659	 	32
2147	22357	It would be great if I could have the files by the 18th or 19th.	It would be great if I could have the files by the 18th or 19th.	1067934	1471961619083	1471961619141	BKSP	8
2147	22357	It would be great if I could have the files by the 18th or 19th.	It would be great if I could have the files by the 18th or 19th.	1067936	1471961619204	1471961619276	BKSP	8
2147	22357	It would be great if I could have the files by the 18th or 19th.	It would be great if I could have the files by the 18th or 19th.	1067938	1471961619729	1471961619794	e	69
2147	22357	It would be great if I could have the files by the 18th or 19th.	It would be great if I could have the files by the 18th or 19th.	1067941	1471961619841	1471961619910	 	32
2147	22357	It would be great if I could have the files by the 18th or 19th.	It would be great if I could have the files by the 18th or 19th.	1068046	1471961620663	1471961620729	1	49
2147	22357	It would be great if I could have the files by the 18th or 19th.	It would be great if I could have the files by the 18th or 19th.	1068050	1471961621390	1471961621464	9	57
2147	22357	It would be great if I could have the files by the 18th or 19th.	It would be great if I could have the files by the 18th or 19th.	1068053	1471961621823	1471961621898	BKSP	8
2147	22357	It would be great if I could have the files by the 18th or 19th.	It would be great if I could have the files by the 18th or 19th.	1068059	1471961622086	1471961622182	8	56
2147	22357	It would be great if I could have the files by the 18th or 19th.	It would be great if I could have the files by the 18th or 19th.	1068067	1471961622588	1471961622666	 	32
2147	22357	It would be great if I could have the files by the 18th or 19th.	It would be great if I could have the files by the 18th or 19th.	1068072	1471961622963	1471961623066	BKSP	8
2147	22357	It would be great if I could have the files by the 18th or 19th.	It would be great if I could have the files by the 18th or 19th.	1068079	1471961623347	1471961623404	t	84
2147	22357	It would be great if I could have the files by the 18th or 19th.	It would be great if I could have the files by the 18th or 19th.	1068123	1471961623421	1471961623471	h	72
2147	22357	It would be great if I could have the files by the 18th or 19th.	It would be great if I could have the files by the 18th or 19th.	1068124	1471961623861	1471961623952	 	32
2147	22357	It would be great if I could have the files by the 18th or 19th.	It would be great if I could have the files by the 18th or 19th.	1068125	1471961624345	1471961624404	o	79
2147	22357	It would be great if I could have the files by the 18th or 19th.	It would be great if I could have the files by the 18th or 19th.	1068126	1471961624748	1471961624808	r	82
2147	22357	It would be great if I could have the files by the 18th or 19th.	It would be great if I could have the files by the 18th or 19th.	1068128	1471961624886	1471961624956	 	32
2147	22357	It would be great if I could have the files by the 18th or 19th.	It would be great if I could have the files by the 18th or 19th.	1068245	1471961625261	1471961625325	1	49
2147	22357	It would be great if I could have the files by the 18th or 19th.	It would be great if I could have the files by the 18th or 19th.	1068248	1471961625356	1471961625424	9	57
2147	22357	It would be great if I could have the files by the 18th or 19th.	It would be great if I could have the files by the 18th or 19th.	1068251	1471961626178	1471961626243	t	84
2147	22357	It would be great if I could have the files by the 18th or 19th.	It would be great if I could have the files by the 18th or 19th.	1068256	1471961626259	1471961626326	h	72
2147	22357	It would be great if I could have the files by the 18th or 19th.	It would be great if I could have the files by the 18th or 19th.	1068261	1471961626941	1471961627043	.	190
2147	22400	Have a great trip.	Have a great trip.	1068494	1471961631669	1471961631872	SHIFT	16
2147	22400	Have a great trip.	Have a great trip.	1068495	1471961631794	1471961631888	H	72
2147	22400	Have a great trip.	Have a great trip.	1068496	1471961632440	1471961632558	a	65
2147	22400	Have a great trip.	Have a great trip.	1068497	1471961632589	1471961632735	v	86
2147	22400	Have a great trip.	Have a great trip.	1068498	1471961632723	1471961632809	e	69
2147	22400	Have a great trip.	Have a great trip.	1068499	1471961632887	1471961632961	 	32
2147	22400	Have a great trip.	Have a great trip.	1068579	1471961633327	1471961633411	a	65
2147	22400	Have a great trip.	Have a great trip.	1068581	1471961633504	1471961633595	 	32
2147	22400	Have a great trip.	Have a great trip.	1068582	1471961633916	1471961634012	g	71
2147	22400	Have a great trip.	Have a great trip.	1068585	1471961634090	1471961634164	r	82
2147	22400	Have a great trip.	Have a great trip.	1068586	1471961634476	1471961634564	e	69
2147	22400	Have a great trip.	Have a great trip.	1068680	1471961634964	1471961635066	a	65
2147	22400	Have a great trip.	Have a great trip.	1068684	1471961635176	1471961635266	t	84
2147	22400	Have a great trip.	Have a great trip.	1068687	1471961635454	1471961635502	 	32
2147	22400	Have a great trip.	Have a great trip.	1068690	1471961636114	1471961636170	t	84
2147	22400	Have a great trip.	Have a great trip.	1068694	1471961636576	1471961636650	r	82
2147	22400	Have a great trip.	Have a great trip.	1068757	1471961636637	1471961636771	i	73
2147	22400	Have a great trip.	Have a great trip.	1068760	1471961636751	1471961636851	p	80
2147	22400	Have a great trip.	Have a great trip.	1068763	1471961637388	1471961637489	.	190
2147	22410	Please let me know if there is any way that I can help you.	Please let me know if there ids any way that I can help you.	1069151	1471961643863	1471961644058	SHIFT	16
2147	22410	Please let me know if there is any way that I can help you.	Please let me know if there ids any way that I can help you.	1069153	1471961644003	1471961644090	P	80
2147	22410	Please let me know if there is any way that I can help you.	Please let me know if there ids any way that I can help you.	1069156	1471961644199	1471961644273	l	76
2147	22410	Please let me know if there is any way that I can help you.	Please let me know if there ids any way that I can help you.	1069159	1471961644352	1471961644455	e	69
2147	22410	Please let me know if there is any way that I can help you.	Please let me know if there ids any way that I can help you.	1069162	1471961644502	1471961644637	a	65
2147	22410	Please let me know if there is any way that I can help you.	Please let me know if there ids any way that I can help you.	1069167	1471961644871	1471961644973	a	65
2147	22410	Please let me know if there is any way that I can help you.	Please let me know if there ids any way that I can help you.	1069248	1471961645306	1471961645391	BKSP	8
2147	22410	Please let me know if there is any way that I can help you.	Please let me know if there ids any way that I can help you.	1069249	1471961645594	1471961645677	s	83
2147	22410	Please let me know if there is any way that I can help you.	Please let me know if there ids any way that I can help you.	1069252	1471961645755	1471961645843	e	69
2147	22410	Please let me know if there is any way that I can help you.	Please let me know if there ids any way that I can help you.	1069257	1471961645914	1471961646009	 	32
2147	22410	Please let me know if there is any way that I can help you.	Please let me know if there ids any way that I can help you.	1069263	1471961646607	1471961646695	l	76
2147	22410	Please let me know if there is any way that I can help you.	Please let me know if there ids any way that I can help you.	1069269	1471961647182	1471961647263	e	69
2147	22410	Please let me know if there is any way that I can help you.	Please let me know if there ids any way that I can help you.	1069335	1471961647373	1471961647465	t	84
2147	22410	Please let me know if there is any way that I can help you.	Please let me know if there ids any way that I can help you.	1069340	1471961647543	1471961647614	 	32
2147	22410	Please let me know if there is any way that I can help you.	Please let me know if there ids any way that I can help you.	1069346	1471961648198	1471961648299	m	77
2147	22410	Please let me know if there is any way that I can help you.	Please let me know if there ids any way that I can help you.	1069353	1471961648440	1471961648486	e	69
2147	22410	Please let me know if there is any way that I can help you.	Please let me know if there ids any way that I can help you.	1069356	1471961648517	1471961648601	 	32
2147	22410	Please let me know if there is any way that I can help you.	Please let me know if there ids any way that I can help you.	1069513	1471961648953	1471961649098	j	74
2147	22410	Please let me know if there is any way that I can help you.	Please let me know if there ids any way that I can help you.	1069518	1471961649302	1471961649402	BKSP	8
2147	22410	Please let me know if there is any way that I can help you.	Please let me know if there ids any way that I can help you.	1069524	1471961649668	1471961649790	k	75
2147	22410	Please let me know if there is any way that I can help you.	Please let me know if there ids any way that I can help you.	1069527	1471961649753	1471961649853	o	79
2147	22410	Please let me know if there is any way that I can help you.	Please let me know if there ids any way that I can help you.	1069532	1471961651093	1471961651159	BKSP	8
2147	22410	Please let me know if there is any way that I can help you.	Please let me know if there ids any way that I can help you.	1069538	1471961651425	1471961651508	n	78
2147	22410	Please let me know if there is any way that I can help you.	Please let me know if there ids any way that I can help you.	1069541	1471961651697	1471961651777	o	79
2147	22410	Please let me know if there is any way that I can help you.	Please let me know if there ids any way that I can help you.	1069598	1471961652047	1471961652095	w	87
2147	22410	Please let me know if there is any way that I can help you.	Please let me know if there ids any way that I can help you.	1069600	1471961652189	1471961652262	 	32
2147	22410	Please let me know if there is any way that I can help you.	Please let me know if there ids any way that I can help you.	1069604	1471961652621	1471961652695	i	73
2147	22410	Please let me know if there is any way that I can help you.	Please let me know if there ids any way that I can help you.	1069606	1471961653055	1471961653099	f	70
2147	22410	Please let me know if there is any way that I can help you.	Please let me know if there ids any way that I can help you.	1069610	1471961653161	1471961653230	 	32
2147	22410	Please let me know if there is any way that I can help you.	Please let me know if there ids any way that I can help you.	1069660	1471961653812	1471961653897	t	84
2147	22410	Please let me know if there is any way that I can help you.	Please let me know if there ids any way that I can help you.	1069666	1471961653913	1471961653983	h	72
2147	22410	Please let me know if there is any way that I can help you.	Please let me know if there ids any way that I can help you.	1069672	1471961654264	1471961654333	e	69
2147	22410	Please let me know if there is any way that I can help you.	Please let me know if there ids any way that I can help you.	1069679	1471961654536	1471961654647	r	82
2147	22410	Please let me know if there is any way that I can help you.	Please let me know if there ids any way that I can help you.	1069682	1471961654647	1471961654733	e	69
2147	22410	Please let me know if there is any way that I can help you.	Please let me know if there ids any way that I can help you.	1069766	1471961655147	1471961655219	 	32
2147	22410	Please let me know if there is any way that I can help you.	Please let me know if there ids any way that I can help you.	1069769	1471961655625	1471961655688	i	73
2147	22410	Please let me know if there is any way that I can help you.	Please let me know if there ids any way that I can help you.	1069772	1471961655875	1471961655954	d	68
2147	22410	Please let me know if there is any way that I can help you.	Please let me know if there ids any way that I can help you.	1069776	1471961656079	1471961656158	 	32
2147	22410	Please let me know if there is any way that I can help you.	Please let me know if there ids any way that I can help you.	1069781	1471961656430	1471961656489	BKSP	8
2147	22410	Please let me know if there is any way that I can help you.	Please let me know if there ids any way that I can help you.	1069785	1471961656629	1471961656721	s	83
2147	22410	Please let me know if there is any way that I can help you.	Please let me know if there ids any way that I can help you.	1069821	1471961656765	1471961656840	 	32
2147	22410	Please let me know if there is any way that I can help you.	Please let me know if there ids any way that I can help you.	1069824	1471961657027	1471961657107	a	65
2147	22410	Please let me know if there is any way that I can help you.	Please let me know if there ids any way that I can help you.	1069829	1471961657201	1471961657288	n	78
2147	22410	Please let me know if there is any way that I can help you.	Please let me know if there ids any way that I can help you.	1069832	1471961657523	1471961657560	y	89
2147	22410	Please let me know if there is any way that I can help you.	Please let me know if there ids any way that I can help you.	1069836	1471961657654	1471961657741	 	32
2147	22410	Please let me know if there is any way that I can help you.	Please let me know if there ids any way that I can help you.	1069939	1471961658175	1471961658291	w	87
2147	22410	Please let me know if there is any way that I can help you.	Please let me know if there ids any way that I can help you.	1069941	1471961658291	1471961658407	a	65
2147	22410	Please let me know if there is any way that I can help you.	Please let me know if there ids any way that I can help you.	1069944	1471961658797	1471961658876	y	89
2147	22410	Please let me know if there is any way that I can help you.	Please let me know if there ids any way that I can help you.	1069945	1471961659001	1471961659064	 	32
2147	22410	Please let me know if there is any way that I can help you.	Please let me know if there ids any way that I can help you.	1069949	1471961659707	1471961659797	t	84
2147	22410	Please let me know if there is any way that I can help you.	Please let me know if there ids any way that I can help you.	1070009	1471961659797	1471961659865	h	72
2147	22410	Please let me know if there is any way that I can help you.	Please let me know if there ids any way that I can help you.	1070010	1471961659912	1471961659981	a	65
2147	22410	Please let me know if there is any way that I can help you.	Please let me know if there ids any way that I can help you.	1070011	1471961660122	1471961660183	t	84
2147	22410	Please let me know if there is any way that I can help you.	Please let me know if there ids any way that I can help you.	1070012	1471961660249	1471961660347	 	32
2147	22410	Please let me know if there is any way that I can help you.	Please let me know if there ids any way that I can help you.	1070013	1471961660834	1471961661102	SHIFT	16
2147	22410	Please let me know if there is any way that I can help you.	Please let me know if there ids any way that I can help you.	1070072	1471961661054	1471961661149	I	73
2147	22410	Please let me know if there is any way that I can help you.	Please let me know if there ids any way that I can help you.	1070077	1471961661571	1471961661667	 	32
2147	22410	Please let me know if there is any way that I can help you.	Please let me know if there ids any way that I can help you.	1070084	1471961661776	1471961661921	c	67
2147	22410	Please let me know if there is any way that I can help you.	Please let me know if there ids any way that I can help you.	1070089	1471961661868	1471961661983	a	65
2147	22410	Please let me know if there is any way that I can help you.	Please let me know if there ids any way that I can help you.	1070091	1471961662046	1471961662119	n	78
2147	22410	Please let me know if there is any way that I can help you.	Please let me know if there ids any way that I can help you.	1070096	1471961662307	1471961662402	 	32
2147	22410	Please let me know if there is any way that I can help you.	Please let me know if there ids any way that I can help you.	1070174	1471961662808	1471961663124	SHIFT	16
2147	22410	Please let me know if there is any way that I can help you.	Please let me know if there ids any way that I can help you.	1070181	1471961663327	1471961663392	h	72
2147	22410	Please let me know if there is any way that I can help you.	Please let me know if there ids any way that I can help you.	1070184	1471961663517	1471961663606	l	76
2147	22410	Please let me know if there is any way that I can help you.	Please let me know if there ids any way that I can help you.	1070187	1471961664266	1471961664326	e	69
2147	22410	Please let me know if there is any way that I can help you.	Please let me know if there ids any way that I can help you.	1070189	1471961664420	1471961664477	p	80
2147	22410	Please let me know if there is any way that I can help you.	Please let me know if there ids any way that I can help you.	1070191	1471961664711	1471961664794	 	32
2147	22410	Please let me know if there is any way that I can help you.	Please let me know if there ids any way that I can help you.	1070319	1471961665297	1471961665363	BKSP	8
2147	22410	Please let me know if there is any way that I can help you.	Please let me know if there ids any way that I can help you.	1070321	1471961665441	1471961665497	BKSP	8
2147	22410	Please let me know if there is any way that I can help you.	Please let me know if there ids any way that I can help you.	1070323	1471961665559	1471961665629	BKSP	8
2147	22410	Please let me know if there is any way that I can help you.	Please let me know if there ids any way that I can help you.	1070327	1471961665785	1471961665865	BKSP	8
2147	22410	Please let me know if there is any way that I can help you.	Please let me know if there ids any way that I can help you.	1070333	1471961666286	1471961666348	e	69
2147	22410	Please let me know if there is any way that I can help you.	Please let me know if there ids any way that I can help you.	1070337	1471961666723	1471961666814	l	76
2147	22410	Please let me know if there is any way that I can help you.	Please let me know if there ids any way that I can help you.	1070340	1471961666878	1471961666950	p	80
2147	22410	Please let me know if there is any way that I can help you.	Please let me know if there ids any way that I can help you.	1070342	1471961667321	1471961667401	 	32
2147	22410	Please let me know if there is any way that I can help you.	Please let me know if there ids any way that I can help you.	1070344	1471961667882	1471961667954	y	89
2147	22410	Please let me know if there is any way that I can help you.	Please let me know if there ids any way that I can help you.	1070367	1471961667903	1471961668037	o	79
2147	22410	Please let me know if there is any way that I can help you.	Please let me know if there ids any way that I can help you.	1070372	1471961667984	1471961668084	u	85
2147	22410	Please let me know if there is any way that I can help you.	Please let me know if there ids any way that I can help you.	1070377	1471961668587	1471961668670	.	190
2147	22445	Foreign insurance firms can file applications to the ministry.	Foreign insurance firms can file applications to the ministry.	1071005	1471961682171	1471961682389	SHIFT	16
2147	22445	Foreign insurance firms can file applications to the ministry.	Foreign insurance firms can file applications to the ministry.	1071009	1471961682328	1471961682405	F	70
2147	22445	Foreign insurance firms can file applications to the ministry.	Foreign insurance firms can file applications to the ministry.	1071013	1471961682451	1471961682539	o	79
2147	22445	Foreign insurance firms can file applications to the ministry.	Foreign insurance firms can file applications to the ministry.	1071018	1471961682648	1471961682723	r	82
2147	22445	Foreign insurance firms can file applications to the ministry.	Foreign insurance firms can file applications to the ministry.	1071019	1471961682864	1471961682957	e	69
2147	22445	Foreign insurance firms can file applications to the ministry.	Foreign insurance firms can file applications to the ministry.	1071023	1471961683523	1471961683609	i	73
2147	22445	Foreign insurance firms can file applications to the ministry.	Foreign insurance firms can file applications to the ministry.	1071102	1471961684112	1471961684162	g	71
2147	22445	Foreign insurance firms can file applications to the ministry.	Foreign insurance firms can file applications to the ministry.	1071104	1471961684396	1471961684478	n	78
2147	22445	Foreign insurance firms can file applications to the ministry.	Foreign insurance firms can file applications to the ministry.	1071107	1471961684697	1471961684764	 	32
2147	22445	Foreign insurance firms can file applications to the ministry.	Foreign insurance firms can file applications to the ministry.	1071109	1471961685424	1471961685533	i	73
2147	22445	Foreign insurance firms can file applications to the ministry.	Foreign insurance firms can file applications to the ministry.	1071156	1471961685480	1471961685586	n	78
2147	22445	Foreign insurance firms can file applications to the ministry.	Foreign insurance firms can file applications to the ministry.	1071158	1471961686043	1471961686099	s	83
2147	22445	Foreign insurance firms can file applications to the ministry.	Foreign insurance firms can file applications to the ministry.	1071160	1471961686302	1471961686401	o	79
2147	22445	Foreign insurance firms can file applications to the ministry.	Foreign insurance firms can file applications to the ministry.	1071164	1471961686336	1471961686433	u	85
2147	22445	Foreign insurance firms can file applications to the ministry.	Foreign insurance firms can file applications to the ministry.	1071166	1471961686747	1471961686857	r	82
2147	22445	Foreign insurance firms can file applications to the ministry.	Foreign insurance firms can file applications to the ministry.	1071168	1471961686928	1471961687048	a	65
2147	22445	Foreign insurance firms can file applications to the ministry.	Foreign insurance firms can file applications to the ministry.	1071274	1471961687538	1471961687576	BKSP	8
2147	22445	Foreign insurance firms can file applications to the ministry.	Foreign insurance firms can file applications to the ministry.	1071281	1471961687636	1471961687688	BKSP	8
2147	22445	Foreign insurance firms can file applications to the ministry.	Foreign insurance firms can file applications to the ministry.	1071285	1471961687766	1471961687837	BKSP	8
2147	22445	Foreign insurance firms can file applications to the ministry.	Foreign insurance firms can file applications to the ministry.	1071290	1471961688024	1471961688073	BKSP	8
2147	22445	Foreign insurance firms can file applications to the ministry.	Foreign insurance firms can file applications to the ministry.	1071298	1471961688464	1471961688523	u	85
2147	22445	Foreign insurance firms can file applications to the ministry.	Foreign insurance firms can file applications to the ministry.	1071300	1471961689433	1471961689562	t	84
2147	22445	Foreign insurance firms can file applications to the ministry.	Foreign insurance firms can file applications to the ministry.	1071304	1471961689520	1471961689655	a	65
2147	22445	Foreign insurance firms can file applications to the ministry.	Foreign insurance firms can file applications to the ministry.	1071305	1471961689843	1471961689909	BKSP	8
2147	22445	Foreign insurance firms can file applications to the ministry.	Foreign insurance firms can file applications to the ministry.	1071307	1471961689971	1471961690128	r	82
2147	22445	Foreign insurance firms can file applications to the ministry.	Foreign insurance firms can file applications to the ministry.	1071484	1471961690074	1471961690196	a	65
2147	22445	Foreign insurance firms can file applications to the ministry.	Foreign insurance firms can file applications to the ministry.	1071486	1471961690430	1471961690494	n	78
2147	22445	Foreign insurance firms can file applications to the ministry.	Foreign insurance firms can file applications to the ministry.	1071491	1471961690760	1471961690907	c	67
2147	22445	Foreign insurance firms can file applications to the ministry.	Foreign insurance firms can file applications to the ministry.	1071495	1471961690875	1471961690961	e	69
2147	22445	Foreign insurance firms can file applications to the ministry.	Foreign insurance firms can file applications to the ministry.	1071499	1471961691273	1471961691378	 	32
2147	22445	Foreign insurance firms can file applications to the ministry.	Foreign insurance firms can file applications to the ministry.	1071505	1471961691975	1471961692033	BKSP	8
2147	22445	Foreign insurance firms can file applications to the ministry.	Foreign insurance firms can file applications to the ministry.	1071509	1471961692111	1471961692183	BKSP	8
2147	22445	Foreign insurance firms can file applications to the ministry.	Foreign insurance firms can file applications to the ministry.	1071515	1471961692261	1471961692332	BKSP	8
2147	22445	Foreign insurance firms can file applications to the ministry.	Foreign insurance firms can file applications to the ministry.	1071519	1471961692441	1471961692531	BKSP	8
2147	22445	Foreign insurance firms can file applications to the ministry.	Foreign insurance firms can file applications to the ministry.	1071522	1471961692781	1471961692850	BKSP	8
2147	22445	Foreign insurance firms can file applications to the ministry.	Foreign insurance firms can file applications to the ministry.	1071524	1471961692928	1471961692988	BKSP	8
2147	22445	Foreign insurance firms can file applications to the ministry.	Foreign insurance firms can file applications to the ministry.	1071529	1471961693097	1471961693199	BKSP	8
2147	22445	Foreign insurance firms can file applications to the ministry.	Foreign insurance firms can file applications to the ministry.	1071533	1471961694079	1471961694222	r	82
2147	22445	Foreign insurance firms can file applications to the ministry.	Foreign insurance firms can file applications to the ministry.	1071608	1471961694169	1471961694288	a	65
2147	22445	Foreign insurance firms can file applications to the ministry.	Foreign insurance firms can file applications to the ministry.	1071611	1471961694990	1471961695041	n	78
2147	22445	Foreign insurance firms can file applications to the ministry.	Foreign insurance firms can file applications to the ministry.	1071615	1471961695181	1471961695303	c	67
2147	22445	Foreign insurance firms can file applications to the ministry.	Foreign insurance firms can file applications to the ministry.	1071618	1471961695334	1471961695376	e	69
2147	22445	Foreign insurance firms can file applications to the ministry.	Foreign insurance firms can file applications to the ministry.	1071620	1471961695904	1471961695991	 	32
2147	22445	Foreign insurance firms can file applications to the ministry.	Foreign insurance firms can file applications to the ministry.	1071622	1471961696634	1471961696710	f	70
2147	22445	Foreign insurance firms can file applications to the ministry.	Foreign insurance firms can file applications to the ministry.	1071664	1471961697097	1471961697178	i	73
2147	22445	Foreign insurance firms can file applications to the ministry.	Foreign insurance firms can file applications to the ministry.	1071666	1471961697225	1471961697296	r	82
2147	22445	Foreign insurance firms can file applications to the ministry.	Foreign insurance firms can file applications to the ministry.	1071668	1471961697546	1471961697613	m	77
2147	22445	Foreign insurance firms can file applications to the ministry.	Foreign insurance firms can file applications to the ministry.	1071671	1471961697943	1471961697999	s	83
2147	22445	Foreign insurance firms can file applications to the ministry.	Foreign insurance firms can file applications to the ministry.	1071677	1471961698093	1471961698180	 	32
2147	22445	Foreign insurance firms can file applications to the ministry.	Foreign insurance firms can file applications to the ministry.	1071748	1471961698648	1471961698800	c	67
2147	22445	Foreign insurance firms can file applications to the ministry.	Foreign insurance firms can file applications to the ministry.	1071751	1471961698732	1471961698831	a	65
2147	22445	Foreign insurance firms can file applications to the ministry.	Foreign insurance firms can file applications to the ministry.	1071755	1471961698878	1471961698950	n	78
2147	22445	Foreign insurance firms can file applications to the ministry.	Foreign insurance firms can file applications to the ministry.	1071759	1471961699075	1471961699172	 	32
2147	22445	Foreign insurance firms can file applications to the ministry.	Foreign insurance firms can file applications to the ministry.	1071763	1471961700184	1471961700253	f	70
2147	22445	Foreign insurance firms can file applications to the ministry.	Foreign insurance firms can file applications to the ministry.	1071790	1471961700283	1471961700369	i	73
2147	22445	Foreign insurance firms can file applications to the ministry.	Foreign insurance firms can file applications to the ministry.	1071791	1471961700494	1471961700585	l	76
2147	22445	Foreign insurance firms can file applications to the ministry.	Foreign insurance firms can file applications to the ministry.	1071792	1471961700663	1471961700716	e	69
2147	22445	Foreign insurance firms can file applications to the ministry.	Foreign insurance firms can file applications to the ministry.	1071793	1471961700810	1471961700904	 	32
2147	22445	Foreign insurance firms can file applications to the ministry.	Foreign insurance firms can file applications to the ministry.	1071795	1471961701197	1471961701319	t	84
2147	22445	Foreign insurance firms can file applications to the ministry.	Foreign insurance firms can file applications to the ministry.	1071872	1471961701332	1471961701406	h	72
2147	22445	Foreign insurance firms can file applications to the ministry.	Foreign insurance firms can file applications to the ministry.	1071876	1471961701453	1471961701539	e	69
2147	22445	Foreign insurance firms can file applications to the ministry.	Foreign insurance firms can file applications to the ministry.	1071880	1471961701711	1471961701767	BKSP	8
2147	22445	Foreign insurance firms can file applications to the ministry.	Foreign insurance firms can file applications to the ministry.	1071883	1471961701845	1471961701909	BKSP	8
2147	22445	Foreign insurance firms can file applications to the ministry.	Foreign insurance firms can file applications to the ministry.	1071885	1471961701987	1471961702058	BKSP	8
2147	22445	Foreign insurance firms can file applications to the ministry.	Foreign insurance firms can file applications to the ministry.	1071887	1471961702433	1471961702508	a	65
2147	22445	Foreign insurance firms can file applications to the ministry.	Foreign insurance firms can file applications to the ministry.	1071891	1471961702758	1471961702827	l	76
2147	22445	Foreign insurance firms can file applications to the ministry.	Foreign insurance firms can file applications to the ministry.	1071895	1471961702889	1471961702977	l	76
2147	22445	Foreign insurance firms can file applications to the ministry.	Foreign insurance firms can file applications to the ministry.	1072034	1471961703588	1471961703662	p	80
2147	22445	Foreign insurance firms can file applications to the ministry.	Foreign insurance firms can file applications to the ministry.	1072037	1471961704290	1471961704363	BKSP	8
2147	22445	Foreign insurance firms can file applications to the ministry.	Foreign insurance firms can file applications to the ministry.	1072041	1471961704867	1471961704948	BKSP	8
2147	22445	Foreign insurance firms can file applications to the ministry.	Foreign insurance firms can file applications to the ministry.	1072046	1471961705026	1471961705100	BKSP	8
2147	22445	Foreign insurance firms can file applications to the ministry.	Foreign insurance firms can file applications to the ministry.	1072050	1471961705194	1471961705267	l	76
2147	22445	Foreign insurance firms can file applications to the ministry.	Foreign insurance firms can file applications to the ministry.	1072055	1471961705314	1471961705415	l	76
2147	22445	Foreign insurance firms can file applications to the ministry.	Foreign insurance firms can file applications to the ministry.	1072058	1471961705658	1471961705719	BKSP	8
2147	22445	Foreign insurance firms can file applications to the ministry.	Foreign insurance firms can file applications to the ministry.	1072063	1471961705788	1471961705851	BKSP	8
2147	22445	Foreign insurance firms can file applications to the ministry.	Foreign insurance firms can file applications to the ministry.	1072067	1471961706001	1471961706084	p	80
2147	22445	Foreign insurance firms can file applications to the ministry.	Foreign insurance firms can file applications to the ministry.	1072069	1471961706131	1471961706218	p	80
2147	22445	Foreign insurance firms can file applications to the ministry.	Foreign insurance firms can file applications to the ministry.	1072147	1471961706570	1471961706637	l	76
2147	22445	Foreign insurance firms can file applications to the ministry.	Foreign insurance firms can file applications to the ministry.	1072151	1471961706747	1471961706820	i	73
2147	22445	Foreign insurance firms can file applications to the ministry.	Foreign insurance firms can file applications to the ministry.	1072154	1471961707258	1471961707373	c	67
2147	22445	Foreign insurance firms can file applications to the ministry.	Foreign insurance firms can file applications to the ministry.	1072158	1471961707321	1471961707436	a	65
2147	22445	Foreign insurance firms can file applications to the ministry.	Foreign insurance firms can file applications to the ministry.	1072165	1471961707764	1471961707874	t	84
2147	22445	Foreign insurance firms can file applications to the ministry.	Foreign insurance firms can file applications to the ministry.	1072272	1471961707824	1471961707924	i	73
2147	22445	Foreign insurance firms can file applications to the ministry.	Foreign insurance firms can file applications to the ministry.	1072277	1471961707882	1471961707987	o	79
2147	22445	Foreign insurance firms can file applications to the ministry.	Foreign insurance firms can file applications to the ministry.	1072286	1471961708283	1471961708377	n	78
2147	22445	Foreign insurance firms can file applications to the ministry.	Foreign insurance firms can file applications to the ministry.	1072293	1471961708596	1471961708690	s	83
2147	22445	Foreign insurance firms can file applications to the ministry.	Foreign insurance firms can file applications to the ministry.	1072297	1471961709019	1471961709077	 	32
2147	22445	Foreign insurance firms can file applications to the ministry.	Foreign insurance firms can file applications to the ministry.	1072303	1471961709405	1471961709477	t	84
2147	22445	Foreign insurance firms can file applications to the ministry.	Foreign insurance firms can file applications to the ministry.	1072362	1471961709542	1471961709626	i	73
2147	22445	Foreign insurance firms can file applications to the ministry.	Foreign insurance firms can file applications to the ministry.	1072366	1471961709829	1471961709910	BKSP	8
2147	22445	Foreign insurance firms can file applications to the ministry.	Foreign insurance firms can file applications to the ministry.	1072369	1471961710004	1471961710063	o	79
2147	22445	Foreign insurance firms can file applications to the ministry.	Foreign insurance firms can file applications to the ministry.	1072372	1471961710583	1471961710695	 	32
2147	22445	Foreign insurance firms can file applications to the ministry.	Foreign insurance firms can file applications to the ministry.	1072376	1471961710835	1471961710952	t	84
2147	22445	Foreign insurance firms can file applications to the ministry.	Foreign insurance firms can file applications to the ministry.	1072415	1471961710913	1471961710997	h	72
2147	22445	Foreign insurance firms can file applications to the ministry.	Foreign insurance firms can file applications to the ministry.	1072419	1471961711013	1471961711128	e	69
2147	22445	Foreign insurance firms can file applications to the ministry.	Foreign insurance firms can file applications to the ministry.	1072423	1471961711191	1471961711298	 	32
2147	22445	Foreign insurance firms can file applications to the ministry.	Foreign insurance firms can file applications to the ministry.	1072429	1471961711909	1471961712036	m	77
2147	22445	Foreign insurance firms can file applications to the ministry.	Foreign insurance firms can file applications to the ministry.	1072433	1471961711999	1471961712114	i	73
2147	22445	Foreign insurance firms can file applications to the ministry.	Foreign insurance firms can file applications to the ministry.	1072436	1471961712161	1471961712282	n	78
2147	22445	Foreign insurance firms can file applications to the ministry.	Foreign insurance firms can file applications to the ministry.	1072526	1471961712266	1471961712366	i	73
2147	22445	Foreign insurance firms can file applications to the ministry.	Foreign insurance firms can file applications to the ministry.	1072529	1471961713105	1471961713170	s	83
2147	22445	Foreign insurance firms can file applications to the ministry.	Foreign insurance firms can file applications to the ministry.	1072533	1471961713420	1471961713488	t	84
2147	22445	Foreign insurance firms can file applications to the ministry.	Foreign insurance firms can file applications to the ministry.	1072535	1471961713581	1471961713657	r	82
2147	22445	Foreign insurance firms can file applications to the ministry.	Foreign insurance firms can file applications to the ministry.	1072538	1471961713619	1471961713688	y	89
2147	22445	Foreign insurance firms can file applications to the ministry.	Foreign insurance firms can file applications to the ministry.	1072542	1471961714550	1471961714637	.	190
2147	22493	I wanted to go drinking with you.	I wanted to go drinking with you.	1073004	1471961721716	1471961721933	SHIFT	16
2147	22493	I wanted to go drinking with you.	I wanted to go drinking with you.	1073007	1471961721903	1471961721991	I	73
2147	22493	I wanted to go drinking with you.	I wanted to go drinking with you.	1073012	1471961722366	1471961722443	 	32
2147	22493	I wanted to go drinking with you.	I wanted to go drinking with you.	1073016	1471961722568	1471961722730	w	87
2147	22493	I wanted to go drinking with you.	I wanted to go drinking with you.	1073021	1471961722677	1471961722761	a	65
2147	22493	I wanted to go drinking with you.	I wanted to go drinking with you.	1073025	1471961722937	1471961723026	n	78
2147	22493	I wanted to go drinking with you.	I wanted to go drinking with you.	1073113	1471961723219	1471961723295	t	84
2147	22493	I wanted to go drinking with you.	I wanted to go drinking with you.	1073118	1471961723342	1471961723476	e	69
2147	22493	I wanted to go drinking with you.	I wanted to go drinking with you.	1073123	1471961723632	1471961723658	s	83
2147	22493	I wanted to go drinking with you.	I wanted to go drinking with you.	1073128	1471961724358	1471961724433	d	68
2147	22493	I wanted to go drinking with you.	I wanted to go drinking with you.	1073134	1471961724589	1471961724713	BKSP	8
2147	22493	I wanted to go drinking with you.	I wanted to go drinking with you.	1073138	1471961724979	1471961725082	BKSP	8
2147	22493	I wanted to go drinking with you.	I wanted to go drinking with you.	1073144	1471961725146	1471961725218	d	68
2147	22493	I wanted to go drinking with you.	I wanted to go drinking with you.	1073203	1471961725299	1471961725353	 	32
2147	22493	I wanted to go drinking with you.	I wanted to go drinking with you.	1073206	1471961725858	1471961725921	t	84
2147	22493	I wanted to go drinking with you.	I wanted to go drinking with you.	1073210	1471961725921	1471961726004	o	79
2147	22493	I wanted to go drinking with you.	I wanted to go drinking with you.	1073214	1471961726191	1471961726271	 	32
2147	22493	I wanted to go drinking with you.	I wanted to go drinking with you.	1073217	1471961726406	1471961726476	g	71
2147	22493	I wanted to go drinking with you.	I wanted to go drinking with you.	1073275	1471961726456	1471961726554	o	79
2147	22493	I wanted to go drinking with you.	I wanted to go drinking with you.	1073278	1471961726647	1471961726737	 	32
2147	22493	I wanted to go drinking with you.	I wanted to go drinking with you.	1073283	1471961727507	1471961727574	d	68
2147	22493	I wanted to go drinking with you.	I wanted to go drinking with you.	1073289	1471961727684	1471961727758	r	82
2147	22493	I wanted to go drinking with you.	I wanted to go drinking with you.	1073291	1471961727883	1471961728009	i	73
2147	22493	I wanted to go drinking with you.	I wanted to go drinking with you.	1073330	1471961727958	1471961728058	n	78
2147	22493	I wanted to go drinking with you.	I wanted to go drinking with you.	1073336	1471961728512	1471961728593	k	75
2147	22493	I wanted to go drinking with you.	I wanted to go drinking with you.	1073341	1471961728702	1471961728829	i	73
2147	22493	I wanted to go drinking with you.	I wanted to go drinking with you.	1073345	1471961728777	1471961728891	n	78
2147	22493	I wanted to go drinking with you.	I wanted to go drinking with you.	1073352	1471961728891	1471961728978	g	71
2147	22493	I wanted to go drinking with you.	I wanted to go drinking with you.	1073358	1471961729010	1471961729110	 	32
2147	22493	I wanted to go drinking with you.	I wanted to go drinking with you.	1073449	1471961729880	1471961729947	w	87
2147	22493	I wanted to go drinking with you.	I wanted to go drinking with you.	1073452	1471961730088	1471961730165	i	73
2147	22493	I wanted to go drinking with you.	I wanted to go drinking with you.	1073454	1471961730352	1471961730400	t	84
2147	22493	I wanted to go drinking with you.	I wanted to go drinking with you.	1073456	1471961730423	1471961730513	h	72
2147	22493	I wanted to go drinking with you.	I wanted to go drinking with you.	1073458	1471961730638	1471961730731	 	32
2147	22493	I wanted to go drinking with you.	I wanted to go drinking with you.	1073554	1471961731281	1471961731384	y	89
2147	22493	I wanted to go drinking with you.	I wanted to go drinking with you.	1073558	1471961731351	1471961731452	o	79
2147	22493	I wanted to go drinking with you.	I wanted to go drinking with you.	1073563	1471961731402	1471961731468	u	85
2147	22493	I wanted to go drinking with you.	I wanted to go drinking with you.	1073568	1471961732034	1471961732118	.	190
