PARTICIPANT_ID	TEST_SECTION_ID	SENTENCE	USER_INPUT	KEYSTROKE_ID	PRESS_TIME	RELEASE_TIME	LETTER	KEYCODE
2154	21657	The UN still recognizes Lisbon as the administrator of the territory.	The UN still recognizes Lisbon as the administrator of the territory.	1032542	1471961273617	1471961274688	SHIFT	16
2154	21657	The UN still recognizes Lisbon as the administrator of the territory.	The UN still recognizes Lisbon as the administrator of the territory.	1032553	1471961274608	1471961274736		84
2154	21657	The UN still recognizes Lisbon as the administrator of the territory.	The UN still recognizes Lisbon as the administrator of the territory.	1032561	1471961274696	1471961274792		72
2154	21657	The UN still recognizes Lisbon as the administrator of the territory.	The UN still recognizes Lisbon as the administrator of the territory.	1032569	1471961274824	1471961274935		69
2154	21657	The UN still recognizes Lisbon as the administrator of the territory.	The UN still recognizes Lisbon as the administrator of the territory.	1032574	1471961274928	1471961275071		32
2154	21657	The UN still recognizes Lisbon as the administrator of the territory.	The UN still recognizes Lisbon as the administrator of the territory.	1032683	1471961275087	1471961275503	SHIFT	16
2154	21657	The UN still recognizes Lisbon as the administrator of the territory.	The UN still recognizes Lisbon as the administrator of the territory.	1032583	1471961275176	1471961275279		85
2154	21657	The UN still recognizes Lisbon as the administrator of the territory.	The UN still recognizes Lisbon as the administrator of the territory.	1032673	1471961275384	1471961275480		78
2154	21657	The UN still recognizes Lisbon as the administrator of the territory.	The UN still recognizes Lisbon as the administrator of the territory.	1032691	1471961275600	1471961275776		32
2154	21657	The UN still recognizes Lisbon as the administrator of the territory.	The UN still recognizes Lisbon as the administrator of the territory.	1032695	1471961275968	1471961276071		83
2154	21657	The UN still recognizes Lisbon as the administrator of the territory.	The UN still recognizes Lisbon as the administrator of the territory.	1032699	1471961276112	1471961276239		84
2154	21657	The UN still recognizes Lisbon as the administrator of the territory.	The UN still recognizes Lisbon as the administrator of the territory.	1032771	1471961276216	1471961276296		73
2154	21657	The UN still recognizes Lisbon as the administrator of the territory.	The UN still recognizes Lisbon as the administrator of the territory.	1032775	1471961276384	1471961276447		76
2154	21657	The UN still recognizes Lisbon as the administrator of the territory.	The UN still recognizes Lisbon as the administrator of the territory.	1032782	1471961276528	1471961276679		76
2154	21657	The UN still recognizes Lisbon as the administrator of the territory.	The UN still recognizes Lisbon as the administrator of the territory.	1032792	1471961276672	1471961276839		32
2154	21657	The UN still recognizes Lisbon as the administrator of the territory.	The UN still recognizes Lisbon as the administrator of the territory.	1032799	1471961277016	1471961277175		82
2154	21657	The UN still recognizes Lisbon as the administrator of the territory.	The UN still recognizes Lisbon as the administrator of the territory.	1032914	1471961277128	1471961277263		69
2154	21657	The UN still recognizes Lisbon as the administrator of the territory.	The UN still recognizes Lisbon as the administrator of the territory.	1032925	1471961277520	1471961277639		67
2154	21657	The UN still recognizes Lisbon as the administrator of the territory.	The UN still recognizes Lisbon as the administrator of the territory.	1032936	1471961277640	1471961277768		79
2154	21657	The UN still recognizes Lisbon as the administrator of the territory.	The UN still recognizes Lisbon as the administrator of the territory.	1032949	1471961277864	1471961277943		71
2154	21657	The UN still recognizes Lisbon as the administrator of the territory.	The UN still recognizes Lisbon as the administrator of the territory.	1032961	1471961278064	1471961278168		78
2154	21657	The UN still recognizes Lisbon as the administrator of the territory.	The UN still recognizes Lisbon as the administrator of the territory.	1032973	1471961278208	1471961278367		73
2154	21657	The UN still recognizes Lisbon as the administrator of the territory.	The UN still recognizes Lisbon as the administrator of the territory.	1033066	1471961278360	1471961278480		83
2154	21657	The UN still recognizes Lisbon as the administrator of the territory.	The UN still recognizes Lisbon as the administrator of the territory.	1033072	1471961278728	1471961278823		8
2154	21657	The UN still recognizes Lisbon as the administrator of the territory.	The UN still recognizes Lisbon as the administrator of the territory.	1033080	1471961278800	1471961278920		90
2154	21657	The UN still recognizes Lisbon as the administrator of the territory.	The UN still recognizes Lisbon as the administrator of the territory.	1033089	1471961278992	1471961279111		69
2154	21657	The UN still recognizes Lisbon as the administrator of the territory.	The UN still recognizes Lisbon as the administrator of the territory.	1033098	1471961279216	1471961279343		83
2154	21657	The UN still recognizes Lisbon as the administrator of the territory.	The UN still recognizes Lisbon as the administrator of the territory.	1033107	1471961279351	1471961279503		32
2154	21657	The UN still recognizes Lisbon as the administrator of the territory.	The UN still recognizes Lisbon as the administrator of the territory.	1033221	1471961279479	1471961279679	SHIFT	16
2154	21657	The UN still recognizes Lisbon as the administrator of the territory.	The UN still recognizes Lisbon as the administrator of the territory.	1033228	1471961279576	1471961279687		76
2154	21657	The UN still recognizes Lisbon as the administrator of the territory.	The UN still recognizes Lisbon as the administrator of the territory.	1033235	1471961279792	1471961279951		73
2154	21657	The UN still recognizes Lisbon as the administrator of the territory.	The UN still recognizes Lisbon as the administrator of the territory.	1033242	1471961279991	1471961280103		83
2154	21657	The UN still recognizes Lisbon as the administrator of the territory.	The UN still recognizes Lisbon as the administrator of the territory.	1033251	1471961280191	1471961280287		66
2154	21657	The UN still recognizes Lisbon as the administrator of the territory.	The UN still recognizes Lisbon as the administrator of the territory.	1033261	1471961280408	1471961280591		79
2154	21657	The UN still recognizes Lisbon as the administrator of the territory.	The UN still recognizes Lisbon as the administrator of the territory.	1033311	1471961280511	1471961280631		78
2154	21657	The UN still recognizes Lisbon as the administrator of the territory.	The UN still recognizes Lisbon as the administrator of the territory.	1033318	1471961280647	1471961280807		32
2154	21657	The UN still recognizes Lisbon as the administrator of the territory.	The UN still recognizes Lisbon as the administrator of the territory.	1033324	1471961280896	1471961281033		65
2154	21657	The UN still recognizes Lisbon as the administrator of the territory.	The UN still recognizes Lisbon as the administrator of the territory.	1033328	1471961281016	1471961281167		83
2154	21657	The UN still recognizes Lisbon as the administrator of the territory.	The UN still recognizes Lisbon as the administrator of the territory.	1033331	1471961281168	1471961281303		32
2154	21657	The UN still recognizes Lisbon as the administrator of the territory.	The UN still recognizes Lisbon as the administrator of the territory.	1033335	1471961281311	1471961281415		84
2154	21657	The UN still recognizes Lisbon as the administrator of the territory.	The UN still recognizes Lisbon as the administrator of the territory.	1033434	1471961281375	1471961281487		72
2154	21657	The UN still recognizes Lisbon as the administrator of the territory.	The UN still recognizes Lisbon as the administrator of the territory.	1033446	1471961281479	1471961281599		69
2154	21657	The UN still recognizes Lisbon as the administrator of the territory.	The UN still recognizes Lisbon as the administrator of the territory.	1033454	1471961281567	1471961281687		32
2154	21657	The UN still recognizes Lisbon as the administrator of the territory.	The UN still recognizes Lisbon as the administrator of the territory.	1033464	1471961281775	1471961281895		65
2154	21657	The UN still recognizes Lisbon as the administrator of the territory.	The UN still recognizes Lisbon as the administrator of the territory.	1033471	1471961282015	1471961282119		68
2154	21657	The UN still recognizes Lisbon as the administrator of the territory.	The UN still recognizes Lisbon as the administrator of the territory.	1033480	1471961282231	1471961282327		77
2154	21657	The UN still recognizes Lisbon as the administrator of the territory.	The UN still recognizes Lisbon as the administrator of the territory.	1033572	1471961282447	1471961282575		73
2154	21657	The UN still recognizes Lisbon as the administrator of the territory.	The UN still recognizes Lisbon as the administrator of the territory.	1033576	1471961282807	1471961282903		78
2154	21657	The UN still recognizes Lisbon as the administrator of the territory.	The UN still recognizes Lisbon as the administrator of the territory.	1033581	1471961283039	1471961283159		73
2154	21657	The UN still recognizes Lisbon as the administrator of the territory.	The UN still recognizes Lisbon as the administrator of the territory.	1033587	1471961283191	1471961283287		83
2154	21657	The UN still recognizes Lisbon as the administrator of the territory.	The UN still recognizes Lisbon as the administrator of the territory.	1033589	1471961283375	1471961283447		84
2154	21657	The UN still recognizes Lisbon as the administrator of the territory.	The UN still recognizes Lisbon as the administrator of the territory.	1033726	1471961283799	1471961283879		82
2154	21657	The UN still recognizes Lisbon as the administrator of the territory.	The UN still recognizes Lisbon as the administrator of the territory.	1033734	1471961284184	1471961284327		65
2154	21657	The UN still recognizes Lisbon as the administrator of the territory.	The UN still recognizes Lisbon as the administrator of the territory.	1033742	1471961284400	1471961284519		84
2154	21657	The UN still recognizes Lisbon as the administrator of the territory.	The UN still recognizes Lisbon as the administrator of the territory.	1033756	1471961284559	1471961284719		79
2154	21657	The UN still recognizes Lisbon as the administrator of the territory.	The UN still recognizes Lisbon as the administrator of the territory.	1033798	1471961284679	1471961284791		82
2154	21657	The UN still recognizes Lisbon as the administrator of the territory.	The UN still recognizes Lisbon as the administrator of the territory.	1033803	1471961284807	1471961284967		32
2154	21657	The UN still recognizes Lisbon as the administrator of the territory.	The UN still recognizes Lisbon as the administrator of the territory.	1033809	1471961284951	1471961285095		79
2154	21657	The UN still recognizes Lisbon as the administrator of the territory.	The UN still recognizes Lisbon as the administrator of the territory.	1033816	1471961285064	1471961285167		70
2154	21657	The UN still recognizes Lisbon as the administrator of the territory.	The UN still recognizes Lisbon as the administrator of the territory.	1033821	1471961285159	1471961285279		32
2154	21657	The UN still recognizes Lisbon as the administrator of the territory.	The UN still recognizes Lisbon as the administrator of the territory.	1033910	1471961285271	1471961285367		84
2154	21657	The UN still recognizes Lisbon as the administrator of the territory.	The UN still recognizes Lisbon as the administrator of the territory.	1033915	1471961285343	1471961285463		72
2154	21657	The UN still recognizes Lisbon as the administrator of the territory.	The UN still recognizes Lisbon as the administrator of the territory.	1033923	1471961285439	1471961285559		69
2154	21657	The UN still recognizes Lisbon as the administrator of the territory.	The UN still recognizes Lisbon as the administrator of the territory.	1033933	1471961285519	1471961285671		32
2154	21657	The UN still recognizes Lisbon as the administrator of the territory.	The UN still recognizes Lisbon as the administrator of the territory.	1033940	1471961285695	1471961285775		84
2154	21657	The UN still recognizes Lisbon as the administrator of the territory.	The UN still recognizes Lisbon as the administrator of the territory.	1033945	1471961285903	1471961286023		69
2154	21657	The UN still recognizes Lisbon as the administrator of the territory.	The UN still recognizes Lisbon as the administrator of the territory.	1034042	1471961286087	1471961286175		82
2154	21657	The UN still recognizes Lisbon as the administrator of the territory.	The UN still recognizes Lisbon as the administrator of the territory.	1034049	1471961286255	1471961286343		82
2154	21657	The UN still recognizes Lisbon as the administrator of the territory.	The UN still recognizes Lisbon as the administrator of the territory.	1034054	1471961286383	1471961286519		79
2154	21657	The UN still recognizes Lisbon as the administrator of the territory.	The UN still recognizes Lisbon as the administrator of the territory.	1034058	1471961286719	1471961286791		8
2154	21657	The UN still recognizes Lisbon as the administrator of the territory.	The UN still recognizes Lisbon as the administrator of the territory.	1034065	1471961287063	1471961287175		73
2154	21657	The UN still recognizes Lisbon as the administrator of the territory.	The UN still recognizes Lisbon as the administrator of the territory.	1034287	1471961287247	1471961287351		82
2154	21657	The UN still recognizes Lisbon as the administrator of the territory.	The UN still recognizes Lisbon as the administrator of the territory.	1034291	1471961287631	1471961287695		8
2154	21657	The UN still recognizes Lisbon as the administrator of the territory.	The UN still recognizes Lisbon as the administrator of the territory.	1034294	1471961287719	1471961287807		84
2154	21657	The UN still recognizes Lisbon as the administrator of the territory.	The UN still recognizes Lisbon as the administrator of the territory.	1034300	1471961288015	1471961288151		82
2154	21657	The UN still recognizes Lisbon as the administrator of the territory.	The UN still recognizes Lisbon as the administrator of the territory.	1034304	1471961288703	1471961288775		8
2154	21657	The UN still recognizes Lisbon as the administrator of the territory.	The UN still recognizes Lisbon as the administrator of the territory.	1034407	1471961288935	1471961289039		79
2154	21657	The UN still recognizes Lisbon as the administrator of the territory.	The UN still recognizes Lisbon as the administrator of the territory.	1034416	1471961289143	1471961289255		82
2154	21657	The UN still recognizes Lisbon as the administrator of the territory.	The UN still recognizes Lisbon as the administrator of the territory.	1034424	1471961289287	1471961289391		89
2154	21657	The UN still recognizes Lisbon as the administrator of the territory.	The UN still recognizes Lisbon as the administrator of the territory.	1034429	1471961289567	1471961289695		190
2154	21706	I will need to have my memory refreshed.	I will need to have my memorty refreshed.	1034749	1471961291527	1471961292015	SHIFT	16
2154	21706	I will need to have my memory refreshed.	I will need to have my memorty refreshed.	1034751	1471961291935	1471961292047		73
2154	21706	I will need to have my memory refreshed.	I will need to have my memorty refreshed.	1034755	1471961292055	1471961292239		32
2154	21706	I will need to have my memory refreshed.	I will need to have my memorty refreshed.	1034759	1471961292183	1471961292335		87
2154	21706	I will need to have my memory refreshed.	I will need to have my memorty refreshed.	1034763	1471961292271	1471961292375		73
2154	21706	I will need to have my memory refreshed.	I will need to have my memorty refreshed.	1034768	1471961292439	1471961292503		76
2154	21706	I will need to have my memory refreshed.	I will need to have my memorty refreshed.	1034805	1471961292591	1471961292704		76
2154	21706	I will need to have my memory refreshed.	I will need to have my memorty refreshed.	1034815	1471961292663	1471961292823		32
2154	21706	I will need to have my memory refreshed.	I will need to have my memorty refreshed.	1034833	1471961292767	1471961292903		78
2154	21706	I will need to have my memory refreshed.	I will need to have my memorty refreshed.	1034850	1471961292831	1471961292911		69
2154	21706	I will need to have my memory refreshed.	I will need to have my memorty refreshed.	1034866	1471961292983	1471961293039		69
2154	21706	I will need to have my memory refreshed.	I will need to have my memorty refreshed.	1034928	1471961293263	1471961293399		68
2154	21706	I will need to have my memory refreshed.	I will need to have my memorty refreshed.	1034934	1471961293479	1471961293591		32
2154	21706	I will need to have my memory refreshed.	I will need to have my memorty refreshed.	1034941	1471961293599	1471961293719		84
2154	21706	I will need to have my memory refreshed.	I will need to have my memorty refreshed.	1034948	1471961293663	1471961293823		79
2154	21706	I will need to have my memory refreshed.	I will need to have my memorty refreshed.	1034981	1471961293775	1471961293943		32
2154	21706	I will need to have my memory refreshed.	I will need to have my memorty refreshed.	1034985	1471961293919	1471961294031		72
2154	21706	I will need to have my memory refreshed.	I will need to have my memorty refreshed.	1034993	1471961293991	1471961294086		65
2154	21706	I will need to have my memory refreshed.	I will need to have my memorty refreshed.	1035003	1471961294063	1471961294238		86
2154	21706	I will need to have my memory refreshed.	I will need to have my memorty refreshed.	1035107	1471961294144	1471961294263		69
2154	21706	I will need to have my memory refreshed.	I will need to have my memorty refreshed.	1035111	1471961294231	1471961294406		32
2154	21706	I will need to have my memory refreshed.	I will need to have my memorty refreshed.	1035118	1471961294344	1471961294455		77
2154	21706	I will need to have my memory refreshed.	I will need to have my memorty refreshed.	1035122	1471961294583	1471961294655		89
2154	21706	I will need to have my memory refreshed.	I will need to have my memorty refreshed.	1035128	1471961294671	1471961294927		32
2154	21706	I will need to have my memory refreshed.	I will need to have my memorty refreshed.	1035134	1471961294903	1471961294991		77
2154	21706	I will need to have my memory refreshed.	I will need to have my memorty refreshed.	1035142	1471961295031	1471961295158		69
2154	21706	I will need to have my memory refreshed.	I will need to have my memorty refreshed.	1035214	1471961295103	1471961295230		77
2154	21706	I will need to have my memory refreshed.	I will need to have my memorty refreshed.	1035221	1471961295319	1471961295479		79
2154	21706	I will need to have my memory refreshed.	I will need to have my memorty refreshed.	1035225	1471961295511	1471961295630		82
2154	21706	I will need to have my memory refreshed.	I will need to have my memorty refreshed.	1035233	1471961295711	1471961295822		84
2154	21706	I will need to have my memory refreshed.	I will need to have my memorty refreshed.	1035240	1471961295751	1471961295846		89
2154	21706	I will need to have my memory refreshed.	I will need to have my memorty refreshed.	1035247	1471961295871	1471961296054		32
2154	21706	I will need to have my memory refreshed.	I will need to have my memorty refreshed.	1035350	1471961296047	1471961296183		82
2154	21706	I will need to have my memory refreshed.	I will need to have my memorty refreshed.	1035360	1471961296159	1471961296263		69
2154	21706	I will need to have my memory refreshed.	I will need to have my memorty refreshed.	1035367	1471961296425	1471961296519		70
2154	21706	I will need to have my memory refreshed.	I will need to have my memorty refreshed.	1035378	1471961296615	1471961296735		82
2154	21706	I will need to have my memory refreshed.	I will need to have my memorty refreshed.	1035385	1471961296727	1471961296839		69
2154	21706	I will need to have my memory refreshed.	I will need to have my memorty refreshed.	1035391	1471961296951	1471961297086		83
2154	21706	I will need to have my memory refreshed.	I will need to have my memorty refreshed.	1035504	1471961297167	1471961297318		72
2154	21706	I will need to have my memory refreshed.	I will need to have my memorty refreshed.	1035511	1471961297303	1471961297422		69
2154	21706	I will need to have my memory refreshed.	I will need to have my memorty refreshed.	1035518	1471961297639	1471961297767		68
2154	21706	I will need to have my memory refreshed.	I will need to have my memorty refreshed.	1035524	1471961298071	1471961298190		190
2154	21731	I cannot figure out where these prices are coming from.	I cannot figure out where these prices are coming from.	1035807	1471961300046	1471961300318	SHIFT	16
2154	21731	I cannot figure out where these prices are coming from.	I cannot figure out where these prices are coming from.	1035818	1471961300207	1471961300350		73
2154	21731	I cannot figure out where these prices are coming from.	I cannot figure out where these prices are coming from.	1035827	1471961300351	1471961300518		32
2154	21731	I cannot figure out where these prices are coming from.	I cannot figure out where these prices are coming from.	1035839	1471961300527	1471961300671		67
2154	21731	I cannot figure out where these prices are coming from.	I cannot figure out where these prices are coming from.	1035849	1471961300655	1471961300799		65
2154	21731	I cannot figure out where these prices are coming from.	I cannot figure out where these prices are coming from.	1035944	1471961300743	1471961300814		78
2154	21731	I cannot figure out where these prices are coming from.	I cannot figure out where these prices are coming from.	1035951	1471961300895	1471961300998		78
2154	21731	I cannot figure out where these prices are coming from.	I cannot figure out where these prices are coming from.	1035961	1471961300983	1471961301134		79
2154	21731	I cannot figure out where these prices are coming from.	I cannot figure out where these prices are coming from.	1035974	1471961301215	1471961301326		84
2154	21731	I cannot figure out where these prices are coming from.	I cannot figure out where these prices are coming from.	1035984	1471961301319	1471961301454		32
2154	21731	I cannot figure out where these prices are coming from.	I cannot figure out where these prices are coming from.	1035994	1471961301527	1471961301639		70
2154	21731	I cannot figure out where these prices are coming from.	I cannot figure out where these prices are coming from.	1036026	1471961301631	1471961301742		73
2154	21731	I cannot figure out where these prices are coming from.	I cannot figure out where these prices are coming from.	1036029	1471961301766	1471961301854		71
2154	21731	I cannot figure out where these prices are coming from.	I cannot figure out where these prices are coming from.	1036034	1471961301886	1471961302006		85
2154	21731	I cannot figure out where these prices are coming from.	I cannot figure out where these prices are coming from.	1036045	1471961301967	1471961302118		82
2154	21731	I cannot figure out where these prices are coming from.	I cannot figure out where these prices are coming from.	1036054	1471961302062	1471961302160		69
2154	21731	I cannot figure out where these prices are coming from.	I cannot figure out where these prices are coming from.	1036129	1471961302134	1471961302302		32
2154	21731	I cannot figure out where these prices are coming from.	I cannot figure out where these prices are coming from.	1036136	1471961302327	1471961302494		79
2154	21731	I cannot figure out where these prices are coming from.	I cannot figure out where these prices are coming from.	1036142	1471961302399	1471961302518		85
2154	21731	I cannot figure out where these prices are coming from.	I cannot figure out where these prices are coming from.	1036148	1471961302487	1471961302607		84
2154	21731	I cannot figure out where these prices are coming from.	I cannot figure out where these prices are coming from.	1036156	1471961302591	1471961302758		32
2154	21731	I cannot figure out where these prices are coming from.	I cannot figure out where these prices are coming from.	1036162	1471961302831	1471961302944		87
2154	21731	I cannot figure out where these prices are coming from.	I cannot figure out where these prices are coming from.	1036177	1471961302911	1471961303030		72
2154	21731	I cannot figure out where these prices are coming from.	I cannot figure out where these prices are coming from.	1036181	1471961302975	1471961303102		69
2154	21731	I cannot figure out where these prices are coming from.	I cannot figure out where these prices are coming from.	1036191	1471961303078	1471961303262		82
2154	21731	I cannot figure out where these prices are coming from.	I cannot figure out where these prices are coming from.	1036202	1471961303191	1471961303302		69
2154	21731	I cannot figure out where these prices are coming from.	I cannot figure out where these prices are coming from.	1036210	1471961303279	1471961303391		32
2154	21731	I cannot figure out where these prices are coming from.	I cannot figure out where these prices are coming from.	1036278	1471961303375	1471961303478		84
2154	21731	I cannot figure out where these prices are coming from.	I cannot figure out where these prices are coming from.	1036285	1471961303439	1471961303543		72
2154	21731	I cannot figure out where these prices are coming from.	I cannot figure out where these prices are coming from.	1036292	1471961303494	1471961303614		69
2154	21731	I cannot figure out where these prices are coming from.	I cannot figure out where these prices are coming from.	1036302	1471961303750	1471961303846		83
2154	21731	I cannot figure out where these prices are coming from.	I cannot figure out where these prices are coming from.	1036314	1471961303886	1471961304006		69
2154	21731	I cannot figure out where these prices are coming from.	I cannot figure out where these prices are coming from.	1036320	1471961304022	1471961304160		32
2154	21731	I cannot figure out where these prices are coming from.	I cannot figure out where these prices are coming from.	1036364	1471961304159	1471961304270		80
2154	21731	I cannot figure out where these prices are coming from.	I cannot figure out where these prices are coming from.	1036374	1471961304254	1471961304374		82
2154	21731	I cannot figure out where these prices are coming from.	I cannot figure out where these prices are coming from.	1036381	1471961304407	1471961304534		73
2154	21731	I cannot figure out where these prices are coming from.	I cannot figure out where these prices are coming from.	1036391	1471961304527	1471961304694		67
2154	21731	I cannot figure out where these prices are coming from.	I cannot figure out where these prices are coming from.	1036402	1471961304638	1471961304806		69
2154	21731	I cannot figure out where these prices are coming from.	I cannot figure out where these prices are coming from.	1036445	1471961304790	1471961304919		83
2154	21731	I cannot figure out where these prices are coming from.	I cannot figure out where these prices are coming from.	1036453	1471961304958	1471961305110		32
2154	21731	I cannot figure out where these prices are coming from.	I cannot figure out where these prices are coming from.	1036470	1471961305054	1471961305182		65
2154	21731	I cannot figure out where these prices are coming from.	I cannot figure out where these prices are coming from.	1036486	1471961305150	1471961305326		82
2154	21731	I cannot figure out where these prices are coming from.	I cannot figure out where these prices are coming from.	1036499	1471961305238	1471961305366		69
2154	21731	I cannot figure out where these prices are coming from.	I cannot figure out where these prices are coming from.	1036551	1471961305334	1471961305479		32
2154	21731	I cannot figure out where these prices are coming from.	I cannot figure out where these prices are coming from.	1036557	1471961305502	1471961305606		67
2154	21731	I cannot figure out where these prices are coming from.	I cannot figure out where these prices are coming from.	1036563	1471961305527	1471961305670		79
2154	21731	I cannot figure out where these prices are coming from.	I cannot figure out where these prices are coming from.	1036568	1471961305614	1471961305702		77
2154	21731	I cannot figure out where these prices are coming from.	I cannot figure out where these prices are coming from.	1036573	1471961305758	1471961305950		73
2154	21731	I cannot figure out where these prices are coming from.	I cannot figure out where these prices are coming from.	1036632	1471961305846	1471961305982		78
2154	21731	I cannot figure out where these prices are coming from.	I cannot figure out where these prices are coming from.	1036637	1471961305918	1471961306030		71
2154	21731	I cannot figure out where these prices are coming from.	I cannot figure out where these prices are coming from.	1036643	1471961306054	1471961306214		32
2154	21731	I cannot figure out where these prices are coming from.	I cannot figure out where these prices are coming from.	1036658	1471961306158	1471961306262		70
2154	21731	I cannot figure out where these prices are coming from.	I cannot figure out where these prices are coming from.	1036666	1471961306350	1471961306446		82
2154	21731	I cannot figure out where these prices are coming from.	I cannot figure out where these prices are coming from.	1036680	1471961306374	1471961306534		79
2154	21731	I cannot figure out where these prices are coming from.	I cannot figure out where these prices are coming from.	1036720	1471961306486	1471961306566		77
2154	21731	I cannot figure out where these prices are coming from.	I cannot figure out where these prices are coming from.	1036726	1471961306686	1471961306838		190
2154	21753	Have not added Westport on yet.	Have not addes Westport on yet.	1037123	1471961309046	1471961309502	SHIFT	16
2154	21753	Have not added Westport on yet.	Have not addes Westport on yet.	1037131	1471961309454	1471961309567		72
2154	21753	Have not added Westport on yet.	Have not addes Westport on yet.	1037139	1471961309622	1471961309758		65
2154	21753	Have not added Westport on yet.	Have not addes Westport on yet.	1037143	1471961309766	1471961309934		86
2154	21753	Have not added Westport on yet.	Have not addes Westport on yet.	1037150	1471961309847	1471961309958		69
2154	21753	Have not added Westport on yet.	Have not addes Westport on yet.	1037216	1471961309942	1471961310118		32
2154	21753	Have not added Westport on yet.	Have not addes Westport on yet.	1037223	1471961310078	1471961310214		78
2154	21753	Have not added Westport on yet.	Have not addes Westport on yet.	1037230	1471961310158	1471961310302		79
2154	21753	Have not added Westport on yet.	Have not addes Westport on yet.	1037235	1471961310294	1471961310406		84
2154	21753	Have not added Westport on yet.	Have not addes Westport on yet.	1037242	1471961310398	1471961310558		32
2154	21753	Have not added Westport on yet.	Have not addes Westport on yet.	1037319	1471961310510	1471961310646		65
2154	21753	Have not added Westport on yet.	Have not addes Westport on yet.	1037328	1471961310638	1471961310734		68
2154	21753	Have not added Westport on yet.	Have not addes Westport on yet.	1037340	1471961310822	1471961310918		68
2154	21753	Have not added Westport on yet.	Have not addes Westport on yet.	1037351	1471961311006	1471961311126		69
2154	21753	Have not added Westport on yet.	Have not addes Westport on yet.	1037360	1471961311110	1471961311230		83
2154	21753	Have not added Westport on yet.	Have not addes Westport on yet.	1037370	1471961311254	1471961311422		32
2154	21753	Have not added Westport on yet.	Have not addes Westport on yet.	1037434	1471961311374	1471961311574	SHIFT	16
2154	21753	Have not added Westport on yet.	Have not addes Westport on yet.	1037443	1471961311494	1471961311598		87
2154	21753	Have not added Westport on yet.	Have not addes Westport on yet.	1037455	1471961311686	1471961311798		69
2154	21753	Have not added Westport on yet.	Have not addes Westport on yet.	1037465	1471961311878	1471961311990		83
2154	21753	Have not added Westport on yet.	Have not addes Westport on yet.	1037472	1471961311998	1471961312102		84
2154	21753	Have not added Westport on yet.	Have not addes Westport on yet.	1037479	1471961312222	1471961312310		80
2154	21753	Have not added Westport on yet.	Have not addes Westport on yet.	1037511	1471961312358	1471961312495		79
2154	21753	Have not added Westport on yet.	Have not addes Westport on yet.	1037515	1471961312454	1471961312558		82
2154	21753	Have not added Westport on yet.	Have not addes Westport on yet.	1037519	1471961312638	1471961312718		84
2154	21753	Have not added Westport on yet.	Have not addes Westport on yet.	1037525	1471961312742	1471961312862		32
2154	21753	Have not added Westport on yet.	Have not addes Westport on yet.	1037585	1471961312814	1471961312982		79
2154	21753	Have not added Westport on yet.	Have not addes Westport on yet.	1037593	1471961312910	1471961313022		78
2154	21753	Have not added Westport on yet.	Have not addes Westport on yet.	1037603	1471961313030	1471961313142		32
2154	21753	Have not added Westport on yet.	Have not addes Westport on yet.	1037612	1471961313206	1471961313318		89
2154	21753	Have not added Westport on yet.	Have not addes Westport on yet.	1037620	1471961313326	1471961313454		69
2154	21753	Have not added Westport on yet.	Have not addes Westport on yet.	1037632	1471961313422	1471961313534		84
2154	21753	Have not added Westport on yet.	Have not addes Westport on yet.	1037636	1471961313614	1471961313710		190
2154	21779	I doubt that it is forecasted.	I doubt that it forcasted.	1037986	1471961315542	1471961315870	SHIFT	16
2154	21779	I doubt that it is forecasted.	I doubt that it forcasted.	1037993	1471961315790	1471961315902		73
2154	21779	I doubt that it is forecasted.	I doubt that it forcasted.	1038003	1471961315918	1471961316110		32
2154	21779	I doubt that it is forecasted.	I doubt that it forcasted.	1038010	1471961316238	1471961316382		68
2154	21779	I doubt that it is forecasted.	I doubt that it forcasted.	1038015	1471961316342	1471961316454		79
2154	21779	I doubt that it is forecasted.	I doubt that it forcasted.	1038066	1471961316422	1471961316527		85
2154	21779	I doubt that it is forecasted.	I doubt that it forcasted.	1038076	1471961316502	1471961316606		66
2154	21779	I doubt that it is forecasted.	I doubt that it forcasted.	1038088	1471961316710	1471961316798		84
2154	21779	I doubt that it is forecasted.	I doubt that it forcasted.	1038095	1471961316886	1471961317030		32
2154	21779	I doubt that it is forecasted.	I doubt that it forcasted.	1038107	1471961317038	1471961317165		84
2154	21779	I doubt that it is forecasted.	I doubt that it forcasted.	1038176	1471961317158	1471961317270		72
2154	21779	I doubt that it is forecasted.	I doubt that it forcasted.	1038179	1471961317206	1471961317349		65
2154	21779	I doubt that it is forecasted.	I doubt that it forcasted.	1038186	1471961317286	1471961317423		84
2154	21779	I doubt that it is forecasted.	I doubt that it forcasted.	1038193	1471961317406	1471961317566		32
2154	21779	I doubt that it is forecasted.	I doubt that it forcasted.	1038201	1471961317622	1471961317734		73
2154	21779	I doubt that it is forecasted.	I doubt that it forcasted.	1038208	1471961317798	1471961317917		84
2154	21779	I doubt that it is forecasted.	I doubt that it forcasted.	1038398	1471961317990	1471961318222		32
2154	21779	I doubt that it is forecasted.	I doubt that it forcasted.	1038407	1471961318750	1471961318870		70
2154	21779	I doubt that it is forecasted.	I doubt that it forcasted.	1038416	1471961318878	1471961319062		79
2154	21779	I doubt that it is forecasted.	I doubt that it forcasted.	1038425	1471961319062	1471961319173		82
2154	21779	I doubt that it is forecasted.	I doubt that it forcasted.	1038436	1471961319342	1471961319485		67
2154	21779	I doubt that it is forecasted.	I doubt that it forcasted.	1038513	1471961319462	1471961319597		65
2154	21779	I doubt that it is forecasted.	I doubt that it forcasted.	1038520	1471961319614	1471961319733		83
2154	21779	I doubt that it is forecasted.	I doubt that it forcasted.	1038530	1471961319750	1471961319853		84
2154	21779	I doubt that it is forecasted.	I doubt that it forcasted.	1038541	1471961319886	1471961319981		69
2154	21779	I doubt that it is forecasted.	I doubt that it forcasted.	1038551	1471961320094	1471961320181		68
2154	21779	I doubt that it is forecasted.	I doubt that it forcasted.	1038560	1471961320214	1471961320285		190
2154	21794	We don't seem to have any positive income there.	We don't seem to have any positive income there.	1038861	1471961321966	1471961322389	SHIFT	16
2154	21794	We don't seem to have any positive income there.	We don't seem to have any positive income there.	1038867	1471961322293	1471961322405		87
2154	21794	We don't seem to have any positive income there.	We don't seem to have any positive income there.	1038877	1471961322502	1471961322629		69
2154	21794	We don't seem to have any positive income there.	We don't seem to have any positive income there.	1038886	1471961322702	1471961322837		32
2154	21794	We don't seem to have any positive income there.	We don't seem to have any positive income there.	1038894	1471961322766	1471961322877		68
2154	21794	We don't seem to have any positive income there.	We don't seem to have any positive income there.	1038981	1471961322846	1471961322997		79
2154	21794	We don't seem to have any positive income there.	We don't seem to have any positive income there.	1038990	1471961322926	1471961323093		78
2154	21794	We don't seem to have any positive income there.	We don't seem to have any positive income there.	1038999	1471961323062	1471961323205		222
2154	21794	We don't seem to have any positive income there.	We don't seem to have any positive income there.	1039012	1471961323221	1471961323325		84
2154	21794	We don't seem to have any positive income there.	We don't seem to have any positive income there.	1039025	1471961323421	1471961323581		32
2154	21794	We don't seem to have any positive income there.	We don't seem to have any positive income there.	1039036	1471961323662	1471961323789		72
2154	21794	We don't seem to have any positive income there.	We don't seem to have any positive income there.	1039164	1471961323742	1471961323837		65
2154	21794	We don't seem to have any positive income there.	We don't seem to have any positive income there.	1039175	1471961324045	1471961324109		8
2154	21794	We don't seem to have any positive income there.	We don't seem to have any positive income there.	1039184	1471961324197	1471961324238		8
2154	21794	We don't seem to have any positive income there.	We don't seem to have any positive income there.	1039192	1471961324486	1471961324589		83
2154	21794	We don't seem to have any positive income there.	We don't seem to have any positive income there.	1039201	1471961324574	1471961324693		69
2154	21794	We don't seem to have any positive income there.	We don't seem to have any positive income there.	1039208	1471961324774	1471961324877		69
2154	21794	We don't seem to have any positive income there.	We don't seem to have any positive income there.	1039277	1471961324958	1471961324990		32
2154	21794	We don't seem to have any positive income there.	We don't seem to have any positive income there.	1039287	1471961325206	1471961325269		8
2154	21794	We don't seem to have any positive income there.	We don't seem to have any positive income there.	1039298	1471961325405	1471961325493		77
2154	21794	We don't seem to have any positive income there.	We don't seem to have any positive income there.	1039306	1471961325549	1471961325701		32
2154	21794	We don't seem to have any positive income there.	We don't seem to have any positive income there.	1039314	1471961325717	1471961325837		84
2154	21794	We don't seem to have any positive income there.	We don't seem to have any positive income there.	1039344	1471961325773	1471961325933		79
2154	21794	We don't seem to have any positive income there.	We don't seem to have any positive income there.	1039351	1471961325893	1471961326022		32
2154	21794	We don't seem to have any positive income there.	We don't seem to have any positive income there.	1039358	1471961325981	1471961326093		72
2154	21794	We don't seem to have any positive income there.	We don't seem to have any positive income there.	1039364	1471961326005	1471961326125		65
2154	21794	We don't seem to have any positive income there.	We don't seem to have any positive income there.	1039440	1471961326109	1471961326293		86
2154	21794	We don't seem to have any positive income there.	We don't seem to have any positive income there.	1039370	1471961326181	1471961326285		69
2154	21794	We don't seem to have any positive income there.	We don't seem to have any positive income there.	1039446	1471961326277	1471961326397		32
2154	21794	We don't seem to have any positive income there.	We don't seem to have any positive income there.	1039450	1471961326365	1471961326487		65
2154	21794	We don't seem to have any positive income there.	We don't seem to have any positive income there.	1039455	1471961326453	1471961326549		78
2154	21794	We don't seem to have any positive income there.	We don't seem to have any positive income there.	1039461	1471961326645	1471961326717		89
2154	21794	We don't seem to have any positive income there.	We don't seem to have any positive income there.	1039465	1471961326765	1471961326981		32
2154	21794	We don't seem to have any positive income there.	We don't seem to have any positive income there.	1039539	1471961326933	1471961326997		80
2154	21794	We don't seem to have any positive income there.	We don't seem to have any positive income there.	1039548	1471961327116	1471961327237		79
2154	21794	We don't seem to have any positive income there.	We don't seem to have any positive income there.	1039559	1471961327253	1471961327349		83
2154	21794	We don't seem to have any positive income there.	We don't seem to have any positive income there.	1039566	1471961327469	1471961327573		73
2154	21794	We don't seem to have any positive income there.	We don't seem to have any positive income there.	1039573	1471961327581	1471961327685		84
2154	21794	We don't seem to have any positive income there.	We don't seem to have any positive income there.	1039581	1471961327758	1471961327869		73
2154	21794	We don't seem to have any positive income there.	We don't seem to have any positive income there.	1039672	1471961328429	1471961328637		86
2154	21794	We don't seem to have any positive income there.	We don't seem to have any positive income there.	1039678	1471961328525	1471961328653		69
2154	21794	We don't seem to have any positive income there.	We don't seem to have any positive income there.	1039688	1471961328685	1471961328877		32
2154	21794	We don't seem to have any positive income there.	We don't seem to have any positive income there.	1039697	1471961329069	1471961329221		73
2154	21794	We don't seem to have any positive income there.	We don't seem to have any positive income there.	1039765	1471961329189	1471961329309		78
2154	21794	We don't seem to have any positive income there.	We don't seem to have any positive income there.	1039771	1471961329341	1471961329477		67
2154	21794	We don't seem to have any positive income there.	We don't seem to have any positive income there.	1039778	1471961329413	1471961329597		79
2154	21794	We don't seem to have any positive income there.	We don't seem to have any positive income there.	1039784	1471961329501	1471961329621		77
2154	21794	We don't seem to have any positive income there.	We don't seem to have any positive income there.	1039787	1471961329573	1471961329701		69
2154	21794	We don't seem to have any positive income there.	We don't seem to have any positive income there.	1039793	1471961329709	1471961329853		32
2154	21794	We don't seem to have any positive income there.	We don't seem to have any positive income there.	1039831	1471961329813	1471961329917		84
2154	21794	We don't seem to have any positive income there.	We don't seem to have any positive income there.	1039839	1471961329893	1471961329998		72
2154	21794	We don't seem to have any positive income there.	We don't seem to have any positive income there.	1039847	1471961329965	1471961330085		69
2154	21794	We don't seem to have any positive income there.	We don't seem to have any positive income there.	1039852	1471961330053	1471961330213		82
2154	21794	We don't seem to have any positive income there.	We don't seem to have any positive income there.	1039860	1471961330173	1471961330269		69
2154	21794	We don't seem to have any positive income there.	We don't seem to have any positive income there.	1039865	1471961330277	1471961330389		190
2154	21820	Jeff, attached is my resume.	Jeff, attached is my resume.	1040196	1471961332189	1471961332669	SHIFT	16
2154	21820	Jeff, attached is my resume.	Jeff, attached is my resume.	1040200	1471961332597	1471961332741		74
2154	21820	Jeff, attached is my resume.	Jeff, attached is my resume.	1040206	1471961332781	1471961332909		69
2154	21820	Jeff, attached is my resume.	Jeff, attached is my resume.	1040214	1471961333013	1471961333109		70
2154	21820	Jeff, attached is my resume.	Jeff, attached is my resume.	1040220	1471961333201	1471961333285		70
2154	21820	Jeff, attached is my resume.	Jeff, attached is my resume.	1040227	1471961333413	1471961333557		188
2154	21820	Jeff, attached is my resume.	Jeff, attached is my resume.	1040301	1471961333549	1471961333749		32
2154	21820	Jeff, attached is my resume.	Jeff, attached is my resume.	1040309	1471961333693	1471961333821		65
2154	21820	Jeff, attached is my resume.	Jeff, attached is my resume.	1040316	1471961333837	1471961333917		84
2154	21820	Jeff, attached is my resume.	Jeff, attached is my resume.	1040323	1471961333997	1471961334093		84
2154	21820	Jeff, attached is my resume.	Jeff, attached is my resume.	1040327	1471961334101	1471961334317		65
2154	21820	Jeff, attached is my resume.	Jeff, attached is my resume.	1040335	1471961334325	1471961334469		67
2154	21820	Jeff, attached is my resume.	Jeff, attached is my resume.	1040414	1471961334453	1471961334581		72
2154	21820	Jeff, attached is my resume.	Jeff, attached is my resume.	1040419	1471961334573	1471961334725		69
2154	21820	Jeff, attached is my resume.	Jeff, attached is my resume.	1040423	1471961334845	1471961334981		68
2154	21820	Jeff, attached is my resume.	Jeff, attached is my resume.	1040433	1471961335037	1471961335189		32
2154	21820	Jeff, attached is my resume.	Jeff, attached is my resume.	1040444	1471961335333	1471961335469		73
2154	21820	Jeff, attached is my resume.	Jeff, attached is my resume.	1040553	1471961335453	1471961335589		83
2154	21820	Jeff, attached is my resume.	Jeff, attached is my resume.	1040556	1471961335581	1471961335765		32
2154	21820	Jeff, attached is my resume.	Jeff, attached is my resume.	1040561	1471961335949	1471961336053		77
2154	21820	Jeff, attached is my resume.	Jeff, attached is my resume.	1040565	1471961336173	1471961336269		89
2154	21820	Jeff, attached is my resume.	Jeff, attached is my resume.	1040570	1471961336301	1471961336493		32
2154	21820	Jeff, attached is my resume.	Jeff, attached is my resume.	1040651	1471961336421	1471961336597		82
2154	21820	Jeff, attached is my resume.	Jeff, attached is my resume.	1040659	1471961336533	1471961336645		69
2154	21820	Jeff, attached is my resume.	Jeff, attached is my resume.	1040666	1471961336773	1471961336877		83
2154	21820	Jeff, attached is my resume.	Jeff, attached is my resume.	1040672	1471961336853	1471961336957		85
2154	21820	Jeff, attached is my resume.	Jeff, attached is my resume.	1040680	1471961337077	1471961337181		77
2154	21820	Jeff, attached is my resume.	Jeff, attached is my resume.	1040688	1471961337197	1471961337317		69
2154	21820	Jeff, attached is my resume.	Jeff, attached is my resume.	1040697	1471961337421	1471961337541		190
2154	21841	I just tracked down Steve.	I just tracked down Steve.	1040985	1471961339133	1471961339357	SHIFT	16
2154	21841	I just tracked down Steve.	I just tracked down Steve.	1040989	1471961339266	1471961339383		73
2154	21841	I just tracked down Steve.	I just tracked down Steve.	1040996	1471961339421	1471961339589		32
2154	21841	I just tracked down Steve.	I just tracked down Steve.	1041005	1471961339845	1471961339941		74
2154	21841	I just tracked down Steve.	I just tracked down Steve.	1041015	1471961340021	1471961340133		85
2154	21841	I just tracked down Steve.	I just tracked down Steve.	1041075	1471961340093	1471961340205		83
2154	21841	I just tracked down Steve.	I just tracked down Steve.	1041082	1471961340197	1471961340300		84
2154	21841	I just tracked down Steve.	I just tracked down Steve.	1041091	1471961340349	1471961340532		32
2154	21841	I just tracked down Steve.	I just tracked down Steve.	1041100	1471961340485	1471961340581		84
2154	21841	I just tracked down Steve.	I just tracked down Steve.	1041108	1471961340661	1471961340782		82
2154	21841	I just tracked down Steve.	I just tracked down Steve.	1041155	1471961340781	1471961340982		65
2154	21841	I just tracked down Steve.	I just tracked down Steve.	1041158	1471961340973	1471961341093		67
2154	21841	I just tracked down Steve.	I just tracked down Steve.	1041164	1471961341061	1471961341189		75
2154	21841	I just tracked down Steve.	I just tracked down Steve.	1041168	1471961341149	1471961341236		69
2154	21841	I just tracked down Steve.	I just tracked down Steve.	1041175	1471961341333	1471961341452		68
2154	21841	I just tracked down Steve.	I just tracked down Steve.	1041241	1471961341445	1471961341580		32
2154	21841	I just tracked down Steve.	I just tracked down Steve.	1041251	1471961341573	1471961341654		68
2154	21841	I just tracked down Steve.	I just tracked down Steve.	1041254	1471961341621	1471961341756		79
2154	21841	I just tracked down Steve.	I just tracked down Steve.	1041261	1471961341773	1471961341901		87
2154	21841	I just tracked down Steve.	I just tracked down Steve.	1041266	1471961341853	1471961341988		78
2154	21841	I just tracked down Steve.	I just tracked down Steve.	1041271	1471961341997	1471961342196		32
2154	21841	I just tracked down Steve.	I just tracked down Steve.	1041331	1471961342253	1471961342452	SHIFT	16
2154	21841	I just tracked down Steve.	I just tracked down Steve.	1041343	1471961342341	1471961342476		83
2154	21841	I just tracked down Steve.	I just tracked down Steve.	1041354	1471961342661	1471961342772		84
2154	21841	I just tracked down Steve.	I just tracked down Steve.	1041367	1471961342797	1471961342900		69
2154	21841	I just tracked down Steve.	I just tracked down Steve.	1041373	1471961342989	1471961343116		86
2154	21841	I just tracked down Steve.	I just tracked down Steve.	1041385	1471961343077	1471961343188		69
2154	21841	I just tracked down Steve.	I just tracked down Steve.	1041393	1471961343204	1471961343308		190
2154	21853	The troops just walked in.	The troops just walked in.	1041621	1471961344876	1471961345148	SHIFT	16
2154	21853	The troops just walked in.	The troops just walked in.	1041627	1471961345100	1471961345228		84
2154	21853	The troops just walked in.	The troops just walked in.	1041634	1471961345181	1471961345291		72
2154	21853	The troops just walked in.	The troops just walked in.	1041639	1471961345333	1471961345460		69
2154	21853	The troops just walked in.	The troops just walked in.	1041648	1471961345493	1471961345701		32
2154	21853	The troops just walked in.	The troops just walked in.	1041712	1471961345677	1471961345764		84
2154	21853	The troops just walked in.	The troops just walked in.	1041722	1471961345868	1471961345964		82
2154	21853	The troops just walked in.	The troops just walked in.	1041733	1471961345972	1471961346060		79
2154	21853	The troops just walked in.	The troops just walked in.	1041744	1471961346141	1471961346260		79
2154	21853	The troops just walked in.	The troops just walked in.	1041753	1471961346301	1471961346436		80
2154	21853	The troops just walked in.	The troops just walked in.	1041830	1471961346405	1471961346556		83
2154	21853	The troops just walked in.	The troops just walked in.	1041837	1471961346508	1471961346676		32
2154	21853	The troops just walked in.	The troops just walked in.	1041851	1471961346925	1471961346996		74
2154	21853	The troops just walked in.	The troops just walked in.	1041862	1471961347076	1471961347196		85
2154	21853	The troops just walked in.	The troops just walked in.	1041869	1471961347172	1471961347268		83
2154	21853	The troops just walked in.	The troops just walked in.	1041906	1471961347253	1471961347388		84
2154	21853	The troops just walked in.	The troops just walked in.	1041913	1471961347396	1471961347548		32
2154	21853	The troops just walked in.	The troops just walked in.	1041920	1471961347556	1471961347676		87
2154	21853	The troops just walked in.	The troops just walked in.	1041931	1471961347684	1471961347813		65
2154	21853	The troops just walked in.	The troops just walked in.	1041938	1471961347772	1471961347917		76
2154	21853	The troops just walked in.	The troops just walked in.	1041976	1471961347884	1471961348004		75
2154	21853	The troops just walked in.	The troops just walked in.	1041984	1471961347996	1471961348084		69
2154	21853	The troops just walked in.	The troops just walked in.	1041991	1471961348188	1471961348308		68
2154	21853	The troops just walked in.	The troops just walked in.	1042002	1471961348292	1471961348444		32
2154	21853	The troops just walked in.	The troops just walked in.	1042032	1471961348341	1471961348476		73
2154	21853	The troops just walked in.	The troops just walked in.	1042037	1471961348436	1471961348524		78
2154	21853	The troops just walked in.	The troops just walked in.	1042045	1471961348612	1471961348780		190
2154	21861	We are going to send some money to a fund to help the victims.	We are going to send some money to a funt to help the victims.	1042272	1471961350468	1471961350700	SHIFT	16
2154	21861	We are going to send some money to a fund to help the victims.	We are going to send some money to a funt to help the victims.	1042276	1471961350668	1471961350780		87
2154	21861	We are going to send some money to a fund to help the victims.	We are going to send some money to a funt to help the victims.	1042281	1471961350812	1471961350940		69
2154	21861	We are going to send some money to a fund to help the victims.	We are going to send some money to a funt to help the victims.	1042287	1471961350956	1471961351132		32
2154	21861	We are going to send some money to a fund to help the victims.	We are going to send some money to a funt to help the victims.	1042294	1471961351060	1471961351188		65
2154	21861	We are going to send some money to a fund to help the victims.	We are going to send some money to a funt to help the victims.	1042341	1471961351148	1471961351340		82
2154	21861	We are going to send some money to a fund to help the victims.	We are going to send some money to a funt to help the victims.	1042346	1471961351220	1471961351364		69
2154	21861	We are going to send some money to a fund to help the victims.	We are going to send some money to a funt to help the victims.	1042351	1471961351341	1471961351516		32
2154	21861	We are going to send some money to a fund to help the victims.	We are going to send some money to a funt to help the victims.	1042356	1471961351533	1471961351637		71
2154	21861	We are going to send some money to a fund to help the victims.	We are going to send some money to a funt to help the victims.	1042365	1471961351631	1471961351756		79
2154	21861	We are going to send some money to a fund to help the victims.	We are going to send some money to a funt to help the victims.	1042382	1471961351685	1471961351838		73
2154	21861	We are going to send some money to a fund to help the victims.	We are going to send some money to a funt to help the victims.	1042388	1471961351772	1471961351916		78
2154	21861	We are going to send some money to a fund to help the victims.	We are going to send some money to a funt to help the victims.	1042396	1471961351836	1471961351940		71
2154	21861	We are going to send some money to a fund to help the victims.	We are going to send some money to a funt to help the victims.	1042405	1471961351924	1471961352061		32
2154	21861	We are going to send some money to a fund to help the victims.	We are going to send some money to a funt to help the victims.	1042415	1471961352053	1471961352132		84
2154	21861	We are going to send some money to a fund to help the victims.	We are going to send some money to a funt to help the victims.	1042495	1471961352100	1471961352284		79
2154	21861	We are going to send some money to a fund to help the victims.	We are going to send some money to a funt to help the victims.	1042503	1471961352300	1471961352516		32
2154	21861	We are going to send some money to a fund to help the victims.	We are going to send some money to a funt to help the victims.	1042510	1471961352572	1471961352676		83
2154	21861	We are going to send some money to a fund to help the victims.	We are going to send some money to a funt to help the victims.	1042519	1471961352684	1471961352812		69
2154	21861	We are going to send some money to a fund to help the victims.	We are going to send some money to a funt to help the victims.	1042524	1471961352820	1471961352956		78
2154	21861	We are going to send some money to a fund to help the victims.	We are going to send some money to a funt to help the victims.	1042533	1471961352964	1471961353092		68
2154	21861	We are going to send some money to a fund to help the victims.	We are going to send some money to a funt to help the victims.	1042546	1471961353100	1471961353268		32
2154	21861	We are going to send some money to a fund to help the victims.	We are going to send some money to a funt to help the victims.	1042552	1471961353284	1471961353420		83
2154	21861	We are going to send some money to a fund to help the victims.	We are going to send some money to a funt to help the victims.	1042558	1471961353364	1471961353484		79
2154	21861	We are going to send some money to a fund to help the victims.	We are going to send some money to a funt to help the victims.	1042564	1471961353412	1471961353556		77
2154	21861	We are going to send some money to a fund to help the victims.	We are going to send some money to a funt to help the victims.	1042618	1471961353508	1471961353629		69
2154	21861	We are going to send some money to a fund to help the victims.	We are going to send some money to a funt to help the victims.	1042625	1471961353620	1471961353828		32
2154	21861	We are going to send some money to a fund to help the victims.	We are going to send some money to a funt to help the victims.	1042634	1471961353796	1471961353876		77
2154	21861	We are going to send some money to a fund to help the victims.	We are going to send some money to a funt to help the victims.	1042644	1471961353876	1471961354020		79
2154	21861	We are going to send some money to a fund to help the victims.	We are going to send some money to a funt to help the victims.	1042654	1471961353988	1471961354076		78
2154	21861	We are going to send some money to a fund to help the victims.	We are going to send some money to a funt to help the victims.	1042661	1471961354084	1471961354220		69
2154	21861	We are going to send some money to a fund to help the victims.	We are going to send some money to a funt to help the victims.	1042682	1471961354212	1471961354316		89
2154	21861	We are going to send some money to a fund to help the victims.	We are going to send some money to a funt to help the victims.	1042686	1471961354348	1471961354469		32
2154	21861	We are going to send some money to a fund to help the victims.	We are going to send some money to a funt to help the victims.	1042694	1471961354436	1471961354532		84
2154	21861	We are going to send some money to a fund to help the victims.	We are going to send some money to a funt to help the victims.	1042706	1471961354508	1471961354669		79
2154	21861	We are going to send some money to a fund to help the victims.	We are going to send some money to a funt to help the victims.	1042717	1471961354628	1471961354716		32
2154	21861	We are going to send some money to a fund to help the victims.	We are going to send some money to a funt to help the victims.	1042785	1471961354676	1471961354804		65
2154	21861	We are going to send some money to a fund to help the victims.	We are going to send some money to a funt to help the victims.	1042790	1471961354836	1471961354964		32
2154	21861	We are going to send some money to a fund to help the victims.	We are going to send some money to a funt to help the victims.	1042797	1471961355028	1471961355156		70
2154	21861	We are going to send some money to a fund to help the victims.	We are going to send some money to a funt to help the victims.	1042806	1471961355084	1471961355196		85
2154	21861	We are going to send some money to a fund to help the victims.	We are going to send some money to a funt to help the victims.	1042819	1471961355292	1471961355404		78
2154	21861	We are going to send some money to a fund to help the victims.	We are going to send some money to a funt to help the victims.	1042900	1471961355388	1471961355500		84
2154	21861	We are going to send some money to a fund to help the victims.	We are going to send some money to a funt to help the victims.	1042906	1471961355484	1471961355652		32
2154	21861	We are going to send some money to a fund to help the victims.	We are going to send some money to a funt to help the victims.	1042912	1471961355644	1471961355788		84
2154	21861	We are going to send some money to a fund to help the victims.	We are going to send some money to a funt to help the victims.	1042918	1471961355708	1471961355884		79
2154	21861	We are going to send some money to a fund to help the victims.	We are going to send some money to a funt to help the victims.	1042922	1471961355844	1471961356013		32
2154	21861	We are going to send some money to a fund to help the victims.	We are going to send some money to a funt to help the victims.	1042927	1471961356052	1471961356156		72
2154	21861	We are going to send some money to a fund to help the victims.	We are going to send some money to a funt to help the victims.	1042992	1471961356116	1471961356260		69
2154	21861	We are going to send some money to a fund to help the victims.	We are going to send some money to a funt to help the victims.	1042998	1471961356212	1471961356349		76
2154	21861	We are going to send some money to a fund to help the victims.	We are going to send some money to a funt to help the victims.	1043007	1471961356332	1471961356492		80
2154	21861	We are going to send some money to a fund to help the victims.	We are going to send some money to a funt to help the victims.	1043015	1471961356516	1471961356692		32
2154	21861	We are going to send some money to a fund to help the victims.	We are going to send some money to a funt to help the victims.	1043021	1471961356828	1471961356956		84
2154	21861	We are going to send some money to a fund to help the victims.	We are going to send some money to a funt to help the victims.	1043178	1471961356916	1471961357020		72
2154	21861	We are going to send some money to a fund to help the victims.	We are going to send some money to a funt to help the victims.	1043182	1471961357053	1471961357172		69
2154	21861	We are going to send some money to a fund to help the victims.	We are going to send some money to a funt to help the victims.	1043187	1471961357116	1471961357292		32
2154	21861	We are going to send some money to a fund to help the victims.	We are going to send some money to a funt to help the victims.	1043196	1471961357972	1471961358100		86
2154	21861	We are going to send some money to a fund to help the victims.	We are going to send some money to a funt to help the victims.	1043207	1471961358140	1471961358276		73
2154	21861	We are going to send some money to a fund to help the victims.	We are going to send some money to a funt to help the victims.	1043217	1471961358284	1471961358396		67
2154	21861	We are going to send some money to a fund to help the victims.	We are going to send some money to a funt to help the victims.	1043291	1471961358556	1471961358660		84
2154	21861	We are going to send some money to a fund to help the victims.	We are going to send some money to a funt to help the victims.	1043298	1471961358636	1471961358844		73
2154	21861	We are going to send some money to a fund to help the victims.	We are going to send some money to a funt to help the victims.	1043307	1471961358732	1471961358868		77
2154	21861	We are going to send some money to a fund to help the victims.	We are going to send some money to a funt to help the victims.	1043312	1471961358924	1471961359036		83
2154	21861	We are going to send some money to a fund to help the victims.	We are going to send some money to a funt to help the victims.	1043323	1471961359060	1471961359172		190
2154	21884	This is very sensitive.	This is very sensitive.	1043601	1471961360812	1471961360844		84
2154	21884	This is very sensitive.	This is very sensitive.	1043608	1471961360916	1471961361419	SHIFT	16
2154	21884	This is very sensitive.	This is very sensitive.	1043604	1471961361228	1471961361324		8
2154	21884	This is very sensitive.	This is very sensitive.	1043617	1471961361356	1471961361475		84
2154	21884	This is very sensitive.	This is very sensitive.	1043625	1471961361492	1471961361612		72
2154	21884	This is very sensitive.	This is very sensitive.	1043653	1471961361596	1471961361699		73
2154	21884	This is very sensitive.	This is very sensitive.	1043655	1471961361724	1471961361812		83
2154	21884	This is very sensitive.	This is very sensitive.	1043658	1471961361788	1471961361932		32
2154	21884	This is very sensitive.	This is very sensitive.	1043660	1471961361908	1471961362012		73
2154	21884	This is very sensitive.	This is very sensitive.	1043665	1471961361988	1471961362116		83
2154	21884	This is very sensitive.	This is very sensitive.	1043771	1471961362100	1471961362259		32
2154	21884	This is very sensitive.	This is very sensitive.	1043778	1471961362324	1471961362451		86
2154	21884	This is very sensitive.	This is very sensitive.	1043783	1471961362516	1471961362667		69
2154	21884	This is very sensitive.	This is very sensitive.	1043788	1471961362612	1471961362740		82
2154	21884	This is very sensitive.	This is very sensitive.	1043794	1471961362708	1471961362788		89
2154	21884	This is very sensitive.	This is very sensitive.	1043802	1471961362796	1471961363011		32
2154	21884	This is very sensitive.	This is very sensitive.	1043859	1471961362940	1471961363043		83
2154	21884	This is very sensitive.	This is very sensitive.	1043864	1471961363108	1471961363203		69
2154	21884	This is very sensitive.	This is very sensitive.	1043873	1471961363180	1471961363299		78
2154	21884	This is very sensitive.	This is very sensitive.	1043883	1471961363444	1471961363587		83
2154	21884	This is very sensitive.	This is very sensitive.	1043890	1471961363732	1471961363859		73
2154	21884	This is very sensitive.	This is very sensitive.	1043898	1471961363860	1471961363972		84
2154	21884	This is very sensitive.	This is very sensitive.	1043941	1471961363988	1471961364099		73
2154	21884	This is very sensitive.	This is very sensitive.	1043944	1471961364108	1471961364268		86
2154	21884	This is very sensitive.	This is very sensitive.	1043947	1471961364196	1471961364307		69
2154	21884	This is very sensitive.	This is very sensitive.	1043951	1471961364380	1471961364515		190
2154	21901	I was going to call you but I hate to bother your holiday.	I was going to call you but I hate to bother your holiday.	1044256	1471961366235	1471961366779	SHIFT	16
2154	21901	I was going to call you but I hate to bother your holiday.	I was going to call you but I hate to bother your holiday.	1044253	1471961366660	1471961366763		73
2154	21901	I was going to call you but I hate to bother your holiday.	I was going to call you but I hate to bother your holiday.	1044258	1471961366811	1471961367020		32
2154	21901	I was going to call you but I hate to bother your holiday.	I was going to call you but I hate to bother your holiday.	1044261	1471961366948	1471961367043		87
2154	21901	I was going to call you but I hate to bother your holiday.	I was going to call you but I hate to bother your holiday.	1044265	1471961367108	1471961367267		65
2154	21901	I was going to call you but I hate to bother your holiday.	I was going to call you but I hate to bother your holiday.	1044328	1471961367196	1471961367347		83
2154	21901	I was going to call you but I hate to bother your holiday.	I was going to call you but I hate to bother your holiday.	1044336	1471961367363	1471961367547		32
2154	21901	I was going to call you but I hate to bother your holiday.	I was going to call you but I hate to bother your holiday.	1044347	1471961367644	1471961367731		71
2154	21901	I was going to call you but I hate to bother your holiday.	I was going to call you but I hate to bother your holiday.	1044357	1471961367684	1471961367845		79
2154	21901	I was going to call you but I hate to bother your holiday.	I was going to call you but I hate to bother your holiday.	1044398	1471961367756	1471961367899		73
2154	21901	I was going to call you but I hate to bother your holiday.	I was going to call you but I hate to bother your holiday.	1044401	1471961367828	1471961367963		78
2154	21901	I was going to call you but I hate to bother your holiday.	I was going to call you but I hate to bother your holiday.	1044405	1471961367908	1471961368011		71
2154	21901	I was going to call you but I hate to bother your holiday.	I was going to call you but I hate to bother your holiday.	1044410	1471961367971	1471961368107		32
2154	21901	I was going to call you but I hate to bother your holiday.	I was going to call you but I hate to bother your holiday.	1044414	1471961368091	1471961368204		84
2154	21901	I was going to call you but I hate to bother your holiday.	I was going to call you but I hate to bother your holiday.	1044418	1471961368163	1471961368302		79
2154	21901	I was going to call you but I hate to bother your holiday.	I was going to call you but I hate to bother your holiday.	1044448	1471961368260	1471961368396		32
2154	21901	I was going to call you but I hate to bother your holiday.	I was going to call you but I hate to bother your holiday.	1044453	1471961368380	1471961368507		67
2154	21901	I was going to call you but I hate to bother your holiday.	I was going to call you but I hate to bother your holiday.	1044459	1471961368476	1471961368619		65
2154	21901	I was going to call you but I hate to bother your holiday.	I was going to call you but I hate to bother your holiday.	1044464	1471961368563	1471961368627		76
2154	21901	I was going to call you but I hate to bother your holiday.	I was going to call you but I hate to bother your holiday.	1044468	1471961368707	1471961368813		76
2154	21901	I was going to call you but I hate to bother your holiday.	I was going to call you but I hate to bother your holiday.	1044511	1471961368804	1471961368947		32
2154	21901	I was going to call you but I hate to bother your holiday.	I was going to call you but I hate to bother your holiday.	1044519	1471961368931	1471961368996		89
2154	21901	I was going to call you but I hate to bother your holiday.	I was going to call you but I hate to bother your holiday.	1044526	1471961368987	1471961369196		79
2154	21901	I was going to call you but I hate to bother your holiday.	I was going to call you but I hate to bother your holiday.	1044537	1471961369107	1471961369227		85
2154	21901	I was going to call you but I hate to bother your holiday.	I was going to call you but I hate to bother your holiday.	1044545	1471961369187	1471961369315		32
2154	21901	I was going to call you but I hate to bother your holiday.	I was going to call you but I hate to bother your holiday.	1044549	1471961369323	1471961369419		66
2154	21901	I was going to call you but I hate to bother your holiday.	I was going to call you but I hate to bother your holiday.	1044590	1471961369395	1471961369499		85
2154	21901	I was going to call you but I hate to bother your holiday.	I was going to call you but I hate to bother your holiday.	1044600	1471961369523	1471961369627		84
2154	21901	I was going to call you but I hate to bother your holiday.	I was going to call you but I hate to bother your holiday.	1044610	1471961369635	1471961369811		32
2154	21901	I was going to call you but I hate to bother your holiday.	I was going to call you but I hate to bother your holiday.	1044617	1471961369723	1471961369931	SHIFT	16
2154	21901	I was going to call you but I hate to bother your holiday.	I was going to call you but I hate to bother your holiday.	1044626	1471961369819	1471961369939		73
2154	21901	I was going to call you but I hate to bother your holiday.	I was going to call you but I hate to bother your holiday.	1044632	1471961369963	1471961370140		32
2154	21901	I was going to call you but I hate to bother your holiday.	I was going to call you but I hate to bother your holiday.	1044715	1471961370124	1471961370251		72
2154	21901	I was going to call you but I hate to bother your holiday.	I was going to call you but I hate to bother your holiday.	1044728	1471961370241	1471961370371		65
2154	21901	I was going to call you but I hate to bother your holiday.	I was going to call you but I hate to bother your holiday.	1044739	1471961370357	1471961370571		84
2154	21901	I was going to call you but I hate to bother your holiday.	I was going to call you but I hate to bother your holiday.	1044746	1471961370452	1471961370587		69
2154	21901	I was going to call you but I hate to bother your holiday.	I was going to call you but I hate to bother your holiday.	1044755	1471961370603	1471961370771		32
2154	21901	I was going to call you but I hate to bother your holiday.	I was going to call you but I hate to bother your holiday.	1044760	1471961370900	1471961371027		84
2154	21901	I was going to call you but I hate to bother your holiday.	I was going to call you but I hate to bother your holiday.	1044803	1471961370971	1471961371107		79
2154	21901	I was going to call you but I hate to bother your holiday.	I was going to call you but I hate to bother your holiday.	1044808	1471961371084	1471961371259		32
2154	21901	I was going to call you but I hate to bother your holiday.	I was going to call you but I hate to bother your holiday.	1044812	1471961371371	1471961371499		66
2154	21901	I was going to call you but I hate to bother your holiday.	I was going to call you but I hate to bother your holiday.	1044817	1471961371427	1471961371571		79
2154	21901	I was going to call you but I hate to bother your holiday.	I was going to call you but I hate to bother your holiday.	1044822	1471961371619	1471961371739		84
2154	21901	I was going to call you but I hate to bother your holiday.	I was going to call you but I hate to bother your holiday.	1044828	1471961371795	1471961371907		72
2154	21901	I was going to call you but I hate to bother your holiday.	I was going to call you but I hate to bother your holiday.	1044887	1471961371972	1471961372115		69
2154	21901	I was going to call you but I hate to bother your holiday.	I was going to call you but I hate to bother your holiday.	1044894	1471961372059	1471961372205		82
2154	21901	I was going to call you but I hate to bother your holiday.	I was going to call you but I hate to bother your holiday.	1044902	1471961372179	1471961372323		32
2154	21901	I was going to call you but I hate to bother your holiday.	I was going to call you but I hate to bother your holiday.	1044908	1471961372283	1471961372355		89
2154	21901	I was going to call you but I hate to bother your holiday.	I was going to call you but I hate to bother your holiday.	1044911	1471961372376	1471961372563		79
2154	21901	I was going to call you but I hate to bother your holiday.	I was going to call you but I hate to bother your holiday.	1044965	1471961372467	1471961372587		85
2154	21901	I was going to call you but I hate to bother your holiday.	I was going to call you but I hate to bother your holiday.	1044971	1471961372571	1471961372691		82
2154	21901	I was going to call you but I hate to bother your holiday.	I was going to call you but I hate to bother your holiday.	1044981	1471961372699	1471961372899		32
2154	21901	I was going to call you but I hate to bother your holiday.	I was going to call you but I hate to bother your holiday.	1044992	1471961372843	1471961372972		72
2154	21901	I was going to call you but I hate to bother your holiday.	I was going to call you but I hate to bother your holiday.	1045000	1471961372947	1471961373068		79
2154	21901	I was going to call you but I hate to bother your holiday.	I was going to call you but I hate to bother your holiday.	1045008	1471961373139	1471961373227		76
2154	21901	I was going to call you but I hate to bother your holiday.	I was going to call you but I hate to bother your holiday.	1045061	1471961373307	1471961373427		73
2154	21901	I was going to call you but I hate to bother your holiday.	I was going to call you but I hate to bother your holiday.	1045065	1471961373419	1471961373539		68
2154	21901	I was going to call you but I hate to bother your holiday.	I was going to call you but I hate to bother your holiday.	1045072	1471961373547	1471961373675		65
2154	21901	I was going to call you but I hate to bother your holiday.	I was going to call you but I hate to bother your holiday.	1045078	1471961373659	1471961373755		89
2154	21901	I was going to call you but I hate to bother your holiday.	I was going to call you but I hate to bother your holiday.	1045084	1471961373875	1471961374043		190
2154	21922	Ladies, here's the revised September purchase.	Ladies, here's the revised September purchase.	1045282	1471961375523	1471961375891	SHIFT	16
2154	21922	Ladies, here's the revised September purchase.	Ladies, here's the revised September purchase.	1045288	1471961375803	1471961375947		76
2154	21922	Ladies, here's the revised September purchase.	Ladies, here's the revised September purchase.	1045296	1471961376011	1471961376187		65
2154	21922	Ladies, here's the revised September purchase.	Ladies, here's the revised September purchase.	1045301	1471961376275	1471961376372		68
2154	21922	Ladies, here's the revised September purchase.	Ladies, here's the revised September purchase.	1045307	1471961376351	1471961376489		73
2154	21922	Ladies, here's the revised September purchase.	Ladies, here's the revised September purchase.	1045383	1471961376485	1471961376659		69
2154	21922	Ladies, here's the revised September purchase.	Ladies, here's the revised September purchase.	1045387	1471961376563	1471961376667		83
2154	21922	Ladies, here's the revised September purchase.	Ladies, here's the revised September purchase.	1045391	1471961376756	1471961376883		188
2154	21922	Ladies, here's the revised September purchase.	Ladies, here's the revised September purchase.	1045395	1471961376891	1471961377083		32
2154	21922	Ladies, here's the revised September purchase.	Ladies, here's the revised September purchase.	1045399	1471961377203	1471961377333		72
2154	21922	Ladies, here's the revised September purchase.	Ladies, here's the revised September purchase.	1045468	1471961377331	1471961377451		69
2154	21922	Ladies, here's the revised September purchase.	Ladies, here's the revised September purchase.	1045473	1471961377411	1471961377603		82
2154	21922	Ladies, here's the revised September purchase.	Ladies, here's the revised September purchase.	1045479	1471961377539	1471961377659		69
2154	21922	Ladies, here's the revised September purchase.	Ladies, here's the revised September purchase.	1045490	1471961377643	1471961377787		222
2154	21922	Ladies, here's the revised September purchase.	Ladies, here's the revised September purchase.	1045494	1471961377835	1471961377955		83
2154	21922	Ladies, here's the revised September purchase.	Ladies, here's the revised September purchase.	1045499	1471961377963	1471961378107		32
2154	21922	Ladies, here's the revised September purchase.	Ladies, here's the revised September purchase.	1045519	1471961378123	1471961378219		84
2154	21922	Ladies, here's the revised September purchase.	Ladies, here's the revised September purchase.	1045522	1471961378203	1471961378299		72
2154	21922	Ladies, here's the revised September purchase.	Ladies, here's the revised September purchase.	1045526	1471961378267	1471961378403		69
2154	21922	Ladies, here's the revised September purchase.	Ladies, here's the revised September purchase.	1045530	1471961378404	1471961378563		32
2154	21922	Ladies, here's the revised September purchase.	Ladies, here's the revised September purchase.	1045533	1471961378731	1471961378883		82
2154	21922	Ladies, here's the revised September purchase.	Ladies, here's the revised September purchase.	1045591	1471961378835	1471961378971		69
2154	21922	Ladies, here's the revised September purchase.	Ladies, here's the revised September purchase.	1045596	1471961379051	1471961379155		86
2154	21922	Ladies, here's the revised September purchase.	Ladies, here's the revised September purchase.	1045605	1471961379139	1471961379259		73
2154	21922	Ladies, here's the revised September purchase.	Ladies, here's the revised September purchase.	1045612	1471961379299	1471961379411		83
2154	21922	Ladies, here's the revised September purchase.	Ladies, here's the revised September purchase.	1045620	1471961379451	1471961379539		69
2154	21922	Ladies, here's the revised September purchase.	Ladies, here's the revised September purchase.	1045625	1471961379651	1471961379763		68
2154	21922	Ladies, here's the revised September purchase.	Ladies, here's the revised September purchase.	1045657	1471961379771	1471961379947		32
2154	21922	Ladies, here's the revised September purchase.	Ladies, here's the revised September purchase.	1045660	1471961379899	1471961380115	SHIFT	16
2154	21922	Ladies, here's the revised September purchase.	Ladies, here's the revised September purchase.	1045664	1471961380003	1471961380131		83
2154	21922	Ladies, here's the revised September purchase.	Ladies, here's the revised September purchase.	1045669	1471961380235	1471961380371		69
2154	21922	Ladies, here's the revised September purchase.	Ladies, here's the revised September purchase.	1045671	1471961380363	1471961380507		80
2154	21922	Ladies, here's the revised September purchase.	Ladies, here's the revised September purchase.	1045752	1471961380483	1471961380587		84
2154	21922	Ladies, here's the revised September purchase.	Ladies, here's the revised September purchase.	1045756	1471961380707	1471961380843		69
2154	21922	Ladies, here's the revised September purchase.	Ladies, here's the revised September purchase.	1045760	1471961380843	1471961380971		77
2154	21922	Ladies, here's the revised September purchase.	Ladies, here's the revised September purchase.	1045765	1471961381027	1471961381131		66
2154	21922	Ladies, here's the revised September purchase.	Ladies, here's the revised September purchase.	1045770	1471961381203	1471961381370		69
2154	21922	Ladies, here's the revised September purchase.	Ladies, here's the revised September purchase.	1045863	1471961381291	1471961381403		82
2154	21922	Ladies, here's the revised September purchase.	Ladies, here's the revised September purchase.	1045873	1471961381411	1471961381587		32
2154	21922	Ladies, here's the revised September purchase.	Ladies, here's the revised September purchase.	1045888	1471961381843	1471961381995		80
2154	21922	Ladies, here's the revised September purchase.	Ladies, here's the revised September purchase.	1045897	1471961381979	1471961382115		85
2154	21922	Ladies, here's the revised September purchase.	Ladies, here's the revised September purchase.	1045909	1471961382491	1471961382579		82
2154	21922	Ladies, here's the revised September purchase.	Ladies, here's the revised September purchase.	1045918	1471961382699	1471961382819		67
2154	21922	Ladies, here's the revised September purchase.	Ladies, here's the revised September purchase.	1045981	1471961382787	1471961382899		72
2154	21922	Ladies, here's the revised September purchase.	Ladies, here's the revised September purchase.	1045990	1471961382914	1471961383011		65
2154	21922	Ladies, here's the revised September purchase.	Ladies, here's the revised September purchase.	1045997	1471961383099	1471961383235		83
2154	21922	Ladies, here's the revised September purchase.	Ladies, here's the revised September purchase.	1046009	1471961383228	1471961383371		69
2154	21922	Ladies, here's the revised September purchase.	Ladies, here's the revised September purchase.	1046017	1471961383459	1471961383579		190
2154	21948	I still believe a September 30 closing is unrealistic.	I still believe a September 30 closing is unrealistic.	1046240	1471961385243	1471961385459	SHIFT	16
2154	21948	I still believe a September 30 closing is unrealistic.	I still believe a September 30 closing is unrealistic.	1046244	1471961385355	1471961385482		73
2154	21948	I still believe a September 30 closing is unrealistic.	I still believe a September 30 closing is unrealistic.	1046250	1471961385483	1471961385699		32
2154	21948	I still believe a September 30 closing is unrealistic.	I still believe a September 30 closing is unrealistic.	1046254	1471961385627	1471961385706		83
2154	21948	I still believe a September 30 closing is unrealistic.	I still believe a September 30 closing is unrealistic.	1046331	1471961385755	1471961385893		84
2154	21948	I still believe a September 30 closing is unrealistic.	I still believe a September 30 closing is unrealistic.	1046262	1471961385819	1471961385891		73
2154	21948	I still believe a September 30 closing is unrealistic.	I still believe a September 30 closing is unrealistic.	1046337	1471961385979	1471961386042		76
2154	21948	I still believe a September 30 closing is unrealistic.	I still believe a September 30 closing is unrealistic.	1046344	1471961386131	1471961386298		76
2154	21948	I still believe a September 30 closing is unrealistic.	I still believe a September 30 closing is unrealistic.	1046347	1471961386259	1471961386490		32
2154	21948	I still believe a September 30 closing is unrealistic.	I still believe a September 30 closing is unrealistic.	1046352	1471961386555	1471961386714		86
2154	21948	I still believe a September 30 closing is unrealistic.	I still believe a September 30 closing is unrealistic.	1046411	1471961386691	1471961386818		69
2154	21948	I still believe a September 30 closing is unrealistic.	I still believe a September 30 closing is unrealistic.	1046417	1471961386827	1471961386947		76
2154	21948	I still believe a September 30 closing is unrealistic.	I still believe a September 30 closing is unrealistic.	1046422	1471961387019	1471961387162		73
2154	21948	I still believe a September 30 closing is unrealistic.	I still believe a September 30 closing is unrealistic.	1046428	1471961387115	1471961387170		69
2154	21948	I still believe a September 30 closing is unrealistic.	I still believe a September 30 closing is unrealistic.	1046436	1471961387315	1471961387387		8
2154	21948	I still believe a September 30 closing is unrealistic.	I still believe a September 30 closing is unrealistic.	1046444	1471961387467	1471961387530		8
2154	21948	I still believe a September 30 closing is unrealistic.	I still believe a September 30 closing is unrealistic.	1046586	1471961387603	1471961387666		8
2154	21948	I still believe a September 30 closing is unrealistic.	I still believe a September 30 closing is unrealistic.	1046590	1471961387754	1471961387795		8
2154	21948	I still believe a September 30 closing is unrealistic.	I still believe a September 30 closing is unrealistic.	1046597	1471961388219	1471961388298		8
2154	21948	I still believe a September 30 closing is unrealistic.	I still believe a September 30 closing is unrealistic.	1046605	1471961388363	1471961388482		66
2154	21948	I still believe a September 30 closing is unrealistic.	I still believe a September 30 closing is unrealistic.	1046613	1471961388963	1471961389106		69
2154	21948	I still believe a September 30 closing is unrealistic.	I still believe a September 30 closing is unrealistic.	1046746	1471961389387	1471961389523		76
2154	21948	I still believe a September 30 closing is unrealistic.	I still believe a September 30 closing is unrealistic.	1046751	1471961389587	1471961389746		73
2154	21948	I still believe a September 30 closing is unrealistic.	I still believe a September 30 closing is unrealistic.	1046757	1471961389859	1471961390027		69
2154	21948	I still believe a September 30 closing is unrealistic.	I still believe a September 30 closing is unrealistic.	1046764	1471961389995	1471961390186		86
2154	21948	I still believe a September 30 closing is unrealistic.	I still believe a September 30 closing is unrealistic.	1046895	1471961390115	1471961390250		69
2154	21948	I still believe a September 30 closing is unrealistic.	I still believe a September 30 closing is unrealistic.	1046900	1471961390259	1471961390434		32
2154	21948	I still believe a September 30 closing is unrealistic.	I still believe a September 30 closing is unrealistic.	1046905	1471961390571	1471961390714		65
2154	21948	I still believe a September 30 closing is unrealistic.	I still believe a September 30 closing is unrealistic.	1046914	1471961390707	1471961390906		32
2154	21948	I still believe a September 30 closing is unrealistic.	I still believe a September 30 closing is unrealistic.	1046920	1471961391114	1471961391330	SHIFT	16
2154	21948	I still believe a September 30 closing is unrealistic.	I still believe a September 30 closing is unrealistic.	1046924	1471961391218	1471961391346		83
2154	21948	I still believe a September 30 closing is unrealistic.	I still believe a September 30 closing is unrealistic.	1046931	1471961391459	1471961391578		69
2154	21948	I still believe a September 30 closing is unrealistic.	I still believe a September 30 closing is unrealistic.	1046996	1471961391595	1471961391730		80
2154	21948	I still believe a September 30 closing is unrealistic.	I still believe a September 30 closing is unrealistic.	1047002	1471961391762	1471961391882		84
2154	21948	I still believe a September 30 closing is unrealistic.	I still believe a September 30 closing is unrealistic.	1047006	1471961391946	1471961392074		69
2154	21948	I still believe a September 30 closing is unrealistic.	I still believe a September 30 closing is unrealistic.	1047011	1471961392082	1471961392218		77
2154	21948	I still believe a September 30 closing is unrealistic.	I still believe a September 30 closing is unrealistic.	1047020	1471961392322	1471961392426		66
2154	21948	I still believe a September 30 closing is unrealistic.	I still believe a September 30 closing is unrealistic.	1047117	1471961392515	1471961392706		69
2154	21948	I still believe a September 30 closing is unrealistic.	I still believe a September 30 closing is unrealistic.	1047118	1471961392642	1471961392779		82
2154	21948	I still believe a September 30 closing is unrealistic.	I still believe a September 30 closing is unrealistic.	1047120	1471961392746	1471961392874		32
2154	21948	I still believe a September 30 closing is unrealistic.	I still believe a September 30 closing is unrealistic.	1047124	1471961393170	1471961393282		51
2154	21948	I still believe a September 30 closing is unrealistic.	I still believe a September 30 closing is unrealistic.	1047126	1471961393410	1471961393482		48
2154	21948	I still believe a September 30 closing is unrealistic.	I still believe a September 30 closing is unrealistic.	1047201	1471961393546	1471961393754		32
2154	21948	I still believe a September 30 closing is unrealistic.	I still believe a September 30 closing is unrealistic.	1047204	1471961394002	1471961394090		73
2154	21948	I still believe a September 30 closing is unrealistic.	I still believe a September 30 closing is unrealistic.	1047209	1471961394282	1471961394354		8
2154	21948	I still believe a September 30 closing is unrealistic.	I still believe a September 30 closing is unrealistic.	1047216	1471961394402	1471961394498		67
2154	21948	I still believe a September 30 closing is unrealistic.	I still believe a September 30 closing is unrealistic.	1047223	1471961394514	1471961394610		76
2154	21948	I still believe a September 30 closing is unrealistic.	I still believe a September 30 closing is unrealistic.	1047260	1471961394706	1471961394826		79
2154	21948	I still believe a September 30 closing is unrealistic.	I still believe a September 30 closing is unrealistic.	1047266	1471961394794	1471961394900		83
2154	21948	I still believe a September 30 closing is unrealistic.	I still believe a September 30 closing is unrealistic.	1047273	1471961394898	1471961395059		73
2154	21948	I still believe a September 30 closing is unrealistic.	I still believe a September 30 closing is unrealistic.	1047333	1471961395002	1471961395157		78
2154	21948	I still believe a September 30 closing is unrealistic.	I still believe a September 30 closing is unrealistic.	1047328	1471961395035	1471961395114		71
2154	21948	I still believe a September 30 closing is unrealistic.	I still believe a September 30 closing is unrealistic.	1047341	1471961395122	1471961395299		32
2154	21948	I still believe a September 30 closing is unrealistic.	I still believe a September 30 closing is unrealistic.	1047346	1471961395250	1471961395370		73
2154	21948	I still believe a September 30 closing is unrealistic.	I still believe a September 30 closing is unrealistic.	1047353	1471961395306	1471961395402		83
2154	21948	I still believe a September 30 closing is unrealistic.	I still believe a September 30 closing is unrealistic.	1047359	1471961395434	1471961395594		32
2154	21948	I still believe a September 30 closing is unrealistic.	I still believe a September 30 closing is unrealistic.	1047361	1471961395682	1471961395762		85
2154	21948	I still believe a September 30 closing is unrealistic.	I still believe a September 30 closing is unrealistic.	1047415	1471961395866	1471961395970		78
2154	21948	I still believe a September 30 closing is unrealistic.	I still believe a September 30 closing is unrealistic.	1047420	1471961396194	1471961396346		82
2154	21948	I still believe a September 30 closing is unrealistic.	I still believe a September 30 closing is unrealistic.	1047427	1471961396298	1471961396458		69
2154	21948	I still believe a September 30 closing is unrealistic.	I still believe a September 30 closing is unrealistic.	1047435	1471961396402	1471961396538		65
2154	21948	I still believe a September 30 closing is unrealistic.	I still believe a September 30 closing is unrealistic.	1047443	1471961396554	1471961396658		76
2154	21948	I still believe a September 30 closing is unrealistic.	I still believe a September 30 closing is unrealistic.	1047523	1471961396730	1471961396866		73
2154	21948	I still believe a September 30 closing is unrealistic.	I still believe a September 30 closing is unrealistic.	1047527	1471961396834	1471961396938		83
2154	21948	I still believe a September 30 closing is unrealistic.	I still believe a September 30 closing is unrealistic.	1047537	1471961396970	1471961397090		84
2154	21948	I still believe a September 30 closing is unrealistic.	I still believe a September 30 closing is unrealistic.	1047543	1471961397338	1471961397450		73
2154	21948	I still believe a September 30 closing is unrealistic.	I still believe a September 30 closing is unrealistic.	1047550	1471961397498	1471961397594		67
2154	21948	I still believe a September 30 closing is unrealistic.	I still believe a September 30 closing is unrealistic.	1047557	1471961397642	1471961397762		190
2154	21982	Thanks, having a good time.	Thanks, having a good time.	1047772	1471961399234	1471961399674	SHIFT	16
2154	21982	Thanks, having a good time.	Thanks, having a good time.	1047778	1471961399610	1471961399723		84
2154	21982	Thanks, having a good time.	Thanks, having a good time.	1047788	1471961399682	1471961399770		72
2154	21982	Thanks, having a good time.	Thanks, having a good time.	1047794	1471961399826	1471961399938		65
2154	21982	Thanks, having a good time.	Thanks, having a good time.	1047800	1471961399922	1471961400074		78
2154	21982	Thanks, having a good time.	Thanks, having a good time.	1047892	1471961399994	1471961400114		75
2154	21982	Thanks, having a good time.	Thanks, having a good time.	1047895	1471961400106	1471961400194		83
2154	21982	Thanks, having a good time.	Thanks, having a good time.	1047900	1471961400258	1471961400394		188
2154	21982	Thanks, having a good time.	Thanks, having a good time.	1047905	1471961400386	1471961400570		32
2154	21982	Thanks, having a good time.	Thanks, having a good time.	1047908	1471961400554	1471961400682	SHIFT	16
2154	21982	Thanks, having a good time.	Thanks, having a good time.	1047912	1471961400762	1471961400882		72
2154	21982	Thanks, having a good time.	Thanks, having a good time.	1047918	1471961400938	1471961401130		65
2154	21982	Thanks, having a good time.	Thanks, having a good time.	1048017	1471961401090	1471961401298		86
2154	21982	Thanks, having a good time.	Thanks, having a good time.	1048024	1471961401330	1471961401434		73
2154	21982	Thanks, having a good time.	Thanks, having a good time.	1048033	1471961401658	1471961401714		8
2154	21982	Thanks, having a good time.	Thanks, having a good time.	1048041	1471961402082	1471961402210		73
2154	21982	Thanks, having a good time.	Thanks, having a good time.	1048050	1471961402154	1471961402290		78
2154	21982	Thanks, having a good time.	Thanks, having a good time.	1048075	1471961402274	1471961402338		71
2154	21982	Thanks, having a good time.	Thanks, having a good time.	1048076	1471961402298	1471961402410		32
2154	21982	Thanks, having a good time.	Thanks, having a good time.	1048080	1471961402418	1471961402530		65
2154	21982	Thanks, having a good time.	Thanks, having a good time.	1048082	1471961402514	1471961402626		32
2154	21982	Thanks, having a good time.	Thanks, having a good time.	1048085	1471961402610	1471961402706		71
2154	21982	Thanks, having a good time.	Thanks, having a good time.	1048113	1471961402682	1471961402762		79
2154	21982	Thanks, having a good time.	Thanks, having a good time.	1048119	1471961402818	1471961402930		79
2154	21982	Thanks, having a good time.	Thanks, having a good time.	1048127	1471961402914	1471961403042		68
2154	21982	Thanks, having a good time.	Thanks, having a good time.	1048137	1471961403026	1471961403178		32
2154	21982	Thanks, having a good time.	Thanks, having a good time.	1048144	1471961403146	1471961403226		84
2154	21982	Thanks, having a good time.	Thanks, having a good time.	1048180	1471961403186	1471961403354		73
2154	21982	Thanks, having a good time.	Thanks, having a good time.	1048189	1471961403298	1471961403380		77
2154	21982	Thanks, having a good time.	Thanks, having a good time.	1048195	1471961403378	1471961403506		69
2154	21982	Thanks, having a good time.	Thanks, having a good time.	1048201	1471961403554	1471961403682		190
