PARTICIPANT_ID	TEST_SECTION_ID	SENTENCE	USER_INPUT	KEYSTROKE_ID	PRESS_TIME	RELEASE_TIME	LETTER	KEYCODE
2283	23345	He recently also demanded the resignation of six ministers.	He recently also demanded the resignation of six ministers.	1113559	1471962427037	1471962428500	SHIFT	16
2283	23345	He recently also demanded the resignation of six ministers.	He recently also demanded the resignation of six ministers.	1113563	1471962428482	1471962428581	H	72
2283	23345	He recently also demanded the resignation of six ministers.	He recently also demanded the resignation of six ministers.	1113565	1471962428706	1471962428783	e	69
2283	23345	He recently also demanded the resignation of six ministers.	He recently also demanded the resignation of six ministers.	1113567	1471962428939	1471962429064	 	32
2283	23345	He recently also demanded the resignation of six ministers.	He recently also demanded the resignation of six ministers.	1113570	1471962430851	1471962431012	r	82
2283	23345	He recently also demanded the resignation of six ministers.	He recently also demanded the resignation of six ministers.	1113612	1471962430966	1471962431114	e	69
2283	23345	He recently also demanded the resignation of six ministers.	He recently also demanded the resignation of six ministers.	1113615	1471962431287	1471962431399	c	67
2283	23345	He recently also demanded the resignation of six ministers.	He recently also demanded the resignation of six ministers.	1113620	1471962431556	1471962431650	e	69
2283	23345	He recently also demanded the resignation of six ministers.	He recently also demanded the resignation of six ministers.	1113625	1471962431853	1471962431972	n	78
2283	23345	He recently also demanded the resignation of six ministers.	He recently also demanded the resignation of six ministers.	1113630	1471962432096	1471962432201	t	84
2283	23345	He recently also demanded the resignation of six ministers.	He recently also demanded the resignation of six ministers.	1113633	1471962432518	1471962432655	l	76
2283	23345	He recently also demanded the resignation of six ministers.	He recently also demanded the resignation of six ministers.	1113705	1471962432603	1471962432718	y	89
2283	23345	He recently also demanded the resignation of six ministers.	He recently also demanded the resignation of six ministers.	1113707	1471962432827	1471962432935	 	32
2283	23345	He recently also demanded the resignation of six ministers.	He recently also demanded the resignation of six ministers.	1113710	1471962434002	1471962434103	a	65
2283	23345	He recently also demanded the resignation of six ministers.	He recently also demanded the resignation of six ministers.	1113712	1471962434301	1471962434401	l	76
2283	23345	He recently also demanded the resignation of six ministers.	He recently also demanded the resignation of six ministers.	1113715	1471962434573	1471962434685	s	83
2283	23345	He recently also demanded the resignation of six ministers.	He recently also demanded the resignation of six ministers.	1113719	1471962434716	1471962434834	o	79
2283	23345	He recently also demanded the resignation of six ministers.	He recently also demanded the resignation of six ministers.	1113748	1471962434897	1471962435018	 	32
2283	23345	He recently also demanded the resignation of six ministers.	He recently also demanded the resignation of six ministers.	1113749	1471962435568	1471962435670	d	68
2283	23345	He recently also demanded the resignation of six ministers.	He recently also demanded the resignation of six ministers.	1113750	1471962435779	1471962435901	e	69
2283	23345	He recently also demanded the resignation of six ministers.	He recently also demanded the resignation of six ministers.	1113752	1471962436042	1471962436139	m	77
2283	23345	He recently also demanded the resignation of six ministers.	He recently also demanded the resignation of six ministers.	1113756	1471962436232	1471962436384	a	65
2283	23345	He recently also demanded the resignation of six ministers.	He recently also demanded the resignation of six ministers.	1113861	1471962436680	1471962436818	n	78
2283	23345	He recently also demanded the resignation of six ministers.	He recently also demanded the resignation of six ministers.	1113865	1471962437115	1471962437221	e	69
2283	23345	He recently also demanded the resignation of six ministers.	He recently also demanded the resignation of six ministers.	1113871	1471962437684	1471962437786	BKSP	8
2283	23345	He recently also demanded the resignation of six ministers.	He recently also demanded the resignation of six ministers.	1113876	1471962437880	1471962438019	d	68
2283	23345	He recently also demanded the resignation of six ministers.	He recently also demanded the resignation of six ministers.	1113880	1471962438647	1471962438755	e	69
2283	23345	He recently also demanded the resignation of six ministers.	He recently also demanded the resignation of six ministers.	1113887	1471962438849	1471962438940	d	68
2283	23345	He recently also demanded the resignation of six ministers.	He recently also demanded the resignation of six ministers.	1113910	1471962439006	1471962439105	 	32
2283	23345	He recently also demanded the resignation of six ministers.	He recently also demanded the resignation of six ministers.	1113912	1471962439418	1471962439572	t	84
2283	23345	He recently also demanded the resignation of six ministers.	He recently also demanded the resignation of six ministers.	1113913	1471962439538	1471962439608	h	72
2283	23345	He recently also demanded the resignation of six ministers.	He recently also demanded the resignation of six ministers.	1113916	1471962439655	1471962439780	e	69
2283	23345	He recently also demanded the resignation of six ministers.	He recently also demanded the resignation of six ministers.	1114122	1471962439748	1471962439870	 	32
2283	23345	He recently also demanded the resignation of six ministers.	He recently also demanded the resignation of six ministers.	1114124	1471962440724	1471962440884	r	82
2283	23345	He recently also demanded the resignation of six ministers.	He recently also demanded the resignation of six ministers.	1114126	1471962440825	1471962440971	e	69
2283	23345	He recently also demanded the resignation of six ministers.	He recently also demanded the resignation of six ministers.	1114135	1471962443215	1471962443323	s	83
2283	23345	He recently also demanded the resignation of six ministers.	He recently also demanded the resignation of six ministers.	1114140	1471962443480	1471962443623	i	73
2283	23345	He recently also demanded the resignation of six ministers.	He recently also demanded the resignation of six ministers.	1114143	1471962444172	1471962444291	g	71
2283	23345	He recently also demanded the resignation of six ministers.	He recently also demanded the resignation of six ministers.	1114219	1471962444350	1471962444478	n	78
2283	23345	He recently also demanded the resignation of six ministers.	He recently also demanded the resignation of six ministers.	1114222	1471962445258	1471962445375	a	65
2283	23345	He recently also demanded the resignation of six ministers.	He recently also demanded the resignation of six ministers.	1114224	1471962445588	1471962445707	t	84
2283	23345	He recently also demanded the resignation of six ministers.	He recently also demanded the resignation of six ministers.	1114228	1471962445871	1471962446040	i	73
2283	23345	He recently also demanded the resignation of six ministers.	He recently also demanded the resignation of six ministers.	1114232	1471962446087	1471962446240	o	79
2283	23345	He recently also demanded the resignation of six ministers.	He recently also demanded the resignation of six ministers.	1114292	1471962446348	1471962446490	n	78
2283	23345	He recently also demanded the resignation of six ministers.	He recently also demanded the resignation of six ministers.	1114293	1471962446569	1471962446694	 	32
2283	23345	He recently also demanded the resignation of six ministers.	He recently also demanded the resignation of six ministers.	1114294	1471962447367	1471962447540	o	79
2283	23345	He recently also demanded the resignation of six ministers.	He recently also demanded the resignation of six ministers.	1114296	1471962447540	1471962447663	f	70
2283	23345	He recently also demanded the resignation of six ministers.	He recently also demanded the resignation of six ministers.	1114424	1471962447597	1471962447710	 	32
2283	23345	He recently also demanded the resignation of six ministers.	He recently also demanded the resignation of six ministers.	1114427	1471962448214	1471962448356	s	83
2283	23345	He recently also demanded the resignation of six ministers.	He recently also demanded the resignation of six ministers.	1114431	1471962448297	1471962448412	i	73
2283	23345	He recently also demanded the resignation of six ministers.	He recently also demanded the resignation of six ministers.	1114435	1471962448929	1471962449044	x	88
2283	23345	He recently also demanded the resignation of six ministers.	He recently also demanded the resignation of six ministers.	1114439	1471962449393	1471962449507	 	32
2283	23345	He recently also demanded the resignation of six ministers.	He recently also demanded the resignation of six ministers.	1114444	1471962450234	1471962450347	m	77
2283	23345	He recently also demanded the resignation of six ministers.	He recently also demanded the resignation of six ministers.	1114513	1471962450429	1471962450530	i	73
2283	23345	He recently also demanded the resignation of six ministers.	He recently also demanded the resignation of six ministers.	1114517	1471962450623	1471962450730	n	78
2283	23345	He recently also demanded the resignation of six ministers.	He recently also demanded the resignation of six ministers.	1114521	1471962451862	1471962451980	i	73
2283	23345	He recently also demanded the resignation of six ministers.	He recently also demanded the resignation of six ministers.	1114525	1471962452105	1471962452261	s	83
2283	23345	He recently also demanded the resignation of six ministers.	He recently also demanded the resignation of six ministers.	1114527	1471962452417	1471962452538	t	84
2283	23345	He recently also demanded the resignation of six ministers.	He recently also demanded the resignation of six ministers.	1114625	1471962452684	1471962452834	e	69
2283	23345	He recently also demanded the resignation of six ministers.	He recently also demanded the resignation of six ministers.	1114627	1471962452782	1471962452881	r	82
2283	23345	He recently also demanded the resignation of six ministers.	He recently also demanded the resignation of six ministers.	1114632	1471962453053	1471962453164	s	83
2283	23345	He recently also demanded the resignation of six ministers.	He recently also demanded the resignation of six ministers.	1114637	1471962453892	1471962453951	.	190
2283	23375	Nothing new from Mom.	Nothing new from mom. 	1114835	1471962457214	1471962457501	SHIFT	16
2283	23375	Nothing new from Mom.	Nothing new from mom. 	1114837	1471962457404	1471962457536	N	78
2283	23375	Nothing new from Mom.	Nothing new from mom. 	1114840	1471962457645	1471962457798	o	79
2283	23375	Nothing new from Mom.	Nothing new from mom. 	1114843	1471962457970	1471962458099	t	84
2283	23375	Nothing new from Mom.	Nothing new from mom. 	1114845	1471962458099	1471962458187	h	72
2283	23375	Nothing new from Mom.	Nothing new from mom. 	1114848	1471962458296	1471962458432	i	73
2283	23375	Nothing new from Mom.	Nothing new from mom. 	1115009	1471962458666	1471962458799	n	78
2283	23375	Nothing new from Mom.	Nothing new from mom. 	1115011	1471962458836	1471962458935	g	71
2283	23375	Nothing new from Mom.	Nothing new from mom. 	1115015	1471962458982	1471962459102	 	32
2283	23375	Nothing new from Mom.	Nothing new from mom. 	1115018	1471962460627	1471962460720	n	78
2283	23375	Nothing new from Mom.	Nothing new from mom. 	1115023	1471962460889	1471962461156	e	69
2283	23375	Nothing new from Mom.	Nothing new from mom. 	1115135	1471962461308	1471962461436	w	87
2283	23375	Nothing new from Mom.	Nothing new from mom. 	1115136	1471962461514	1471962461620	 	32
2283	23375	Nothing new from Mom.	Nothing new from mom. 	1115137	1471962462108	1471962462284	f	70
2283	23375	Nothing new from Mom.	Nothing new from mom. 	1115140	1471962462148	1471962462316	r	82
2283	23375	Nothing new from Mom.	Nothing new from mom. 	1115145	1471962463446	1471962463540	o	79
2283	23375	Nothing new from Mom.	Nothing new from mom. 	1115265	1471962463665	1471962463740	m	77
2283	23375	Nothing new from Mom.	Nothing new from mom. 	1115268	1471962463833	1471962463939	 	32
2283	23375	Nothing new from Mom.	Nothing new from mom. 	1115269	1471962465272	1471962465477	SHIFT	16
2283	23375	Nothing new from Mom.	Nothing new from mom. 	1115271	1471962465494	1471962465560	m	77
2283	23375	Nothing new from Mom.	Nothing new from mom. 	1115274	1471962465786	1471962465859	o	79
2283	23375	Nothing new from Mom.	Nothing new from mom. 	1115275	1471962466000	1471962466061	m	77
2283	23375	Nothing new from Mom.	Nothing new from mom. 	1115328	1471962466346	1471962466395	.	190
2283	23375	Nothing new from Mom.	Nothing new from mom. 	1115332	1471962466534	1471962466626	 	32
2283	23390	Washington was not moving toward a unilateral lifting of the embargo.	Washington was not moving toward a unilateral lifting of the embargo. 	1115493	1471962469237	1471962469646	SHIFT	16
2283	23390	Washington was not moving toward a unilateral lifting of the embargo.	Washington was not moving toward a unilateral lifting of the embargo. 	1115495	1471962469572	1471962469739	W	87
2283	23390	Washington was not moving toward a unilateral lifting of the embargo.	Washington was not moving toward a unilateral lifting of the embargo. 	1115497	1471962469833	1471962470047	a	65
2283	23390	Washington was not moving toward a unilateral lifting of the embargo.	Washington was not moving toward a unilateral lifting of the embargo. 	1115501	1471962469990	1471962470104	s	83
2283	23390	Washington was not moving toward a unilateral lifting of the embargo.	Washington was not moving toward a unilateral lifting of the embargo. 	1115503	1471962470272	1471962470346	h	72
2283	23390	Washington was not moving toward a unilateral lifting of the embargo.	Washington was not moving toward a unilateral lifting of the embargo. 	1115507	1471962470659	1471962470714	i	73
2283	23390	Washington was not moving toward a unilateral lifting of the embargo.	Washington was not moving toward a unilateral lifting of the embargo. 	1115589	1471962470892	1471962470978	n	78
2283	23390	Washington was not moving toward a unilateral lifting of the embargo.	Washington was not moving toward a unilateral lifting of the embargo. 	1115592	1471962471325	1471962471460	g	71
2283	23390	Washington was not moving toward a unilateral lifting of the embargo.	Washington was not moving toward a unilateral lifting of the embargo. 	1115596	1471962471602	1471962471695	t	84
2283	23390	Washington was not moving toward a unilateral lifting of the embargo.	Washington was not moving toward a unilateral lifting of the embargo. 	1115600	1471962471789	1471962471911	o	79
2283	23390	Washington was not moving toward a unilateral lifting of the embargo.	Washington was not moving toward a unilateral lifting of the embargo. 	1115606	1471962472094	1471962472164	n	78
2283	23390	Washington was not moving toward a unilateral lifting of the embargo.	Washington was not moving toward a unilateral lifting of the embargo. 	1115690	1471962472285	1471962472365	 	32
2283	23390	Washington was not moving toward a unilateral lifting of the embargo.	Washington was not moving toward a unilateral lifting of the embargo. 	1115693	1471962473400	1471962473544	w	87
2283	23390	Washington was not moving toward a unilateral lifting of the embargo.	Washington was not moving toward a unilateral lifting of the embargo. 	1115695	1471962473607	1471962473847	a	65
2283	23390	Washington was not moving toward a unilateral lifting of the embargo.	Washington was not moving toward a unilateral lifting of the embargo. 	1115697	1471962473760	1471962473940	s	83
2283	23390	Washington was not moving toward a unilateral lifting of the embargo.	Washington was not moving toward a unilateral lifting of the embargo. 	1115700	1471962473987	1471962474111	 	32
2283	23390	Washington was not moving toward a unilateral lifting of the embargo.	Washington was not moving toward a unilateral lifting of the embargo. 	1115846	1471962474346	1471962474432	n	78
2283	23390	Washington was not moving toward a unilateral lifting of the embargo.	Washington was not moving toward a unilateral lifting of the embargo. 	1115849	1471962474691	1471962474751	o	73
2283	23390	Washington was not moving toward a unilateral lifting of the embargo.	Washington was not moving toward a unilateral lifting of the embargo. 	1115850	1471962474829	1471962475024	t	84
2283	23390	Washington was not moving toward a unilateral lifting of the embargo.	Washington was not moving toward a unilateral lifting of the embargo. 	1115852	1471962475470	1471962475598	BKSP	8
2283	23390	Washington was not moving toward a unilateral lifting of the embargo.	Washington was not moving toward a unilateral lifting of the embargo. 	1115853	1471962475854	1471962475978	BKSP	8
2283	23390	Washington was not moving toward a unilateral lifting of the embargo.	Washington was not moving toward a unilateral lifting of the embargo. 	1115854	1471962476275	1471962476381	BKSP	8
2283	23390	Washington was not moving toward a unilateral lifting of the embargo.	Washington was not moving toward a unilateral lifting of the embargo. 	1115859	1471962476821	1471962476899	o	79
2283	23390	Washington was not moving toward a unilateral lifting of the embargo.	Washington was not moving toward a unilateral lifting of the embargo. 	1115938	1471962476943	1471962477048	t	84
2283	23390	Washington was not moving toward a unilateral lifting of the embargo.	Washington was not moving toward a unilateral lifting of the embargo. 	1115941	1471962477048	1471962477181	 	32
2283	23390	Washington was not moving toward a unilateral lifting of the embargo.	Washington was not moving toward a unilateral lifting of the embargo. 	1115946	1471962478058	1471962478135	m	77
2283	23390	Washington was not moving toward a unilateral lifting of the embargo.	Washington was not moving toward a unilateral lifting of the embargo. 	1115951	1471962478245	1471962478349	o	79
2283	23390	Washington was not moving toward a unilateral lifting of the embargo.	Washington was not moving toward a unilateral lifting of the embargo. 	1115956	1471962478837	1471962478955	v	86
2283	23390	Washington was not moving toward a unilateral lifting of the embargo.	Washington was not moving toward a unilateral lifting of the embargo. 	1116033	1471962478955	1471962479019	i	73
2283	23390	Washington was not moving toward a unilateral lifting of the embargo.	Washington was not moving toward a unilateral lifting of the embargo. 	1116035	1471962479160	1471962479282	n	78
2283	23390	Washington was not moving toward a unilateral lifting of the embargo.	Washington was not moving toward a unilateral lifting of the embargo. 	1116038	1471962479399	1471962479523	g	71
2283	23390	Washington was not moving toward a unilateral lifting of the embargo.	Washington was not moving toward a unilateral lifting of the embargo. 	1116044	1471962479586	1471962479699	 	32
2283	23390	Washington was not moving toward a unilateral lifting of the embargo.	Washington was not moving toward a unilateral lifting of the embargo. 	1116047	1471962480533	1471962480678	t	84
2283	23390	Washington was not moving toward a unilateral lifting of the embargo.	Washington was not moving toward a unilateral lifting of the embargo. 	1116129	1471962480939	1471962481077	o	79
2283	23390	Washington was not moving toward a unilateral lifting of the embargo.	Washington was not moving toward a unilateral lifting of the embargo. 	1116131	1471962481393	1471962481518	w	87
2283	23390	Washington was not moving toward a unilateral lifting of the embargo.	Washington was not moving toward a unilateral lifting of the embargo. 	1116135	1471962481847	1471962482030	a	65
2283	23390	Washington was not moving toward a unilateral lifting of the embargo.	Washington was not moving toward a unilateral lifting of the embargo. 	1116139	1471962482176	1471962482304	r	82
2283	23390	Washington was not moving toward a unilateral lifting of the embargo.	Washington was not moving toward a unilateral lifting of the embargo. 	1116144	1471962482403	1471962482550	d	68
2283	23390	Washington was not moving toward a unilateral lifting of the embargo.	Washington was not moving toward a unilateral lifting of the embargo. 	1116456	1471962482591	1471962482719	 	32
2283	23390	Washington was not moving toward a unilateral lifting of the embargo.	Washington was not moving toward a unilateral lifting of the embargo. 	1116462	1471962483535	1471962483639	a	65
2283	23390	Washington was not moving toward a unilateral lifting of the embargo.	Washington was not moving toward a unilateral lifting of the embargo. 	1116467	1471962483639	1471962483784	 	32
2283	23390	Washington was not moving toward a unilateral lifting of the embargo.	Washington was not moving toward a unilateral lifting of the embargo. 	1116472	1471962485201	1471962485336	u	85
2283	23390	Washington was not moving toward a unilateral lifting of the embargo.	Washington was not moving toward a unilateral lifting of the embargo. 	1116477	1471962486557	1471962486639	n	78
2283	23390	Washington was not moving toward a unilateral lifting of the embargo.	Washington was not moving toward a unilateral lifting of the embargo. 	1116584	1471962486879	1471962486942	i	73
2283	23390	Washington was not moving toward a unilateral lifting of the embargo.	Washington was not moving toward a unilateral lifting of the embargo. 	1116589	1471962487162	1471962487222	l	76
2283	23390	Washington was not moving toward a unilateral lifting of the embargo.	Washington was not moving toward a unilateral lifting of the embargo. 	1116594	1471962488536	1471962488783	a	65
2283	23390	Washington was not moving toward a unilateral lifting of the embargo.	Washington was not moving toward a unilateral lifting of the embargo. 	1116597	1471962488783	1471962488968	t	84
2283	23390	Washington was not moving toward a unilateral lifting of the embargo.	Washington was not moving toward a unilateral lifting of the embargo. 	1116601	1471962489074	1471962489253	e	69
2283	23390	Washington was not moving toward a unilateral lifting of the embargo.	Washington was not moving toward a unilateral lifting of the embargo. 	1116704	1471962489193	1471962489342	r	82
2283	23390	Washington was not moving toward a unilateral lifting of the embargo.	Washington was not moving toward a unilateral lifting of the embargo. 	1116708	1471962489879	1471962490022	a	65
2283	23390	Washington was not moving toward a unilateral lifting of the embargo.	Washington was not moving toward a unilateral lifting of the embargo. 	1116713	1471962490053	1471962490155	l	76
2283	23390	Washington was not moving toward a unilateral lifting of the embargo.	Washington was not moving toward a unilateral lifting of the embargo. 	1116720	1471962490187	1471962490317	 	32
2283	23390	Washington was not moving toward a unilateral lifting of the embargo.	Washington was not moving toward a unilateral lifting of the embargo. 	1116725	1471962491083	1471962491208	l	76
2283	23390	Washington was not moving toward a unilateral lifting of the embargo.	Washington was not moving toward a unilateral lifting of the embargo. 	1116732	1471962491270	1471962491405	i	73
2283	23390	Washington was not moving toward a unilateral lifting of the embargo.	Washington was not moving toward a unilateral lifting of the embargo. 	1116795	1471962491533	1471962491680	f	70
2283	23390	Washington was not moving toward a unilateral lifting of the embargo.	Washington was not moving toward a unilateral lifting of the embargo. 	1116798	1471962491774	1471962491922	t	84
2283	23390	Washington was not moving toward a unilateral lifting of the embargo.	Washington was not moving toward a unilateral lifting of the embargo. 	1116801	1471962491953	1471962492027	i	73
2283	23390	Washington was not moving toward a unilateral lifting of the embargo.	Washington was not moving toward a unilateral lifting of the embargo. 	1116805	1471962492174	1471962492290	n	78
2283	23390	Washington was not moving toward a unilateral lifting of the embargo.	Washington was not moving toward a unilateral lifting of the embargo. 	1116965	1471962492384	1471962492463	h	71
2283	23390	Washington was not moving toward a unilateral lifting of the embargo.	Washington was not moving toward a unilateral lifting of the embargo. 	1116971	1471962492479	1471962492577	 	32
2283	23390	Washington was not moving toward a unilateral lifting of the embargo.	Washington was not moving toward a unilateral lifting of the embargo. 	1116975	1471962492990	1471962493108	BKSP	8
2283	23390	Washington was not moving toward a unilateral lifting of the embargo.	Washington was not moving toward a unilateral lifting of the embargo. 	1116978	1471962493171	1471962493276	BKSP	8
2283	23390	Washington was not moving toward a unilateral lifting of the embargo.	Washington was not moving toward a unilateral lifting of the embargo. 	1116982	1471962493904	1471962493994	 	32
2283	23390	Washington was not moving toward a unilateral lifting of the embargo.	Washington was not moving toward a unilateral lifting of the embargo. 	1116986	1471962494904	1471962494986	o	79
2283	23390	Washington was not moving toward a unilateral lifting of the embargo.	Washington was not moving toward a unilateral lifting of the embargo. 	1116989	1471962495017	1471962495156	f	70
2283	23390	Washington was not moving toward a unilateral lifting of the embargo.	Washington was not moving toward a unilateral lifting of the embargo. 	1117075	1471962495112	1471962495230	 	32
2283	23390	Washington was not moving toward a unilateral lifting of the embargo.	Washington was not moving toward a unilateral lifting of the embargo. 	1117078	1471962495307	1471962495461	t	84
2283	23390	Washington was not moving toward a unilateral lifting of the embargo.	Washington was not moving toward a unilateral lifting of the embargo. 	1117082	1471962495426	1471962495496	h	72
2283	23390	Washington was not moving toward a unilateral lifting of the embargo.	Washington was not moving toward a unilateral lifting of the embargo. 	1117087	1471962495560	1471962495731	e	69
2283	23390	Washington was not moving toward a unilateral lifting of the embargo.	Washington was not moving toward a unilateral lifting of the embargo. 	1117092	1471962495693	1471962495780	 	32
2283	23390	Washington was not moving toward a unilateral lifting of the embargo.	Washington was not moving toward a unilateral lifting of the embargo. 	1117098	1471962496862	1471962497013	e	69
2283	23390	Washington was not moving toward a unilateral lifting of the embargo.	Washington was not moving toward a unilateral lifting of the embargo. 	1117156	1471962497024	1471962497145	m	77
2283	23390	Washington was not moving toward a unilateral lifting of the embargo.	Washington was not moving toward a unilateral lifting of the embargo. 	1117159	1471962497373	1471962497463	b	66
2283	23390	Washington was not moving toward a unilateral lifting of the embargo.	Washington was not moving toward a unilateral lifting of the embargo. 	1117161	1471962498028	1471962498176	a	65
2283	23390	Washington was not moving toward a unilateral lifting of the embargo.	Washington was not moving toward a unilateral lifting of the embargo. 	1117516	1471962498254	1471962498426	a	82
2283	23390	Washington was not moving toward a unilateral lifting of the embargo.	Washington was not moving toward a unilateral lifting of the embargo. 	1117520	1471962499005	1471962499191	g	71
2283	23390	Washington was not moving toward a unilateral lifting of the embargo.	Washington was not moving toward a unilateral lifting of the embargo. 	1117523	1471962499207	1471962499337	o	79
2283	23390	Washington was not moving toward a unilateral lifting of the embargo.	Washington was not moving toward a unilateral lifting of the embargo. 	1117527	1471962502294	1471962502367	BKSP	8
2283	23390	Washington was not moving toward a unilateral lifting of the embargo.	Washington was not moving toward a unilateral lifting of the embargo. 	1117531	1471962502492	1471962502549	BKSP	8
2283	23390	Washington was not moving toward a unilateral lifting of the embargo.	Washington was not moving toward a unilateral lifting of the embargo. 	1117534	1471962502661	1471962502718	BKSP	8
2283	23390	Washington was not moving toward a unilateral lifting of the embargo.	Washington was not moving toward a unilateral lifting of the embargo. 	1117538	1471962503665	1471962503844	g	71
2283	23390	Washington was not moving toward a unilateral lifting of the embargo.	Washington was not moving toward a unilateral lifting of the embargo. 	1117540	1471962504300	1471962504399	o	79
2283	23390	Washington was not moving toward a unilateral lifting of the embargo.	Washington was not moving toward a unilateral lifting of the embargo. 	1117544	1471962504603	1471962504685	.	190
2283	23390	Washington was not moving toward a unilateral lifting of the embargo.	Washington was not moving toward a unilateral lifting of the embargo. 	1117577	1471962504907	1471962505001	 	32
2283	23436	Try and re-draft and let me know.	Try and re-draft and let me know. 	1117960	1471962509543	1471962509874	SHIFT	16
2283	23436	Try and re-draft and let me know.	Try and re-draft and let me know. 	1117963	1471962509829	1471962509999	T	84
2283	23436	Try and re-draft and let me know.	Try and re-draft and let me know. 	1117965	1471962510186	1471962510423	r	82
2283	23436	Try and re-draft and let me know.	Try and re-draft and let me know. 	1117967	1471962510357	1471962510532	y	89
2283	23436	Try and re-draft and let me know.	Try and re-draft and let me know. 	1117969	1471962510798	1471962510936	 	32
2283	23436	Try and re-draft and let me know.	Try and re-draft and let me know. 	1117970	1471962511365	1471962511518	a	65
2283	23436	Try and re-draft and let me know.	Try and re-draft and let me know. 	1118046	1471962511518	1471962511653	n	78
2283	23436	Try and re-draft and let me know.	Try and re-draft and let me know. 	1118048	1471962511778	1471962511896	d	68
2283	23436	Try and re-draft and let me know.	Try and re-draft and let me know. 	1118054	1471962511912	1471962512022	 	32
2283	23436	Try and re-draft and let me know.	Try and re-draft and let me know. 	1118057	1471962513013	1471962513159	r	82
2283	23436	Try and re-draft and let me know.	Try and re-draft and let me know. 	1118298	1471962513106	1471962513264	e	69
2283	23436	Try and re-draft and let me know.	Try and re-draft and let me know. 	1118308	1471962514616	1471962514708	-	189
2283	23436	Try and re-draft and let me know.	Try and re-draft and let me know. 	1118315	1471962515838	1471962515988	d	68
2283	23436	Try and re-draft and let me know.	Try and re-draft and let me know. 	1118320	1471962516051	1471962516171	r	82
2283	23436	Try and re-draft and let me know.	Try and re-draft and let me know. 	1118326	1471962516368	1471962516506	a	65
2283	23436	Try and re-draft and let me know.	Try and re-draft and let me know. 	1118330	1471962516993	1471962517093	f	70
2283	23436	Try and re-draft and let me know.	Try and re-draft and let me know. 	1118393	1471962517166	1471962517307	t	84
2283	23436	Try and re-draft and let me know.	Try and re-draft and let me know. 	1118395	1471962517383	1471962517524	 	32
2283	23436	Try and re-draft and let me know.	Try and re-draft and let me know. 	1118397	1471962517995	1471962518093	a	65
2283	23436	Try and re-draft and let me know.	Try and re-draft and let me know. 	1118399	1471962518140	1471962518275	n	78
2283	23436	Try and re-draft and let me know.	Try and re-draft and let me know. 	1118403	1471962518415	1471962518526	d	68
2283	23436	Try and re-draft and let me know.	Try and re-draft and let me know. 	1118486	1471962518575	1471962518692	 	32
2283	23436	Try and re-draft and let me know.	Try and re-draft and let me know. 	1118491	1471962519775	1471962519955	l	76
2283	23436	Try and re-draft and let me know.	Try and re-draft and let me know. 	1118495	1471962519986	1471962520197	e	69
2283	23436	Try and re-draft and let me know.	Try and re-draft and let me know. 	1118748	1471962520092	1471962520239	r	82
2283	23436	Try and re-draft and let me know.	Try and re-draft and let me know. 	1118750	1471962520147	1471962520239	t	84
2283	23436	Try and re-draft and let me know.	Try and re-draft and let me know. 	1118755	1471962520908	1471962521105	BKSP	8
2283	23436	Try and re-draft and let me know.	Try and re-draft and let me know. 	1118760	1471962521230	1471962521343	BKSP	8
2283	23436	Try and re-draft and let me know.	Try and re-draft and let me know. 	1118764	1471962521531	1471962521675	t	84
2283	23436	Try and re-draft and let me know.	Try and re-draft and let me know. 	1118770	1471962522163	1471962522261	 	32
2283	23436	Try and re-draft and let me know.	Try and re-draft and let me know. 	1118776	1471962523407	1471962523512	m	77
2283	23436	Try and re-draft and let me know.	Try and re-draft and let me know. 	1118782	1471962523684	1471962523810	e	69
2283	23436	Try and re-draft and let me know.	Try and re-draft and let me know. 	1118787	1471962523810	1471962523913	 	32
2283	23436	Try and re-draft and let me know.	Try and re-draft and let me know. 	1118909	1471962524357	1471962524432	k	75
2283	23436	Try and re-draft and let me know.	Try and re-draft and let me know. 	1118913	1471962524542	1471962524614	n	78
2283	23436	Try and re-draft and let me know.	Try and re-draft and let me know. 	1118919	1471962524770	1471962524885	o	79
2283	23436	Try and re-draft and let me know.	Try and re-draft and let me know. 	1118925	1471962524951	1471962525064	w	87
2283	23436	Try and re-draft and let me know.	Try and re-draft and let me know. 	1118929	1471962526271	1471962526332	.	190
2283	23436	Try and re-draft and let me know.	Try and re-draft and let me know. 	1119008	1471962527040	1471962527162	 	32
2283	23463	His current status is day to day.	His current status is day to day.	1119280	1471962530611	1471962530968	SHIFT	16
2283	23463	His current status is day to day.	His current status is day to day.	1119282	1471962530877	1471962531015	H	72
2283	23463	His current status is day to day.	His current status is day to day.	1119285	1471962531108	1471962531279	i	73
2283	23463	His current status is day to day.	His current status is day to day.	1119289	1471962531336	1471962531481	e	69
2283	23463	His current status is day to day.	His current status is day to day.	1119295	1471962532030	1471962532134	BKSP	8
2283	23463	His current status is day to day.	His current status is day to day.	1119302	1471962532134	1471962532266	s	83
2283	23463	His current status is day to day.	His current status is day to day.	1119310	1471962532344	1471962532483	 	32
2283	23463	His current status is day to day.	His current status is day to day.	1119418	1471962533088	1471962533217	c	67
2283	23463	His current status is day to day.	His current status is day to day.	1119423	1471962533614	1471962533718	u	85
2283	23463	His current status is day to day.	His current status is day to day.	1119426	1471962533816	1471962533888	r	82
2283	23463	His current status is day to day.	His current status is day to day.	1119431	1471962533966	1471962534054	r	82
2283	23463	His current status is day to day.	His current status is day to day.	1119438	1471962534257	1471962534353	e	69
2283	23463	His current status is day to day.	His current status is day to day.	1119563	1471962534416	1471962534488	n	78
2283	23463	His current status is day to day.	His current status is day to day.	1119567	1471962534538	1471962534672	t	84
2283	23463	His current status is day to day.	His current status is day to day.	1119570	1471962534688	1471962534817	 	32
2283	23463	His current status is day to day.	His current status is day to day.	1119574	1471962535643	1471962535828	s	83
2283	23463	His current status is day to day.	His current status is day to day.	1119578	1471962535856	1471962535892	s	83
2283	23463	His current status is day to day.	His current status is day to day.	1119695	1471962535892	1471962535987	t	84
2283	23463	His current status is day to day.	His current status is day to day.	1119698	1471962536074	1471962536217	s	83
2283	23463	His current status is day to day.	His current status is day to day.	1119700	1471962537012	1471962537152	BKSP	8
2283	23463	His current status is day to day.	His current status is day to day.	1119703	1471962537168	1471962537287	a	65
2283	23463	His current status is day to day.	His current status is day to day.	1119706	1471962537568	1471962537693	t	84
2283	23463	His current status is day to day.	His current status is day to day.	1119709	1471962537818	1471962537906	u	85
2283	23463	His current status is day to day.	His current status is day to day.	1119812	1471962538059	1471962538156	s	83
2283	23463	His current status is day to day.	His current status is day to day.	1119814	1471962538910	1471962539022	 	32
2283	23463	His current status is day to day.	His current status is day to day.	1119816	1471962539400	1471962539614	i	73
2283	23463	His current status is day to day.	His current status is day to day.	1119821	1471962539692	1471962539836	s	83
2283	23463	His current status is day to day.	His current status is day to day.	1119828	1471962539836	1471962539955	 	32
2283	23463	His current status is day to day.	His current status is day to day.	1120431	1471962540729	1471962540839	BKSP	8
2283	23463	His current status is day to day.	His current status is day to day.	1120432	1471962540933	1471962541041	BKSP	8
2283	23463	His current status is day to day.	His current status is day to day.	1120433	1471962541134	1471962541224	BKSP	8
2283	23463	His current status is day to day.	His current status is day to day.	1120434	1471962541318	1471962541408	BKSP	8
2283	23463	His current status is day to day.	His current status is day to day.	1120435	1471962541502	1471962541576	BKSP	8
2283	23463	His current status is day to day.	His current status is day to day.	1120437	1471962545418	1471962545478	BKSP	8
2283	23463	His current status is day to day.	His current status is day to day.	1120443	1471962547408	1471962547481	s	83
2283	23463	His current status is day to day.	His current status is day to day.	1120448	1471962548387	1471962548464	 	32
2283	23463	His current status is day to day.	His current status is day to day.	1120454	1471962548792	1471962548896	i	73
2283	23463	His current status is day to day.	His current status is day to day.	1120460	1471962548959	1471962549092	s	83
2283	23463	His current status is day to day.	His current status is day to day.	1120530	1471962549046	1471962549162	 	32
2283	23463	His current status is day to day.	His current status is day to day.	1120533	1471962549537	1471962549677	d	68
2283	23463	His current status is day to day.	His current status is day to day.	1120535	1471962549833	1471962549963	a	65
2283	23463	His current status is day to day.	His current status is day to day.	1120537	1471962550025	1471962550115	y	89
2283	23463	His current status is day to day.	His current status is day to day.	1120540	1471962550224	1471962550340	 	32
2283	23463	His current status is day to day.	His current status is day to day.	1120541	1471962550973	1471962551049	t	84
2283	23463	His current status is day to day.	His current status is day to day.	1120592	1471962551134	1471962551214	o	79
2283	23463	His current status is day to day.	His current status is day to day.	1120594	1471962551308	1471962551398	 	32
2283	23463	His current status is day to day.	His current status is day to day.	1120599	1471962551523	1471962551692	d	68
2283	23463	His current status is day to day.	His current status is day to day.	1120601	1471962551708	1471962551845	a	65
2283	23463	His current status is day to day.	His current status is day to day.	1120604	1471962551986	1471962552034	y	89
2283	23463	His current status is day to day.	His current status is day to day.	1120640	1471962552548	1471962552617	.	190
2283	23498	Diplomats are predicting that the embargo will remain in force.	Diplomats are predicting that the embargo will remain in force.	1121026	1471962555454	1471962555835	SHIFT	16
2283	23498	Diplomats are predicting that the embargo will remain in force.	Diplomats are predicting that the embargo will remain in force.	1121022	1471962555737	1471962555804	D	68
2283	23498	Diplomats are predicting that the embargo will remain in force.	Diplomats are predicting that the embargo will remain in force.	1121031	1471962556853	1471962556935	i	73
2283	23498	Diplomats are predicting that the embargo will remain in force.	Diplomats are predicting that the embargo will remain in force.	1121034	1471962557220	1471962557333	p	80
2283	23498	Diplomats are predicting that the embargo will remain in force.	Diplomats are predicting that the embargo will remain in force.	1121040	1471962558950	1471962559083	l	76
2283	23498	Diplomats are predicting that the embargo will remain in force.	Diplomats are predicting that the embargo will remain in force.	1121044	1471962559586	1471962559686	o	79
2283	23498	Diplomats are predicting that the embargo will remain in force.	Diplomats are predicting that the embargo will remain in force.	1121213	1471962559883	1471962560002	m	77
2283	23498	Diplomats are predicting that the embargo will remain in force.	Diplomats are predicting that the embargo will remain in force.	1121214	1471962560112	1471962560219	a	65
2283	23498	Diplomats are predicting that the embargo will remain in force.	Diplomats are predicting that the embargo will remain in force.	1121215	1471962560406	1471962560520	n	78
2283	23498	Diplomats are predicting that the embargo will remain in force.	Diplomats are predicting that the embargo will remain in force.	1121217	1471962560745	1471962560900	t	84
2283	23498	Diplomats are predicting that the embargo will remain in force.	Diplomats are predicting that the embargo will remain in force.	1121221	1471962562235	1471962562338	s	83
2283	23498	Diplomats are predicting that the embargo will remain in force.	Diplomats are predicting that the embargo will remain in force.	1121465	1471962563144	1471962563240	 	32
2283	23498	Diplomats are predicting that the embargo will remain in force.	Diplomats are predicting that the embargo will remain in force.	1121469	1471962564385	1471962564521	BKSP	8
2283	23498	Diplomats are predicting that the embargo will remain in force.	Diplomats are predicting that the embargo will remain in force.	1121473	1471962564991	1471962565059	BKSP	8
2283	23498	Diplomats are predicting that the embargo will remain in force.	Diplomats are predicting that the embargo will remain in force.	1121479	1471962565168	1471962565226	BKSP	8
2283	23498	Diplomats are predicting that the embargo will remain in force.	Diplomats are predicting that the embargo will remain in force.	1121485	1471962565325	1471962565408	BKSP	8
2283	23498	Diplomats are predicting that the embargo will remain in force.	Diplomats are predicting that the embargo will remain in force.	1121490	1471962566259	1471962566404	t	84
2283	23498	Diplomats are predicting that the embargo will remain in force.	Diplomats are predicting that the embargo will remain in force.	1121495	1471962566419	1471962566554	s	83
2283	23498	Diplomats are predicting that the embargo will remain in force.	Diplomats are predicting that the embargo will remain in force.	1121501	1471962566616	1471962566708	 	32
2283	23498	Diplomats are predicting that the embargo will remain in force.	Diplomats are predicting that the embargo will remain in force.	1121507	1471962566849	1471962567128	a	65
2283	23498	Diplomats are predicting that the embargo will remain in force.	Diplomats are predicting that the embargo will remain in force.	1121605	1471962567076	1471962567327	r	82
2283	23498	Diplomats are predicting that the embargo will remain in force.	Diplomats are predicting that the embargo will remain in force.	1121608	1471962567276	1471962567437	e	69
2283	23498	Diplomats are predicting that the embargo will remain in force.	Diplomats are predicting that the embargo will remain in force.	1121611	1471962567484	1471962567591	 	32
2283	23498	Diplomats are predicting that the embargo will remain in force.	Diplomats are predicting that the embargo will remain in force.	1121616	1471962568438	1471962568620	p	80
2283	23498	Diplomats are predicting that the embargo will remain in force.	Diplomats are predicting that the embargo will remain in force.	1121620	1471962568718	1471962568912	r	82
2283	23498	Diplomats are predicting that the embargo will remain in force.	Diplomats are predicting that the embargo will remain in force.	1121751	1471962568857	1471962569025	e	69
2283	23498	Diplomats are predicting that the embargo will remain in force.	Diplomats are predicting that the embargo will remain in force.	1121752	1471962569166	1471962569321	d	68
2283	23498	Diplomats are predicting that the embargo will remain in force.	Diplomats are predicting that the embargo will remain in force.	1121754	1471962569431	1471962569527	i	73
2283	23498	Diplomats are predicting that the embargo will remain in force.	Diplomats are predicting that the embargo will remain in force.	1121758	1471962570368	1471962570476	c	67
2283	23498	Diplomats are predicting that the embargo will remain in force.	Diplomats are predicting that the embargo will remain in force.	1121761	1471962570585	1471962570710	t	84
2283	23498	Diplomats are predicting that the embargo will remain in force.	Diplomats are predicting that the embargo will remain in force.	1121764	1471962570788	1471962570876	i	73
2283	23498	Diplomats are predicting that the embargo will remain in force.	Diplomats are predicting that the embargo will remain in force.	1121874	1471962571051	1471962571161	n	78
2283	23498	Diplomats are predicting that the embargo will remain in force.	Diplomats are predicting that the embargo will remain in force.	1121880	1471962571286	1471962571410	g	71
2283	23498	Diplomats are predicting that the embargo will remain in force.	Diplomats are predicting that the embargo will remain in force.	1121884	1471962571441	1471962571529	 	32
2283	23498	Diplomats are predicting that the embargo will remain in force.	Diplomats are predicting that the embargo will remain in force.	1121887	1471962572441	1471962572613	t	84
2283	23498	Diplomats are predicting that the embargo will remain in force.	Diplomats are predicting that the embargo will remain in force.	1121957	1471962572580	1471962572678	h	72
2283	23498	Diplomats are predicting that the embargo will remain in force.	Diplomats are predicting that the embargo will remain in force.	1121961	1471962572756	1471962572875	a	65
2283	23498	Diplomats are predicting that the embargo will remain in force.	Diplomats are predicting that the embargo will remain in force.	1121966	1471962572953	1471962573048	t	84
2283	23498	Diplomats are predicting that the embargo will remain in force.	Diplomats are predicting that the embargo will remain in force.	1121969	1471962573174	1471962573284	 	32
2283	23498	Diplomats are predicting that the embargo will remain in force.	Diplomats are predicting that the embargo will remain in force.	1121971	1471962573694	1471962573865	t	84
2283	23498	Diplomats are predicting that the embargo will remain in force.	Diplomats are predicting that the embargo will remain in force.	1122074	1471962573812	1471962573887	h	72
2283	23498	Diplomats are predicting that the embargo will remain in force.	Diplomats are predicting that the embargo will remain in force.	1122078	1471962573918	1471962574044	e	69
2283	23498	Diplomats are predicting that the embargo will remain in force.	Diplomats are predicting that the embargo will remain in force.	1122086	1471962574060	1471962574194	 	32
2283	23498	Diplomats are predicting that the embargo will remain in force.	Diplomats are predicting that the embargo will remain in force.	1122093	1471962575339	1471962575462	e	69
2283	23498	Diplomats are predicting that the embargo will remain in force.	Diplomats are predicting that the embargo will remain in force.	1122099	1471962575519	1471962575629	m	77
2283	23498	Diplomats are predicting that the embargo will remain in force.	Diplomats are predicting that the embargo will remain in force.	1122108	1471962576164	1471962576296	b	66
2283	23498	Diplomats are predicting that the embargo will remain in force.	Diplomats are predicting that the embargo will remain in force.	1122365	1471962576708	1471962576846	a	65
2283	23498	Diplomats are predicting that the embargo will remain in force.	Diplomats are predicting that the embargo will remain in force.	1122368	1471962577140	1471962577239	r	82
2283	23498	Diplomats are predicting that the embargo will remain in force.	Diplomats are predicting that the embargo will remain in force.	1122370	1471962577411	1471962577500	g	71
2283	23498	Diplomats are predicting that the embargo will remain in force.	Diplomats are predicting that the embargo will remain in force.	1122372	1471962577828	1471962577932	o	79
2283	23498	Diplomats are predicting that the embargo will remain in force.	Diplomats are predicting that the embargo will remain in force.	1122373	1471962578573	1471962578756	BKSP	8
2283	23498	Diplomats are predicting that the embargo will remain in force.	Diplomats are predicting that the embargo will remain in force.	1122375	1471962580723	1471962580834	o	79
2283	23498	Diplomats are predicting that the embargo will remain in force.	Diplomats are predicting that the embargo will remain in force.	1122440	1471962580972	1471962581083	 	32
2283	23498	Diplomats are predicting that the embargo will remain in force.	Diplomats are predicting that the embargo will remain in force.	1122443	1471962581758	1471962581883	w	87
2283	23498	Diplomats are predicting that the embargo will remain in force.	Diplomats are predicting that the embargo will remain in force.	1122447	1471962581898	1471962581970	i	73
2283	23498	Diplomats are predicting that the embargo will remain in force.	Diplomats are predicting that the embargo will remain in force.	1122450	1471962582126	1471962582220	l	76
2283	23498	Diplomats are predicting that the embargo will remain in force.	Diplomats are predicting that the embargo will remain in force.	1122454	1471962582267	1471962582351	l	76
2283	23498	Diplomats are predicting that the embargo will remain in force.	Diplomats are predicting that the embargo will remain in force.	1122507	1471962582461	1471962582568	 	32
2283	23498	Diplomats are predicting that the embargo will remain in force.	Diplomats are predicting that the embargo will remain in force.	1122508	1471962583044	1471962583237	r	82
2283	23498	Diplomats are predicting that the embargo will remain in force.	Diplomats are predicting that the embargo will remain in force.	1122510	1471962583182	1471962583348	e	69
2283	23498	Diplomats are predicting that the embargo will remain in force.	Diplomats are predicting that the embargo will remain in force.	1122512	1471962583331	1471962583482	m	77
2283	23498	Diplomats are predicting that the embargo will remain in force.	Diplomats are predicting that the embargo will remain in force.	1122514	1471962583763	1471962583884	a	65
2283	23498	Diplomats are predicting that the embargo will remain in force.	Diplomats are predicting that the embargo will remain in force.	1122688	1471962583950	1471962584037	i	73
2283	23498	Diplomats are predicting that the embargo will remain in force.	Diplomats are predicting that the embargo will remain in force.	1122691	1471962584131	1471962584267	n	78
2283	23498	Diplomats are predicting that the embargo will remain in force.	Diplomats are predicting that the embargo will remain in force.	1122698	1471962584309	1471962584356	n	78
2283	23498	Diplomats are predicting that the embargo will remain in force.	Diplomats are predicting that the embargo will remain in force.	1122703	1471962584372	1471962584485	 	32
2283	23498	Diplomats are predicting that the embargo will remain in force.	Diplomats are predicting that the embargo will remain in force.	1122710	1471962585522	1471962585620	BKSP	8
2283	23498	Diplomats are predicting that the embargo will remain in force.	Diplomats are predicting that the embargo will remain in force.	1122716	1471962585823	1471962585889	BKSP	8
2283	23498	Diplomats are predicting that the embargo will remain in force.	Diplomats are predicting that the embargo will remain in force.	1122721	1471962586284	1471962586373	 	32
2283	23498	Diplomats are predicting that the embargo will remain in force.	Diplomats are predicting that the embargo will remain in force.	1122807	1471962586697	1471962586837	i	73
2283	23498	Diplomats are predicting that the embargo will remain in force.	Diplomats are predicting that the embargo will remain in force.	1122813	1471962586878	1471962586989	n	78
2283	23498	Diplomats are predicting that the embargo will remain in force.	Diplomats are predicting that the embargo will remain in force.	1122820	1471962587045	1471962587140	 	32
2283	23498	Diplomats are predicting that the embargo will remain in force.	Diplomats are predicting that the embargo will remain in force.	1122826	1471962587573	1471962587719	f	70
2283	23498	Diplomats are predicting that the embargo will remain in force.	Diplomats are predicting that the embargo will remain in force.	1122830	1471962587798	1471962587936	o	79
2283	23498	Diplomats are predicting that the embargo will remain in force.	Diplomats are predicting that the embargo will remain in force.	1122936	1471962587999	1471962588153	r	82
2283	23498	Diplomats are predicting that the embargo will remain in force.	Diplomats are predicting that the embargo will remain in force.	1122940	1471962588508	1471962588741	c	67
2283	23498	Diplomats are predicting that the embargo will remain in force.	Diplomats are predicting that the embargo will remain in force.	1122945	1471962588653	1471962588804	e	69
2283	23498	Diplomats are predicting that the embargo will remain in force.	Diplomats are predicting that the embargo will remain in force.	1122949	1471962589903	1471962589961	.	190
2283	23547	Jets secondary on Sunday.	Jets secondary on Sunday.	1123152	1471962592990	1471962593221	SHIFT	16
2283	23547	Jets secondary on Sunday.	Jets secondary on Sunday.	1123154	1471962593159	1471962593245	J	74
2283	23547	Jets secondary on Sunday.	Jets secondary on Sunday.	1123157	1471962593420	1471962593573	e	69
2283	23547	Jets secondary on Sunday.	Jets secondary on Sunday.	1123160	1471962593698	1471962593778	t	84
2283	23547	Jets secondary on Sunday.	Jets secondary on Sunday.	1123163	1471962593794	1471962593909	s	83
2283	23547	Jets secondary on Sunday.	Jets secondary on Sunday.	1123165	1471962593941	1471962594013	 	32
2283	23547	Jets secondary on Sunday.	Jets secondary on Sunday.	1123362	1471962594863	1471962595159	s	83
2283	23547	Jets secondary on Sunday.	Jets secondary on Sunday.	1123359	1471962595024	1471962595096	e	69
2283	23547	Jets secondary on Sunday.	Jets secondary on Sunday.	1123368	1471962595284	1471962595393	c	67
2283	23547	Jets secondary on Sunday.	Jets secondary on Sunday.	1123373	1471962595572	1471962595708	o	79
2283	23547	Jets secondary on Sunday.	Jets secondary on Sunday.	1123375	1471962596858	1471962596994	n	78
2283	23547	Jets secondary on Sunday.	Jets secondary on Sunday.	1123464	1471962597164	1471962597387	d	68
2283	23547	Jets secondary on Sunday.	Jets secondary on Sunday.	1123470	1471962597528	1471962597813	a	65
2283	23547	Jets secondary on Sunday.	Jets secondary on Sunday.	1123476	1471962597755	1471962597879	r	82
2283	23547	Jets secondary on Sunday.	Jets secondary on Sunday.	1123483	1471962598073	1471962598196	y	89
2283	23547	Jets secondary on Sunday.	Jets secondary on Sunday.	1123491	1471962598518	1471962598646	 	32
2283	23547	Jets secondary on Sunday.	Jets secondary on Sunday.	1123585	1471962599029	1471962599093	o	79
2283	23547	Jets secondary on Sunday.	Jets secondary on Sunday.	1123587	1471962599212	1471962599313	n	78
2283	23547	Jets secondary on Sunday.	Jets secondary on Sunday.	1123594	1471962599376	1471962599481	 	32
2283	23547	Jets secondary on Sunday.	Jets secondary on Sunday.	1123600	1471962599623	1471962600428	SHIFT	16
2283	23547	Jets secondary on Sunday.	Jets secondary on Sunday.	1123606	1471962600268	1471962600428	S	83
2283	23547	Jets secondary on Sunday.	Jets secondary on Sunday.	1123610	1471962600501	1471962600582	u	85
2283	23547	Jets secondary on Sunday.	Jets secondary on Sunday.	1123673	1471962600714	1471962600799	n	78
2283	23547	Jets secondary on Sunday.	Jets secondary on Sunday.	1123677	1471962601033	1471962601212	d	68
2283	23547	Jets secondary on Sunday.	Jets secondary on Sunday.	1123684	1471962601294	1471962601399	a	65
2283	23547	Jets secondary on Sunday.	Jets secondary on Sunday.	1123690	1471962601877	1471962601997	y	89
2283	23547	Jets secondary on Sunday.	Jets secondary on Sunday.	1123695	1471962602159	1471962602203	.	190
2283	23564	As usual, I will be as candid as I can.	As usual, I will be as candid as I can.	1123952	1471962604335	1471962604983	SHIFT	16
2283	23564	As usual, I will be as candid as I can.	As usual, I will be as candid as I can.	1123953	1471962604859	1471962604983	A	65
2283	23564	As usual, I will be as candid as I can.	As usual, I will be as candid as I can.	1123955	1471962605172	1471962605283	s	83
2283	23564	As usual, I will be as candid as I can.	As usual, I will be as candid as I can.	1123958	1471962605330	1471962605466	 	32
2283	23564	As usual, I will be as candid as I can.	As usual, I will be as candid as I can.	1123961	1471962606627	1471962606834	u	85
2283	23564	As usual, I will be as candid as I can.	As usual, I will be as candid as I can.	1123964	1471962606992	1471962607102	s	83
2283	23564	As usual, I will be as candid as I can.	As usual, I will be as candid as I can.	1124186	1471962607869	1471962607985	u	85
2283	23564	As usual, I will be as candid as I can.	As usual, I will be as candid as I can.	1124189	1471962608001	1471962608087	a	65
2283	23564	As usual, I will be as candid as I can.	As usual, I will be as candid as I can.	1124193	1471962609588	1471962609640	l	76
2283	23564	As usual, I will be as candid as I can.	As usual, I will be as candid as I can.	1124198	1471962609796	1471962609840	;	186
2283	23564	As usual, I will be as candid as I can.	As usual, I will be as candid as I can.	1124205	1471962611111	1471962611191	BKSP	8
2283	23564	As usual, I will be as candid as I can.	As usual, I will be as candid as I can.	1124207	1471962611613	1471962611691	,	188
2283	23564	As usual, I will be as candid as I can.	As usual, I will be as candid as I can.	1124353	1471962612072	1471962612184	 	32
2283	23564	As usual, I will be as candid as I can.	As usual, I will be as candid as I can.	1124356	1471962612773	1471962612992	SHIFT	16
2283	23564	As usual, I will be as candid as I can.	As usual, I will be as candid as I can.	1124359	1471962612929	1471962613039	I	73
2283	23564	As usual, I will be as candid as I can.	As usual, I will be as candid as I can.	1124363	1471962613148	1471962613259	 	32
2283	23564	As usual, I will be as candid as I can.	As usual, I will be as candid as I can.	1124366	1471962613791	1471962613922	w	87
2283	23564	As usual, I will be as candid as I can.	As usual, I will be as candid as I can.	1124369	1471962613937	1471962613993	i	73
2283	23564	As usual, I will be as candid as I can.	As usual, I will be as candid as I can.	1124455	1471962614214	1471962614275	l	76
2283	23564	As usual, I will be as candid as I can.	As usual, I will be as candid as I can.	1124459	1471962614369	1471962614422	l	76
2283	23564	As usual, I will be as candid as I can.	As usual, I will be as candid as I can.	1124463	1471962614521	1471962614639	 	32
2283	23564	As usual, I will be as candid as I can.	As usual, I will be as candid as I can.	1124466	1471962615331	1471962615472	b	66
2283	23564	As usual, I will be as candid as I can.	As usual, I will be as candid as I can.	1124470	1471962615488	1471962615638	e	69
2283	23564	As usual, I will be as candid as I can.	As usual, I will be as candid as I can.	1124584	1471962615591	1471962615708	 	32
2283	23564	As usual, I will be as candid as I can.	As usual, I will be as candid as I can.	1124587	1471962616303	1471962616394	a	65
2283	23564	As usual, I will be as candid as I can.	As usual, I will be as candid as I can.	1124591	1471962616341	1471962616550	s	83
2283	23564	As usual, I will be as candid as I can.	As usual, I will be as candid as I can.	1124597	1471962616677	1471962616837	 	32
2283	23564	As usual, I will be as candid as I can.	As usual, I will be as candid as I can.	1124600	1471962617467	1471962617639	c	67
2283	23564	As usual, I will be as candid as I can.	As usual, I will be as candid as I can.	1124606	1471962617639	1471962617759	a	65
2283	23564	As usual, I will be as candid as I can.	As usual, I will be as candid as I can.	1124775	1471962619594	1471962619693	n	78
2283	23564	As usual, I will be as candid as I can.	As usual, I will be as candid as I can.	1124777	1471962619803	1471962619910	d	68
2283	23564	As usual, I will be as candid as I can.	As usual, I will be as candid as I can.	1124779	1471962619973	1471962620045	i	73
2283	23564	As usual, I will be as candid as I can.	As usual, I will be as candid as I can.	1124781	1471962620045	1471962620129	d	68
2283	23564	As usual, I will be as candid as I can.	As usual, I will be as candid as I can.	1124784	1471962620485	1471962620606	 	32
2283	23564	As usual, I will be as candid as I can.	As usual, I will be as candid as I can.	1124874	1471962621113	1471962621360	a	65
2283	23564	As usual, I will be as candid as I can.	As usual, I will be as candid as I can.	1124877	1471962621244	1471962621407	s	83
2283	23564	As usual, I will be as candid as I can.	As usual, I will be as candid as I can.	1124880	1471962621454	1471962621531	 	32
2283	23564	As usual, I will be as candid as I can.	As usual, I will be as candid as I can.	1124885	1471962621753	1471962621847	i	73
2283	23564	As usual, I will be as candid as I can.	As usual, I will be as candid as I can.	1124888	1471962622411	1471962622544	BKSP	8
2283	23564	As usual, I will be as candid as I can.	As usual, I will be as candid as I can.	1124893	1471962622669	1471962622930	SHIFT	16
2283	23564	As usual, I will be as candid as I can.	As usual, I will be as candid as I can.	1125053	1471962622841	1471962622930	I	73
2283	23564	As usual, I will be as candid as I can.	As usual, I will be as candid as I can.	1125057	1471962623038	1471962623141	 	32
2283	23564	As usual, I will be as candid as I can.	As usual, I will be as candid as I can.	1125061	1471962623696	1471962623900	c	67
2283	23564	As usual, I will be as candid as I can.	As usual, I will be as candid as I can.	1125064	1471962623828	1471962623978	a	65
2283	23564	As usual, I will be as candid as I can.	As usual, I will be as candid as I can.	1125068	1471962624040	1471962624146	n	78
2283	23564	As usual, I will be as candid as I can.	As usual, I will be as candid as I can.	1125073	1471962625604	1471962625652	.	190
2283	23596	Coal switching to NG and power guys stimulating demand.	Coal switching to NG and power guys stimulating demand.	1125313	1471962627701	1471962628066	SHIFT	16
2283	23596	Coal switching to NG and power guys stimulating demand.	Coal switching to NG and power guys stimulating demand.	1125318	1471962627963	1471962628144	C	67
2283	23596	Coal switching to NG and power guys stimulating demand.	Coal switching to NG and power guys stimulating demand.	1125324	1471962628615	1471962628748	o	79
2283	23596	Coal switching to NG and power guys stimulating demand.	Coal switching to NG and power guys stimulating demand.	1125329	1471962629029	1471962629148	a	65
2283	23596	Coal switching to NG and power guys stimulating demand.	Coal switching to NG and power guys stimulating demand.	1125331	1471962629195	1471962629284	l	76
2283	23596	Coal switching to NG and power guys stimulating demand.	Coal switching to NG and power guys stimulating demand.	1125335	1471962629380	1471962629500	 	32
2283	23596	Coal switching to NG and power guys stimulating demand.	Coal switching to NG and power guys stimulating demand.	1125515	1471962630805	1471962630901	s	83
2283	23596	Coal switching to NG and power guys stimulating demand.	Coal switching to NG and power guys stimulating demand.	1125518	1471962631029	1471962631181	w	87
2283	23596	Coal switching to NG and power guys stimulating demand.	Coal switching to NG and power guys stimulating demand.	1125521	1471962631439	1471962631567	i	73
2283	23596	Coal switching to NG and power guys stimulating demand.	Coal switching to NG and power guys stimulating demand.	1125527	1471962631696	1471962631802	t	84
2283	23596	Coal switching to NG and power guys stimulating demand.	Coal switching to NG and power guys stimulating demand.	1125534	1471962632211	1471962632334	c	67
2283	23596	Coal switching to NG and power guys stimulating demand.	Coal switching to NG and power guys stimulating demand.	1125614	1471962632334	1471962632452	h	72
2283	23596	Coal switching to NG and power guys stimulating demand.	Coal switching to NG and power guys stimulating demand.	1125621	1471962632615	1471962632749	i	73
2283	23596	Coal switching to NG and power guys stimulating demand.	Coal switching to NG and power guys stimulating demand.	1125628	1471962632843	1471962632968	n	78
2283	23596	Coal switching to NG and power guys stimulating demand.	Coal switching to NG and power guys stimulating demand.	1125632	1471962633172	1471962633271	g	71
2283	23596	Coal switching to NG and power guys stimulating demand.	Coal switching to NG and power guys stimulating demand.	1125637	1471962633349	1471962633437	 	32
2283	23596	Coal switching to NG and power guys stimulating demand.	Coal switching to NG and power guys stimulating demand.	1125836	1471962634991	1471962635125	t	84
2283	23596	Coal switching to NG and power guys stimulating demand.	Coal switching to NG and power guys stimulating demand.	1125843	1471962635088	1471962635251	o	79
2283	23596	Coal switching to NG and power guys stimulating demand.	Coal switching to NG and power guys stimulating demand.	1125850	1471962635251	1471962635384	 	32
2283	23596	Coal switching to NG and power guys stimulating demand.	Coal switching to NG and power guys stimulating demand.	1126033	1471962636029	1471962636719	SHIFT	16
2283	23596	Coal switching to NG and power guys stimulating demand.	Coal switching to NG and power guys stimulating demand.	1125853	1471962636390	1471962636475	N	78
2283	23596	Coal switching to NG and power guys stimulating demand.	Coal switching to NG and power guys stimulating demand.	1125859	1471962636600	1471962636673	G	71
2283	23596	Coal switching to NG and power guys stimulating demand.	Coal switching to NG and power guys stimulating demand.	1126035	1471962637099	1471962637238	 	32
2283	23596	Coal switching to NG and power guys stimulating demand.	Coal switching to NG and power guys stimulating demand.	1126042	1471962638839	1471962639004	a	65
2283	23596	Coal switching to NG and power guys stimulating demand.	Coal switching to NG and power guys stimulating demand.	1126046	1471962639004	1471962639139	n	78
2283	23596	Coal switching to NG and power guys stimulating demand.	Coal switching to NG and power guys stimulating demand.	1126049	1471962639285	1471962639389	d	68
2283	23596	Coal switching to NG and power guys stimulating demand.	Coal switching to NG and power guys stimulating demand.	1126053	1471962639420	1471962639542	 	32
2283	23596	Coal switching to NG and power guys stimulating demand.	Coal switching to NG and power guys stimulating demand.	1126196	1471962640623	1471962640756	p	80
2283	23596	Coal switching to NG and power guys stimulating demand.	Coal switching to NG and power guys stimulating demand.	1126200	1471962640850	1471962640988	o	79
2283	23596	Coal switching to NG and power guys stimulating demand.	Coal switching to NG and power guys stimulating demand.	1126201	1471962641167	1471962641486	w	87
2283	23596	Coal switching to NG and power guys stimulating demand.	Coal switching to NG and power guys stimulating demand.	1126205	1471962641276	1471962641545	e	69
2283	23596	Coal switching to NG and power guys stimulating demand.	Coal switching to NG and power guys stimulating demand.	1126313	1471962641502	1471962641646	r	82
2283	23596	Coal switching to NG and power guys stimulating demand.	Coal switching to NG and power guys stimulating demand.	1126316	1471962641756	1471962641891	 	32
2283	23596	Coal switching to NG and power guys stimulating demand.	Coal switching to NG and power guys stimulating demand.	1126319	1471962642720	1471962642860	g	71
2283	23596	Coal switching to NG and power guys stimulating demand.	Coal switching to NG and power guys stimulating demand.	1126322	1471962642923	1471962643042	u	85
2283	23596	Coal switching to NG and power guys stimulating demand.	Coal switching to NG and power guys stimulating demand.	1126324	1471962643349	1471962643444	y	89
2283	23596	Coal switching to NG and power guys stimulating demand.	Coal switching to NG and power guys stimulating demand.	1126328	1471962643506	1471962643610	s	83
2283	23596	Coal switching to NG and power guys stimulating demand.	Coal switching to NG and power guys stimulating demand.	1126435	1471962643757	1471962643877	 	32
2283	23596	Coal switching to NG and power guys stimulating demand.	Coal switching to NG and power guys stimulating demand.	1126437	1471962644662	1471962644878	s	83
2283	23596	Coal switching to NG and power guys stimulating demand.	Coal switching to NG and power guys stimulating demand.	1126439	1471962644925	1471962645075	t	84
2283	23596	Coal switching to NG and power guys stimulating demand.	Coal switching to NG and power guys stimulating demand.	1126441	1471962645169	1471962645261	i	73
2283	23596	Coal switching to NG and power guys stimulating demand.	Coal switching to NG and power guys stimulating demand.	1126443	1471962645484	1471962645594	m	77
2283	23596	Coal switching to NG and power guys stimulating demand.	Coal switching to NG and power guys stimulating demand.	1126509	1471962645825	1471962645928	u	85
2283	23596	Coal switching to NG and power guys stimulating demand.	Coal switching to NG and power guys stimulating demand.	1126511	1471962646197	1471962646295	l	76
2283	23596	Coal switching to NG and power guys stimulating demand.	Coal switching to NG and power guys stimulating demand.	1126514	1471962646484	1471962646640	a	65
2283	23596	Coal switching to NG and power guys stimulating demand.	Coal switching to NG and power guys stimulating demand.	1126516	1471962646781	1471962646941	t	84
2283	23596	Coal switching to NG and power guys stimulating demand.	Coal switching to NG and power guys stimulating demand.	1126519	1471962646972	1471962647094	i	73
2283	23596	Coal switching to NG and power guys stimulating demand.	Coal switching to NG and power guys stimulating demand.	1126650	1471962647275	1471962647394	n	78
2283	23596	Coal switching to NG and power guys stimulating demand.	Coal switching to NG and power guys stimulating demand.	1126651	1471962647394	1471962647479	g	71
2283	23596	Coal switching to NG and power guys stimulating demand.	Coal switching to NG and power guys stimulating demand.	1126653	1471962647555	1471962647662	 	32
2283	23596	Coal switching to NG and power guys stimulating demand.	Coal switching to NG and power guys stimulating demand.	1126657	1471962649309	1471962649429	d	68
2283	23596	Coal switching to NG and power guys stimulating demand.	Coal switching to NG and power guys stimulating demand.	1126662	1471962649523	1471962649613	e	69
2283	23596	Coal switching to NG and power guys stimulating demand.	Coal switching to NG and power guys stimulating demand.	1126685	1471962649709	1471962649813	m	77
2283	23596	Coal switching to NG and power guys stimulating demand.	Coal switching to NG and power guys stimulating demand.	1126688	1471962649813	1471962649962	a	65
2283	23596	Coal switching to NG and power guys stimulating demand.	Coal switching to NG and power guys stimulating demand.	1126690	1471962650040	1471962650147	n	78
2283	23596	Coal switching to NG and power guys stimulating demand.	Coal switching to NG and power guys stimulating demand.	1126693	1471962650398	1471962650513	d	68
2283	23596	Coal switching to NG and power guys stimulating demand.	Coal switching to NG and power guys stimulating demand.	1126697	1471962650794	1471962650852	.	190
2283	23627	Let me know if you do not hear from them in the next couple of days.	Let me know if you do not hear from them in the text couple of days.	1126921	1471962653682	1471962654086	SHIFT	16
2283	23627	Let me know if you do not hear from them in the next couple of days.	Let me know if you do not hear from them in the text couple of days.	1126924	1471962654036	1471962654196	L	76
2283	23627	Let me know if you do not hear from them in the next couple of days.	Let me know if you do not hear from them in the text couple of days.	1126927	1471962654274	1471962654500	e	69
2283	23627	Let me know if you do not hear from them in the next couple of days.	Let me know if you do not hear from them in the text couple of days.	1126930	1471962654461	1471962654630	t	84
2283	23627	Let me know if you do not hear from them in the next couple of days.	Let me know if you do not hear from them in the text couple of days.	1126933	1471962654739	1471962654849	 	32
2283	23627	Let me know if you do not hear from them in the next couple of days.	Let me know if you do not hear from them in the text couple of days.	1126937	1471962655757	1471962655908	m	77
2283	23627	Let me know if you do not hear from them in the next couple of days.	Let me know if you do not hear from them in the text couple of days.	1127035	1471962655867	1471962655999	e	69
2283	23627	Let me know if you do not hear from them in the next couple of days.	Let me know if you do not hear from them in the text couple of days.	1127038	1471962656062	1471962656199	 	32
2283	23627	Let me know if you do not hear from them in the next couple of days.	Let me know if you do not hear from them in the text couple of days.	1127042	1471962657470	1471962657585	k	75
2283	23627	Let me know if you do not hear from them in the next couple of days.	Let me know if you do not hear from them in the text couple of days.	1127045	1471962657647	1471962657752	n	78
2283	23627	Let me know if you do not hear from them in the next couple of days.	Let me know if you do not hear from them in the text couple of days.	1127048	1471962657893	1471962658017	o	79
2283	23627	Let me know if you do not hear from them in the next couple of days.	Let me know if you do not hear from them in the text couple of days.	1127049	1471962658095	1471962658228	w	87
2283	23627	Let me know if you do not hear from them in the next couple of days.	Let me know if you do not hear from them in the text couple of days.	1127128	1471962658186	1471962658286	 	32
2283	23627	Let me know if you do not hear from them in the next couple of days.	Let me know if you do not hear from them in the text couple of days.	1127129	1471962659339	1471962659484	i	73
2283	23627	Let me know if you do not hear from them in the next couple of days.	Let me know if you do not hear from them in the text couple of days.	1127131	1471962659500	1471962659620	f	70
2283	23627	Let me know if you do not hear from them in the next couple of days.	Let me know if you do not hear from them in the text couple of days.	1127133	1471962659603	1471962659687	 	32
2283	23627	Let me know if you do not hear from them in the next couple of days.	Let me know if you do not hear from them in the text couple of days.	1127135	1471962659895	1471962660003	y	89
2283	23627	Let me know if you do not hear from them in the next couple of days.	Let me know if you do not hear from them in the text couple of days.	1127138	1471962660253	1471962660385	o	79
2283	23627	Let me know if you do not hear from them in the next couple of days.	Let me know if you do not hear from them in the text couple of days.	1127222	1471962660509	1471962660589	u	85
2283	23627	Let me know if you do not hear from them in the next couple of days.	Let me know if you do not hear from them in the text couple of days.	1127223	1471962660698	1471962660812	 	32
2283	23627	Let me know if you do not hear from them in the next couple of days.	Let me know if you do not hear from them in the text couple of days.	1127224	1471962661918	1471962662052	d	68
2283	23627	Let me know if you do not hear from them in the next couple of days.	Let me know if you do not hear from them in the text couple of days.	1127225	1471962662022	1471962662153	o	79
2283	23627	Let me know if you do not hear from them in the next couple of days.	Let me know if you do not hear from them in the text couple of days.	1127229	1471962662169	1471962662303	 	32
2283	23627	Let me know if you do not hear from them in the next couple of days.	Let me know if you do not hear from them in the text couple of days.	1127275	1471962662537	1471962662623	n	78
2283	23627	Let me know if you do not hear from them in the next couple of days.	Let me know if you do not hear from them in the text couple of days.	1127276	1471962662748	1471962662856	o	79
2283	23627	Let me know if you do not hear from them in the next couple of days.	Let me know if you do not hear from them in the text couple of days.	1127277	1471962662981	1471962663105	t	84
2283	23627	Let me know if you do not hear from them in the next couple of days.	Let me know if you do not hear from them in the text couple of days.	1127278	1471962663120	1471962663207	 	32
2283	23627	Let me know if you do not hear from them in the next couple of days.	Let me know if you do not hear from them in the text couple of days.	1127280	1471962663975	1471962664121	h	72
2283	23627	Let me know if you do not hear from them in the next couple of days.	Let me know if you do not hear from them in the text couple of days.	1127367	1471962664488	1471962664653	e	69
2283	23627	Let me know if you do not hear from them in the next couple of days.	Let me know if you do not hear from them in the text couple of days.	1127368	1471962664700	1471962664932	a	65
2283	23627	Let me know if you do not hear from them in the next couple of days.	Let me know if you do not hear from them in the text couple of days.	1127369	1471962664885	1471962665006	r	82
2283	23627	Let me know if you do not hear from them in the next couple of days.	Let me know if you do not hear from them in the text couple of days.	1127370	1471962665068	1471962665173	 	32
2283	23627	Let me know if you do not hear from them in the next couple of days.	Let me know if you do not hear from them in the text couple of days.	1127371	1471962665707	1471962665969	f	70
2283	23627	Let me know if you do not hear from them in the next couple of days.	Let me know if you do not hear from them in the text couple of days.	1127465	1471962665808	1471962665969	r	82
2283	23627	Let me know if you do not hear from them in the next couple of days.	Let me know if you do not hear from them in the text couple of days.	1127467	1471962665999	1471962666124	o	79
2283	23627	Let me know if you do not hear from them in the next couple of days.	Let me know if you do not hear from them in the text couple of days.	1127468	1471962666217	1471962666340	m	77
2283	23627	Let me know if you do not hear from them in the next couple of days.	Let me know if you do not hear from them in the text couple of days.	1127469	1471962666465	1471962666574	 	32
2283	23627	Let me know if you do not hear from them in the next couple of days.	Let me know if you do not hear from them in the text couple of days.	1127540	1471962667234	1471962667454	t	84
2283	23627	Let me know if you do not hear from them in the next couple of days.	Let me know if you do not hear from them in the text couple of days.	1127470	1471962667342	1471962667426	h	72
2283	23627	Let me know if you do not hear from them in the next couple of days.	Let me know if you do not hear from them in the text couple of days.	1127544	1471962667486	1471962667592	e	69
2283	23627	Let me know if you do not hear from them in the next couple of days.	Let me know if you do not hear from them in the text couple of days.	1127547	1471962667655	1471962667744	m	77
2283	23627	Let me know if you do not hear from them in the next couple of days.	Let me know if you do not hear from them in the text couple of days.	1127550	1471962667822	1471962667941	 	32
2283	23627	Let me know if you do not hear from them in the next couple of days.	Let me know if you do not hear from them in the text couple of days.	1127553	1471962668522	1471962668673	i	73
2283	23627	Let me know if you do not hear from them in the next couple of days.	Let me know if you do not hear from them in the text couple of days.	1127555	1471962668704	1471962668841	n	78
2283	23627	Let me know if you do not hear from them in the next couple of days.	Let me know if you do not hear from them in the text couple of days.	1127575	1471962668878	1471962668992	 	32
2283	23627	Let me know if you do not hear from them in the next couple of days.	Let me know if you do not hear from them in the text couple of days.	1127584	1471962669055	1471962669296	t	84
2283	23627	Let me know if you do not hear from them in the next couple of days.	Let me know if you do not hear from them in the text couple of days.	1127578	1471962669160	1471962669245	h	72
2283	23627	Let me know if you do not hear from them in the next couple of days.	Let me know if you do not hear from them in the text couple of days.	1127589	1471962669245	1471962669412	e	69
2283	23627	Let me know if you do not hear from them in the next couple of days.	Let me know if you do not hear from them in the text couple of days.	1127692	1471962669375	1471962669445	 	32
2283	23627	Let me know if you do not hear from them in the next couple of days.	Let me know if you do not hear from them in the text couple of days.	1127694	1471962669956	1471962670075	t	84
2283	23627	Let me know if you do not hear from them in the next couple of days.	Let me know if you do not hear from them in the text couple of days.	1127696	1471962670331	1471962670458	e	69
2283	23627	Let me know if you do not hear from them in the next couple of days.	Let me know if you do not hear from them in the text couple of days.	1127698	1471962670776	1471962670908	x	88
2283	23627	Let me know if you do not hear from them in the next couple of days.	Let me know if you do not hear from them in the text couple of days.	1127702	1471962671017	1471962671144	t	84
2283	23627	Let me know if you do not hear from them in the next couple of days.	Let me know if you do not hear from them in the text couple of days.	1127705	1471962671284	1471962671362	 	32
2283	23627	Let me know if you do not hear from them in the next couple of days.	Let me know if you do not hear from them in the text couple of days.	1127806	1471962672555	1471962672646	c	67
2283	23627	Let me know if you do not hear from them in the next couple of days.	Let me know if you do not hear from them in the text couple of days.	1127809	1471962672756	1471962672861	o	79
2283	23627	Let me know if you do not hear from them in the next couple of days.	Let me know if you do not hear from them in the text couple of days.	1127812	1471962673005	1471962673065	u	85
2283	23627	Let me know if you do not hear from them in the next couple of days.	Let me know if you do not hear from them in the text couple of days.	1127814	1471962673401	1471962673461	p	80
2283	23627	Let me know if you do not hear from them in the next couple of days.	Let me know if you do not hear from them in the text couple of days.	1127816	1471962673566	1471962673632	l	76
2283	23627	Let me know if you do not hear from them in the next couple of days.	Let me know if you do not hear from them in the text couple of days.	1127894	1471962673694	1471962673827	e	69
2283	23627	Let me know if you do not hear from them in the next couple of days.	Let me know if you do not hear from them in the text couple of days.	1127895	1471962674692	1471962674811	 	32
2283	23627	Let me know if you do not hear from them in the next couple of days.	Let me know if you do not hear from them in the text couple of days.	1127898	1471962675236	1471962675346	o	79
2283	23627	Let me know if you do not hear from them in the next couple of days.	Let me know if you do not hear from them in the text couple of days.	1127901	1471962675408	1471962675509	f	70
2283	23627	Let me know if you do not hear from them in the next couple of days.	Let me know if you do not hear from them in the text couple of days.	1128035	1471962675467	1471962675566	 	32
2283	23627	Let me know if you do not hear from them in the next couple of days.	Let me know if you do not hear from them in the text couple of days.	1128038	1471962675925	1471962676039	d	68
2283	23627	Let me know if you do not hear from them in the next couple of days.	Let me know if you do not hear from them in the text couple of days.	1128041	1471962676163	1471962676281	a	65
2283	23627	Let me know if you do not hear from them in the next couple of days.	Let me know if you do not hear from them in the text couple of days.	1128046	1471962676405	1471962676500	y	89
2283	23627	Let me know if you do not hear from them in the next couple of days.	Let me know if you do not hear from them in the text couple of days.	1128050	1471962676895	1471962676984	s	83
2283	23627	Let me know if you do not hear from them in the next couple of days.	Let me know if you do not hear from them in the text couple of days.	1128056	1471962677410	1471962677468	.	190
2283	23627	Let me know if you do not hear from them in the next couple of days.	Let me know if you do not hear from them in the text couple of days.	1128145	1471962677584	1471962677683	 	32
2283	23627	Let me know if you do not hear from them in the next couple of days.	Let me know if you do not hear from them in the text couple of days.	1128148	1471962678861	1471962678981	BKSP	8
2283	23660	You have a lot of holes in your plan.	You have a lot of holes in your plan.	1128360	1471962681798	1471962682220	SHIFT	16
2283	23660	You have a lot of holes in your plan.	You have a lot of holes in your plan.	1128364	1471962682142	1471962682220	Y	89
2283	23660	You have a lot of holes in your plan.	You have a lot of holes in your plan.	1128367	1471962682501	1471962682651	o	79
2283	23660	You have a lot of holes in your plan.	You have a lot of holes in your plan.	1128369	1471962682745	1471962682852	u	85
2283	23660	You have a lot of holes in your plan.	You have a lot of holes in your plan.	1128371	1471962682961	1471962683052	 	32
2283	23660	You have a lot of holes in your plan.	You have a lot of holes in your plan.	1128374	1471962683177	1471962683255	h	72
2283	23660	You have a lot of holes in your plan.	You have a lot of holes in your plan.	1128469	1471962683279	1471962683433	a	65
2283	23660	You have a lot of holes in your plan.	You have a lot of holes in your plan.	1128472	1471962683699	1471962683944	v	86
2283	23660	You have a lot of holes in your plan.	You have a lot of holes in your plan.	1128476	1471962683944	1471962684004	e	69
2283	23660	You have a lot of holes in your plan.	You have a lot of holes in your plan.	1128479	1471962684257	1471962684482	 	32
2283	23660	You have a lot of holes in your plan.	You have a lot of holes in your plan.	1128482	1471962684934	1471962685108	a	65
2283	23660	You have a lot of holes in your plan.	You have a lot of holes in your plan.	1128597	1471962685083	1471962685187	 	32
2283	23660	You have a lot of holes in your plan.	You have a lot of holes in your plan.	1128601	1471962685515	1471962685590	l	76
2283	23660	You have a lot of holes in your plan.	You have a lot of holes in your plan.	1128606	1471962685715	1471962685772	o	79
2283	23660	You have a lot of holes in your plan.	You have a lot of holes in your plan.	1128611	1471962686035	1471962686090	t	84
2283	23660	You have a lot of holes in your plan.	You have a lot of holes in your plan.	1128615	1471962686247	1471962686355	 	32
2283	23660	You have a lot of holes in your plan.	You have a lot of holes in your plan.	1128619	1471962686934	1471962687069	o	79
2283	23660	You have a lot of holes in your plan.	You have a lot of holes in your plan.	1128734	1471962687247	1471962687371	d	68
2283	23660	You have a lot of holes in your plan.	You have a lot of holes in your plan.	1128738	1471962687574	1471962687720	 	32
2283	23660	You have a lot of holes in your plan.	You have a lot of holes in your plan.	1128742	1471962688049	1471962688124	BKSP	8
2283	23660	You have a lot of holes in your plan.	You have a lot of holes in your plan.	1128745	1471962688253	1471962688292	BKSP	8
2283	23660	You have a lot of holes in your plan.	You have a lot of holes in your plan.	1128749	1471962688740	1471962688840	f	70
2283	23660	You have a lot of holes in your plan.	You have a lot of holes in your plan.	1128753	1471962688902	1471962689022	 	32
2283	23660	You have a lot of holes in your plan.	You have a lot of holes in your plan.	1128756	1471962689241	1471962689324	h	72
2283	23660	You have a lot of holes in your plan.	You have a lot of holes in your plan.	1128812	1471962689643	1471962689709	o	79
2283	23660	You have a lot of holes in your plan.	You have a lot of holes in your plan.	1128815	1471962689828	1471962689924	l	76
2283	23660	You have a lot of holes in your plan.	You have a lot of holes in your plan.	1128818	1471962690068	1471962690204	e	69
2283	23660	You have a lot of holes in your plan.	You have a lot of holes in your plan.	1128820	1471962690345	1471962690473	s	83
2283	23660	You have a lot of holes in your plan.	You have a lot of holes in your plan.	1128823	1471962690809	1471962690954	 	32
2283	23660	You have a lot of holes in your plan.	You have a lot of holes in your plan.	1128886	1471962691724	1471962691882	i	73
2283	23660	You have a lot of holes in your plan.	You have a lot of holes in your plan.	1128890	1471962691960	1471962692091	n	78
2283	23660	You have a lot of holes in your plan.	You have a lot of holes in your plan.	1128894	1471962692138	1471962692242	 	32
2283	23660	You have a lot of holes in your plan.	You have a lot of holes in your plan.	1128897	1471962692461	1471962692542	y	89
2283	23660	You have a lot of holes in your plan.	You have a lot of holes in your plan.	1128899	1471962692860	1471962692958	o	79
2283	23660	You have a lot of holes in your plan.	You have a lot of holes in your plan.	1128969	1471962693131	1471962693196	u	85
2283	23660	You have a lot of holes in your plan.	You have a lot of holes in your plan.	1128972	1471962693312	1471962693439	r	82
2283	23660	You have a lot of holes in your plan.	You have a lot of holes in your plan.	1128975	1471962693486	1471962693592	 	32
2283	23660	You have a lot of holes in your plan.	You have a lot of holes in your plan.	1128977	1471962694345	1471962694474	p	80
2283	23660	You have a lot of holes in your plan.	You have a lot of holes in your plan.	1128980	1471962694552	1471962694692	l	76
2283	23660	You have a lot of holes in your plan.	You have a lot of holes in your plan.	1129096	1471962694750	1471962694913	a	65
2283	23660	You have a lot of holes in your plan.	You have a lot of holes in your plan.	1129100	1471962694960	1471962695044	n	78
2283	23660	You have a lot of holes in your plan.	You have a lot of holes in your plan.	1129104	1471962695451	1471962695514	.	190
2283	23660	You have a lot of holes in your plan.	You have a lot of holes in your plan.	1129107	1471962695748	1471962695860	 	32
2283	23660	You have a lot of holes in your plan.	You have a lot of holes in your plan.	1129110	1471962696612	1471962696728	BKSP	8
2283	23675	The rule was aimed at allowing low-budget teams to be competitive.	The rule was aimed at allowing low-budget teams to be competitive.	1129360	1471962699295	1471962699616	SHIFT	16
2283	23675	The rule was aimed at allowing low-budget teams to be competitive.	The rule was aimed at allowing low-budget teams to be competitive.	1129366	1471962699548	1471962699616	T	84
2283	23675	The rule was aimed at allowing low-budget teams to be competitive.	The rule was aimed at allowing low-budget teams to be competitive.	1129372	1471962699741	1471962699816	h	72
2283	23675	The rule was aimed at allowing low-budget teams to be competitive.	The rule was aimed at allowing low-budget teams to be competitive.	1129379	1471962699816	1471962699946	e	69
2283	23675	The rule was aimed at allowing low-budget teams to be competitive.	The rule was aimed at allowing low-budget teams to be competitive.	1129385	1471962699946	1471962700032	 	32
2283	23675	The rule was aimed at allowing low-budget teams to be competitive.	The rule was aimed at allowing low-budget teams to be competitive.	1129393	1471962701044	1471962701208	r	82
2283	23675	The rule was aimed at allowing low-budget teams to be competitive.	The rule was aimed at allowing low-budget teams to be competitive.	1129515	1471962701294	1471962701381	u	85
2283	23675	The rule was aimed at allowing low-budget teams to be competitive.	The rule was aimed at allowing low-budget teams to be competitive.	1129520	1471962701654	1471962701764	l	76
2283	23675	The rule was aimed at allowing low-budget teams to be competitive.	The rule was aimed at allowing low-budget teams to be competitive.	1129523	1471962701734	1471962701895	e	69
2283	23675	The rule was aimed at allowing low-budget teams to be competitive.	The rule was aimed at allowing low-budget teams to be competitive.	1129526	1471962701958	1471962702065	 	32
2283	23675	The rule was aimed at allowing low-budget teams to be competitive.	The rule was aimed at allowing low-budget teams to be competitive.	1129529	1471962703227	1471962703395	w	87
2283	23675	The rule was aimed at allowing low-budget teams to be competitive.	The rule was aimed at allowing low-budget teams to be competitive.	1129565	1471962703454	1471962703611	a	65
2283	23675	The rule was aimed at allowing low-budget teams to be competitive.	The rule was aimed at allowing low-budget teams to be competitive.	1129567	1471962703626	1471962703780	s	83
2283	23675	The rule was aimed at allowing low-budget teams to be competitive.	The rule was aimed at allowing low-budget teams to be competitive.	1129570	1471962703858	1471962703981	 	32
2283	23675	The rule was aimed at allowing low-budget teams to be competitive.	The rule was aimed at allowing low-budget teams to be competitive.	1129575	1471962704641	1471962704735	a	65
2283	23675	The rule was aimed at allowing low-budget teams to be competitive.	The rule was aimed at allowing low-budget teams to be competitive.	1129580	1471962704766	1471962704867	i	73
2283	23675	The rule was aimed at allowing low-budget teams to be competitive.	The rule was aimed at allowing low-budget teams to be competitive.	1129661	1471962704973	1471962705084	m	77
2283	23675	The rule was aimed at allowing low-budget teams to be competitive.	The rule was aimed at allowing low-budget teams to be competitive.	1129663	1471962705271	1471962705384	e	69
2283	23675	The rule was aimed at allowing low-budget teams to be competitive.	The rule was aimed at allowing low-budget teams to be competitive.	1129667	1471962705462	1471962705599	d	68
2283	23675	The rule was aimed at allowing low-budget teams to be competitive.	The rule was aimed at allowing low-budget teams to be competitive.	1129670	1471962705789	1471962705900	 	32
2283	23675	The rule was aimed at allowing low-budget teams to be competitive.	The rule was aimed at allowing low-budget teams to be competitive.	1129675	1471962706372	1471962706638	a	65
2283	23675	The rule was aimed at allowing low-budget teams to be competitive.	The rule was aimed at allowing low-budget teams to be competitive.	1129732	1471962706578	1471962706687	t	84
2283	23675	The rule was aimed at allowing low-budget teams to be competitive.	The rule was aimed at allowing low-budget teams to be competitive.	1129734	1471962706765	1471962706883	 	32
2283	23675	The rule was aimed at allowing low-budget teams to be competitive.	The rule was aimed at allowing low-budget teams to be competitive.	1129737	1471962707536	1471962707670	a	65
2283	23675	The rule was aimed at allowing low-budget teams to be competitive.	The rule was aimed at allowing low-budget teams to be competitive.	1129741	1471962707893	1471962707955	l	76
2283	23675	The rule was aimed at allowing low-budget teams to be competitive.	The rule was aimed at allowing low-budget teams to be competitive.	1129745	1471962708033	1471962708106	l	76
2283	23675	The rule was aimed at allowing low-budget teams to be competitive.	The rule was aimed at allowing low-budget teams to be competitive.	1129750	1471962708215	1471962708320	o	79
2283	23675	The rule was aimed at allowing low-budget teams to be competitive.	The rule was aimed at allowing low-budget teams to be competitive.	1129789	1471962708523	1471962708652	w	87
2283	23675	The rule was aimed at allowing low-budget teams to be competitive.	The rule was aimed at allowing low-budget teams to be competitive.	1129793	1471962708714	1471962708805	i	73
2283	23675	The rule was aimed at allowing low-budget teams to be competitive.	The rule was aimed at allowing low-budget teams to be competitive.	1129798	1471962709055	1471962709201	n	78
2283	23675	The rule was aimed at allowing low-budget teams to be competitive.	The rule was aimed at allowing low-budget teams to be competitive.	1129804	1471962709201	1471962709287	g	71
2283	23675	The rule was aimed at allowing low-budget teams to be competitive.	The rule was aimed at allowing low-budget teams to be competitive.	1129808	1471962709397	1471962709472	 	32
2283	23675	The rule was aimed at allowing low-budget teams to be competitive.	The rule was aimed at allowing low-budget teams to be competitive.	1129953	1471962710309	1471962710420	l	76
2283	23675	The rule was aimed at allowing low-budget teams to be competitive.	The rule was aimed at allowing low-budget teams to be competitive.	1129955	1471962710517	1471962710636	o	79
2283	23675	The rule was aimed at allowing low-budget teams to be competitive.	The rule was aimed at allowing low-budget teams to be competitive.	1129958	1471962710880	1471962710989	w	87
2283	23675	The rule was aimed at allowing low-budget teams to be competitive.	The rule was aimed at allowing low-budget teams to be competitive.	1129960	1471962711411	1471962711490	-	189
2283	23675	The rule was aimed at allowing low-budget teams to be competitive.	The rule was aimed at allowing low-budget teams to be competitive.	1129961	1471962712790	1471962712875	b	66
2283	23675	The rule was aimed at allowing low-budget teams to be competitive.	The rule was aimed at allowing low-budget teams to be competitive.	1130043	1471962713074	1471962713204	u	85
2283	23675	The rule was aimed at allowing low-budget teams to be competitive.	The rule was aimed at allowing low-budget teams to be competitive.	1130045	1471962713997	1471962714123	d	68
2283	23675	The rule was aimed at allowing low-budget teams to be competitive.	The rule was aimed at allowing low-budget teams to be competitive.	1130049	1471962714443	1471962714573	g	71
2283	23675	The rule was aimed at allowing low-budget teams to be competitive.	The rule was aimed at allowing low-budget teams to be competitive.	1130053	1471962714588	1471962714741	e	69
2283	23675	The rule was aimed at allowing low-budget teams to be competitive.	The rule was aimed at allowing low-budget teams to be competitive.	1130108	1471962714722	1471962714808	t	84
2283	23675	The rule was aimed at allowing low-budget teams to be competitive.	The rule was aimed at allowing low-budget teams to be competitive.	1130109	1471962715022	1471962715154	 	32
2283	23675	The rule was aimed at allowing low-budget teams to be competitive.	The rule was aimed at allowing low-budget teams to be competitive.	1130110	1471962715628	1471962715821	t	84
2283	23675	The rule was aimed at allowing low-budget teams to be competitive.	The rule was aimed at allowing low-budget teams to be competitive.	1130111	1471962715821	1471962716021	e	69
2283	23675	The rule was aimed at allowing low-budget teams to be competitive.	The rule was aimed at allowing low-budget teams to be competitive.	1130112	1471962716003	1471962716194	a	65
2283	23675	The rule was aimed at allowing low-budget teams to be competitive.	The rule was aimed at allowing low-budget teams to be competitive.	1130113	1471962716256	1471962716343	m	77
2283	23675	The rule was aimed at allowing low-budget teams to be competitive.	The rule was aimed at allowing low-budget teams to be competitive.	1130195	1471962716446	1471962716573	s	83
2283	23675	The rule was aimed at allowing low-budget teams to be competitive.	The rule was aimed at allowing low-budget teams to be competitive.	1130199	1471962716636	1471962716727	 	32
2283	23675	The rule was aimed at allowing low-budget teams to be competitive.	The rule was aimed at allowing low-budget teams to be competitive.	1130202	1471962717526	1471962717674	t	84
2283	23675	The rule was aimed at allowing low-budget teams to be competitive.	The rule was aimed at allowing low-budget teams to be competitive.	1130206	1471962717706	1471962717856	o	79
2283	23675	The rule was aimed at allowing low-budget teams to be competitive.	The rule was aimed at allowing low-budget teams to be competitive.	1130211	1471962717887	1471962718024	 	32
2283	23675	The rule was aimed at allowing low-budget teams to be competitive.	The rule was aimed at allowing low-budget teams to be competitive.	1130434	1471962718741	1471962718885	b	66
2283	23675	The rule was aimed at allowing low-budget teams to be competitive.	The rule was aimed at allowing low-budget teams to be competitive.	1130437	1471962718843	1471962718992	e	69
2283	23675	The rule was aimed at allowing low-budget teams to be competitive.	The rule was aimed at allowing low-budget teams to be competitive.	1130442	1471962719148	1471962719229	 	32
2283	23675	The rule was aimed at allowing low-budget teams to be competitive.	The rule was aimed at allowing low-budget teams to be competitive.	1130447	1471962721598	1471962721697	c	67
2283	23675	The rule was aimed at allowing low-budget teams to be competitive.	The rule was aimed at allowing low-budget teams to be competitive.	1130449	1471962721712	1471962721860	o	79
2283	23675	The rule was aimed at allowing low-budget teams to be competitive.	The rule was aimed at allowing low-budget teams to be competitive.	1130542	1471962722277	1471962722395	m	77
2283	23675	The rule was aimed at allowing low-budget teams to be competitive.	The rule was aimed at allowing low-budget teams to be competitive.	1130546	1471962722504	1471962722583	p	80
2283	23675	The rule was aimed at allowing low-budget teams to be competitive.	The rule was aimed at allowing low-budget teams to be competitive.	1130552	1471962723763	1471962723911	e	69
2283	23675	The rule was aimed at allowing low-budget teams to be competitive.	The rule was aimed at allowing low-budget teams to be competitive.	1130667	1471962723959	1471962724126	e	84
2283	23675	The rule was aimed at allowing low-budget teams to be competitive.	The rule was aimed at allowing low-budget teams to be competitive.	1130668	1471962725507	1471962725583	i	73
2283	23675	The rule was aimed at allowing low-budget teams to be competitive.	The rule was aimed at allowing low-budget teams to be competitive.	1130670	1471962725662	1471962725812	t	84
2283	23675	The rule was aimed at allowing low-budget teams to be competitive.	The rule was aimed at allowing low-budget teams to be competitive.	1130674	1471962726213	1471962726317	i	73
2283	23675	The rule was aimed at allowing low-budget teams to be competitive.	The rule was aimed at allowing low-budget teams to be competitive.	1130679	1471962726488	1471962726645	v	86
2283	23675	The rule was aimed at allowing low-budget teams to be competitive.	The rule was aimed at allowing low-budget teams to be competitive.	1131027	1471962726599	1471962726756	e	69
2283	23675	The rule was aimed at allowing low-budget teams to be competitive.	The rule was aimed at allowing low-budget teams to be competitive.	1131032	1471962727925	1471962728003	.	190
2283	23675	The rule was aimed at allowing low-budget teams to be competitive.	The rule was aimed at allowing low-budget teams to be competitive.	1131035	1471962730105	1471962730204	BKSP	8
2283	23675	The rule was aimed at allowing low-budget teams to be competitive.	The rule was aimed at allowing low-budget teams to be competitive.	1131040	1471962731394	1471962731439	BKSP	8
2283	23675	The rule was aimed at allowing low-budget teams to be competitive.	The rule was aimed at allowing low-budget teams to be competitive.	1131044	1471962731593	1471962731653	BKSP	8
2283	23675	The rule was aimed at allowing low-budget teams to be competitive.	The rule was aimed at allowing low-budget teams to be competitive.	1131049	1471962731796	1471962731828	BKSP	8
2283	23675	The rule was aimed at allowing low-budget teams to be competitive.	The rule was aimed at allowing low-budget teams to be competitive.	1131055	1471962731964	1471962732021	BKSP	8
2283	23675	The rule was aimed at allowing low-budget teams to be competitive.	The rule was aimed at allowing low-budget teams to be competitive.	1131063	1471962732131	1471962732181	BKSP	8
2283	23675	The rule was aimed at allowing low-budget teams to be competitive.	The rule was aimed at allowing low-budget teams to be competitive.	1131071	1471962732299	1471962732355	BKSP	8
2283	23675	The rule was aimed at allowing low-budget teams to be competitive.	The rule was aimed at allowing low-budget teams to be competitive.	1131076	1471962733274	1471962733387	i	73
2283	23675	The rule was aimed at allowing low-budget teams to be competitive.	The rule was aimed at allowing low-budget teams to be competitive.	1131080	1471962733528	1471962733684	t	84
2283	23675	The rule was aimed at allowing low-budget teams to be competitive.	The rule was aimed at allowing low-budget teams to be competitive.	1131083	1471962734101	1471962734188	i	73
2283	23675	The rule was aimed at allowing low-budget teams to be competitive.	The rule was aimed at allowing low-budget teams to be competitive.	1131087	1471962734347	1471962734517	v	86
2283	23675	The rule was aimed at allowing low-budget teams to be competitive.	The rule was aimed at allowing low-budget teams to be competitive.	1131118	1471962734469	1471962734629	e	69
2283	23675	The rule was aimed at allowing low-budget teams to be competitive.	The rule was aimed at allowing low-budget teams to be competitive.	1131119	1471962734913	1471962734974	.	190
2283	23720	I would like to see some of the drivers at our game.	I would like to see some of the drivers at our game.	1131357	1471962738831	1471962739026	SHIFT	16
2283	23720	I would like to see some of the drivers at our game.	I would like to see some of the drivers at our game.	1131360	1471962738956	1471962739041	I	73
2283	23720	I would like to see some of the drivers at our game.	I would like to see some of the drivers at our game.	1131363	1471962739198	1471962739292	 	32
2283	23720	I would like to see some of the drivers at our game.	I would like to see some of the drivers at our game.	1131368	1471962739525	1471962739625	w	87
2283	23720	I would like to see some of the drivers at our game.	I would like to see some of the drivers at our game.	1131373	1471962739703	1471962739793	o	79
2283	23720	I would like to see some of the drivers at our game.	I would like to see some of the drivers at our game.	1131377	1471962739964	1471962740028	u	85
2283	23720	I would like to see some of the drivers at our game.	I would like to see some of the drivers at our game.	1131477	1471962740225	1471962740293	l	76
2283	23720	I would like to see some of the drivers at our game.	I would like to see some of the drivers at our game.	1131481	1471962740387	1471962740460	d	68
2283	23720	I would like to see some of the drivers at our game.	I would like to see some of the drivers at our game.	1131487	1471962740523	1471962740625	 	32
2283	23720	I would like to see some of the drivers at our game.	I would like to see some of the drivers at our game.	1131490	1471962741484	1471962741562	l	76
2283	23720	I would like to see some of the drivers at our game.	I would like to see some of the drivers at our game.	1131496	1471962741671	1471962741760	i	73
2283	23720	I would like to see some of the drivers at our game.	I would like to see some of the drivers at our game.	1131541	1471962741854	1471962741928	k	75
2283	23720	I would like to see some of the drivers at our game.	I would like to see some of the drivers at our game.	1131544	1471962741943	1471962742045	e	69
2283	23720	I would like to see some of the drivers at our game.	I would like to see some of the drivers at our game.	1131550	1471962742076	1471962742161	 	32
2283	23720	I would like to see some of the drivers at our game.	I would like to see some of the drivers at our game.	1131555	1471962742433	1471962742510	t	84
2283	23720	I would like to see some of the drivers at our game.	I would like to see some of the drivers at our game.	1131560	1471962742526	1471962742611	o	79
2283	23720	I would like to see some of the drivers at our game.	I would like to see some of the drivers at our game.	1131629	1471962742705	1471962742793	 	32
2283	23720	I would like to see some of the drivers at our game.	I would like to see some of the drivers at our game.	1131631	1471962743453	1471962743576	s	83
2283	23720	I would like to see some of the drivers at our game.	I would like to see some of the drivers at our game.	1131633	1471962743779	1471962743892	e	69
2283	23720	I would like to see some of the drivers at our game.	I would like to see some of the drivers at our game.	1131638	1471962743968	1471962744045	e	69
2283	23720	I would like to see some of the drivers at our game.	I would like to see some of the drivers at our game.	1131642	1471962744139	1471962744259	 	32
2283	23720	I would like to see some of the drivers at our game.	I would like to see some of the drivers at our game.	1131678	1471962744537	1471962744692	s	83
2283	23720	I would like to see some of the drivers at our game.	I would like to see some of the drivers at our game.	1131680	1471962744660	1471962744746	o	79
2283	23720	I would like to see some of the drivers at our game.	I would like to see some of the drivers at our game.	1131686	1471962744871	1471962744993	e	77
2283	23720	I would like to see some of the drivers at our game.	I would like to see some of the drivers at our game.	1131690	1471962745072	1471962745194	 	32
2283	23720	I would like to see some of the drivers at our game.	I would like to see some of the drivers at our game.	1131777	1471962745711	1471962745844	o	79
2283	23720	I would like to see some of the drivers at our game.	I would like to see some of the drivers at our game.	1131784	1471962746138	1471962746294	f	70
2283	23720	I would like to see some of the drivers at our game.	I would like to see some of the drivers at our game.	1131794	1471962746260	1471962746362	 	32
2283	23720	I would like to see some of the drivers at our game.	I would like to see some of the drivers at our game.	1131799	1471962746425	1471962746575	t	84
2283	23720	I would like to see some of the drivers at our game.	I would like to see some of the drivers at our game.	1131804	1471962746591	1471962746665	h	72
2283	23720	I would like to see some of the drivers at our game.	I would like to see some of the drivers at our game.	1131955	1471962746665	1471962746795	e	69
2283	23720	I would like to see some of the drivers at our game.	I would like to see some of the drivers at our game.	1131958	1471962746795	1471962746895	 	32
2283	23720	I would like to see some of the drivers at our game.	I would like to see some of the drivers at our game.	1131960	1471962748543	1471962748632	d	68
2283	23720	I would like to see some of the drivers at our game.	I would like to see some of the drivers at our game.	1131964	1471962748741	1471962748846	r	82
2283	23720	I would like to see some of the drivers at our game.	I would like to see some of the drivers at our game.	1131966	1471962749002	1471962749099	i	73
2283	23720	I would like to see some of the drivers at our game.	I would like to see some of the drivers at our game.	1132022	1471962749295	1471962749413	v	86
2283	23720	I would like to see some of the drivers at our game.	I would like to see some of the drivers at our game.	1132025	1471962749603	1471962749813	e	69
2283	23720	I would like to see some of the drivers at our game.	I would like to see some of the drivers at our game.	1132028	1471962749761	1471962749880	r	82
2283	23720	I would like to see some of the drivers at our game.	I would like to see some of the drivers at our game.	1132032	1471962750037	1471962750131	s	83
2283	23720	I would like to see some of the drivers at our game.	I would like to see some of the drivers at our game.	1132035	1471962750241	1471962750389	 	32
2283	23720	I would like to see some of the drivers at our game.	I would like to see some of the drivers at our game.	1132150	1471962751416	1471962751701	a	65
2283	23720	I would like to see some of the drivers at our game.	I would like to see some of the drivers at our game.	1132155	1471962751642	1471962751765	t	84
2283	23720	I would like to see some of the drivers at our game.	I would like to see some of the drivers at our game.	1132159	1471962751812	1471962751932	 	32
2283	23720	I would like to see some of the drivers at our game.	I would like to see some of the drivers at our game.	1132162	1471962752183	1471962752300	o	79
2283	23720	I would like to see some of the drivers at our game.	I would like to see some of the drivers at our game.	1132164	1471962752518	1471962752602	u	85
2283	23720	I would like to see some of the drivers at our game.	I would like to see some of the drivers at our game.	1132303	1471962753005	1471962753117	r	82
2283	23720	I would like to see some of the drivers at our game.	I would like to see some of the drivers at our game.	1132310	1471962753148	1471962753282	 	32
2283	23720	I would like to see some of the drivers at our game.	I would like to see some of the drivers at our game.	1132318	1471962754333	1471962754434	g	71
2283	23720	I would like to see some of the drivers at our game.	I would like to see some of the drivers at our game.	1132327	1471962754496	1471962754601	a	65
2283	23720	I would like to see some of the drivers at our game.	I would like to see some of the drivers at our game.	1132333	1471962755261	1471962755384	m	77
2283	23720	I would like to see some of the drivers at our game.	I would like to see some of the drivers at our game.	1132392	1471962755384	1471962755518	e	69
2283	23720	I would like to see some of the drivers at our game.	I would like to see some of the drivers at our game.	1132393	1471962756243	1471962756289	.	190
2283	23743	Chad thought we were on a treasure hunt.	Chad thought we were on a treasure hunt.	1132596	1471962758332	1471962758805	SHIFT	16
2283	23743	Chad thought we were on a treasure hunt.	Chad thought we were on a treasure hunt.	1132601	1471962758725	1471962758852	C	67
2283	23743	Chad thought we were on a treasure hunt.	Chad thought we were on a treasure hunt.	1132605	1471962758945	1471962759029	h	72
2283	23743	Chad thought we were on a treasure hunt.	Chad thought we were on a treasure hunt.	1132610	1471962759239	1471962759385	a	65
2283	23743	Chad thought we were on a treasure hunt.	Chad thought we were on a treasure hunt.	1132615	1471962759746	1471962759838	d	68
2283	23743	Chad thought we were on a treasure hunt.	Chad thought we were on a treasure hunt.	1132618	1471962759916	1471962760021	 	32
2283	23743	Chad thought we were on a treasure hunt.	Chad thought we were on a treasure hunt.	1132716	1471962760837	1471962760997	t	84
2283	23743	Chad thought we were on a treasure hunt.	Chad thought we were on a treasure hunt.	1132719	1471962760954	1471962761058	h	72
2283	23743	Chad thought we were on a treasure hunt.	Chad thought we were on a treasure hunt.	1132722	1471962761308	1471962761422	o	79
2283	23743	Chad thought we were on a treasure hunt.	Chad thought we were on a treasure hunt.	1132725	1471962761563	1471962761641	u	85
2283	23743	Chad thought we were on a treasure hunt.	Chad thought we were on a treasure hunt.	1132728	1471962761864	1471962761926	g	71
2283	23743	Chad thought we were on a treasure hunt.	Chad thought we were on a treasure hunt.	1132781	1471962762030	1471962762123	h	72
2283	23743	Chad thought we were on a treasure hunt.	Chad thought we were on a treasure hunt.	1132784	1471962762202	1471962762337	t	84
2283	23743	Chad thought we were on a treasure hunt.	Chad thought we were on a treasure hunt.	1132788	1471962762353	1471962762460	 	32
2283	23743	Chad thought we were on a treasure hunt.	Chad thought we were on a treasure hunt.	1132790	1471962763175	1471962763343	w	87
2283	23743	Chad thought we were on a treasure hunt.	Chad thought we were on a treasure hunt.	1132851	1471962763290	1471962763407	e	69
2283	23743	Chad thought we were on a treasure hunt.	Chad thought we were on a treasure hunt.	1132853	1471962763438	1471962763540	 	32
2283	23743	Chad thought we were on a treasure hunt.	Chad thought we were on a treasure hunt.	1132854	1471962763587	1471962763810	w	87
2283	23743	Chad thought we were on a treasure hunt.	Chad thought we were on a treasure hunt.	1132855	1471962763737	1471962763919	e	69
2283	23743	Chad thought we were on a treasure hunt.	Chad thought we were on a treasure hunt.	1132856	1471962764076	1471962764229	r	82
2283	23743	Chad thought we were on a treasure hunt.	Chad thought we were on a treasure hunt.	1132858	1471962764243	1471962764388	e	69
2283	23743	Chad thought we were on a treasure hunt.	Chad thought we were on a treasure hunt.	1132923	1471962764437	1471962764539	 	32
2283	23743	Chad thought we were on a treasure hunt.	Chad thought we were on a treasure hunt.	1132928	1471962764939	1471962765026	o	79
2283	23743	Chad thought we were on a treasure hunt.	Chad thought we were on a treasure hunt.	1132932	1471962765189	1471962765261	n	78
2283	23743	Chad thought we were on a treasure hunt.	Chad thought we were on a treasure hunt.	1132935	1471962765355	1471962765492	a	65
2283	23743	Chad thought we were on a treasure hunt.	Chad thought we were on a treasure hunt.	1133125	1471962765397	1471962765582	 	32
2283	23743	Chad thought we were on a treasure hunt.	Chad thought we were on a treasure hunt.	1133133	1471962766243	1471962766345	BKSP	8
2283	23743	Chad thought we were on a treasure hunt.	Chad thought we were on a treasure hunt.	1133136	1471962766423	1471962766526	BKSP	8
2283	23743	Chad thought we were on a treasure hunt.	Chad thought we were on a treasure hunt.	1133143	1471962766870	1471962766992	 	32
2283	23743	Chad thought we were on a treasure hunt.	Chad thought we were on a treasure hunt.	1133148	1471962767159	1471962767276	a	65
2283	23743	Chad thought we were on a treasure hunt.	Chad thought we were on a treasure hunt.	1133153	1471962767811	1471962767941	 	32
2283	23743	Chad thought we were on a treasure hunt.	Chad thought we were on a treasure hunt.	1133156	1471962768293	1471962768487	t	84
2283	23743	Chad thought we were on a treasure hunt.	Chad thought we were on a treasure hunt.	1133159	1471962768503	1471962768657	r	82
2283	23743	Chad thought we were on a treasure hunt.	Chad thought we were on a treasure hunt.	1133339	1471962768825	1471962768943	e	69
2283	23743	Chad thought we were on a treasure hunt.	Chad thought we were on a treasure hunt.	1133345	1471962769131	1471962769260	a	65
2283	23743	Chad thought we were on a treasure hunt.	Chad thought we were on a treasure hunt.	1133351	1471962771179	1471962771311	s	83
2283	23743	Chad thought we were on a treasure hunt.	Chad thought we were on a treasure hunt.	1133356	1471962771569	1471962771663	u	85
2283	23743	Chad thought we were on a treasure hunt.	Chad thought we were on a treasure hunt.	1133362	1471962771983	1471962772117	r	82
2283	23743	Chad thought we were on a treasure hunt.	Chad thought we were on a treasure hunt.	1133495	1471962772079	1471962772224	e	69
2283	23743	Chad thought we were on a treasure hunt.	Chad thought we were on a treasure hunt.	1133500	1471962772583	1471962772698	 	32
2283	23743	Chad thought we were on a treasure hunt.	Chad thought we were on a treasure hunt.	1133505	1471962773282	1471962773381	h	72
2283	23743	Chad thought we were on a treasure hunt.	Chad thought we were on a treasure hunt.	1133510	1471962773639	1471962773763	u	85
2283	23743	Chad thought we were on a treasure hunt.	Chad thought we were on a treasure hunt.	1133516	1471962773998	1471962774066	n	78
2283	23743	Chad thought we were on a treasure hunt.	Chad thought we were on a treasure hunt.	1133521	1471962774160	1471962774265	t	84
2283	23743	Chad thought we were on a treasure hunt.	Chad thought we were on a treasure hunt.	1133579	1471962775042	1471962775132	.	190
2283	23767	What is the cost issue?	What is the cost issue?	1133998	1471962780940	1471962781385	SHIFT	16
2283	23767	What is the cost issue?	What is the cost issue?	1134006	1471962781250	1471962781447	W	87
2283	23767	What is the cost issue?	What is the cost issue?	1134012	1471962781463	1471962781569	h	72
2283	23767	What is the cost issue?	What is the cost issue?	1134017	1471962781602	1471962781687	a	65
2283	23767	What is the cost issue?	What is the cost issue?	1134022	1471962781687	1471962781756	t	84
2283	23767	What is the cost issue?	What is the cost issue?	1134026	1471962781912	1471962782019	 	32
2283	23767	What is the cost issue?	What is the cost issue?	1134133	1471962782709	1471962782870	i	73
2283	23767	What is the cost issue?	What is the cost issue?	1134141	1471962782835	1471962782981	s	83
2283	23767	What is the cost issue?	What is the cost issue?	1134147	1471962782953	1471962783077	 	32
2283	23767	What is the cost issue?	What is the cost issue?	1134153	1471962783781	1471962783986	t	84
2283	23767	What is the cost issue?	What is the cost issue?	1134293	1471962783887	1471962783986	h	72
2283	23767	What is the cost issue?	What is the cost issue?	1134294	1471962784016	1471962784149	e	69
2283	23767	What is the cost issue?	What is the cost issue?	1134296	1471962784106	1471962784236	 	32
2283	23767	What is the cost issue?	What is the cost issue?	1134298	1471962784499	1471962784608	c	67
2283	23767	What is the cost issue?	What is the cost issue?	1134300	1471962784702	1471962784837	o	79
2283	23767	What is the cost issue?	What is the cost issue?	1134302	1471962785826	1471962785938	s	83
2283	23767	What is the cost issue?	What is the cost issue?	1134411	1471962786061	1471962786157	t	84
2283	23767	What is the cost issue?	What is the cost issue?	1134414	1471962786314	1471962786408	 	32
2283	23767	What is the cost issue?	What is the cost issue?	1134418	1471962787268	1471962787342	i	73
2283	23767	What is the cost issue?	What is the cost issue?	1134423	1471962787421	1471962787508	s	83
2283	23767	What is the cost issue?	What is the cost issue?	1134428	1471962787586	1471962787706	s	83
2283	23767	What is the cost issue?	What is the cost issue?	1134588	1471962787963	1471962788042	u	85
2283	23767	What is the cost issue?	What is the cost issue?	1134589	1471962788089	1471962788206	e	69
2283	23767	What is the cost issue?	What is the cost issue?	1134592	1471962789041	1471962789268	SHIFT	16
2283	23767	What is the cost issue?	What is the cost issue?	1134596	1471962789205	1471962789299	?	191
