PARTICIPANT_ID	TEST_SECTION_ID	SENTENCE	USER_INPUT	KEYSTROKE_ID	PRESS_TIME	RELEASE_TIME	LETTER	KEYCODE
2418	24803	I have already approved and forwarded.	I have alrerady approved and forwarded.	1184733	1471963600991	1471963601088	CAPS_LOCK	20
2418	24803	I have already approved and forwarded.	I have alrerady approved and forwarded.	1184735	1471963601132	1471963601236	I	73
2418	24803	I have already approved and forwarded.	I have alrerady approved and forwarded.	1184739	1471963601197	1471963601300	CAPS_LOCK	20
2418	24803	I have already approved and forwarded.	I have alrerady approved and forwarded.	1184743	1471963601396	1471963601484	 	32
2418	24803	I have already approved and forwarded.	I have alrerady approved and forwarded.	1184745	1471963602028	1471963602124	h	72
2418	24803	I have already approved and forwarded.	I have alrerady approved and forwarded.	1184747	1471963602229	1471963602340	a	65
2418	24803	I have already approved and forwarded.	I have alrerady approved and forwarded.	1184749	1471963602356	1471963602468	v	86
2418	24803	I have already approved and forwarded.	I have alrerady approved and forwarded.	1184848	1471963602612	1471963602708	e	69
2418	24803	I have already approved and forwarded.	I have alrerady approved and forwarded.	1184852	1471963602756	1471963602868	 	32
2418	24803	I have already approved and forwarded.	I have alrerady approved and forwarded.	1184858	1471963604020	1471963604140	a	65
2418	24803	I have already approved and forwarded.	I have alrerady approved and forwarded.	1184865	1471963604141	1471963604228	l	76
2418	24803	I have already approved and forwarded.	I have alrerady approved and forwarded.	1184871	1471963604396	1471963604476	r	82
2418	24803	I have already approved and forwarded.	I have alrerady approved and forwarded.	1184929	1471963604605	1471963604636	r	69
2418	24803	I have already approved and forwarded.	I have alrerady approved and forwarded.	1184932	1471963604820	1471963604916	a	65
2418	24803	I have already approved and forwarded.	I have alrerady approved and forwarded.	1184936	1471963605092	1471963605228	d	68
2418	24803	I have already approved and forwarded.	I have alrerady approved and forwarded.	1184940	1471963605229	1471963605324	y	89
2418	24803	I have already approved and forwarded.	I have alrerady approved and forwarded.	1185040	1471963605508	1471963605580	 	32
2418	24803	I have already approved and forwarded.	I have alrerady approved and forwarded.	1185043	1471963606388	1471963606484	a	65
2418	24803	I have already approved and forwarded.	I have alrerady approved and forwarded.	1185048	1471963606588	1471963606644	p	80
2418	24803	I have already approved and forwarded.	I have alrerady approved and forwarded.	1185053	1471963606700	1471963606764	p	80
2418	24803	I have already approved and forwarded.	I have alrerady approved and forwarded.	1185059	1471963606876	1471963606972	r	82
2418	24803	I have already approved and forwarded.	I have alrerady approved and forwarded.	1185108	1471963607012	1471963607084	o	79
2418	24803	I have already approved and forwarded.	I have alrerady approved and forwarded.	1185112	1471963607308	1471963607396	v	86
2418	24803	I have already approved and forwarded.	I have alrerady approved and forwarded.	1185115	1471963607476	1471963607572	e	69
2418	24803	I have already approved and forwarded.	I have alrerady approved and forwarded.	1185117	1471963607756	1471963607852	d	68
2418	24803	I have already approved and forwarded.	I have alrerady approved and forwarded.	1185120	1471963607900	1471963607980	 	32
2418	24803	I have already approved and forwarded.	I have alrerady approved and forwarded.	1185188	1471963608580	1471963608692	a	65
2418	24803	I have already approved and forwarded.	I have alrerady approved and forwarded.	1185191	1471963608748	1471963608836	n	78
2418	24803	I have already approved and forwarded.	I have alrerady approved and forwarded.	1185196	1471963608901	1471963608988	d	68
2418	24803	I have already approved and forwarded.	I have alrerady approved and forwarded.	1185201	1471963609012	1471963609084	 	32
2418	24803	I have already approved and forwarded.	I have alrerady approved and forwarded.	1185205	1471963609388	1471963609476	f	70
2418	24803	I have already approved and forwarded.	I have alrerady approved and forwarded.	1185349	1471963609564	1471963609644	o	79
2418	24803	I have already approved and forwarded.	I have alrerady approved and forwarded.	1185352	1471963609804	1471963609876	r	82
2418	24803	I have already approved and forwarded.	I have alrerady approved and forwarded.	1185358	1471963611156	1471963611212	w	87
2418	24803	I have already approved and forwarded.	I have alrerady approved and forwarded.	1185362	1471963611356	1471963611468	a	65
2418	24803	I have already approved and forwarded.	I have alrerady approved and forwarded.	1185366	1471963611524	1471963611620	r	82
2418	24803	I have already approved and forwarded.	I have alrerady approved and forwarded.	1185569	1471963611700	1471963611796	d	68
2418	24803	I have already approved and forwarded.	I have alrerady approved and forwarded.	1185575	1471963611908	1471963611996	e	69
2418	24803	I have already approved and forwarded.	I have alrerady approved and forwarded.	1185581	1471963612108	1471963612188	d	68
2418	24803	I have already approved and forwarded.	I have alrerady approved and forwarded.	1185589	1471963612780	1471963612836	.	190
2418	24826	The deal was nominated and cut to zero.	the deal was nominated and cut to zero.	1185842	1471963616276	1471963616364	t	84
2418	24826	The deal was nominated and cut to zero.	the deal was nominated and cut to zero.	1185845	1471963616708	1471963616804	h	72
2418	24826	The deal was nominated and cut to zero.	the deal was nominated and cut to zero.	1185849	1471963616836	1471963616932	e	69
2418	24826	The deal was nominated and cut to zero.	the deal was nominated and cut to zero.	1185851	1471963616964	1471963617060	 	32
2418	24826	The deal was nominated and cut to zero.	the deal was nominated and cut to zero.	1185853	1471963617700	1471963617780	d	68
2418	24826	The deal was nominated and cut to zero.	the deal was nominated and cut to zero.	1185913	1471963617892	1471963617964	e	69
2418	24826	The deal was nominated and cut to zero.	the deal was nominated and cut to zero.	1185916	1471963618220	1471963618340	a	65
2418	24826	The deal was nominated and cut to zero.	the deal was nominated and cut to zero.	1185920	1471963618341	1471963618412	l	76
2418	24826	The deal was nominated and cut to zero.	the deal was nominated and cut to zero.	1185924	1471963618548	1471963618660	 	32
2418	24826	The deal was nominated and cut to zero.	the deal was nominated and cut to zero.	1186065	1471963618620	1471963618716	w	87
2418	24826	The deal was nominated and cut to zero.	the deal was nominated and cut to zero.	1186068	1471963618860	1471963618964	a	65
2418	24826	The deal was nominated and cut to zero.	the deal was nominated and cut to zero.	1186071	1471963619092	1471963619204	s	83
2418	24826	The deal was nominated and cut to zero.	the deal was nominated and cut to zero.	1186073	1471963619244	1471963619332	 	32
2418	24826	The deal was nominated and cut to zero.	the deal was nominated and cut to zero.	1186075	1471963619932	1471963620036	n	78
2418	24826	The deal was nominated and cut to zero.	the deal was nominated and cut to zero.	1186077	1471963620620	1471963620708	o	79
2418	24826	The deal was nominated and cut to zero.	the deal was nominated and cut to zero.	1186175	1471963620948	1471963621036	m	77
2418	24826	The deal was nominated and cut to zero.	the deal was nominated and cut to zero.	1186177	1471963621180	1471963621268	i	73
2418	24826	The deal was nominated and cut to zero.	the deal was nominated and cut to zero.	1186179	1471963621412	1471963621492	n	78
2418	24826	The deal was nominated and cut to zero.	the deal was nominated and cut to zero.	1186180	1471963621836	1471963621948	a	65
2418	24826	The deal was nominated and cut to zero.	the deal was nominated and cut to zero.	1186182	1471963622013	1471963622100	t	84
2418	24826	The deal was nominated and cut to zero.	the deal was nominated and cut to zero.	1186258	1471963622220	1471963622324	e	69
2418	24826	The deal was nominated and cut to zero.	the deal was nominated and cut to zero.	1186263	1471963622492	1471963622580	d	68
2418	24826	The deal was nominated and cut to zero.	the deal was nominated and cut to zero.	1186268	1471963622660	1471963622732	 	32
2418	24826	The deal was nominated and cut to zero.	the deal was nominated and cut to zero.	1186271	1471963623076	1471963623196	a	65
2418	24826	The deal was nominated and cut to zero.	the deal was nominated and cut to zero.	1186278	1471963623236	1471963623316	n	78
2418	24826	The deal was nominated and cut to zero.	the deal was nominated and cut to zero.	1186352	1471963623404	1471963623516	d	68
2418	24826	The deal was nominated and cut to zero.	the deal was nominated and cut to zero.	1186355	1471963623517	1471963623604	 	32
2418	24826	The deal was nominated and cut to zero.	the deal was nominated and cut to zero.	1186357	1471963623668	1471963623764	c	67
2418	24826	The deal was nominated and cut to zero.	the deal was nominated and cut to zero.	1186361	1471963623844	1471963623932	u	85
2418	24826	The deal was nominated and cut to zero.	the deal was nominated and cut to zero.	1186364	1471963624316	1471963624404	t	84
2418	24826	The deal was nominated and cut to zero.	the deal was nominated and cut to zero.	1186530	1471963624572	1471963624668	 	32
2418	24826	The deal was nominated and cut to zero.	the deal was nominated and cut to zero.	1186534	1471963625284	1471963625356	t	84
2418	24826	The deal was nominated and cut to zero.	the deal was nominated and cut to zero.	1186542	1471963625396	1471963625460	o	79
2418	24826	The deal was nominated and cut to zero.	the deal was nominated and cut to zero.	1186545	1471963625644	1471963625732	 	32
2418	24826	The deal was nominated and cut to zero.	the deal was nominated and cut to zero.	1186551	1471963626460	1471963626532	z	90
2418	24826	The deal was nominated and cut to zero.	the deal was nominated and cut to zero.	1186754	1471963626724	1471963626820	e	69
2418	24826	The deal was nominated and cut to zero.	the deal was nominated and cut to zero.	1186758	1471963626932	1471963627036	r	82
2418	24826	The deal was nominated and cut to zero.	the deal was nominated and cut to zero.	1186763	1471963627108	1471963627180	o	79
2418	24826	The deal was nominated and cut to zero.	the deal was nominated and cut to zero.	1186766	1471963629127	1471963629204	.	190
2418	24848	Why do you ask?	why do you ask?	1187108	1471963632732	1471963632836	w	87
2418	24848	Why do you ask?	why do you ask?	1187113	1471963632837	1471963632964	h	72
2418	24848	Why do you ask?	why do you ask?	1187118	1471963633468	1471963633556	y	89
2418	24848	Why do you ask?	why do you ask?	1187121	1471963633756	1471963633820	 	32
2418	24848	Why do you ask?	why do you ask?	1187124	1471963634284	1471963634404	d	68
2418	24848	Why do you ask?	why do you ask?	1187175	1471963634406	1471963634484	o	79
2418	24848	Why do you ask?	why do you ask?	1187177	1471963634756	1471963634812	 	32
2418	24848	Why do you ask?	why do you ask?	1187179	1471963635364	1471963635484	y	89
2418	24848	Why do you ask?	why do you ask?	1187182	1471963635532	1471963635620	o	79
2418	24848	Why do you ask?	why do you ask?	1187185	1471963635700	1471963635788	u	85
2418	24848	Why do you ask?	why do you ask?	1187337	1471963635844	1471963635916	 	32
2418	24848	Why do you ask?	why do you ask?	1187341	1471963636348	1471963636436	a	65
2418	24848	Why do you ask?	why do you ask?	1187345	1471963636588	1471963636685	s	83
2418	24848	Why do you ask?	why do you ask?	1187347	1471963636940	1471963637004	k	75
2418	24848	Why do you ask?	why do you ask?	1187349	1471963637660	1471963638628	SHIFT	16
2418	24848	Why do you ask?	why do you ask?	1187411	1471963638564	1471963638668	?	191
2418	24861	The amendment has little chance of becoming law.	The amendment has little chance of becoming law.	1187718	1471963642764	1471963642876	CAPS_LOCK	20
2418	24861	The amendment has little chance of becoming law.	The amendment has little chance of becoming law.	1187721	1471963642948	1471963643060	T	84
2418	24861	The amendment has little chance of becoming law.	The amendment has little chance of becoming law.	1187725	1471963643061	1471963643132	CAPS_LOCK	20
2418	24861	The amendment has little chance of becoming law.	The amendment has little chance of becoming law.	1187729	1471963643756	1471963643836	h	72
2418	24861	The amendment has little chance of becoming law.	The amendment has little chance of becoming law.	1187731	1471963643940	1471963644020	e	69
2418	24861	The amendment has little chance of becoming law.	The amendment has little chance of becoming law.	1187732	1471963644068	1471963644140	 	32
2418	24861	The amendment has little chance of becoming law.	The amendment has little chance of becoming law.	1187733	1471963645004	1471963645100	a	65
2418	24861	The amendment has little chance of becoming law.	The amendment has little chance of becoming law.	1187818	1471963645252	1471963645324	m	77
2418	24861	The amendment has little chance of becoming law.	The amendment has little chance of becoming law.	1187820	1471963645476	1471963645572	e	69
2418	24861	The amendment has little chance of becoming law.	The amendment has little chance of becoming law.	1187828	1471963645732	1471963645820	n	78
2418	24861	The amendment has little chance of becoming law.	The amendment has little chance of becoming law.	1187834	1471963645972	1471963646076	d	68
2418	24861	The amendment has little chance of becoming law.	The amendment has little chance of becoming law.	1187839	1471963646476	1471963646524	m	77
2418	24861	The amendment has little chance of becoming law.	The amendment has little chance of becoming law.	1187912	1471963646620	1471963646700	e	69
2418	24861	The amendment has little chance of becoming law.	The amendment has little chance of becoming law.	1187914	1471963646940	1471963647036	n	78
2418	24861	The amendment has little chance of becoming law.	The amendment has little chance of becoming law.	1187917	1471963647124	1471963647204	t	84
2418	24861	The amendment has little chance of becoming law.	The amendment has little chance of becoming law.	1187920	1471963647300	1471963647372	 	32
2418	24861	The amendment has little chance of becoming law.	The amendment has little chance of becoming law.	1187924	1471963647852	1471963647940	h	72
2418	24861	The amendment has little chance of becoming law.	The amendment has little chance of becoming law.	1187993	1471963648012	1471963648100	a	65
2418	24861	The amendment has little chance of becoming law.	The amendment has little chance of becoming law.	1187995	1471963648236	1471963648308	s	83
2418	24861	The amendment has little chance of becoming law.	The amendment has little chance of becoming law.	1188000	1471963648309	1471963648396	 	32
2418	24861	The amendment has little chance of becoming law.	The amendment has little chance of becoming law.	1188005	1471963648780	1471963648852	l	76
2418	24861	The amendment has little chance of becoming law.	The amendment has little chance of becoming law.	1188012	1471963648980	1471963649052	i	73
2418	24861	The amendment has little chance of becoming law.	The amendment has little chance of becoming law.	1188051	1471963649220	1471963649276	t	84
2418	24861	The amendment has little chance of becoming law.	The amendment has little chance of becoming law.	1188054	1471963649364	1471963649436	t	84
2418	24861	The amendment has little chance of becoming law.	The amendment has little chance of becoming law.	1188059	1471963649532	1471963649660	l	76
2418	24861	The amendment has little chance of becoming law.	The amendment has little chance of becoming law.	1188063	1471963649796	1471963649884	e	69
2418	24861	The amendment has little chance of becoming law.	The amendment has little chance of becoming law.	1188068	1471963649932	1471963650020	 	32
2418	24861	The amendment has little chance of becoming law.	The amendment has little chance of becoming law.	1188131	1471963650532	1471963650636	c	67
2418	24861	The amendment has little chance of becoming law.	The amendment has little chance of becoming law.	1188133	1471963650724	1471963650796	h	72
2418	24861	The amendment has little chance of becoming law.	The amendment has little chance of becoming law.	1188136	1471963651108	1471963651188	a	65
2418	24861	The amendment has little chance of becoming law.	The amendment has little chance of becoming law.	1188139	1471963651220	1471963651308	n	78
2418	24861	The amendment has little chance of becoming law.	The amendment has little chance of becoming law.	1188143	1471963651396	1471963651476	c	67
2418	24861	The amendment has little chance of becoming law.	The amendment has little chance of becoming law.	1188228	1471963652044	1471963652156	e	69
2418	24861	The amendment has little chance of becoming law.	The amendment has little chance of becoming law.	1188230	1471963652156	1471963652244	 	32
2418	24861	The amendment has little chance of becoming law.	The amendment has little chance of becoming law.	1188236	1471963652476	1471963652548	o	79
2418	24861	The amendment has little chance of becoming law.	The amendment has little chance of becoming law.	1188241	1471963652652	1471963652748	f	70
2418	24861	The amendment has little chance of becoming law.	The amendment has little chance of becoming law.	1188246	1471963652788	1471963652884	 	32
2418	24861	The amendment has little chance of becoming law.	The amendment has little chance of becoming law.	1188291	1471963653044	1471963653124	b	66
2418	24861	The amendment has little chance of becoming law.	The amendment has little chance of becoming law.	1188294	1471963653156	1471963653236	e	69
2418	24861	The amendment has little chance of becoming law.	The amendment has little chance of becoming law.	1188302	1471963653476	1471963653564	c	67
2418	24861	The amendment has little chance of becoming law.	The amendment has little chance of becoming law.	1188309	1471963653644	1471963653724	o	79
2418	24861	The amendment has little chance of becoming law.	The amendment has little chance of becoming law.	1188315	1471963653924	1471963654012	m	77
2418	24861	The amendment has little chance of becoming law.	The amendment has little chance of becoming law.	1188374	1471963654124	1471963654236	i	73
2418	24861	The amendment has little chance of becoming law.	The amendment has little chance of becoming law.	1188378	1471963654348	1471963654444	n	78
2418	24861	The amendment has little chance of becoming law.	The amendment has little chance of becoming law.	1188382	1471963654588	1471963654676	g	71
2418	24861	The amendment has little chance of becoming law.	The amendment has little chance of becoming law.	1188387	1471963654748	1471963654804	 	32
2418	24861	The amendment has little chance of becoming law.	The amendment has little chance of becoming law.	1188391	1471963655500	1471963655580	l	76
2418	24861	The amendment has little chance of becoming law.	The amendment has little chance of becoming law.	1188475	1471963655660	1471963655748	a	65
2418	24861	The amendment has little chance of becoming law.	The amendment has little chance of becoming law.	1188478	1471963655924	1471963656036	w	87
2418	24861	The amendment has little chance of becoming law.	The amendment has little chance of becoming law.	1188481	1471963656148	1471963656196	.	190
2418	24886	Foreigners have now fled the country since fighting erupted.	Foreigners have now fled the country since fighting erupted.	1189014	1471963659324	1471963659428	CAPS_LOCK	20
2418	24886	Foreigners have now fled the country since fighting erupted.	Foreigners have now fled the country since fighting erupted.	1189016	1471963659412	1471963659508	F	70
2418	24886	Foreigners have now fled the country since fighting erupted.	Foreigners have now fled the country since fighting erupted.	1189019	1471963660580	1471963660660	CAPS_LOCK	20
2418	24886	Foreigners have now fled the country since fighting erupted.	Foreigners have now fled the country since fighting erupted.	1189022	1471963660716	1471963660788	o	79
2418	24886	Foreigners have now fled the country since fighting erupted.	Foreigners have now fled the country since fighting erupted.	1189025	1471963662012	1471963662156	r	82
2418	24886	Foreigners have now fled the country since fighting erupted.	Foreigners have now fled the country since fighting erupted.	1189027	1471963663636	1471963663732	e	69
2418	24886	Foreigners have now fled the country since fighting erupted.	Foreigners have now fled the country since fighting erupted.	1189029	1471963665020	1471963665092	i	73
2418	24886	Foreigners have now fled the country since fighting erupted.	Foreigners have now fled the country since fighting erupted.	1189159	1471963665852	1471963665972	g	71
2418	24886	Foreigners have now fled the country since fighting erupted.	Foreigners have now fled the country since fighting erupted.	1189165	1471963666044	1471963666140	n	78
2418	24886	Foreigners have now fled the country since fighting erupted.	Foreigners have now fled the country since fighting erupted.	1189169	1471963666220	1471963666324	e	69
2418	24886	Foreigners have now fled the country since fighting erupted.	Foreigners have now fled the country since fighting erupted.	1189175	1471963666428	1471963666524	r	82
2418	24886	Foreigners have now fled the country since fighting erupted.	Foreigners have now fled the country since fighting erupted.	1189180	1471963666812	1471963666924	s	83
2418	24886	Foreigners have now fled the country since fighting erupted.	Foreigners have now fled the country since fighting erupted.	1189217	1471963666980	1471963667060	 	32
2418	24886	Foreigners have now fled the country since fighting erupted.	Foreigners have now fled the country since fighting erupted.	1189222	1471963667236	1471963667308	h	72
2418	24886	Foreigners have now fled the country since fighting erupted.	Foreigners have now fled the country since fighting erupted.	1189228	1471963667460	1471963667556	a	65
2418	24886	Foreigners have now fled the country since fighting erupted.	Foreigners have now fled the country since fighting erupted.	1189235	1471963667660	1471963667740	v	86
2418	24886	Foreigners have now fled the country since fighting erupted.	Foreigners have now fled the country since fighting erupted.	1189242	1471963667812	1471963667925	e	69
2418	24886	Foreigners have now fled the country since fighting erupted.	Foreigners have now fled the country since fighting erupted.	1189309	1471963667927	1471963668000	 	32
2418	24886	Foreigners have now fled the country since fighting erupted.	Foreigners have now fled the country since fighting erupted.	1189314	1471963668508	1471963668612	n	78
2418	24886	Foreigners have now fled the country since fighting erupted.	Foreigners have now fled the country since fighting erupted.	1189319	1471963668812	1471963668884	o	79
2418	24886	Foreigners have now fled the country since fighting erupted.	Foreigners have now fled the country since fighting erupted.	1189324	1471963669212	1471963669300	w	87
2418	24886	Foreigners have now fled the country since fighting erupted.	Foreigners have now fled the country since fighting erupted.	1189327	1471963669396	1471963669468	 	32
2418	24886	Foreigners have now fled the country since fighting erupted.	Foreigners have now fled the country since fighting erupted.	1189361	1471963669916	1471963669996	f	70
2418	24886	Foreigners have now fled the country since fighting erupted.	Foreigners have now fled the country since fighting erupted.	1189364	1471963670108	1471963670204	l	76
2418	24886	Foreigners have now fled the country since fighting erupted.	Foreigners have now fled the country since fighting erupted.	1189367	1471963670268	1471963670348	e	69
2418	24886	Foreigners have now fled the country since fighting erupted.	Foreigners have now fled the country since fighting erupted.	1189371	1471963670540	1471963670628	d	68
2418	24886	Foreigners have now fled the country since fighting erupted.	Foreigners have now fled the country since fighting erupted.	1189377	1471963670684	1471963670740	 	32
2418	24886	Foreigners have now fled the country since fighting erupted.	Foreigners have now fled the country since fighting erupted.	1189435	1471963671172	1471963671252	t	84
2418	24886	Foreigners have now fled the country since fighting erupted.	Foreigners have now fled the country since fighting erupted.	1189437	1471963671356	1471963671436	h	72
2418	24886	Foreigners have now fled the country since fighting erupted.	Foreigners have now fled the country since fighting erupted.	1189439	1471963671516	1471963671612	e	69
2418	24886	Foreigners have now fled the country since fighting erupted.	Foreigners have now fled the country since fighting erupted.	1189442	1471963671668	1471963671740	 	32
2418	24886	Foreigners have now fled the country since fighting erupted.	Foreigners have now fled the country since fighting erupted.	1189445	1471963672252	1471963672340	c	67
2418	24886	Foreigners have now fled the country since fighting erupted.	Foreigners have now fled the country since fighting erupted.	1189552	1471963672420	1471963672612	o	79
2418	24886	Foreigners have now fled the country since fighting erupted.	Foreigners have now fled the country since fighting erupted.	1189559	1471963672668	1471963672764	u	85
2418	24886	Foreigners have now fled the country since fighting erupted.	Foreigners have now fled the country since fighting erupted.	1189568	1471963672924	1471963672997	n	78
2418	24886	Foreigners have now fled the country since fighting erupted.	Foreigners have now fled the country since fighting erupted.	1189576	1471963674044	1471963674164	t	84
2418	24886	Foreigners have now fled the country since fighting erupted.	Foreigners have now fled the country since fighting erupted.	1189583	1471963674308	1471963674428	r	82
2418	24886	Foreigners have now fled the country since fighting erupted.	Foreigners have now fled the country since fighting erupted.	1189637	1471963674430	1471963674500	y	89
2418	24886	Foreigners have now fled the country since fighting erupted.	Foreigners have now fled the country since fighting erupted.	1189641	1471963674708	1471963674796	 	32
2418	24886	Foreigners have now fled the country since fighting erupted.	Foreigners have now fled the country since fighting erupted.	1189647	1471963675276	1471963675364	s	83
2418	24886	Foreigners have now fled the country since fighting erupted.	Foreigners have now fled the country since fighting erupted.	1189652	1471963675412	1471963675484	i	73
2418	24886	Foreigners have now fled the country since fighting erupted.	Foreigners have now fled the country since fighting erupted.	1189655	1471963675804	1471963675876	n	78
2418	24886	Foreigners have now fled the country since fighting erupted.	Foreigners have now fled the country since fighting erupted.	1189741	1471963676060	1471963676140	c	67
2418	24886	Foreigners have now fled the country since fighting erupted.	Foreigners have now fled the country since fighting erupted.	1189745	1471963676524	1471963676604	e	69
2418	24886	Foreigners have now fled the country since fighting erupted.	Foreigners have now fled the country since fighting erupted.	1189748	1471963676668	1471963676740	 	32
2418	24886	Foreigners have now fled the country since fighting erupted.	Foreigners have now fled the country since fighting erupted.	1189752	1471963677092	1471963677180	f	70
2418	24886	Foreigners have now fled the country since fighting erupted.	Foreigners have now fled the country since fighting erupted.	1189755	1471963677260	1471963677340	i	73
2418	24886	Foreigners have now fled the country since fighting erupted.	Foreigners have now fled the country since fighting erupted.	1189931	1471963677532	1471963677636	g	71
2418	24886	Foreigners have now fled the country since fighting erupted.	Foreigners have now fled the country since fighting erupted.	1189934	1471963679556	1471963679636	h	72
2418	24886	Foreigners have now fled the country since fighting erupted.	Foreigners have now fled the country since fighting erupted.	1189942	1471963679948	1471963680044	t	84
2418	24886	Foreigners have now fled the country since fighting erupted.	Foreigners have now fled the country since fighting erupted.	1189953	1471963680100	1471963680204	i	73
2418	24886	Foreigners have now fled the country since fighting erupted.	Foreigners have now fled the country since fighting erupted.	1189959	1471963680373	1471963680468	n	78
2418	24886	Foreigners have now fled the country since fighting erupted.	Foreigners have now fled the country since fighting erupted.	1190161	1471963680860	1471963680948	g	71
2418	24886	Foreigners have now fled the country since fighting erupted.	Foreigners have now fled the country since fighting erupted.	1190164	1471963681028	1471963681116	 	32
2418	24886	Foreigners have now fled the country since fighting erupted.	Foreigners have now fled the country since fighting erupted.	1190170	1471963682204	1471963682356	e	69
2418	24886	Foreigners have now fled the country since fighting erupted.	Foreigners have now fled the country since fighting erupted.	1190174	1471963683036	1471963683116	r	82
2418	24886	Foreigners have now fled the country since fighting erupted.	Foreigners have now fled the country since fighting erupted.	1190180	1471963683452	1471963683524	u	85
2418	24886	Foreigners have now fled the country since fighting erupted.	Foreigners have now fled the country since fighting erupted.	1190281	1471963683732	1471963683804	p	80
2418	24886	Foreigners have now fled the country since fighting erupted.	Foreigners have now fled the country since fighting erupted.	1190285	1471963684500	1471963684580	t	84
2418	24886	Foreigners have now fled the country since fighting erupted.	Foreigners have now fled the country since fighting erupted.	1190288	1471963684732	1471963684804	e	69
2418	24886	Foreigners have now fled the country since fighting erupted.	Foreigners have now fled the country since fighting erupted.	1190292	1471963684972	1471963685060	d	68
2418	24886	Foreigners have now fled the country since fighting erupted.	Foreigners have now fled the country since fighting erupted.	1190299	1471963685308	1471963685348	.	190
2418	24918	Add a Star Trek convention and sports memorabilia show to the mix.	add a star trek convention and sports memorabilia show to the mix.	1190595	1471963688476	1471963688564	a	65
2418	24918	Add a Star Trek convention and sports memorabilia show to the mix.	add a star trek convention and sports memorabilia show to the mix.	1190597	1471963688804	1471963688860	d	68
2418	24918	Add a Star Trek convention and sports memorabilia show to the mix.	add a star trek convention and sports memorabilia show to the mix.	1190601	1471963688940	1471963688988	d	68
2418	24918	Add a Star Trek convention and sports memorabilia show to the mix.	add a star trek convention and sports memorabilia show to the mix.	1190605	1471963689108	1471963689188	 	32
2418	24918	Add a Star Trek convention and sports memorabilia show to the mix.	add a star trek convention and sports memorabilia show to the mix.	1190608	1471963689348	1471963689452	a	65
2418	24918	Add a Star Trek convention and sports memorabilia show to the mix.	add a star trek convention and sports memorabilia show to the mix.	1190687	1471963689484	1471963689564	 	32
2418	24918	Add a Star Trek convention and sports memorabilia show to the mix.	add a star trek convention and sports memorabilia show to the mix.	1190690	1471963689972	1471963690076	s	83
2418	24918	Add a Star Trek convention and sports memorabilia show to the mix.	add a star trek convention and sports memorabilia show to the mix.	1190693	1471963690156	1471963690252	t	84
2418	24918	Add a Star Trek convention and sports memorabilia show to the mix.	add a star trek convention and sports memorabilia show to the mix.	1190697	1471963690332	1471963690428	a	65
2418	24918	Add a Star Trek convention and sports memorabilia show to the mix.	add a star trek convention and sports memorabilia show to the mix.	1190701	1471963690484	1471963690596	r	82
2418	24918	Add a Star Trek convention and sports memorabilia show to the mix.	add a star trek convention and sports memorabilia show to the mix.	1190837	1471963691092	1471963691196	 	32
2418	24918	Add a Star Trek convention and sports memorabilia show to the mix.	add a star trek convention and sports memorabilia show to the mix.	1190843	1471963691636	1471963691748	t	84
2418	24918	Add a Star Trek convention and sports memorabilia show to the mix.	add a star trek convention and sports memorabilia show to the mix.	1190849	1471963692172	1471963692252	r	82
2418	24918	Add a Star Trek convention and sports memorabilia show to the mix.	add a star trek convention and sports memorabilia show to the mix.	1190856	1471963692844	1471963692924	e	69
2418	24918	Add a Star Trek convention and sports memorabilia show to the mix.	add a star trek convention and sports memorabilia show to the mix.	1190863	1471963692964	1471963693068	k	75
2418	24918	Add a Star Trek convention and sports memorabilia show to the mix.	add a star trek convention and sports memorabilia show to the mix.	1191086	1471963693212	1471963693308	 	32
2418	24918	Add a Star Trek convention and sports memorabilia show to the mix.	add a star trek convention and sports memorabilia show to the mix.	1191088	1471963694804	1471963694852	c	67
2418	24918	Add a Star Trek convention and sports memorabilia show to the mix.	add a star trek convention and sports memorabilia show to the mix.	1191090	1471963695156	1471963695220	o	79
2418	24918	Add a Star Trek convention and sports memorabilia show to the mix.	add a star trek convention and sports memorabilia show to the mix.	1191092	1471963695972	1471963696028	n	78
2418	24918	Add a Star Trek convention and sports memorabilia show to the mix.	add a star trek convention and sports memorabilia show to the mix.	1191093	1471963696292	1471963696348	v	86
2418	24918	Add a Star Trek convention and sports memorabilia show to the mix.	add a star trek convention and sports memorabilia show to the mix.	1191153	1471963696564	1471963696660	e	69
2418	24918	Add a Star Trek convention and sports memorabilia show to the mix.	add a star trek convention and sports memorabilia show to the mix.	1191157	1471963696724	1471963696820	n	78
2418	24918	Add a Star Trek convention and sports memorabilia show to the mix.	add a star trek convention and sports memorabilia show to the mix.	1191159	1471963696988	1471963697100	t	84
2418	24918	Add a Star Trek convention and sports memorabilia show to the mix.	add a star trek convention and sports memorabilia show to the mix.	1191161	1471963697124	1471963697212	i	73
2418	24918	Add a Star Trek convention and sports memorabilia show to the mix.	add a star trek convention and sports memorabilia show to the mix.	1191166	1471963697332	1471963697460	o	79
2418	24918	Add a Star Trek convention and sports memorabilia show to the mix.	add a star trek convention and sports memorabilia show to the mix.	1191301	1471963698468	1471963698540	n	78
2418	24918	Add a Star Trek convention and sports memorabilia show to the mix.	add a star trek convention and sports memorabilia show to the mix.	1191304	1471963698684	1471963698756	 	32
2418	24918	Add a Star Trek convention and sports memorabilia show to the mix.	add a star trek convention and sports memorabilia show to the mix.	1191310	1471963699028	1471963699124	a	65
2418	24918	Add a Star Trek convention and sports memorabilia show to the mix.	add a star trek convention and sports memorabilia show to the mix.	1191315	1471963699172	1471963699260	n	78
2418	24918	Add a Star Trek convention and sports memorabilia show to the mix.	add a star trek convention and sports memorabilia show to the mix.	1191322	1471963699564	1471963699668	d	68
2418	24918	Add a Star Trek convention and sports memorabilia show to the mix.	add a star trek convention and sports memorabilia show to the mix.	1191367	1471963699692	1471963699796	 	32
2418	24918	Add a Star Trek convention and sports memorabilia show to the mix.	add a star trek convention and sports memorabilia show to the mix.	1191369	1471963700076	1471963700196	s	83
2418	24918	Add a Star Trek convention and sports memorabilia show to the mix.	add a star trek convention and sports memorabilia show to the mix.	1191373	1471963700196	1471963700292	p	80
2418	24918	Add a Star Trek convention and sports memorabilia show to the mix.	add a star trek convention and sports memorabilia show to the mix.	1191374	1471963700372	1471963700468	o	79
2418	24918	Add a Star Trek convention and sports memorabilia show to the mix.	add a star trek convention and sports memorabilia show to the mix.	1191376	1471963700604	1471963700700	r	82
2418	24918	Add a Star Trek convention and sports memorabilia show to the mix.	add a star trek convention and sports memorabilia show to the mix.	1191495	1471963700812	1471963700916	t	84
2418	24918	Add a Star Trek convention and sports memorabilia show to the mix.	add a star trek convention and sports memorabilia show to the mix.	1191497	1471963701420	1471963701516	s	83
2418	24918	Add a Star Trek convention and sports memorabilia show to the mix.	add a star trek convention and sports memorabilia show to the mix.	1191502	1471963701596	1471963701700	 	32
2418	24918	Add a Star Trek convention and sports memorabilia show to the mix.	add a star trek convention and sports memorabilia show to the mix.	1191505	1471963701868	1471963701972	m	77
2418	24918	Add a Star Trek convention and sports memorabilia show to the mix.	add a star trek convention and sports memorabilia show to the mix.	1191512	1471963702116	1471963702196	e	69
2418	24918	Add a Star Trek convention and sports memorabilia show to the mix.	add a star trek convention and sports memorabilia show to the mix.	1191706	1471963702260	1471963702356	m	77
2418	24918	Add a Star Trek convention and sports memorabilia show to the mix.	add a star trek convention and sports memorabilia show to the mix.	1191711	1471963703396	1471963703484	o	79
2418	24918	Add a Star Trek convention and sports memorabilia show to the mix.	add a star trek convention and sports memorabilia show to the mix.	1191713	1471963703748	1471963703852	r	82
2418	24918	Add a Star Trek convention and sports memorabilia show to the mix.	add a star trek convention and sports memorabilia show to the mix.	1191721	1471963704652	1471963704756	a	65
2418	24918	Add a Star Trek convention and sports memorabilia show to the mix.	add a star trek convention and sports memorabilia show to the mix.	1191725	1471963704892	1471963704996	b	66
2418	24918	Add a Star Trek convention and sports memorabilia show to the mix.	add a star trek convention and sports memorabilia show to the mix.	1191817	1471963705684	1471963705764	i	73
2418	24918	Add a Star Trek convention and sports memorabilia show to the mix.	add a star trek convention and sports memorabilia show to the mix.	1191820	1471963705900	1471963705972	l	76
2418	24918	Add a Star Trek convention and sports memorabilia show to the mix.	add a star trek convention and sports memorabilia show to the mix.	1191823	1471963706084	1471963706164	i	73
2418	24918	Add a Star Trek convention and sports memorabilia show to the mix.	add a star trek convention and sports memorabilia show to the mix.	1191826	1471963706292	1471963706380	a	65
2418	24918	Add a Star Trek convention and sports memorabilia show to the mix.	add a star trek convention and sports memorabilia show to the mix.	1191829	1471963706660	1471963706732	 	32
2418	24918	Add a Star Trek convention and sports memorabilia show to the mix.	add a star trek convention and sports memorabilia show to the mix.	1191966	1471963707684	1471963707796	s	83
2418	24918	Add a Star Trek convention and sports memorabilia show to the mix.	add a star trek convention and sports memorabilia show to the mix.	1191973	1471963707820	1471963707924	h	72
2418	24918	Add a Star Trek convention and sports memorabilia show to the mix.	add a star trek convention and sports memorabilia show to the mix.	1191977	1471963708020	1471963708156	o	79
2418	24918	Add a Star Trek convention and sports memorabilia show to the mix.	add a star trek convention and sports memorabilia show to the mix.	1191981	1471963708324	1471963708452	w	87
2418	24918	Add a Star Trek convention and sports memorabilia show to the mix.	add a star trek convention and sports memorabilia show to the mix.	1191985	1471963708492	1471963708572	 	32
2418	24918	Add a Star Trek convention and sports memorabilia show to the mix.	add a star trek convention and sports memorabilia show to the mix.	1192069	1471963709164	1471963709324	t	84
2418	24918	Add a Star Trek convention and sports memorabilia show to the mix.	add a star trek convention and sports memorabilia show to the mix.	1192074	1471963709348	1471963709412	o	79
2418	24918	Add a Star Trek convention and sports memorabilia show to the mix.	add a star trek convention and sports memorabilia show to the mix.	1192077	1471963709572	1471963709660	 	32
2418	24918	Add a Star Trek convention and sports memorabilia show to the mix.	add a star trek convention and sports memorabilia show to the mix.	1192082	1471963709868	1471963709972	t	84
2418	24918	Add a Star Trek convention and sports memorabilia show to the mix.	add a star trek convention and sports memorabilia show to the mix.	1192088	1471963709988	1471963710092	h	72
2418	24918	Add a Star Trek convention and sports memorabilia show to the mix.	add a star trek convention and sports memorabilia show to the mix.	1192234	1471963710180	1471963710284	e	69
2418	24918	Add a Star Trek convention and sports memorabilia show to the mix.	add a star trek convention and sports memorabilia show to the mix.	1192237	1471963710316	1471963710444	 	32
2418	24918	Add a Star Trek convention and sports memorabilia show to the mix.	add a star trek convention and sports memorabilia show to the mix.	1192244	1471963711204	1471963711292	m	77
2418	24918	Add a Star Trek convention and sports memorabilia show to the mix.	add a star trek convention and sports memorabilia show to the mix.	1192246	1471963711412	1471963711500	i	73
2418	24918	Add a Star Trek convention and sports memorabilia show to the mix.	add a star trek convention and sports memorabilia show to the mix.	1192249	1471963711972	1471963712084	x	88
2418	24918	Add a Star Trek convention and sports memorabilia show to the mix.	add a star trek convention and sports memorabilia show to the mix.	1192399	1471963712876	1471963712972	.	190
2418	24960	Chad thought we were on a treasure hunt.	chad thought we were on a treasure hunt	1192588	1471963716428	1471963716492	c	67
2418	24960	Chad thought we were on a treasure hunt.	chad thought we were on a treasure hunt	1192592	1471963716732	1471963716836	h	72
2418	24960	Chad thought we were on a treasure hunt.	chad thought we were on a treasure hunt	1192596	1471963716876	1471963716956	a	65
2418	24960	Chad thought we were on a treasure hunt.	chad thought we were on a treasure hunt	1192599	1471963717236	1471963717340	d	68
2418	24960	Chad thought we were on a treasure hunt.	chad thought we were on a treasure hunt	1192601	1471963717420	1471963717492	 	32
2418	24960	Chad thought we were on a treasure hunt.	chad thought we were on a treasure hunt	1192744	1471963718004	1471963718108	t	84
2418	24960	Chad thought we were on a treasure hunt.	chad thought we were on a treasure hunt	1192747	1471963718156	1471963718260	h	72
2418	24960	Chad thought we were on a treasure hunt.	chad thought we were on a treasure hunt	1192751	1471963718508	1471963718620	o	79
2418	24960	Chad thought we were on a treasure hunt.	chad thought we were on a treasure hunt	1192753	1471963718940	1471963719028	g	71
2418	24960	Chad thought we were on a treasure hunt.	chad thought we were on a treasure hunt	1192756	1471963719124	1471963719220	h	72
2418	24960	Chad thought we were on a treasure hunt.	chad thought we were on a treasure hunt	1194304	1471963719292	1471963719372	t	84
2418	24960	Chad thought we were on a treasure hunt.	chad thought we were on a treasure hunt	1194309	1471963719412	1471963719492	 	32
2418	24960	Chad thought we were on a treasure hunt.	chad thought we were on a treasure hunt	1194318	1471963720652	1471963720732	BKSP	8
2418	24960	Chad thought we were on a treasure hunt.	chad thought we were on a treasure hunt	1194326	1471963720804	1471963720860	BKSP	8
2418	24960	Chad thought we were on a treasure hunt.	chad thought we were on a treasure hunt	1194330	1471963720940	1471963720996	BKSP	8
2418	24960	Chad thought we were on a treasure hunt.	chad thought we were on a treasure hunt	1194338	1471963721052	1471963721076	BKSP	8
2418	24960	Chad thought we were on a treasure hunt.	chad thought we were on a treasure hunt	1194345	1471963721196	1471963721252	BKSP	8
2418	24960	Chad thought we were on a treasure hunt.	chad thought we were on a treasure hunt	1194350	1471963740348	1471963740420	o	79
2418	24960	Chad thought we were on a treasure hunt.	chad thought we were on a treasure hunt	1194356	1471963740764	1471963740852	u	85
2418	24960	Chad thought we were on a treasure hunt.	chad thought we were on a treasure hunt	1194360	1471963740980	1471963741060	g	71
2418	24960	Chad thought we were on a treasure hunt.	chad thought we were on a treasure hunt	1194427	1471963741156	1471963741244	h	72
2418	24960	Chad thought we were on a treasure hunt.	chad thought we were on a treasure hunt	1194431	1471963741276	1471963741356	t	84
2418	24960	Chad thought we were on a treasure hunt.	chad thought we were on a treasure hunt	1194438	1471963741405	1471963741476	 	32
2418	24960	Chad thought we were on a treasure hunt.	chad thought we were on a treasure hunt	1194443	1471963742196	1471963742276	w	87
2418	24960	Chad thought we were on a treasure hunt.	chad thought we were on a treasure hunt	1194447	1471963742372	1471963742452	e	69
2418	24960	Chad thought we were on a treasure hunt.	chad thought we were on a treasure hunt	1194486	1471963742508	1471963742612	 	32
2418	24960	Chad thought we were on a treasure hunt.	chad thought we were on a treasure hunt	1194493	1471963742612	1471963742708	w	87
2418	24960	Chad thought we were on a treasure hunt.	chad thought we were on a treasure hunt	1194497	1471963742812	1471963742908	e	69
2418	24960	Chad thought we were on a treasure hunt.	chad thought we were on a treasure hunt	1194501	1471963743012	1471963743100	r	82
2418	24960	Chad thought we were on a treasure hunt.	chad thought we were on a treasure hunt	1194508	1471963743204	1471963743316	e	69
2418	24960	Chad thought we were on a treasure hunt.	chad thought we were on a treasure hunt	1194585	1471963743340	1471963743412	 	32
2418	24960	Chad thought we were on a treasure hunt.	chad thought we were on a treasure hunt	1194587	1471963743956	1471963744004	o	79
2418	24960	Chad thought we were on a treasure hunt.	chad thought we were on a treasure hunt	1194589	1471963744228	1471963744276	n	78
2418	24960	Chad thought we were on a treasure hunt.	chad thought we were on a treasure hunt	1194591	1471963744396	1471963744476	 	32
2418	24960	Chad thought we were on a treasure hunt.	chad thought we were on a treasure hunt	1194593	1471963744516	1471963744612	a	65
2418	24960	Chad thought we were on a treasure hunt.	chad thought we were on a treasure hunt	1194634	1471963744644	1471963744708	 	32
2418	24960	Chad thought we were on a treasure hunt.	chad thought we were on a treasure hunt	1194640	1471963744940	1471963745036	t	84
2418	24960	Chad thought we were on a treasure hunt.	chad thought we were on a treasure hunt	1194646	1471963745100	1471963745172	r	82
2418	24960	Chad thought we were on a treasure hunt.	chad thought we were on a treasure hunt	1194651	1471963745284	1471963745348	e	69
2418	24960	Chad thought we were on a treasure hunt.	chad thought we were on a treasure hunt	1194656	1471963745532	1471963745620	a	65
2418	24960	Chad thought we were on a treasure hunt.	chad thought we were on a treasure hunt	1194693	1471963745748	1471963745828	s	83
2418	24960	Chad thought we were on a treasure hunt.	chad thought we were on a treasure hunt	1194695	1471963745924	1471963746012	u	85
2418	24960	Chad thought we were on a treasure hunt.	chad thought we were on a treasure hunt	1194699	1471963746108	1471963746188	r	82
2418	24960	Chad thought we were on a treasure hunt.	chad thought we were on a treasure hunt	1194704	1471963746300	1471963746428	e	69
2418	24960	Chad thought we were on a treasure hunt.	chad thought we were on a treasure hunt	1194979	1471963746396	1471963746476	 	32
2418	24960	Chad thought we were on a treasure hunt.	chad thought we were on a treasure hunt	1194983	1471963747204	1471963747388	h	72
2418	24960	Chad thought we were on a treasure hunt.	chad thought we were on a treasure hunt	1194988	1471963747404	1471963747524	u	85
2418	24960	Chad thought we were on a treasure hunt.	chad thought we were on a treasure hunt	1194994	1471963747668	1471963747701	n	78
2418	24960	Chad thought we were on a treasure hunt.	chad thought we were on a treasure hunt	1194997	1471963748628	1471963748708	t	84
2418	25017	He said he would resist all the pressure of time deadlines.	he said he would resist all the pressure of the time deadlines	1195193	1471963751764	1471963751908	h	72
2418	25017	He said he would resist all the pressure of time deadlines.	he said he would resist all the pressure of the time deadlines	1195194	1471963751908	1471963751988	e	69
2418	25017	He said he would resist all the pressure of time deadlines.	he said he would resist all the pressure of the time deadlines	1195196	1471963752060	1471963752172	 	32
2418	25017	He said he would resist all the pressure of time deadlines.	he said he would resist all the pressure of the time deadlines	1195197	1471963752356	1471963752452	s	83
2418	25017	He said he would resist all the pressure of time deadlines.	he said he would resist all the pressure of the time deadlines	1195199	1471963752580	1471963752660	a	65
2418	25017	He said he would resist all the pressure of time deadlines.	he said he would resist all the pressure of the time deadlines	1195268	1471963752740	1471963752836	i	73
2418	25017	He said he would resist all the pressure of time deadlines.	he said he would resist all the pressure of the time deadlines	1195270	1471963752948	1471963753044	d	68
2418	25017	He said he would resist all the pressure of time deadlines.	he said he would resist all the pressure of the time deadlines	1195272	1471963753092	1471963753172	 	32
2418	25017	He said he would resist all the pressure of time deadlines.	he said he would resist all the pressure of the time deadlines	1195274	1471963753612	1471963753700	h	72
2418	25017	He said he would resist all the pressure of time deadlines.	he said he would resist all the pressure of the time deadlines	1195277	1471963753788	1471963753892	e	69
2418	25017	He said he would resist all the pressure of time deadlines.	he said he would resist all the pressure of the time deadlines	1195340	1471963753894	1471963753988	 	32
2418	25017	He said he would resist all the pressure of time deadlines.	he said he would resist all the pressure of the time deadlines	1195344	1471963754108	1471963754220	w	87
2418	25017	He said he would resist all the pressure of time deadlines.	he said he would resist all the pressure of the time deadlines	1195347	1471963754284	1471963754420	o	79
2418	25017	He said he would resist all the pressure of time deadlines.	he said he would resist all the pressure of the time deadlines	1195350	1471963754484	1471963754572	u	85
2418	25017	He said he would resist all the pressure of time deadlines.	he said he would resist all the pressure of the time deadlines	1195354	1471963754908	1471963755004	l	76
2418	25017	He said he would resist all the pressure of time deadlines.	he said he would resist all the pressure of the time deadlines	1195447	1471963755132	1471963755212	d	68
2418	25017	He said he would resist all the pressure of time deadlines.	he said he would resist all the pressure of the time deadlines	1195451	1471963755252	1471963755340	 	32
2418	25017	He said he would resist all the pressure of time deadlines.	he said he would resist all the pressure of the time deadlines	1195453	1471963755628	1471963755700	r	82
2418	25017	He said he would resist all the pressure of time deadlines.	he said he would resist all the pressure of the time deadlines	1195457	1471963755828	1471963755924	e	69
2418	25017	He said he would resist all the pressure of time deadlines.	he said he would resist all the pressure of the time deadlines	1195462	1471963756068	1471963756180	s	83
2418	25017	He said he would resist all the pressure of time deadlines.	he said he would resist all the pressure of the time deadlines	1195600	1471963756204	1471963756300	i	73
2418	25017	He said he would resist all the pressure of time deadlines.	he said he would resist all the pressure of the time deadlines	1195603	1471963756396	1471963756500	s	83
2418	25017	He said he would resist all the pressure of time deadlines.	he said he would resist all the pressure of the time deadlines	1195604	1471963756620	1471963756724	t	84
2418	25017	He said he would resist all the pressure of time deadlines.	he said he would resist all the pressure of the time deadlines	1195607	1471963756853	1471963756964	 	32
2418	25017	He said he would resist all the pressure of time deadlines.	he said he would resist all the pressure of the time deadlines	1195609	1471963757868	1471963757972	a	65
2418	25017	He said he would resist all the pressure of time deadlines.	he said he would resist all the pressure of the time deadlines	1195799	1471963758108	1471963758156	l	76
2418	25017	He said he would resist all the pressure of time deadlines.	he said he would resist all the pressure of the time deadlines	1195804	1471963758276	1471963758340	l	76
2418	25017	He said he would resist all the pressure of time deadlines.	he said he would resist all the pressure of the time deadlines	1195811	1471963759388	1471963759468	 	32
2418	25017	He said he would resist all the pressure of time deadlines.	he said he would resist all the pressure of the time deadlines	1195816	1471963759908	1471963760036	t	84
2418	25017	He said he would resist all the pressure of time deadlines.	he said he would resist all the pressure of the time deadlines	1195820	1471963760036	1471963760140	h	72
2418	25017	He said he would resist all the pressure of time deadlines.	he said he would resist all the pressure of the time deadlines	1195898	1471963760228	1471963760324	e	69
2418	25017	He said he would resist all the pressure of time deadlines.	he said he would resist all the pressure of the time deadlines	1195901	1471963760324	1471963760396	 	32
2418	25017	He said he would resist all the pressure of time deadlines.	he said he would resist all the pressure of the time deadlines	1195905	1471963760644	1471963760860	p	80
2418	25017	He said he would resist all the pressure of time deadlines.	he said he would resist all the pressure of the time deadlines	1195909	1471963760884	1471963760972	r	82
2418	25017	He said he would resist all the pressure of time deadlines.	he said he would resist all the pressure of the time deadlines	1195913	1471963761076	1471963761164	e	69
2418	25017	He said he would resist all the pressure of time deadlines.	he said he would resist all the pressure of the time deadlines	1195953	1471963761308	1471963761380	s	83
2418	25017	He said he would resist all the pressure of time deadlines.	he said he would resist all the pressure of the time deadlines	1195957	1471963761452	1471963761508	s	83
2418	25017	He said he would resist all the pressure of time deadlines.	he said he would resist all the pressure of the time deadlines	1195964	1471963761596	1471963761700	u	85
2418	25017	He said he would resist all the pressure of time deadlines.	he said he would resist all the pressure of the time deadlines	1195968	1471963761756	1471963761844	r	82
2418	25017	He said he would resist all the pressure of time deadlines.	he said he would resist all the pressure of the time deadlines	1195975	1471963761980	1471963762084	e	69
2418	25017	He said he would resist all the pressure of time deadlines.	he said he would resist all the pressure of the time deadlines	1196049	1471963762116	1471963762228	 	32
2418	25017	He said he would resist all the pressure of time deadlines.	he said he would resist all the pressure of the time deadlines	1196050	1471963762716	1471963762804	o	79
2418	25017	He said he would resist all the pressure of time deadlines.	he said he would resist all the pressure of the time deadlines	1196052	1471963762900	1471963763020	f	70
2418	25017	He said he would resist all the pressure of time deadlines.	he said he would resist all the pressure of the time deadlines	1196054	1471963763020	1471963763108	 	32
2418	25017	He said he would resist all the pressure of time deadlines.	he said he would resist all the pressure of the time deadlines	1196056	1471963763132	1471963763220	t	84
2418	25017	He said he would resist all the pressure of time deadlines.	he said he would resist all the pressure of the time deadlines	1196308	1471963763260	1471963763356	h	72
2418	25017	He said he would resist all the pressure of time deadlines.	he said he would resist all the pressure of the time deadlines	1196311	1471963763444	1471963763540	e	69
2418	25017	He said he would resist all the pressure of time deadlines.	he said he would resist all the pressure of the time deadlines	1196314	1471963763612	1471963763708	 	32
2418	25017	He said he would resist all the pressure of time deadlines.	he said he would resist all the pressure of the time deadlines	1196317	1471963765492	1471963765588	t	84
2418	25017	He said he would resist all the pressure of time deadlines.	he said he would resist all the pressure of the time deadlines	1196319	1471963766212	1471963766284	i	73
2418	25017	He said he would resist all the pressure of time deadlines.	he said he would resist all the pressure of the time deadlines	1196398	1471963766460	1471963766524	m	77
2418	25017	He said he would resist all the pressure of time deadlines.	he said he would resist all the pressure of the time deadlines	1196404	1471963766876	1471963766964	e	69
2418	25017	He said he would resist all the pressure of time deadlines.	he said he would resist all the pressure of the time deadlines	1196408	1471963767028	1471963767076	 	32
2418	25017	He said he would resist all the pressure of time deadlines.	he said he would resist all the pressure of the time deadlines	1196415	1471963767588	1471963767652	d	68
2418	25017	He said he would resist all the pressure of time deadlines.	he said he would resist all the pressure of the time deadlines	1196420	1471963767756	1471963767820	e	69
2418	25017	He said he would resist all the pressure of time deadlines.	he said he would resist all the pressure of the time deadlines	1196495	1471963768004	1471963768116	a	65
2418	25017	He said he would resist all the pressure of time deadlines.	he said he would resist all the pressure of the time deadlines	1196499	1471963768268	1471963768364	d	68
2418	25017	He said he would resist all the pressure of time deadlines.	he said he would resist all the pressure of the time deadlines	1196504	1471963768500	1471963768572	l	76
2418	25017	He said he would resist all the pressure of time deadlines.	he said he would resist all the pressure of the time deadlines	1196507	1471963768724	1471963768828	i	73
2418	25017	He said he would resist all the pressure of time deadlines.	he said he would resist all the pressure of the time deadlines	1196512	1471963768964	1471963769060	n	78
2418	25017	He said he would resist all the pressure of time deadlines.	he said he would resist all the pressure of the time deadlines	1196578	1471963769092	1471963769180	e	69
2418	25017	He said he would resist all the pressure of time deadlines.	he said he would resist all the pressure of the time deadlines	1196587	1471963769292	1471963769380	s	83
2418	25050	November 14 works for me.	november 14 works for me.	1196835	1471963772084	1471963772172	n	78
2418	25050	November 14 works for me.	november 14 works for me.	1196841	1471963772396	1471963772468	o	79
2418	25050	November 14 works for me.	november 14 works for me.	1196846	1471963772716	1471963772788	v	86
2418	25050	November 14 works for me.	november 14 works for me.	1196851	1471963773108	1471963773204	e	69
2418	25050	November 14 works for me.	november 14 works for me.	1196858	1471963773276	1471963773372	m	77
2418	25050	November 14 works for me.	november 14 works for me.	1196936	1471963773516	1471963773628	b	66
2418	25050	November 14 works for me.	november 14 works for me.	1196940	1471963773684	1471963773788	e	69
2418	25050	November 14 works for me.	november 14 works for me.	1196943	1471963773900	1471963774012	r	82
2418	25050	November 14 works for me.	november 14 works for me.	1196948	1471963774076	1471963774172	 	32
2418	25050	November 14 works for me.	november 14 works for me.	1196957	1471963774828	1471963774908	1	49
2418	25050	November 14 works for me.	november 14 works for me.	1197050	1471963775068	1471963775180	4	52
2418	25050	November 14 works for me.	november 14 works for me.	1197053	1471963775228	1471963775332	 	32
2418	25050	November 14 works for me.	november 14 works for me.	1197055	1471963775548	1471963775644	w	87
2418	25050	November 14 works for me.	november 14 works for me.	1197059	1471963776092	1471963776180	o	79
2418	25050	November 14 works for me.	november 14 works for me.	1197062	1471963776356	1471963776428	r	82
2418	25050	November 14 works for me.	november 14 works for me.	1197156	1471963776532	1471963776588	k	75
2418	25050	November 14 works for me.	november 14 works for me.	1197162	1471963777100	1471963777180	s	83
2418	25050	November 14 works for me.	november 14 works for me.	1197171	1471963777260	1471963777348	 	32
2418	25050	November 14 works for me.	november 14 works for me.	1197178	1471963777604	1471963777692	f	70
2418	25050	November 14 works for me.	november 14 works for me.	1197183	1471963777836	1471963777924	o	79
2418	25050	November 14 works for me.	november 14 works for me.	1197247	1471963777996	1471963778084	r	82
2418	25050	November 14 works for me.	november 14 works for me.	1197252	1471963778124	1471963778236	 	32
2418	25050	November 14 works for me.	november 14 works for me.	1197259	1471963778388	1471963778460	m	77
2418	25050	November 14 works for me.	november 14 works for me.	1197265	1471963778588	1471963778684	e	69
2418	25050	November 14 works for me.	november 14 works for me.	1197271	1471963778884	1471963778972	.	190
2418	25065	Theresa, the formula BP is using is highlighted in red below.	theresa.the formula bp is using is highlighted in red below	1197835	1471963782076	1471963782172	t	84
2418	25065	Theresa, the formula BP is using is highlighted in red below.	theresa.the formula bp is using is highlighted in red below	1197840	1471963782236	1471963782332	h	72
2418	25065	Theresa, the formula BP is using is highlighted in red below.	theresa.the formula bp is using is highlighted in red below	1197845	1471963782773	1471963782884	e	69
2418	25065	Theresa, the formula BP is using is highlighted in red below.	theresa.the formula bp is using is highlighted in red below	1197849	1471963785724	1471963785804	r	82
2418	25065	Theresa, the formula BP is using is highlighted in red below.	theresa.the formula bp is using is highlighted in red below	1197855	1471963785876	1471963785940	e	69
2418	25065	Theresa, the formula BP is using is highlighted in red below.	theresa.the formula bp is using is highlighted in red below	1198105	1471963786140	1471963786244	a	65
2418	25065	Theresa, the formula BP is using is highlighted in red below.	theresa.the formula bp is using is highlighted in red below	1198108	1471963786420	1471963786500	s	83
2418	25065	Theresa, the formula BP is using is highlighted in red below.	theresa.the formula bp is using is highlighted in red below	1198113	1471963786596	1471963786700	a	65
2418	25065	Theresa, the formula BP is using is highlighted in red below.	theresa.the formula bp is using is highlighted in red below	1198116	1471963786716	1471963786804	 	32
2418	25065	Theresa, the formula BP is using is highlighted in red below.	theresa.the formula bp is using is highlighted in red below	1198120	1471963787364	1471963787452	BKSP	8
2418	25065	Theresa, the formula BP is using is highlighted in red below.	theresa.the formula bp is using is highlighted in red below	1198123	1471963787532	1471963787588	BKSP	8
2418	25065	Theresa, the formula BP is using is highlighted in red below.	theresa.the formula bp is using is highlighted in red below	1198126	1471963787660	1471963787700	BKSP	8
2418	25065	Theresa, the formula BP is using is highlighted in red below.	theresa.the formula bp is using is highlighted in red below	1198130	1471963787868	1471963787948	BKSP	8
2418	25065	Theresa, the formula BP is using is highlighted in red below.	theresa.the formula bp is using is highlighted in red below	1198133	1471963788092	1471963788164	BKSP	8
2418	25065	Theresa, the formula BP is using is highlighted in red below.	theresa.the formula bp is using is highlighted in red below	1198137	1471963789564	1471963789628	e	69
2418	25065	Theresa, the formula BP is using is highlighted in red below.	theresa.the formula bp is using is highlighted in red below	1198287	1471963789788	1471963789860	s	83
2418	25065	Theresa, the formula BP is using is highlighted in red below.	theresa.the formula bp is using is highlighted in red below	1198288	1471963789980	1471963790068	a	65
2418	25065	Theresa, the formula BP is using is highlighted in red below.	theresa.the formula bp is using is highlighted in red below	1198289	1471963790284	1471963790388	BKSP	8
2418	25065	Theresa, the formula BP is using is highlighted in red below.	theresa.the formula bp is using is highlighted in red below	1198290	1471963792172	1471963792260	a	65
2418	25065	Theresa, the formula BP is using is highlighted in red below.	theresa.the formula bp is using is highlighted in red below	1198292	1471963792748	1471963792828	.	190
2418	25065	Theresa, the formula BP is using is highlighted in red below.	theresa.the formula bp is using is highlighted in red below	1198297	1471963792956	1471963793044	t	84
2418	25065	Theresa, the formula BP is using is highlighted in red below.	theresa.the formula bp is using is highlighted in red below	1198415	1471963793118	1471963793204	h	72
2418	25065	Theresa, the formula BP is using is highlighted in red below.	theresa.the formula bp is using is highlighted in red below	1198420	1471963793364	1471963793468	e	69
2418	25065	Theresa, the formula BP is using is highlighted in red below.	theresa.the formula bp is using is highlighted in red below	1198425	1471963793508	1471963793572	 	32
2418	25065	Theresa, the formula BP is using is highlighted in red below.	theresa.the formula bp is using is highlighted in red below	1198431	1471963794188	1471963794244	f	70
2418	25065	Theresa, the formula BP is using is highlighted in red below.	theresa.the formula bp is using is highlighted in red below	1198439	1471963794356	1471963794428	i	73
2418	25065	Theresa, the formula BP is using is highlighted in red below.	theresa.the formula bp is using is highlighted in red below	1198663	1471963794876	1471963794916	BKSP	8
2418	25065	Theresa, the formula BP is using is highlighted in red below.	theresa.the formula bp is using is highlighted in red below	1198666	1471963795324	1471963795412	o	79
2418	25065	Theresa, the formula BP is using is highlighted in red below.	theresa.the formula bp is using is highlighted in red below	1198672	1471963795980	1471963796068	r	82
2418	25065	Theresa, the formula BP is using is highlighted in red below.	theresa.the formula bp is using is highlighted in red below	1198679	1471963796316	1471963796404	m	77
2418	25065	Theresa, the formula BP is using is highlighted in red below.	theresa.the formula bp is using is highlighted in red below	1198687	1471963796540	1471963796604	i	73
2418	25065	Theresa, the formula BP is using is highlighted in red below.	theresa.the formula bp is using is highlighted in red below	1198691	1471963796940	1471963797036	BKSP	8
2418	25065	Theresa, the formula BP is using is highlighted in red below.	theresa.the formula bp is using is highlighted in red below	1198696	1471963797268	1471963797364	u	85
2418	25065	Theresa, the formula BP is using is highlighted in red below.	theresa.the formula bp is using is highlighted in red below	1198901	1471963797636	1471963797716	l	76
2418	25065	Theresa, the formula BP is using is highlighted in red below.	theresa.the formula bp is using is highlighted in red below	1198905	1471963797916	1471963798020	a	65
2418	25065	Theresa, the formula BP is using is highlighted in red below.	theresa.the formula bp is using is highlighted in red below	1198911	1471963798100	1471963798172	 	32
2418	25065	Theresa, the formula BP is using is highlighted in red below.	theresa.the formula bp is using is highlighted in red below	1198918	1471963800108	1471963800204	b	66
2418	25065	Theresa, the formula BP is using is highlighted in red below.	theresa.the formula bp is using is highlighted in red below	1198926	1471963800244	1471963800340	p	80
2418	25065	Theresa, the formula BP is using is highlighted in red below.	theresa.the formula bp is using is highlighted in red below	1199010	1471963800564	1471963800644	 	32
2418	25065	Theresa, the formula BP is using is highlighted in red below.	theresa.the formula bp is using is highlighted in red below	1199018	1471963800876	1471963800956	i	73
2418	25065	Theresa, the formula BP is using is highlighted in red below.	theresa.the formula bp is using is highlighted in red below	1199026	1471963801084	1471963801180	s	83
2418	25065	Theresa, the formula BP is using is highlighted in red below.	theresa.the formula bp is using is highlighted in red below	1199033	1471963801164	1471963801284	 	32
2418	25065	Theresa, the formula BP is using is highlighted in red below.	theresa.the formula bp is using is highlighted in red below	1199037	1471963801468	1471963801540	u	85
2418	25065	Theresa, the formula BP is using is highlighted in red below.	theresa.the formula bp is using is highlighted in red below	1199117	1471963801668	1471963801796	s	83
2418	25065	Theresa, the formula BP is using is highlighted in red below.	theresa.the formula bp is using is highlighted in red below	1199122	1471963801796	1471963801916	i	73
2418	25065	Theresa, the formula BP is using is highlighted in red below.	theresa.the formula bp is using is highlighted in red below	1199126	1471963802028	1471963802132	n	78
2418	25065	Theresa, the formula BP is using is highlighted in red below.	theresa.the formula bp is using is highlighted in red below	1199129	1471963802284	1471963802388	g	71
2418	25065	Theresa, the formula BP is using is highlighted in red below.	theresa.the formula bp is using is highlighted in red below	1199133	1471963802460	1471963802524	 	32
2418	25065	Theresa, the formula BP is using is highlighted in red below.	theresa.the formula bp is using is highlighted in red below	1199289	1471963803292	1471963803380	i	73
2418	25065	Theresa, the formula BP is using is highlighted in red below.	theresa.the formula bp is using is highlighted in red below	1199292	1471963803556	1471963803676	s	83
2418	25065	Theresa, the formula BP is using is highlighted in red below.	theresa.the formula bp is using is highlighted in red below	1199298	1471963803676	1471963803748	 	32
2418	25065	Theresa, the formula BP is using is highlighted in red below.	theresa.the formula bp is using is highlighted in red below	1199304	1471963804132	1471963804252	h	72
2418	25065	Theresa, the formula BP is using is highlighted in red below.	theresa.the formula bp is using is highlighted in red below	1199309	1471963804348	1471963804500	i	73
2418	25065	Theresa, the formula BP is using is highlighted in red below.	theresa.the formula bp is using is highlighted in red below	1199458	1471963804636	1471963804740	g	71
2418	25065	Theresa, the formula BP is using is highlighted in red below.	theresa.the formula bp is using is highlighted in red below	1199464	1471963804884	1471963804980	h	72
2418	25065	Theresa, the formula BP is using is highlighted in red below.	theresa.the formula bp is using is highlighted in red below	1199465	1471963805484	1471963805548	l	76
2418	25065	Theresa, the formula BP is using is highlighted in red below.	theresa.the formula bp is using is highlighted in red below	1199470	1471963805700	1471963805780	i	73
2418	25065	Theresa, the formula BP is using is highlighted in red below.	theresa.the formula bp is using is highlighted in red below	1199471	1471963806660	1471963806732	g	71
2418	25065	Theresa, the formula BP is using is highlighted in red below.	theresa.the formula bp is using is highlighted in red below	1199570	1471963806868	1471963806948	h	72
2418	25065	Theresa, the formula BP is using is highlighted in red below.	theresa.the formula bp is using is highlighted in red below	1199577	1471963807668	1471963807756	t	84
2418	25065	Theresa, the formula BP is using is highlighted in red below.	theresa.the formula bp is using is highlighted in red below	1199582	1471963807812	1471963807908	e	69
2418	25065	Theresa, the formula BP is using is highlighted in red below.	theresa.the formula bp is using is highlighted in red below	1199586	1471963808092	1471963808172	d	68
2418	25065	Theresa, the formula BP is using is highlighted in red below.	theresa.the formula bp is using is highlighted in red below	1199590	1471963808172	1471963808220	 	32
2418	25065	Theresa, the formula BP is using is highlighted in red below.	theresa.the formula bp is using is highlighted in red below	1199685	1471963808812	1471963808884	i	73
2418	25065	Theresa, the formula BP is using is highlighted in red below.	theresa.the formula bp is using is highlighted in red below	1199689	1471963809036	1471963809092	n	78
2418	25065	Theresa, the formula BP is using is highlighted in red below.	theresa.the formula bp is using is highlighted in red below	1199698	1471963809204	1471963809380	 	32
2418	25065	Theresa, the formula BP is using is highlighted in red below.	theresa.the formula bp is using is highlighted in red below	1199708	1471963809492	1471963809588	r	82
2418	25065	Theresa, the formula BP is using is highlighted in red below.	theresa.the formula bp is using is highlighted in red below	1199719	1471963809740	1471963809812	e	69
2418	25065	Theresa, the formula BP is using is highlighted in red below.	theresa.the formula bp is using is highlighted in red below	1199802	1471963809988	1471963810116	d	68
2418	25065	Theresa, the formula BP is using is highlighted in red below.	theresa.the formula bp is using is highlighted in red below	1199806	1471963810116	1471963810180	 	32
2418	25065	Theresa, the formula BP is using is highlighted in red below.	theresa.the formula bp is using is highlighted in red below	1199808	1471963810820	1471963810892	b	66
2418	25065	Theresa, the formula BP is using is highlighted in red below.	theresa.the formula bp is using is highlighted in red below	1199813	1471963811100	1471963811220	e	69
2418	25065	Theresa, the formula BP is using is highlighted in red below.	theresa.the formula bp is using is highlighted in red below	1199820	1471963811276	1471963811356	l	76
2418	25065	Theresa, the formula BP is using is highlighted in red below.	theresa.the formula bp is using is highlighted in red below	1199927	1471963811476	1471963811604	o	79
2418	25065	Theresa, the formula BP is using is highlighted in red below.	theresa.the formula bp is using is highlighted in red below	1199932	1471963811724	1471963811828	w	87
2418	25116	I just faxed copies of the invoices to you.	i just faxed copies of the invoices to you.	1200127	1471963814868	1471963814956	i	73
2418	25116	I just faxed copies of the invoices to you.	i just faxed copies of the invoices to you.	1200132	1471963815116	1471963815212	 	32
2418	25116	I just faxed copies of the invoices to you.	i just faxed copies of the invoices to you.	1200137	1471963815324	1471963815396	j	74
2418	25116	I just faxed copies of the invoices to you.	i just faxed copies of the invoices to you.	1200143	1471963815492	1471963815564	u	85
2418	25116	I just faxed copies of the invoices to you.	i just faxed copies of the invoices to you.	1200149	1471963815636	1471963815732	s	83
2418	25116	I just faxed copies of the invoices to you.	i just faxed copies of the invoices to you.	1200271	1471963815836	1471963815932	t	84
2418	25116	I just faxed copies of the invoices to you.	i just faxed copies of the invoices to you.	1200273	1471963816116	1471963816188	 	32
2418	25116	I just faxed copies of the invoices to you.	i just faxed copies of the invoices to you.	1200277	1471963816564	1471963816636	f	70
2418	25116	I just faxed copies of the invoices to you.	i just faxed copies of the invoices to you.	1200281	1471963816828	1471963816924	a	65
2418	25116	I just faxed copies of the invoices to you.	i just faxed copies of the invoices to you.	1200286	1471963817133	1471963817212	x	88
2418	25116	I just faxed copies of the invoices to you.	i just faxed copies of the invoices to you.	1200374	1471963817372	1471963817468	e	69
2418	25116	I just faxed copies of the invoices to you.	i just faxed copies of the invoices to you.	1200380	1471963817604	1471963817692	d	68
2418	25116	I just faxed copies of the invoices to you.	i just faxed copies of the invoices to you.	1200384	1471963818012	1471963818068	 	32
2418	25116	I just faxed copies of the invoices to you.	i just faxed copies of the invoices to you.	1200391	1471963818372	1471963818476	c	67
2418	25116	I just faxed copies of the invoices to you.	i just faxed copies of the invoices to you.	1200401	1471963818620	1471963818676	o	79
2418	25116	I just faxed copies of the invoices to you.	i just faxed copies of the invoices to you.	1200503	1471963818788	1471963818876	p	80
2418	25116	I just faxed copies of the invoices to you.	i just faxed copies of the invoices to you.	1200505	1471963819108	1471963819220	i	73
2418	25116	I just faxed copies of the invoices to you.	i just faxed copies of the invoices to you.	1200510	1471963819276	1471963819364	e	69
2418	25116	I just faxed copies of the invoices to you.	i just faxed copies of the invoices to you.	1200516	1471963820076	1471963820172	s	83
2418	25116	I just faxed copies of the invoices to you.	i just faxed copies of the invoices to you.	1200525	1471963820204	1471963820292	 	32
2418	25116	I just faxed copies of the invoices to you.	i just faxed copies of the invoices to you.	1200692	1471963820980	1471963821060	o	79
2418	25116	I just faxed copies of the invoices to you.	i just faxed copies of the invoices to you.	1200696	1471963821292	1471963821404	f	70
2418	25116	I just faxed copies of the invoices to you.	i just faxed copies of the invoices to you.	1200702	1471963821428	1471963821484	 	32
2418	25116	I just faxed copies of the invoices to you.	i just faxed copies of the invoices to you.	1200704	1471963821996	1471963822084	t	84
2418	25116	I just faxed copies of the invoices to you.	i just faxed copies of the invoices to you.	1200709	1471963822100	1471963822196	h	72
2418	25116	I just faxed copies of the invoices to you.	i just faxed copies of the invoices to you.	1200805	1471963822260	1471963822356	e	69
2418	25116	I just faxed copies of the invoices to you.	i just faxed copies of the invoices to you.	1200808	1471963822356	1471963822468	 	32
2418	25116	I just faxed copies of the invoices to you.	i just faxed copies of the invoices to you.	1200813	1471963822628	1471963822716	i	73
2418	25116	I just faxed copies of the invoices to you.	i just faxed copies of the invoices to you.	1200817	1471963822980	1471963823052	n	78
2418	25116	I just faxed copies of the invoices to you.	i just faxed copies of the invoices to you.	1200821	1471963823804	1471963823892	v	86
2418	25116	I just faxed copies of the invoices to you.	i just faxed copies of the invoices to you.	1200931	1471963823948	1471963823988	o	79
2418	25116	I just faxed copies of the invoices to you.	i just faxed copies of the invoices to you.	1200936	1471963824100	1471963824180	i	73
2418	25116	I just faxed copies of the invoices to you.	i just faxed copies of the invoices to you.	1200942	1471963824364	1471963824436	c	67
2418	25116	I just faxed copies of the invoices to you.	i just faxed copies of the invoices to you.	1200949	1471963824580	1471963824700	e	69
2418	25116	I just faxed copies of the invoices to you.	i just faxed copies of the invoices to you.	1200954	1471963825396	1471963825500	s	83
2418	25116	I just faxed copies of the invoices to you.	i just faxed copies of the invoices to you.	1201006	1471963825532	1471963825628	 	32
2418	25116	I just faxed copies of the invoices to you.	i just faxed copies of the invoices to you.	1201008	1471963825844	1471963825948	t	84
2418	25116	I just faxed copies of the invoices to you.	i just faxed copies of the invoices to you.	1201012	1471963826036	1471963826116	o	79
2418	25116	I just faxed copies of the invoices to you.	i just faxed copies of the invoices to you.	1201018	1471963826188	1471963826332	 	32
2418	25116	I just faxed copies of the invoices to you.	i just faxed copies of the invoices to you.	1201023	1471963826556	1471963826636	y	89
2418	25116	I just faxed copies of the invoices to you.	i just faxed copies of the invoices to you.	1201187	1471963826684	1471963826756	o	79
2418	25116	I just faxed copies of the invoices to you.	i just faxed copies of the invoices to you.	1201191	1471963826804	1471963826876	u	85
2418	25116	I just faxed copies of the invoices to you.	i just faxed copies of the invoices to you.	1201195	1471963827308	1471963827388	.	190
2418	25144	Do you need it today?	do you need it today?	1201373	1471963831276	1471963831388	d	68
2418	25144	Do you need it today?	do you need it today?	1201376	1471963831412	1471963831484	o	79
2418	25144	Do you need it today?	do you need it today?	1201380	1471963831636	1471963831724	 	32
2418	25144	Do you need it today?	do you need it today?	1201386	1471963832260	1471963832348	y	89
2418	25144	Do you need it today?	do you need it today?	1201393	1471963832364	1471963832468	o	79
2418	25144	Do you need it today?	do you need it today?	1201441	1471963832508	1471963832604	u	85
2418	25144	Do you need it today?	do you need it today?	1201447	1471963832676	1471963832772	 	32
2418	25144	Do you need it today?	do you need it today?	1201450	1471963832892	1471963832972	n	78
2418	25144	Do you need it today?	do you need it today?	1201453	1471963833084	1471963833156	e	69
2418	25144	Do you need it today?	do you need it today?	1201457	1471963833228	1471963833300	e	69
2418	25144	Do you need it today?	do you need it today?	1201556	1471963833420	1471963833516	d	68
2418	25144	Do you need it today?	do you need it today?	1201561	1471963833556	1471963833644	 	32
2418	25144	Do you need it today?	do you need it today?	1201565	1471963834236	1471963834356	i	73
2418	25144	Do you need it today?	do you need it today?	1201568	1471963834452	1471963834564	t	84
2418	25144	Do you need it today?	do you need it today?	1201570	1471963834564	1471963834676	 	32
2418	25144	Do you need it today?	do you need it today?	1201834	1471963834780	1471963834908	o	79
2418	25144	Do you need it today?	do you need it today?	1201840	1471963835252	1471963835332	d	68
2418	25144	Do you need it today?	do you need it today?	1201847	1471963835540	1471963835660	a	65
2418	25144	Do you need it today?	do you need it today?	1201851	1471963835692	1471963835772	y	89
2418	25144	Do you need it today?	do you need it today?	1201861	1471963836524	1471963836604	BKSP	8
2418	25144	Do you need it today?	do you need it today?	1201871	1471963836676	1471963836764	BKSP	8
2418	25144	Do you need it today?	do you need it today?	1201877	1471963836828	1471963836876	BKSP	8
2418	25144	Do you need it today?	do you need it today?	1201883	1471963837164	1471963837228	BKSP	8
2418	25144	Do you need it today?	do you need it today?	1201888	1471963837860	1471963837916	t	84
2418	25144	Do you need it today?	do you need it today?	1201961	1471963837988	1471963838068	o	79
2418	25144	Do you need it today?	do you need it today?	1201969	1471963838180	1471963838260	d	68
2418	25144	Do you need it today?	do you need it today?	1201976	1471963838412	1471963838492	a	65
2418	25144	Do you need it today?	do you need it today?	1201981	1471963838852	1471963838924	y	89
2418	25144	Do you need it today?	do you need it today?	1201985	1471963839164	1471963839348	SHIFT	16
2418	25144	Do you need it today?	do you need it today?	1202034	1471963839292	1471963839388	?	191
2418	25155	Megan, I'm not sure why this is showing up.	magan,im not sure why this is showing up.	1202312	1471963843492	1471963843580	m	77
2418	25155	Megan, I'm not sure why this is showing up.	magan,im not sure why this is showing up.	1202317	1471963843932	1471963844036	a	65
2418	25155	Megan, I'm not sure why this is showing up.	magan,im not sure why this is showing up.	1202321	1471963844076	1471963844124	g	71
2418	25155	Megan, I'm not sure why this is showing up.	magan,im not sure why this is showing up.	1202323	1471963844220	1471963844316	a	65
2418	25155	Megan, I'm not sure why this is showing up.	magan,im not sure why this is showing up.	1202326	1471963844412	1471963844500	n	78
2418	25155	Megan, I'm not sure why this is showing up.	magan,im not sure why this is showing up.	1202418	1471963845292	1471963845356	,	188
2418	25155	Megan, I'm not sure why this is showing up.	magan,im not sure why this is showing up.	1202421	1471963845516	1471963845604	i	73
2418	25155	Megan, I'm not sure why this is showing up.	magan,im not sure why this is showing up.	1202424	1471963845948	1471963846044	m	77
2418	25155	Megan, I'm not sure why this is showing up.	magan,im not sure why this is showing up.	1202428	1471963846188	1471963846284	 	32
2418	25155	Megan, I'm not sure why this is showing up.	magan,im not sure why this is showing up.	1202433	1471963846500	1471963846620	n	78
2418	25155	Megan, I'm not sure why this is showing up.	magan,im not sure why this is showing up.	1202557	1471963846836	1471963846948	o	79
2418	25155	Megan, I'm not sure why this is showing up.	magan,im not sure why this is showing up.	1202558	1471963847100	1471963847212	t	84
2418	25155	Megan, I'm not sure why this is showing up.	magan,im not sure why this is showing up.	1202559	1471963847252	1471963847324	 	32
2418	25155	Megan, I'm not sure why this is showing up.	magan,im not sure why this is showing up.	1202560	1471963847772	1471963847876	s	83
2418	25155	Megan, I'm not sure why this is showing up.	magan,im not sure why this is showing up.	1202561	1471963847956	1471963848084	u	85
2418	25155	Megan, I'm not sure why this is showing up.	magan,im not sure why this is showing up.	1202620	1471963848156	1471963848228	r	82
2418	25155	Megan, I'm not sure why this is showing up.	magan,im not sure why this is showing up.	1202622	1471963848364	1471963848468	e	69
2418	25155	Megan, I'm not sure why this is showing up.	magan,im not sure why this is showing up.	1202625	1471963848516	1471963848596	 	32
2418	25155	Megan, I'm not sure why this is showing up.	magan,im not sure why this is showing up.	1202628	1471963848940	1471963849052	w	87
2418	25155	Megan, I'm not sure why this is showing up.	magan,im not sure why this is showing up.	1202630	1471963849132	1471963849212	h	72
2418	25155	Megan, I'm not sure why this is showing up.	magan,im not sure why this is showing up.	1202655	1471963849364	1471963849460	y	89
2418	25155	Megan, I'm not sure why this is showing up.	magan,im not sure why this is showing up.	1202657	1471963849588	1471963849684	 	32
2418	25155	Megan, I'm not sure why this is showing up.	magan,im not sure why this is showing up.	1202661	1471963849740	1471963849828	t	84
2418	25155	Megan, I'm not sure why this is showing up.	magan,im not sure why this is showing up.	1202664	1471963849844	1471963849908	h	72
2418	25155	Megan, I'm not sure why this is showing up.	magan,im not sure why this is showing up.	1202669	1471963850060	1471963850164	i	73
2418	25155	Megan, I'm not sure why this is showing up.	magan,im not sure why this is showing up.	1202754	1471963850420	1471963850508	s	83
2418	25155	Megan, I'm not sure why this is showing up.	magan,im not sure why this is showing up.	1202761	1471963850660	1471963850740	 	32
2418	25155	Megan, I'm not sure why this is showing up.	magan,im not sure why this is showing up.	1202766	1471963851044	1471963851108	i	73
2418	25155	Megan, I'm not sure why this is showing up.	magan,im not sure why this is showing up.	1202771	1471963851204	1471963851308	s	83
2418	25155	Megan, I'm not sure why this is showing up.	magan,im not sure why this is showing up.	1202774	1471963851308	1471963851388	 	32
2418	25155	Megan, I'm not sure why this is showing up.	magan,im not sure why this is showing up.	1202840	1471963851860	1471963851972	s	83
2418	25155	Megan, I'm not sure why this is showing up.	magan,im not sure why this is showing up.	1202842	1471963852108	1471963852180	h	72
2418	25155	Megan, I'm not sure why this is showing up.	magan,im not sure why this is showing up.	1202844	1471963852364	1471963852444	o	79
2418	25155	Megan, I'm not sure why this is showing up.	magan,im not sure why this is showing up.	1202846	1471963852796	1471963852907	w	87
2418	25155	Megan, I'm not sure why this is showing up.	magan,im not sure why this is showing up.	1202949	1471963852900	1471963852988	i	73
2418	25155	Megan, I'm not sure why this is showing up.	magan,im not sure why this is showing up.	1202958	1471963853116	1471963853244	n	78
2418	25155	Megan, I'm not sure why this is showing up.	magan,im not sure why this is showing up.	1202964	1471963853348	1471963853444	g	71
2418	25155	Megan, I'm not sure why this is showing up.	magan,im not sure why this is showing up.	1202968	1471963853580	1471963853636	 	32
2418	25155	Megan, I'm not sure why this is showing up.	magan,im not sure why this is showing up.	1202973	1471963854180	1471963854244	u	85
2418	25155	Megan, I'm not sure why this is showing up.	magan,im not sure why this is showing up.	1202980	1471963854716	1471963854796	p	80
2418	25155	Megan, I'm not sure why this is showing up.	magan,im not sure why this is showing up.	1203140	1471963856308	1471963856364	.	190
2418	25177	We are looking at military assistance.	we are looking at military assistance.	1203382	1471963859652	1471963859708	w	87
2418	25177	We are looking at military assistance.	we are looking at military assistance.	1203384	1471963859948	1471963860060	e	69
2418	25177	We are looking at military assistance.	we are looking at military assistance.	1203385	1471963860468	1471963860548	 	32
2418	25177	We are looking at military assistance.	we are looking at military assistance.	1203387	1471963860615	1471963860700	a	65
2418	25177	We are looking at military assistance.	we are looking at military assistance.	1203390	1471963860900	1471963860972	r	82
2418	25177	We are looking at military assistance.	we are looking at military assistance.	1203460	1471963861084	1471963861204	e	69
2418	25177	We are looking at military assistance.	we are looking at military assistance.	1203464	1471963861204	1471963861316	 	32
2418	25177	We are looking at military assistance.	we are looking at military assistance.	1203469	1471963861676	1471963861804	l	76
2418	25177	We are looking at military assistance.	we are looking at military assistance.	1203473	1471963861972	1471963862036	o	79
2418	25177	We are looking at military assistance.	we are looking at military assistance.	1203479	1471963862116	1471963862204	o	79
2418	25177	We are looking at military assistance.	we are looking at military assistance.	1203522	1471963862260	1471963862364	k	75
2418	25177	We are looking at military assistance.	we are looking at military assistance.	1203526	1471963862436	1471963862532	i	73
2418	25177	We are looking at military assistance.	we are looking at military assistance.	1203531	1471963862692	1471963862772	n	78
2418	25177	We are looking at military assistance.	we are looking at military assistance.	1203535	1471963862852	1471963862924	g	71
2418	25177	We are looking at military assistance.	we are looking at military assistance.	1203539	1471963862972	1471963863036	 	32
2418	25177	We are looking at military assistance.	we are looking at military assistance.	1203740	1471963863772	1471963863876	a	65
2418	25177	We are looking at military assistance.	we are looking at military assistance.	1203741	1471963864276	1471963864372	t	84
2418	25177	We are looking at military assistance.	we are looking at military assistance.	1203742	1471963864828	1471963864884	 	32
2418	25177	We are looking at military assistance.	we are looking at military assistance.	1203743	1471963865820	1471963865924	BKSP	8
2418	25177	We are looking at military assistance.	we are looking at military assistance.	1203744	1471963866356	1471963866476	 	32
2418	25177	We are looking at military assistance.	we are looking at military assistance.	1203746	1471963866764	1471963866828	m	77
2418	25177	We are looking at military assistance.	we are looking at military assistance.	1203828	1471963867012	1471963867100	i	73
2418	25177	We are looking at military assistance.	we are looking at military assistance.	1203831	1471963867220	1471963867308	l	76
2418	25177	We are looking at military assistance.	we are looking at military assistance.	1203836	1471963867844	1471963867964	i	73
2418	25177	We are looking at military assistance.	we are looking at military assistance.	1203839	1471963868044	1471963868140	t	84
2418	25177	We are looking at military assistance.	we are looking at military assistance.	1203850	1471963868484	1471963868612	a	65
2418	25177	We are looking at military assistance.	we are looking at military assistance.	1203943	1471963868740	1471963868828	r	82
2418	25177	We are looking at military assistance.	we are looking at military assistance.	1203948	1471963869188	1471963869268	y	89
2418	25177	We are looking at military assistance.	we are looking at military assistance.	1203953	1471963869652	1471963869700	 	32
2418	25177	We are looking at military assistance.	we are looking at military assistance.	1203958	1471963870028	1471963870140	a	65
2418	25177	We are looking at military assistance.	we are looking at military assistance.	1203961	1471963870420	1471963870508	s	83
2418	25177	We are looking at military assistance.	we are looking at military assistance.	1204211	1471963870612	1471963870684	s	83
2418	25177	We are looking at military assistance.	we are looking at military assistance.	1204217	1471963871348	1471963871371	u	85
2418	25177	We are looking at military assistance.	we are looking at military assistance.	1204223	1471963871988	1471963872100	=	187
2418	25177	We are looking at military assistance.	we are looking at military assistance.	1204227	1471963872692	1471963872796	BKSP	8
2418	25177	We are looking at military assistance.	we are looking at military assistance.	1204231	1471963872884	1471963872956	BKSP	8
2418	25177	We are looking at military assistance.	we are looking at military assistance.	1204236	1471963873844	1471963873916	i	73
2418	25177	We are looking at military assistance.	we are looking at military assistance.	1204239	1471963874372	1471963874476	s	83
2418	25177	We are looking at military assistance.	we are looking at military assistance.	1204306	1471963874500	1471963874572	t	84
2418	25177	We are looking at military assistance.	we are looking at military assistance.	1204312	1471963874643	1471963874740	a	65
2418	25177	We are looking at military assistance.	we are looking at military assistance.	1204316	1471963874891	1471963874980	n	78
2418	25177	We are looking at military assistance.	we are looking at military assistance.	1204320	1471963875188	1471963875276	c	67
2418	25177	We are looking at military assistance.	we are looking at military assistance.	1204325	1471963875436	1471963875540	e	69
2418	25177	We are looking at military assistance.	we are looking at military assistance.	1204479	1471963876468	1471963876612	.	190
2418	25205	I'll come have a beer with you guys later.	ill come have a beer with you guys later.	1204649	1471963879220	1471963879308	i	73
2418	25205	I'll come have a beer with you guys later.	ill come have a beer with you guys later.	1204654	1471963879484	1471963879572	l	76
2418	25205	I'll come have a beer with you guys later.	ill come have a beer with you guys later.	1204657	1471963879635	1471963879724	l	76
2418	25205	I'll come have a beer with you guys later.	ill come have a beer with you guys later.	1204663	1471963879788	1471963879908	 	32
2418	25205	I'll come have a beer with you guys later.	ill come have a beer with you guys later.	1204671	1471963880028	1471963880124	o	79
2418	25205	I'll come have a beer with you guys later.	ill come have a beer with you guys later.	1204746	1471963880060	1471963880163	c	67
2418	25205	I'll come have a beer with you guys later.	ill come have a beer with you guys later.	1204748	1471963880292	1471963880380	m	77
2418	25205	I'll come have a beer with you guys later.	ill come have a beer with you guys later.	1204751	1471963880532	1471963880628	e	69
2418	25205	I'll come have a beer with you guys later.	ill come have a beer with you guys later.	1204753	1471963880700	1471963880764	 	32
2418	25205	I'll come have a beer with you guys later.	ill come have a beer with you guys later.	1204755	1471963881276	1471963881372	h	72
2418	25205	I'll come have a beer with you guys later.	ill come have a beer with you guys later.	1204759	1471963881411	1471963881532	a	65
2418	25205	I'll come have a beer with you guys later.	ill come have a beer with you guys later.	1204819	1471963881596	1471963881692	v	86
2418	25205	I'll come have a beer with you guys later.	ill come have a beer with you guys later.	1204824	1471963881748	1471963881852	e	69
2418	25205	I'll come have a beer with you guys later.	ill come have a beer with you guys later.	1204829	1471963881852	1471963881940	 	32
2418	25205	I'll come have a beer with you guys later.	ill come have a beer with you guys later.	1204834	1471963882564	1471963882676	a	65
2418	25205	I'll come have a beer with you guys later.	ill come have a beer with you guys later.	1204838	1471963882723	1471963882804	 	32
2418	25205	I'll come have a beer with you guys later.	ill come have a beer with you guys later.	1205173	1471963883492	1471963883563	BKSP	8
2418	25205	I'll come have a beer with you guys later.	ill come have a beer with you guys later.	1205176	1471963883652	1471963883708	BKSP	8
2418	25205	I'll come have a beer with you guys later.	ill come have a beer with you guys later.	1205181	1471963883787	1471963883828	BKSP	8
2418	25205	I'll come have a beer with you guys later.	ill come have a beer with you guys later.	1205186	1471963884028	1471963884084	BKSP	8
2418	25205	I'll come have a beer with you guys later.	ill come have a beer with you guys later.	1205189	1471963884172	1471963884228	BKSP	8
2418	25205	I'll come have a beer with you guys later.	ill come have a beer with you guys later.	1205191	1471963884299	1471963884339	BKSP	8
2418	25205	I'll come have a beer with you guys later.	ill come have a beer with you guys later.	1205195	1471963884427	1471963884500	BKSP	8
2418	25205	I'll come have a beer with you guys later.	ill come have a beer with you guys later.	1205198	1471963884547	1471963884604	BKSP	8
2418	25205	I'll come have a beer with you guys later.	ill come have a beer with you guys later.	1205201	1471963884683	1471963884748	BKSP	8
2418	25205	I'll come have a beer with you guys later.	ill come have a beer with you guys later.	1205205	1471963884811	1471963884860	BKSP	8
2418	25205	I'll come have a beer with you guys later.	ill come have a beer with you guys later.	1205208	1471963884931	1471963884988	BKSP	8
2418	25205	I'll come have a beer with you guys later.	ill come have a beer with you guys later.	1205212	1471963885068	1471963885132	BKSP	8
2418	25205	I'll come have a beer with you guys later.	ill come have a beer with you guys later.	1205216	1471963885668	1471963885764	c	67
2418	25205	I'll come have a beer with you guys later.	ill come have a beer with you guys later.	1205221	1471963885876	1471963885940	o	79
2418	25205	I'll come have a beer with you guys later.	ill come have a beer with you guys later.	1205228	1471963886491	1471963886596	o	79
2418	25205	I'll come have a beer with you guys later.	ill come have a beer with you guys later.	1205239	1471963886731	1471963886827	m	77
2418	25205	I'll come have a beer with you guys later.	ill come have a beer with you guys later.	1205251	1471963887052	1471963887164	BKSP	8
2418	25205	I'll come have a beer with you guys later.	ill come have a beer with you guys later.	1205259	1471963887580	1471963887652	m	77
2418	25205	I'll come have a beer with you guys later.	ill come have a beer with you guys later.	1205345	1471963887699	1471963887788	e	69
2418	25205	I'll come have a beer with you guys later.	ill come have a beer with you guys later.	1205354	1471963887788	1471963887860	 	32
2418	25205	I'll come have a beer with you guys later.	ill come have a beer with you guys later.	1205362	1471963888388	1471963888476	BKSP	8
2418	25205	I'll come have a beer with you guys later.	ill come have a beer with you guys later.	1205372	1471963888571	1471963888636	BKSP	8
2418	25205	I'll come have a beer with you guys later.	ill come have a beer with you guys later.	1205381	1471963888723	1471963888803	BKSP	8
2418	25205	I'll come have a beer with you guys later.	ill come have a beer with you guys later.	1205391	1471963888932	1471963889012	BKSP	8
2418	25205	I'll come have a beer with you guys later.	ill come have a beer with you guys later.	1205400	1471963889836	1471963889916	m	77
2418	25205	I'll come have a beer with you guys later.	ill come have a beer with you guys later.	1205408	1471963889987	1471963890084	e	69
2418	25205	I'll come have a beer with you guys later.	ill come have a beer with you guys later.	1205413	1471963890084	1471963890147	 	32
2418	25205	I'll come have a beer with you guys later.	ill come have a beer with you guys later.	1205543	1471963891252	1471963891332	h	72
2418	25205	I'll come have a beer with you guys later.	ill come have a beer with you guys later.	1205545	1471963891627	1471963891748	a	65
2418	25205	I'll come have a beer with you guys later.	ill come have a beer with you guys later.	1205547	1471963891811	1471963891915	v	86
2418	25205	I'll come have a beer with you guys later.	ill come have a beer with you guys later.	1205549	1471963892284	1471963892379	e	69
2418	25205	I'll come have a beer with you guys later.	ill come have a beer with you guys later.	1205553	1471963892491	1471963892579	 	32
2418	25205	I'll come have a beer with you guys later.	ill come have a beer with you guys later.	1205862	1471963894836	1471963894963	a	65
2418	25205	I'll come have a beer with you guys later.	ill come have a beer with you guys later.	1205869	1471963895052	1471963895163	 	32
2418	25205	I'll come have a beer with you guys later.	ill come have a beer with you guys later.	1205873	1471963896267	1471963896371	b	66
2418	25205	I'll come have a beer with you guys later.	ill come have a beer with you guys later.	1205877	1471963896451	1471963896555	w	87
2418	25205	I'll come have a beer with you guys later.	ill come have a beer with you guys later.	1205880	1471963897108	1471963897259	BKSP	8
2418	25205	I'll come have a beer with you guys later.	ill come have a beer with you guys later.	1205882	1471963897731	1471963897811	e	69
2418	25205	I'll come have a beer with you guys later.	ill come have a beer with you guys later.	1205955	1471963897875	1471963897995	e	69
2418	25205	I'll come have a beer with you guys later.	ill come have a beer with you guys later.	1205959	1471963898347	1471963898443	r	82
2418	25205	I'll come have a beer with you guys later.	ill come have a beer with you guys later.	1205965	1471963898507	1471963898595	 	32
2418	25205	I'll come have a beer with you guys later.	ill come have a beer with you guys later.	1205971	1471963898899	1471963899019	w	87
2418	25205	I'll come have a beer with you guys later.	ill come have a beer with you guys later.	1205979	1471963899020	1471963899107	i	73
2418	25205	I'll come have a beer with you guys later.	ill come have a beer with you guys later.	1206078	1471963899315	1471963899403	t	84
2418	25205	I'll come have a beer with you guys later.	ill come have a beer with you guys later.	1206082	1471963899580	1471963899675	h	72
2418	25205	I'll come have a beer with you guys later.	ill come have a beer with you guys later.	1206086	1471963899899	1471963899995	 	32
2418	25205	I'll come have a beer with you guys later.	ill come have a beer with you guys later.	1206090	1471963900828	1471963900907	y	89
2418	25205	I'll come have a beer with you guys later.	ill come have a beer with you guys later.	1206093	1471963901123	1471963901203	o	79
2418	25205	I'll come have a beer with you guys later.	ill come have a beer with you guys later.	1206154	1471963901323	1471963901411	u	85
2418	25205	I'll come have a beer with you guys later.	ill come have a beer with you guys later.	1206160	1471963901627	1471963901739	 	32
2418	25205	I'll come have a beer with you guys later.	ill come have a beer with you guys later.	1206165	1471963902483	1471963902547	g	71
2418	25205	I'll come have a beer with you guys later.	ill come have a beer with you guys later.	1206168	1471963902819	1471963902908	u	85
2418	25205	I'll come have a beer with you guys later.	ill come have a beer with you guys later.	1206172	1471963903083	1471963903164	y	89
2418	25205	I'll come have a beer with you guys later.	ill come have a beer with you guys later.	1206270	1471963903462	1471963903563	s	83
2418	25205	I'll come have a beer with you guys later.	ill come have a beer with you guys later.	1206276	1471963903619	1471963903675	 	32
2418	25205	I'll come have a beer with you guys later.	ill come have a beer with you guys later.	1206281	1471963904123	1471963904211	l	76
2418	25205	I'll come have a beer with you guys later.	ill come have a beer with you guys later.	1206285	1471963904331	1471963904443	a	65
2418	25205	I'll come have a beer with you guys later.	ill come have a beer with you guys later.	1206286	1471963904547	1471963904651	t	84
2418	25205	I'll come have a beer with you guys later.	ill come have a beer with you guys later.	1206525	1471963904779	1471963904947	e	69
2418	25205	I'll come have a beer with you guys later.	ill come have a beer with you guys later.	1206529	1471963905323	1471963905403	r	82
2418	25205	I'll come have a beer with you guys later.	ill come have a beer with you guys later.	1206536	1471963905811	1471963905859	.	190
