PARTICIPANT_ID	TEST_SECTION_ID	SENTENCE	USER_INPUT	KEYSTROKE_ID	PRESS_TIME	RELEASE_TIME	LETTER	KEYCODE
2422	24838	The earliest the Jets expect him to return is Dec.	The earliest the Jets expect him to return is Dec.	1186728	1471963624724	1471963625284	SHIFT	16
2422	24838	The earliest the Jets expect him to return is Dec.	The earliest the Jets expect him to return is Dec.	1186731	1471963627159	1471963627817	SHIFT	16
2422	24838	The earliest the Jets expect him to return is Dec.	The earliest the Jets expect him to return is Dec.	1186734	1471963627625	1471963627827	T	84
2422	24838	The earliest the Jets expect him to return is Dec.	The earliest the Jets expect him to return is Dec.	1186737	1471963627955	1471963628054	h	72
2422	24838	The earliest the Jets expect him to return is Dec.	The earliest the Jets expect him to return is Dec.	1186740	1471963628054	1471963628169	e	69
2422	24838	The earliest the Jets expect him to return is Dec.	The earliest the Jets expect him to return is Dec.	1186742	1471963628169	1471963628260	 	32
2422	24838	The earliest the Jets expect him to return is Dec.	The earliest the Jets expect him to return is Dec.	1186745	1471963628390	1471963628633	e	69
2422	24838	The earliest the Jets expect him to return is Dec.	The earliest the Jets expect him to return is Dec.	1186774	1471963628487	1471963628679	a	65
2422	24838	The earliest the Jets expect him to return is Dec.	The earliest the Jets expect him to return is Dec.	1186778	1471963628577	1471963628722	r	82
2422	24838	The earliest the Jets expect him to return is Dec.	The earliest the Jets expect him to return is Dec.	1186783	1471963628712	1471963628825	l	76
2422	24838	The earliest the Jets expect him to return is Dec.	The earliest the Jets expect him to return is Dec.	1186787	1471963628774	1471963628880	i	73
2422	24838	The earliest the Jets expect him to return is Dec.	The earliest the Jets expect him to return is Dec.	1186793	1471963628920	1471963629030	e	69
2422	24838	The earliest the Jets expect him to return is Dec.	The earliest the Jets expect him to return is Dec.	1186794	1471963629113	1471963629200	s	83
2422	24838	The earliest the Jets expect him to return is Dec.	The earliest the Jets expect him to return is Dec.	1186797	1471963629200	1471963629257	t	84
2422	24838	The earliest the Jets expect him to return is Dec.	The earliest the Jets expect him to return is Dec.	1186803	1471963629259	1471963629334	 	32
2422	24838	The earliest the Jets expect him to return is Dec.	The earliest the Jets expect him to return is Dec.	1186805	1471963629344	1471963629465	t	84
2422	24838	The earliest the Jets expect him to return is Dec.	The earliest the Jets expect him to return is Dec.	1186807	1471963629424	1471963629577	h	72
2422	24838	The earliest the Jets expect him to return is Dec.	The earliest the Jets expect him to return is Dec.	1186811	1471963629481	1471963629577	e	69
2422	24838	The earliest the Jets expect him to return is Dec.	The earliest the Jets expect him to return is Dec.	1186816	1471963629577	1471963629657	 	32
2422	24838	The earliest the Jets expect him to return is Dec.	The earliest the Jets expect him to return is Dec.	1186896	1471963629728	1471963629813	j	74
2422	24838	The earliest the Jets expect him to return is Dec.	The earliest the Jets expect him to return is Dec.	1186903	1471963630025	1471963630089	BKSP	8
2422	24838	The earliest the Jets expect him to return is Dec.	The earliest the Jets expect him to return is Dec.	1186909	1471963630185	1471963630357	SHIFT	16
2422	24838	The earliest the Jets expect him to return is Dec.	The earliest the Jets expect him to return is Dec.	1186914	1471963630277	1471963630357	J	74
2422	24838	The earliest the Jets expect him to return is Dec.	The earliest the Jets expect him to return is Dec.	1186919	1471963630437	1471963630567	e	69
2422	24838	The earliest the Jets expect him to return is Dec.	The earliest the Jets expect him to return is Dec.	1186923	1471963630567	1471963630704	t	84
2422	24838	The earliest the Jets expect him to return is Dec.	The earliest the Jets expect him to return is Dec.	1186925	1471963630784	1471963630837	s	83
2422	24838	The earliest the Jets expect him to return is Dec.	The earliest the Jets expect him to return is Dec.	1186960	1471963630948	1471963631039	 	32
2422	24838	The earliest the Jets expect him to return is Dec.	The earliest the Jets expect him to return is Dec.	1186961	1471963631096	1471963631144	e	69
2422	24838	The earliest the Jets expect him to return is Dec.	The earliest the Jets expect him to return is Dec.	1186963	1471963631352	1471963631432	x	88
2422	24838	The earliest the Jets expect him to return is Dec.	The earliest the Jets expect him to return is Dec.	1186965	1471963631512	1471963631592	p	80
2422	24838	The earliest the Jets expect him to return is Dec.	The earliest the Jets expect him to return is Dec.	1186968	1471963631622	1471963631688	e	69
2422	24838	The earliest the Jets expect him to return is Dec.	The earliest the Jets expect him to return is Dec.	1186998	1471963631791	1471963631848	c	67
2422	24838	The earliest the Jets expect him to return is Dec.	The earliest the Jets expect him to return is Dec.	1187003	1471963631922	1471963632022	t	84
2422	24838	The earliest the Jets expect him to return is Dec.	The earliest the Jets expect him to return is Dec.	1187008	1471963632032	1471963632104	 	32
2422	24838	The earliest the Jets expect him to return is Dec.	The earliest the Jets expect him to return is Dec.	1187014	1471963632167	1471963632216	h	72
2422	24838	The earliest the Jets expect him to return is Dec.	The earliest the Jets expect him to return is Dec.	1187020	1471963632216	1471963632360	i	73
2422	24838	The earliest the Jets expect him to return is Dec.	The earliest the Jets expect him to return is Dec.	1187029	1471963632328	1471963632440	m	77
2422	24838	The earliest the Jets expect him to return is Dec.	The earliest the Jets expect him to return is Dec.	1187031	1471963632389	1471963632465	 	32
2422	24838	The earliest the Jets expect him to return is Dec.	The earliest the Jets expect him to return is Dec.	1187033	1471963632515	1471963632600	t	84
2422	24838	The earliest the Jets expect him to return is Dec.	The earliest the Jets expect him to return is Dec.	1187037	1471963632568	1471963632658	o	79
2422	24838	The earliest the Jets expect him to return is Dec.	The earliest the Jets expect him to return is Dec.	1187039	1471963632648	1471963632725	 	32
2422	24838	The earliest the Jets expect him to return is Dec.	The earliest the Jets expect him to return is Dec.	1187042	1471963632735	1471963632831	r	82
2422	24838	The earliest the Jets expect him to return is Dec.	The earliest the Jets expect him to return is Dec.	1187060	1471963632821	1471963632952	e	69
2422	24838	The earliest the Jets expect him to return is Dec.	The earliest the Jets expect him to return is Dec.	1187064	1471963632960	1471963633048	t	84
2422	24838	The earliest the Jets expect him to return is Dec.	The earliest the Jets expect him to return is Dec.	1187071	1471963633096	1471963633144	u	85
2422	24838	The earliest the Jets expect him to return is Dec.	The earliest the Jets expect him to return is Dec.	1187077	1471963633172	1471963633235	r	82
2422	24838	The earliest the Jets expect him to return is Dec.	The earliest the Jets expect him to return is Dec.	1187085	1471963633265	1471963633379	n	78
2422	24838	The earliest the Jets expect him to return is Dec.	The earliest the Jets expect him to return is Dec.	1187091	1471963633379	1471963633475	 	32
2422	24838	The earliest the Jets expect him to return is Dec.	The earliest the Jets expect him to return is Dec.	1187140	1471963633556	1471963633638	i	73
2422	24838	The earliest the Jets expect him to return is Dec.	The earliest the Jets expect him to return is Dec.	1187142	1471963633638	1471963633704	s	83
2422	24838	The earliest the Jets expect him to return is Dec.	The earliest the Jets expect him to return is Dec.	1187145	1471963633734	1471963633800	 	32
2422	24838	The earliest the Jets expect him to return is Dec.	The earliest the Jets expect him to return is Dec.	1187150	1471963633831	1471963634200	SHIFT	16
2422	24838	The earliest the Jets expect him to return is Dec.	The earliest the Jets expect him to return is Dec.	1187148	1471963633992	1471963634056	D	68
2422	24838	The earliest the Jets expect him to return is Dec.	The earliest the Jets expect him to return is Dec.	1187223	1471963634147	1471963634202	E	69
2422	24838	The earliest the Jets expect him to return is Dec.	The earliest the Jets expect him to return is Dec.	1187229	1471963634646	1471963634680	BKSP	8
2422	24838	The earliest the Jets expect him to return is Dec.	The earliest the Jets expect him to return is Dec.	1187232	1471963634705	1471963634772	e	69
2422	24838	The earliest the Jets expect him to return is Dec.	The earliest the Jets expect him to return is Dec.	1187235	1471963634882	1471963634965	c	67
2422	24838	The earliest the Jets expect him to return is Dec.	The earliest the Jets expect him to return is Dec.	1187239	1471963635056	1471963635143	.	190
2422	24859	I want to remind you about our All-Employee Meeting this Tuesday, Oct.	I want to remind you about our All-Employee Meeting this Tuesday, Oct.	1187672	1471963636942	1471963637177	SHIFT	16
2422	24859	I want to remind you about our All-Employee Meeting this Tuesday, Oct.	I want to remind you about our All-Employee Meeting this Tuesday, Oct.	1187677	1471963642328	1471963642984	SHIFT	16
2422	24859	I want to remind you about our All-Employee Meeting this Tuesday, Oct.	I want to remind you about our All-Employee Meeting this Tuesday, Oct.	1187674	1471963642838	1471963642945	I	73
2422	24859	I want to remind you about our All-Employee Meeting this Tuesday, Oct.	I want to remind you about our All-Employee Meeting this Tuesday, Oct.	1187681	1471963642945	1471963643031	 	32
2422	24859	I want to remind you about our All-Employee Meeting this Tuesday, Oct.	I want to remind you about our All-Employee Meeting this Tuesday, Oct.	1187685	1471963643186	1471963643351	w	87
2422	24859	I want to remind you about our All-Employee Meeting this Tuesday, Oct.	I want to remind you about our All-Employee Meeting this Tuesday, Oct.	1187690	1471963643265	1471963643448	a	65
2422	24859	I want to remind you about our All-Employee Meeting this Tuesday, Oct.	I want to remind you about our All-Employee Meeting this Tuesday, Oct.	1187694	1471963643401	1471963643491	n	78
2422	24859	I want to remind you about our All-Employee Meeting this Tuesday, Oct.	I want to remind you about our All-Employee Meeting this Tuesday, Oct.	1187697	1471963643491	1471963643552	t	84
2422	24859	I want to remind you about our All-Employee Meeting this Tuesday, Oct.	I want to remind you about our All-Employee Meeting this Tuesday, Oct.	1187702	1471963643552	1471963643651	 	32
2422	24859	I want to remind you about our All-Employee Meeting this Tuesday, Oct.	I want to remind you about our All-Employee Meeting this Tuesday, Oct.	1187705	1471963643651	1471963643721	t	84
2422	24859	I want to remind you about our All-Employee Meeting this Tuesday, Oct.	I want to remind you about our All-Employee Meeting this Tuesday, Oct.	1187708	1471963643705	1471963643801	o	79
2422	24859	I want to remind you about our All-Employee Meeting this Tuesday, Oct.	I want to remind you about our All-Employee Meeting this Tuesday, Oct.	1187710	1471963643801	1471963643848	 	32
2422	24859	I want to remind you about our All-Employee Meeting this Tuesday, Oct.	I want to remind you about our All-Employee Meeting this Tuesday, Oct.	1187736	1471963644281	1471963644421	r	82
2422	24859	I want to remind you about our All-Employee Meeting this Tuesday, Oct.	I want to remind you about our All-Employee Meeting this Tuesday, Oct.	1187739	1471963644353	1471963644501	e	69
2422	24859	I want to remind you about our All-Employee Meeting this Tuesday, Oct.	I want to remind you about our All-Employee Meeting this Tuesday, Oct.	1187744	1471963644481	1471963644546	m	77
2422	24859	I want to remind you about our All-Employee Meeting this Tuesday, Oct.	I want to remind you about our All-Employee Meeting this Tuesday, Oct.	1187750	1471963644576	1471963644695	i	73
2422	24859	I want to remind you about our All-Employee Meeting this Tuesday, Oct.	I want to remind you about our All-Employee Meeting this Tuesday, Oct.	1187755	1471963644646	1471963644726	n	78
2422	24859	I want to remind you about our All-Employee Meeting this Tuesday, Oct.	I want to remind you about our All-Employee Meeting this Tuesday, Oct.	1187758	1471963644726	1471963644808	d	68
2422	24859	I want to remind you about our All-Employee Meeting this Tuesday, Oct.	I want to remind you about our All-Employee Meeting this Tuesday, Oct.	1187761	1471963644808	1471963644929	 	32
2422	24859	I want to remind you about our All-Employee Meeting this Tuesday, Oct.	I want to remind you about our All-Employee Meeting this Tuesday, Oct.	1187764	1471963644929	1471963644996	y	89
2422	24859	I want to remind you about our All-Employee Meeting this Tuesday, Oct.	I want to remind you about our All-Employee Meeting this Tuesday, Oct.	1187766	1471963644996	1471963645144	o	79
2422	24859	I want to remind you about our All-Employee Meeting this Tuesday, Oct.	I want to remind you about our All-Employee Meeting this Tuesday, Oct.	1187780	1471963645097	1471963645209	u	85
2422	24859	I want to remind you about our All-Employee Meeting this Tuesday, Oct.	I want to remind you about our All-Employee Meeting this Tuesday, Oct.	1187786	1471963645168	1471963645268	 	32
2422	24859	I want to remind you about our All-Employee Meeting this Tuesday, Oct.	I want to remind you about our All-Employee Meeting this Tuesday, Oct.	1187793	1471963645268	1471963645433	a	65
2422	24859	I want to remind you about our All-Employee Meeting this Tuesday, Oct.	I want to remind you about our All-Employee Meeting this Tuesday, Oct.	1187799	1471963645348	1471963645464	b	66
2422	24859	I want to remind you about our All-Employee Meeting this Tuesday, Oct.	I want to remind you about our All-Employee Meeting this Tuesday, Oct.	1187804	1471963645412	1471963645545	o	79
2422	24859	I want to remind you about our All-Employee Meeting this Tuesday, Oct.	I want to remind you about our All-Employee Meeting this Tuesday, Oct.	1187817	1471963645491	1471963645670	u	85
2422	24859	I want to remind you about our All-Employee Meeting this Tuesday, Oct.	I want to remind you about our All-Employee Meeting this Tuesday, Oct.	1187821	1471963645587	1471963645670	t	84
2422	24859	I want to remind you about our All-Employee Meeting this Tuesday, Oct.	I want to remind you about our All-Employee Meeting this Tuesday, Oct.	1187831	1471963645670	1471963645728	 	32
2422	24859	I want to remind you about our All-Employee Meeting this Tuesday, Oct.	I want to remind you about our All-Employee Meeting this Tuesday, Oct.	1187837	1471963645778	1471963645895	o	79
2422	24859	I want to remind you about our All-Employee Meeting this Tuesday, Oct.	I want to remind you about our All-Employee Meeting this Tuesday, Oct.	1187842	1471963645846	1471963645971	u	85
2422	24859	I want to remind you about our All-Employee Meeting this Tuesday, Oct.	I want to remind you about our All-Employee Meeting this Tuesday, Oct.	1187945	1471963645905	1471963646024	r	82
2422	24859	I want to remind you about our All-Employee Meeting this Tuesday, Oct.	I want to remind you about our All-Employee Meeting this Tuesday, Oct.	1187951	1471963645971	1471963646068	 	32
2422	24859	I want to remind you about our All-Employee Meeting this Tuesday, Oct.	I want to remind you about our All-Employee Meeting this Tuesday, Oct.	1187964	1471963646105	1471963646419	SHIFT	16
2422	24859	I want to remind you about our All-Employee Meeting this Tuesday, Oct.	I want to remind you about our All-Employee Meeting this Tuesday, Oct.	1187956	1471963646244	1471963646377	A	65
2422	24859	I want to remind you about our All-Employee Meeting this Tuesday, Oct.	I want to remind you about our All-Employee Meeting this Tuesday, Oct.	1187970	1471963646641	1471963646696	l	76
2422	24859	I want to remind you about our All-Employee Meeting this Tuesday, Oct.	I want to remind you about our All-Employee Meeting this Tuesday, Oct.	1187979	1471963646772	1471963646868	l	76
2422	24859	I want to remind you about our All-Employee Meeting this Tuesday, Oct.	I want to remind you about our All-Employee Meeting this Tuesday, Oct.	1187984	1471963647461	1471963647521	-	189
2422	24859	I want to remind you about our All-Employee Meeting this Tuesday, Oct.	I want to remind you about our All-Employee Meeting this Tuesday, Oct.	1188021	1471963647651	1471963647944	SHIFT	16
2422	24859	I want to remind you about our All-Employee Meeting this Tuesday, Oct.	I want to remind you about our All-Employee Meeting this Tuesday, Oct.	1188026	1471963647913	1471963648002	E	69
2422	24859	I want to remind you about our All-Employee Meeting this Tuesday, Oct.	I want to remind you about our All-Employee Meeting this Tuesday, Oct.	1188030	1471963648032	1471963648184	m	77
2422	24859	I want to remind you about our All-Employee Meeting this Tuesday, Oct.	I want to remind you about our All-Employee Meeting this Tuesday, Oct.	1188033	1471963648147	1471963648262	p	80
2422	24859	I want to remind you about our All-Employee Meeting this Tuesday, Oct.	I want to remind you about our All-Employee Meeting this Tuesday, Oct.	1188036	1471963648352	1471963648408	l	76
2422	24859	I want to remind you about our All-Employee Meeting this Tuesday, Oct.	I want to remind you about our All-Employee Meeting this Tuesday, Oct.	1188040	1471963648501	1471963648592	o	79
2422	24859	I want to remind you about our All-Employee Meeting this Tuesday, Oct.	I want to remind you about our All-Employee Meeting this Tuesday, Oct.	1188091	1471963648602	1471963648672	y	89
2422	24859	I want to remind you about our All-Employee Meeting this Tuesday, Oct.	I want to remind you about our All-Employee Meeting this Tuesday, Oct.	1188096	1471963648742	1471963648792	e	69
2422	24859	I want to remind you about our All-Employee Meeting this Tuesday, Oct.	I want to remind you about our All-Employee Meeting this Tuesday, Oct.	1188100	1471963649284	1471963649362	e	69
2422	24859	I want to remind you about our All-Employee Meeting this Tuesday, Oct.	I want to remind you about our All-Employee Meeting this Tuesday, Oct.	1188103	1471963649412	1471963649488	 	32
2422	24859	I want to remind you about our All-Employee Meeting this Tuesday, Oct.	I want to remind you about our All-Employee Meeting this Tuesday, Oct.	1188106	1471963649608	1471963649761	SHIFT	16
2422	24859	I want to remind you about our All-Employee Meeting this Tuesday, Oct.	I want to remind you about our All-Employee Meeting this Tuesday, Oct.	1188116	1471963649698	1471963649784	M	77
2422	24859	I want to remind you about our All-Employee Meeting this Tuesday, Oct.	I want to remind you about our All-Employee Meeting this Tuesday, Oct.	1188118	1471963649841	1471963649911	e	69
2422	24859	I want to remind you about our All-Employee Meeting this Tuesday, Oct.	I want to remind you about our All-Employee Meeting this Tuesday, Oct.	1188122	1471963649961	1471963650120	e	69
2422	24859	I want to remind you about our All-Employee Meeting this Tuesday, Oct.	I want to remind you about our All-Employee Meeting this Tuesday, Oct.	1188125	1471963650105	1471963650228	t	84
2422	24859	I want to remind you about our All-Employee Meeting this Tuesday, Oct.	I want to remind you about our All-Employee Meeting this Tuesday, Oct.	1188128	1471963650228	1471963650371	i	73
2422	24859	I want to remind you about our All-Employee Meeting this Tuesday, Oct.	I want to remind you about our All-Employee Meeting this Tuesday, Oct.	1188140	1471963650304	1471963650454	n	78
2422	24859	I want to remind you about our All-Employee Meeting this Tuesday, Oct.	I want to remind you about our All-Employee Meeting this Tuesday, Oct.	1188144	1471963650392	1471963650484	g	71
2422	24859	I want to remind you about our All-Employee Meeting this Tuesday, Oct.	I want to remind you about our All-Employee Meeting this Tuesday, Oct.	1188146	1471963650504	1471963650581	 	32
2422	24859	I want to remind you about our All-Employee Meeting this Tuesday, Oct.	I want to remind you about our All-Employee Meeting this Tuesday, Oct.	1188147	1471963650591	1471963650681	t	84
2422	24859	I want to remind you about our All-Employee Meeting this Tuesday, Oct.	I want to remind you about our All-Employee Meeting this Tuesday, Oct.	1188148	1471963650681	1471963650792	h	72
2422	24859	I want to remind you about our All-Employee Meeting this Tuesday, Oct.	I want to remind you about our All-Employee Meeting this Tuesday, Oct.	1188167	1471963650738	1471963650884	i	73
2422	24859	I want to remind you about our All-Employee Meeting this Tuesday, Oct.	I want to remind you about our All-Employee Meeting this Tuesday, Oct.	1188174	1471963650825	1471963650884	s	83
2422	24859	I want to remind you about our All-Employee Meeting this Tuesday, Oct.	I want to remind you about our All-Employee Meeting this Tuesday, Oct.	1188183	1471963650884	1471963650964	 	32
2422	24859	I want to remind you about our All-Employee Meeting this Tuesday, Oct.	I want to remind you about our All-Employee Meeting this Tuesday, Oct.	1188191	1471963650993	1471963651209	SHIFT	16
2422	24859	I want to remind you about our All-Employee Meeting this Tuesday, Oct.	I want to remind you about our All-Employee Meeting this Tuesday, Oct.	1188198	1471963651127	1471963651239	T	84
2422	24859	I want to remind you about our All-Employee Meeting this Tuesday, Oct.	I want to remind you about our All-Employee Meeting this Tuesday, Oct.	1188204	1471963651239	1471963651311	u	85
2422	24859	I want to remind you about our All-Employee Meeting this Tuesday, Oct.	I want to remind you about our All-Employee Meeting this Tuesday, Oct.	1188208	1471963651351	1471963651426	e	69
2422	24859	I want to remind you about our All-Employee Meeting this Tuesday, Oct.	I want to remind you about our All-Employee Meeting this Tuesday, Oct.	1188272	1471963651477	1471963651592	s	83
2422	24859	I want to remind you about our All-Employee Meeting this Tuesday, Oct.	I want to remind you about our All-Employee Meeting this Tuesday, Oct.	1188274	1471963651554	1471963651672	d	68
2422	24859	I want to remind you about our All-Employee Meeting this Tuesday, Oct.	I want to remind you about our All-Employee Meeting this Tuesday, Oct.	1188277	1471963651631	1471963651784	a	65
2422	24859	I want to remind you about our All-Employee Meeting this Tuesday, Oct.	I want to remind you about our All-Employee Meeting this Tuesday, Oct.	1188281	1471963651731	1471963651800	y	89
2422	24859	I want to remind you about our All-Employee Meeting this Tuesday, Oct.	I want to remind you about our All-Employee Meeting this Tuesday, Oct.	1188284	1471963651941	1471963652021	,	188
2422	24859	I want to remind you about our All-Employee Meeting this Tuesday, Oct.	I want to remind you about our All-Employee Meeting this Tuesday, Oct.	1188263	1471963652021	1471963652104	 	32
2422	24859	I want to remind you about our All-Employee Meeting this Tuesday, Oct.	I want to remind you about our All-Employee Meeting this Tuesday, Oct.	1188268	1471963652200	1471963652374	SHIFT	16
2422	24859	I want to remind you about our All-Employee Meeting this Tuesday, Oct.	I want to remind you about our All-Employee Meeting this Tuesday, Oct.	1188266	1471963652288	1471963652354	O	79
2422	24859	I want to remind you about our All-Employee Meeting this Tuesday, Oct.	I want to remind you about our All-Employee Meeting this Tuesday, Oct.	1188271	1471963652484	1471963652544	c	67
2422	24859	I want to remind you about our All-Employee Meeting this Tuesday, Oct.	I want to remind you about our All-Employee Meeting this Tuesday, Oct.	1188275	1471963652646	1471963652724	t	84
2422	24859	I want to remind you about our All-Employee Meeting this Tuesday, Oct.	I want to remind you about our All-Employee Meeting this Tuesday, Oct.	1188278	1471963652744	1471963652824	.	190
2422	24879	See, we Americans had gotten sort of distracted.	See, we Americans had gotten sort of distracted.	1188731	1471963659407	1471963659800	SHIFT	16
2422	24879	See, we Americans had gotten sort of distracted.	See, we Americans had gotten sort of distracted.	1188737	1471963659727	1471963659841	S	83
2422	24879	See, we Americans had gotten sort of distracted.	See, we Americans had gotten sort of distracted.	1188742	1471963659941	1471963660001	e	69
2422	24879	See, we Americans had gotten sort of distracted.	See, we Americans had gotten sort of distracted.	1188749	1471963660105	1471963660161	e	69
2422	24879	See, we Americans had gotten sort of distracted.	See, we Americans had gotten sort of distracted.	1188755	1471963660467	1471963660547	,	188
2422	24879	See, we Americans had gotten sort of distracted.	See, we Americans had gotten sort of distracted.	1188761	1471963660547	1471963660611	 	32
2422	24879	See, we Americans had gotten sort of distracted.	See, we Americans had gotten sort of distracted.	1188811	1471963660692	1471963660808	w	87
2422	24879	See, we Americans had gotten sort of distracted.	See, we Americans had gotten sort of distracted.	1188814	1471963660771	1471963660872	e	69
2422	24879	See, we Americans had gotten sort of distracted.	See, we Americans had gotten sort of distracted.	1188823	1471963660837	1471963660904	 	32
2422	24879	See, we Americans had gotten sort of distracted.	See, we Americans had gotten sort of distracted.	1188829	1471963661247	1471963661461	SHIFT	16
2422	24879	See, we Americans had gotten sort of distracted.	See, we Americans had gotten sort of distracted.	1188834	1471963661400	1471963661511	A	65
2422	24879	See, we Americans had gotten sort of distracted.	See, we Americans had gotten sort of distracted.	1188838	1471963661601	1471963661681	m	77
2422	24879	See, we Americans had gotten sort of distracted.	See, we Americans had gotten sort of distracted.	1188854	1471963661702	1471963661800	e	69
2422	24879	See, we Americans had gotten sort of distracted.	See, we Americans had gotten sort of distracted.	1188857	1471963661761	1471963661857	r	82
2422	24879	See, we Americans had gotten sort of distracted.	See, we Americans had gotten sort of distracted.	1188861	1471963661857	1471963661927	i	73
2422	24879	See, we Americans had gotten sort of distracted.	See, we Americans had gotten sort of distracted.	1188864	1471963661967	1471963662072	c	67
2422	24879	See, we Americans had gotten sort of distracted.	See, we Americans had gotten sort of distracted.	1188868	1471963662037	1471963662184	a	65
2422	24879	See, we Americans had gotten sort of distracted.	See, we Americans had gotten sort of distracted.	1188867	1471963662088	1471963662144	n	78
2422	24879	See, we Americans had gotten sort of distracted.	See, we Americans had gotten sort of distracted.	1188869	1471963662214	1471963662271	s	83
2422	24879	See, we Americans had gotten sort of distracted.	See, we Americans had gotten sort of distracted.	1188871	1471963662312	1471963662371	 	32
2422	24879	See, we Americans had gotten sort of distracted.	See, we Americans had gotten sort of distracted.	1188874	1471963662451	1471963662552	h	72
2422	24879	See, we Americans had gotten sort of distracted.	See, we Americans had gotten sort of distracted.	1188931	1471963662504	1471963662694	a	65
2422	24879	See, we Americans had gotten sort of distracted.	See, we Americans had gotten sort of distracted.	1188934	1471963662624	1471963662744	d	68
2422	24879	See, we Americans had gotten sort of distracted.	See, we Americans had gotten sort of distracted.	1188939	1471963662744	1471963662804	 	32
2422	24879	See, we Americans had gotten sort of distracted.	See, we Americans had gotten sort of distracted.	1188942	1471963663076	1471963663167	g	71
2422	24879	See, we Americans had gotten sort of distracted.	See, we Americans had gotten sort of distracted.	1188944	1471963663167	1471963663254	o	79
2422	24879	See, we Americans had gotten sort of distracted.	See, we Americans had gotten sort of distracted.	1188949	1471963663264	1471963663317	t	84
2422	24879	See, we Americans had gotten sort of distracted.	See, we Americans had gotten sort of distracted.	1189009	1471963663394	1471963663461	t	84
2422	24879	See, we Americans had gotten sort of distracted.	See, we Americans had gotten sort of distracted.	1189012	1471963663508	1471963663560	e	69
2422	24879	See, we Americans had gotten sort of distracted.	See, we Americans had gotten sort of distracted.	1189017	1471963663567	1471963663647	n	78
2422	24879	See, we Americans had gotten sort of distracted.	See, we Americans had gotten sort of distracted.	1189020	1471963664038	1471963664104	 	32
2422	24879	See, we Americans had gotten sort of distracted.	See, we Americans had gotten sort of distracted.	1189023	1471963664130	1471963664184	s	83
2422	24879	See, we Americans had gotten sort of distracted.	See, we Americans had gotten sort of distracted.	1189046	1471963664215	1471963664277	o	79
2422	24879	See, we Americans had gotten sort of distracted.	See, we Americans had gotten sort of distracted.	1189054	1471963664327	1471963664387	r	82
2422	24879	See, we Americans had gotten sort of distracted.	See, we Americans had gotten sort of distracted.	1189063	1471963664467	1471963664527	t	84
2422	24879	See, we Americans had gotten sort of distracted.	See, we Americans had gotten sort of distracted.	1189071	1471963664527	1471963664594	 	32
2422	24879	See, we Americans had gotten sort of distracted.	See, we Americans had gotten sort of distracted.	1189078	1471963664614	1471963664744	o	79
2422	24879	See, we Americans had gotten sort of distracted.	See, we Americans had gotten sort of distracted.	1189130	1471963664710	1471963664792	f	70
2422	24879	See, we Americans had gotten sort of distracted.	See, we Americans had gotten sort of distracted.	1189133	1471963664760	1471963664840	 	32
2422	24879	See, we Americans had gotten sort of distracted.	See, we Americans had gotten sort of distracted.	1189138	1471963664980	1471963665044	d	68
2422	24879	See, we Americans had gotten sort of distracted.	See, we Americans had gotten sort of distracted.	1189143	1471963665064	1471963665120	i	73
2422	24879	See, we Americans had gotten sort of distracted.	See, we Americans had gotten sort of distracted.	1189147	1471963665457	1471963665527	s	83
2422	24879	See, we Americans had gotten sort of distracted.	See, we Americans had gotten sort of distracted.	1189152	1471963665717	1471963665777	t	84
2422	24879	See, we Americans had gotten sort of distracted.	See, we Americans had gotten sort of distracted.	1189209	1471963665848	1471963665920	r	82
2422	24879	See, we Americans had gotten sort of distracted.	See, we Americans had gotten sort of distracted.	1189210	1471963665920	1471963666120	a	65
2422	24879	See, we Americans had gotten sort of distracted.	See, we Americans had gotten sort of distracted.	1189212	1471963666104	1471963666136	t	84
2422	24879	See, we Americans had gotten sort of distracted.	See, we Americans had gotten sort of distracted.	1189214	1471963666440	1471963666472	BKSP	8
2422	24879	See, we Americans had gotten sort of distracted.	See, we Americans had gotten sort of distracted.	1189218	1471963666500	1471963666560	c	67
2422	24879	See, we Americans had gotten sort of distracted.	See, we Americans had gotten sort of distracted.	1189223	1471963666800	1471963666900	t	84
2422	24879	See, we Americans had gotten sort of distracted.	See, we Americans had gotten sort of distracted.	1189307	1471963666880	1471963666984	e	69
2422	24879	See, we Americans had gotten sort of distracted.	See, we Americans had gotten sort of distracted.	1189312	1471963667014	1471963667112	d	68
2422	24879	See, we Americans had gotten sort of distracted.	See, we Americans had gotten sort of distracted.	1189316	1471963667714	1471963667811	.	190
2422	24897	Team Chick hasn't been in the SuperBowl every year for no reason.	Team Chick hasn't been in the SuperBowl every year for no reason.	1189635	1471963673543	1471963674150	SHIFT	16
2422	24897	Team Chick hasn't been in the SuperBowl every year for no reason.	Team Chick hasn't been in the SuperBowl every year for no reason.	1189638	1471963674088	1471963674210	T	84
2422	24897	Team Chick hasn't been in the SuperBowl every year for no reason.	Team Chick hasn't been in the SuperBowl every year for no reason.	1189642	1471963674240	1471963674370	e	69
2422	24897	Team Chick hasn't been in the SuperBowl every year for no reason.	Team Chick hasn't been in the SuperBowl every year for no reason.	1189648	1471963674360	1471963674480	m	65
2422	24897	Team Chick hasn't been in the SuperBowl every year for no reason.	Team Chick hasn't been in the SuperBowl every year for no reason.	1189651	1471963675080	1471963675173	 	32
2422	24897	Team Chick hasn't been in the SuperBowl every year for no reason.	Team Chick hasn't been in the SuperBowl every year for no reason.	1189674	1471963675173	1471963675367	SHIFT	16
2422	24897	Team Chick hasn't been in the SuperBowl every year for no reason.	Team Chick hasn't been in the SuperBowl every year for no reason.	1189680	1471963675317	1471963675416	C	67
2422	24897	Team Chick hasn't been in the SuperBowl every year for no reason.	Team Chick hasn't been in the SuperBowl every year for no reason.	1189688	1471963675377	1471963675512	h	72
2422	24897	Team Chick hasn't been in the SuperBowl every year for no reason.	Team Chick hasn't been in the SuperBowl every year for no reason.	1189695	1471963675473	1471963675553	i	73
2422	24897	Team Chick hasn't been in the SuperBowl every year for no reason.	Team Chick hasn't been in the SuperBowl every year for no reason.	1189702	1471963675573	1471963675663	c	67
2422	24897	Team Chick hasn't been in the SuperBowl every year for no reason.	Team Chick hasn't been in the SuperBowl every year for no reason.	1189708	1471963675673	1471963675763	k	75
2422	24897	Team Chick hasn't been in the SuperBowl every year for no reason.	Team Chick hasn't been in the SuperBowl every year for no reason.	1189726	1471963675743	1471963675810	 	32
2422	24897	Team Chick hasn't been in the SuperBowl every year for no reason.	Team Chick hasn't been in the SuperBowl every year for no reason.	1189729	1471963675890	1471963675990	h	72
2422	24897	Team Chick hasn't been in the SuperBowl every year for no reason.	Team Chick hasn't been in the SuperBowl every year for no reason.	1189731	1471963675990	1471963676104	a	65
2422	24897	Team Chick hasn't been in the SuperBowl every year for no reason.	Team Chick hasn't been in the SuperBowl every year for no reason.	1189734	1471963676050	1471963676152	s	83
2422	24897	Team Chick hasn't been in the SuperBowl every year for no reason.	Team Chick hasn't been in the SuperBowl every year for no reason.	1189738	1471963676152	1471963676248	n	78
2422	24897	Team Chick hasn't been in the SuperBowl every year for no reason.	Team Chick hasn't been in the SuperBowl every year for no reason.	1189754	1471963676214	1471963676312	'	222
2422	24897	Team Chick hasn't been in the SuperBowl every year for no reason.	Team Chick hasn't been in the SuperBowl every year for no reason.	1189757	1471963676280	1471963676337	t	84
2422	24897	Team Chick hasn't been in the SuperBowl every year for no reason.	Team Chick hasn't been in the SuperBowl every year for no reason.	1189762	1471963676337	1471963676423	 	32
2422	24897	Team Chick hasn't been in the SuperBowl every year for no reason.	Team Chick hasn't been in the SuperBowl every year for no reason.	1189766	1471963676473	1471963676567	b	66
2422	24897	Team Chick hasn't been in the SuperBowl every year for no reason.	Team Chick hasn't been in the SuperBowl every year for no reason.	1189769	1471963676567	1471963676616	e	69
2422	24897	Team Chick hasn't been in the SuperBowl every year for no reason.	Team Chick hasn't been in the SuperBowl every year for no reason.	1189773	1471963676690	1471963676760	e	69
2422	24897	Team Chick hasn't been in the SuperBowl every year for no reason.	Team Chick hasn't been in the SuperBowl every year for no reason.	1189772	1471963676791	1471963676869	n	78
2422	24897	Team Chick hasn't been in the SuperBowl every year for no reason.	Team Chick hasn't been in the SuperBowl every year for no reason.	1189776	1471963676849	1471963676930	 	32
2422	24897	Team Chick hasn't been in the SuperBowl every year for no reason.	Team Chick hasn't been in the SuperBowl every year for no reason.	1189779	1471963676930	1471963677060	i	73
2422	24897	Team Chick hasn't been in the SuperBowl every year for no reason.	Team Chick hasn't been in the SuperBowl every year for no reason.	1189782	1471963676993	1471963677080	n	78
2422	24897	Team Chick hasn't been in the SuperBowl every year for no reason.	Team Chick hasn't been in the SuperBowl every year for no reason.	1189810	1471963677060	1471963677122	 	32
2422	24897	Team Chick hasn't been in the SuperBowl every year for no reason.	Team Chick hasn't been in the SuperBowl every year for no reason.	1189814	1471963677142	1471963677311	t	84
2422	24897	Team Chick hasn't been in the SuperBowl every year for no reason.	Team Chick hasn't been in the SuperBowl every year for no reason.	1189819	1471963677203	1471963677380	h	72
2422	24897	Team Chick hasn't been in the SuperBowl every year for no reason.	Team Chick hasn't been in the SuperBowl every year for no reason.	1189825	1471963677301	1471963677432	e	69
2422	24897	Team Chick hasn't been in the SuperBowl every year for no reason.	Team Chick hasn't been in the SuperBowl every year for no reason.	1189828	1471963677400	1471963677480	 	32
2422	24897	Team Chick hasn't been in the SuperBowl every year for no reason.	Team Chick hasn't been in the SuperBowl every year for no reason.	1189832	1471963677700	1471963677877	SHIFT	16
2422	24897	Team Chick hasn't been in the SuperBowl every year for no reason.	Team Chick hasn't been in the SuperBowl every year for no reason.	1189852	1471963677830	1471963677938	S	83
2422	24897	Team Chick hasn't been in the SuperBowl every year for no reason.	Team Chick hasn't been in the SuperBowl every year for no reason.	1189857	1471963677938	1471963678040	u	85
2422	24897	Team Chick hasn't been in the SuperBowl every year for no reason.	Team Chick hasn't been in the SuperBowl every year for no reason.	1189864	1471963678020	1471963678115	p	80
2422	24897	Team Chick hasn't been in the SuperBowl every year for no reason.	Team Chick hasn't been in the SuperBowl every year for no reason.	1189869	1471963678104	1471963678216	e	69
2422	24897	Team Chick hasn't been in the SuperBowl every year for no reason.	Team Chick hasn't been in the SuperBowl every year for no reason.	1189873	1471963678184	1471963678263	r	82
2422	24897	Team Chick hasn't been in the SuperBowl every year for no reason.	Team Chick hasn't been in the SuperBowl every year for no reason.	1189876	1471963678373	1471963678453	b	66
2422	24897	Team Chick hasn't been in the SuperBowl every year for no reason.	Team Chick hasn't been in the SuperBowl every year for no reason.	1189919	1471963678453	1471963678504	o	79
2422	24897	Team Chick hasn't been in the SuperBowl every year for no reason.	Team Chick hasn't been in the SuperBowl every year for no reason.	1189924	1471963678530	1471963678613	a	65
2422	24897	Team Chick hasn't been in the SuperBowl every year for no reason.	Team Chick hasn't been in the SuperBowl every year for no reason.	1189929	1471963678856	1471963678904	BKSP	8
2422	24897	Team Chick hasn't been in the SuperBowl every year for no reason.	Team Chick hasn't been in the SuperBowl every year for no reason.	1189935	1471963678977	1471963679032	BKSP	8
2422	24897	Team Chick hasn't been in the SuperBowl every year for no reason.	Team Chick hasn't been in the SuperBowl every year for no reason.	1189945	1471963679096	1471963679160	BKSP	8
2422	24897	Team Chick hasn't been in the SuperBowl every year for no reason.	Team Chick hasn't been in the SuperBowl every year for no reason.	1189951	1471963679160	1471963679350	SHIFT	16
2422	24897	Team Chick hasn't been in the SuperBowl every year for no reason.	Team Chick hasn't been in the SuperBowl every year for no reason.	1189961	1471963679270	1471963679380	B	66
2422	24897	Team Chick hasn't been in the SuperBowl every year for no reason.	Team Chick hasn't been in the SuperBowl every year for no reason.	1189968	1471963679410	1471963679477	o	79
2422	24897	Team Chick hasn't been in the SuperBowl every year for no reason.	Team Chick hasn't been in the SuperBowl every year for no reason.	1189973	1471963679507	1471963679587	a	65
2422	24897	Team Chick hasn't been in the SuperBowl every year for no reason.	Team Chick hasn't been in the SuperBowl every year for no reason.	1190005	1471963679608	1471963679656	l	76
2422	24897	Team Chick hasn't been in the SuperBowl every year for no reason.	Team Chick hasn't been in the SuperBowl every year for no reason.	1190010	1471963679956	1471963680017	 	32
2422	24897	Team Chick hasn't been in the SuperBowl every year for no reason.	Team Chick hasn't been in the SuperBowl every year for no reason.	1190015	1471963680088	1471963680163	e	69
2422	24897	Team Chick hasn't been in the SuperBowl every year for no reason.	Team Chick hasn't been in the SuperBowl every year for no reason.	1190018	1471963680163	1471963680247	v	86
2422	24897	Team Chick hasn't been in the SuperBowl every year for no reason.	Team Chick hasn't been in the SuperBowl every year for no reason.	1190022	1471963680277	1471963680408	e	69
2422	24897	Team Chick hasn't been in the SuperBowl every year for no reason.	Team Chick hasn't been in the SuperBowl every year for no reason.	1190031	1471963680357	1471963680467	r	82
2422	24897	Team Chick hasn't been in the SuperBowl every year for no reason.	Team Chick hasn't been in the SuperBowl every year for no reason.	1190035	1471963680410	1471963680467	y	89
2422	24897	Team Chick hasn't been in the SuperBowl every year for no reason.	Team Chick hasn't been in the SuperBowl every year for no reason.	1190039	1471963680467	1471963680520	 	32
2422	24897	Team Chick hasn't been in the SuperBowl every year for no reason.	Team Chick hasn't been in the SuperBowl every year for no reason.	1190044	1471963680563	1471963680662	y	89
2422	24897	Team Chick hasn't been in the SuperBowl every year for no reason.	Team Chick hasn't been in the SuperBowl every year for no reason.	1190047	1471963680662	1471963680808	e	69
2422	24897	Team Chick hasn't been in the SuperBowl every year for no reason.	Team Chick hasn't been in the SuperBowl every year for no reason.	1190063	1471963680720	1471963680837	a	65
2422	24897	Team Chick hasn't been in the SuperBowl every year for no reason.	Team Chick hasn't been in the SuperBowl every year for no reason.	1190067	1471963680776	1471963680867	r	82
2422	24897	Team Chick hasn't been in the SuperBowl every year for no reason.	Team Chick hasn't been in the SuperBowl every year for no reason.	1190072	1471963680867	1471963680937	 	32
2422	24897	Team Chick hasn't been in the SuperBowl every year for no reason.	Team Chick hasn't been in the SuperBowl every year for no reason.	1190078	1471963680964	1471963681047	f	70
2422	24897	Team Chick hasn't been in the SuperBowl every year for no reason.	Team Chick hasn't been in the SuperBowl every year for no reason.	1190083	1471963681047	1471963681112	o	79
2422	24897	Team Chick hasn't been in the SuperBowl every year for no reason.	Team Chick hasn't been in the SuperBowl every year for no reason.	1190089	1471963681113	1471963681176	r	82
2422	24897	Team Chick hasn't been in the SuperBowl every year for no reason.	Team Chick hasn't been in the SuperBowl every year for no reason.	1190092	1471963681177	1471963681256	 	32
2422	24897	Team Chick hasn't been in the SuperBowl every year for no reason.	Team Chick hasn't been in the SuperBowl every year for no reason.	1190271	1471963681752	1471963682712	BKSP	8
2422	24897	Team Chick hasn't been in the SuperBowl every year for no reason.	Team Chick hasn't been in the SuperBowl every year for no reason.	1190272	1471963682823	1471963682888	BKSP	8
2422	24897	Team Chick hasn't been in the SuperBowl every year for no reason.	Team Chick hasn't been in the SuperBowl every year for no reason.	1190276	1471963682984	1471963683032	BKSP	8
2422	24897	Team Chick hasn't been in the SuperBowl every year for no reason.	Team Chick hasn't been in the SuperBowl every year for no reason.	1190279	1471963683112	1471963683192	BKSP	8
2422	24897	Team Chick hasn't been in the SuperBowl every year for no reason.	Team Chick hasn't been in the SuperBowl every year for no reason.	1190283	1471963683414	1471963683496	w	87
2422	24897	Team Chick hasn't been in the SuperBowl every year for no reason.	Team Chick hasn't been in the SuperBowl every year for no reason.	1190287	1471963683506	1471963683606	l	76
2422	24897	Team Chick hasn't been in the SuperBowl every year for no reason.	Team Chick hasn't been in the SuperBowl every year for no reason.	1190291	1471963683616	1471963683720	 	32
2422	24897	Team Chick hasn't been in the SuperBowl every year for no reason.	Team Chick hasn't been in the SuperBowl every year for no reason.	1190296	1471963684216	1471963684296	e	69
2422	24897	Team Chick hasn't been in the SuperBowl every year for no reason.	Team Chick hasn't been in the SuperBowl every year for no reason.	1190303	1471963684326	1471963684406	v	86
2422	24897	Team Chick hasn't been in the SuperBowl every year for no reason.	Team Chick hasn't been in the SuperBowl every year for no reason.	1190318	1471963684467	1471963684616	e	69
2422	24897	Team Chick hasn't been in the SuperBowl every year for no reason.	Team Chick hasn't been in the SuperBowl every year for no reason.	1190320	1471963684566	1471963684676	r	82
2422	24897	Team Chick hasn't been in the SuperBowl every year for no reason.	Team Chick hasn't been in the SuperBowl every year for no reason.	1190325	1471963684616	1471963684776	y	89
2422	24897	Team Chick hasn't been in the SuperBowl every year for no reason.	Team Chick hasn't been in the SuperBowl every year for no reason.	1190330	1471963684696	1471963684806	 	32
2422	24897	Team Chick hasn't been in the SuperBowl every year for no reason.	Team Chick hasn't been in the SuperBowl every year for no reason.	1190333	1471963684936	1471963685023	y	89
2422	24897	Team Chick hasn't been in the SuperBowl every year for no reason.	Team Chick hasn't been in the SuperBowl every year for no reason.	1190334	1471963685033	1471963685208	e	69
2422	24897	Team Chick hasn't been in the SuperBowl every year for no reason.	Team Chick hasn't been in the SuperBowl every year for no reason.	1190336	1471963685105	1471963685240	a	65
2422	24897	Team Chick hasn't been in the SuperBowl every year for no reason.	Team Chick hasn't been in the SuperBowl every year for no reason.	1190339	1471963685161	1471963685241	r	82
2422	24897	Team Chick hasn't been in the SuperBowl every year for no reason.	Team Chick hasn't been in the SuperBowl every year for no reason.	1190343	1471963685241	1471963685336	 	32
2422	24897	Team Chick hasn't been in the SuperBowl every year for no reason.	Team Chick hasn't been in the SuperBowl every year for no reason.	1190348	1471963685336	1471963685393	f	70
2422	24897	Team Chick hasn't been in the SuperBowl every year for no reason.	Team Chick hasn't been in the SuperBowl every year for no reason.	1190365	1471963685424	1471963685573	o	79
2422	24897	Team Chick hasn't been in the SuperBowl every year for no reason.	Team Chick hasn't been in the SuperBowl every year for no reason.	1190372	1471963685480	1471963685573	r	82
2422	24897	Team Chick hasn't been in the SuperBowl every year for no reason.	Team Chick hasn't been in the SuperBowl every year for no reason.	1190378	1471963685573	1471963685633	 	32
2422	24897	Team Chick hasn't been in the SuperBowl every year for no reason.	Team Chick hasn't been in the SuperBowl every year for no reason.	1190385	1471963685683	1471963685784	n	78
2422	24897	Team Chick hasn't been in the SuperBowl every year for no reason.	Team Chick hasn't been in the SuperBowl every year for no reason.	1190406	1471963685743	1471963685840	o	79
2422	24897	Team Chick hasn't been in the SuperBowl every year for no reason.	Team Chick hasn't been in the SuperBowl every year for no reason.	1190411	1471963685840	1471963685920	 	32
2422	24897	Team Chick hasn't been in the SuperBowl every year for no reason.	Team Chick hasn't been in the SuperBowl every year for no reason.	1190414	1471963685970	1471963686088	r	82
2422	24897	Team Chick hasn't been in the SuperBowl every year for no reason.	Team Chick hasn't been in the SuperBowl every year for no reason.	1190420	1471963686033	1471963686120	e	69
2422	24897	Team Chick hasn't been in the SuperBowl every year for no reason.	Team Chick hasn't been in the SuperBowl every year for no reason.	1190426	1471963686088	1471963686210	a	65
2422	24897	Team Chick hasn't been in the SuperBowl every year for no reason.	Team Chick hasn't been in the SuperBowl every year for no reason.	1190509	1471963686143	1471963686264	s	83
2422	24897	Team Chick hasn't been in the SuperBowl every year for no reason.	Team Chick hasn't been in the SuperBowl every year for no reason.	1190512	1471963686210	1471963686306	o	79
2422	24897	Team Chick hasn't been in the SuperBowl every year for no reason.	Team Chick hasn't been in the SuperBowl every year for no reason.	1190515	1471963686296	1471963686383	n	78
2422	24897	Team Chick hasn't been in the SuperBowl every year for no reason.	Team Chick hasn't been in the SuperBowl every year for no reason.	1190516	1471963686484	1471963686552	.	190
2422	24922	Don't they have some conflicts here?	Don't they have some conflicts here?	1190847	1471963691341	1471963692278	SHIFT	16
2422	24922	Don't they have some conflicts here?	Don't they have some conflicts here?	1190852	1471963692224	1471963692343	D	68
2422	24922	Don't they have some conflicts here?	Don't they have some conflicts here?	1190859	1471963692321	1471963692438	o	79
2422	24922	Don't they have some conflicts here?	Don't they have some conflicts here?	1190866	1471963692401	1471963692534	n	78
2422	24922	Don't they have some conflicts here?	Don't they have some conflicts here?	1190869	1471963692467	1471963692597	'	222
2422	24922	Don't they have some conflicts here?	Don't they have some conflicts here?	1190877	1471963692544	1471963692630	t	84
2422	24922	Don't they have some conflicts here?	Don't they have some conflicts here?	1190879	1471963692597	1471963692677	 	32
2422	24922	Don't they have some conflicts here?	Don't they have some conflicts here?	1190884	1471963692737	1471963692877	h	84
2422	24922	Don't they have some conflicts here?	Don't they have some conflicts here?	1190889	1471963692867	1471963692982	e	69
2422	24922	Don't they have some conflicts here?	Don't they have some conflicts here?	1190915	1471963692934	1471963693025	y	89
2422	24922	Don't they have some conflicts here?	Don't they have some conflicts here?	1190920	1471963693025	1471963693078	 	32
2422	24922	Don't they have some conflicts here?	Don't they have some conflicts here?	1190927	1471963693123	1471963693264	h	72
2422	24922	Don't they have some conflicts here?	Don't they have some conflicts here?	1190934	1471963693204	1471963693391	a	65
2422	24922	Don't they have some conflicts here?	Don't they have some conflicts here?	1190971	1471963693264	1471963693391	v	86
2422	24922	Don't they have some conflicts here?	Don't they have some conflicts here?	1190976	1471963693334	1471963693441	e	69
2422	24922	Don't they have some conflicts here?	Don't they have some conflicts here?	1190980	1471963693421	1471963693521	 	32
2422	24922	Don't they have some conflicts here?	Don't they have some conflicts here?	1190983	1471963693711	1471963693774	s	83
2422	24922	Don't they have some conflicts here?	Don't they have some conflicts here?	1190986	1471963693774	1471963693941	o	79
2422	24922	Don't they have some conflicts here?	Don't they have some conflicts here?	1191011	1471963693830	1471963693982	m	77
2422	24922	Don't they have some conflicts here?	Don't they have some conflicts here?	1191008	1471963693891	1471963693972	e	69
2422	24922	Don't they have some conflicts here?	Don't they have some conflicts here?	1191013	1471963693982	1471963694086	 	32
2422	24922	Don't they have some conflicts here?	Don't they have some conflicts here?	1191015	1471963694183	1471963694278	c	67
2422	24922	Don't they have some conflicts here?	Don't they have some conflicts here?	1191017	1471963694241	1471963694374	o	79
2422	24922	Don't they have some conflicts here?	Don't they have some conflicts here?	1191020	1471963694317	1471963694414	n	78
2422	24922	Don't they have some conflicts here?	Don't they have some conflicts here?	1191024	1471963694454	1471963694534	f	70
2422	24922	Don't they have some conflicts here?	Don't they have some conflicts here?	1191095	1471963694565	1471963694694	i	73
2422	24922	Don't they have some conflicts here?	Don't they have some conflicts here?	1191098	1471963694865	1471963694934	BKSP	8
2422	24922	Don't they have some conflicts here?	Don't they have some conflicts here?	1191105	1471963695094	1471963695167	l	76
2422	24922	Don't they have some conflicts here?	Don't they have some conflicts here?	1191108	1471963695157	1471963695247	i	73
2422	24922	Don't they have some conflicts here?	Don't they have some conflicts here?	1191113	1471963695397	1471963695457	c	67
2422	24922	Don't they have some conflicts here?	Don't they have some conflicts here?	1191119	1471963695567	1471963695702	t	84
2422	24922	Don't they have some conflicts here?	Don't they have some conflicts here?	1191129	1471963695664	1471963695744	s	83
2422	24922	Don't they have some conflicts here?	Don't they have some conflicts here?	1191132	1471963695774	1471963695841	 	32
2422	24922	Don't they have some conflicts here?	Don't they have some conflicts here?	1191136	1471963695871	1471963695951	h	72
2422	24922	Don't they have some conflicts here?	Don't they have some conflicts here?	1191138	1471963695951	1471963696017	e	69
2422	24922	Don't they have some conflicts here?	Don't they have some conflicts here?	1191142	1471963696017	1471963696150	r	82
2422	24922	Don't they have some conflicts here?	Don't they have some conflicts here?	1191150	1471963696102	1471963696167	e	69
2422	24922	Don't they have some conflicts here?	Don't they have some conflicts here?	1191152	1471963696214	1471963696374	SHIFT	16
2422	24922	Don't they have some conflicts here?	Don't they have some conflicts here?	1191156	1471963696304	1471963696374	?	191
2422	24932	I am fine with this.	I am fine with this.	1191384	1471963699826	1471963700112	SHIFT	16
2422	24932	I am fine with this.	I am fine with this.	1191387	1471963700019	1471963700112	I	73
2422	24932	I am fine with this.	I am fine with this.	1191391	1471963700112	1471963700174	 	32
2422	24932	I am fine with this.	I am fine with this.	1191396	1471963700244	1471963700320	a	65
2422	24932	I am fine with this.	I am fine with this.	1191402	1471963700320	1471963700400	m	77
2422	24932	I am fine with this.	I am fine with this.	1191409	1471963700420	1471963700500	 	32
2422	24932	I am fine with this.	I am fine with this.	1191433	1471963700581	1471963700662	f	70
2422	24932	I am fine with this.	I am fine with this.	1191441	1471963700640	1471963700767	i	73
2422	24932	I am fine with this.	I am fine with this.	1191447	1471963700694	1471963700822	n	78
2422	24932	I am fine with this.	I am fine with this.	1191454	1471963700767	1471963700834	e	69
2422	24932	I am fine with this.	I am fine with this.	1191460	1471963700864	1471963700934	 	32
2422	24932	I am fine with this.	I am fine with this.	1191470	1471963700934	1471963700990	w	87
2422	24932	I am fine with this.	I am fine with this.	1191477	1471963700990	1471963701077	i	73
2422	24932	I am fine with this.	I am fine with this.	1191482	1471963701077	1471963701142	t	84
2422	24932	I am fine with this.	I am fine with this.	1191487	1471963701110	1471963701214	h	72
2422	24932	I am fine with this.	I am fine with this.	1191492	1471963701214	1471963701270	 	32
2422	24932	I am fine with this.	I am fine with this.	1191514	1471963701254	1471963701327	t	84
2422	24932	I am fine with this.	I am fine with this.	1191517	1471963701327	1471963701414	h	72
2422	24932	I am fine with this.	I am fine with this.	1191524	1471963701380	1471963701460	i	73
2422	24932	I am fine with this.	I am fine with this.	1191531	1471963701494	1471963701557	s	83
2422	24932	I am fine with this.	I am fine with this.	1191537	1471963701597	1471963701667	.	190
2422	24941	I'm looking forward to the long weekend!	I'm looking forward to the long weekend!	1191762	1471963704414	1471963704894	SHIFT	16
2422	24941	I'm looking forward to the long weekend!	I'm looking forward to the long weekend!	1191759	1471963704814	1471963704884	I	73
2422	24941	I'm looking forward to the long weekend!	I'm looking forward to the long weekend!	1191764	1471963704950	1471963705046	'	222
2422	24941	I'm looking forward to the long weekend!	I'm looking forward to the long weekend!	1191765	1471963705014	1471963705126	m	77
2422	24941	I'm looking forward to the long weekend!	I'm looking forward to the long weekend!	1191766	1471963705094	1471963705157	 	32
2422	24941	I'm looking forward to the long weekend!	I'm looking forward to the long weekend!	1191767	1471963705214	1471963705284	l	76
2422	24941	I'm looking forward to the long weekend!	I'm looking forward to the long weekend!	1191798	1471963705375	1471963705430	o	79
2422	24941	I'm looking forward to the long weekend!	I'm looking forward to the long weekend!	1191805	1471963705510	1471963705606	o	79
2422	24941	I'm looking forward to the long weekend!	I'm looking forward to the long weekend!	1191811	1471963705567	1471963705654	k	75
2422	24941	I'm looking forward to the long weekend!	I'm looking forward to the long weekend!	1191815	1471963705714	1471963705878	i	73
2422	24941	I'm looking forward to the long weekend!	I'm looking forward to the long weekend!	1191866	1471963705764	1471963705920	n	78
2422	24941	I'm looking forward to the long weekend!	I'm looking forward to the long weekend!	1191870	1471963705844	1471963705942	g	71
2422	24941	I'm looking forward to the long weekend!	I'm looking forward to the long weekend!	1191875	1471963705920	1471963706000	 	32
2422	24941	I'm looking forward to the long weekend!	I'm looking forward to the long weekend!	1191879	1471963706030	1471963706119	f	70
2422	24941	I'm looking forward to the long weekend!	I'm looking forward to the long weekend!	1191883	1471963706119	1471963706167	o	79
2422	24941	I'm looking forward to the long weekend!	I'm looking forward to the long weekend!	1191885	1471963706321	1471963706421	r	82
2422	24941	I'm looking forward to the long weekend!	I'm looking forward to the long weekend!	1191888	1471963706561	1471963706695	w	87
2422	24941	I'm looking forward to the long weekend!	I'm looking forward to the long weekend!	1191907	1471963706663	1471963706814	a	65
2422	24941	I'm looking forward to the long weekend!	I'm looking forward to the long weekend!	1191912	1471963706754	1471963706834	r	82
2422	24941	I'm looking forward to the long weekend!	I'm looking forward to the long weekend!	1191917	1471963706915	1471963706998	d	68
2422	24941	I'm looking forward to the long weekend!	I'm looking forward to the long weekend!	1191924	1471963706998	1471963707058	 	32
2422	24941	I'm looking forward to the long weekend!	I'm looking forward to the long weekend!	1191930	1471963707219	1471963707303	t	84
2422	24941	I'm looking forward to the long weekend!	I'm looking forward to the long weekend!	1191938	1471963707271	1471963707343	o	79
2422	24941	I'm looking forward to the long weekend!	I'm looking forward to the long weekend!	1191945	1471963707363	1471963707447	 	32
2422	24941	I'm looking forward to the long weekend!	I'm looking forward to the long weekend!	1191952	1471963707414	1471963707559	t	84
2422	24941	I'm looking forward to the long weekend!	I'm looking forward to the long weekend!	1191959	1471963707504	1471963707607	h	72
2422	24941	I'm looking forward to the long weekend!	I'm looking forward to the long weekend!	1191967	1471963707559	1471963707634	e	69
2422	24941	I'm looking forward to the long weekend!	I'm looking forward to the long weekend!	1192009	1471963707614	1471963707713	 	32
2422	24941	I'm looking forward to the long weekend!	I'm looking forward to the long weekend!	1192013	1471963707813	1471963707874	l	76
2422	24941	I'm looking forward to the long weekend!	I'm looking forward to the long weekend!	1192020	1471963707975	1471963708119	o	79
2422	24941	I'm looking forward to the long weekend!	I'm looking forward to the long weekend!	1192025	1471963708063	1471963708199	n	78
2422	24941	I'm looking forward to the long weekend!	I'm looking forward to the long weekend!	1192030	1471963708163	1471963708224	g	71
2422	24941	I'm looking forward to the long weekend!	I'm looking forward to the long weekend!	1192034	1471963708244	1471963708320	 	32
2422	24941	I'm looking forward to the long weekend!	I'm looking forward to the long weekend!	1192045	1471963708451	1471963708566	w	87
2422	24941	I'm looking forward to the long weekend!	I'm looking forward to the long weekend!	1192048	1471963708517	1471963708573	e	69
2422	24941	I'm looking forward to the long weekend!	I'm looking forward to the long weekend!	1192050	1471963708663	1471963708724	e	69
2422	24941	I'm looking forward to the long weekend!	I'm looking forward to the long weekend!	1192052	1471963708734	1471963708820	k	75
2422	24941	I'm looking forward to the long weekend!	I'm looking forward to the long weekend!	1192055	1471963708820	1471963708871	e	69
2422	24941	I'm looking forward to the long weekend!	I'm looking forward to the long weekend!	1192106	1471963708894	1471963708964	n	78
2422	24941	I'm looking forward to the long weekend!	I'm looking forward to the long weekend!	1192109	1471963708964	1471963709044	d	68
2422	24941	I'm looking forward to the long weekend!	I'm looking forward to the long weekend!	1192118	1471963709199	1471963709551	SHIFT	16
2422	24941	I'm looking forward to the long weekend!	I'm looking forward to the long weekend!	1192114	1471963709429	1471963709521	!	49
2422	24957	But let me know which ones you don't get.	But let me know which ones you don't get.	1192429	1471963713830	1471963714193	SHIFT	16
2422	24957	But let me know which ones you don't get.	But let me know which ones you don't get.	1192430	1471963714113	1471963714213	B	66
2422	24957	But let me know which ones you don't get.	But let me know which ones you don't get.	1192431	1471963714223	1471963714311	u	85
2422	24957	But let me know which ones you don't get.	But let me know which ones you don't get.	1192432	1471963714311	1471963714391	t	84
2422	24957	But let me know which ones you don't get.	But let me know which ones you don't get.	1192434	1471963714357	1471963714437	 	32
2422	24957	But let me know which ones you don't get.	But let me know which ones you don't get.	1192438	1471963714467	1471963714543	l	76
2422	24957	But let me know which ones you don't get.	But let me know which ones you don't get.	1192450	1471963714543	1471963714630	e	69
2422	24957	But let me know which ones you don't get.	But let me know which ones you don't get.	1192453	1471963714599	1471963714724	t	84
2422	24957	But let me know which ones you don't get.	But let me know which ones you don't get.	1192456	1471963714656	1471963714734	 	32
2422	24957	But let me know which ones you don't get.	But let me know which ones you don't get.	1192459	1471963714754	1471963714864	m	77
2422	24957	But let me know which ones you don't get.	But let me know which ones you don't get.	1192462	1471963714854	1471963714934	e	69
2422	24957	But let me know which ones you don't get.	But let me know which ones you don't get.	1192464	1471963714903	1471963714979	 	32
2422	24957	But let me know which ones you don't get.	But let me know which ones you don't get.	1192466	1471963714989	1471963715142	k	75
2422	24957	But let me know which ones you don't get.	But let me know which ones you don't get.	1192468	1471963715047	1471963715167	n	78
2422	24957	But let me know which ones you don't get.	But let me know which ones you don't get.	1192471	1471963715095	1471963715214	o	79
2422	24957	But let me know which ones you don't get.	But let me know which ones you don't get.	1192474	1471963715214	1471963715254	 	87
2422	24957	But let me know which ones you don't get.	But let me know which ones you don't get.	1192496	1471963715585	1471963715638	w	87
2422	24957	But let me know which ones you don't get.	But let me know which ones you don't get.	1192501	1471963715666	1471963715743	h	72
2422	24957	But let me know which ones you don't get.	But let me know which ones you don't get.	1192509	1471963715743	1471963715894	i	73
2422	24957	But let me know which ones you don't get.	But let me know which ones you don't get.	1192548	1471963715796	1471963715896	c	67
2422	24957	But let me know which ones you don't get.	But let me know which ones you don't get.	1192557	1471963715846	1471963715942	h	72
2422	24957	But let me know which ones you don't get.	But let me know which ones you don't get.	1192562	1471963715906	1471963715983	 	32
2422	24957	But let me know which ones you don't get.	But let me know which ones you don't get.	1192566	1471963716003	1471963716134	o	79
2422	24957	But let me know which ones you don't get.	But let me know which ones you don't get.	1192570	1471963716086	1471963716182	n	78
2422	24957	But let me know which ones you don't get.	But let me know which ones you don't get.	1192573	1471963716135	1471963716246	e	69
2422	24957	But let me know which ones you don't get.	But let me know which ones you don't get.	1192586	1471963716210	1471963716305	s	83
2422	24957	But let me know which ones you don't get.	But let me know which ones you don't get.	1192590	1471963716305	1471963716358	 	32
2422	24957	But let me know which ones you don't get.	But let me know which ones you don't get.	1192594	1471963716403	1471963716463	y	89
2422	24957	But let me know which ones you don't get.	But let me know which ones you don't get.	1192597	1471963716483	1471963716613	o	79
2422	24957	But let me know which ones you don't get.	But let me know which ones you don't get.	1192598	1471963716560	1471963716673	u	85
2422	24957	But let me know which ones you don't get.	But let me know which ones you don't get.	1192619	1471963716613	1471963716704	 	32
2422	24957	But let me know which ones you don't get.	But let me know which ones you don't get.	1192626	1471963716804	1471963716886	d	68
2422	24957	But let me know which ones you don't get.	But let me know which ones you don't get.	1192634	1471963716896	1471963716998	o	79
2422	24957	But let me know which ones you don't get.	But let me know which ones you don't get.	1192640	1471963716966	1471963717110	n	78
2422	24957	But let me know which ones you don't get.	But let me know which ones you don't get.	1192647	1471963717043	1471963717142	'	222
2422	24957	But let me know which ones you don't get.	But let me know which ones you don't get.	1192668	1471963717111	1471963717173	t	84
2422	24957	But let me know which ones you don't get.	But let me know which ones you don't get.	1192671	1471963717173	1471963717253	 	32
2422	24957	But let me know which ones you don't get.	But let me know which ones you don't get.	1192674	1471963717426	1471963717478	g	71
2422	24957	But let me know which ones you don't get.	But let me know which ones you don't get.	1192678	1471963717479	1471963717606	e	69
2422	24957	But let me know which ones you don't get.	But let me know which ones you don't get.	1192688	1471963717570	1471963717630	t	84
2422	24957	But let me know which ones you don't get.	But let me know which ones you don't get.	1192698	1471963717630	1471963717700	.	190
2422	24968	Kay Mann is going to take the lead on this.	Kay Mann is going to take the lead on this.	1193041	1471963722436	1471963722703	SHIFT	16
2422	24968	Kay Mann is going to take the lead on this.	Kay Mann is going to take the lead on this.	1193038	1471963722606	1471963722693	K	75
2422	24968	Kay Mann is going to take the lead on this.	Kay Mann is going to take the lead on this.	1193043	1471963722783	1471963722850	a	65
2422	24968	Kay Mann is going to take the lead on this.	Kay Mann is going to take the lead on this.	1193046	1471963722880	1471963722960	y	89
2422	24968	Kay Mann is going to take the lead on this.	Kay Mann is going to take the lead on this.	1193049	1471963723318	1471963723409	 	32
2422	24968	Kay Mann is going to take the lead on this.	Kay Mann is going to take the lead on this.	1193053	1471963723459	1471963723619	SHIFT	16
2422	24968	Kay Mann is going to take the lead on this.	Kay Mann is going to take the lead on this.	1193085	1471963723539	1471963723629	M	77
2422	24968	Kay Mann is going to take the lead on this.	Kay Mann is going to take the lead on this.	1193088	1471963723700	1471963723782	a	65
2422	24968	Kay Mann is going to take the lead on this.	Kay Mann is going to take the lead on this.	1193090	1471963723750	1471963723806	n	78
2422	24968	Kay Mann is going to take the lead on this.	Kay Mann is going to take the lead on this.	1193094	1471963723876	1471963723958	n	78
2422	24968	Kay Mann is going to take the lead on this.	Kay Mann is going to take the lead on this.	1193097	1471963723959	1471963724033	 	32
2422	24968	Kay Mann is going to take the lead on this.	Kay Mann is going to take the lead on this.	1193101	1471963724070	1471963724166	i	73
2422	24968	Kay Mann is going to take the lead on this.	Kay Mann is going to take the lead on this.	1193110	1471963724133	1471963724189	s	83
2422	24968	Kay Mann is going to take the lead on this.	Kay Mann is going to take the lead on this.	1193111	1471963724189	1471963724276	 	32
2422	24968	Kay Mann is going to take the lead on this.	Kay Mann is going to take the lead on this.	1193112	1471963724286	1471963724356	g	71
2422	24968	Kay Mann is going to take the lead on this.	Kay Mann is going to take the lead on this.	1193113	1471963724356	1471963724533	o	79
2422	24968	Kay Mann is going to take the lead on this.	Kay Mann is going to take the lead on this.	1193142	1471963724436	1471963724589	i	73
2422	24968	Kay Mann is going to take the lead on this.	Kay Mann is going to take the lead on this.	1193150	1471963724470	1471963724629	n	78
2422	24968	Kay Mann is going to take the lead on this.	Kay Mann is going to take the lead on this.	1193157	1471963724533	1471963724629	g	71
2422	24968	Kay Mann is going to take the lead on this.	Kay Mann is going to take the lead on this.	1193162	1471963724629	1471963724689	 	32
2422	24968	Kay Mann is going to take the lead on this.	Kay Mann is going to take the lead on this.	1193166	1471963724719	1471963724822	t	84
2422	24968	Kay Mann is going to take the lead on this.	Kay Mann is going to take the lead on this.	1193169	1471963724774	1471963724863	o	79
2422	24968	Kay Mann is going to take the lead on this.	Kay Mann is going to take the lead on this.	1193173	1471963724853	1471963724933	 	32
2422	24968	Kay Mann is going to take the lead on this.	Kay Mann is going to take the lead on this.	1193178	1471963725040	1471963725159	t	84
2422	24968	Kay Mann is going to take the lead on this.	Kay Mann is going to take the lead on this.	1193182	1471963725110	1471963725293	a	65
2422	24968	Kay Mann is going to take the lead on this.	Kay Mann is going to take the lead on this.	1193186	1471963725216	1471963725293	k	75
2422	24968	Kay Mann is going to take the lead on this.	Kay Mann is going to take the lead on this.	1193192	1471963725303	1471963725373	e	69
2422	24968	Kay Mann is going to take the lead on this.	Kay Mann is going to take the lead on this.	1193195	1471963725373	1471963725439	 	32
2422	24968	Kay Mann is going to take the lead on this.	Kay Mann is going to take the lead on this.	1193206	1471963725439	1471963725556	t	84
2422	24968	Kay Mann is going to take the lead on this.	Kay Mann is going to take the lead on this.	1193213	1471963725494	1471963725590	h	72
2422	24968	Kay Mann is going to take the lead on this.	Kay Mann is going to take the lead on this.	1193217	1471963725556	1471963725638	e	69
2422	24968	Kay Mann is going to take the lead on this.	Kay Mann is going to take the lead on this.	1193226	1471963725616	1471963725683	 	32
2422	24968	Kay Mann is going to take the lead on this.	Kay Mann is going to take the lead on this.	1193231	1471963725733	1471963725796	l	76
2422	24968	Kay Mann is going to take the lead on this.	Kay Mann is going to take the lead on this.	1193277	1471963725939	1471963726049	e	69
2422	24968	Kay Mann is going to take the lead on this.	Kay Mann is going to take the lead on this.	1193279	1471963726029	1471963726209	a	65
2422	24968	Kay Mann is going to take the lead on this.	Kay Mann is going to take the lead on this.	1193281	1471963726128	1471963726278	d	68
2422	24968	Kay Mann is going to take the lead on this.	Kay Mann is going to take the lead on this.	1193283	1471963726239	1471963726306	 	32
2422	24968	Kay Mann is going to take the lead on this.	Kay Mann is going to take the lead on this.	1193286	1471963726386	1471963726486	o	79
2422	24968	Kay Mann is going to take the lead on this.	Kay Mann is going to take the lead on this.	1193300	1471963726446	1471963726526	n	78
2422	24968	Kay Mann is going to take the lead on this.	Kay Mann is going to take the lead on this.	1193302	1471963726516	1471963726573	 	32
2422	24968	Kay Mann is going to take the lead on this.	Kay Mann is going to take the lead on this.	1193307	1471963726593	1471963726694	t	84
2422	24968	Kay Mann is going to take the lead on this.	Kay Mann is going to take the lead on this.	1193314	1471963726656	1471963726753	h	72
2422	24968	Kay Mann is going to take the lead on this.	Kay Mann is going to take the lead on this.	1193318	1471963726733	1471963726799	i	73
2422	24968	Kay Mann is going to take the lead on this.	Kay Mann is going to take the lead on this.	1193322	1471963726799	1471963726886	s	83
2422	24968	Kay Mann is going to take the lead on this.	Kay Mann is going to take the lead on this.	1193335	1471963726947	1471963727006	.	190
2422	24983	Do you want to eat lunch somewhere before?	Do you want to eat lunch somewhere before?	1193625	1471963730253	1471963730550	SHIFT	16
2422	24983	Do you want to eat lunch somewhere before?	Do you want to eat lunch somewhere before?	1193630	1471963730493	1471963730614	D	68
2422	24983	Do you want to eat lunch somewhere before?	Do you want to eat lunch somewhere before?	1193638	1471963730563	1471963730643	o	79
2422	24983	Do you want to eat lunch somewhere before?	Do you want to eat lunch somewhere before?	1193645	1471963730643	1471963730706	 	32
2422	24983	Do you want to eat lunch somewhere before?	Do you want to eat lunch somewhere before?	1193653	1471963730786	1471963730846	y	89
2422	24983	Do you want to eat lunch somewhere before?	Do you want to eat lunch somewhere before?	1193659	1471963730846	1471963730998	o	79
2422	24983	Do you want to eat lunch somewhere before?	Do you want to eat lunch somewhere before?	1193668	1471963730946	1471963731046	u	85
2422	24983	Do you want to eat lunch somewhere before?	Do you want to eat lunch somewhere before?	1193671	1471963730998	1471963731076	 	32
2422	24983	Do you want to eat lunch somewhere before?	Do you want to eat lunch somewhere before?	1193672	1471963731110	1471963731222	w	87
2422	24983	Do you want to eat lunch somewhere before?	Do you want to eat lunch somewhere before?	1193675	1471963731173	1471963731332	a	65
2422	24983	Do you want to eat lunch somewhere before?	Do you want to eat lunch somewhere before?	1193677	1471963731253	1471963731332	n	78
2422	24983	Do you want to eat lunch somewhere before?	Do you want to eat lunch somewhere before?	1193683	1471963731332	1471963731419	t	84
2422	24983	Do you want to eat lunch somewhere before?	Do you want to eat lunch somewhere before?	1193690	1471963731419	1471963731479	 	32
2422	24983	Do you want to eat lunch somewhere before?	Do you want to eat lunch somewhere before?	1193694	1471963731480	1471963731540	t	84
2422	24983	Do you want to eat lunch somewhere before?	Do you want to eat lunch somewhere before?	1193699	1471963731540	1471963731622	o	79
2422	24983	Do you want to eat lunch somewhere before?	Do you want to eat lunch somewhere before?	1193702	1471963731589	1471963731669	 	32
2422	24983	Do you want to eat lunch somewhere before?	Do you want to eat lunch somewhere before?	1193706	1471963731749	1471963731872	e	69
2422	24983	Do you want to eat lunch somewhere before?	Do you want to eat lunch somewhere before?	1193776	1471963731826	1471963731933	a	65
2422	24983	Do you want to eat lunch somewhere before?	Do you want to eat lunch somewhere before?	1193781	1471963732053	1471963732147	t	84
2422	24983	Do you want to eat lunch somewhere before?	Do you want to eat lunch somewhere before?	1193784	1471963732147	1471963732206	 	32
2422	24983	Do you want to eat lunch somewhere before?	Do you want to eat lunch somewhere before?	1193788	1471963732226	1471963732369	l	76
2422	24983	Do you want to eat lunch somewhere before?	Do you want to eat lunch somewhere before?	1193794	1471963732645	1471963732706	u	85
2422	24983	Do you want to eat lunch somewhere before?	Do you want to eat lunch somewhere before?	1193802	1471963732806	1471963732854	n	78
2422	24983	Do you want to eat lunch somewhere before?	Do you want to eat lunch somewhere before?	1193833	1471963732926	1471963733009	c	67
2422	24983	Do you want to eat lunch somewhere before?	Do you want to eat lunch somewhere before?	1193835	1471963733009	1471963733094	h	72
2422	24983	Do you want to eat lunch somewhere before?	Do you want to eat lunch somewhere before?	1193837	1471963733110	1471963733190	 	32
2422	24983	Do you want to eat lunch somewhere before?	Do you want to eat lunch somewhere before?	1193838	1471963733302	1471963733362	s	83
2422	24983	Do you want to eat lunch somewhere before?	Do you want to eat lunch somewhere before?	1193839	1471963733362	1471963733462	o	79
2422	24983	Do you want to eat lunch somewhere before?	Do you want to eat lunch somewhere before?	1193847	1471963733422	1471963733489	m	77
2422	24983	Do you want to eat lunch somewhere before?	Do you want to eat lunch somewhere before?	1193853	1471963733489	1471963733589	e	69
2422	24983	Do you want to eat lunch somewhere before?	Do you want to eat lunch somewhere before?	1193863	1471963733729	1471963733809	w	87
2422	24983	Do you want to eat lunch somewhere before?	Do you want to eat lunch somewhere before?	1193869	1471963733809	1471963733872	h	72
2422	24983	Do you want to eat lunch somewhere before?	Do you want to eat lunch somewhere before?	1193878	1471963733902	1471963733972	e	69
2422	24983	Do you want to eat lunch somewhere before?	Do you want to eat lunch somewhere before?	1193890	1471963733972	1471963734102	r	82
2422	24983	Do you want to eat lunch somewhere before?	Do you want to eat lunch somewhere before?	1193920	1471963734054	1471963734127	e	69
2422	24983	Do you want to eat lunch somewhere before?	Do you want to eat lunch somewhere before?	1193924	1471963734147	1471963734206	 	32
2422	24983	Do you want to eat lunch somewhere before?	Do you want to eat lunch somewhere before?	1193928	1471963734356	1471963734432	b	66
2422	24983	Do you want to eat lunch somewhere before?	Do you want to eat lunch somewhere before?	1193933	1471963734462	1471963734582	e	69
2422	24983	Do you want to eat lunch somewhere before?	Do you want to eat lunch somewhere before?	1193940	1471963734542	1471963734646	f	70
2422	24983	Do you want to eat lunch somewhere before?	Do you want to eat lunch somewhere before?	1193944	1471963734646	1471963734726	o	79
2422	24983	Do you want to eat lunch somewhere before?	Do you want to eat lunch somewhere before?	1193943	1471963734736	1471963734838	r	82
2422	24983	Do you want to eat lunch somewhere before?	Do you want to eat lunch somewhere before?	1193947	1471963734806	1471963734886	e	69
2422	24983	Do you want to eat lunch somewhere before?	Do you want to eat lunch somewhere before?	1193957	1471963734916	1471963735078	SHIFT	16
2422	24983	Do you want to eat lunch somewhere before?	Do you want to eat lunch somewhere before?	1193952	1471963734977	1471963735039	?	191
2422	24998	Derivatives are not new.	Derivatives are not new.	1194215	1471963737956	1471963738615	SHIFT	16
2422	24998	Derivatives are not new.	Derivatives are not new.	1194218	1471963738559	1471963738660	D	68
2422	24998	Derivatives are not new.	Derivatives are not new.	1194221	1471963738750	1471963738855	e	69
2422	24998	Derivatives are not new.	Derivatives are not new.	1194224	1471963738816	1471963738912	r	82
2422	24998	Derivatives are not new.	Derivatives are not new.	1194226	1471963739012	1471963739079	i	73
2422	24998	Derivatives are not new.	Derivatives are not new.	1194228	1471963739168	1471963739270	v	86
2422	24998	Derivatives are not new.	Derivatives are not new.	1194245	1471963739361	1471963739539	a	65
2422	24998	Derivatives are not new.	Derivatives are not new.	1194251	1471963739492	1471963739570	t	84
2422	24998	Derivatives are not new.	Derivatives are not new.	1194257	1471963739600	1471963739685	i	73
2422	24998	Derivatives are not new.	Derivatives are not new.	1194262	1471963739715	1471963739830	v	86
2422	24998	Derivatives are not new.	Derivatives are not new.	1194275	1471963739783	1471963739923	e	69
2422	24998	Derivatives are not new.	Derivatives are not new.	1194278	1471963739863	1471963739953	s	83
2422	24998	Derivatives are not new.	Derivatives are not new.	1194283	1471963739953	1471963740023	 	32
2422	24998	Derivatives are not new.	Derivatives are not new.	1194289	1471963740053	1471963740215	a	65
2422	24998	Derivatives are not new.	Derivatives are not new.	1194334	1471963740128	1471963740239	r	82
2422	24998	Derivatives are not new.	Derivatives are not new.	1194340	1471963740183	1471963740326	e	69
2422	24998	Derivatives are not new.	Derivatives are not new.	1194346	1471963740239	1471963740326	 	32
2422	24998	Derivatives are not new.	Derivatives are not new.	1194351	1471963740356	1471963740466	n	78
2422	24998	Derivatives are not new.	Derivatives are not new.	1194358	1471963740391	1471963740535	o	79
2422	24998	Derivatives are not new.	Derivatives are not new.	1194364	1471963740496	1471963740595	t	84
2422	24998	Derivatives are not new.	Derivatives are not new.	1194365	1471963740595	1471963740690	 	32
2422	24998	Derivatives are not new.	Derivatives are not new.	1194409	1471963740944	1471963741045	n	78
2422	24998	Derivatives are not new.	Derivatives are not new.	1194412	1471963741045	1471963741159	e	69
2422	24998	Derivatives are not new.	Derivatives are not new.	1194416	1471963741138	1471963741246	w	87
2422	24998	Derivatives are not new.	Derivatives are not new.	1194420	1471963741376	1471963741460	.	190
2422	25001	You are welcome in Palacios this weekend, of course.	You are welcome in Palacios this weekend, of course.	1194685	1471963744509	1471963745205	SHIFT	16
2422	25001	You are welcome in Palacios this weekend, of course.	You are welcome in Palacios this weekend, of course.	1194687	1471963745137	1471963745215	Y	89
2422	25001	You are welcome in Palacios this weekend, of course.	You are welcome in Palacios this weekend, of course.	1194690	1471963745265	1471963745395	o	79
2422	25001	You are welcome in Palacios this weekend, of course.	You are welcome in Palacios this weekend, of course.	1194696	1471963745342	1471963745462	u	85
2422	25001	You are welcome in Palacios this weekend, of course.	You are welcome in Palacios this weekend, of course.	1194701	1471963745425	1471963745519	 	32
2422	25001	You are welcome in Palacios this weekend, of course.	You are welcome in Palacios this weekend, of course.	1194707	1471963745519	1471963745686	a	65
2422	25001	You are welcome in Palacios this weekend, of course.	You are welcome in Palacios this weekend, of course.	1194733	1471963745599	1471963745725	r	82
2422	25001	You are welcome in Palacios this weekend, of course.	You are welcome in Palacios this weekend, of course.	1194738	1471963745654	1471963745766	e	69
2422	25001	You are welcome in Palacios this weekend, of course.	You are welcome in Palacios this weekend, of course.	1194742	1471963745745	1471963745825	 	32
2422	25001	You are welcome in Palacios this weekend, of course.	You are welcome in Palacios this weekend, of course.	1194744	1471963745885	1471963746022	w	87
2422	25001	You are welcome in Palacios this weekend, of course.	You are welcome in Palacios this weekend, of course.	1194745	1471963745965	1471963746052	e	69
2422	25001	You are welcome in Palacios this weekend, of course.	You are welcome in Palacios this weekend, of course.	1194746	1471963746052	1471963746117	l	76
2422	25001	You are welcome in Palacios this weekend, of course.	You are welcome in Palacios this weekend, of course.	1194747	1471963746157	1471963746259	c	67
2422	25001	You are welcome in Palacios this weekend, of course.	You are welcome in Palacios this weekend, of course.	1194810	1471963746259	1471963746389	o	79
2422	25001	You are welcome in Palacios this weekend, of course.	You are welcome in Palacios this weekend, of course.	1194827	1471963746342	1471963746549	m	77
2422	25001	You are welcome in Palacios this weekend, of course.	You are welcome in Palacios this weekend, of course.	1194819	1471963746429	1471963746486	e	69
2422	25001	You are welcome in Palacios this weekend, of course.	You are welcome in Palacios this weekend, of course.	1194833	1471963746982	1471963747059	 	32
2422	25001	You are welcome in Palacios this weekend, of course.	You are welcome in Palacios this weekend, of course.	1194838	1471963747094	1471963747222	i	73
2422	25001	You are welcome in Palacios this weekend, of course.	You are welcome in Palacios this weekend, of course.	1194878	1471963747155	1471963747254	n	78
2422	25001	You are welcome in Palacios this weekend, of course.	You are welcome in Palacios this weekend, of course.	1194883	1471963747222	1471963747312	 	32
2422	25001	You are welcome in Palacios this weekend, of course.	You are welcome in Palacios this weekend, of course.	1194886	1471963747362	1471963747556	SHIFT	16
2422	25001	You are welcome in Palacios this weekend, of course.	You are welcome in Palacios this weekend, of course.	1194891	1471963747462	1471963747556	P	80
2422	25001	You are welcome in Palacios this weekend, of course.	You are welcome in Palacios this weekend, of course.	1194894	1471963747636	1471963747695	a	65
2422	25001	You are welcome in Palacios this weekend, of course.	You are welcome in Palacios this weekend, of course.	1194900	1471963747725	1471963747795	l	76
2422	25001	You are welcome in Palacios this weekend, of course.	You are welcome in Palacios this weekend, of course.	1194904	1471963747825	1471963747889	a	65
2422	25001	You are welcome in Palacios this weekend, of course.	You are welcome in Palacios this weekend, of course.	1194944	1471963748022	1471963748117	c	67
2422	25001	You are welcome in Palacios this weekend, of course.	You are welcome in Palacios this weekend, of course.	1194948	1471963748181	1471963748310	i	73
2422	25001	You are welcome in Palacios this weekend, of course.	You are welcome in Palacios this weekend, of course.	1194951	1471963748258	1471963748402	o	79
2422	25001	You are welcome in Palacios this weekend, of course.	You are welcome in Palacios this weekend, of course.	1194956	1471963748806	1471963748854	s	83
2422	25001	You are welcome in Palacios this weekend, of course.	You are welcome in Palacios this weekend, of course.	1194964	1471963748862	1471963748948	 	32
2422	25001	You are welcome in Palacios this weekend, of course.	You are welcome in Palacios this weekend, of course.	1194987	1471963748979	1471963749078	t	84
2422	25001	You are welcome in Palacios this weekend, of course.	You are welcome in Palacios this weekend, of course.	1194991	1471963749038	1471963749126	h	72
2422	25001	You are welcome in Palacios this weekend, of course.	You are welcome in Palacios this weekend, of course.	1194995	1471963749094	1471963749222	i	73
2422	25001	You are welcome in Palacios this weekend, of course.	You are welcome in Palacios this weekend, of course.	1195000	1471963749185	1471963749245	s	83
2422	25001	You are welcome in Palacios this weekend, of course.	You are welcome in Palacios this weekend, of course.	1195004	1471963749255	1471963749360	 	32
2422	25001	You are welcome in Palacios this weekend, of course.	You are welcome in Palacios this weekend, of course.	1195015	1471963749391	1471963749505	w	87
2422	25001	You are welcome in Palacios this weekend, of course.	You are welcome in Palacios this weekend, of course.	1195018	1471963749485	1471963749542	e	69
2422	25001	You are welcome in Palacios this weekend, of course.	You are welcome in Palacios this weekend, of course.	1195023	1471963749600	1471963749662	e	69
2422	25001	You are welcome in Palacios this weekend, of course.	You are welcome in Palacios this weekend, of course.	1195028	1471963749662	1471963749732	k	75
2422	25001	You are welcome in Palacios this weekend, of course.	You are welcome in Palacios this weekend, of course.	1195035	1471963749762	1471963749812	e	69
2422	25001	You are welcome in Palacios this weekend, of course.	You are welcome in Palacios this weekend, of course.	1195078	1471963749812	1471963749892	n	78
2422	25001	You are welcome in Palacios this weekend, of course.	You are welcome in Palacios this weekend, of course.	1195082	1471963749892	1471963749968	d	68
2422	25001	You are welcome in Palacios this weekend, of course.	You are welcome in Palacios this weekend, of course.	1195088	1471963750022	1471963750086	,	188
2422	25001	You are welcome in Palacios this weekend, of course.	You are welcome in Palacios this weekend, of course.	1195098	1471963750087	1471963750150	 	32
2422	25001	You are welcome in Palacios this weekend, of course.	You are welcome in Palacios this weekend, of course.	1195103	1471963750422	1471963750486	o	79
2422	25001	You are welcome in Palacios this weekend, of course.	You are welcome in Palacios this weekend, of course.	1195114	1471963750454	1471963750550	f	70
2422	25001	You are welcome in Palacios this weekend, of course.	You are welcome in Palacios this weekend, of course.	1195116	1471963750512	1471963750608	 	32
2422	25001	You are welcome in Palacios this weekend, of course.	You are welcome in Palacios this weekend, of course.	1195119	1471963750638	1471963750725	c	67
2422	25001	You are welcome in Palacios this weekend, of course.	You are welcome in Palacios this weekend, of course.	1195121	1471963750725	1471963750838	o	79
2422	25001	You are welcome in Palacios this weekend, of course.	You are welcome in Palacios this weekend, of course.	1195124	1471963750782	1471963750870	u	85
2422	25001	You are welcome in Palacios this weekend, of course.	You are welcome in Palacios this weekend, of course.	1195185	1471963750848	1471963751046	r	82
2422	25001	You are welcome in Palacios this weekend, of course.	You are welcome in Palacios this weekend, of course.	1195188	1471963750925	1471963751078	s	83
2422	25001	You are welcome in Palacios this weekend, of course.	You are welcome in Palacios this weekend, of course.	1195190	1471963751005	1471963751117	e	69
2422	25001	You are welcome in Palacios this weekend, of course.	You are welcome in Palacios this weekend, of course.	1195192	1471963751589	1471963751653	.	190
2422	25024	Mike, are you aware of this?	Mike, are you aware of this?	1195419	1471963754307	1471963754861	SHIFT	16
2422	25024	Mike, are you aware of this?	Mike, are you aware of this?	1195417	1471963754754	1471963754851	M	77
2422	25024	Mike, are you aware of this?	Mike, are you aware of this?	1195423	1471963754881	1471963754947	i	73
2422	25024	Mike, are you aware of this?	Mike, are you aware of this?	1195426	1471963755039	1471963755110	k	75
2422	25024	Mike, are you aware of this?	Mike, are you aware of this?	1195431	1471963755093	1471963755154	e	69
2422	25024	Mike, are you aware of this?	Mike, are you aware of this?	1195436	1471963755189	1471963755221	 	32
2422	25024	Mike, are you aware of this?	Mike, are you aware of this?	1195475	1471963755484	1471963755541	BKSP	8
2422	25024	Mike, are you aware of this?	Mike, are you aware of this?	1195478	1471963755684	1471963755744	,	188
2422	25024	Mike, are you aware of this?	Mike, are you aware of this?	1195481	1471963755744	1471963755781	 	32
2422	25024	Mike, are you aware of this?	Mike, are you aware of this?	1195486	1471963755854	1471963755989	a	65
2422	25024	Mike, are you aware of this?	Mike, are you aware of this?	1195519	1471963755909	1471963756052	r	82
2422	25024	Mike, are you aware of this?	Mike, are you aware of this?	1195527	1471963755941	1471963756062	e	69
2422	25024	Mike, are you aware of this?	Mike, are you aware of this?	1195535	1471963756052	1471963756117	 	32
2422	25024	Mike, are you aware of this?	Mike, are you aware of this?	1195541	1471963756207	1471963756261	y	89
2422	25024	Mike, are you aware of this?	Mike, are you aware of this?	1195547	1471963756271	1471963756414	o	79
2422	25024	Mike, are you aware of this?	Mike, are you aware of this?	1195553	1471963756357	1471963756453	u	85
2422	25024	Mike, are you aware of this?	Mike, are you aware of this?	1195640	1471963756414	1471963756526	 	32
2422	25024	Mike, are you aware of this?	Mike, are you aware of this?	1195643	1471963756549	1471963756604	w	87
2422	25024	Mike, are you aware of this?	Mike, are you aware of this?	1195646	1471963756604	1471963756830	a	65
2422	25024	Mike, are you aware of this?	Mike, are you aware of this?	1195649	1471963757116	1471963757136	BKSP	8
2422	25024	Mike, are you aware of this?	Mike, are you aware of this?	1195652	1471963757206	1471963757260	BKSP	8
2422	25024	Mike, are you aware of this?	Mike, are you aware of this?	1195656	1471963757300	1471963757493	a	65
2422	25024	Mike, are you aware of this?	Mike, are you aware of this?	1195662	1471963757440	1471963757604	w	87
2422	25024	Mike, are you aware of this?	Mike, are you aware of this?	1195667	1471963757604	1471963757797	a	65
2422	25024	Mike, are you aware of this?	Mike, are you aware of this?	1195677	1471963757744	1471963757877	r	82
2422	25024	Mike, are you aware of this?	Mike, are you aware of this?	1195685	1471963757820	1471963757958	e	69
2422	25024	Mike, are you aware of this?	Mike, are you aware of this?	1195690	1471963757937	1471963758004	 	32
2422	25024	Mike, are you aware of this?	Mike, are you aware of this?	1195697	1471963758034	1471963758133	o	79
2422	25024	Mike, are you aware of this?	Mike, are you aware of this?	1195702	1471963758085	1471963758144	f	70
2422	25024	Mike, are you aware of this?	Mike, are you aware of this?	1195707	1471963758144	1471963758244	 	32
2422	25024	Mike, are you aware of this?	Mike, are you aware of this?	1195714	1471963758244	1471963758325	t	84
2422	25024	Mike, are you aware of this?	Mike, are you aware of this?	1195717	1471963758277	1471963758373	h	72
2422	25024	Mike, are you aware of this?	Mike, are you aware of this?	1195721	1471963758337	1471963758414	i	73
2422	25024	Mike, are you aware of this?	Mike, are you aware of this?	1195726	1471963758414	1471963758480	s	83
2422	25024	Mike, are you aware of this?	Mike, are you aware of this?	1195725	1471963758560	1471963758701	SHIFT	16
2422	25024	Mike, are you aware of this?	Mike, are you aware of this?	1195731	1471963758610	1471963758660	?	191
2422	25030	About 20 were Americans, but there were also Dutch and Swiss.	About 20 were Americans, but there were also Dutch and Swiss.	1196216	1471963763634	1471963763920	SHIFT	16
2422	25030	About 20 were Americans, but there were also Dutch and Swiss.	About 20 were Americans, but there were also Dutch and Swiss.	1196220	1471963763852	1471963763950	A	65
2422	25030	About 20 were Americans, but there were also Dutch and Swiss.	About 20 were Americans, but there were also Dutch and Swiss.	1196226	1471963764052	1471963764145	b	66
2422	25030	About 20 were Americans, but there were also Dutch and Swiss.	About 20 were Americans, but there were also Dutch and Swiss.	1196233	1471963764125	1471963764270	o	79
2422	25030	About 20 were Americans, but there were also Dutch and Swiss.	About 20 were Americans, but there were also Dutch and Swiss.	1196239	1471963764210	1471963764337	u	85
2422	25030	About 20 were Americans, but there were also Dutch and Swiss.	About 20 were Americans, but there were also Dutch and Swiss.	1196351	1471963764290	1471963764389	t	84
2422	25030	About 20 were Americans, but there were also Dutch and Swiss.	About 20 were Americans, but there were also Dutch and Swiss.	1196352	1471963764337	1471963764404	 	32
2422	25030	About 20 were Americans, but there were also Dutch and Swiss.	About 20 were Americans, but there were also Dutch and Swiss.	1196353	1471963764846	1471963764916	2	98
2422	25030	About 20 were Americans, but there were also Dutch and Swiss.	About 20 were Americans, but there were also Dutch and Swiss.	1196354	1471963764885	1471963764947	0	96
2422	25030	About 20 were Americans, but there were also Dutch and Swiss.	About 20 were Americans, but there were also Dutch and Swiss.	1196355	1471963766033	1471963766115	 	32
2422	25030	About 20 were Americans, but there were also Dutch and Swiss.	About 20 were Americans, but there were also Dutch and Swiss.	1196356	1471963766205	1471963766324	w	87
2422	25030	About 20 were Americans, but there were also Dutch and Swiss.	About 20 were Americans, but there were also Dutch and Swiss.	1196360	1471963766290	1471963766357	e	69
2422	25030	About 20 were Americans, but there were also Dutch and Swiss.	About 20 were Americans, but there were also Dutch and Swiss.	1196363	1471963766357	1471963766485	r	82
2422	25030	About 20 were Americans, but there were also Dutch and Swiss.	About 20 were Americans, but there were also Dutch and Swiss.	1196366	1471963766453	1471963766513	e	69
2422	25030	About 20 were Americans, but there were also Dutch and Swiss.	About 20 were Americans, but there were also Dutch and Swiss.	1196371	1471963766513	1471963766590	 	32
2422	25030	About 20 were Americans, but there were also Dutch and Swiss.	About 20 were Americans, but there were also Dutch and Swiss.	1196375	1471963766610	1471963766720	a	65
2422	25030	About 20 were Americans, but there were also Dutch and Swiss.	About 20 were Americans, but there were also Dutch and Swiss.	1196378	1471963766740	1471963766797	m	77
2422	25030	About 20 were Americans, but there were also Dutch and Swiss.	About 20 were Americans, but there were also Dutch and Swiss.	1196439	1471963767009	1471963767045	BKSP	8
2422	25030	About 20 were Americans, but there were also Dutch and Swiss.	About 20 were Americans, but there were also Dutch and Swiss.	1196443	1471963767109	1471963767170	BKSP	8
2422	25030	About 20 were Americans, but there were also Dutch and Swiss.	About 20 were Americans, but there were also Dutch and Swiss.	1196448	1471963767220	1471963767365	SHIFT	16
2422	25030	About 20 were Americans, but there were also Dutch and Swiss.	About 20 were Americans, but there were also Dutch and Swiss.	1196451	1471963767310	1471963767397	A	65
2422	25030	About 20 were Americans, but there were also Dutch and Swiss.	About 20 were Americans, but there were also Dutch and Swiss.	1196454	1471963767365	1471963767420	m	77
2422	25030	About 20 were Americans, but there were also Dutch and Swiss.	About 20 were Americans, but there were also Dutch and Swiss.	1196457	1471963767500	1471963767600	e	69
2422	25030	About 20 were Americans, but there were also Dutch and Swiss.	About 20 were Americans, but there were also Dutch and Swiss.	1196460	1471963767580	1471963767667	r	82
2422	25030	About 20 were Americans, but there were also Dutch and Swiss.	About 20 were Americans, but there were also Dutch and Swiss.	1196463	1471963767667	1471963767727	i	73
2422	25030	About 20 were Americans, but there were also Dutch and Swiss.	About 20 were Americans, but there were also Dutch and Swiss.	1196498	1471963767758	1471963767877	c	67
2422	25030	About 20 were Americans, but there were also Dutch and Swiss.	About 20 were Americans, but there were also Dutch and Swiss.	1196502	1471963767820	1471963767940	a	65
2422	25030	About 20 were Americans, but there were also Dutch and Swiss.	About 20 were Americans, but there were also Dutch and Swiss.	1196505	1471963767907	1471963768003	n	78
2422	25030	About 20 were Americans, but there were also Dutch and Swiss.	About 20 were Americans, but there were also Dutch and Swiss.	1196509	1471963768053	1471963768132	s	83
2422	25030	About 20 were Americans, but there were also Dutch and Swiss.	About 20 were Americans, but there were also Dutch and Swiss.	1196513	1471963768172	1471963768253	,	188
2422	25030	About 20 were Americans, but there were also Dutch and Swiss.	About 20 were Americans, but there were also Dutch and Swiss.	1196510	1471963768263	1471963768320	 	32
2422	25030	About 20 were Americans, but there were also Dutch and Swiss.	About 20 were Americans, but there were also Dutch and Swiss.	1196514	1471963768340	1471963768417	b	66
2422	25030	About 20 were Americans, but there were also Dutch and Swiss.	About 20 were Americans, but there were also Dutch and Swiss.	1196516	1471963768427	1471963768485	u	85
2422	25030	About 20 were Americans, but there were also Dutch and Swiss.	About 20 were Americans, but there were also Dutch and Swiss.	1196519	1471963768497	1471963768563	t	84
2422	25030	About 20 were Americans, but there were also Dutch and Swiss.	About 20 were Americans, but there were also Dutch and Swiss.	1196523	1471963768563	1471963768620	 	32
2422	25030	About 20 were Americans, but there were also Dutch and Swiss.	About 20 were Americans, but there were also Dutch and Swiss.	1196537	1471963768640	1471963768723	t	84
2422	25030	About 20 were Americans, but there were also Dutch and Swiss.	About 20 were Americans, but there were also Dutch and Swiss.	1196538	1471963768723	1471963768780	h	72
2422	25030	About 20 were Americans, but there were also Dutch and Swiss.	About 20 were Americans, but there were also Dutch and Swiss.	1196539	1471963768780	1471963768867	e	69
2422	25030	About 20 were Americans, but there were also Dutch and Swiss.	About 20 were Americans, but there were also Dutch and Swiss.	1196540	1471963768867	1471963768981	r	82
2422	25030	About 20 were Americans, but there were also Dutch and Swiss.	About 20 were Americans, but there were also Dutch and Swiss.	1196572	1471963768947	1471963768997	e	69
2422	25030	About 20 were Americans, but there were also Dutch and Swiss.	About 20 were Americans, but there were also Dutch and Swiss.	1196583	1471963769029	1471963769094	 	32
2422	25030	About 20 were Americans, but there were also Dutch and Swiss.	About 20 were Americans, but there were also Dutch and Swiss.	1196595	1471963769217	1471963769343	w	87
2422	25030	About 20 were Americans, but there were also Dutch and Swiss.	About 20 were Americans, but there were also Dutch and Swiss.	1196607	1471963769254	1471963769365	e	69
2422	25030	About 20 were Americans, but there were also Dutch and Swiss.	About 20 were Americans, but there were also Dutch and Swiss.	1196618	1471963769343	1471963769493	r	82
2422	25030	About 20 were Americans, but there were also Dutch and Swiss.	About 20 were Americans, but there were also Dutch and Swiss.	1196641	1471963769443	1471963769524	e	69
2422	25030	About 20 were Americans, but there were also Dutch and Swiss.	About 20 were Americans, but there were also Dutch and Swiss.	1196643	1471963769524	1471963769597	 	32
2422	25030	About 20 were Americans, but there were also Dutch and Swiss.	About 20 were Americans, but there were also Dutch and Swiss.	1196646	1471963769637	1471963769733	a	65
2422	25030	About 20 were Americans, but there were also Dutch and Swiss.	About 20 were Americans, but there were also Dutch and Swiss.	1196649	1471963769733	1471963769765	l	76
2422	25030	About 20 were Americans, but there were also Dutch and Swiss.	About 20 were Americans, but there were also Dutch and Swiss.	1196651	1471963769794	1471963769853	s	83
2422	25030	About 20 were Americans, but there were also Dutch and Swiss.	About 20 were Americans, but there were also Dutch and Swiss.	1196653	1471963769853	1471963769920	o	79
2422	25030	About 20 were Americans, but there were also Dutch and Swiss.	About 20 were Americans, but there were also Dutch and Swiss.	1196682	1471963769920	1471963769999	 	32
2422	25030	About 20 were Americans, but there were also Dutch and Swiss.	About 20 were Americans, but there were also Dutch and Swiss.	1196686	1471963769999	1471963770245	SHIFT	16
2422	25030	About 20 were Americans, but there were also Dutch and Swiss.	About 20 were Americans, but there were also Dutch and Swiss.	1196689	1471963770181	1471963770246	D	68
2422	25030	About 20 were Americans, but there were also Dutch and Swiss.	About 20 were Americans, but there were also Dutch and Swiss.	1196694	1471963770286	1471963770353	u	85
2422	25030	About 20 were Americans, but there were also Dutch and Swiss.	About 20 were Americans, but there were also Dutch and Swiss.	1196698	1471963770433	1471963770485	t	84
2422	25030	About 20 were Americans, but there were also Dutch and Swiss.	About 20 were Americans, but there were also Dutch and Swiss.	1196702	1471963770573	1471963770677	c	67
2422	25030	About 20 were Americans, but there were also Dutch and Swiss.	About 20 were Americans, but there were also Dutch and Swiss.	1196701	1471963770637	1471963770723	h	72
2422	25030	About 20 were Americans, but there were also Dutch and Swiss.	About 20 were Americans, but there were also Dutch and Swiss.	1196704	1471963770723	1471963770770	 	32
2422	25030	About 20 were Americans, but there were also Dutch and Swiss.	About 20 were Americans, but there were also Dutch and Swiss.	1196708	1471963770800	1471963770940	a	65
2422	25030	About 20 were Americans, but there were also Dutch and Swiss.	About 20 were Americans, but there were also Dutch and Swiss.	1196705	1471963770860	1471963770930	n	78
2422	25030	About 20 were Americans, but there were also Dutch and Swiss.	About 20 were Americans, but there were also Dutch and Swiss.	1196711	1471963770930	1471963771007	d	68
2422	25030	About 20 were Americans, but there were also Dutch and Swiss.	About 20 were Americans, but there were also Dutch and Swiss.	1196715	1471963771007	1471963771093	 	32
2422	25030	About 20 were Americans, but there were also Dutch and Swiss.	About 20 were Americans, but there were also Dutch and Swiss.	1196765	1471963771095	1471963771263	SHIFT	16
2422	25030	About 20 were Americans, but there were also Dutch and Swiss.	About 20 were Americans, but there were also Dutch and Swiss.	1196768	1471963771196	1471963771263	S	83
2422	25030	About 20 were Americans, but there were also Dutch and Swiss.	About 20 were Americans, but there were also Dutch and Swiss.	1196773	1471963771363	1471963771413	w	87
2422	25030	About 20 were Americans, but there were also Dutch and Swiss.	About 20 were Americans, but there were also Dutch and Swiss.	1196780	1471963771440	1471963771503	i	73
2422	25030	About 20 were Americans, but there were also Dutch and Swiss.	About 20 were Americans, but there were also Dutch and Swiss.	1196786	1471963771633	1471963771685	x	88
2422	25030	About 20 were Americans, but there were also Dutch and Swiss.	About 20 were Americans, but there were also Dutch and Swiss.	1196794	1471963771953	1471963772005	BKSP	8
2422	25030	About 20 were Americans, but there were also Dutch and Swiss.	About 20 were Americans, but there were also Dutch and Swiss.	1196801	1471963772020	1471963772085	s	83
2422	25030	About 20 were Americans, but there were also Dutch and Swiss.	About 20 were Americans, but there were also Dutch and Swiss.	1196825	1471963772165	1471963772213	s	83
2422	25030	About 20 were Americans, but there were also Dutch and Swiss.	About 20 were Americans, but there were also Dutch and Swiss.	1196830	1471963772287	1471963772341	.	190
2422	25055	Call me to give me a heads up.	Call me to give me a heads up.	1197088	1471963774989	1471963775765	SHIFT	16
2422	25055	Call me to give me a heads up.	Call me to give me a heads up.	1197090	1471963775716	1471963775857	C	67
2422	25055	Call me to give me a heads up.	Call me to give me a heads up.	1197096	1471963775857	1471963775973	a	65
2422	25055	Call me to give me a heads up.	Call me to give me a heads up.	1197103	1471963775920	1471963775973	l	76
2422	25055	Call me to give me a heads up.	Call me to give me a heads up.	1197110	1471963776016	1471963776125	l	76
2422	25055	Call me to give me a heads up.	Call me to give me a heads up.	1197118	1471963776125	1471963776196	 	32
2422	25055	Call me to give me a heads up.	Call me to give me a heads up.	1197124	1471963776196	1471963776309	m	77
2422	25055	Call me to give me a heads up.	Call me to give me a heads up.	1197127	1471963776253	1471963776320	e	69
2422	25055	Call me to give me a heads up.	Call me to give me a heads up.	1197128	1471963776320	1471963776396	 	32
2422	25055	Call me to give me a heads up.	Call me to give me a heads up.	1197129	1471963776436	1471963776501	t	84
2422	25055	Call me to give me a heads up.	Call me to give me a heads up.	1197207	1471963776469	1471963776556	o	79
2422	25055	Call me to give me a heads up.	Call me to give me a heads up.	1197211	1471963776546	1471963776623	 	32
2422	25055	Call me to give me a heads up.	Call me to give me a heads up.	1197214	1471963776988	1471963777125	b	66
2422	25055	Call me to give me a heads up.	Call me to give me a heads up.	1197218	1471963777330	1471963777381	BKSP	8
2422	25055	Call me to give me a heads up.	Call me to give me a heads up.	1197221	1471963777426	1471963777476	g	71
2422	25055	Call me to give me a heads up.	Call me to give me a heads up.	1197226	1471963777506	1471963777573	i	73
2422	25055	Call me to give me a heads up.	Call me to give me a heads up.	1197228	1471963777583	1471963777685	v	86
2422	25055	Call me to give me a heads up.	Call me to give me a heads up.	1197239	1471963777653	1471963777749	e	69
2422	25055	Call me to give me a heads up.	Call me to give me a heads up.	1197243	1471963777713	1471963777775	 	32
2422	25055	Call me to give me a heads up.	Call me to give me a heads up.	1197250	1471963777825	1471963777886	m	77
2422	25055	Call me to give me a heads up.	Call me to give me a heads up.	1197254	1471963777886	1471963777953	e	69
2422	25055	Call me to give me a heads up.	Call me to give me a heads up.	1197261	1471963777953	1471963778020	 	32
2422	25055	Call me to give me a heads up.	Call me to give me a heads up.	1197266	1471963778020	1471963778101	a	65
2422	25055	Call me to give me a heads up.	Call me to give me a heads up.	1197295	1471963778103	1471963778160	 	32
2422	25055	Call me to give me a heads up.	Call me to give me a heads up.	1197301	1471963778190	1471963778253	d	68
2422	25055	Call me to give me a heads up.	Call me to give me a heads up.	1197308	1471963778496	1471963778549	BKSP	8
2422	25055	Call me to give me a heads up.	Call me to give me a heads up.	1197316	1471963778639	1471963778693	h	72
2422	25055	Call me to give me a heads up.	Call me to give me a heads up.	1197323	1471963778678	1471963778766	e	69
2422	25055	Call me to give me a heads up.	Call me to give me a heads up.	1197329	1471963778766	1471963778913	a	65
2422	25055	Call me to give me a heads up.	Call me to give me a heads up.	1197353	1471963778846	1471963778949	d	68
2422	25055	Call me to give me a heads up.	Call me to give me a heads up.	1197359	1471963778913	1471963779061	s	83
2422	25055	Call me to give me a heads up.	Call me to give me a heads up.	1197365	1471963779008	1471963779062	 	32
2422	25055	Call me to give me a heads up.	Call me to give me a heads up.	1197370	1471963779093	1471963779189	u	85
2422	25055	Call me to give me a heads up.	Call me to give me a heads up.	1197372	1471963779153	1471963779230	p	80
2422	25055	Call me to give me a heads up.	Call me to give me a heads up.	1197375	1471963779381	1471963779429	.	190
