PARTICIPANT_ID	TEST_SECTION_ID	SENTENCE	USER_INPUT	KEYSTROKE_ID	PRESS_TIME	RELEASE_TIME	LETTER	KEYCODE
2455	25304	But it takes time.	But it takes time. 	1209868	1471963971067	1471963971307	SHIFT	16
2455	25304	But it takes time.	But it takes time. 	1209873	1471963971204	1471963971350	B	66
2455	25304	But it takes time.	But it takes time. 	1209876	1471963971346	1471963971429	u	85
2455	25304	But it takes time.	But it takes time. 	1209879	1471963971471	1471963971579	t	84
2455	25304	But it takes time.	But it takes time. 	1209881	1471963971550	1471963971630	 	32
2455	25304	But it takes time.	But it takes time. 	1209884	1471963971687	1471963971745	i	73
2455	25304	But it takes time.	But it takes time. 	1209917	1471963971723	1471963971842	t	84
2455	25304	But it takes time.	But it takes time. 	1209918	1471963971923	1471963972007	 	32
2455	25304	But it takes time.	But it takes time. 	1209920	1471963972511	1471963972595	t	84
2455	25304	But it takes time.	But it takes time. 	1209923	1471963972647	1471963972773	a	65
2455	25304	But it takes time.	But it takes time. 	1209927	1471963972762	1471963972846	k	75
2455	25304	But it takes time.	But it takes time. 	1209946	1471963972829	1471963972995	e	69
2455	25304	But it takes time.	But it takes time. 	1209948	1471963972941	1471963973067	s	83
2455	25304	But it takes time.	But it takes time. 	1209947	1471963972988	1471963973057	 	32
2455	25304	But it takes time.	But it takes time. 	1209950	1471963973183	1471963973309	t	84
2455	25304	But it takes time.	But it takes time. 	1209952	1471963973277	1471963973356	i	73
2455	25304	But it takes time.	But it takes time. 	1210010	1471963973329	1471963973398	m	77
2455	25304	But it takes time.	But it takes time. 	1210011	1471963973382	1471963973489	e	69
2455	25304	But it takes time.	But it takes time. 	1210012	1471963973487	1471963973554	.	190
2455	25304	But it takes time.	But it takes time. 	1210014	1471963973528	1471963973608	 	32
2455	25309	Reports said Clinton feels the same way.	Reports said Clinton feels the same way.	1210182	1471963977930	1471963978113	SHIFT	16
2455	25309	Reports said Clinton feels the same way.	Reports said Clinton feels the same way.	1210184	1471963978058	1471963978145	R	82
2455	25309	Reports said Clinton feels the same way.	Reports said Clinton feels the same way.	1210186	1471963978185	1471963978265	e	69
2455	25309	Reports said Clinton feels the same way.	Reports said Clinton feels the same way.	1210189	1471963978359	1471963978427	p	80
2455	25309	Reports said Clinton feels the same way.	Reports said Clinton feels the same way.	1210191	1471963978664	1471963978741	o	79
2455	25309	Reports said Clinton feels the same way.	Reports said Clinton feels the same way.	1210193	1471963979080	1471963979161	r	82
2455	25309	Reports said Clinton feels the same way.	Reports said Clinton feels the same way.	1210229	1471963979248	1471963979374	t	84
2455	25309	Reports said Clinton feels the same way.	Reports said Clinton feels the same way.	1210232	1471963979342	1471963979452	s	83
2455	25309	Reports said Clinton feels the same way.	Reports said Clinton feels the same way.	1210237	1471963979416	1471963979510	 	32
2455	25309	Reports said Clinton feels the same way.	Reports said Clinton feels the same way.	1210240	1471963979812	1471963980008	s	83
2455	25309	Reports said Clinton feels the same way.	Reports said Clinton feels the same way.	1210274	1471963979907	1471963980030	a	65
2455	25309	Reports said Clinton feels the same way.	Reports said Clinton feels the same way.	1210277	1471963979988	1471963980061	i	73
2455	25309	Reports said Clinton feels the same way.	Reports said Clinton feels the same way.	1210282	1471963980083	1471963980193	d	68
2455	25309	Reports said Clinton feels the same way.	Reports said Clinton feels the same way.	1210287	1471963980161	1471963980254	 	32
2455	25309	Reports said Clinton feels the same way.	Reports said Clinton feels the same way.	1210290	1471963980266	1471963980386	SHIFT	16
2455	25309	Reports said Clinton feels the same way.	Reports said Clinton feels the same way.	1210296	1471963980327	1471963980449	C	67
2455	25309	Reports said Clinton feels the same way.	Reports said Clinton feels the same way.	1210300	1471963980408	1471963980484	l	76
2455	25309	Reports said Clinton feels the same way.	Reports said Clinton feels the same way.	1210302	1471963980610	1471963980684	i	73
2455	25309	Reports said Clinton feels the same way.	Reports said Clinton feels the same way.	1210332	1471963980652	1471963980744	n	78
2455	25309	Reports said Clinton feels the same way.	Reports said Clinton feels the same way.	1210335	1471963980747	1471963980865	t	84
2455	25309	Reports said Clinton feels the same way.	Reports said Clinton feels the same way.	1210340	1471963980834	1471963980933	o	79
2455	25309	Reports said Clinton feels the same way.	Reports said Clinton feels the same way.	1210342	1471963980900	1471963980970	n	78
2455	25309	Reports said Clinton feels the same way.	Reports said Clinton feels the same way.	1210350	1471963981293	1471963981374	 	32
2455	25309	Reports said Clinton feels the same way.	Reports said Clinton feels the same way.	1210352	1471963981485	1471963981584	f	70
2455	25309	Reports said Clinton feels the same way.	Reports said Clinton feels the same way.	1210375	1471963981702	1471963981747	e	69
2455	25309	Reports said Clinton feels the same way.	Reports said Clinton feels the same way.	1210378	1471963981848	1471963981920	e	69
2455	25309	Reports said Clinton feels the same way.	Reports said Clinton feels the same way.	1210380	1471963981923	1471963982007	l	76
2455	25309	Reports said Clinton feels the same way.	Reports said Clinton feels the same way.	1210382	1471963982036	1471963982125	s	83
2455	25309	Reports said Clinton feels the same way.	Reports said Clinton feels the same way.	1210389	1471963982161	1471963982217	 	32
2455	25309	Reports said Clinton feels the same way.	Reports said Clinton feels the same way.	1210416	1471963982213	1471963982319	t	84
2455	25309	Reports said Clinton feels the same way.	Reports said Clinton feels the same way.	1210418	1471963982332	1471963982403	h	72
2455	25309	Reports said Clinton feels the same way.	Reports said Clinton feels the same way.	1210422	1471963982361	1471963982469	e	69
2455	25309	Reports said Clinton feels the same way.	Reports said Clinton feels the same way.	1210428	1471963982490	1471963982577	 	32
2455	25309	Reports said Clinton feels the same way.	Reports said Clinton feels the same way.	1210436	1471963982609	1471963982745	s	83
2455	25309	Reports said Clinton feels the same way.	Reports said Clinton feels the same way.	1210454	1471963982697	1471963982813	a	65
2455	25309	Reports said Clinton feels the same way.	Reports said Clinton feels the same way.	1210457	1471963982802	1471963982882	m	77
2455	25309	Reports said Clinton feels the same way.	Reports said Clinton feels the same way.	1210463	1471963982886	1471963982965	e	69
2455	25309	Reports said Clinton feels the same way.	Reports said Clinton feels the same way.	1210469	1471963982955	1471963983036	 	32
2455	25309	Reports said Clinton feels the same way.	Reports said Clinton feels the same way.	1210476	1471963983070	1471963983184	w	87
2455	25309	Reports said Clinton feels the same way.	Reports said Clinton feels the same way.	1210504	1471963983170	1471963983257	a	65
2455	25309	Reports said Clinton feels the same way.	Reports said Clinton feels the same way.	1210501	1471963983196	1471963983253	y	89
2455	25309	Reports said Clinton feels the same way.	Reports said Clinton feels the same way.	1210507	1471963983432	1471963983527	.	190
2455	25327	A bit behind on my emails.	A bit behind onmy emails. 	1210689	1471963985514	1471963985706	SHIFT	16
2455	25327	A bit behind on my emails.	A bit behind onmy emails. 	1210695	1471963985664	1471963985769	A	65
2455	25327	A bit behind on my emails.	A bit behind onmy emails. 	1210702	1471963985836	1471963985916	 	32
2455	25327	A bit behind on my emails.	A bit behind onmy emails. 	1210707	1471963986046	1471963986145	b	66
2455	25327	A bit behind on my emails.	A bit behind onmy emails. 	1210710	1471963986168	1471963986224	i	73
2455	25327	A bit behind on my emails.	A bit behind onmy emails. 	1210714	1471963986257	1471963986362	t	84
2455	25327	A bit behind on my emails.	A bit behind onmy emails. 	1210769	1471963986335	1471963986423	 	32
2455	25327	A bit behind on my emails.	A bit behind onmy emails. 	1210770	1471963986551	1471963986613	b	66
2455	25327	A bit behind on my emails.	A bit behind onmy emails. 	1210771	1471963986922	1471963986976	BKSP	8
2455	25327	A bit behind on my emails.	A bit behind onmy emails. 	1210772	1471963987338	1471963987415	b	66
2455	25327	A bit behind on my emails.	A bit behind onmy emails. 	1210773	1471963987433	1471963987511	e	69
2455	25327	A bit behind on my emails.	A bit behind onmy emails. 	1210774	1471963987526	1471963987607	h	72
2455	25327	A bit behind on my emails.	A bit behind onmy emails. 	1210815	1471963987583	1471963987730	i	73
2455	25327	A bit behind on my emails.	A bit behind onmy emails. 	1210820	1471963987688	1471963987775	n	78
2455	25327	A bit behind on my emails.	A bit behind onmy emails. 	1210822	1471963987762	1471963987879	d	68
2455	25327	A bit behind on my emails.	A bit behind onmy emails. 	1210828	1471963987867	1471963987926	 	32
2455	25327	A bit behind on my emails.	A bit behind onmy emails. 	1210831	1471963988336	1471963988402	BKSP	8
2455	25327	A bit behind on my emails.	A bit behind onmy emails. 	1210833	1471963988518	1471963988604	o	79
2455	25327	A bit behind on my emails.	A bit behind onmy emails. 	1210905	1471963988577	1471963988632	n	78
2455	25327	A bit behind on my emails.	A bit behind onmy emails. 	1210907	1471963988709	1471963988782	 	32
2455	25327	A bit behind on my emails.	A bit behind onmy emails. 	1210911	1471963988955	1471963988997	BKSP	8
2455	25327	A bit behind on my emails.	A bit behind onmy emails. 	1210914	1471963989092	1471963989144	BKSP	8
2455	25327	A bit behind on my emails.	A bit behind onmy emails. 	1210916	1471963989224	1471963989292	BKSP	8
2455	25327	A bit behind on my emails.	A bit behind onmy emails. 	1210918	1471963989378	1471963989431	 	32
2455	25327	A bit behind on my emails.	A bit behind onmy emails. 	1210920	1471963989470	1471963989558	o	79
2455	25327	A bit behind on my emails.	A bit behind onmy emails. 	1210924	1471963989548	1471963989612	n	78
2455	25327	A bit behind on my emails.	A bit behind onmy emails. 	1210929	1471963989710	1471963989791	m	77
2455	25327	A bit behind on my emails.	A bit behind onmy emails. 	1210939	1471963989840	1471963989945	y	89
2455	25327	A bit behind on my emails.	A bit behind onmy emails. 	1210941	1471963989911	1471963989984	 	32
2455	25327	A bit behind on my emails.	A bit behind onmy emails. 	1210944	1471963990061	1471963990167	e	69
2455	25327	A bit behind on my emails.	A bit behind onmy emails. 	1210947	1471963990158	1471963990231	m	77
2455	25327	A bit behind on my emails.	A bit behind onmy emails. 	1210949	1471963990271	1471963990383	a	65
2455	25327	A bit behind on my emails.	A bit behind onmy emails. 	1210963	1471963990358	1471963990405	i	73
2455	25327	A bit behind on my emails.	A bit behind onmy emails. 	1210974	1471963990488	1471963990561	l	76
2455	25327	A bit behind on my emails.	A bit behind onmy emails. 	1210983	1471963990573	1471963990683	s	83
2455	25327	A bit behind on my emails.	A bit behind onmy emails. 	1210992	1471963990659	1471963990793	.	190
2455	25340	We obviously have a lot to talk about.	We obviously have a lot to talk about.	1211280	1471963990746	1471963993344	 	32
2455	25340	We obviously have a lot to talk about.	We obviously have a lot to talk about.	1211270	1471963992924	1471963993061	SHIFT	16
2455	25340	We obviously have a lot to talk about.	We obviously have a lot to talk about.	1211274	1471963993024	1471963993096	W	87
2455	25340	We obviously have a lot to talk about.	We obviously have a lot to talk about.	1211277	1471963993197	1471963993316	e	69
2455	25340	We obviously have a lot to talk about.	We obviously have a lot to talk about.	1211281	1471963993722	1471963993780	o	79
2455	25340	We obviously have a lot to talk about.	We obviously have a lot to talk about.	1211283	1471963993939	1471963994042	b	66
2455	25340	We obviously have a lot to talk about.	We obviously have a lot to talk about.	1211287	1471963994376	1471963994513	v	86
2455	25340	We obviously have a lot to talk about.	We obviously have a lot to talk about.	1211368	1471963994494	1471963994568	i	73
2455	25340	We obviously have a lot to talk about.	We obviously have a lot to talk about.	1211371	1471963994656	1471963994767	o	79
2455	25340	We obviously have a lot to talk about.	We obviously have a lot to talk about.	1211376	1471963994730	1471963994815	u	85
2455	25340	We obviously have a lot to talk about.	We obviously have a lot to talk about.	1211384	1471963994859	1471963994977	s	83
2455	25340	We obviously have a lot to talk about.	We obviously have a lot to talk about.	1211390	1471963995523	1471963995615	l	76
2455	25340	We obviously have a lot to talk about.	We obviously have a lot to talk about.	1211395	1471963995644	1471963995759	y	89
2455	25340	We obviously have a lot to talk about.	We obviously have a lot to talk about.	1211425	1471963995739	1471963995833	 	32
2455	25340	We obviously have a lot to talk about.	We obviously have a lot to talk about.	1211426	1471963995964	1471963996049	h	72
2455	25340	We obviously have a lot to talk about.	We obviously have a lot to talk about.	1211429	1471963996053	1471963996200	a	65
2455	25340	We obviously have a lot to talk about.	We obviously have a lot to talk about.	1211434	1471963996165	1471963996295	v	86
2455	25340	We obviously have a lot to talk about.	We obviously have a lot to talk about.	1211440	1471963996252	1471963996320	e	69
2455	25340	We obviously have a lot to talk about.	We obviously have a lot to talk about.	1211480	1471963996315	1471963996392	 	32
2455	25340	We obviously have a lot to talk about.	We obviously have a lot to talk about.	1211485	1471963996410	1471963996494	a	65
2455	25340	We obviously have a lot to talk about.	We obviously have a lot to talk about.	1211489	1471963996476	1471963996560	 	32
2455	25340	We obviously have a lot to talk about.	We obviously have a lot to talk about.	1211493	1471963996630	1471963996676	l	76
2455	25340	We obviously have a lot to talk about.	We obviously have a lot to talk about.	1211496	1471963996788	1471963996861	o	79
2455	25340	We obviously have a lot to talk about.	We obviously have a lot to talk about.	1211662	1471963996857	1471963996967	t	84
2455	25340	We obviously have a lot to talk about.	We obviously have a lot to talk about.	1211665	1471963996930	1471963997011	 	32
2455	25340	We obviously have a lot to talk about.	We obviously have a lot to talk about.	1211671	1471963997073	1471963997134	o	79
2455	25340	We obviously have a lot to talk about.	We obviously have a lot to talk about.	1211674	1471963997119	1471963997207	f	70
2455	25340	We obviously have a lot to talk about.	We obviously have a lot to talk about.	1211678	1471963997260	1471963997313	 	32
2455	25340	We obviously have a lot to talk about.	We obviously have a lot to talk about.	1211685	1471963997495	1471963997546	BKSP	8
2455	25340	We obviously have a lot to talk about.	We obviously have a lot to talk about.	1211689	1471963997638	1471963997701	BKSP	8
2455	25340	We obviously have a lot to talk about.	We obviously have a lot to talk about.	1211694	1471963997809	1471963997862	BKSP	8
2455	25340	We obviously have a lot to talk about.	We obviously have a lot to talk about.	1211700	1471963998552	1471963998639	BKSP	8
2455	25340	We obviously have a lot to talk about.	We obviously have a lot to talk about.	1211706	1471963998698	1471963998814	t	84
2455	25340	We obviously have a lot to talk about.	We obviously have a lot to talk about.	1211760	1471963998783	1471963998851	o	79
2455	25340	We obviously have a lot to talk about.	We obviously have a lot to talk about.	1211761	1471963998910	1471963998993	 	32
2455	25340	We obviously have a lot to talk about.	We obviously have a lot to talk about.	1211764	1471963999203	1471963999245	BKSP	8
2455	25340	We obviously have a lot to talk about.	We obviously have a lot to talk about.	1211768	1471963999329	1471963999392	BKSP	8
2455	25340	We obviously have a lot to talk about.	We obviously have a lot to talk about.	1211776	1471963999477	1471963999539	BKSP	8
2455	25340	We obviously have a lot to talk about.	We obviously have a lot to talk about.	1211779	1471963999784	1471963999857	 	32
2455	25340	We obviously have a lot to talk about.	We obviously have a lot to talk about.	1211785	1471963999945	1471964000043	t	84
2455	25340	We obviously have a lot to talk about.	We obviously have a lot to talk about.	1211790	1471963999983	1471964000046	o	79
2455	25340	We obviously have a lot to talk about.	We obviously have a lot to talk about.	1211796	1471964000094	1471964000158	 	32
2455	25340	We obviously have a lot to talk about.	We obviously have a lot to talk about.	1211800	1471964000191	1471964000326	t	84
2455	25340	We obviously have a lot to talk about.	We obviously have a lot to talk about.	1211803	1471964000288	1471964000398	a	65
2455	25340	We obviously have a lot to talk about.	We obviously have a lot to talk about.	1211807	1471964000358	1471964000469	l	76
2455	25340	We obviously have a lot to talk about.	We obviously have a lot to talk about.	1211811	1471964000411	1471964000495	k	75
2455	25340	We obviously have a lot to talk about.	We obviously have a lot to talk about.	1211814	1471964000510	1471964000618	e	69
2455	25340	We obviously have a lot to talk about.	We obviously have a lot to talk about.	1211937	1471964000592	1471964000647	 	32
2455	25340	We obviously have a lot to talk about.	We obviously have a lot to talk about.	1211945	1471964000719	1471964000834	a	65
2455	25340	We obviously have a lot to talk about.	We obviously have a lot to talk about.	1211941	1471964000767	1471964000815	b	66
2455	25340	We obviously have a lot to talk about.	We obviously have a lot to talk about.	1211948	1471964000894	1471964000988	o	79
2455	25340	We obviously have a lot to talk about.	We obviously have a lot to talk about.	1211952	1471964000953	1471964001041	u	85
2455	25340	We obviously have a lot to talk about.	We obviously have a lot to talk about.	1211958	1471964001220	1471964001262	BKSP	8
2455	25340	We obviously have a lot to talk about.	We obviously have a lot to talk about.	1211963	1471964001351	1471964001409	BKSP	8
2455	25340	We obviously have a lot to talk about.	We obviously have a lot to talk about.	1211969	1471964001499	1471964001556	BKSP	8
2455	25340	We obviously have a lot to talk about.	We obviously have a lot to talk about.	1211974	1471964001655	1471964001706	BKSP	8
2455	25340	We obviously have a lot to talk about.	We obviously have a lot to talk about.	1211981	1471964001797	1471964001860	BKSP	8
2455	25340	We obviously have a lot to talk about.	We obviously have a lot to talk about.	1211985	1471964001939	1471964002021	BKSP	8
2455	25340	We obviously have a lot to talk about.	We obviously have a lot to talk about.	1211988	1471964002181	1471964002254	 	32
2455	25340	We obviously have a lot to talk about.	We obviously have a lot to talk about.	1211964	1471964002290	1471964002395	a	65
2455	25340	We obviously have a lot to talk about.	We obviously have a lot to talk about.	1211968	1471964002374	1471964002438	b	66
2455	25340	We obviously have a lot to talk about.	We obviously have a lot to talk about.	1211973	1471964002496	1471964002584	o	79
2455	25340	We obviously have a lot to talk about.	We obviously have a lot to talk about.	1211979	1471964002563	1471964002634	u	85
2455	25340	We obviously have a lot to talk about.	We obviously have a lot to talk about.	1212003	1471964002630	1471964002701	t	84
2455	25340	We obviously have a lot to talk about.	We obviously have a lot to talk about.	1212006	1471964002716	1471964002815	.	190
2455	25356	Currently, we are focusing our resources on domestic sites.	Currently, we are focusing our resources on domestic sites. 	1212203	1471964004953	1471964005167	SHIFT	16
2455	25356	Currently, we are focusing our resources on domestic sites.	Currently, we are focusing our resources on domestic sites. 	1212207	1471964005120	1471964005262	C	67
2455	25356	Currently, we are focusing our resources on domestic sites.	Currently, we are focusing our resources on domestic sites. 	1212210	1471964005324	1471964005388	u	85
2455	25356	Currently, we are focusing our resources on domestic sites.	Currently, we are focusing our resources on domestic sites. 	1212216	1471964005399	1471964005441	r	82
2455	25356	Currently, we are focusing our resources on domestic sites.	Currently, we are focusing our resources on domestic sites. 	1212220	1471964005535	1471964005611	r	82
2455	25356	Currently, we are focusing our resources on domestic sites.	Currently, we are focusing our resources on domestic sites. 	1212223	1471964005698	1471964005818	e	69
2455	25356	Currently, we are focusing our resources on domestic sites.	Currently, we are focusing our resources on domestic sites. 	1212305	1471964005813	1471964005892	n	78
2455	25356	Currently, we are focusing our resources on domestic sites.	Currently, we are focusing our resources on domestic sites. 	1212307	1471964005903	1471964006000	r	82
2455	25356	Currently, we are focusing our resources on domestic sites.	Currently, we are focusing our resources on domestic sites. 	1212310	1471964006461	1471964006511	BKSP	8
2455	25356	Currently, we are focusing our resources on domestic sites.	Currently, we are focusing our resources on domestic sites. 	1212313	1471964006659	1471964006753	t	84
2455	25356	Currently, we are focusing our resources on domestic sites.	Currently, we are focusing our resources on domestic sites. 	1212317	1471964006759	1471964006832	l	76
2455	25356	Currently, we are focusing our resources on domestic sites.	Currently, we are focusing our resources on domestic sites. 	1212324	1471964006877	1471964006963	y	89
2455	25356	Currently, we are focusing our resources on domestic sites.	Currently, we are focusing our resources on domestic sites. 	1212328	1471964007162	1471964007270	,	188
2455	25356	Currently, we are focusing our resources on domestic sites.	Currently, we are focusing our resources on domestic sites. 	1212349	1471964007226	1471964007330	 	32
2455	25356	Currently, we are focusing our resources on domestic sites.	Currently, we are focusing our resources on domestic sites. 	1212355	1471964007539	1471964007656	w	87
2455	25356	Currently, we are focusing our resources on domestic sites.	Currently, we are focusing our resources on domestic sites. 	1212358	1471964007614	1471964007719	e	69
2455	25356	Currently, we are focusing our resources on domestic sites.	Currently, we are focusing our resources on domestic sites. 	1212364	1471964007693	1471964007761	 	32
2455	25356	Currently, we are focusing our resources on domestic sites.	Currently, we are focusing our resources on domestic sites. 	1212369	1471964007775	1471964007888	a	65
2455	25356	Currently, we are focusing our resources on domestic sites.	Currently, we are focusing our resources on domestic sites. 	1212377	1471964007869	1471964007989	r	82
2455	25356	Currently, we are focusing our resources on domestic sites.	Currently, we are focusing our resources on domestic sites. 	1212381	1471964007952	1471964008034	e	69
2455	25356	Currently, we are focusing our resources on domestic sites.	Currently, we are focusing our resources on domestic sites. 	1212385	1471964007985	1471964008079	 	32
2455	25356	Currently, we are focusing our resources on domestic sites.	Currently, we are focusing our resources on domestic sites. 	1212390	1471964008118	1471964008218	f	70
2455	25356	Currently, we are focusing our resources on domestic sites.	Currently, we are focusing our resources on domestic sites. 	1212399	1471964008203	1471964008273	o	79
2455	25356	Currently, we are focusing our resources on domestic sites.	Currently, we are focusing our resources on domestic sites. 	1212405	1471964008323	1471964008454	c	67
2455	25356	Currently, we are focusing our resources on domestic sites.	Currently, we are focusing our resources on domestic sites. 	1212479	1471964008481	1471964008510	u	73
2455	25356	Currently, we are focusing our resources on domestic sites.	Currently, we are focusing our resources on domestic sites. 	1212482	1471964008560	1471964008695	s	83
2455	25356	Currently, we are focusing our resources on domestic sites.	Currently, we are focusing our resources on domestic sites. 	1212488	1471964008979	1471964009031	BKSP	8
2455	25356	Currently, we are focusing our resources on domestic sites.	Currently, we are focusing our resources on domestic sites. 	1212493	1471964009116	1471964009179	BKSP	8
2455	25356	Currently, we are focusing our resources on domestic sites.	Currently, we are focusing our resources on domestic sites. 	1212498	1471964009242	1471964009307	BKSP	8
2455	25356	Currently, we are focusing our resources on domestic sites.	Currently, we are focusing our resources on domestic sites. 	1212503	1471964009457	1471964009520	u	85
2455	25356	Currently, we are focusing our resources on domestic sites.	Currently, we are focusing our resources on domestic sites. 	1212506	1471964009536	1471964009651	s	83
2455	25356	Currently, we are focusing our resources on domestic sites.	Currently, we are focusing our resources on domestic sites. 	1212535	1471964009619	1471964009730	i	73
2455	25356	Currently, we are focusing our resources on domestic sites.	Currently, we are focusing our resources on domestic sites. 	1212539	1471964009694	1471964009777	n	78
2455	25356	Currently, we are focusing our resources on domestic sites.	Currently, we are focusing our resources on domestic sites. 	1212544	1471964009763	1471964009866	g	71
2455	25356	Currently, we are focusing our resources on domestic sites.	Currently, we are focusing our resources on domestic sites. 	1212549	1471964009861	1471964009955	 	32
2455	25356	Currently, we are focusing our resources on domestic sites.	Currently, we are focusing our resources on domestic sites. 	1212554	1471964010329	1471964010462	o	79
2455	25356	Currently, we are focusing our resources on domestic sites.	Currently, we are focusing our resources on domestic sites. 	1212573	1471964010397	1471964010484	u	85
2455	25356	Currently, we are focusing our resources on domestic sites.	Currently, we are focusing our resources on domestic sites. 	1212578	1471964010524	1471964010620	r	82
2455	25356	Currently, we are focusing our resources on domestic sites.	Currently, we are focusing our resources on domestic sites. 	1212581	1471964010592	1471964010694	 	32
2455	25356	Currently, we are focusing our resources on domestic sites.	Currently, we are focusing our resources on domestic sites. 	1212586	1471964010715	1471964010830	r	82
2455	25356	Currently, we are focusing our resources on domestic sites.	Currently, we are focusing our resources on domestic sites. 	1212591	1471964010788	1471964010868	e	69
2455	25356	Currently, we are focusing our resources on domestic sites.	Currently, we are focusing our resources on domestic sites. 	1212597	1471964010980	1471964011053	s	83
2455	25356	Currently, we are focusing our resources on domestic sites.	Currently, we are focusing our resources on domestic sites. 	1212637	1471964011292	1471964011416	o	79
2455	25356	Currently, we are focusing our resources on domestic sites.	Currently, we are focusing our resources on domestic sites. 	1212641	1471964011355	1471964011451	u	85
2455	25356	Currently, we are focusing our resources on domestic sites.	Currently, we are focusing our resources on domestic sites. 	1212647	1471964011447	1471964011555	r	82
2455	25356	Currently, we are focusing our resources on domestic sites.	Currently, we are focusing our resources on domestic sites. 	1212652	1471964011730	1471964011856	c	67
2455	25356	Currently, we are focusing our resources on domestic sites.	Currently, we are focusing our resources on domestic sites. 	1212705	1471964011814	1471964011914	e	69
2455	25356	Currently, we are focusing our resources on domestic sites.	Currently, we are focusing our resources on domestic sites. 	1212707	1471964012003	1471964012097	s	83
2455	25356	Currently, we are focusing our resources on domestic sites.	Currently, we are focusing our resources on domestic sites. 	1212711	1471964012108	1471964012209	 	32
2455	25356	Currently, we are focusing our resources on domestic sites.	Currently, we are focusing our resources on domestic sites. 	1212717	1471964012406	1471964012542	o	79
2455	25356	Currently, we are focusing our resources on domestic sites.	Currently, we are focusing our resources on domestic sites. 	1212720	1471964012523	1471964012597	n	78
2455	25356	Currently, we are focusing our resources on domestic sites.	Currently, we are focusing our resources on domestic sites. 	1212725	1471964012696	1471964012773	 	32
2455	25356	Currently, we are focusing our resources on domestic sites.	Currently, we are focusing our resources on domestic sites. 	1212784	1471964012853	1471964012980	d	68
2455	25356	Currently, we are focusing our resources on domestic sites.	Currently, we are focusing our resources on domestic sites. 	1212787	1471964013105	1471964013210	o	79
2455	25356	Currently, we are focusing our resources on domestic sites.	Currently, we are focusing our resources on domestic sites. 	1212790	1471964013172	1471964013267	m	77
2455	25356	Currently, we are focusing our resources on domestic sites.	Currently, we are focusing our resources on domestic sites. 	1212794	1471964013414	1471964013500	e	69
2455	25356	Currently, we are focusing our resources on domestic sites.	Currently, we are focusing our resources on domestic sites. 	1212799	1471964013663	1471964013772	s	83
2455	25356	Currently, we are focusing our resources on domestic sites.	Currently, we are focusing our resources on domestic sites. 	1212835	1471964013855	1471964013946	t	84
2455	25356	Currently, we are focusing our resources on domestic sites.	Currently, we are focusing our resources on domestic sites. 	1212836	1471964013936	1471964014009	i	73
2455	25356	Currently, we are focusing our resources on domestic sites.	Currently, we are focusing our resources on domestic sites. 	1212838	1471964014075	1471964014209	c	67
2455	25356	Currently, we are focusing our resources on domestic sites.	Currently, we are focusing our resources on domestic sites. 	1212841	1471964014432	1471964014506	 	32
2455	25356	Currently, we are focusing our resources on domestic sites.	Currently, we are focusing our resources on domestic sites. 	1212844	1471964014597	1471964014727	s	83
2455	25356	Currently, we are focusing our resources on domestic sites.	Currently, we are focusing our resources on domestic sites. 	1212869	1471964014765	1471964014837	i	73
2455	25356	Currently, we are focusing our resources on domestic sites.	Currently, we are focusing our resources on domestic sites. 	1212873	1471964014786	1471964014936	t	84
2455	25356	Currently, we are focusing our resources on domestic sites.	Currently, we are focusing our resources on domestic sites. 	1212876	1471964014912	1471964015009	e	69
2455	25356	Currently, we are focusing our resources on domestic sites.	Currently, we are focusing our resources on domestic sites. 	1212880	1471964015122	1471964015201	s	83
2455	25356	Currently, we are focusing our resources on domestic sites.	Currently, we are focusing our resources on domestic sites. 	1212885	1471964015206	1471964015297	.	190
2455	25376	I will not make the meeting at 1 PM.	I will not make the meeting at 1 PM. 	1213018	1471964015249	1471964017527	 	32
2455	25376	I will not make the meeting at 1 PM.	I will not make the meeting at 1 PM. 	1213013	1471964016924	1471964017336	SHIFT	16
2455	25376	I will not make the meeting at 1 PM.	I will not make the meeting at 1 PM. 	1213010	1471964017257	1471964017312	I	73
2455	25376	I will not make the meeting at 1 PM.	I will not make the meeting at 1 PM. 	1213023	1471964017548	1471964017642	w	87
2455	25376	I will not make the meeting at 1 PM.	I will not make the meeting at 1 PM. 	1213031	1471964017617	1471964017691	i	73
2455	25376	I will not make the meeting at 1 PM.	I will not make the meeting at 1 PM. 	1213037	1471964017785	1471964017842	l	76
2455	25376	I will not make the meeting at 1 PM.	I will not make the meeting at 1 PM. 	1213044	1471964017911	1471964017999	l	76
2455	25376	I will not make the meeting at 1 PM.	I will not make the meeting at 1 PM. 	1213064	1471964018244	1471964018352	n	78
2455	25376	I will not make the meeting at 1 PM.	I will not make the meeting at 1 PM. 	1213068	1471964018304	1471964018411	o	79
2455	25376	I will not make the meeting at 1 PM.	I will not make the meeting at 1 PM. 	1213074	1471964018409	1471964018531	t	84
2455	25376	I will not make the meeting at 1 PM.	I will not make the meeting at 1 PM. 	1213080	1471964018504	1471964018620	e	69
2455	25376	I will not make the meeting at 1 PM.	I will not make the meeting at 1 PM. 	1213152	1471964018577	1471964018667	 	32
2455	25376	I will not make the meeting at 1 PM.	I will not make the meeting at 1 PM. 	1213156	1471964018980	1471964019032	BKSP	8
2455	25376	I will not make the meeting at 1 PM.	I will not make the meeting at 1 PM. 	1213161	1471964019108	1471964019171	BKSP	8
2455	25376	I will not make the meeting at 1 PM.	I will not make the meeting at 1 PM. 	1213173	1471964019264	1471964019318	BKSP	8
2455	25376	I will not make the meeting at 1 PM.	I will not make the meeting at 1 PM. 	1213184	1471964019407	1471964019465	BKSP	8
2455	25376	I will not make the meeting at 1 PM.	I will not make the meeting at 1 PM. 	1213193	1471964019546	1471964019618	BKSP	8
2455	25376	I will not make the meeting at 1 PM.	I will not make the meeting at 1 PM. 	1213201	1471964019733	1471964019788	 	32
2455	25376	I will not make the meeting at 1 PM.	I will not make the meeting at 1 PM. 	1213210	1471964019878	1471964019977	n	78
2455	25376	I will not make the meeting at 1 PM.	I will not make the meeting at 1 PM. 	1213219	1471964019942	1471964020018	o	79
2455	25376	I will not make the meeting at 1 PM.	I will not make the meeting at 1 PM. 	1213228	1471964020009	1471964020114	t	84
2455	25376	I will not make the meeting at 1 PM.	I will not make the meeting at 1 PM. 	1213212	1471964020085	1471964020163	 	32
2455	25376	I will not make the meeting at 1 PM.	I will not make the meeting at 1 PM. 	1213220	1471964020257	1471964020320	m	77
2455	25376	I will not make the meeting at 1 PM.	I will not make the meeting at 1 PM. 	1213226	1471964020334	1471964020421	a	65
2455	25376	I will not make the meeting at 1 PM.	I will not make the meeting at 1 PM. 	1213232	1471964020426	1471964020503	k	75
2455	25376	I will not make the meeting at 1 PM.	I will not make the meeting at 1 PM. 	1213239	1471964020534	1471964020639	e	69
2455	25376	I will not make the meeting at 1 PM.	I will not make the meeting at 1 PM. 	1213258	1471964020631	1471964020709	 	32
2455	25376	I will not make the meeting at 1 PM.	I will not make the meeting at 1 PM. 	1213260	1471964020751	1471964020867	t	84
2455	25376	I will not make the meeting at 1 PM.	I will not make the meeting at 1 PM. 	1213262	1471964020845	1471964020914	h	72
2455	25376	I will not make the meeting at 1 PM.	I will not make the meeting at 1 PM. 	1213263	1471964020930	1471964021020	e	69
2455	25376	I will not make the meeting at 1 PM.	I will not make the meeting at 1 PM. 	1213265	1471964020998	1471964021083	 	32
2455	25376	I will not make the meeting at 1 PM.	I will not make the meeting at 1 PM. 	1213267	1471964021174	1471964021251	m	77
2455	25376	I will not make the meeting at 1 PM.	I will not make the meeting at 1 PM. 	1213276	1471964021245	1471964021324	e	69
2455	25376	I will not make the meeting at 1 PM.	I will not make the meeting at 1 PM. 	1213278	1471964021395	1471964021481	e	69
2455	25376	I will not make the meeting at 1 PM.	I will not make the meeting at 1 PM. 	1213283	1471964021528	1471964021626	t	84
2455	25376	I will not make the meeting at 1 PM.	I will not make the meeting at 1 PM. 	1213288	1471964021618	1471964021713	i	73
2455	25376	I will not make the meeting at 1 PM.	I will not make the meeting at 1 PM. 	1213293	1471964021657	1471964021744	n	78
2455	25376	I will not make the meeting at 1 PM.	I will not make the meeting at 1 PM. 	1213297	1471964021763	1471964021886	g	71
2455	25376	I will not make the meeting at 1 PM.	I will not make the meeting at 1 PM. 	1213352	1471964021865	1471964021948	 	32
2455	25376	I will not make the meeting at 1 PM.	I will not make the meeting at 1 PM. 	1213355	1471964022038	1471964022161	a	65
2455	25376	I will not make the meeting at 1 PM.	I will not make the meeting at 1 PM. 	1213359	1471964022116	1471964022238	t	84
2455	25376	I will not make the meeting at 1 PM.	I will not make the meeting at 1 PM. 	1213362	1471964022193	1471964022284	 	32
2455	25376	I will not make the meeting at 1 PM.	I will not make the meeting at 1 PM. 	1213366	1471964022615	1471964022679	1	49
2455	25376	I will not make the meeting at 1 PM.	I will not make the meeting at 1 PM. 	1213368	1471964022704	1471964022778	 	32
2455	25376	I will not make the meeting at 1 PM.	I will not make the meeting at 1 PM. 	1213418	1471964023386	1471964023954	SHIFT	16
2455	25376	I will not make the meeting at 1 PM.	I will not make the meeting at 1 PM. 	1213406	1471964023524	1471964023603	P	80
2455	25376	I will not make the meeting at 1 PM.	I will not make the meeting at 1 PM. 	1213410	1471964023852	1471964023926	M	77
2455	25376	I will not make the meeting at 1 PM.	I will not make the meeting at 1 PM. 	1213423	1471964024126	1471964024230	.	190
2455	25386	He is close to full speed, says the Charlotte Observer.	He is close to full speed, says the Charlotte Observer. 	1213604	1471964024195	1471964026950	 	32
2455	25386	He is close to full speed, says the Charlotte Observer.	He is close to full speed, says the Charlotte Observer. 	1213594	1471964026170	1471964026600	SHIFT	16
2455	25386	He is close to full speed, says the Charlotte Observer.	He is close to full speed, says the Charlotte Observer. 	1213590	1471964026474	1471964026522	H	72
2455	25386	He is close to full speed, says the Charlotte Observer.	He is close to full speed, says the Charlotte Observer. 	1213599	1471964026768	1471964026884	e	69
2455	25386	He is close to full speed, says the Charlotte Observer.	He is close to full speed, says the Charlotte Observer. 	1213608	1471964027020	1471964027089	i	73
2455	25386	He is close to full speed, says the Charlotte Observer.	He is close to full speed, says the Charlotte Observer. 	1213611	1471964027097	1471964027199	s	83
2455	25386	He is close to full speed, says the Charlotte Observer.	He is close to full speed, says the Charlotte Observer. 	1213620	1471964027188	1471964027276	 	32
2455	25386	He is close to full speed, says the Charlotte Observer.	He is close to full speed, says the Charlotte Observer. 	1213623	1471964027297	1471964027447	c	67
2455	25386	He is close to full speed, says the Charlotte Observer.	He is close to full speed, says the Charlotte Observer. 	1213626	1471964027383	1471964027457	l	76
2455	25386	He is close to full speed, says the Charlotte Observer.	He is close to full speed, says the Charlotte Observer. 	1213631	1471964027545	1471964027619	o	79
2455	25386	He is close to full speed, says the Charlotte Observer.	He is close to full speed, says the Charlotte Observer. 	1213635	1471964027629	1471964027709	s	83
2455	25386	He is close to full speed, says the Charlotte Observer.	He is close to full speed, says the Charlotte Observer. 	1213659	1471964027702	1471964027840	e	69
2455	25386	He is close to full speed, says the Charlotte Observer.	He is close to full speed, says the Charlotte Observer. 	1213664	1471964027833	1471964027913	 	32
2455	25386	He is close to full speed, says the Charlotte Observer.	He is close to full speed, says the Charlotte Observer. 	1213671	1471964027976	1471964028095	t	84
2455	25386	He is close to full speed, says the Charlotte Observer.	He is close to full speed, says the Charlotte Observer. 	1213675	1471964028034	1471964028100	o	79
2455	25386	He is close to full speed, says the Charlotte Observer.	He is close to full speed, says the Charlotte Observer. 	1213679	1471964028127	1471964028208	 	32
2455	25386	He is close to full speed, says the Charlotte Observer.	He is close to full speed, says the Charlotte Observer. 	1213684	1471964028302	1471964028429	f	70
2455	25386	He is close to full speed, says the Charlotte Observer.	He is close to full speed, says the Charlotte Observer. 	1213722	1471964028433	1471964028496	i	73
2455	25386	He is close to full speed, says the Charlotte Observer.	He is close to full speed, says the Charlotte Observer. 	1213725	1471964028578	1471964028648	l	76
2455	25386	He is close to full speed, says the Charlotte Observer.	He is close to full speed, says the Charlotte Observer. 	1213726	1471964028725	1471964028808	l	76
2455	25386	He is close to full speed, says the Charlotte Observer.	He is close to full speed, says the Charlotte Observer. 	1213727	1471964029037	1471964029079	BKSP	8
2455	25386	He is close to full speed, says the Charlotte Observer.	He is close to full speed, says the Charlotte Observer. 	1213728	1471964029166	1471964029216	BKSP	8
2455	25386	He is close to full speed, says the Charlotte Observer.	He is close to full speed, says the Charlotte Observer. 	1213730	1471964029282	1471964029358	BKSP	8
2455	25386	He is close to full speed, says the Charlotte Observer.	He is close to full speed, says the Charlotte Observer. 	1213734	1471964029457	1471964029530	u	85
2455	25386	He is close to full speed, says the Charlotte Observer.	He is close to full speed, says the Charlotte Observer. 	1213737	1471964029568	1471964029659	l	76
2455	25386	He is close to full speed, says the Charlotte Observer.	He is close to full speed, says the Charlotte Observer. 	1213751	1471964029720	1471964029835	l	76
2455	25386	He is close to full speed, says the Charlotte Observer.	He is close to full speed, says the Charlotte Observer. 	1213754	1471964029820	1471964029908	 	32
2455	25386	He is close to full speed, says the Charlotte Observer.	He is close to full speed, says the Charlotte Observer. 	1213757	1471964029943	1471964030035	s	83
2455	25386	He is close to full speed, says the Charlotte Observer.	He is close to full speed, says the Charlotte Observer. 	1213762	1471964030019	1471964030080	p	80
2455	25386	He is close to full speed, says the Charlotte Observer.	He is close to full speed, says the Charlotte Observer. 	1213768	1471964030132	1471964030195	e	69
2455	25386	He is close to full speed, says the Charlotte Observer.	He is close to full speed, says the Charlotte Observer. 	1213819	1471964030274	1471964030355	e	69
2455	25386	He is close to full speed, says the Charlotte Observer.	He is close to full speed, says the Charlotte Observer. 	1213820	1471964030418	1471964030475	n	78
2455	25386	He is close to full speed, says the Charlotte Observer.	He is close to full speed, says the Charlotte Observer. 	1213823	1471964030784	1471964030838	BKSP	8
2455	25386	He is close to full speed, says the Charlotte Observer.	He is close to full speed, says the Charlotte Observer. 	1213826	1471964030848	1471964030962	d	68
2455	25386	He is close to full speed, says the Charlotte Observer.	He is close to full speed, says the Charlotte Observer. 	1213828	1471964031022	1471964031132	,	188
2455	25386	He is close to full speed, says the Charlotte Observer.	He is close to full speed, says the Charlotte Observer. 	1213863	1471964031091	1471964031179	 	32
2455	25386	He is close to full speed, says the Charlotte Observer.	He is close to full speed, says the Charlotte Observer. 	1213866	1471964031360	1471964031537	s	83
2455	25386	He is close to full speed, says the Charlotte Observer.	He is close to full speed, says the Charlotte Observer. 	1213871	1471964031452	1471964031573	a	65
2455	25386	He is close to full speed, says the Charlotte Observer.	He is close to full speed, says the Charlotte Observer. 	1213875	1471964031588	1471964031651	y	89
2455	25386	He is close to full speed, says the Charlotte Observer.	He is close to full speed, says the Charlotte Observer. 	1213880	1471964031684	1471964031813	s	83
2455	25386	He is close to full speed, says the Charlotte Observer.	He is close to full speed, says the Charlotte Observer. 	1213908	1471964031808	1471964031893	 	32
2455	25386	He is close to full speed, says the Charlotte Observer.	He is close to full speed, says the Charlotte Observer. 	1213909	1471964031903	1471964032035	t	84
2455	25386	He is close to full speed, says the Charlotte Observer.	He is close to full speed, says the Charlotte Observer. 	1213911	1471964032015	1471964032088	h	72
2455	25386	He is close to full speed, says the Charlotte Observer.	He is close to full speed, says the Charlotte Observer. 	1213913	1471964032082	1471964032200	e	69
2455	25386	He is close to full speed, says the Charlotte Observer.	He is close to full speed, says the Charlotte Observer. 	1213917	1471964032186	1471964032291	 	32
2455	25386	He is close to full speed, says the Charlotte Observer.	He is close to full speed, says the Charlotte Observer. 	1213919	1471964032411	1471964032575	SHIFT	16
2455	25386	He is close to full speed, says the Charlotte Observer.	He is close to full speed, says the Charlotte Observer. 	1213956	1471964032492	1471964032610	C	67
2455	25386	He is close to full speed, says the Charlotte Observer.	He is close to full speed, says the Charlotte Observer. 	1213958	1471964032680	1471964032744	h	72
2455	25386	He is close to full speed, says the Charlotte Observer.	He is close to full speed, says the Charlotte Observer. 	1213963	1471964032712	1471964032869	a	65
2455	25386	He is close to full speed, says the Charlotte Observer.	He is close to full speed, says the Charlotte Observer. 	1213969	1471964032831	1471964032944	r	82
2455	25386	He is close to full speed, says the Charlotte Observer.	He is close to full speed, says the Charlotte Observer. 	1213973	1471964033147	1471964033216	l	76
2455	25386	He is close to full speed, says the Charlotte Observer.	He is close to full speed, says the Charlotte Observer. 	1213975	1471964033317	1471964033390	o	79
2455	25386	He is close to full speed, says the Charlotte Observer.	He is close to full speed, says the Charlotte Observer. 	1214034	1471964033405	1471964033458	t	84
2455	25386	He is close to full speed, says the Charlotte Observer.	He is close to full speed, says the Charlotte Observer. 	1214035	1471964033537	1471964033659	t	84
2455	25386	He is close to full speed, says the Charlotte Observer.	He is close to full speed, says the Charlotte Observer. 	1214039	1471964033658	1471964033779	e	69
2455	25386	He is close to full speed, says the Charlotte Observer.	He is close to full speed, says the Charlotte Observer. 	1214042	1471964033763	1471964033847	 	32
2455	25386	He is close to full speed, says the Charlotte Observer.	He is close to full speed, says the Charlotte Observer. 	1214044	1471964034356	1471964034624	SHIFT	16
2455	25386	He is close to full speed, says the Charlotte Observer.	He is close to full speed, says the Charlotte Observer. 	1214082	1471964034587	1471964034655	O	79
2455	25386	He is close to full speed, says the Charlotte Observer.	He is close to full speed, says the Charlotte Observer. 	1214083	1471964034718	1471964034791	v	86
2455	25386	He is close to full speed, says the Charlotte Observer.	He is close to full speed, says the Charlotte Observer. 	1214086	1471964035076	1471964035159	BKSP	8
2455	25386	He is close to full speed, says the Charlotte Observer.	He is close to full speed, says the Charlotte Observer. 	1214089	1471964035154	1471964035246	b	66
2455	25386	He is close to full speed, says the Charlotte Observer.	He is close to full speed, says the Charlotte Observer. 	1214091	1471964035446	1471964035512	s	83
2455	25386	He is close to full speed, says the Charlotte Observer.	He is close to full speed, says the Charlotte Observer. 	1214092	1471964035616	1471964035716	e	69
2455	25386	He is close to full speed, says the Charlotte Observer.	He is close to full speed, says the Charlotte Observer. 	1214126	1471964035685	1471964035780	r	82
2455	25386	He is close to full speed, says the Charlotte Observer.	He is close to full speed, says the Charlotte Observer. 	1214129	1471964035894	1471964035978	v	86
2455	25386	He is close to full speed, says the Charlotte Observer.	He is close to full speed, says the Charlotte Observer. 	1214132	1471964036036	1471964036141	e	69
2455	25386	He is close to full speed, says the Charlotte Observer.	He is close to full speed, says the Charlotte Observer. 	1214135	1471964036110	1471964036210	r	82
2455	25386	He is close to full speed, says the Charlotte Observer.	He is close to full speed, says the Charlotte Observer. 	1214137	1471964036178	1471964036288	.	190
2455	25404	I do not want to repeat.	I do not want to repeat. 	1214329	1471964036273	1471964038775	 	32
2455	25404	I do not want to repeat.	I do not want to repeat. 	1214327	1471964038211	1471964038568	SHIFT	16
2455	25404	I do not want to repeat.	I do not want to repeat. 	1214325	1471964038509	1471964038554	I	73
2455	25404	I do not want to repeat.	I do not want to repeat. 	1214334	1471964038803	1471964038917	d	68
2455	25404	I do not want to repeat.	I do not want to repeat. 	1214337	1471964038877	1471964038943	o	79
2455	25404	I do not want to repeat.	I do not want to repeat. 	1214340	1471964039072	1471964039130	 	32
2455	25404	I do not want to repeat.	I do not want to repeat. 	1214343	1471964039518	1471964039626	n	78
2455	25404	I do not want to repeat.	I do not want to repeat. 	1214367	1471964039591	1471964039680	o	79
2455	25404	I do not want to repeat.	I do not want to repeat. 	1214370	1471964039686	1471964039807	t	84
2455	25404	I do not want to repeat.	I do not want to repeat. 	1214372	1471964039759	1471964039839	 	32
2455	25404	I do not want to repeat.	I do not want to repeat. 	1214376	1471964039927	1471964040032	w	87
2455	25404	I do not want to repeat.	I do not want to repeat. 	1214379	1471964040049	1471964040147	a	65
2455	25404	I do not want to repeat.	I do not want to repeat. 	1214384	1471964040305	1471964040382	n	78
2455	25404	I do not want to repeat.	I do not want to repeat. 	1214437	1471964040427	1471964040515	t	84
2455	25404	I do not want to repeat.	I do not want to repeat. 	1214440	1471964041044	1471964041138	 	32
2455	25404	I do not want to repeat.	I do not want to repeat. 	1214443	1471964041222	1471964041327	t	84
2455	25404	I do not want to repeat.	I do not want to repeat. 	1214446	1471964041313	1471964041359	o	79
2455	25404	I do not want to repeat.	I do not want to repeat. 	1214450	1471964041387	1471964041471	 	32
2455	25404	I do not want to repeat.	I do not want to repeat. 	1214479	1471964041629	1471964041747	r	82
2455	25404	I do not want to repeat.	I do not want to repeat. 	1214485	1471964041704	1471964041818	e	69
2455	25404	I do not want to repeat.	I do not want to repeat. 	1214491	1471964041871	1471964041945	p	80
2455	25404	I do not want to repeat.	I do not want to repeat. 	1214495	1471964042220	1471964042388	e	69
2455	25404	I do not want to repeat.	I do not want to repeat. 	1214510	1471964042243	1471964042406	a	65
2455	25404	I do not want to repeat.	I do not want to repeat. 	1214511	1471964042365	1471964042490	t	84
2455	25404	I do not want to repeat.	I do not want to repeat. 	1214515	1471964042589	1471964042684	.	190
2455	25412	I think this move will not overcome the problem.	I think this move will not overcome the problem. 	1214670	1471964042643	1471964045212	 	32
2455	25412	I think this move will not overcome the problem.	I think this move will not overcome the problem. 	1214664	1471964044679	1471964045001	SHIFT	16
2455	25412	I think this move will not overcome the problem.	I think this move will not overcome the problem. 	1214668	1471964044926	1471964045006	I	73
2455	25412	I think this move will not overcome the problem.	I think this move will not overcome the problem. 	1214675	1471964045208	1471964045336	t	84
2455	25412	I think this move will not overcome the problem.	I think this move will not overcome the problem. 	1214680	1471964045297	1471964045394	h	72
2455	25412	I think this move will not overcome the problem.	I think this move will not overcome the problem. 	1214684	1471964045371	1471964045493	i	73
2455	25412	I think this move will not overcome the problem.	I think this move will not overcome the problem. 	1214718	1471964045489	1471964045568	n	78
2455	25412	I think this move will not overcome the problem.	I think this move will not overcome the problem. 	1214724	1471964045563	1471964045662	k	75
2455	25412	I think this move will not overcome the problem.	I think this move will not overcome the problem. 	1214731	1471964045630	1471964045745	 	32
2455	25412	I think this move will not overcome the problem.	I think this move will not overcome the problem. 	1214738	1471964045987	1471964046113	t	84
2455	25412	I think this move will not overcome the problem.	I think this move will not overcome the problem. 	1214741	1471964046071	1471964046164	h	72
2455	25412	I think this move will not overcome the problem.	I think this move will not overcome the problem. 	1214797	1471964046134	1471964046276	i	73
2455	25412	I think this move will not overcome the problem.	I think this move will not overcome the problem. 	1214802	1471964046599	1471964046712	s	83
2455	25412	I think this move will not overcome the problem.	I think this move will not overcome the problem. 	1214806	1471964046718	1471964046822	 	32
2455	25412	I think this move will not overcome the problem.	I think this move will not overcome the problem. 	1214809	1471964047172	1471964047293	m	77
2455	25412	I think this move will not overcome the problem.	I think this move will not overcome the problem. 	1214812	1471964047268	1471964047353	o	79
2455	25412	I think this move will not overcome the problem.	I think this move will not overcome the problem. 	1214849	1471964047347	1471964047503	v	86
2455	25412	I think this move will not overcome the problem.	I think this move will not overcome the problem. 	1214850	1471964047479	1471964047589	e	69
2455	25412	I think this move will not overcome the problem.	I think this move will not overcome the problem. 	1214852	1471964047526	1471964047615	 	32
2455	25412	I think this move will not overcome the problem.	I think this move will not overcome the problem. 	1214856	1471964047776	1471964047846	w	87
2455	25412	I think this move will not overcome the problem.	I think this move will not overcome the problem. 	1214862	1471964047856	1471964047930	i	73
2455	25412	I think this move will not overcome the problem.	I think this move will not overcome the problem. 	1214870	1471964048038	1471964048098	l	76
2455	25412	I think this move will not overcome the problem.	I think this move will not overcome the problem. 	1214893	1471964048161	1471964048245	l	76
2455	25412	I think this move will not overcome the problem.	I think this move will not overcome the problem. 	1214896	1471964048234	1471964048287	 	32
2455	25412	I think this move will not overcome the problem.	I think this move will not overcome the problem. 	1214899	1471964048406	1471964048502	n	78
2455	25412	I think this move will not overcome the problem.	I think this move will not overcome the problem. 	1214901	1471964048475	1471964048565	o	79
2455	25412	I think this move will not overcome the problem.	I think this move will not overcome the problem. 	1214940	1471964048558	1471964048686	t	84
2455	25412	I think this move will not overcome the problem.	I think this move will not overcome the problem. 	1214943	1471964048644	1471964048738	 	32
2455	25412	I think this move will not overcome the problem.	I think this move will not overcome the problem. 	1214947	1471964048986	1471964049070	o	79
2455	25412	I think this move will not overcome the problem.	I think this move will not overcome the problem. 	1214950	1471964049067	1471964049159	v	86
2455	25412	I think this move will not overcome the problem.	I think this move will not overcome the problem. 	1214954	1471964049235	1471964049337	e	69
2455	25412	I think this move will not overcome the problem.	I think this move will not overcome the problem. 	1214993	1471964049280	1471964049395	r	82
2455	25412	I think this move will not overcome the problem.	I think this move will not overcome the problem. 	1215000	1471964049526	1471964049647	c	67
2455	25412	I think this move will not overcome the problem.	I think this move will not overcome the problem. 	1215005	1471964049610	1471964049747	o	79
2455	25412	I think this move will not overcome the problem.	I think this move will not overcome the problem. 	1215008	1471964049683	1471964049761	m	77
2455	25412	I think this move will not overcome the problem.	I think this move will not overcome the problem. 	1215011	1471964049757	1471964049852	e	69
2455	25412	I think this move will not overcome the problem.	I think this move will not overcome the problem. 	1215016	1471964049873	1471964049957	 	32
2455	25412	I think this move will not overcome the problem.	I think this move will not overcome the problem. 	1215043	1471964050014	1471964050128	t	84
2455	25412	I think this move will not overcome the problem.	I think this move will not overcome the problem. 	1215049	1471964050097	1471964050172	h	72
2455	25412	I think this move will not overcome the problem.	I think this move will not overcome the problem. 	1215054	1471964050191	1471964050288	e	69
2455	25412	I think this move will not overcome the problem.	I think this move will not overcome the problem. 	1215058	1471964050256	1471964050351	 	32
2455	25412	I think this move will not overcome the problem.	I think this move will not overcome the problem. 	1215060	1471964050429	1471964050502	p	80
2455	25412	I think this move will not overcome the problem.	I think this move will not overcome the problem. 	1215104	1471964050527	1471964050655	r	82
2455	25412	I think this move will not overcome the problem.	I think this move will not overcome the problem. 	1215108	1471964050629	1471964050695	o	79
2455	25412	I think this move will not overcome the problem.	I think this move will not overcome the problem. 	1215114	1471964050937	1471964051052	b	66
2455	25412	I think this move will not overcome the problem.	I think this move will not overcome the problem. 	1215119	1471964051059	1471964051143	l	76
2455	25412	I think this move will not overcome the problem.	I think this move will not overcome the problem. 	1215123	1471964051159	1471964051265	e	69
2455	25412	I think this move will not overcome the problem.	I think this move will not overcome the problem. 	1215121	1471964051238	1471964051338	m	77
2455	25412	I think this move will not overcome the problem.	I think this move will not overcome the problem. 	1215126	1471964051333	1471964051461	.	190
2455	25422	Ty needs to work on our model before we could start anything anyway.	Ty needs to work on our model before we could start anything anyway. 	1215352	1471964051438	1471964054188	 	32
2455	25422	Ty needs to work on our model before we could start anything anyway.	Ty needs to work on our model before we could start anything anyway. 	1215339	1471964053239	1471964053719	SHIFT	16
2455	25422	Ty needs to work on our model before we could start anything anyway.	Ty needs to work on our model before we could start anything anyway. 	1215344	1471964053622	1471964053738	T	84
2455	25422	Ty needs to work on our model before we could start anything anyway.	Ty needs to work on our model before we could start anything anyway. 	1215348	1471964053900	1471964053964	y	89
2455	25422	Ty needs to work on our model before we could start anything anyway.	Ty needs to work on our model before we could start anything anyway. 	1215357	1471964054381	1471964054467	n	78
2455	25422	Ty needs to work on our model before we could start anything anyway.	Ty needs to work on our model before we could start anything anyway. 	1215359	1471964054494	1471964054577	e	69
2455	25422	Ty needs to work on our model before we could start anything anyway.	Ty needs to work on our model before we could start anything anyway. 	1215364	1471964054647	1471964054770	e	69
2455	25422	Ty needs to work on our model before we could start anything anyway.	Ty needs to work on our model before we could start anything anyway. 	1215368	1471964054829	1471964054955	d	68
2455	25422	Ty needs to work on our model before we could start anything anyway.	Ty needs to work on our model before we could start anything anyway. 	1215371	1471964054923	1471964055028	s	83
2455	25422	Ty needs to work on our model before we could start anything anyway.	Ty needs to work on our model before we could start anything anyway. 	1215374	1471964054972	1471964055061	 	32
2455	25422	Ty needs to work on our model before we could start anything anyway.	Ty needs to work on our model before we could start anything anyway. 	1215379	1471964055115	1471964055229	t	84
2455	25422	Ty needs to work on our model before we could start anything anyway.	Ty needs to work on our model before we could start anything anyway. 	1215415	1471964055192	1471964055252	o	79
2455	25422	Ty needs to work on our model before we could start anything anyway.	Ty needs to work on our model before we could start anything anyway. 	1215422	1471964055255	1471964055339	 	32
2455	25422	Ty needs to work on our model before we could start anything anyway.	Ty needs to work on our model before we could start anything anyway. 	1215429	1471964055413	1471964055515	w	87
2455	25422	Ty needs to work on our model before we could start anything anyway.	Ty needs to work on our model before we could start anything anyway. 	1215432	1471964055505	1471964055568	o	79
2455	25422	Ty needs to work on our model before we could start anything anyway.	Ty needs to work on our model before we could start anything anyway. 	1215435	1471964055606	1471964055717	r	82
2455	25422	Ty needs to work on our model before we could start anything anyway.	Ty needs to work on our model before we could start anything anyway. 	1215487	1471964055690	1471964055774	k	75
2455	25422	Ty needs to work on our model before we could start anything anyway.	Ty needs to work on our model before we could start anything anyway. 	1215491	1471964055743	1471964055817	 	32
2455	25422	Ty needs to work on our model before we could start anything anyway.	Ty needs to work on our model before we could start anything anyway. 	1215495	1471964056272	1471964056390	o	79
2455	25422	Ty needs to work on our model before we could start anything anyway.	Ty needs to work on our model before we could start anything anyway. 	1215502	1471964056344	1471964056420	n	78
2455	25422	Ty needs to work on our model before we could start anything anyway.	Ty needs to work on our model before we could start anything anyway. 	1215504	1471964056481	1471964056563	 	32
2455	25422	Ty needs to work on our model before we could start anything anyway.	Ty needs to work on our model before we could start anything anyway. 	1215508	1471964056641	1471964056773	o	79
2455	25422	Ty needs to work on our model before we could start anything anyway.	Ty needs to work on our model before we could start anything anyway. 	1215515	1471964056715	1471964056798	u	85
2455	25422	Ty needs to work on our model before we could start anything anyway.	Ty needs to work on our model before we could start anything anyway. 	1215519	1471964056794	1471964056899	r	82
2455	25422	Ty needs to work on our model before we could start anything anyway.	Ty needs to work on our model before we could start anything anyway. 	1215523	1471964056888	1471964056975	 	32
2455	25422	Ty needs to work on our model before we could start anything anyway.	Ty needs to work on our model before we could start anything anyway. 	1215528	1471964057062	1471964057172	m	77
2455	25422	Ty needs to work on our model before we could start anything anyway.	Ty needs to work on our model before we could start anything anyway. 	1215600	1471964057135	1471964057202	d	79
2455	25422	Ty needs to work on our model before we could start anything anyway.	Ty needs to work on our model before we could start anything anyway. 	1215602	1471964057259	1471964057382	e	69
2455	25422	Ty needs to work on our model before we could start anything anyway.	Ty needs to work on our model before we could start anything anyway. 	1215607	1471964057414	1471964057530	l	76
2455	25422	Ty needs to work on our model before we could start anything anyway.	Ty needs to work on our model before we could start anything anyway. 	1215613	1471964057470	1471964057580	 	32
2455	25422	Ty needs to work on our model before we could start anything anyway.	Ty needs to work on our model before we could start anything anyway. 	1215620	1471964058015	1471964058091	b	66
2455	25422	Ty needs to work on our model before we could start anything anyway.	Ty needs to work on our model before we could start anything anyway. 	1215624	1471964058123	1471964058201	e	69
2455	25422	Ty needs to work on our model before we could start anything anyway.	Ty needs to work on our model before we could start anything anyway. 	1215670	1471964058307	1471964058442	f	70
2455	25422	Ty needs to work on our model before we could start anything anyway.	Ty needs to work on our model before we could start anything anyway. 	1215672	1471964058663	1471964058737	o	79
2455	25422	Ty needs to work on our model before we could start anything anyway.	Ty needs to work on our model before we could start anything anyway. 	1215674	1471964058869	1471964059013	r	82
2455	25422	Ty needs to work on our model before we could start anything anyway.	Ty needs to work on our model before we could start anything anyway. 	1215681	1471964058960	1471964059063	e	69
2455	25422	Ty needs to work on our model before we could start anything anyway.	Ty needs to work on our model before we could start anything anyway. 	1215684	1471964059073	1471964059150	 	32
2455	25422	Ty needs to work on our model before we could start anything anyway.	Ty needs to work on our model before we could start anything anyway. 	1215720	1471964059194	1471964059325	w	87
2455	25422	Ty needs to work on our model before we could start anything anyway.	Ty needs to work on our model before we could start anything anyway. 	1215722	1471964059356	1471964059436	e	69
2455	25422	Ty needs to work on our model before we could start anything anyway.	Ty needs to work on our model before we could start anything anyway. 	1215726	1471964059546	1471964059640	 	32
2455	25422	Ty needs to work on our model before we could start anything anyway.	Ty needs to work on our model before we could start anything anyway. 	1215762	1471964059803	1471964059929	w	87
2455	25422	Ty needs to work on our model before we could start anything anyway.	Ty needs to work on our model before we could start anything anyway. 	1215734	1471964059861	1471964059925	o	79
2455	25422	Ty needs to work on our model before we could start anything anyway.	Ty needs to work on our model before we could start anything anyway. 	1215764	1471964060134	1471964060178	BKSP	8
2455	25422	Ty needs to work on our model before we could start anything anyway.	Ty needs to work on our model before we could start anything anyway. 	1215765	1471964060263	1471964060328	BKSP	8
2455	25422	Ty needs to work on our model before we could start anything anyway.	Ty needs to work on our model before we could start anything anyway. 	1215766	1471964060389	1471964060511	c	67
2455	25422	Ty needs to work on our model before we could start anything anyway.	Ty needs to work on our model before we could start anything anyway. 	1215768	1471964060465	1471964060548	o	79
2455	25422	Ty needs to work on our model before we could start anything anyway.	Ty needs to work on our model before we could start anything anyway. 	1215772	1471964060531	1471964060595	u	85
2455	25422	Ty needs to work on our model before we could start anything anyway.	Ty needs to work on our model before we could start anything anyway. 	1215778	1471964060632	1471964060725	l	76
2455	25422	Ty needs to work on our model before we could start anything anyway.	Ty needs to work on our model before we could start anything anyway. 	1215801	1471964060706	1471964060811	d	68
2455	25422	Ty needs to work on our model before we could start anything anyway.	Ty needs to work on our model before we could start anything anyway. 	1215807	1471964060826	1471964060902	 	32
2455	25422	Ty needs to work on our model before we could start anything anyway.	Ty needs to work on our model before we could start anything anyway. 	1215813	1471964060963	1471964061082	s	83
2455	25422	Ty needs to work on our model before we could start anything anyway.	Ty needs to work on our model before we could start anything anyway. 	1215819	1471964061050	1471964061145	t	84
2455	25422	Ty needs to work on our model before we could start anything anyway.	Ty needs to work on our model before we could start anything anyway. 	1215823	1471964061168	1471964061292	a	65
2455	25422	Ty needs to work on our model before we could start anything anyway.	Ty needs to work on our model before we could start anything anyway. 	1215843	1471964061250	1471964061336	r	82
2455	25422	Ty needs to work on our model before we could start anything anyway.	Ty needs to work on our model before we could start anything anyway. 	1215848	1471964061441	1471964061502	t	84
2455	25422	Ty needs to work on our model before we could start anything anyway.	Ty needs to work on our model before we could start anything anyway. 	1215855	1471964061849	1471964061950	 	32
2455	25422	Ty needs to work on our model before we could start anything anyway.	Ty needs to work on our model before we could start anything anyway. 	1215860	1471964062051	1471964062156	a	65
2455	25422	Ty needs to work on our model before we could start anything anyway.	Ty needs to work on our model before we could start anything anyway. 	1215865	1471964062151	1471964062216	n	78
2455	25422	Ty needs to work on our model before we could start anything anyway.	Ty needs to work on our model before we could start anything anyway. 	1215870	1471964062349	1471964062397	y	89
2455	25422	Ty needs to work on our model before we could start anything anyway.	Ty needs to work on our model before we could start anything anyway. 	1215892	1471964062454	1471964062584	t	84
2455	25422	Ty needs to work on our model before we could start anything anyway.	Ty needs to work on our model before we could start anything anyway. 	1215901	1471964062534	1471964062658	h	72
2455	25422	Ty needs to work on our model before we could start anything anyway.	Ty needs to work on our model before we could start anything anyway. 	1215906	1471964062634	1471964062771	i	73
2455	25422	Ty needs to work on our model before we could start anything anyway.	Ty needs to work on our model before we could start anything anyway. 	1215912	1471964062717	1471964062812	n	78
2455	25422	Ty needs to work on our model before we could start anything anyway.	Ty needs to work on our model before we could start anything anyway. 	1215960	1471964062784	1471964062871	g	71
2455	25422	Ty needs to work on our model before we could start anything anyway.	Ty needs to work on our model before we could start anything anyway. 	1215963	1471964062888	1471964062976	 	32
2455	25422	Ty needs to work on our model before we could start anything anyway.	Ty needs to work on our model before we could start anything anyway. 	1215967	1471964063190	1471964063280	a	65
2455	25422	Ty needs to work on our model before we could start anything anyway.	Ty needs to work on our model before we could start anything anyway. 	1215971	1471964063274	1471964063358	n	78
2455	25422	Ty needs to work on our model before we could start anything anyway.	Ty needs to work on our model before we could start anything anyway. 	1215975	1471964063492	1471964063565	y	89
2455	25422	Ty needs to work on our model before we could start anything anyway.	Ty needs to work on our model before we could start anything anyway. 	1215998	1471964063561	1471964063673	w	87
2455	25422	Ty needs to work on our model before we could start anything anyway.	Ty needs to work on our model before we could start anything anyway. 	1216002	1471964063637	1471964063762	a	65
2455	25422	Ty needs to work on our model before we could start anything anyway.	Ty needs to work on our model before we could start anything anyway. 	1216005	1471964063683	1471964063762	y	89
2455	25422	Ty needs to work on our model before we could start anything anyway.	Ty needs to work on our model before we could start anything anyway. 	1216010	1471964063899	1471964063998	.	190
2455	25440	They've really caught the fever.	They've really caught the fever. 	1216287	1471964063936	1471964067691	 	32
2455	25440	They've really caught the fever.	They've really caught the fever. 	1216256	1471964065921	1471964066279	SHIFT	16
2455	25440	They've really caught the fever.	They've really caught the fever. 	1216259	1471964066145	1471964066281	T	84
2455	25440	They've really caught the fever.	They've really caught the fever. 	1216263	1471964066410	1471964066472	h	72
2455	25440	They've really caught the fever.	They've really caught the fever. 	1216266	1471964066489	1471964066562	e	69
2455	25440	They've really caught the fever.	They've really caught the fever. 	1216269	1471964066572	1471964066641	y	89
2455	25440	They've really caught the fever.	They've really caught the fever. 	1216274	1471964067195	1471964067282	'	222
2455	25440	They've really caught the fever.	They've really caught the fever. 	1216281	1471964067402	1471964067501	v	86
2455	25440	They've really caught the fever.	They've really caught the fever. 	1216284	1471964067523	1471964067623	e	69
2455	25440	They've really caught the fever.	They've really caught the fever. 	1216290	1471964067844	1471964067964	r	82
2455	25440	They've really caught the fever.	They've really caught the fever. 	1216292	1471964067901	1471964068056	e	69
2455	25440	They've really caught the fever.	They've really caught the fever. 	1216329	1471964067996	1471964068101	a	65
2455	25440	They've really caught the fever.	They've really caught the fever. 	1216333	1471964068106	1471964068158	l	76
2455	25440	They've really caught the fever.	They've really caught the fever. 	1216337	1471964068227	1471964068314	l	76
2455	25440	They've really caught the fever.	They've really caught the fever. 	1216341	1471964068310	1471964068415	y	89
2455	25440	They've really caught the fever.	They've really caught the fever. 	1216344	1471964068410	1471964068497	 	32
2455	25440	They've really caught the fever.	They've really caught the fever. 	1216346	1471964068852	1471964068957	c	67
2455	25440	They've really caught the fever.	They've really caught the fever. 	1216356	1471964069002	1471964069109	a	65
2455	25440	They've really caught the fever.	They've really caught the fever. 	1216361	1471964069157	1471964069219	u	85
2455	25440	They've really caught the fever.	They've really caught the fever. 	1216368	1471964069229	1471964069314	g	71
2455	25440	They've really caught the fever.	They've really caught the fever. 	1216372	1471964069345	1471964069418	h	72
2455	25440	They've really caught the fever.	They've really caught the fever. 	1216378	1471964069421	1471964069495	t	84
2455	25440	They've really caught the fever.	They've really caught the fever. 	1216390	1471964069529	1471964069602	 	32
2455	25440	They've really caught the fever.	They've really caught the fever. 	1216394	1471964069619	1471964069729	t	84
2455	25440	They've really caught the fever.	They've really caught the fever. 	1216399	1471964069733	1471964069792	h	72
2455	25440	They've really caught the fever.	They've really caught the fever. 	1216405	1471964069786	1471964069894	e	69
2455	25440	They've really caught the fever.	They've really caught the fever. 	1216488	1471964069884	1471964069963	 	32
2455	25440	They've really caught the fever.	They've really caught the fever. 	1216492	1471964070227	1471964070311	v	86
2455	25440	They've really caught the fever.	They've really caught the fever. 	1216497	1471964070609	1471964070690	BKSP	8
2455	25440	They've really caught the fever.	They've really caught the fever. 	1216502	1471964070658	1471964070773	f	70
2455	25440	They've really caught the fever.	They've really caught the fever. 	1216508	1471964070759	1471964070857	e	69
2455	25440	They've really caught the fever.	They've really caught the fever. 	1216515	1471964070879	1471964070968	v	86
2455	25440	They've really caught the fever.	They've really caught the fever. 	1216520	1471964071004	1471964071131	e	69
2455	25440	They've really caught the fever.	They've really caught the fever. 	1216519	1471964071105	1471964071220	r	82
2455	25440	They've really caught the fever.	They've really caught the fever. 	1216524	1471964071210	1471964071315	.	190
2455	25450	Our schedule now calls for critical communication in the afternoons.	Our schedule now calls for critical communication in the afternoons. 	1216727	1471964071301	1471964073913	 	32
2455	25450	Our schedule now calls for critical communication in the afternoons.	Our schedule now calls for critical communication in the afternoons. 	1216711	1471964073079	1471964073504	SHIFT	16
2455	25450	Our schedule now calls for critical communication in the afternoons.	Our schedule now calls for critical communication in the afternoons. 	1216705	1471964073425	1471964073493	O	79
2455	25450	Our schedule now calls for critical communication in the afternoons.	Our schedule now calls for critical communication in the afternoons. 	1216719	1471964073619	1471964073698	u	85
2455	25450	Our schedule now calls for critical communication in the afternoons.	Our schedule now calls for critical communication in the afternoons. 	1216722	1471964073727	1471964073837	r	82
2455	25450	Our schedule now calls for critical communication in the afternoons.	Our schedule now calls for critical communication in the afternoons. 	1216733	1471964073940	1471964074045	s	83
2455	25450	Our schedule now calls for critical communication in the afternoons.	Our schedule now calls for critical communication in the afternoons. 	1216737	1471964074077	1471964074197	c	67
2455	25450	Our schedule now calls for critical communication in the afternoons.	Our schedule now calls for critical communication in the afternoons. 	1216745	1471964074210	1471964074279	h	72
2455	25450	Our schedule now calls for critical communication in the afternoons.	Our schedule now calls for critical communication in the afternoons. 	1216747	1471964074287	1471964074391	e	69
2455	25450	Our schedule now calls for critical communication in the afternoons.	Our schedule now calls for critical communication in the afternoons. 	1216748	1471964074365	1471964074455	d	68
2455	25450	Our schedule now calls for critical communication in the afternoons.	Our schedule now calls for critical communication in the afternoons. 	1216749	1471964074473	1471964074555	u	85
2455	25450	Our schedule now calls for critical communication in the afternoons.	Our schedule now calls for critical communication in the afternoons. 	1216750	1471964074595	1471964074680	l	76
2455	25450	Our schedule now calls for critical communication in the afternoons.	Our schedule now calls for critical communication in the afternoons. 	1216808	1471964074712	1471964074812	e	69
2455	25450	Our schedule now calls for critical communication in the afternoons.	Our schedule now calls for critical communication in the afternoons. 	1216812	1471964074801	1471964074885	 	32
2455	25450	Our schedule now calls for critical communication in the afternoons.	Our schedule now calls for critical communication in the afternoons. 	1216817	1471964075180	1471964075257	o	79
2455	25450	Our schedule now calls for critical communication in the afternoons.	Our schedule now calls for critical communication in the afternoons. 	1216822	1471964075279	1471964075374	w	87
2455	25450	Our schedule now calls for critical communication in the afternoons.	Our schedule now calls for critical communication in the afternoons. 	1216828	1471964075647	1471964075689	BKSP	8
2455	25450	Our schedule now calls for critical communication in the afternoons.	Our schedule now calls for critical communication in the afternoons. 	1216832	1471964075762	1471964075820	BKSP	8
2455	25450	Our schedule now calls for critical communication in the afternoons.	Our schedule now calls for critical communication in the afternoons. 	1216836	1471964075891	1471964075993	n	78
2455	25450	Our schedule now calls for critical communication in the afternoons.	Our schedule now calls for critical communication in the afternoons. 	1216847	1471964075951	1471964076035	o	79
2455	25450	Our schedule now calls for critical communication in the afternoons.	Our schedule now calls for critical communication in the afternoons. 	1216851	1471964076037	1471964076140	w	87
2455	25450	Our schedule now calls for critical communication in the afternoons.	Our schedule now calls for critical communication in the afternoons. 	1216854	1471964076133	1471964076203	 	32
2455	25450	Our schedule now calls for critical communication in the afternoons.	Our schedule now calls for critical communication in the afternoons. 	1216860	1471964076250	1471964076387	c	67
2455	25450	Our schedule now calls for critical communication in the afternoons.	Our schedule now calls for critical communication in the afternoons. 	1216864	1471964076346	1471964076451	a	65
2455	25450	Our schedule now calls for critical communication in the afternoons.	Our schedule now calls for critical communication in the afternoons. 	1216884	1471964076440	1471964076500	l	76
2455	25450	Our schedule now calls for critical communication in the afternoons.	Our schedule now calls for critical communication in the afternoons. 	1216888	1471964076566	1471964076645	l	76
2455	25450	Our schedule now calls for critical communication in the afternoons.	Our schedule now calls for critical communication in the afternoons. 	1216891	1471964076666	1471964076760	s	83
2455	25450	Our schedule now calls for critical communication in the afternoons.	Our schedule now calls for critical communication in the afternoons. 	1216894	1471964076721	1471964076808	 	32
2455	25450	Our schedule now calls for critical communication in the afternoons.	Our schedule now calls for critical communication in the afternoons. 	1216897	1471964076850	1471964076934	f	70
2455	25450	Our schedule now calls for critical communication in the afternoons.	Our schedule now calls for critical communication in the afternoons. 	1216915	1471964076917	1471964076984	o	79
2455	25450	Our schedule now calls for critical communication in the afternoons.	Our schedule now calls for critical communication in the afternoons. 	1216916	1471964077026	1471964077096	r	82
2455	25450	Our schedule now calls for critical communication in the afternoons.	Our schedule now calls for critical communication in the afternoons. 	1216917	1471964077071	1471964077155	 	32
2455	25450	Our schedule now calls for critical communication in the afternoons.	Our schedule now calls for critical communication in the afternoons. 	1216918	1471964077212	1471964077331	c	67
2455	25450	Our schedule now calls for critical communication in the afternoons.	Our schedule now calls for critical communication in the afternoons. 	1216919	1471964077402	1471964077467	i	73
2455	25450	Our schedule now calls for critical communication in the afternoons.	Our schedule now calls for critical communication in the afternoons. 	1216922	1471964077506	1471964077595	r	82
2455	25450	Our schedule now calls for critical communication in the afternoons.	Our schedule now calls for critical communication in the afternoons. 	1217011	1471964078023	1471964078065	BKSP	8
2455	25450	Our schedule now calls for critical communication in the afternoons.	Our schedule now calls for critical communication in the afternoons. 	1217015	1471964078141	1471964078204	BKSP	8
2455	25450	Our schedule now calls for critical communication in the afternoons.	Our schedule now calls for critical communication in the afternoons. 	1217019	1471964078230	1471964078317	r	82
2455	25450	Our schedule now calls for critical communication in the afternoons.	Our schedule now calls for critical communication in the afternoons. 	1217025	1471964078341	1471964078414	i	73
2455	25450	Our schedule now calls for critical communication in the afternoons.	Our schedule now calls for critical communication in the afternoons. 	1217031	1471964078430	1471964078512	t	84
2455	25450	Our schedule now calls for critical communication in the afternoons.	Our schedule now calls for critical communication in the afternoons. 	1217035	1471964078901	1471964079013	c	67
2455	25450	Our schedule now calls for critical communication in the afternoons.	Our schedule now calls for critical communication in the afternoons. 	1217037	1471964079129	1471964079197	i	73
2455	25450	Our schedule now calls for critical communication in the afternoons.	Our schedule now calls for critical communication in the afternoons. 	1217139	1471964079280	1471964079378	a	65
2455	25450	Our schedule now calls for critical communication in the afternoons.	Our schedule now calls for critical communication in the afternoons. 	1217142	1471964079517	1471964079575	BKSP	8
2455	25450	Our schedule now calls for critical communication in the afternoons.	Our schedule now calls for critical communication in the afternoons. 	1217146	1471964079654	1471964079714	BKSP	8
2455	25450	Our schedule now calls for critical communication in the afternoons.	Our schedule now calls for critical communication in the afternoons. 	1217150	1471964079795	1471964079858	BKSP	8
2455	25450	Our schedule now calls for critical communication in the afternoons.	Our schedule now calls for critical communication in the afternoons. 	1217153	1471964079984	1471964080050	i	73
2455	25450	Our schedule now calls for critical communication in the afternoons.	Our schedule now calls for critical communication in the afternoons. 	1217155	1471964080036	1471964080152	c	67
2455	25450	Our schedule now calls for critical communication in the afternoons.	Our schedule now calls for critical communication in the afternoons. 	1217157	1471964080732	1471964080824	a	65
2455	25450	Our schedule now calls for critical communication in the afternoons.	Our schedule now calls for critical communication in the afternoons. 	1217160	1471964080833	1471964080890	l	76
2455	25450	Our schedule now calls for critical communication in the afternoons.	Our schedule now calls for critical communication in the afternoons. 	1217203	1471964080948	1471964081015	 	32
2455	25450	Our schedule now calls for critical communication in the afternoons.	Our schedule now calls for critical communication in the afternoons. 	1217207	1471964081349	1471964081623	SHIFT	16
2455	25450	Our schedule now calls for critical communication in the afternoons.	Our schedule now calls for critical communication in the afternoons. 	1217215	1471964081720	1471964081853	c	67
2455	25450	Our schedule now calls for critical communication in the afternoons.	Our schedule now calls for critical communication in the afternoons. 	1217223	1471964081814	1471964081897	o	79
2455	25450	Our schedule now calls for critical communication in the afternoons.	Our schedule now calls for critical communication in the afternoons. 	1217230	1471964081894	1471964081943	m	77
2455	25450	Our schedule now calls for critical communication in the afternoons.	Our schedule now calls for critical communication in the afternoons. 	1217235	1471964082056	1471964082116	m	77
2455	25450	Our schedule now calls for critical communication in the afternoons.	Our schedule now calls for critical communication in the afternoons. 	1217322	1471964082636	1471964082704	i	73
2455	25450	Our schedule now calls for critical communication in the afternoons.	Our schedule now calls for critical communication in the afternoons. 	1217324	1471964082694	1471964082780	n	78
2455	25450	Our schedule now calls for critical communication in the afternoons.	Our schedule now calls for critical communication in the afternoons. 	1217326	1471964083306	1471964083345	BKSP	8
2455	25450	Our schedule now calls for critical communication in the afternoons.	Our schedule now calls for critical communication in the afternoons. 	1217329	1471964083401	1471964083481	BKSP	8
2455	25450	Our schedule now calls for critical communication in the afternoons.	Our schedule now calls for critical communication in the afternoons. 	1217331	1471964083616	1471964083691	u	85
2455	25450	Our schedule now calls for critical communication in the afternoons.	Our schedule now calls for critical communication in the afternoons. 	1217333	1471964083674	1471964083734	n	78
2455	25450	Our schedule now calls for critical communication in the afternoons.	Our schedule now calls for critical communication in the afternoons. 	1217336	1471964083801	1471964083873	i	73
2455	25450	Our schedule now calls for critical communication in the afternoons.	Our schedule now calls for critical communication in the afternoons. 	1217354	1471964084186	1471964084272	c	67
2455	25450	Our schedule now calls for critical communication in the afternoons.	Our schedule now calls for critical communication in the afternoons. 	1217356	1471964084279	1471964084352	a	65
2455	25450	Our schedule now calls for critical communication in the afternoons.	Our schedule now calls for critical communication in the afternoons. 	1217359	1471964084395	1471964084510	t	84
2455	25450	Our schedule now calls for critical communication in the afternoons.	Our schedule now calls for critical communication in the afternoons. 	1217365	1471964084443	1471964084558	i	73
2455	25450	Our schedule now calls for critical communication in the afternoons.	Our schedule now calls for critical communication in the afternoons. 	1217592	1471964084521	1471964084604	o	79
2455	25450	Our schedule now calls for critical communication in the afternoons.	Our schedule now calls for critical communication in the afternoons. 	1217596	1471964084650	1471964084731	n	78
2455	25450	Our schedule now calls for critical communication in the afternoons.	Our schedule now calls for critical communication in the afternoons. 	1217602	1471964086254	1471964086872	BKSP	8
2455	25450	Our schedule now calls for critical communication in the afternoons.	Our schedule now calls for critical communication in the afternoons. 	1217607	1471964088029	1471964088119	a	65
2455	25450	Our schedule now calls for critical communication in the afternoons.	Our schedule now calls for critical communication in the afternoons. 	1217615	1471964088169	1471964088243	t	84
2455	25450	Our schedule now calls for critical communication in the afternoons.	Our schedule now calls for critical communication in the afternoons. 	1217623	1471964088219	1471964088360	i	73
2455	25450	Our schedule now calls for critical communication in the afternoons.	Our schedule now calls for critical communication in the afternoons. 	1217630	1471964088865	1471964088989	o	79
2455	25450	Our schedule now calls for critical communication in the afternoons.	Our schedule now calls for critical communication in the afternoons. 	1217646	1471964088995	1471964089071	n	78
2455	25450	Our schedule now calls for critical communication in the afternoons.	Our schedule now calls for critical communication in the afternoons. 	1217651	1471964089159	1471964089242	 	32
2455	25450	Our schedule now calls for critical communication in the afternoons.	Our schedule now calls for critical communication in the afternoons. 	1217656	1471964089289	1471964089364	i	73
2455	25450	Our schedule now calls for critical communication in the afternoons.	Our schedule now calls for critical communication in the afternoons. 	1217662	1471964089337	1471964089406	n	78
2455	25450	Our schedule now calls for critical communication in the afternoons.	Our schedule now calls for critical communication in the afternoons. 	1217665	1471964089478	1471964089565	 	32
2455	25450	Our schedule now calls for critical communication in the afternoons.	Our schedule now calls for critical communication in the afternoons. 	1217742	1471964089561	1471964089692	t	84
2455	25450	Our schedule now calls for critical communication in the afternoons.	Our schedule now calls for critical communication in the afternoons. 	1217745	1471964089673	1471964089752	h	72
2455	25450	Our schedule now calls for critical communication in the afternoons.	Our schedule now calls for critical communication in the afternoons. 	1217749	1471964089732	1471964089842	e	69
2455	25450	Our schedule now calls for critical communication in the afternoons.	Our schedule now calls for critical communication in the afternoons. 	1217751	1471964089834	1471964089931	 	32
2455	25450	Our schedule now calls for critical communication in the afternoons.	Our schedule now calls for critical communication in the afternoons. 	1217753	1471964090648	1471964090753	a	65
2455	25450	Our schedule now calls for critical communication in the afternoons.	Our schedule now calls for critical communication in the afternoons. 	1217755	1471964090871	1471964090966	f	70
2455	25450	Our schedule now calls for critical communication in the afternoons.	Our schedule now calls for critical communication in the afternoons. 	1217820	1471964091099	1471964091170	t	84
2455	25450	Our schedule now calls for critical communication in the afternoons.	Our schedule now calls for critical communication in the afternoons. 	1217824	1471964091656	1471964091769	e	69
2455	25450	Our schedule now calls for critical communication in the afternoons.	Our schedule now calls for critical communication in the afternoons. 	1217828	1471964091729	1471964091848	r	82
2455	25450	Our schedule now calls for critical communication in the afternoons.	Our schedule now calls for critical communication in the afternoons. 	1217832	1471964091926	1471964092000	n	78
2455	25450	Our schedule now calls for critical communication in the afternoons.	Our schedule now calls for critical communication in the afternoons. 	1217835	1471964092066	1471964092126	o	79
2455	25450	Our schedule now calls for critical communication in the afternoons.	Our schedule now calls for critical communication in the afternoons. 	1217844	1471964092189	1471964092268	o	79
2455	25450	Our schedule now calls for critical communication in the afternoons.	Our schedule now calls for critical communication in the afternoons. 	1217847	1471964092226	1471964092307	n	78
2455	25450	Our schedule now calls for critical communication in the afternoons.	Our schedule now calls for critical communication in the afternoons. 	1217849	1471964092289	1471964092388	s	83
2455	25472	Has Brian had his contract yet?	Has Brian had his contract yet?	1218039	1471964092444	1471964095024	 	32
2455	25472	Has Brian had his contract yet?	Has Brian had his contract yet?	1218023	1471964094279	1471964094652	SHIFT	16
2455	25472	Has Brian had his contract yet?	Has Brian had his contract yet?	1218021	1471964094562	1471964094647	H	72
2455	25472	Has Brian had his contract yet?	Has Brian had his contract yet?	1218029	1471964094747	1471964094888	a	65
2455	25472	Has Brian had his contract yet?	Has Brian had his contract yet?	1218033	1471964094830	1471964094951	s	83
2455	25472	Has Brian had his contract yet?	Has Brian had his contract yet?	1218050	1471964095088	1471964095487	SHIFT	16
2455	25472	Has Brian had his contract yet?	Has Brian had his contract yet?	1218045	1471964095350	1471964095426	B	66
2455	25472	Has Brian had his contract yet?	Has Brian had his contract yet?	1218056	1471964095546	1471964095645	r	82
2455	25472	Has Brian had his contract yet?	Has Brian had his contract yet?	1218105	1471964095634	1471964095697	i	73
2455	25472	Has Brian had his contract yet?	Has Brian had his contract yet?	1218106	1471964095729	1471964095802	a	65
2455	25472	Has Brian had his contract yet?	Has Brian had his contract yet?	1218107	1471964095816	1471964095892	n	78
2455	25472	Has Brian had his contract yet?	Has Brian had his contract yet?	1218108	1471964095944	1471964096042	s	83
2455	25472	Has Brian had his contract yet?	Has Brian had his contract yet?	1218109	1471964096443	1471964096511	BKSP	8
2455	25472	Has Brian had his contract yet?	Has Brian had his contract yet?	1218110	1471964096625	1471964096698	 	32
2455	25472	Has Brian had his contract yet?	Has Brian had his contract yet?	1218111	1471964096813	1471964096885	h	72
2455	25472	Has Brian had his contract yet?	Has Brian had his contract yet?	1218122	1471964096876	1471964096987	a	65
2455	25472	Has Brian had his contract yet?	Has Brian had his contract yet?	1218130	1471964096968	1471964097086	d	68
2455	25472	Has Brian had his contract yet?	Has Brian had his contract yet?	1218126	1471964097013	1471964097068	 	32
2455	25472	Has Brian had his contract yet?	Has Brian had his contract yet?	1218132	1471964097176	1471964097258	h	72
2455	25472	Has Brian had his contract yet?	Has Brian had his contract yet?	1218134	1471964097233	1471964097330	i	73
2455	25472	Has Brian had his contract yet?	Has Brian had his contract yet?	1218172	1471964097315	1471964097420	s	83
2455	25472	Has Brian had his contract yet?	Has Brian had his contract yet?	1218175	1471964097388	1471964097483	 	32
2455	25472	Has Brian had his contract yet?	Has Brian had his contract yet?	1218177	1471964097530	1471964097666	c	67
2455	25472	Has Brian had his contract yet?	Has Brian had his contract yet?	1218179	1471964097612	1471964097693	o	79
2455	25472	Has Brian had his contract yet?	Has Brian had his contract yet?	1218181	1471964097661	1471964097740	n	78
2455	25472	Has Brian had his contract yet?	Has Brian had his contract yet?	1218182	1471964098133	1471964098238	t	84
2455	25472	Has Brian had his contract yet?	Has Brian had his contract yet?	1218188	1471964098313	1471964098407	r	82
2455	25472	Has Brian had his contract yet?	Has Brian had his contract yet?	1218189	1471964098391	1471964098480	a	65
2455	25472	Has Brian had his contract yet?	Has Brian had his contract yet?	1218191	1471964098517	1471964098616	c	67
2455	25472	Has Brian had his contract yet?	Has Brian had his contract yet?	1218194	1471964098725	1471964098828	t	84
2455	25472	Has Brian had his contract yet?	Has Brian had his contract yet?	1218282	1471964098826	1471964098916	 	32
2455	25472	Has Brian had his contract yet?	Has Brian had his contract yet?	1218286	1471964099187	1471964099242	BKSP	8
2455	25472	Has Brian had his contract yet?	Has Brian had his contract yet?	1218288	1471964099348	1471964099383	BKSP	8
2455	25472	Has Brian had his contract yet?	Has Brian had his contract yet?	1218290	1471964100104	1471964100208	t	84
2455	25472	Has Brian had his contract yet?	Has Brian had his contract yet?	1218291	1471964100187	1471964100276	 	32
2455	25472	Has Brian had his contract yet?	Has Brian had his contract yet?	1218294	1471964100382	1471964100465	y	89
2455	25472	Has Brian had his contract yet?	Has Brian had his contract yet?	1218297	1471964100765	1471964100871	e	69
2455	25472	Has Brian had his contract yet?	Has Brian had his contract yet?	1218307	1471964100833	1471964100948	t	84
2455	25472	Has Brian had his contract yet?	Has Brian had his contract yet?	1218312	1471964101036	1471964101149	SHIFT	16
2455	25472	Has Brian had his contract yet?	Has Brian had his contract yet?	1218317	1471964101112	1471964101227	?	191
2455	25483	She called and wants to come over this AM.	She called and wants to come over this AM.	1218751	1471964092373	1471964108774	.	190
2455	25483	She called and wants to come over this AM.	She called and wants to come over this AM.	1218479	1471964103349	1471964103567	SHIFT	16
2455	25483	She called and wants to come over this AM.	She called and wants to come over this AM.	1218481	1471964103491	1471964103612	S	83
2455	25483	She called and wants to come over this AM.	She called and wants to come over this AM.	1218484	1471964103660	1471964103747	h	72
2455	25483	She called and wants to come over this AM.	She called and wants to come over this AM.	1218487	1471964103732	1471964103850	e	69
2455	25483	She called and wants to come over this AM.	She called and wants to come over this AM.	1218489	1471964103847	1471964103946	 	32
2455	25483	She called and wants to come over this AM.	She called and wants to come over this AM.	1218491	1471964104048	1471964104184	c	67
2455	25483	She called and wants to come over this AM.	She called and wants to come over this AM.	1218495	1471964104148	1471964104240	a	65
2455	25483	She called and wants to come over this AM.	She called and wants to come over this AM.	1218498	1471964104236	1471964104300	l	76
2455	25483	She called and wants to come over this AM.	She called and wants to come over this AM.	1218503	1471964104368	1471964104457	l	76
2455	25483	She called and wants to come over this AM.	She called and wants to come over this AM.	1218507	1471964104418	1471964104530	e	69
2455	25483	She called and wants to come over this AM.	She called and wants to come over this AM.	1218512	1471964104468	1471964104586	d	68
2455	25483	She called and wants to come over this AM.	She called and wants to come over this AM.	1218561	1471964104584	1471964104660	 	32
2455	25483	She called and wants to come over this AM.	She called and wants to come over this AM.	1218562	1471964104966	1471964105067	a	65
2455	25483	She called and wants to come over this AM.	She called and wants to come over this AM.	1218563	1471964105055	1471964105122	n	78
2455	25483	She called and wants to come over this AM.	She called and wants to come over this AM.	1218564	1471964105161	1471964105250	d	68
2455	25483	She called and wants to come over this AM.	She called and wants to come over this AM.	1218566	1471964105224	1471964105300	 	32
2455	25483	She called and wants to come over this AM.	She called and wants to come over this AM.	1218569	1471964105371	1471964105435	w	87
2455	25483	She called and wants to come over this AM.	She called and wants to come over this AM.	1218592	1471964105497	1471964105616	a	65
2455	25483	She called and wants to come over this AM.	She called and wants to come over this AM.	1218594	1471964105644	1471964105721	n	78
2455	25483	She called and wants to come over this AM.	She called and wants to come over this AM.	1218596	1471964105702	1471964105837	t	84
2455	25483	She called and wants to come over this AM.	She called and wants to come over this AM.	1218598	1471964105807	1471964105927	s	83
2455	25483	She called and wants to come over this AM.	She called and wants to come over this AM.	1218612	1471964105922	1471964106004	 	32
2455	25483	She called and wants to come over this AM.	She called and wants to come over this AM.	1218615	1471964106032	1471964106127	t	84
2455	25483	She called and wants to come over this AM.	She called and wants to come over this AM.	1218618	1471964106099	1471964106183	o	79
2455	25483	She called and wants to come over this AM.	She called and wants to come over this AM.	1218622	1471964106178	1471964106254	 	32
2455	25483	She called and wants to come over this AM.	She called and wants to come over this AM.	1218626	1471964106320	1471964106435	c	67
2455	25483	She called and wants to come over this AM.	She called and wants to come over this AM.	1218657	1471964106406	1471964106537	o	79
2455	25483	She called and wants to come over this AM.	She called and wants to come over this AM.	1218659	1471964106480	1471964106568	m	77
2455	25483	She called and wants to come over this AM.	She called and wants to come over this AM.	1218662	1471964106579	1471964106680	e	69
2455	25483	She called and wants to come over this AM.	She called and wants to come over this AM.	1218665	1471964106718	1471964106790	 	32
2455	25483	She called and wants to come over this AM.	She called and wants to come over this AM.	1218669	1471964107069	1471964107139	o	79
2455	25483	She called and wants to come over this AM.	She called and wants to come over this AM.	1218689	1471964107136	1471964107219	v	86
2455	25483	She called and wants to come over this AM.	She called and wants to come over this AM.	1218692	1471964107293	1471964107398	e	69
2455	25483	She called and wants to come over this AM.	She called and wants to come over this AM.	1218696	1471964107356	1471964107451	r	82
2455	25483	She called and wants to come over this AM.	She called and wants to come over this AM.	1218701	1471964107440	1471964107514	 	32
2455	25483	She called and wants to come over this AM.	She called and wants to come over this AM.	1218703	1471964107643	1471964107769	t	84
2455	25483	She called and wants to come over this AM.	She called and wants to come over this AM.	1218741	1471964107713	1471964107803	h	72
2455	25483	She called and wants to come over this AM.	She called and wants to come over this AM.	1218742	1471964107766	1471964107866	i	73
2455	25483	She called and wants to come over this AM.	She called and wants to come over this AM.	1218743	1471964107895	1471964108000	s	83
2455	25483	She called and wants to come over this AM.	She called and wants to come over this AM.	1218744	1471964107932	1471964108032	 	32
2455	25483	She called and wants to come over this AM.	She called and wants to come over this AM.	1218749	1471964108097	1471964108434	SHIFT	16
2455	25483	She called and wants to come over this AM.	She called and wants to come over this AM.	1218745	1471964108186	1471964108262	A	65
2455	25483	She called and wants to come over this AM.	She called and wants to come over this AM.	1218747	1471964108275	1471964108365	M	77
2455	25492	Wang said that his release was a miracle.	Wang said that his release was a miracle. 	1218909	1471964110870	1471964111190	SHIFT	16
2455	25492	Wang said that his release was a miracle.	Wang said that his release was a miracle. 	1218906	1471964111102	1471964111158	W	87
2455	25492	Wang said that his release was a miracle.	Wang said that his release was a miracle. 	1218910	1471964111217	1471964111330	a	65
2455	25492	Wang said that his release was a miracle.	Wang said that his release was a miracle. 	1218913	1471964111343	1471964111412	n	78
2455	25492	Wang said that his release was a miracle.	Wang said that his release was a miracle. 	1218914	1471964111515	1471964111582	 	32
2455	25492	Wang said that his release was a miracle.	Wang said that his release was a miracle. 	1218919	1471964111929	1471964112012	BKSP	8
2455	25492	Wang said that his release was a miracle.	Wang said that his release was a miracle. 	1218920	1471964112086	1471964112199	g	71
2455	25492	Wang said that his release was a miracle.	Wang said that his release was a miracle. 	1218945	1471964112194	1471964112272	 	32
2455	25492	Wang said that his release was a miracle.	Wang said that his release was a miracle. 	1218949	1471964112352	1471964112503	s	83
2455	25492	Wang said that his release was a miracle.	Wang said that his release was a miracle. 	1218953	1471964112409	1471964112530	a	65
2455	25492	Wang said that his release was a miracle.	Wang said that his release was a miracle. 	1218957	1471964112506	1471964112583	i	73
2455	25492	Wang said that his release was a miracle.	Wang said that his release was a miracle. 	1218960	1471964112576	1471964112706	d	68
2455	25492	Wang said that his release was a miracle.	Wang said that his release was a miracle. 	1218963	1471964112724	1471964112789	 	32
2455	25492	Wang said that his release was a miracle.	Wang said that his release was a miracle. 	1219014	1471964113427	1471964113538	t	84
2455	25492	Wang said that his release was a miracle.	Wang said that his release was a miracle. 	1219016	1471964113523	1471964113595	h	72
2455	25492	Wang said that his release was a miracle.	Wang said that his release was a miracle. 	1219019	1471964113712	1471964113847	a	65
2455	25492	Wang said that his release was a miracle.	Wang said that his release was a miracle. 	1219023	1471964113814	1471964113934	t	84
2455	25492	Wang said that his release was a miracle.	Wang said that his release was a miracle. 	1219079	1471964113930	1471964113990	 	32
2455	25492	Wang said that his release was a miracle.	Wang said that his release was a miracle. 	1219082	1471964114124	1471964114225	h	72
2455	25492	Wang said that his release was a miracle.	Wang said that his release was a miracle. 	1219084	1471964114187	1471964114292	i	73
2455	25492	Wang said that his release was a miracle.	Wang said that his release was a miracle. 	1219085	1471964114316	1471964114416	s	83
2455	25492	Wang said that his release was a miracle.	Wang said that his release was a miracle. 	1219086	1471964114363	1471964114452	 	32
2455	25492	Wang said that his release was a miracle.	Wang said that his release was a miracle. 	1219087	1471964114586	1471964114730	r	82
2455	25492	Wang said that his release was a miracle.	Wang said that his release was a miracle. 	1219156	1471964114690	1471964114859	e	69
2455	25492	Wang said that his release was a miracle.	Wang said that his release was a miracle. 	1219152	1471964114762	1471964114856	a	65
2455	25492	Wang said that his release was a miracle.	Wang said that his release was a miracle. 	1219159	1471964114902	1471964114985	l	76
2455	25492	Wang said that his release was a miracle.	Wang said that his release was a miracle. 	1219162	1471964115318	1471964115362	BKSP	8
2455	25492	Wang said that his release was a miracle.	Wang said that his release was a miracle. 	1219168	1471964115434	1471964115512	BKSP	8
2455	25492	Wang said that his release was a miracle.	Wang said that his release was a miracle. 	1219172	1471964115618	1471964115696	l	76
2455	25492	Wang said that his release was a miracle.	Wang said that his release was a miracle. 	1219178	1471964115854	1471964115941	e	69
2455	25492	Wang said that his release was a miracle.	Wang said that his release was a miracle. 	1219184	1471964115959	1471964116106	a	65
2455	25492	Wang said that his release was a miracle.	Wang said that his release was a miracle. 	1219188	1471964116064	1471964116193	s	83
2455	25492	Wang said that his release was a miracle.	Wang said that his release was a miracle. 	1219190	1471964116158	1471964116295	e	69
2455	25492	Wang said that his release was a miracle.	Wang said that his release was a miracle. 	1219193	1471964116337	1471964116413	 	32
2455	25492	Wang said that his release was a miracle.	Wang said that his release was a miracle. 	1219199	1471964116540	1471964116626	w	87
2455	25492	Wang said that his release was a miracle.	Wang said that his release was a miracle. 	1219206	1471964116676	1471964116789	a	65
2455	25492	Wang said that his release was a miracle.	Wang said that his release was a miracle. 	1219237	1471964116763	1471964116886	s	83
2455	25492	Wang said that his release was a miracle.	Wang said that his release was a miracle. 	1219243	1471964116894	1471964116972	 	32
2455	25492	Wang said that his release was a miracle.	Wang said that his release was a miracle. 	1219249	1471964117005	1471964117099	a	65
2455	25492	Wang said that his release was a miracle.	Wang said that his release was a miracle. 	1219254	1471964117088	1471964117151	 	32
2455	25492	Wang said that his release was a miracle.	Wang said that his release was a miracle. 	1219262	1471964117497	1471964117578	m	77
2455	25492	Wang said that his release was a miracle.	Wang said that his release was a miracle. 	1219267	1471964117680	1471964117747	i	73
2455	25492	Wang said that his release was a miracle.	Wang said that his release was a miracle. 	1219326	1471964117768	1471964117873	r	82
2455	25492	Wang said that his release was a miracle.	Wang said that his release was a miracle. 	1219327	1471964118143	1471964118271	a	65
2455	25492	Wang said that his release was a miracle.	Wang said that his release was a miracle. 	1219328	1471964118551	1471964118663	c	67
2455	25492	Wang said that his release was a miracle.	Wang said that his release was a miracle. 	1219329	1471964118899	1471964119004	e	69
2455	25492	Wang said that his release was a miracle.	Wang said that his release was a miracle. 	1219330	1471964119230	1471964119290	BKSP	8
2455	25492	Wang said that his release was a miracle.	Wang said that his release was a miracle. 	1219332	1471964119419	1471964119491	l	76
2455	25492	Wang said that his release was a miracle.	Wang said that his release was a miracle. 	1219334	1471964119482	1471964119572	e	69
