PARTICIPANT_ID	TEST_SECTION_ID	SENTENCE	USER_INPUT	KEYSTROKE_ID	PRESS_TIME	RELEASE_TIME	LETTER	KEYCODE
2525	26016	San Francisco was Interconnect meeting.	San Francisco was Interconnect meeting.	1244753	1471964610106	1471964610435	SHIFT	16
2525	26016	San Francisco was Interconnect meeting.	San Francisco was Interconnect meeting.	1244757	1471964610355	1471964610482	S	83
2525	26016	San Francisco was Interconnect meeting.	San Francisco was Interconnect meeting.	1244761	1471964610554	1471964610691	a	65
2525	26016	San Francisco was Interconnect meeting.	San Francisco was Interconnect meeting.	1244766	1471964611274	1471964611330	n	78
2525	26016	San Francisco was Interconnect meeting.	San Francisco was Interconnect meeting.	1244770	1471964611450	1471964611530	 	32
2525	26016	San Francisco was Interconnect meeting.	San Francisco was Interconnect meeting.	1244774	1471964611642	1471964611898	SHIFT	16
2525	26016	San Francisco was Interconnect meeting.	San Francisco was Interconnect meeting.	1244807	1471964611859	1471964611922	F	70
2525	26016	San Francisco was Interconnect meeting.	San Francisco was Interconnect meeting.	1244812	1471964612050	1471964612099	r	82
2525	26016	San Francisco was Interconnect meeting.	San Francisco was Interconnect meeting.	1244817	1471964612202	1471964612370	a	65
2525	26016	San Francisco was Interconnect meeting.	San Francisco was Interconnect meeting.	1244823	1471964612474	1471964612530	n	78
2525	26016	San Francisco was Interconnect meeting.	San Francisco was Interconnect meeting.	1244826	1471964612794	1471964612906	c	67
2525	26016	San Francisco was Interconnect meeting.	San Francisco was Interconnect meeting.	1244828	1471964613026	1471964613090	i	73
2525	26016	San Francisco was Interconnect meeting.	San Francisco was Interconnect meeting.	1244854	1471964613154	1471964613250	s	83
2525	26016	San Francisco was Interconnect meeting.	San Francisco was Interconnect meeting.	1244855	1471964613346	1471964613482	c	67
2525	26016	San Francisco was Interconnect meeting.	San Francisco was Interconnect meeting.	1244856	1471964613530	1471964613602	o	79
2525	26016	San Francisco was Interconnect meeting.	San Francisco was Interconnect meeting.	1244858	1471964613818	1471964613906	 	32
2525	26016	San Francisco was Interconnect meeting.	San Francisco was Interconnect meeting.	1244860	1471964614146	1471964614306	w	87
2525	26016	San Francisco was Interconnect meeting.	San Francisco was Interconnect meeting.	1244920	1471964614274	1471964614442	a	65
2525	26016	San Francisco was Interconnect meeting.	San Francisco was Interconnect meeting.	1244924	1471964614394	1471964614522	s	83
2525	26016	San Francisco was Interconnect meeting.	San Francisco was Interconnect meeting.	1244929	1471964614538	1471964614626	 	32
2525	26016	San Francisco was Interconnect meeting.	San Francisco was Interconnect meeting.	1244933	1471964614850	1471964615162	SHIFT	16
2525	26016	San Francisco was Interconnect meeting.	San Francisco was Interconnect meeting.	1244937	1471964615090	1471964615186	I	73
2525	26016	San Francisco was Interconnect meeting.	San Francisco was Interconnect meeting.	1244941	1471964615266	1471964615330	n	78
2525	26016	San Francisco was Interconnect meeting.	San Francisco was Interconnect meeting.	1244946	1471964615594	1471964615634	t	84
2525	26016	San Francisco was Interconnect meeting.	San Francisco was Interconnect meeting.	1244972	1471964615636	1471964615810	e	69
2525	26016	San Francisco was Interconnect meeting.	San Francisco was Interconnect meeting.	1244975	1471964615762	1471964615866	r	82
2525	26016	San Francisco was Interconnect meeting.	San Francisco was Interconnect meeting.	1244979	1471964616026	1471964616130	c	67
2525	26016	San Francisco was Interconnect meeting.	San Francisco was Interconnect meeting.	1244983	1471964616154	1471964616242	o	79
2525	26016	San Francisco was Interconnect meeting.	San Francisco was Interconnect meeting.	1244987	1471964616338	1471964616394	n	78
2525	26016	San Francisco was Interconnect meeting.	San Francisco was Interconnect meeting.	1245039	1471964616466	1471964616530	n	78
2525	26016	San Francisco was Interconnect meeting.	San Francisco was Interconnect meeting.	1245041	1471964616650	1471964616762	e	69
2525	26016	San Francisco was Interconnect meeting.	San Francisco was Interconnect meeting.	1245043	1471964616834	1471964616954	c	67
2525	26016	San Francisco was Interconnect meeting.	San Francisco was Interconnect meeting.	1245046	1471964617042	1471964617114	t	84
2525	26016	San Francisco was Interconnect meeting.	San Francisco was Interconnect meeting.	1245053	1471964617299	1471964617386	 	32
2525	26016	San Francisco was Interconnect meeting.	San Francisco was Interconnect meeting.	1245047	1471964617690	1471964617738	m	77
2525	26016	San Francisco was Interconnect meeting.	San Francisco was Interconnect meeting.	1245051	1471964617794	1471964617930	e	69
2525	26016	San Francisco was Interconnect meeting.	San Francisco was Interconnect meeting.	1245056	1471964618050	1471964618194	e	69
2525	26016	San Francisco was Interconnect meeting.	San Francisco was Interconnect meeting.	1245059	1471964618314	1471964618418	t	84
2525	26016	San Francisco was Interconnect meeting.	San Francisco was Interconnect meeting.	1245061	1471964618458	1471964618610	i	73
2525	26016	San Francisco was Interconnect meeting.	San Francisco was Interconnect meeting.	1245150	1471964618578	1471964618642	n	78
2525	26016	San Francisco was Interconnect meeting.	San Francisco was Interconnect meeting.	1245154	1471964618762	1471964618818	g	71
2525	26016	San Francisco was Interconnect meeting.	San Francisco was Interconnect meeting.	1245163	1471964619826	1471964619889	.	190
2525	26032	Theresa, I hope he liked it.	Theresa, I hope he liked it.	1245394	1471964623682	1471964623993	SHIFT	16
2525	26032	Theresa, I hope he liked it.	Theresa, I hope he liked it.	1245398	1471964623946	1471964624009	T	84
2525	26032	Theresa, I hope he liked it.	Theresa, I hope he liked it.	1245402	1471964624097	1471964624169	h	72
2525	26032	Theresa, I hope he liked it.	Theresa, I hope he liked it.	1245406	1471964624193	1471964624313	e	69
2525	26032	Theresa, I hope he liked it.	Theresa, I hope he liked it.	1245409	1471964624497	1471964624618	r	82
2525	26032	Theresa, I hope he liked it.	Theresa, I hope he liked it.	1245412	1471964624618	1471964624721	e	69
2525	26032	Theresa, I hope he liked it.	Theresa, I hope he liked it.	1245416	1471964624849	1471964624945	s	83
2525	26032	Theresa, I hope he liked it.	Theresa, I hope he liked it.	1245417	1471964625113	1471964625241	a	65
2525	26032	Theresa, I hope he liked it.	Theresa, I hope he liked it.	1245418	1471964625785	1471964625841	,	188
2525	26032	Theresa, I hope he liked it.	Theresa, I hope he liked it.	1245419	1471964625953	1471964626025	 	32
2525	26032	Theresa, I hope he liked it.	Theresa, I hope he liked it.	1245421	1471964626025	1471964626298	SHIFT	16
2525	26032	Theresa, I hope he liked it.	Theresa, I hope he liked it.	1245499	1471964626217	1471964626303	I	73
2525	26032	Theresa, I hope he liked it.	Theresa, I hope he liked it.	1245501	1471964626418	1471964626529	 	32
2525	26032	Theresa, I hope he liked it.	Theresa, I hope he liked it.	1245502	1471964627081	1471964627129	j	74
2525	26032	Theresa, I hope he liked it.	Theresa, I hope he liked it.	1245503	1471964627369	1471964627498	o	79
2525	26032	Theresa, I hope he liked it.	Theresa, I hope he liked it.	1245504	1471964627498	1471964627578	p	80
2525	26032	Theresa, I hope he liked it.	Theresa, I hope he liked it.	1245505	1471964627657	1471964627777	e	69
2525	26032	Theresa, I hope he liked it.	Theresa, I hope he liked it.	1245577	1471964628209	1471964628257	BKSP	8
2525	26032	Theresa, I hope he liked it.	Theresa, I hope he liked it.	1245579	1471964628361	1471964628418	BKSP	8
2525	26032	Theresa, I hope he liked it.	Theresa, I hope he liked it.	1245581	1471964628489	1471964628545	BKSP	8
2525	26032	Theresa, I hope he liked it.	Theresa, I hope he liked it.	1245583	1471964628618	1471964628681	BKSP	8
2525	26032	Theresa, I hope he liked it.	Theresa, I hope he liked it.	1245586	1471964629425	1471964629505	h	72
2525	26032	Theresa, I hope he liked it.	Theresa, I hope he liked it.	1245588	1471964629601	1471964629649	o	79
2525	26032	Theresa, I hope he liked it.	Theresa, I hope he liked it.	1245590	1471964629761	1471964629809	p	80
2525	26032	Theresa, I hope he liked it.	Theresa, I hope he liked it.	1245593	1471964629889	1471964629993	e	69
2525	26032	Theresa, I hope he liked it.	Theresa, I hope he liked it.	1245597	1471964630057	1471964630137	 	32
2525	26032	Theresa, I hope he liked it.	Theresa, I hope he liked it.	1245632	1471964630713	1471964630737	j	74
2525	26032	Theresa, I hope he liked it.	Theresa, I hope he liked it.	1245636	1471964631081	1471964631161	BKSP	8
2525	26032	Theresa, I hope he liked it.	Theresa, I hope he liked it.	1245643	1471964632345	1471964632409	h	72
2525	26032	Theresa, I hope he liked it.	Theresa, I hope he liked it.	1245648	1471964632457	1471964632574	e	69
2525	26032	Theresa, I hope he liked it.	Theresa, I hope he liked it.	1245652	1471964632553	1471964632617	 	32
2525	26032	Theresa, I hope he liked it.	Theresa, I hope he liked it.	1245656	1471964632697	1471964632849	l	76
2525	26032	Theresa, I hope he liked it.	Theresa, I hope he liked it.	1245708	1471964632825	1471964632889	i	73
2525	26032	Theresa, I hope he liked it.	Theresa, I hope he liked it.	1245710	1471964632985	1471964633041	k	75
2525	26032	Theresa, I hope he liked it.	Theresa, I hope he liked it.	1245713	1471964633073	1471964633193	e	69
2525	26032	Theresa, I hope he liked it.	Theresa, I hope he liked it.	1245717	1471964633505	1471964633545	d	68
2525	26032	Theresa, I hope he liked it.	Theresa, I hope he liked it.	1245721	1471964633817	1471964633913	 	32
2525	26032	Theresa, I hope he liked it.	Theresa, I hope he liked it.	1245726	1471964634233	1471964634305	i	73
2525	26032	Theresa, I hope he liked it.	Theresa, I hope he liked it.	1245757	1471964634482	1471964634569	t	84
2525	26032	Theresa, I hope he liked it.	Theresa, I hope he liked it.	1245759	1471964634737	1471964634817	.	190
2525	26049	I will bring the pillow back tomorrow and get with you then.	I will bring the pillow back tomorrow and get with you then.	1245928	1471964638394	1471964638866	SHIFT	16
2525	26049	I will bring the pillow back tomorrow and get with you then.	I will bring the pillow back tomorrow and get with you then.	1245929	1471964638858	1471964638922	I	73
2525	26049	I will bring the pillow back tomorrow and get with you then.	I will bring the pillow back tomorrow and get with you then.	1245930	1471964639042	1471964639121	 	32
2525	26049	I will bring the pillow back tomorrow and get with you then.	I will bring the pillow back tomorrow and get with you then.	1245931	1471964639098	1471964639258	w	87
2525	26049	I will bring the pillow back tomorrow and get with you then.	I will bring the pillow back tomorrow and get with you then.	1245932	1471964639258	1471964639321	i	73
2525	26049	I will bring the pillow back tomorrow and get with you then.	I will bring the pillow back tomorrow and get with you then.	1245934	1471964639418	1471964639498	l	76
2525	26049	I will bring the pillow back tomorrow and get with you then.	I will bring the pillow back tomorrow and get with you then.	1245988	1471964639562	1471964639642	l	76
2525	26049	I will bring the pillow back tomorrow and get with you then.	I will bring the pillow back tomorrow and get with you then.	1245990	1471964639738	1471964639833	 	32
2525	26049	I will bring the pillow back tomorrow and get with you then.	I will bring the pillow back tomorrow and get with you then.	1245992	1471964640434	1471964640473	b	66
2525	26049	I will bring the pillow back tomorrow and get with you then.	I will bring the pillow back tomorrow and get with you then.	1245994	1471964640521	1471964640665	r	82
2525	26049	I will bring the pillow back tomorrow and get with you then.	I will bring the pillow back tomorrow and get with you then.	1245996	1471964640721	1471964640850	u	85
2525	26049	I will bring the pillow back tomorrow and get with you then.	I will bring the pillow back tomorrow and get with you then.	1246016	1471964640852	1471964640953	n	78
2525	26049	I will bring the pillow back tomorrow and get with you then.	I will bring the pillow back tomorrow and get with you then.	1246019	1471964641218	1471964641289	 	32
2525	26049	I will bring the pillow back tomorrow and get with you then.	I will bring the pillow back tomorrow and get with you then.	1246025	1471964641418	1471964641481	t	84
2525	26049	I will bring the pillow back tomorrow and get with you then.	I will bring the pillow back tomorrow and get with you then.	1246029	1471964641577	1471964641650	h	72
2525	26049	I will bring the pillow back tomorrow and get with you then.	I will bring the pillow back tomorrow and get with you then.	1246034	1471964641681	1471964641801	e	69
2525	26049	I will bring the pillow back tomorrow and get with you then.	I will bring the pillow back tomorrow and get with you then.	1246150	1471964641803	1471964641881	 	32
2525	26049	I will bring the pillow back tomorrow and get with you then.	I will bring the pillow back tomorrow and get with you then.	1246152	1471964642233	1471964642297	INSERT	45
2525	26049	I will bring the pillow back tomorrow and get with you then.	I will bring the pillow back tomorrow and get with you then.	1246155	1471964642401	1471964642458	BKSP	8
2525	26049	I will bring the pillow back tomorrow and get with you then.	I will bring the pillow back tomorrow and get with you then.	1246159	1471964642529	1471964642585	BKSP	8
2525	26049	I will bring the pillow back tomorrow and get with you then.	I will bring the pillow back tomorrow and get with you then.	1246163	1471964642657	1471964642729	BKSP	8
2525	26049	I will bring the pillow back tomorrow and get with you then.	I will bring the pillow back tomorrow and get with you then.	1246167	1471964642801	1471964642857	BKSP	8
2525	26049	I will bring the pillow back tomorrow and get with you then.	I will bring the pillow back tomorrow and get with you then.	1246174	1471964642929	1471964642993	BKSP	8
2525	26049	I will bring the pillow back tomorrow and get with you then.	I will bring the pillow back tomorrow and get with you then.	1246179	1471964643049	1471964643105	BKSP	8
2525	26049	I will bring the pillow back tomorrow and get with you then.	I will bring the pillow back tomorrow and get with you then.	1246182	1471964643169	1471964643241	BKSP	8
2525	26049	I will bring the pillow back tomorrow and get with you then.	I will bring the pillow back tomorrow and get with you then.	1246184	1471964643858	1471964643985	i	73
2525	26049	I will bring the pillow back tomorrow and get with you then.	I will bring the pillow back tomorrow and get with you then.	1246187	1471964643961	1471964644041	n	78
2525	26049	I will bring the pillow back tomorrow and get with you then.	I will bring the pillow back tomorrow and get with you then.	1246189	1471964644153	1471964644209	g	71
2525	26049	I will bring the pillow back tomorrow and get with you then.	I will bring the pillow back tomorrow and get with you then.	1246191	1471964644313	1471964644377	 	32
2525	26049	I will bring the pillow back tomorrow and get with you then.	I will bring the pillow back tomorrow and get with you then.	1246223	1471964644497	1471964644553	t	84
2525	26049	I will bring the pillow back tomorrow and get with you then.	I will bring the pillow back tomorrow and get with you then.	1246227	1471964644633	1471964644713	h	72
2525	26049	I will bring the pillow back tomorrow and get with you then.	I will bring the pillow back tomorrow and get with you then.	1246231	1471964644761	1471964644881	e	69
2525	26049	I will bring the pillow back tomorrow and get with you then.	I will bring the pillow back tomorrow and get with you then.	1246235	1471964644849	1471964644929	 	32
2525	26049	I will bring the pillow back tomorrow and get with you then.	I will bring the pillow back tomorrow and get with you then.	1246238	1471964645505	1471964645641	p	80
2525	26049	I will bring the pillow back tomorrow and get with you then.	I will bring the pillow back tomorrow and get with you then.	1246259	1471964645657	1471964645713	i	73
2525	26049	I will bring the pillow back tomorrow and get with you then.	I will bring the pillow back tomorrow and get with you then.	1246260	1471964645818	1471964645881	l	76
2525	26049	I will bring the pillow back tomorrow and get with you then.	I will bring the pillow back tomorrow and get with you then.	1246264	1471964645945	1471964646009	l	76
2525	26049	I will bring the pillow back tomorrow and get with you then.	I will bring the pillow back tomorrow and get with you then.	1246267	1471964646097	1471964646153	o	79
2525	26049	I will bring the pillow back tomorrow and get with you then.	I will bring the pillow back tomorrow and get with you then.	1246270	1471964646241	1471964646385	w	87
2525	26049	I will bring the pillow back tomorrow and get with you then.	I will bring the pillow back tomorrow and get with you then.	1246320	1471964646745	1471964646817	 	32
2525	26049	I will bring the pillow back tomorrow and get with you then.	I will bring the pillow back tomorrow and get with you then.	1246322	1471964646961	1471964647009	b	66
2525	26049	I will bring the pillow back tomorrow and get with you then.	I will bring the pillow back tomorrow and get with you then.	1246323	1471964647073	1471964647266	a	65
2525	26049	I will bring the pillow back tomorrow and get with you then.	I will bring the pillow back tomorrow and get with you then.	1246324	1471964647193	1471964647353	c	67
2525	26049	I will bring the pillow back tomorrow and get with you then.	I will bring the pillow back tomorrow and get with you then.	1246325	1471964647354	1471964647409	k	75
2525	26049	I will bring the pillow back tomorrow and get with you then.	I will bring the pillow back tomorrow and get with you then.	1246344	1471964647529	1471964647617	 	32
2525	26049	I will bring the pillow back tomorrow and get with you then.	I will bring the pillow back tomorrow and get with you then.	1246347	1471964647657	1471964647777	t	84
2525	26049	I will bring the pillow back tomorrow and get with you then.	I will bring the pillow back tomorrow and get with you then.	1246351	1471964647778	1471964647849	o	79
2525	26049	I will bring the pillow back tomorrow and get with you then.	I will bring the pillow back tomorrow and get with you then.	1246354	1471964647889	1471964647961	m	77
2525	26049	I will bring the pillow back tomorrow and get with you then.	I will bring the pillow back tomorrow and get with you then.	1246356	1471964648018	1471964648081	o	79
2525	26049	I will bring the pillow back tomorrow and get with you then.	I will bring the pillow back tomorrow and get with you then.	1246403	1471964648361	1471964648473	r	82
2525	26049	I will bring the pillow back tomorrow and get with you then.	I will bring the pillow back tomorrow and get with you then.	1246406	1471964648577	1471964648689	r	82
2525	26049	I will bring the pillow back tomorrow and get with you then.	I will bring the pillow back tomorrow and get with you then.	1246409	1471964648753	1471964648833	o	79
2525	26049	I will bring the pillow back tomorrow and get with you then.	I will bring the pillow back tomorrow and get with you then.	1246412	1471964648921	1471964649025	e	69
2525	26049	I will bring the pillow back tomorrow and get with you then.	I will bring the pillow back tomorrow and get with you then.	1246414	1471964649353	1471964649433	\	220
2525	26049	I will bring the pillow back tomorrow and get with you then.	I will bring the pillow back tomorrow and get with you then.	1246494	1471964649481	1471964649601	w	87
2525	26049	I will bring the pillow back tomorrow and get with you then.	I will bring the pillow back tomorrow and get with you then.	1246499	1471964649697	1471964649769	 	32
2525	26049	I will bring the pillow back tomorrow and get with you then.	I will bring the pillow back tomorrow and get with you then.	1246504	1471964649833	1471964649873	a	65
2525	26049	I will bring the pillow back tomorrow and get with you then.	I will bring the pillow back tomorrow and get with you then.	1246505	1471964650178	1471964650201	BKSP	8
2525	26049	I will bring the pillow back tomorrow and get with you then.	I will bring the pillow back tomorrow and get with you then.	1246507	1471964650305	1471964650369	BKSP	8
2525	26049	I will bring the pillow back tomorrow and get with you then.	I will bring the pillow back tomorrow and get with you then.	1246509	1471964650441	1471964650497	BKSP	8
2525	26049	I will bring the pillow back tomorrow and get with you then.	I will bring the pillow back tomorrow and get with you then.	1246511	1471964650569	1471964650625	BKSP	8
2525	26049	I will bring the pillow back tomorrow and get with you then.	I will bring the pillow back tomorrow and get with you then.	1246515	1471964650681	1471964650737	BKSP	8
2525	26049	I will bring the pillow back tomorrow and get with you then.	I will bring the pillow back tomorrow and get with you then.	1246519	1471964651121	1471964651225	w	87
2525	26049	I will bring the pillow back tomorrow and get with you then.	I will bring the pillow back tomorrow and get with you then.	1246522	1471964651433	1471964651521	 	32
2525	26049	I will bring the pillow back tomorrow and get with you then.	I will bring the pillow back tomorrow and get with you then.	1246546	1471964651553	1471964651689	a	65
2525	26049	I will bring the pillow back tomorrow and get with you then.	I will bring the pillow back tomorrow and get with you then.	1246548	1471964651729	1471964651785	n	78
2525	26049	I will bring the pillow back tomorrow and get with you then.	I will bring the pillow back tomorrow and get with you then.	1246554	1471964651849	1471964651929	d	68
2525	26049	I will bring the pillow back tomorrow and get with you then.	I will bring the pillow back tomorrow and get with you then.	1246559	1471964651969	1471964652049	 	32
2525	26049	I will bring the pillow back tomorrow and get with you then.	I will bring the pillow back tomorrow and get with you then.	1246563	1471964652961	1471964653000	g	71
2525	26049	I will bring the pillow back tomorrow and get with you then.	I will bring the pillow back tomorrow and get with you then.	1246617	1471964653081	1471964653201	e	69
2525	26049	I will bring the pillow back tomorrow and get with you then.	I will bring the pillow back tomorrow and get with you then.	1246621	1471964653225	1471964653281	t	84
2525	26049	I will bring the pillow back tomorrow and get with you then.	I will bring the pillow back tomorrow and get with you then.	1246623	1471964653425	1471964653529	 	32
2525	26049	I will bring the pillow back tomorrow and get with you then.	I will bring the pillow back tomorrow and get with you then.	1246627	1471964654073	1471964654209	w	87
2525	26049	I will bring the pillow back tomorrow and get with you then.	I will bring the pillow back tomorrow and get with you then.	1246659	1471964654185	1471964654265	i	73
2525	26049	I will bring the pillow back tomorrow and get with you then.	I will bring the pillow back tomorrow and get with you then.	1246664	1471964654368	1471964654441	t	84
2525	26049	I will bring the pillow back tomorrow and get with you then.	I will bring the pillow back tomorrow and get with you then.	1246668	1471964654529	1471964654601	h	72
2525	26049	I will bring the pillow back tomorrow and get with you then.	I will bring the pillow back tomorrow and get with you then.	1246673	1471964654713	1471964654801	 	32
2525	26049	I will bring the pillow back tomorrow and get with you then.	I will bring the pillow back tomorrow and get with you then.	1246678	1471964654969	1471964655073	y	89
2525	26049	I will bring the pillow back tomorrow and get with you then.	I will bring the pillow back tomorrow and get with you then.	1246680	1471964655073	1471964655201	o	79
2525	26049	I will bring the pillow back tomorrow and get with you then.	I will bring the pillow back tomorrow and get with you then.	1246727	1471964655177	1471964655249	u	85
2525	26049	I will bring the pillow back tomorrow and get with you then.	I will bring the pillow back tomorrow and get with you then.	1246730	1471964655417	1471964655505	 	32
2525	26049	I will bring the pillow back tomorrow and get with you then.	I will bring the pillow back tomorrow and get with you then.	1246735	1471964655906	1471964655969	t	84
2525	26049	I will bring the pillow back tomorrow and get with you then.	I will bring the pillow back tomorrow and get with you then.	1246740	1471964656050	1471964656105	h	72
2525	26049	I will bring the pillow back tomorrow and get with you then.	I will bring the pillow back tomorrow and get with you then.	1246742	1471964656154	1471964656266	e	69
2525	26049	I will bring the pillow back tomorrow and get with you then.	I will bring the pillow back tomorrow and get with you then.	1246743	1471964656266	1471964656322	n	78
2525	26049	I will bring the pillow back tomorrow and get with you then.	I will bring the pillow back tomorrow and get with you then.	1246751	1471964656482	1471964656553	.	190
2525	26068	We controlled the race from the start and I'm satisfied.	We controlled the race from the start and I'm satisfied.	1246898	1471964659698	1471964659977	SHIFT	16
2525	26068	We controlled the race from the start and I'm satisfied.	We controlled the race from the start and I'm satisfied.	1246901	1471964659922	1471964660033	W	87
2525	26068	We controlled the race from the start and I'm satisfied.	We controlled the race from the start and I'm satisfied.	1246905	1471964660329	1471964660433	e	69
2525	26068	We controlled the race from the start and I'm satisfied.	We controlled the race from the start and I'm satisfied.	1246907	1471964660545	1471964660617	 	32
2525	26068	We controlled the race from the start and I'm satisfied.	We controlled the race from the start and I'm satisfied.	1246912	1471964660642	1471964660753	c	67
2525	26068	We controlled the race from the start and I'm satisfied.	We controlled the race from the start and I'm satisfied.	1246916	1471964660778	1471964660857	o	79
2525	26068	We controlled the race from the start and I'm satisfied.	We controlled the race from the start and I'm satisfied.	1246959	1471964660945	1471964661017	n	78
2525	26068	We controlled the race from the start and I'm satisfied.	We controlled the race from the start and I'm satisfied.	1246961	1471964661089	1471964661209	t	84
2525	26068	We controlled the race from the start and I'm satisfied.	We controlled the race from the start and I'm satisfied.	1246963	1471964661529	1471964661657	r	82
2525	26068	We controlled the race from the start and I'm satisfied.	We controlled the race from the start and I'm satisfied.	1246966	1471964661761	1471964661818	o	79
2525	26068	We controlled the race from the start and I'm satisfied.	We controlled the race from the start and I'm satisfied.	1246970	1471964661929	1471964661977	l	76
2525	26068	We controlled the race from the start and I'm satisfied.	We controlled the race from the start and I'm satisfied.	1247005	1471964662049	1471964662113	l	76
2525	26068	We controlled the race from the start and I'm satisfied.	We controlled the race from the start and I'm satisfied.	1247006	1471964662169	1471964662249	e	69
2525	26068	We controlled the race from the start and I'm satisfied.	We controlled the race from the start and I'm satisfied.	1247007	1471964662345	1471964662449	d	68
2525	26068	We controlled the race from the start and I'm satisfied.	We controlled the race from the start and I'm satisfied.	1247008	1471964662450	1471964662529	 	32
2525	26068	We controlled the race from the start and I'm satisfied.	We controlled the race from the start and I'm satisfied.	1247009	1471964663025	1471964663097	t	84
2525	26068	We controlled the race from the start and I'm satisfied.	We controlled the race from the start and I'm satisfied.	1247021	1471964663193	1471964663257	h	72
2525	26068	We controlled the race from the start and I'm satisfied.	We controlled the race from the start and I'm satisfied.	1247025	1471964663273	1471964663401	e	69
2525	26068	We controlled the race from the start and I'm satisfied.	We controlled the race from the start and I'm satisfied.	1247028	1471964663402	1471964663465	 	32
2525	26068	We controlled the race from the start and I'm satisfied.	We controlled the race from the start and I'm satisfied.	1247031	1471964663585	1471964663721	r	82
2525	26068	We controlled the race from the start and I'm satisfied.	We controlled the race from the start and I'm satisfied.	1247067	1471964663681	1471964663833	a	65
2525	26068	We controlled the race from the start and I'm satisfied.	We controlled the race from the start and I'm satisfied.	1247068	1471964663913	1471964664073	c	67
2525	26068	We controlled the race from the start and I'm satisfied.	We controlled the race from the start and I'm satisfied.	1247069	1471964664041	1471964664161	e	69
2525	26068	We controlled the race from the start and I'm satisfied.	We controlled the race from the start and I'm satisfied.	1247070	1471964664233	1471964664321	 	32
2525	26068	We controlled the race from the start and I'm satisfied.	We controlled the race from the start and I'm satisfied.	1247071	1471964664337	1471964664457	f	70
2525	26068	We controlled the race from the start and I'm satisfied.	We controlled the race from the start and I'm satisfied.	1247072	1471964664665	1471964664785	r	82
2525	26068	We controlled the race from the start and I'm satisfied.	We controlled the race from the start and I'm satisfied.	1247110	1471964664753	1471964664914	o	79
2525	26068	We controlled the race from the start and I'm satisfied.	We controlled the race from the start and I'm satisfied.	1247113	1471964664915	1471964664977	m	77
2525	26068	We controlled the race from the start and I'm satisfied.	We controlled the race from the start and I'm satisfied.	1247116	1471964665121	1471964665185	 	32
2525	26068	We controlled the race from the start and I'm satisfied.	We controlled the race from the start and I'm satisfied.	1247121	1471964665665	1471964665713	t	84
2525	26068	We controlled the race from the start and I'm satisfied.	We controlled the race from the start and I'm satisfied.	1247126	1471964665809	1471964665865	h	72
2525	26068	We controlled the race from the start and I'm satisfied.	We controlled the race from the start and I'm satisfied.	1247132	1471964665913	1471964666009	e	69
2525	26068	We controlled the race from the start and I'm satisfied.	We controlled the race from the start and I'm satisfied.	1247144	1471964666011	1471964666081	 	32
2525	26068	We controlled the race from the start and I'm satisfied.	We controlled the race from the start and I'm satisfied.	1247145	1471964666129	1471964666241	s	83
2525	26068	We controlled the race from the start and I'm satisfied.	We controlled the race from the start and I'm satisfied.	1247147	1471964666241	1471964666289	t	84
2525	26068	We controlled the race from the start and I'm satisfied.	We controlled the race from the start and I'm satisfied.	1247150	1471964666377	1471964666513	a	65
2525	26068	We controlled the race from the start and I'm satisfied.	We controlled the race from the start and I'm satisfied.	1247214	1471964666481	1471964666585	r	82
2525	26068	We controlled the race from the start and I'm satisfied.	We controlled the race from the start and I'm satisfied.	1247217	1471964666585	1471964666658	t	84
2525	26068	We controlled the race from the start and I'm satisfied.	We controlled the race from the start and I'm satisfied.	1247221	1471964666849	1471964666953	 	32
2525	26068	We controlled the race from the start and I'm satisfied.	We controlled the race from the start and I'm satisfied.	1247224	1471964667305	1471964667465	a	65
2525	26068	We controlled the race from the start and I'm satisfied.	We controlled the race from the start and I'm satisfied.	1247226	1471964667465	1471964667521	n	78
2525	26068	We controlled the race from the start and I'm satisfied.	We controlled the race from the start and I'm satisfied.	1247228	1471964667665	1471964667769	d	68
2525	26068	We controlled the race from the start and I'm satisfied.	We controlled the race from the start and I'm satisfied.	1247371	1471964667809	1471964667881	 	32
2525	26068	We controlled the race from the start and I'm satisfied.	We controlled the race from the start and I'm satisfied.	1247372	1471964668137	1471964668337	SHIFT	16
2525	26068	We controlled the race from the start and I'm satisfied.	We controlled the race from the start and I'm satisfied.	1247373	1471964668321	1471964668361	I	73
2525	26068	We controlled the race from the start and I'm satisfied.	We controlled the race from the start and I'm satisfied.	1247374	1471964669737	1471964669801	'	222
2525	26068	We controlled the race from the start and I'm satisfied.	We controlled the race from the start and I'm satisfied.	1247375	1471964670169	1471964670217	m	77
2525	26068	We controlled the race from the start and I'm satisfied.	We controlled the race from the start and I'm satisfied.	1247376	1471964670345	1471964670417	 	32
2525	26068	We controlled the race from the start and I'm satisfied.	We controlled the race from the start and I'm satisfied.	1247380	1471964670433	1471964670561	s	83
2525	26068	We controlled the race from the start and I'm satisfied.	We controlled the race from the start and I'm satisfied.	1247383	1471964670601	1471964670657	t	84
2525	26068	We controlled the race from the start and I'm satisfied.	We controlled the race from the start and I'm satisfied.	1247385	1471964670705	1471964670849	a	65
2525	26068	We controlled the race from the start and I'm satisfied.	We controlled the race from the start and I'm satisfied.	1247388	1471964670825	1471964670929	r	82
2525	26068	We controlled the race from the start and I'm satisfied.	We controlled the race from the start and I'm satisfied.	1247394	1471964670929	1471964671001	t	84
2525	26068	We controlled the race from the start and I'm satisfied.	We controlled the race from the start and I'm satisfied.	1247472	1471964671049	1471964671153	e	69
2525	26068	We controlled the race from the start and I'm satisfied.	We controlled the race from the start and I'm satisfied.	1247476	1471964671449	1471964671521	BKSP	8
2525	26068	We controlled the race from the start and I'm satisfied.	We controlled the race from the start and I'm satisfied.	1247477	1471964671608	1471964671665	BKSP	8
2525	26068	We controlled the race from the start and I'm satisfied.	We controlled the race from the start and I'm satisfied.	1247480	1471964671729	1471964671801	BKSP	8
2525	26068	We controlled the race from the start and I'm satisfied.	We controlled the race from the start and I'm satisfied.	1247483	1471964671865	1471964671929	BKSP	8
2525	26068	We controlled the race from the start and I'm satisfied.	We controlled the race from the start and I'm satisfied.	1247486	1471964671969	1471964672041	BKSP	8
2525	26068	We controlled the race from the start and I'm satisfied.	We controlled the race from the start and I'm satisfied.	1247490	1471964672609	1471964672745	a	65
2525	26068	We controlled the race from the start and I'm satisfied.	We controlled the race from the start and I'm satisfied.	1247494	1471964672825	1471964672881	t	84
2525	26068	We controlled the race from the start and I'm satisfied.	We controlled the race from the start and I'm satisfied.	1247495	1471964673290	1471964673354	i	73
2525	26068	We controlled the race from the start and I'm satisfied.	We controlled the race from the start and I'm satisfied.	1247500	1471964673466	1471964673570	s	83
2525	26068	We controlled the race from the start and I'm satisfied.	We controlled the race from the start and I'm satisfied.	1247586	1471964673970	1471964674033	f	70
2525	26068	We controlled the race from the start and I'm satisfied.	We controlled the race from the start and I'm satisfied.	1247589	1471964674490	1471964674553	i	73
2525	26068	We controlled the race from the start and I'm satisfied.	We controlled the race from the start and I'm satisfied.	1247592	1471964674554	1471964674633	e	69
2525	26068	We controlled the race from the start and I'm satisfied.	We controlled the race from the start and I'm satisfied.	1247595	1471964674730	1471964674833	d	68
2525	26068	We controlled the race from the start and I'm satisfied.	We controlled the race from the start and I'm satisfied.	1247598	1471964675706	1471964675769	.	190
2525	26087	If it needs to be paid, we will need to add the day to the deal.	If it needs to be paid, we will need to add the day to the deal.	1247824	1471964678418	1471964678681	SHIFT	16
2525	26087	If it needs to be paid, we will need to add the day to the deal.	If it needs to be paid, we will need to add the day to the deal.	1247827	1471964678649	1471964678705	I	73
2525	26087	If it needs to be paid, we will need to add the day to the deal.	If it needs to be paid, we will need to add the day to the deal.	1247830	1471964679153	1471964679257	f	70
2525	26087	If it needs to be paid, we will need to add the day to the deal.	If it needs to be paid, we will need to add the day to the deal.	1247831	1471964679289	1471964679385	 	32
2525	26087	If it needs to be paid, we will need to add the day to the deal.	If it needs to be paid, we will need to add the day to the deal.	1247832	1471964680138	1471964680201	i	73
2525	26087	If it needs to be paid, we will need to add the day to the deal.	If it needs to be paid, we will need to add the day to the deal.	1247834	1471964680257	1471964680345	t	84
2525	26087	If it needs to be paid, we will need to add the day to the deal.	If it needs to be paid, we will need to add the day to the deal.	1247903	1471964680361	1471964680433	 	32
2525	26087	If it needs to be paid, we will need to add the day to the deal.	If it needs to be paid, we will need to add the day to the deal.	1247905	1471964680529	1471964680578	n	78
2525	26087	If it needs to be paid, we will need to add the day to the deal.	If it needs to be paid, we will need to add the day to the deal.	1247907	1471964680578	1471964680681	e	69
2525	26087	If it needs to be paid, we will need to add the day to the deal.	If it needs to be paid, we will need to add the day to the deal.	1247909	1471964680913	1471964681057	d	68
2525	26087	If it needs to be paid, we will need to add the day to the deal.	If it needs to be paid, we will need to add the day to the deal.	1247910	1471964681401	1471964681473	BKSP	8
2525	26087	If it needs to be paid, we will need to add the day to the deal.	If it needs to be paid, we will need to add the day to the deal.	1247912	1471964681626	1471964681713	e	69
2525	26087	If it needs to be paid, we will need to add the day to the deal.	If it needs to be paid, we will need to add the day to the deal.	1247984	1471964681818	1471964681945	d	68
2525	26087	If it needs to be paid, we will need to add the day to the deal.	If it needs to be paid, we will need to add the day to the deal.	1247988	1471964682025	1471964682121	s	83
2525	26087	If it needs to be paid, we will need to add the day to the deal.	If it needs to be paid, we will need to add the day to the deal.	1247992	1471964682217	1471964682289	 	32
2525	26087	If it needs to be paid, we will need to add the day to the deal.	If it needs to be paid, we will need to add the day to the deal.	1247995	1471964682593	1471964682713	t	84
2525	26087	If it needs to be paid, we will need to add the day to the deal.	If it needs to be paid, we will need to add the day to the deal.	1247999	1471964682738	1471964682809	o	79
2525	26087	If it needs to be paid, we will need to add the day to the deal.	If it needs to be paid, we will need to add the day to the deal.	1248021	1471964682969	1471964683057	 	32
2525	26087	If it needs to be paid, we will need to add the day to the deal.	If it needs to be paid, we will need to add the day to the deal.	1248022	1471964683265	1471964683289	b	66
2525	26087	If it needs to be paid, we will need to add the day to the deal.	If it needs to be paid, we will need to add the day to the deal.	1248023	1471964683361	1471964683449	e	69
2525	26087	If it needs to be paid, we will need to add the day to the deal.	If it needs to be paid, we will need to add the day to the deal.	1248024	1471964683481	1471964683537	 	32
2525	26087	If it needs to be paid, we will need to add the day to the deal.	If it needs to be paid, we will need to add the day to the deal.	1248025	1471964683705	1471964683753	p	80
2525	26087	If it needs to be paid, we will need to add the day to the deal.	If it needs to be paid, we will need to add the day to the deal.	1248222	1471964683777	1471964683913	a	65
2525	26087	If it needs to be paid, we will need to add the day to the deal.	If it needs to be paid, we will need to add the day to the deal.	1248224	1471964684722	1471964684778	i	73
2525	26087	If it needs to be paid, we will need to add the day to the deal.	If it needs to be paid, we will need to add the day to the deal.	1248227	1471964687050	1471964687122	d	68
2525	26087	If it needs to be paid, we will need to add the day to the deal.	If it needs to be paid, we will need to add the day to the deal.	1248231	1471964687362	1471964687426	,	188
2525	26087	If it needs to be paid, we will need to add the day to the deal.	If it needs to be paid, we will need to add the day to the deal.	1248235	1471964687538	1471964687610	 	32
2525	26087	If it needs to be paid, we will need to add the day to the deal.	If it needs to be paid, we will need to add the day to the deal.	1248281	1471964687626	1471964687810	w	87
2525	26087	If it needs to be paid, we will need to add the day to the deal.	If it needs to be paid, we will need to add the day to the deal.	1248283	1471964687770	1471964687882	e	69
2525	26087	If it needs to be paid, we will need to add the day to the deal.	If it needs to be paid, we will need to add the day to the deal.	1248286	1471964687978	1471964688050	 	32
2525	26087	If it needs to be paid, we will need to add the day to the deal.	If it needs to be paid, we will need to add the day to the deal.	1248292	1471964688370	1471964688506	w	87
2525	26087	If it needs to be paid, we will need to add the day to the deal.	If it needs to be paid, we will need to add the day to the deal.	1248295	1471964688618	1471964688682	i	73
2525	26087	If it needs to be paid, we will need to add the day to the deal.	If it needs to be paid, we will need to add the day to the deal.	1248319	1471964688769	1471964688842	l	76
2525	26087	If it needs to be paid, we will need to add the day to the deal.	If it needs to be paid, we will need to add the day to the deal.	1248322	1471964688906	1471964688978	l	76
2525	26087	If it needs to be paid, we will need to add the day to the deal.	If it needs to be paid, we will need to add the day to the deal.	1248325	1471964689098	1471964689170	 	32
2525	26087	If it needs to be paid, we will need to add the day to the deal.	If it needs to be paid, we will need to add the day to the deal.	1248327	1471964689354	1471964689418	n	78
2525	26087	If it needs to be paid, we will need to add the day to the deal.	If it needs to be paid, we will need to add the day to the deal.	1248329	1471964689458	1471964689578	e	69
2525	26087	If it needs to be paid, we will need to add the day to the deal.	If it needs to be paid, we will need to add the day to the deal.	1248368	1471964689802	1471964689898	e	69
2525	26087	If it needs to be paid, we will need to add the day to the deal.	If it needs to be paid, we will need to add the day to the deal.	1248372	1471964690002	1471964690114	d	68
2525	26087	If it needs to be paid, we will need to add the day to the deal.	If it needs to be paid, we will need to add the day to the deal.	1248374	1471964690146	1471964690218	 	32
2525	26087	If it needs to be paid, we will need to add the day to the deal.	If it needs to be paid, we will need to add the day to the deal.	1248376	1471964690507	1471964690627	t	84
2525	26087	If it needs to be paid, we will need to add the day to the deal.	If it needs to be paid, we will need to add the day to the deal.	1248379	1471964690691	1471964690762	o	79
2525	26087	If it needs to be paid, we will need to add the day to the deal.	If it needs to be paid, we will need to add the day to the deal.	1248420	1471964690882	1471964690979	 	32
2525	26087	If it needs to be paid, we will need to add the day to the deal.	If it needs to be paid, we will need to add the day to the deal.	1248423	1471964690979	1471964691170	a	65
2525	26087	If it needs to be paid, we will need to add the day to the deal.	If it needs to be paid, we will need to add the day to the deal.	1248426	1471964691107	1471964691242	d	68
2525	26087	If it needs to be paid, we will need to add the day to the deal.	If it needs to be paid, we will need to add the day to the deal.	1248429	1471964691339	1471964691434	d	68
2525	26087	If it needs to be paid, we will need to add the day to the deal.	If it needs to be paid, we will need to add the day to the deal.	1248431	1471964691531	1471964691610	 	32
2525	26087	If it needs to be paid, we will need to add the day to the deal.	If it needs to be paid, we will need to add the day to the deal.	1248446	1471964691899	1471964691954	t	84
2525	26087	If it needs to be paid, we will need to add the day to the deal.	If it needs to be paid, we will need to add the day to the deal.	1248449	1471964692043	1471964692106	h	72
2525	26087	If it needs to be paid, we will need to add the day to the deal.	If it needs to be paid, we will need to add the day to the deal.	1248452	1471964692148	1471964692267	e	69
2525	26087	If it needs to be paid, we will need to add the day to the deal.	If it needs to be paid, we will need to add the day to the deal.	1248455	1471964692267	1471964692346	 	32
2525	26087	If it needs to be paid, we will need to add the day to the deal.	If it needs to be paid, we will need to add the day to the deal.	1248459	1471964692411	1471964692546	d	68
2525	26087	If it needs to be paid, we will need to add the day to the deal.	If it needs to be paid, we will need to add the day to the deal.	1248496	1471964692506	1471964692659	a	65
2525	26087	If it needs to be paid, we will need to add the day to the deal.	If it needs to be paid, we will need to add the day to the deal.	1248498	1471964692706	1471964692762	y	89
2525	26087	If it needs to be paid, we will need to add the day to the deal.	If it needs to be paid, we will need to add the day to the deal.	1248499	1471964693042	1471964693146	 	32
2525	26087	If it needs to be paid, we will need to add the day to the deal.	If it needs to be paid, we will need to add the day to the deal.	1248500	1471964693562	1471964693666	t	84
2525	26087	If it needs to be paid, we will need to add the day to the deal.	If it needs to be paid, we will need to add the day to the deal.	1248501	1471964693690	1471964693770	o	79
2525	26087	If it needs to be paid, we will need to add the day to the deal.	If it needs to be paid, we will need to add the day to the deal.	1248503	1471964693866	1471964693946	 	32
2525	26087	If it needs to be paid, we will need to add the day to the deal.	If it needs to be paid, we will need to add the day to the deal.	1248612	1471964694070	1471964694138	t	84
2525	26087	If it needs to be paid, we will need to add the day to the deal.	If it needs to be paid, we will need to add the day to the deal.	1248615	1471964694219	1471964694282	h	72
2525	26087	If it needs to be paid, we will need to add the day to the deal.	If it needs to be paid, we will need to add the day to the deal.	1248622	1471964694322	1471964694466	e	69
2525	26087	If it needs to be paid, we will need to add the day to the deal.	If it needs to be paid, we will need to add the day to the deal.	1248625	1471964694467	1471964694546	 	32
2525	26087	If it needs to be paid, we will need to add the day to the deal.	If it needs to be paid, we will need to add the day to the deal.	1248629	1471964694874	1471964694970	d	68
2525	26087	If it needs to be paid, we will need to add the day to the deal.	If it needs to be paid, we will need to add the day to the deal.	1248671	1471964695082	1471964695170	e	69
2525	26087	If it needs to be paid, we will need to add the day to the deal.	If it needs to be paid, we will need to add the day to the deal.	1248675	1471964695154	1471964695322	a	65
2525	26087	If it needs to be paid, we will need to add the day to the deal.	If it needs to be paid, we will need to add the day to the deal.	1248677	1471964695322	1471964695386	l	76
2525	26087	If it needs to be paid, we will need to add the day to the deal.	If it needs to be paid, we will need to add the day to the deal.	1248679	1471964695562	1471964695634	.	190
2525	26109	Our numbers are correct in the system now.	Our numbers are correct in the system now.	1249026	1471964703410	1471964703770	SHIFT	16
2525	26109	Our numbers are correct in the system now.	Our numbers are correct in the system now.	1249029	1471964703722	1471964703786	O	79
2525	26109	Our numbers are correct in the system now.	Our numbers are correct in the system now.	1249032	1471964704170	1471964704242	u	85
2525	26109	Our numbers are correct in the system now.	Our numbers are correct in the system now.	1249035	1471964704474	1471964704594	r	82
2525	26109	Our numbers are correct in the system now.	Our numbers are correct in the system now.	1249038	1471964704722	1471964704794	 	32
2525	26109	Our numbers are correct in the system now.	Our numbers are correct in the system now.	1249041	1471964705314	1471964705378	n	78
2525	26109	Our numbers are correct in the system now.	Our numbers are correct in the system now.	1249050	1471964705450	1471964705514	u	85
2525	26109	Our numbers are correct in the system now.	Our numbers are correct in the system now.	1249053	1471964705634	1471964705698	m	77
2525	26109	Our numbers are correct in the system now.	Our numbers are correct in the system now.	1249056	1471964705850	1471964705890	b	66
2525	26109	Our numbers are correct in the system now.	Our numbers are correct in the system now.	1249059	1471964705906	1471964706034	e	69
2525	26109	Our numbers are correct in the system now.	Our numbers are correct in the system now.	1249120	1471964705993	1471964706098	r	82
2525	26109	Our numbers are correct in the system now.	Our numbers are correct in the system now.	1249123	1471964706202	1471964706314	s	83
2525	26109	Our numbers are correct in the system now.	Our numbers are correct in the system now.	1249125	1471964706402	1471964706482	 	32
2525	26109	Our numbers are correct in the system now.	Our numbers are correct in the system now.	1249127	1471964706650	1471964706858	a	65
2525	26109	Our numbers are correct in the system now.	Our numbers are correct in the system now.	1249129	1471964706914	1471964707058	r	82
2525	26109	Our numbers are correct in the system now.	Our numbers are correct in the system now.	1249172	1471964707041	1471964707186	e	69
2525	26109	Our numbers are correct in the system now.	Our numbers are correct in the system now.	1249176	1471964707218	1471964707290	 	32
2525	26109	Our numbers are correct in the system now.	Our numbers are correct in the system now.	1249180	1471964707370	1471964707522	c	67
2525	26109	Our numbers are correct in the system now.	Our numbers are correct in the system now.	1249184	1471964707546	1471964707626	o	79
2525	26109	Our numbers are correct in the system now.	Our numbers are correct in the system now.	1249188	1471964707714	1471964707802	r	82
2525	26109	Our numbers are correct in the system now.	Our numbers are correct in the system now.	1249194	1471964707890	1471964708003	r	82
2525	26109	Our numbers are correct in the system now.	Our numbers are correct in the system now.	1249261	1471964708074	1471964708203	e	69
2525	26109	Our numbers are correct in the system now.	Our numbers are correct in the system now.	1249265	1471964708363	1471964708459	c	67
2525	26109	Our numbers are correct in the system now.	Our numbers are correct in the system now.	1249269	1471964708555	1471964708610	t	84
2525	26109	Our numbers are correct in the system now.	Our numbers are correct in the system now.	1249270	1471964708810	1471964708906	 	32
2525	26109	Our numbers are correct in the system now.	Our numbers are correct in the system now.	1249272	1471964709059	1471964709138	i	73
2525	26109	Our numbers are correct in the system now.	Our numbers are correct in the system now.	1249351	1471964709211	1471964709323	n	78
2525	26109	Our numbers are correct in the system now.	Our numbers are correct in the system now.	1249355	1471964709595	1471964709699	 	32
2525	26109	Our numbers are correct in the system now.	Our numbers are correct in the system now.	1249358	1471964710250	1471964710322	h	72
2525	26109	Our numbers are correct in the system now.	Our numbers are correct in the system now.	1249362	1471964710370	1471964710458	e	69
2525	26109	Our numbers are correct in the system now.	Our numbers are correct in the system now.	1249365	1471964711050	1471964711146	BKSP	8
2525	26109	Our numbers are correct in the system now.	Our numbers are correct in the system now.	1249367	1471964711194	1471964711274	BKSP	8
2525	26109	Our numbers are correct in the system now.	Our numbers are correct in the system now.	1249369	1471964711314	1471964711370	BKSP	8
2525	26109	Our numbers are correct in the system now.	Our numbers are correct in the system now.	1249371	1471964711579	1471964711634	t	84
2525	26109	Our numbers are correct in the system now.	Our numbers are correct in the system now.	1249487	1471964711754	1471964711842	h	72
2525	26109	Our numbers are correct in the system now.	Our numbers are correct in the system now.	1249491	1471964712179	1471964712226	BKSP	8
2525	26109	Our numbers are correct in the system now.	Our numbers are correct in the system now.	1249494	1471964712314	1471964712378	BKSP	8
2525	26109	Our numbers are correct in the system now.	Our numbers are correct in the system now.	1249496	1471964712450	1471964712514	BKSP	8
2525	26109	Our numbers are correct in the system now.	Our numbers are correct in the system now.	1249499	1471964712699	1471964712779	 	32
2525	26109	Our numbers are correct in the system now.	Our numbers are correct in the system now.	1249502	1471964713506	1471964713586	BKSP	8
2525	26109	Our numbers are correct in the system now.	Our numbers are correct in the system now.	1249506	1471964713858	1471964713946	 	32
2525	26109	Our numbers are correct in the system now.	Our numbers are correct in the system now.	1249513	1471964714059	1471964714114	n	78
2525	26109	Our numbers are correct in the system now.	Our numbers are correct in the system now.	1249519	1471964714226	1471964714282	 	32
2525	26109	Our numbers are correct in the system now.	Our numbers are correct in the system now.	1249598	1471964714619	1471964714682	BKSP	8
2525	26109	Our numbers are correct in the system now.	Our numbers are correct in the system now.	1249599	1471964714770	1471964714834	BKSP	8
2525	26109	Our numbers are correct in the system now.	Our numbers are correct in the system now.	1249600	1471964714890	1471964714978	BKSP	8
2525	26109	Our numbers are correct in the system now.	Our numbers are correct in the system now.	1249601	1471964715554	1471964715618	n	78
2525	26109	Our numbers are correct in the system now.	Our numbers are correct in the system now.	1249602	1471964715706	1471964715770	 	32
2525	26109	Our numbers are correct in the system now.	Our numbers are correct in the system now.	1249603	1471964715898	1471964715970	t	84
2525	26109	Our numbers are correct in the system now.	Our numbers are correct in the system now.	1249604	1471964716042	1471964716122	h	72
2525	26109	Our numbers are correct in the system now.	Our numbers are correct in the system now.	1249605	1471964716154	1471964716259	e	69
2525	26109	Our numbers are correct in the system now.	Our numbers are correct in the system now.	1249626	1471964716260	1471964716347	 	32
2525	26109	Our numbers are correct in the system now.	Our numbers are correct in the system now.	1249628	1471964716386	1471964716514	s	83
2525	26109	Our numbers are correct in the system now.	Our numbers are correct in the system now.	1249630	1471964716547	1471964716610	y	89
2525	26109	Our numbers are correct in the system now.	Our numbers are correct in the system now.	1249632	1471964716706	1471964716850	s	83
2525	26109	Our numbers are correct in the system now.	Our numbers are correct in the system now.	1249636	1471964716882	1471964716938	t	84
2525	26109	Our numbers are correct in the system now.	Our numbers are correct in the system now.	1249674	1471964717034	1471964717162	e	69
2525	26109	Our numbers are correct in the system now.	Our numbers are correct in the system now.	1249676	1471964717186	1471964717258	m	77
2525	26109	Our numbers are correct in the system now.	Our numbers are correct in the system now.	1249679	1471964717466	1471964717522	 	32
2525	26109	Our numbers are correct in the system now.	Our numbers are correct in the system now.	1249684	1471964718018	1471964718130	n	78
2525	26109	Our numbers are correct in the system now.	Our numbers are correct in the system now.	1249688	1471964718130	1471964718194	o	79
2525	26109	Our numbers are correct in the system now.	Our numbers are correct in the system now.	1249700	1471964718196	1471964718298	w	87
2525	26109	Our numbers are correct in the system now.	Our numbers are correct in the system now.	1249703	1471964718394	1471964718450	.	190
2525	26128	As they used to say of Gandhi, he was a mahatma, a great soul.	As rgey used to say of Gandhi, he was a mahatma, a great soul.	1249887	1471964721474	1471964721490	SHIFT	16
2525	26128	As they used to say of Gandhi, he was a mahatma, a great soul.	As rgey used to say of Gandhi, he was a mahatma, a great soul.	1249891	1471964721634	1471964721826	CTRL	17
2525	26128	As they used to say of Gandhi, he was a mahatma, a great soul.	As rgey used to say of Gandhi, he was a mahatma, a great soul.	1249895	1471964721722	1471964721826	SHIFT	16
2525	26128	As they used to say of Gandhi, he was a mahatma, a great soul.	As rgey used to say of Gandhi, he was a mahatma, a great soul.	1249900	1471964721930	1471964722298	SHIFT	16
2525	26128	As they used to say of Gandhi, he was a mahatma, a great soul.	As rgey used to say of Gandhi, he was a mahatma, a great soul.	1249907	1471964722218	1471964722346	A	65
2525	26128	As they used to say of Gandhi, he was a mahatma, a great soul.	As rgey used to say of Gandhi, he was a mahatma, a great soul.	1249912	1471964722490	1471964722570	s	83
2525	26128	As they used to say of Gandhi, he was a mahatma, a great soul.	As rgey used to say of Gandhi, he was a mahatma, a great soul.	1249918	1471964722930	1471964723018	 	32
2525	26128	As they used to say of Gandhi, he was a mahatma, a great soul.	As rgey used to say of Gandhi, he was a mahatma, a great soul.	1249923	1471964723194	1471964723258	r	82
2525	26128	As they used to say of Gandhi, he was a mahatma, a great soul.	As rgey used to say of Gandhi, he was a mahatma, a great soul.	1249927	1471964723338	1471964723410	g	71
2525	26128	As they used to say of Gandhi, he was a mahatma, a great soul.	As rgey used to say of Gandhi, he was a mahatma, a great soul.	1249966	1471964723426	1471964723570	e	69
2525	26128	As they used to say of Gandhi, he was a mahatma, a great soul.	As rgey used to say of Gandhi, he was a mahatma, a great soul.	1249968	1471964723570	1471964723610	y	89
2525	26128	As they used to say of Gandhi, he was a mahatma, a great soul.	As rgey used to say of Gandhi, he was a mahatma, a great soul.	1249971	1471964723754	1471964723841	 	32
2525	26128	As they used to say of Gandhi, he was a mahatma, a great soul.	As rgey used to say of Gandhi, he was a mahatma, a great soul.	1249975	1471964724554	1471964724618	u	85
2525	26128	As they used to say of Gandhi, he was a mahatma, a great soul.	As rgey used to say of Gandhi, he was a mahatma, a great soul.	1249980	1471964724618	1471964724730	s	83
2525	26128	As they used to say of Gandhi, he was a mahatma, a great soul.	As rgey used to say of Gandhi, he was a mahatma, a great soul.	1250047	1471964724834	1471964724914	e	69
2525	26128	As they used to say of Gandhi, he was a mahatma, a great soul.	As rgey used to say of Gandhi, he was a mahatma, a great soul.	1250048	1471964725026	1471964725106	d	68
2525	26128	As they used to say of Gandhi, he was a mahatma, a great soul.	As rgey used to say of Gandhi, he was a mahatma, a great soul.	1250049	1471964725194	1471964725290	 	32
2525	26128	As they used to say of Gandhi, he was a mahatma, a great soul.	As rgey used to say of Gandhi, he was a mahatma, a great soul.	1250050	1471964725939	1471964726034	t	84
2525	26128	As they used to say of Gandhi, he was a mahatma, a great soul.	As rgey used to say of Gandhi, he was a mahatma, a great soul.	1250051	1471964726075	1471964726146	o	79
2525	26128	As they used to say of Gandhi, he was a mahatma, a great soul.	As rgey used to say of Gandhi, he was a mahatma, a great soul.	1250068	1471964726283	1471964726371	 	32
2525	26128	As they used to say of Gandhi, he was a mahatma, a great soul.	As rgey used to say of Gandhi, he was a mahatma, a great soul.	1250071	1471964726371	1471964726554	s	83
2525	26128	As they used to say of Gandhi, he was a mahatma, a great soul.	As rgey used to say of Gandhi, he was a mahatma, a great soul.	1250076	1471964726507	1471964726699	a	65
2525	26128	As they used to say of Gandhi, he was a mahatma, a great soul.	As rgey used to say of Gandhi, he was a mahatma, a great soul.	1250082	1471964726650	1471964726700	y	89
2525	26128	As they used to say of Gandhi, he was a mahatma, a great soul.	As rgey used to say of Gandhi, he was a mahatma, a great soul.	1250088	1471964726859	1471964726946	 	32
2525	26128	As they used to say of Gandhi, he was a mahatma, a great soul.	As rgey used to say of Gandhi, he was a mahatma, a great soul.	1250167	1471964727563	1471964727667	o	79
2525	26128	As they used to say of Gandhi, he was a mahatma, a great soul.	As rgey used to say of Gandhi, he was a mahatma, a great soul.	1250169	1471964727683	1471964727779	f	70
2525	26128	As they used to say of Gandhi, he was a mahatma, a great soul.	As rgey used to say of Gandhi, he was a mahatma, a great soul.	1250170	1471964727842	1471964727906	 	32
2525	26128	As they used to say of Gandhi, he was a mahatma, a great soul.	As rgey used to say of Gandhi, he was a mahatma, a great soul.	1250172	1471964728634	1471964729046	SHIFT	16
2525	26128	As they used to say of Gandhi, he was a mahatma, a great soul.	As rgey used to say of Gandhi, he was a mahatma, a great soul.	1250173	1471964729026	1471964729066	G	71
2525	26128	As they used to say of Gandhi, he was a mahatma, a great soul.	As rgey used to say of Gandhi, he was a mahatma, a great soul.	1250175	1471964729226	1471964729426	a	65
2525	26128	As they used to say of Gandhi, he was a mahatma, a great soul.	As rgey used to say of Gandhi, he was a mahatma, a great soul.	1250278	1471964729458	1471964729522	n	78
2525	26128	As they used to say of Gandhi, he was a mahatma, a great soul.	As rgey used to say of Gandhi, he was a mahatma, a great soul.	1250279	1471964730986	1471964731114	d	68
2525	26128	As they used to say of Gandhi, he was a mahatma, a great soul.	As rgey used to say of Gandhi, he was a mahatma, a great soul.	1250280	1471964731187	1471964731299	h	72
2525	26128	As they used to say of Gandhi, he was a mahatma, a great soul.	As rgey used to say of Gandhi, he was a mahatma, a great soul.	1250281	1471964731299	1471964731386	i	73
2525	26128	As they used to say of Gandhi, he was a mahatma, a great soul.	As rgey used to say of Gandhi, he was a mahatma, a great soul.	1250282	1471964732234	1471964732298	,	188
2525	26128	As they used to say of Gandhi, he was a mahatma, a great soul.	As rgey used to say of Gandhi, he was a mahatma, a great soul.	1250315	1471964732418	1471964732498	 	32
2525	26128	As they used to say of Gandhi, he was a mahatma, a great soul.	As rgey used to say of Gandhi, he was a mahatma, a great soul.	1250317	1471964732666	1471964732706	h	72
2525	26128	As they used to say of Gandhi, he was a mahatma, a great soul.	As rgey used to say of Gandhi, he was a mahatma, a great soul.	1250318	1471964732738	1471964732866	e	69
2525	26128	As they used to say of Gandhi, he was a mahatma, a great soul.	As rgey used to say of Gandhi, he was a mahatma, a great soul.	1250319	1471964732898	1471964732962	 	32
2525	26128	As they used to say of Gandhi, he was a mahatma, a great soul.	As rgey used to say of Gandhi, he was a mahatma, a great soul.	1250320	1471964733066	1471964733202	w	87
2525	26128	As they used to say of Gandhi, he was a mahatma, a great soul.	As rgey used to say of Gandhi, he was a mahatma, a great soul.	1250377	1471964733170	1471964733362	a	65
2525	26128	As they used to say of Gandhi, he was a mahatma, a great soul.	As rgey used to say of Gandhi, he was a mahatma, a great soul.	1250378	1471964733290	1471964733418	s	83
2525	26128	As they used to say of Gandhi, he was a mahatma, a great soul.	As rgey used to say of Gandhi, he was a mahatma, a great soul.	1250380	1471964733490	1471964733562	 	32
2525	26128	As they used to say of Gandhi, he was a mahatma, a great soul.	As rgey used to say of Gandhi, he was a mahatma, a great soul.	1250383	1471964733666	1471964733826	a	65
2525	26128	As they used to say of Gandhi, he was a mahatma, a great soul.	As rgey used to say of Gandhi, he was a mahatma, a great soul.	1250387	1471964733827	1471964733890	 	32
2525	26128	As they used to say of Gandhi, he was a mahatma, a great soul.	As rgey used to say of Gandhi, he was a mahatma, a great soul.	1250389	1471964734026	1471964734082	m	77
2525	26128	As they used to say of Gandhi, he was a mahatma, a great soul.	As rgey used to say of Gandhi, he was a mahatma, a great soul.	1250424	1471964734122	1471964734266	a	65
2525	26128	As they used to say of Gandhi, he was a mahatma, a great soul.	As rgey used to say of Gandhi, he was a mahatma, a great soul.	1250426	1471964734330	1471964734395	h	72
2525	26128	As they used to say of Gandhi, he was a mahatma, a great soul.	As rgey used to say of Gandhi, he was a mahatma, a great soul.	1250428	1471964734442	1471964734578	a	65
2525	26128	As they used to say of Gandhi, he was a mahatma, a great soul.	As rgey used to say of Gandhi, he was a mahatma, a great soul.	1250430	1471964734579	1471964734626	t	84
2525	26128	As they used to say of Gandhi, he was a mahatma, a great soul.	As rgey used to say of Gandhi, he was a mahatma, a great soul.	1250433	1471964734786	1471964734866	m	77
2525	26128	As they used to say of Gandhi, he was a mahatma, a great soul.	As rgey used to say of Gandhi, he was a mahatma, a great soul.	1250477	1471964734922	1471964735050	a	65
2525	26128	As they used to say of Gandhi, he was a mahatma, a great soul.	As rgey used to say of Gandhi, he was a mahatma, a great soul.	1250478	1471964735098	1471964735179	 	32
2525	26128	As they used to say of Gandhi, he was a mahatma, a great soul.	As rgey used to say of Gandhi, he was a mahatma, a great soul.	1250479	1471964735762	1471964735882	BKSP	8
2525	26128	As they used to say of Gandhi, he was a mahatma, a great soul.	As rgey used to say of Gandhi, he was a mahatma, a great soul.	1250480	1471964736074	1471964736146	,	188
2525	26128	As they used to say of Gandhi, he was a mahatma, a great soul.	As rgey used to say of Gandhi, he was a mahatma, a great soul.	1250482	1471964736274	1471964736354	 	32
2525	26128	As they used to say of Gandhi, he was a mahatma, a great soul.	As rgey used to say of Gandhi, he was a mahatma, a great soul.	1250485	1471964736386	1471964736562	a	65
2525	26128	As they used to say of Gandhi, he was a mahatma, a great soul.	As rgey used to say of Gandhi, he was a mahatma, a great soul.	1250550	1471964736514	1471964736586	 	32
2525	26128	As they used to say of Gandhi, he was a mahatma, a great soul.	As rgey used to say of Gandhi, he was a mahatma, a great soul.	1250551	1471964736722	1471964736762	g	71
2525	26128	As they used to say of Gandhi, he was a mahatma, a great soul.	As rgey used to say of Gandhi, he was a mahatma, a great soul.	1250553	1471964737442	1471964737514	r	82
2525	26128	As they used to say of Gandhi, he was a mahatma, a great soul.	As rgey used to say of Gandhi, he was a mahatma, a great soul.	1250555	1471964737530	1471964737690	e	69
2525	26128	As they used to say of Gandhi, he was a mahatma, a great soul.	As rgey used to say of Gandhi, he was a mahatma, a great soul.	1250557	1471964737642	1471964737786	a	65
2525	26128	As they used to say of Gandhi, he was a mahatma, a great soul.	As rgey used to say of Gandhi, he was a mahatma, a great soul.	1250620	1471964737738	1471964737794	t	84
2525	26128	As they used to say of Gandhi, he was a mahatma, a great soul.	As rgey used to say of Gandhi, he was a mahatma, a great soul.	1250624	1471964738282	1471964738362	 	32
2525	26128	As they used to say of Gandhi, he was a mahatma, a great soul.	As rgey used to say of Gandhi, he was a mahatma, a great soul.	1250629	1471964738450	1471964738618	s	83
2525	26128	As they used to say of Gandhi, he was a mahatma, a great soul.	As rgey used to say of Gandhi, he was a mahatma, a great soul.	1250635	1471964738658	1471964738779	o	79
2525	26128	As they used to say of Gandhi, he was a mahatma, a great soul.	As rgey used to say of Gandhi, he was a mahatma, a great soul.	1250641	1471964738754	1471964738842	u	85
2525	26128	As they used to say of Gandhi, he was a mahatma, a great soul.	As rgey used to say of Gandhi, he was a mahatma, a great soul.	1250647	1471964738899	1471964738970	l	76
2525	26128	As they used to say of Gandhi, he was a mahatma, a great soul.	As rgey used to say of Gandhi, he was a mahatma, a great soul.	1250671	1471964739034	1471964739154	d	68
2525	26128	As they used to say of Gandhi, he was a mahatma, a great soul.	As rgey used to say of Gandhi, he was a mahatma, a great soul.	1250673	1471964739562	1471964739634	BKSP	8
2525	26128	As they used to say of Gandhi, he was a mahatma, a great soul.	As rgey used to say of Gandhi, he was a mahatma, a great soul.	1250675	1471964739930	1471964739994	.	190
2525	26146	I will call you Monday morning to discuss.	I will call you Monday morning to discuss.	1251097	1471964746522	1471964746857	SHIFT	16
2525	26146	I will call you Monday morning to discuss.	I will call you Monday morning to discuss.	1251099	1471964746817	1471964746889	I	73
2525	26146	I will call you Monday morning to discuss.	I will call you Monday morning to discuss.	1251101	1471964747001	1471964747081	 	32
2525	26146	I will call you Monday morning to discuss.	I will call you Monday morning to discuss.	1251104	1471964747041	1471964747194	w	87
2525	26146	I will call you Monday morning to discuss.	I will call you Monday morning to discuss.	1251105	1471964747194	1471964747273	i	73
2525	26146	I will call you Monday morning to discuss.	I will call you Monday morning to discuss.	1251107	1471964747361	1471964747433	l	76
2525	26146	I will call you Monday morning to discuss.	I will call you Monday morning to discuss.	1251078	1471964747497	1471964747561	l	76
2525	26146	I will call you Monday morning to discuss.	I will call you Monday morning to discuss.	1251082	1471964747658	1471964747745	 	32
2525	26146	I will call you Monday morning to discuss.	I will call you Monday morning to discuss.	1251085	1471964747779	1471964747913	c	67
2525	26146	I will call you Monday morning to discuss.	I will call you Monday morning to discuss.	1251088	1471964747865	1471964748033	a	65
2525	26146	I will call you Monday morning to discuss.	I will call you Monday morning to discuss.	1251091	1471964748097	1471964748153	l	76
2525	26146	I will call you Monday morning to discuss.	I will call you Monday morning to discuss.	1251129	1471964748218	1471964748273	l	76
2525	26146	I will call you Monday morning to discuss.	I will call you Monday morning to discuss.	1251134	1471964748425	1471964748505	 	32
2525	26146	I will call you Monday morning to discuss.	I will call you Monday morning to discuss.	1251139	1471964748985	1471964749105	y	89
2525	26146	I will call you Monday morning to discuss.	I will call you Monday morning to discuss.	1251144	1471964749106	1471964749194	o	79
2525	26146	I will call you Monday morning to discuss.	I will call you Monday morning to discuss.	1251187	1471964749169	1471964749233	u	85
2525	26146	I will call you Monday morning to discuss.	I will call you Monday morning to discuss.	1251188	1471964749393	1471964749489	 	32
2525	26146	I will call you Monday morning to discuss.	I will call you Monday morning to discuss.	1251189	1471964749657	1471964750001	SHIFT	16
2525	26146	I will call you Monday morning to discuss.	I will call you Monday morning to discuss.	1251190	1471964749929	1471964750001	M	77
2525	26146	I will call you Monday morning to discuss.	I will call you Monday morning to discuss.	1251191	1471964750121	1471964750193	o	79
2525	26146	I will call you Monday morning to discuss.	I will call you Monday morning to discuss.	1251192	1471964750345	1471964750401	n	78
2525	26146	I will call you Monday morning to discuss.	I will call you Monday morning to discuss.	1251193	1471964750578	1471964750721	d	68
2525	26146	I will call you Monday morning to discuss.	I will call you Monday morning to discuss.	1251272	1471964750698	1471964750833	a	65
2525	26146	I will call you Monday morning to discuss.	I will call you Monday morning to discuss.	1251276	1471964750865	1471964750913	y	89
2525	26146	I will call you Monday morning to discuss.	I will call you Monday morning to discuss.	1251281	1471964751097	1471964751185	 	32
2525	26146	I will call you Monday morning to discuss.	I will call you Monday morning to discuss.	1251286	1471964751697	1471964751825	m	77
2525	26146	I will call you Monday morning to discuss.	I will call you Monday morning to discuss.	1251290	1471964751809	1471964751905	o	79
2525	26146	I will call you Monday morning to discuss.	I will call you Monday morning to discuss.	1251294	1471964751945	1471964752065	r	82
2525	26146	I will call you Monday morning to discuss.	I will call you Monday morning to discuss.	1251342	1471964752049	1471964752169	n	78
2525	26146	I will call you Monday morning to discuss.	I will call you Monday morning to discuss.	1251346	1471964752169	1471964752305	i	73
2525	26146	I will call you Monday morning to discuss.	I will call you Monday morning to discuss.	1251349	1471964752265	1471964752329	n	78
2525	26146	I will call you Monday morning to discuss.	I will call you Monday morning to discuss.	1251351	1471964752441	1471964752505	g	71
2525	26146	I will call you Monday morning to discuss.	I will call you Monday morning to discuss.	1251353	1471964752698	1471964752793	 	32
2525	26146	I will call you Monday morning to discuss.	I will call you Monday morning to discuss.	1251356	1471964753217	1471964753345	t	84
2525	26146	I will call you Monday morning to discuss.	I will call you Monday morning to discuss.	1251391	1471964753385	1471964753449	o	79
2525	26146	I will call you Monday morning to discuss.	I will call you Monday morning to discuss.	1251393	1471964753593	1471964753697	 	32
2525	26146	I will call you Monday morning to discuss.	I will call you Monday morning to discuss.	1251397	1471964753698	1471964753849	s	83
2525	26146	I will call you Monday morning to discuss.	I will call you Monday morning to discuss.	1251400	1471964753849	1471964753913	i	73
2525	26146	I will call you Monday morning to discuss.	I will call you Monday morning to discuss.	1251401	1471964754049	1471964754169	d	68
2525	26146	I will call you Monday morning to discuss.	I will call you Monday morning to discuss.	1251517	1471964754489	1471964754513	BKSP	8
2525	26146	I will call you Monday morning to discuss.	I will call you Monday morning to discuss.	1251519	1471964754609	1471964754665	BKSP	8
2525	26146	I will call you Monday morning to discuss.	I will call you Monday morning to discuss.	1251521	1471964754737	1471964754785	BKSP	8
2525	26146	I will call you Monday morning to discuss.	I will call you Monday morning to discuss.	1251523	1471964754825	1471964754945	d	68
2525	26146	I will call you Monday morning to discuss.	I will call you Monday morning to discuss.	1251525	1471964755017	1471964755065	i	73
2525	26146	I will call you Monday morning to discuss.	I will call you Monday morning to discuss.	1251529	1471964755665	1471964755777	s	83
2525	26146	I will call you Monday morning to discuss.	I will call you Monday morning to discuss.	1251532	1471964755809	1471964755945	c	67
2525	26146	I will call you Monday morning to discuss.	I will call you Monday morning to discuss.	1251535	1471964756193	1471964756241	y	89
2525	26146	I will call you Monday morning to discuss.	I will call you Monday morning to discuss.	1251617	1471964756697	1471964756809	BKSP	8
2525	26146	I will call you Monday morning to discuss.	I will call you Monday morning to discuss.	1251620	1471964757305	1471964757369	u	85
2525	26146	I will call you Monday morning to discuss.	I will call you Monday morning to discuss.	1251624	1471964757441	1471964757545	s	83
2525	26146	I will call you Monday morning to discuss.	I will call you Monday morning to discuss.	1251629	1471964757729	1471964757833	s	83
2525	26146	I will call you Monday morning to discuss.	I will call you Monday morning to discuss.	1251636	1471964757889	1471964757953	.	190
2525	26168	I will review them on Monday.	I will review them on Monday.	1251982	1471964762521	1471964762841	SHIFT	16
2525	26168	I will review them on Monday.	I will review them on Monday.	1251978	1471964762770	1471964762833	I	73
2525	26168	I will review them on Monday.	I will review them on Monday.	1251985	1471964762945	1471964763041	 	32
2525	26168	I will review them on Monday.	I will review them on Monday.	1251989	1471964763065	1471964763234	w	87
2525	26168	I will review them on Monday.	I will review them on Monday.	1251991	1471964763234	1471964763281	i	73
2525	26168	I will review them on Monday.	I will review them on Monday.	1251993	1471964763385	1471964763441	l	76
2525	26168	I will review them on Monday.	I will review them on Monday.	1252022	1471964763505	1471964763561	l	76
2525	26168	I will review them on Monday.	I will review them on Monday.	1252026	1471964763674	1471964763761	 	32
2525	26168	I will review them on Monday.	I will review them on Monday.	1252030	1471964763801	1471964763937	r	82
2525	26168	I will review them on Monday.	I will review them on Monday.	1252034	1471964763905	1471964764018	e	69
2525	26168	I will review them on Monday.	I will review them on Monday.	1252038	1471964764178	1471964764281	v	86
2525	26168	I will review them on Monday.	I will review them on Monday.	1252037	1471964764378	1471964764425	i	73
2525	26168	I will review them on Monday.	I will review them on Monday.	1252039	1471964764505	1471964764697	e	69
2525	26168	I will review them on Monday.	I will review them on Monday.	1252041	1471964764674	1471964764849	w	87
2525	26168	I will review them on Monday.	I will review them on Monday.	1252043	1471964764922	1471964764993	 	32
2525	26168	I will review them on Monday.	I will review them on Monday.	1252045	1471964765529	1471964765593	t	84
2525	26168	I will review them on Monday.	I will review them on Monday.	1252083	1471964765673	1471964765745	h	72
2525	26168	I will review them on Monday.	I will review them on Monday.	1252087	1471964765785	1471964765905	e	69
2525	26168	I will review them on Monday.	I will review them on Monday.	1252093	1471964766313	1471964766361	m	77
2525	26168	I will review them on Monday.	I will review them on Monday.	1252098	1471964766473	1471964766561	 	32
2525	26168	I will review them on Monday.	I will review them on Monday.	1252103	1471964766609	1471964766737	o	79
2525	26168	I will review them on Monday.	I will review them on Monday.	1252177	1471964766721	1471964766785	n	78
2525	26168	I will review them on Monday.	I will review them on Monday.	1252180	1471964766873	1471964766945	 	32
2525	26168	I will review them on Monday.	I will review them on Monday.	1252184	1471964767041	1471964767145	m	77
2525	26168	I will review them on Monday.	I will review them on Monday.	1252187	1471964767113	1471964767233	o	79
2525	26168	I will review them on Monday.	I will review them on Monday.	1252191	1471964767297	1471964767377	n	78
2525	26168	I will review them on Monday.	I will review them on Monday.	1252195	1471964768113	1471964768185	BKSP	8
2525	26168	I will review them on Monday.	I will review them on Monday.	1252198	1471964768281	1471964768337	BKSP	8
2525	26168	I will review them on Monday.	I will review them on Monday.	1252201	1471964768409	1471964768473	BKSP	8
2525	26168	I will review them on Monday.	I will review them on Monday.	1252240	1471964768793	1471964769073	SHIFT	16
2525	26168	I will review them on Monday.	I will review them on Monday.	1252204	1471964768993	1471964769049	M	77
2525	26168	I will review them on Monday.	I will review them on Monday.	1252242	1471964769145	1471964769241	o	79
2525	26168	I will review them on Monday.	I will review them on Monday.	1252246	1471964769329	1471964769377	n	78
2525	26168	I will review them on Monday.	I will review them on Monday.	1252250	1471964769721	1471964769865	d	68
2525	26168	I will review them on Monday.	I will review them on Monday.	1252253	1471964769849	1471964769985	a	65
2525	26168	I will review them on Monday.	I will review them on Monday.	1252256	1471964769985	1471964770033	y	89
2525	26168	I will review them on Monday.	I will review them on Monday.	1252287	1471964770697	1471964770753	.	190
2525	26184	This time I'm more comfortable and aware of a lot more situations.	This time I'm more comfortable and aware of a lot more situations.	1252504	1471964773561	1471964773945	SHIFT	16
2525	26184	This time I'm more comfortable and aware of a lot more situations.	This time I'm more comfortable and aware of a lot more situations.	1252511	1471964773905	1471964773945	T	84
2525	26184	This time I'm more comfortable and aware of a lot more situations.	This time I'm more comfortable and aware of a lot more situations.	1252518	1471964774049	1471964774185	h	72
2525	26184	This time I'm more comfortable and aware of a lot more situations.	This time I'm more comfortable and aware of a lot more situations.	1252525	1471964774201	1471964774281	i	73
2525	26184	This time I'm more comfortable and aware of a lot more situations.	This time I'm more comfortable and aware of a lot more situations.	1252530	1471964774281	1471964774369	s	83
2525	26184	This time I'm more comfortable and aware of a lot more situations.	This time I'm more comfortable and aware of a lot more situations.	1252534	1471964774457	1471964774585	 	32
2525	26184	This time I'm more comfortable and aware of a lot more situations.	This time I'm more comfortable and aware of a lot more situations.	1252569	1471964775009	1471964775121	t	84
2525	26184	This time I'm more comfortable and aware of a lot more situations.	This time I'm more comfortable and aware of a lot more situations.	1252571	1471964775121	1471964775233	i	73
2525	26184	This time I'm more comfortable and aware of a lot more situations.	This time I'm more comfortable and aware of a lot more situations.	1252575	1471964775249	1471964775329	m	77
2525	26184	This time I'm more comfortable and aware of a lot more situations.	This time I'm more comfortable and aware of a lot more situations.	1252578	1471964775369	1471964775509	e	69
2525	26184	This time I'm more comfortable and aware of a lot more situations.	This time I'm more comfortable and aware of a lot more situations.	1252718	1471964775489	1471964775545	 	32
2525	26184	This time I'm more comfortable and aware of a lot more situations.	This time I'm more comfortable and aware of a lot more situations.	1252721	1471964775665	1471964775824	i	73
2525	26184	This time I'm more comfortable and aware of a lot more situations.	This time I'm more comfortable and aware of a lot more situations.	1252727	1471964776233	1471964776337	BKSP	8
2525	26184	This time I'm more comfortable and aware of a lot more situations.	This time I'm more comfortable and aware of a lot more situations.	1252732	1471964776369	1471964776944	SHIFT	16
2525	26184	This time I'm more comfortable and aware of a lot more situations.	This time I'm more comfortable and aware of a lot more situations.	1252739	1471964776889	1471964776945	I	73
2525	26184	This time I'm more comfortable and aware of a lot more situations.	This time I'm more comfortable and aware of a lot more situations.	1252746	1471964777393	1471964777481	m	77
2525	26184	This time I'm more comfortable and aware of a lot more situations.	This time I'm more comfortable and aware of a lot more situations.	1252750	1471964777609	1471964777665	 	32
2525	26184	This time I'm more comfortable and aware of a lot more situations.	This time I'm more comfortable and aware of a lot more situations.	1252753	1471964778178	1471964778258	BKSP	8
2525	26184	This time I'm more comfortable and aware of a lot more situations.	This time I'm more comfortable and aware of a lot more situations.	1252756	1471964778338	1471964778409	BKSP	8
2525	26184	This time I'm more comfortable and aware of a lot more situations.	This time I'm more comfortable and aware of a lot more situations.	1252760	1471964779010	1471964779073	'	222
2525	26184	This time I'm more comfortable and aware of a lot more situations.	This time I'm more comfortable and aware of a lot more situations.	1252806	1471964779282	1471964779338	m	77
2525	26184	This time I'm more comfortable and aware of a lot more situations.	This time I'm more comfortable and aware of a lot more situations.	1252809	1471964779442	1471964779521	 	32
2525	26184	This time I'm more comfortable and aware of a lot more situations.	This time I'm more comfortable and aware of a lot more situations.	1252812	1471964779610	1471964779721	m	77
2525	26184	This time I'm more comfortable and aware of a lot more situations.	This time I'm more comfortable and aware of a lot more situations.	1252814	1471964779690	1471964779793	o	79
2525	26184	This time I'm more comfortable and aware of a lot more situations.	This time I'm more comfortable and aware of a lot more situations.	1252816	1471964779994	1471964780153	r	82
2525	26184	This time I'm more comfortable and aware of a lot more situations.	This time I'm more comfortable and aware of a lot more situations.	1252896	1471964780106	1471964780258	e	69
2525	26184	This time I'm more comfortable and aware of a lot more situations.	This time I'm more comfortable and aware of a lot more situations.	1252901	1471964780259	1471964780345	 	32
2525	26184	This time I'm more comfortable and aware of a lot more situations.	This time I'm more comfortable and aware of a lot more situations.	1252903	1471964780913	1471964781065	c	67
2525	26184	This time I'm more comfortable and aware of a lot more situations.	This time I'm more comfortable and aware of a lot more situations.	1252909	1471964781138	1471964781226	o	79
2525	26184	This time I'm more comfortable and aware of a lot more situations.	This time I'm more comfortable and aware of a lot more situations.	1252916	1471964781226	1471964781297	m	77
2525	26184	This time I'm more comfortable and aware of a lot more situations.	This time I'm more comfortable and aware of a lot more situations.	1252923	1471964781369	1471964781489	f	70
2525	26184	This time I'm more comfortable and aware of a lot more situations.	This time I'm more comfortable and aware of a lot more situations.	1252948	1471964781491	1471964781569	o	79
2525	26184	This time I'm more comfortable and aware of a lot more situations.	This time I'm more comfortable and aware of a lot more situations.	1252949	1471964781593	1471964781721	r	82
2525	26184	This time I'm more comfortable and aware of a lot more situations.	This time I'm more comfortable and aware of a lot more situations.	1252952	1471964781849	1471964781905	t	84
2525	26184	This time I'm more comfortable and aware of a lot more situations.	This time I'm more comfortable and aware of a lot more situations.	1252954	1471964782027	1471964782201	a	65
2525	26184	This time I'm more comfortable and aware of a lot more situations.	This time I'm more comfortable and aware of a lot more situations.	1252958	1471964782281	1471964782369	b	66
2525	26184	This time I'm more comfortable and aware of a lot more situations.	This time I'm more comfortable and aware of a lot more situations.	1253016	1471964782371	1471964782458	l	76
2525	26184	This time I'm more comfortable and aware of a lot more situations.	This time I'm more comfortable and aware of a lot more situations.	1253019	1471964782489	1471964782617	e	69
2525	26184	This time I'm more comfortable and aware of a lot more situations.	This time I'm more comfortable and aware of a lot more situations.	1253022	1471964782833	1471964782905	 	32
2525	26184	This time I'm more comfortable and aware of a lot more situations.	This time I'm more comfortable and aware of a lot more situations.	1253026	1471964783129	1471964783265	a	65
2525	26184	This time I'm more comfortable and aware of a lot more situations.	This time I'm more comfortable and aware of a lot more situations.	1253030	1471964783417	1471964783489	d	68
2525	26184	This time I'm more comfortable and aware of a lot more situations.	This time I'm more comfortable and aware of a lot more situations.	1253115	1471964783985	1471964784089	BKSP	8
2525	26184	This time I'm more comfortable and aware of a lot more situations.	This time I'm more comfortable and aware of a lot more situations.	1253119	1471964784289	1471964784353	n	78
2525	26184	This time I'm more comfortable and aware of a lot more situations.	This time I'm more comfortable and aware of a lot more situations.	1253122	1471964784426	1471964784521	d	68
2525	26184	This time I'm more comfortable and aware of a lot more situations.	This time I'm more comfortable and aware of a lot more situations.	1253126	1471964784561	1471964784633	 	32
2525	26184	This time I'm more comfortable and aware of a lot more situations.	This time I'm more comfortable and aware of a lot more situations.	1253132	1471964785033	1471964785201	a	65
2525	26184	This time I'm more comfortable and aware of a lot more situations.	This time I'm more comfortable and aware of a lot more situations.	1253235	1471964785177	1471964785385	w	87
2525	26184	This time I'm more comfortable and aware of a lot more situations.	This time I'm more comfortable and aware of a lot more situations.	1253236	1471964785409	1471964785689	a	65
2525	26184	This time I'm more comfortable and aware of a lot more situations.	This time I'm more comfortable and aware of a lot more situations.	1253237	1471964785745	1471964785833	t	84
2525	26184	This time I'm more comfortable and aware of a lot more situations.	This time I'm more comfortable and aware of a lot more situations.	1253238	1471964785881	1471964786009	e	69
2525	26184	This time I'm more comfortable and aware of a lot more situations.	This time I'm more comfortable and aware of a lot more situations.	1253239	1471964786129	1471964786217	 	32
2525	26184	This time I'm more comfortable and aware of a lot more situations.	This time I'm more comfortable and aware of a lot more situations.	1253240	1471964786785	1471964786865	BKSP	8
2525	26184	This time I'm more comfortable and aware of a lot more situations.	This time I'm more comfortable and aware of a lot more situations.	1253241	1471964786937	1471964787009	BKSP	8
2525	26184	This time I'm more comfortable and aware of a lot more situations.	This time I'm more comfortable and aware of a lot more situations.	1253242	1471964787049	1471964787121	BKSP	8
2525	26184	This time I'm more comfortable and aware of a lot more situations.	This time I'm more comfortable and aware of a lot more situations.	1253243	1471964787209	1471964787361	r	82
2525	26184	This time I'm more comfortable and aware of a lot more situations.	This time I'm more comfortable and aware of a lot more situations.	1253277	1471964787321	1471964787449	e	69
2525	26184	This time I'm more comfortable and aware of a lot more situations.	This time I'm more comfortable and aware of a lot more situations.	1253278	1471964787561	1471964787641	 	32
2525	26184	This time I'm more comfortable and aware of a lot more situations.	This time I'm more comfortable and aware of a lot more situations.	1253280	1471964787865	1471964787945	o	79
2525	26184	This time I'm more comfortable and aware of a lot more situations.	This time I'm more comfortable and aware of a lot more situations.	1253283	1471964787961	1471964788058	d	68
2525	26184	This time I'm more comfortable and aware of a lot more situations.	This time I'm more comfortable and aware of a lot more situations.	1253287	1471964788121	1471964788185	 	32
2525	26184	This time I'm more comfortable and aware of a lot more situations.	This time I'm more comfortable and aware of a lot more situations.	1253291	1471964788489	1471964788545	\	220
2525	26184	This time I'm more comfortable and aware of a lot more situations.	This time I'm more comfortable and aware of a lot more situations.	1253427	1471964788658	1471964788703	BKSP	8
2525	26184	This time I'm more comfortable and aware of a lot more situations.	This time I'm more comfortable and aware of a lot more situations.	1253430	1471964788684	1471964788705	\	220
2525	26184	This time I'm more comfortable and aware of a lot more situations.	This time I'm more comfortable and aware of a lot more situations.	1253434	1471964788817	1471964788897	f	70
2525	26184	This time I'm more comfortable and aware of a lot more situations.	This time I'm more comfortable and aware of a lot more situations.	1253437	1471964789217	1471964789281	BKSP	8
2525	26184	This time I'm more comfortable and aware of a lot more situations.	This time I'm more comfortable and aware of a lot more situations.	1253440	1471964789345	1471964789409	BKSP	8
2525	26184	This time I'm more comfortable and aware of a lot more situations.	This time I'm more comfortable and aware of a lot more situations.	1253442	1471964789481	1471964789537	BKSP	8
2525	26184	This time I'm more comfortable and aware of a lot more situations.	This time I'm more comfortable and aware of a lot more situations.	1253444	1471964789593	1471964789665	BKSP	8
2525	26184	This time I'm more comfortable and aware of a lot more situations.	This time I'm more comfortable and aware of a lot more situations.	1253446	1471964789713	1471964789745	BKSP	8
2525	26184	This time I'm more comfortable and aware of a lot more situations.	This time I'm more comfortable and aware of a lot more situations.	1253450	1471964790538	1471964790609	o	79
2525	26184	This time I'm more comfortable and aware of a lot more situations.	This time I'm more comfortable and aware of a lot more situations.	1253456	1471964790641	1471964790729	f	70
2525	26184	This time I'm more comfortable and aware of a lot more situations.	This time I'm more comfortable and aware of a lot more situations.	1253461	1471964790777	1471964790841	 	32
2525	26184	This time I'm more comfortable and aware of a lot more situations.	This time I'm more comfortable and aware of a lot more situations.	1253577	1471964790897	1471964791033	a	65
2525	26184	This time I'm more comfortable and aware of a lot more situations.	This time I'm more comfortable and aware of a lot more situations.	1253580	1471964790985	1471964791057	 	32
2525	26184	This time I'm more comfortable and aware of a lot more situations.	This time I'm more comfortable and aware of a lot more situations.	1253583	1471964792673	1471964792737	l	76
2525	26184	This time I'm more comfortable and aware of a lot more situations.	This time I'm more comfortable and aware of a lot more situations.	1253587	1471964792817	1471964792929	o	79
2525	26184	This time I'm more comfortable and aware of a lot more situations.	This time I'm more comfortable and aware of a lot more situations.	1253591	1471964793505	1471964793569	t	84
2525	26184	This time I'm more comfortable and aware of a lot more situations.	This time I'm more comfortable and aware of a lot more situations.	1253597	1471964793689	1471964793761	 	32
2525	26184	This time I'm more comfortable and aware of a lot more situations.	This time I'm more comfortable and aware of a lot more situations.	1253598	1471964793849	1471964793929	m	77
2525	26184	This time I'm more comfortable and aware of a lot more situations.	This time I'm more comfortable and aware of a lot more situations.	1253602	1471964793905	1471964794009	o	79
2525	26184	This time I'm more comfortable and aware of a lot more situations.	This time I'm more comfortable and aware of a lot more situations.	1253604	1471964794009	1471964794152	r	82
2525	26184	This time I'm more comfortable and aware of a lot more situations.	This time I'm more comfortable and aware of a lot more situations.	1253627	1471964794097	1471964794249	e	69
2525	26184	This time I'm more comfortable and aware of a lot more situations.	This time I'm more comfortable and aware of a lot more situations.	1253633	1471964794250	1471964794329	 	32
2525	26184	This time I'm more comfortable and aware of a lot more situations.	This time I'm more comfortable and aware of a lot more situations.	1253637	1471964794745	1471964794897	s	83
2525	26184	This time I'm more comfortable and aware of a lot more situations.	This time I'm more comfortable and aware of a lot more situations.	1253644	1471964794913	1471964794993	i	73
2525	26184	This time I'm more comfortable and aware of a lot more situations.	This time I'm more comfortable and aware of a lot more situations.	1253651	1471964795169	1471964795296	t	84
2525	26184	This time I'm more comfortable and aware of a lot more situations.	This time I'm more comfortable and aware of a lot more situations.	1253658	1471964795313	1471964795410	u	85
2525	26184	This time I'm more comfortable and aware of a lot more situations.	This time I'm more comfortable and aware of a lot more situations.	1253692	1471964795650	1471964795818	a	65
2525	26184	This time I'm more comfortable and aware of a lot more situations.	This time I'm more comfortable and aware of a lot more situations.	1253694	1471964795842	1471964795922	t	84
2525	26184	This time I'm more comfortable and aware of a lot more situations.	This time I'm more comfortable and aware of a lot more situations.	1253697	1471964796074	1471964796233	i	73
2525	26184	This time I'm more comfortable and aware of a lot more situations.	This time I'm more comfortable and aware of a lot more situations.	1253698	1471964796162	1471964796377	o	79
2525	26184	This time I'm more comfortable and aware of a lot more situations.	This time I'm more comfortable and aware of a lot more situations.	1253745	1471964796353	1471964796418	n	78
2525	26184	This time I'm more comfortable and aware of a lot more situations.	This time I'm more comfortable and aware of a lot more situations.	1253747	1471964796498	1471964796593	s	83
2525	26184	This time I'm more comfortable and aware of a lot more situations.	This time I'm more comfortable and aware of a lot more situations.	1253749	1471964797729	1471964797793	.	190
2525	26214	What is the cost issue?	What is the cost issue?	1253961	1471964800769	1471964801090	SHIFT	16
2525	26214	What is the cost issue?	What is the cost issue?	1253965	1471964801025	1471964801145	W	87
2525	26214	What is the cost issue?	What is the cost issue?	1253973	1471964801321	1471964801385	h	72
2525	26214	What is the cost issue?	What is the cost issue?	1253982	1471964801386	1471964801553	a	65
2525	26214	What is the cost issue?	What is the cost issue?	1253990	1471964801513	1471964801585	t	84
2525	26214	What is the cost issue?	What is the cost issue?	1253993	1471964801729	1471964801793	 	32
2525	26214	What is the cost issue?	What is the cost issue?	1253941	1471964801865	1471964801953	i	73
2525	26214	What is the cost issue?	What is the cost issue?	1253943	1471964802009	1471964802113	s	83
2525	26214	What is the cost issue?	What is the cost issue?	1253945	1471964802114	1471964802201	 	32
2525	26214	What is the cost issue?	What is the cost issue?	1253947	1471964802329	1471964802410	t	84
2525	26214	What is the cost issue?	What is the cost issue?	1253949	1471964802497	1471964802569	h	72
2525	26214	What is the cost issue?	What is the cost issue?	1254025	1471964802585	1471964802721	e	69
2525	26214	What is the cost issue?	What is the cost issue?	1254028	1471964802722	1471964802801	 	32
2525	26214	What is the cost issue?	What is the cost issue?	1254031	1471964803745	1471964803897	c	67
2525	26214	What is the cost issue?	What is the cost issue?	1254034	1471964803897	1471964804001	o	79
2525	26214	What is the cost issue?	What is the cost issue?	1254037	1471964804033	1471964804169	s	83
2525	26214	What is the cost issue?	What is the cost issue?	1254104	1471964804173	1471964804233	t	84
2525	26214	What is the cost issue?	What is the cost issue?	1254107	1471964804377	1471964804473	 	32
2525	26214	What is the cost issue?	What is the cost issue?	1254110	1471964804617	1471964804689	i	73
2525	26214	What is the cost issue?	What is the cost issue?	1254116	1471964804737	1471964804841	s	83
2525	26214	What is the cost issue?	What is the cost issue?	1254123	1471964804898	1471964805025	s	83
2525	26214	What is the cost issue?	What is the cost issue?	1254160	1471964805065	1471964805145	u	85
2525	26214	What is the cost issue?	What is the cost issue?	1254162	1471964805545	1471964805673	e	69
2525	26214	What is the cost issue?	What is the cost issue?	1254165	1471964805713	1471964805905	SHIFT	16
2525	26214	What is the cost issue?	What is the cost issue?	1254169	1471964805841	1471964805945	?	191
2525	26221	That's a fair trade off.	That's a fair trade off.	1254328	1471964810179	1471964810506	SHIFT	16
2525	26221	That's a fair trade off.	That's a fair trade off.	1254330	1471964810458	1471964810530	T	84
2525	26221	That's a fair trade off.	That's a fair trade off.	1254335	1471964810618	1471964810698	h	72
2525	26221	That's a fair trade off.	That's a fair trade off.	1254340	1471964810698	1471964810874	a	65
2525	26221	That's a fair trade off.	That's a fair trade off.	1254346	1471964810834	1471964810890	t	84
2525	26221	That's a fair trade off.	That's a fair trade off.	1254351	1471964811898	1471964811954	'	222
2525	26221	That's a fair trade off.	That's a fair trade off.	1254393	1471964812010	1471964812106	s	83
2525	26221	That's a fair trade off.	That's a fair trade off.	1254397	1471964812170	1471964812242	 	32
2525	26221	That's a fair trade off.	That's a fair trade off.	1254402	1471964812314	1471964812475	a	65
2525	26221	That's a fair trade off.	That's a fair trade off.	1254407	1471964812458	1471964812522	 	32
2525	26221	That's a fair trade off.	That's a fair trade off.	1254410	1471964813091	1471964813195	f	70
2525	26221	That's a fair trade off.	That's a fair trade off.	1254478	1471964813163	1471964813355	a	65
2525	26221	That's a fair trade off.	That's a fair trade off.	1254483	1471964813355	1471964813427	i	73
2525	26221	That's a fair trade off.	That's a fair trade off.	1254488	1471964813491	1471964813611	r	82
2525	26221	That's a fair trade off.	That's a fair trade off.	1254493	1471964813691	1471964813771	 	32
2525	26221	That's a fair trade off.	That's a fair trade off.	1254498	1471964814435	1471964814482	t	84
2525	26221	That's a fair trade off.	That's a fair trade off.	1254502	1471964814595	1471964814650	r	82
2525	26221	That's a fair trade off.	That's a fair trade off.	1254535	1471964814626	1471964814794	a	65
2525	26221	That's a fair trade off.	That's a fair trade off.	1254538	1471964814883	1471964815074	d	68
2525	26221	That's a fair trade off.	That's a fair trade off.	1254541	1471964815035	1471964815186	e	69
2525	26221	That's a fair trade off.	That's a fair trade off.	1254543	1471964815194	1471964815259	 	32
2525	26221	That's a fair trade off.	That's a fair trade off.	1254545	1471964815354	1471964815419	o	79
2525	26221	That's a fair trade off.	That's a fair trade off.	1254547	1471964815482	1471964815579	f	70
2525	26221	That's a fair trade off.	That's a fair trade off.	1254621	1471964815651	1471964815746	f	70
2525	26221	That's a fair trade off.	That's a fair trade off.	1254622	1471964816114	1471964816178	.	190
2525	26230	I am sorry you had to come in.	I am sorry you had to come in.	1254749	1471964820594	1471964820834	SHIFT	16
2525	26230	I am sorry you had to come in.	I am sorry you had to come in.	1254751	1471964820835	1471964820890	i	73
2525	26230	I am sorry you had to come in.	I am sorry you had to come in.	1254754	1471964821020	1471964821106	 	32
2525	26230	I am sorry you had to come in.	I am sorry you had to come in.	1254759	1471964821106	1471964821266	a	65
2525	26230	I am sorry you had to come in.	I am sorry you had to come in.	1254761	1471964821234	1471964821282	m	77
2525	26230	I am sorry you had to come in.	I am sorry you had to come in.	1254763	1471964821402	1471964821466	 	32
2525	26230	I am sorry you had to come in.	I am sorry you had to come in.	1254901	1471964821450	1471964821586	s	83
2525	26230	I am sorry you had to come in.	I am sorry you had to come in.	1254903	1471964821602	1471964821674	o	79
2525	26230	I am sorry you had to come in.	I am sorry you had to come in.	1254907	1471964821754	1471964821826	o	79
2525	26230	I am sorry you had to come in.	I am sorry you had to come in.	1254910	1471964822314	1471964823474	BKSP	8
2525	26230	I am sorry you had to come in.	I am sorry you had to come in.	1254916	1471964823490	1471964823866	SHIFT	16
2525	26230	I am sorry you had to come in.	I am sorry you had to come in.	1254913	1471964823722	1471964823778	O	73
2525	26230	I am sorry you had to come in.	I am sorry you had to come in.	1254917	1471964824226	1471964824338	BKSP	8
2525	26230	I am sorry you had to come in.	I am sorry you had to come in.	1254918	1471964824562	1471964824658	 	32
2525	26230	I am sorry you had to come in.	I am sorry you had to come in.	1254929	1471964824682	1471964824842	a	65
2525	26230	I am sorry you had to come in.	I am sorry you had to come in.	1254932	1471964824810	1471964824866	m	77
2525	26230	I am sorry you had to come in.	I am sorry you had to come in.	1254937	1471964824979	1471964825058	 	32
2525	26230	I am sorry you had to come in.	I am sorry you had to come in.	1254944	1471964825059	1471964825226	s	83
2525	26230	I am sorry you had to come in.	I am sorry you had to come in.	1254949	1471964825227	1471964825290	o	79
2525	26230	I am sorry you had to come in.	I am sorry you had to come in.	1255020	1471964825530	1471964825626	r	82
2525	26230	I am sorry you had to come in.	I am sorry you had to come in.	1255024	1471964825706	1471964825818	r	82
2525	26230	I am sorry you had to come in.	I am sorry you had to come in.	1255026	1471964825882	1471964825962	y	89
2525	26230	I am sorry you had to come in.	I am sorry you had to come in.	1255027	1471964826162	1471964826234	 	32
2525	26230	I am sorry you had to come in.	I am sorry you had to come in.	1255028	1471964826738	1471964826858	t	84
2525	26230	I am sorry you had to come in.	I am sorry you had to come in.	1255168	1471964826914	1471964827050	o	79
2525	26230	I am sorry you had to come in.	I am sorry you had to come in.	1255170	1471964827050	1471964827122	u	85
2525	26230	I am sorry you had to come in.	I am sorry you had to come in.	1255171	1471964827434	1471964827498	\	220
2525	26230	I am sorry you had to come in.	I am sorry you had to come in.	1255172	1471964827594	1471964827650	BKSP	8
2525	26230	I am sorry you had to come in.	I am sorry you had to come in.	1255173	1471964827722	1471964827786	BKSP	8
2525	26230	I am sorry you had to come in.	I am sorry you had to come in.	1255174	1471964827866	1471964827922	BKSP	8
2525	26230	I am sorry you had to come in.	I am sorry you had to come in.	1255175	1471964828234	1471964828306	BKSP	8
2525	26230	I am sorry you had to come in.	I am sorry you had to come in.	1255176	1471964828450	1471964828585	y	89
2525	26230	I am sorry you had to come in.	I am sorry you had to come in.	1255177	1471964828882	1471964828986	o	79
2525	26230	I am sorry you had to come in.	I am sorry you had to come in.	1255161	1471964828962	1471964829018	u	85
2525	26230	I am sorry you had to come in.	I am sorry you had to come in.	1255163	1471964829186	1471964829250	 	32
2525	26230	I am sorry you had to come in.	I am sorry you had to come in.	1255165	1471964829450	1471964829602	a	65
2525	26230	I am sorry you had to come in.	I am sorry you had to come in.	1255166	1471964829570	1471964829626	h	72
2525	26230	I am sorry you had to come in.	I am sorry you had to come in.	1255167	1471964829834	1471964829970	d	68
2525	26230	I am sorry you had to come in.	I am sorry you had to come in.	1255169	1471964830058	1471964830122	 	32
2525	26230	I am sorry you had to come in.	I am sorry you had to come in.	1255272	1471964830507	1471964830587	BKSP	8
2525	26230	I am sorry you had to come in.	I am sorry you had to come in.	1255275	1471964830667	1471964830731	BKSP	8
2525	26230	I am sorry you had to come in.	I am sorry you had to come in.	1255279	1471964830794	1471964830850	BKSP	8
2525	26230	I am sorry you had to come in.	I am sorry you had to come in.	1255281	1471964830915	1471964830970	BKSP	8
2525	26230	I am sorry you had to come in.	I am sorry you had to come in.	1255283	1471964831651	1471964831707	h	72
2525	26230	I am sorry you had to come in.	I am sorry you had to come in.	1255285	1471964831755	1471964831946	a	65
2525	26230	I am sorry you had to come in.	I am sorry you had to come in.	1255287	1471964831882	1471964831994	d	68
2525	26230	I am sorry you had to come in.	I am sorry you had to come in.	1255290	1471964832019	1471964832083	 	32
2525	26230	I am sorry you had to come in.	I am sorry you had to come in.	1255293	1471964832243	1471964832474	c	67
2525	26230	I am sorry you had to come in.	I am sorry you had to come in.	1255334	1471964832899	1471964832979	BKSP	8
2525	26230	I am sorry you had to come in.	I am sorry you had to come in.	1255340	1471964833251	1471964833370	t	84
2525	26230	I am sorry you had to come in.	I am sorry you had to come in.	1255345	1471964833403	1471964833466	o	79
2525	26230	I am sorry you had to come in.	I am sorry you had to come in.	1255350	1471964833579	1471964833666	 	32
2525	26230	I am sorry you had to come in.	I am sorry you had to come in.	1255355	1471964833706	1471964833859	c	67
2525	26230	I am sorry you had to come in.	I am sorry you had to come in.	1255357	1471964833859	1471964833970	o	79
2525	26230	I am sorry you had to come in.	I am sorry you had to come in.	1255379	1471964833939	1471964834026	m	77
2525	26230	I am sorry you had to come in.	I am sorry you had to come in.	1255381	1471964834082	1471964834234	e	69
2525	26230	I am sorry you had to come in.	I am sorry you had to come in.	1255386	1471964834235	1471964834306	 	32
2525	26230	I am sorry you had to come in.	I am sorry you had to come in.	1255389	1471964834410	1471964834530	i	73
2525	26230	I am sorry you had to come in.	I am sorry you had to come in.	1255393	1471964834514	1471964834594	n	78
2525	26230	I am sorry you had to come in.	I am sorry you had to come in.	1255396	1471964834739	1471964834810	.	190
2525	26250	You'll receive the brand new Palm OS v4.	You'll receive the brand new Palm OS v4	1255600	1471964837650	1471964837954	SHIFT	16
2525	26250	You'll receive the brand new Palm OS v4.	You'll receive the brand new Palm OS v4	1255602	1471964837930	1471964837970	Y	89
2525	26250	You'll receive the brand new Palm OS v4.	You'll receive the brand new Palm OS v4	1255605	1471964838186	1471964838322	o	79
2525	26250	You'll receive the brand new Palm OS v4.	You'll receive the brand new Palm OS v4	1255608	1471964838298	1471964838370	u	85
2525	26250	You'll receive the brand new Palm OS v4.	You'll receive the brand new Palm OS v4	1255614	1471964838466	1471964838546	l	76
2525	26250	You'll receive the brand new Palm OS v4.	You'll receive the brand new Palm OS v4	1255617	1471964839770	1471964839930	BKSP	8
2525	26250	You'll receive the brand new Palm OS v4.	You'll receive the brand new Palm OS v4	1255621	1471964840282	1471964840354	'	222
2525	26250	You'll receive the brand new Palm OS v4.	You'll receive the brand new Palm OS v4	1255710	1471964840530	1471964840594	l	76
2525	26250	You'll receive the brand new Palm OS v4.	You'll receive the brand new Palm OS v4	1255713	1471964840674	1471964840738	l	76
2525	26250	You'll receive the brand new Palm OS v4.	You'll receive the brand new Palm OS v4	1255719	1471964840882	1471964840930	 	32
2525	26250	You'll receive the brand new Palm OS v4.	You'll receive the brand new Palm OS v4	1255724	1471964841842	1471964841939	r	82
2525	26250	You'll receive the brand new Palm OS v4.	You'll receive the brand new Palm OS v4	1255729	1471964841939	1471964842066	e	69
2525	26250	You'll receive the brand new Palm OS v4.	You'll receive the brand new Palm OS v4	1255760	1471964842138	1471964842362	c	67
2525	26250	You'll receive the brand new Palm OS v4.	You'll receive the brand new Palm OS v4	1255762	1471964842338	1471964842482	e	69
2525	26250	You'll receive the brand new Palm OS v4.	You'll receive the brand new Palm OS v4	1255766	1471964842514	1471964842579	i	73
2525	26250	You'll receive the brand new Palm OS v4.	You'll receive the brand new Palm OS v4	1255771	1471964842746	1471964842810	v	86
2525	26250	You'll receive the brand new Palm OS v4.	You'll receive the brand new Palm OS v4	1255774	1471964842850	1471964842986	e	69
2525	26250	You'll receive the brand new Palm OS v4.	You'll receive the brand new Palm OS v4	1255910	1471964843010	1471964843114	 	32
2525	26250	You'll receive the brand new Palm OS v4.	You'll receive the brand new Palm OS v4	1255912	1471964843266	1471964843354	t	84
2525	26250	You'll receive the brand new Palm OS v4.	You'll receive the brand new Palm OS v4	1255914	1471964843434	1471964843514	h	72
2525	26250	You'll receive the brand new Palm OS v4.	You'll receive the brand new Palm OS v4	1255916	1471964843546	1471964843666	e	69
2525	26250	You'll receive the brand new Palm OS v4.	You'll receive the brand new Palm OS v4	1255919	1471964843690	1471964843754	 	32
2525	26250	You'll receive the brand new Palm OS v4.	You'll receive the brand new Palm OS v4	1255873	1471964844394	1471964844442	b	66
2525	26250	You'll receive the brand new Palm OS v4.	You'll receive the brand new Palm OS v4	1255878	1471964844594	1471964844643	r	82
2525	26250	You'll receive the brand new Palm OS v4.	You'll receive the brand new Palm OS v4	1255882	1471964844756	1471964844898	e	69
2525	26250	You'll receive the brand new Palm OS v4.	You'll receive the brand new Palm OS v4	1255885	1471964844898	1471964845050	a	65
2525	26250	You'll receive the brand new Palm OS v4.	You'll receive the brand new Palm OS v4	1255888	1471964845250	1471964845314	\	220
2525	26250	You'll receive the brand new Palm OS v4.	You'll receive the brand new Palm OS v4	1255975	1471964845402	1471964845490	\	220
2525	26250	You'll receive the brand new Palm OS v4.	You'll receive the brand new Palm OS v4	1255978	1471964845730	1471964845826	BKSP	8
2525	26250	You'll receive the brand new Palm OS v4.	You'll receive the brand new Palm OS v4	1255983	1471964845898	1471964845954	BKSP	8
2525	26250	You'll receive the brand new Palm OS v4.	You'll receive the brand new Palm OS v4	1255986	1471964846034	1471964846082	BKSP	8
2525	26250	You'll receive the brand new Palm OS v4.	You'll receive the brand new Palm OS v4	1255989	1471964846138	1471964846202	BKSP	8
2525	26250	You'll receive the brand new Palm OS v4.	You'll receive the brand new Palm OS v4	1255991	1471964846666	1471964846818	a	65
2525	26250	You'll receive the brand new Palm OS v4.	You'll receive the brand new Palm OS v4	1255994	1471964846842	1471964846898	n	78
2525	26250	You'll receive the brand new Palm OS v4.	You'll receive the brand new Palm OS v4	1255997	1471964846946	1471964847090	d	68
2525	26250	You'll receive the brand new Palm OS v4.	You'll receive the brand new Palm OS v4	1255998	1471964847114	1471964847169	 	32
2525	26250	You'll receive the brand new Palm OS v4.	You'll receive the brand new Palm OS v4	1256049	1471964847322	1471964847354	n	78
2525	26250	You'll receive the brand new Palm OS v4.	You'll receive the brand new Palm OS v4	1256051	1471964847498	1471964847626	e	69
2525	26250	You'll receive the brand new Palm OS v4.	You'll receive the brand new Palm OS v4	1256053	1471964847594	1471964847730	w	87
2525	26250	You'll receive the brand new Palm OS v4.	You'll receive the brand new Palm OS v4	1256055	1471964847835	1471964847899	 	32
2525	26250	You'll receive the brand new Palm OS v4.	You'll receive the brand new Palm OS v4	1256058	1471964848363	1471964848626	SHIFT	16
2525	26250	You'll receive the brand new Palm OS v4.	You'll receive the brand new Palm OS v4	1256151	1471964848595	1471964848675	P	80
2525	26250	You'll receive the brand new Palm OS v4.	You'll receive the brand new Palm OS v4	1256154	1471964848835	1471964848971	a	65
2525	26250	You'll receive the brand new Palm OS v4.	You'll receive the brand new Palm OS v4	1256158	1471964849003	1471964849067	l	76
2525	26250	You'll receive the brand new Palm OS v4.	You'll receive the brand new Palm OS v4	1256163	1471964849179	1471964849234	m	77
2525	26250	You'll receive the brand new Palm OS v4.	You'll receive the brand new Palm OS v4	1256164	1471964849691	1471964849762	 	32
2525	26250	You'll receive the brand new Palm OS v4.	You'll receive the brand new Palm OS v4	1256254	1471964850386	1471964851091	SHIFT	16
2525	26250	You'll receive the brand new Palm OS v4.	You'll receive the brand new Palm OS v4	1256167	1471964850786	1471964850859	O	79
2525	26250	You'll receive the brand new Palm OS v4.	You'll receive the brand new Palm OS v4	1256257	1471964850986	1471964851091	S	83
2525	26250	You'll receive the brand new Palm OS v4.	You'll receive the brand new Palm OS v4	1256262	1471964851890	1471964851962	 	32
2525	26250	You'll receive the brand new Palm OS v4.	You'll receive the brand new Palm OS v4	1256266	1471964852226	1471964852290	v	86
2525	26250	You'll receive the brand new Palm OS v4.	You'll receive the brand new Palm OS v4	1256269	1471964852539	1471964852570	SHIFT	16
2525	26250	You'll receive the brand new Palm OS v4.	You'll receive the brand new Palm OS v4	1256272	1471964852674	1471964852730	4	52
2525	26266	I'll take them one at a time.	I'll take them one at a time.	1256656	1471964857842	1471964858066	SHIFT	16
2525	26266	I'll take them one at a time.	I'll take them one at a time.	1256660	1471964858042	1471964858106	I	73
2525	26266	I'll take them one at a time.	I'll take them one at a time.	1256664	1471964858210	1471964858274	l	76
2525	26266	I'll take them one at a time.	I'll take them one at a time.	1256669	1471964858346	1471964858426	l	76
2525	26266	I'll take them one at a time.	I'll take them one at a time.	1256674	1471964858914	1471964858970	BKSP	8
2525	26266	I'll take them one at a time.	I'll take them one at a time.	1256677	1471964859076	1471964859139	BKSP	8
2525	26266	I'll take them one at a time.	I'll take them one at a time.	1256684	1471964860458	1471964860530	'	222
2525	26266	I'll take them one at a time.	I'll take them one at a time.	1256688	1471964860666	1471964860730	l	76
2525	26266	I'll take them one at a time.	I'll take them one at a time.	1256629	1471964860802	1471964860882	l	76
2525	26266	I'll take them one at a time.	I'll take them one at a time.	1256630	1471964861002	1471964861082	 	32
2525	26266	I'll take them one at a time.	I'll take them one at a time.	1256633	1471964861418	1471964861482	t	84
2525	26266	I'll take them one at a time.	I'll take them one at a time.	1256639	1471964861498	1471964861642	a	65
2525	26266	I'll take them one at a time.	I'll take them one at a time.	1256648	1471964861642	1471964861706	k	75
2525	26266	I'll take them one at a time.	I'll take them one at a time.	1256795	1471964861770	1471964861890	e	69
2525	26266	I'll take them one at a time.	I'll take them one at a time.	1256800	1471964861914	1471964861994	 	32
2525	26266	I'll take them one at a time.	I'll take them one at a time.	1256805	1471964862810	1471964862866	t	84
2525	26266	I'll take them one at a time.	I'll take them one at a time.	1256808	1471964862954	1471964863018	h	72
2525	26266	I'll take them one at a time.	I'll take them one at a time.	1256811	1471964863074	1471964863162	e	69
2525	26266	I'll take them one at a time.	I'll take them one at a time.	1256825	1471964863226	1471964863266	m	77
2525	26266	I'll take them one at a time.	I'll take them one at a time.	1256829	1471964863410	1471964863481	 	32
2525	26266	I'll take them one at a time.	I'll take them one at a time.	1256840	1471964863570	1471964863699	o	79
2525	26266	I'll take them one at a time.	I'll take them one at a time.	1256834	1471964863610	1471964863650	i	73
2525	26266	I'll take them one at a time.	I'll take them one at a time.	1256845	1471964863699	1471964863754	n	78
2525	26266	I'll take them one at a time.	I'll take them one at a time.	1256885	1471964863874	1471964863986	e	69
2525	26266	I'll take them one at a time.	I'll take them one at a time.	1256886	1471964864234	1471964864306	BKSP	8
2525	26266	I'll take them one at a time.	I'll take them one at a time.	1256888	1471964864386	1471964864450	BKSP	8
2525	26266	I'll take them one at a time.	I'll take them one at a time.	1256892	1471964864474	1471964864562	BKSP	8
2525	26266	I'll take them one at a time.	I'll take them one at a time.	1256896	1471964865225	1471964865283	n	78
2525	26266	I'll take them one at a time.	I'll take them one at a time.	1256900	1471964865339	1471964865443	e	69
2525	26266	I'll take them one at a time.	I'll take them one at a time.	1256906	1471964865411	1471964865475	 	32
2525	26266	I'll take them one at a time.	I'll take them one at a time.	1256912	1471964865579	1471964865723	a	65
2525	26266	I'll take them one at a time.	I'll take them one at a time.	1257015	1471964865786	1471964865842	t	84
2525	26266	I'll take them one at a time.	I'll take them one at a time.	1257019	1471964865963	1471964866050	 	32
2525	26266	I'll take them one at a time.	I'll take them one at a time.	1257029	1471964866155	1471964866346	a	65
2525	26266	I'll take them one at a time.	I'll take them one at a time.	1257036	1471964866347	1471964866426	 	32
2525	26266	I'll take them one at a time.	I'll take them one at a time.	1257041	1471964866547	1471964866666	t	84
2525	26266	I'll take them one at a time.	I'll take them one at a time.	1257070	1471964866707	1471964866851	i	73
2525	26266	I'll take them one at a time.	I'll take them one at a time.	1257075	1471964866851	1471964866898	m	77
2525	26266	I'll take them one at a time.	I'll take them one at a time.	1257080	1471964866938	1471964867065	e	69
2525	26266	I'll take them one at a time.	I'll take them one at a time.	1257084	1471964867146	1471964867218	.	190
