PARTICIPANT_ID	TEST_SECTION_ID	SENTENCE	USER_INPUT	KEYSTROKE_ID	PRESS_TIME	RELEASE_TIME	LETTER	KEYCODE
2703	28018	They play Atlanta here Saturday and Sunday afternoons.	They play Atlanta here Saturday and Sunday afternoons.	1340090	1471966042358	1471966042755	SHIFT	16
2703	28018	They play Atlanta here Saturday and Sunday afternoons.	They play Atlanta here Saturday and Sunday afternoons.	1340094	1471966042803	1471966042917	h	72
2703	28018	They play Atlanta here Saturday and Sunday afternoons.	They play Atlanta here Saturday and Sunday afternoons.	1340098	1471966043108	1471966043263	e	69
2703	28018	They play Atlanta here Saturday and Sunday afternoons.	They play Atlanta here Saturday and Sunday afternoons.	1340102	1471966043341	1471966043437	y	89
2703	28018	They play Atlanta here Saturday and Sunday afternoons.	They play Atlanta here Saturday and Sunday afternoons.	1340105	1471966043526	1471966043640	 	32
2703	28018	They play Atlanta here Saturday and Sunday afternoons.	They play Atlanta here Saturday and Sunday afternoons.	1340108	1471966044306	1471966044401	p	80
2703	28018	They play Atlanta here Saturday and Sunday afternoons.	They play Atlanta here Saturday and Sunday afternoons.	1340214	1471966044481	1471966044586	l	76
2703	28018	They play Atlanta here Saturday and Sunday afternoons.	They play Atlanta here Saturday and Sunday afternoons.	1340215	1471966044748	1471966044925	a	65
2703	28018	They play Atlanta here Saturday and Sunday afternoons.	They play Atlanta here Saturday and Sunday afternoons.	1340216	1471966045014	1471966045106	y	89
2703	28018	They play Atlanta here Saturday and Sunday afternoons.	They play Atlanta here Saturday and Sunday afternoons.	1340217	1471966045197	1471966045320	 	32
2703	28018	They play Atlanta here Saturday and Sunday afternoons.	They play Atlanta here Saturday and Sunday afternoons.	1340300	1471966045787	1471966046310	SHIFT	16
2703	28018	They play Atlanta here Saturday and Sunday afternoons.	They play Atlanta here Saturday and Sunday afternoons.	1340218	1471966046169	1471966046255	A	65
2703	28018	They play Atlanta here Saturday and Sunday afternoons.	They play Atlanta here Saturday and Sunday afternoons.	1340302	1471966046645	1471966046727	t	84
2703	28018	They play Atlanta here Saturday and Sunday afternoons.	They play Atlanta here Saturday and Sunday afternoons.	1340305	1471966047079	1471966047171	l	76
2703	28018	They play Atlanta here Saturday and Sunday afternoons.	They play Atlanta here Saturday and Sunday afternoons.	1340309	1471966047268	1471966047441	a	65
2703	28018	They play Atlanta here Saturday and Sunday afternoons.	They play Atlanta here Saturday and Sunday afternoons.	1340315	1471966047484	1471966047585	n	78
2703	28018	They play Atlanta here Saturday and Sunday afternoons.	They play Atlanta here Saturday and Sunday afternoons.	1340322	1471966047849	1471966047954	t	84
2703	28018	They play Atlanta here Saturday and Sunday afternoons.	They play Atlanta here Saturday and Sunday afternoons.	1340425	1471966048166	1471966048325	a	65
2703	28018	They play Atlanta here Saturday and Sunday afternoons.	They play Atlanta here Saturday and Sunday afternoons.	1340427	1471966048383	1471966048470	 	32
2703	28018	They play Atlanta here Saturday and Sunday afternoons.	They play Atlanta here Saturday and Sunday afternoons.	1340430	1471966048819	1471966048915	h	72
2703	28018	They play Atlanta here Saturday and Sunday afternoons.	They play Atlanta here Saturday and Sunday afternoons.	1340433	1471966049135	1471966049258	e	69
2703	28018	They play Atlanta here Saturday and Sunday afternoons.	They play Atlanta here Saturday and Sunday afternoons.	1340438	1471966049481	1471966049609	r	82
2703	28018	They play Atlanta here Saturday and Sunday afternoons.	They play Atlanta here Saturday and Sunday afternoons.	1340595	1471966049741	1471966049883	e	69
2703	28018	They play Atlanta here Saturday and Sunday afternoons.	They play Atlanta here Saturday and Sunday afternoons.	1340603	1471966050069	1471966050174	 	32
2703	28018	They play Atlanta here Saturday and Sunday afternoons.	They play Atlanta here Saturday and Sunday afternoons.	1340616	1471966050689	1471966051375	SHIFT	16
2703	28018	They play Atlanta here Saturday and Sunday afternoons.	They play Atlanta here Saturday and Sunday afternoons.	1340610	1471966051256	1471966051343	S	83
2703	28018	They play Atlanta here Saturday and Sunday afternoons.	They play Atlanta here Saturday and Sunday afternoons.	1340621	1471966051622	1471966051767	a	65
2703	28018	They play Atlanta here Saturday and Sunday afternoons.	They play Atlanta here Saturday and Sunday afternoons.	1340624	1471966052004	1471966052104	t	84
2703	28018	They play Atlanta here Saturday and Sunday afternoons.	They play Atlanta here Saturday and Sunday afternoons.	1340704	1471966052458	1471966052553	u	85
2703	28018	They play Atlanta here Saturday and Sunday afternoons.	They play Atlanta here Saturday and Sunday afternoons.	1340707	1471966052792	1471966052893	r	82
2703	28018	They play Atlanta here Saturday and Sunday afternoons.	They play Atlanta here Saturday and Sunday afternoons.	1340710	1471966053097	1471966053216	d	68
2703	28018	They play Atlanta here Saturday and Sunday afternoons.	They play Atlanta here Saturday and Sunday afternoons.	1340713	1471966053294	1471966053444	a	65
2703	28018	They play Atlanta here Saturday and Sunday afternoons.	They play Atlanta here Saturday and Sunday afternoons.	1340715	1471966053591	1471966053696	y	89
2703	28018	They play Atlanta here Saturday and Sunday afternoons.	They play Atlanta here Saturday and Sunday afternoons.	1340747	1471966053780	1471966053899	 	32
2703	28018	They play Atlanta here Saturday and Sunday afternoons.	They play Atlanta here Saturday and Sunday afternoons.	1340749	1471966054102	1471966054239	a	65
2703	28018	They play Atlanta here Saturday and Sunday afternoons.	They play Atlanta here Saturday and Sunday afternoons.	1340751	1471966054324	1471966054420	n	78
2703	28018	They play Atlanta here Saturday and Sunday afternoons.	They play Atlanta here Saturday and Sunday afternoons.	1340753	1471966054549	1471966054664	d	68
2703	28018	They play Atlanta here Saturday and Sunday afternoons.	They play Atlanta here Saturday and Sunday afternoons.	1340756	1471966054737	1471966054828	 	32
2703	28018	They play Atlanta here Saturday and Sunday afternoons.	They play Atlanta here Saturday and Sunday afternoons.	1340862	1471966055000	1471966055395	SHIFT	16
2703	28018	They play Atlanta here Saturday and Sunday afternoons.	They play Atlanta here Saturday and Sunday afternoons.	1340860	1471966055290	1471966055390	S	83
2703	28018	They play Atlanta here Saturday and Sunday afternoons.	They play Atlanta here Saturday and Sunday afternoons.	1340867	1471966055762	1471966055881	u	85
2703	28018	They play Atlanta here Saturday and Sunday afternoons.	They play Atlanta here Saturday and Sunday afternoons.	1340872	1471966055955	1471966056082	n	78
2703	28018	They play Atlanta here Saturday and Sunday afternoons.	They play Atlanta here Saturday and Sunday afternoons.	1340875	1471966056264	1471966056364	d	68
2703	28018	They play Atlanta here Saturday and Sunday afternoons.	They play Atlanta here Saturday and Sunday afternoons.	1340878	1471966056485	1471966056635	a	65
2703	28018	They play Atlanta here Saturday and Sunday afternoons.	They play Atlanta here Saturday and Sunday afternoons.	1340950	1471966056687	1471966056792	y	89
2703	28018	They play Atlanta here Saturday and Sunday afternoons.	They play Atlanta here Saturday and Sunday afternoons.	1340954	1471966056857	1471966056976	 	32
2703	28018	They play Atlanta here Saturday and Sunday afternoons.	They play Atlanta here Saturday and Sunday afternoons.	1340957	1471966057514	1471966057688	a	65
2703	28018	They play Atlanta here Saturday and Sunday afternoons.	They play Atlanta here Saturday and Sunday afternoons.	1340959	1471966057835	1471966057931	f	70
2703	28018	They play Atlanta here Saturday and Sunday afternoons.	They play Atlanta here Saturday and Sunday afternoons.	1340960	1471966058083	1471966058187	t	84
2703	28018	They play Atlanta here Saturday and Sunday afternoons.	They play Atlanta here Saturday and Sunday afternoons.	1341074	1471966058306	1471966058406	e	69
2703	28018	They play Atlanta here Saturday and Sunday afternoons.	They play Atlanta here Saturday and Sunday afternoons.	1341082	1471966058480	1471966058585	r	82
2703	28018	They play Atlanta here Saturday and Sunday afternoons.	They play Atlanta here Saturday and Sunday afternoons.	1341090	1471966059143	1471966059225	n	78
2703	28018	They play Atlanta here Saturday and Sunday afternoons.	They play Atlanta here Saturday and Sunday afternoons.	1341095	1471966059501	1471966059591	o	79
2703	28018	They play Atlanta here Saturday and Sunday afternoons.	They play Atlanta here Saturday and Sunday afternoons.	1341102	1471966059768	1471966059869	o	79
2703	28018	They play Atlanta here Saturday and Sunday afternoons.	They play Atlanta here Saturday and Sunday afternoons.	1341186	1471966060097	1471966060193	n	78
2703	28018	They play Atlanta here Saturday and Sunday afternoons.	They play Atlanta here Saturday and Sunday afternoons.	1341189	1471966060531	1471966060663	s	83
2703	28018	They play Atlanta here Saturday and Sunday afternoons.	They play Atlanta here Saturday and Sunday afternoons.	1341196	1471966061042	1471966061138	.	190
2703	28059	I wouldn't say I'm 100 percent but I'm darn close.	I wouldn't say i' 100 percent but i'm darn close.	1342270	1471966077958	1471966078358	SHIFT	16
2703	28059	I wouldn't say I'm 100 percent but I'm darn close.	I wouldn't say i' 100 percent but i'm darn close.	1342274	1471966078253	1471966078363	I	73
2703	28059	I wouldn't say I'm 100 percent but I'm darn close.	I wouldn't say i' 100 percent but i'm darn close.	1342277	1471966078485	1471966078604	 	32
2703	28059	I wouldn't say I'm 100 percent but I'm darn close.	I wouldn't say i' 100 percent but i'm darn close.	1342279	1471966078859	1471966079027	w	87
2703	28059	I wouldn't say I'm 100 percent but I'm darn close.	I wouldn't say i' 100 percent but i'm darn close.	1342281	1471966079104	1471966079218	o	79
2703	28059	I wouldn't say I'm 100 percent but I'm darn close.	I wouldn't say i' 100 percent but i'm darn close.	1342284	1471966079366	1471966079575	u	85
2703	28059	I wouldn't say I'm 100 percent but I'm darn close.	I wouldn't say i' 100 percent but i'm darn close.	1342454	1471966079638	1471966079747	l	76
2703	28059	I wouldn't say I'm 100 percent but I'm darn close.	I wouldn't say i' 100 percent but i'm darn close.	1342456	1471966079979	1471966080116	d	68
2703	28059	I wouldn't say I'm 100 percent but I'm darn close.	I wouldn't say i' 100 percent but i'm darn close.	1342458	1471966081090	1471966081181	n	78
2703	28059	I wouldn't say I'm 100 percent but I'm darn close.	I wouldn't say i' 100 percent but i'm darn close.	1342462	1471966081620	1471966081721	'	222
2703	28059	I wouldn't say I'm 100 percent but I'm darn close.	I wouldn't say i' 100 percent but i'm darn close.	1342465	1471966082188	1471966082315	t	84
2703	28059	I wouldn't say I'm 100 percent but I'm darn close.	I wouldn't say i' 100 percent but i'm darn close.	1342542	1471966082605	1471966082704	 	32
2703	28059	I wouldn't say I'm 100 percent but I'm darn close.	I wouldn't say i' 100 percent but i'm darn close.	1342544	1471966083275	1471966083367	s	83
2703	28059	I wouldn't say I'm 100 percent but I'm darn close.	I wouldn't say i' 100 percent but i'm darn close.	1342547	1471966083424	1471966083588	a	65
2703	28059	I wouldn't say I'm 100 percent but I'm darn close.	I wouldn't say i' 100 percent but i'm darn close.	1342550	1471966083784	1471966083915	y	89
2703	28059	I wouldn't say I'm 100 percent but I'm darn close.	I wouldn't say i' 100 percent but i'm darn close.	1342555	1471966084102	1471966084220	 	32
2703	28059	I wouldn't say I'm 100 percent but I'm darn close.	I wouldn't say i' 100 percent but i'm darn close.	1342752	1471966084542	1471966084638	i	73
2703	28059	I wouldn't say I'm 100 percent but I'm darn close.	I wouldn't say i' 100 percent but i'm darn close.	1342755	1471966085349	1471966085449	'	222
2703	28059	I wouldn't say I'm 100 percent but I'm darn close.	I wouldn't say i' 100 percent but i'm darn close.	1342757	1471966085654	1471966085745	 	32
2703	28059	I wouldn't say I'm 100 percent but I'm darn close.	I wouldn't say i' 100 percent but i'm darn close.	1342760	1471966086895	1471966087032	1	49
2703	28059	I wouldn't say I'm 100 percent but I'm darn close.	I wouldn't say i' 100 percent but i'm darn close.	1342766	1471966087650	1471966087727	0	48
2703	28059	I wouldn't say I'm 100 percent but I'm darn close.	I wouldn't say i' 100 percent but i'm darn close.	1342856	1471966087797	1471966087878	0	48
2703	28059	I wouldn't say I'm 100 percent but I'm darn close.	I wouldn't say i' 100 percent but i'm darn close.	1342860	1471966088439	1471966088535	 	32
2703	28059	I wouldn't say I'm 100 percent but I'm darn close.	I wouldn't say i' 100 percent but i'm darn close.	1342865	1471966088859	1471966088969	p	80
2703	28059	I wouldn't say I'm 100 percent but I'm darn close.	I wouldn't say i' 100 percent but i'm darn close.	1342868	1471966089110	1471966089259	e	69
2703	28059	I wouldn't say I'm 100 percent but I'm darn close.	I wouldn't say i' 100 percent but i'm darn close.	1342871	1471966089319	1471966089438	r	82
2703	28059	I wouldn't say I'm 100 percent but I'm darn close.	I wouldn't say i' 100 percent but i'm darn close.	1342949	1471966089782	1471966089891	c	67
2703	28059	I wouldn't say I'm 100 percent but I'm darn close.	I wouldn't say i' 100 percent but i'm darn close.	1342950	1471966090041	1471966090192	e	69
2703	28059	I wouldn't say I'm 100 percent but I'm darn close.	I wouldn't say i' 100 percent but i'm darn close.	1342951	1471966090298	1471966090403	n	78
2703	28059	I wouldn't say I'm 100 percent but I'm darn close.	I wouldn't say i' 100 percent but i'm darn close.	1342952	1471966090624	1471966090748	t	84
2703	28059	I wouldn't say I'm 100 percent but I'm darn close.	I wouldn't say i' 100 percent but i'm darn close.	1342953	1471966090837	1471966090931	 	32
2703	28059	I wouldn't say I'm 100 percent but I'm darn close.	I wouldn't say i' 100 percent but i'm darn close.	1343065	1471966091155	1471966091268	b	66
2703	28059	I wouldn't say I'm 100 percent but I'm darn close.	I wouldn't say i' 100 percent but i'm darn close.	1343066	1471966091619	1471966091728	u	85
2703	28059	I wouldn't say I'm 100 percent but I'm darn close.	I wouldn't say i' 100 percent but i'm darn close.	1343068	1471966091850	1471966091951	t	84
2703	28059	I wouldn't say I'm 100 percent but I'm darn close.	I wouldn't say i' 100 percent but i'm darn close.	1343070	1471966092063	1471966092173	 	32
2703	28059	I wouldn't say I'm 100 percent but I'm darn close.	I wouldn't say i' 100 percent but i'm darn close.	1343072	1471966093278	1471966093379	i	73
2703	28059	I wouldn't say I'm 100 percent but I'm darn close.	I wouldn't say i' 100 percent but i'm darn close.	1343311	1471966093927	1471966094032	'	222
2703	28059	I wouldn't say I'm 100 percent but I'm darn close.	I wouldn't say i' 100 percent but i'm darn close.	1343317	1471966095094	1471966095162	m	77
2703	28059	I wouldn't say I'm 100 percent but I'm darn close.	I wouldn't say i' 100 percent but i'm darn close.	1343325	1471966095834	1471966095907	 	32
2703	28059	I wouldn't say I'm 100 percent but I'm darn close.	I wouldn't say i' 100 percent but i'm darn close.	1343333	1471966097284	1471966097375	d	68
2703	28059	I wouldn't say I'm 100 percent but I'm darn close.	I wouldn't say i' 100 percent but i'm darn close.	1343340	1471966097504	1471966097650	a	65
2703	28059	I wouldn't say I'm 100 percent but I'm darn close.	I wouldn't say i' 100 percent but i'm darn close.	1343433	1471966097737	1471966097797	t	84
2703	28059	I wouldn't say I'm 100 percent but I'm darn close.	I wouldn't say i' 100 percent but i'm darn close.	1343436	1471966098305	1471966098382	n	78
2703	28059	I wouldn't say I'm 100 percent but I'm darn close.	I wouldn't say i' 100 percent but i'm darn close.	1343440	1471966098474	1471966098566	 	32
2703	28059	I wouldn't say I'm 100 percent but I'm darn close.	I wouldn't say i' 100 percent but i'm darn close.	1343442	1471966098782	1471966098928	c	67
2703	28059	I wouldn't say I'm 100 percent but I'm darn close.	I wouldn't say i' 100 percent but i'm darn close.	1343444	1471966099033	1471966099119	l	76
2703	28059	I wouldn't say I'm 100 percent but I'm darn close.	I wouldn't say i' 100 percent but i'm darn close.	1343803	1471966099206	1471966099298	o	79
2703	28059	I wouldn't say I'm 100 percent but I'm darn close.	I wouldn't say i' 100 percent but i'm darn close.	1343808	1471966099440	1471966099577	s	83
2703	28059	I wouldn't say I'm 100 percent but I'm darn close.	I wouldn't say i' 100 percent but i'm darn close.	1343814	1471966099648	1471966099775	e	69
2703	28059	I wouldn't say I'm 100 percent but I'm darn close.	I wouldn't say i' 100 percent but i'm darn close.	1343818	1471966100966	1471966101062	ARW_LEFT	37
2703	28059	I wouldn't say I'm 100 percent but I'm darn close.	I wouldn't say i' 100 percent but i'm darn close.	1343822	1471966101111	1471966101213	ARW_LEFT	37
2703	28059	I wouldn't say I'm 100 percent but I'm darn close.	I wouldn't say i' 100 percent but i'm darn close.	1343826	1471966101243	1471966101340	ARW_LEFT	37
2703	28059	I wouldn't say I'm 100 percent but I'm darn close.	I wouldn't say i' 100 percent but i'm darn close.	1343829	1471966101369	1471966101466	ARW_LEFT	37
2703	28059	I wouldn't say I'm 100 percent but I'm darn close.	I wouldn't say i' 100 percent but i'm darn close.	1343831	1471966101501	1471966101665	ARW_LEFT	37
2703	28059	I wouldn't say I'm 100 percent but I'm darn close.	I wouldn't say i' 100 percent but i'm darn close.	1343833	1471966101700	1471966101805	ARW_LEFT	37
2703	28059	I wouldn't say I'm 100 percent but I'm darn close.	I wouldn't say i' 100 percent but i'm darn close.	1343834	1471966101881	1471966102009	ARW_LEFT	37
2703	28059	I wouldn't say I'm 100 percent but I'm darn close.	I wouldn't say i' 100 percent but i'm darn close.	1343838	1471966102866	1471966102953	BKSP	8
2703	28059	I wouldn't say I'm 100 percent but I'm darn close.	I wouldn't say i' 100 percent but i'm darn close.	1343842	1471966103357	1471966103444	r	82
2703	28059	I wouldn't say I'm 100 percent but I'm darn close.	I wouldn't say i' 100 percent but i'm darn close.	1343846	1471966103934	1471966104017	ARW_RIGHT	39
2703	28059	I wouldn't say I'm 100 percent but I'm darn close.	I wouldn't say i' 100 percent but i'm darn close.	1343850	1471966104068	1471966104172	ARW_RIGHT	39
2703	28059	I wouldn't say I'm 100 percent but I'm darn close.	I wouldn't say i' 100 percent but i'm darn close.	1343852	1471966104223	1471966104317	ARW_RIGHT	39
2703	28059	I wouldn't say I'm 100 percent but I'm darn close.	I wouldn't say i' 100 percent but i'm darn close.	1343857	1471966104361	1471966104459	ARW_RIGHT	39
2703	28059	I wouldn't say I'm 100 percent but I'm darn close.	I wouldn't say i' 100 percent but i'm darn close.	1343860	1471966104497	1471966104598	ARW_RIGHT	39
2703	28059	I wouldn't say I'm 100 percent but I'm darn close.	I wouldn't say i' 100 percent but i'm darn close.	1343864	1471966104621	1471966104722	ARW_RIGHT	39
2703	28059	I wouldn't say I'm 100 percent but I'm darn close.	I wouldn't say i' 100 percent but i'm darn close.	1343869	1471966104755	1471966104874	ARW_RIGHT	39
2703	28059	I wouldn't say I'm 100 percent but I'm darn close.	I wouldn't say i' 100 percent but i'm darn close.	1343875	1471966105463	1471966105558	.	190
2703	28116	The mud was their idea.	The mud was thei idea.	1344140	1471966109912	1471966110380	SHIFT	16
2703	28116	The mud was their idea.	The mud was thei idea.	1344132	1471966110265	1471966110375	T	84
2703	28116	The mud was their idea.	The mud was thei idea.	1344146	1471966110471	1471966110575	h	72
2703	28116	The mud was their idea.	The mud was thei idea.	1344149	1471966110657	1471966110806	e	69
2703	28116	The mud was their idea.	The mud was thei idea.	1344153	1471966110842	1471966110933	 	32
2703	28116	The mud was their idea.	The mud was thei idea.	1344157	1471966111132	1471966111235	m	77
2703	28116	The mud was their idea.	The mud was thei idea.	1344257	1471966111382	1471966111486	u	85
2703	28116	The mud was their idea.	The mud was thei idea.	1344260	1471966111718	1471966111862	d	68
2703	28116	The mud was their idea.	The mud was thei idea.	1344264	1471966111921	1471966112026	 	32
2703	28116	The mud was their idea.	The mud was thei idea.	1344267	1471966112899	1471966113017	w	87
2703	28116	The mud was their idea.	The mud was thei idea.	1344268	1471966113174	1471966113298	a	65
2703	28116	The mud was their idea.	The mud was thei idea.	1344312	1471966113422	1471966113545	s	83
2703	28116	The mud was their idea.	The mud was thei idea.	1344318	1471966113633	1471966113731	 	32
2703	28116	The mud was their idea.	The mud was thei idea.	1344321	1471966113817	1471966113949	t	84
2703	28116	The mud was their idea.	The mud was thei idea.	1344325	1471966114005	1471966114106	h	72
2703	28116	The mud was their idea.	The mud was thei idea.	1344328	1471966114226	1471966114396	e	69
2703	28116	The mud was their idea.	The mud was thei idea.	1344394	1471966114538	1471966114641	i	73
2703	28116	The mud was their idea.	The mud was thei idea.	1344397	1471966114752	1471966114869	 	32
2703	28116	The mud was their idea.	The mud was thei idea.	1344401	1471966115090	1471966115203	i	73
2703	28116	The mud was their idea.	The mud was thei idea.	1344408	1471966115385	1471966115509	d	68
2703	28116	The mud was their idea.	The mud was thei idea.	1344413	1471966115571	1471966115696	e	69
2703	28116	The mud was their idea.	The mud was thei idea.	1344465	1471966115869	1471966116010	a	65
2703	28116	The mud was their idea.	The mud was thei idea.	1344467	1471966116482	1471966116583	.	190
2703	28124	We're not a lock for the pole.	We're not a lock for the pole.	1345178	1471966125843	1471966126449	SHIFT	16
2703	28124	We're not a lock for the pole.	We're not a lock for the pole.	1345172	1471966126230	1471966126353	W	87
2703	28124	We're not a lock for the pole.	We're not a lock for the pole.	1345180	1471966126474	1471966126733	SHIFT	16
2703	28124	We're not a lock for the pole.	We're not a lock for the pole.	1345184	1471966127668	1471966127752	e	69
2703	28124	We're not a lock for the pole.	We're not a lock for the pole.	1345187	1471966129082	1471966129151	'	222
2703	28124	We're not a lock for the pole.	We're not a lock for the pole.	1345190	1471966129538	1471966129646	r	82
2703	28124	We're not a lock for the pole.	We're not a lock for the pole.	1345194	1471966129719	1471966129844	e	69
2703	28124	We're not a lock for the pole.	We're not a lock for the pole.	1345288	1471966129956	1471966130066	 	32
2703	28124	We're not a lock for the pole.	We're not a lock for the pole.	1345290	1471966130239	1471966130362	n	78
2703	28124	We're not a lock for the pole.	We're not a lock for the pole.	1345295	1471966130444	1471966130585	o	79
2703	28124	We're not a lock for the pole.	We're not a lock for the pole.	1345299	1471966130716	1471966130817	r	82
2703	28124	We're not a lock for the pole.	We're not a lock for the pole.	1345304	1471966131538	1471966131646	BKSP	8
2703	28124	We're not a lock for the pole.	We're not a lock for the pole.	1345311	1471966131896	1471966132025	t	84
2703	28124	We're not a lock for the pole.	We're not a lock for the pole.	1345366	1471966132105	1471966132201	 	32
2703	28124	We're not a lock for the pole.	We're not a lock for the pole.	1345372	1471966132537	1471966132682	a	65
2703	28124	We're not a lock for the pole.	We're not a lock for the pole.	1345374	1471966132752	1471966132842	 	32
2703	28124	We're not a lock for the pole.	We're not a lock for the pole.	1345376	1471966133027	1471966133137	l	76
2703	28124	We're not a lock for the pole.	We're not a lock for the pole.	1345378	1471966133206	1471966133308	o	79
2703	28124	We're not a lock for the pole.	We're not a lock for the pole.	1345441	1471966133533	1471966133670	c	67
2703	28124	We're not a lock for the pole.	We're not a lock for the pole.	1345443	1471966133815	1471966133916	k	75
2703	28124	We're not a lock for the pole.	We're not a lock for the pole.	1345448	1471966134013	1471966134142	 	32
2703	28124	We're not a lock for the pole.	We're not a lock for the pole.	1345453	1471966134342	1471966134509	f	70
2703	28124	We're not a lock for the pole.	We're not a lock for the pole.	1345458	1471966134571	1471966134687	o	79
2703	28124	We're not a lock for the pole.	We're not a lock for the pole.	1345502	1471966134791	1471966134936	r	82
2703	28124	We're not a lock for the pole.	We're not a lock for the pole.	1345510	1471966134997	1471966135080	 	32
2703	28124	We're not a lock for the pole.	We're not a lock for the pole.	1345512	1471966135115	1471966135239	t	84
2703	28124	We're not a lock for the pole.	We're not a lock for the pole.	1345516	1471966135303	1471966135404	h	72
2703	28124	We're not a lock for the pole.	We're not a lock for the pole.	1345518	1471966135497	1471966135629	e	69
2703	28124	We're not a lock for the pole.	We're not a lock for the pole.	1345569	1471966135651	1471966135747	 	32
2703	28124	We're not a lock for the pole.	We're not a lock for the pole.	1345571	1471966136022	1471966136123	p	80
2703	28124	We're not a lock for the pole.	We're not a lock for the pole.	1345573	1471966136310	1471966136397	o	79
2703	28124	We're not a lock for the pole.	We're not a lock for the pole.	1345575	1471966136476	1471966136573	l	76
2703	28124	We're not a lock for the pole.	We're not a lock for the pole.	1345577	1471966136829	1471966136971	e	69
2703	28124	We're not a lock for the pole.	We're not a lock for the pole.	1345596	1471966137230	1471966137326	.	190
2703	28148	I'll be up to nine or 10 by Saturday.	I'll be up to nine or10 by Saturday.	1345972	1471966143244	1471966143805	SHIFT	16
2703	28148	I'll be up to nine or 10 by Saturday.	I'll be up to nine or10 by Saturday.	1345968	1471966143680	1471966143767	I	73
2703	28148	I'll be up to nine or 10 by Saturday.	I'll be up to nine or10 by Saturday.	1345977	1471966144260	1471966144351	'	222
2703	28148	I'll be up to nine or 10 by Saturday.	I'll be up to nine or10 by Saturday.	1345981	1471966144615	1471966144690	l	76
2703	28148	I'll be up to nine or 10 by Saturday.	I'll be up to nine or10 by Saturday.	1345985	1471966144745	1471966144839	l	76
2703	28148	I'll be up to nine or 10 by Saturday.	I'll be up to nine or10 by Saturday.	1345988	1471966144972	1471966145077	 	32
2703	28148	I'll be up to nine or 10 by Saturday.	I'll be up to nine or10 by Saturday.	1346061	1471966145272	1471966145384	b	66
2703	28148	I'll be up to nine or 10 by Saturday.	I'll be up to nine or10 by Saturday.	1346063	1471966145550	1471966145688	e	69
2703	28148	I'll be up to nine or 10 by Saturday.	I'll be up to nine or10 by Saturday.	1346067	1471966145754	1471966145841	 	32
2703	28148	I'll be up to nine or 10 by Saturday.	I'll be up to nine or10 by Saturday.	1346072	1471966146100	1471966146196	u	85
2703	28148	I'll be up to nine or 10 by Saturday.	I'll be up to nine or10 by Saturday.	1346076	1471966146664	1471966146756	p	80
2703	28148	I'll be up to nine or 10 by Saturday.	I'll be up to nine or10 by Saturday.	1346195	1471966146896	1471966146996	 	32
2703	28148	I'll be up to nine or 10 by Saturday.	I'll be up to nine or10 by Saturday.	1346197	1471966147102	1471966147239	t	84
2703	28148	I'll be up to nine or 10 by Saturday.	I'll be up to nine or10 by Saturday.	1346202	1471966147304	1471966147428	o	79
2703	28148	I'll be up to nine or 10 by Saturday.	I'll be up to nine or10 by Saturday.	1346208	1471966147544	1471966147671	 	32
2703	28148	I'll be up to nine or 10 by Saturday.	I'll be up to nine or10 by Saturday.	1346213	1471966148276	1471966148367	n	78
2703	28148	I'll be up to nine or 10 by Saturday.	I'll be up to nine or10 by Saturday.	1346381	1471966149385	1471966149495	i	73
2703	28148	I'll be up to nine or 10 by Saturday.	I'll be up to nine or10 by Saturday.	1346389	1471966149591	1471966149705	n	78
2703	28148	I'll be up to nine or 10 by Saturday.	I'll be up to nine or10 by Saturday.	1346395	1471966150016	1471966150187	e	69
2703	28148	I'll be up to nine or 10 by Saturday.	I'll be up to nine or10 by Saturday.	1346399	1471966150242	1471966150339	 	32
2703	28148	I'll be up to nine or 10 by Saturday.	I'll be up to nine or10 by Saturday.	1346403	1471966150621	1471966150739	o	79
2703	28148	I'll be up to nine or 10 by Saturday.	I'll be up to nine or10 by Saturday.	1346523	1471966151469	1471966151588	r	82
2703	28148	I'll be up to nine or 10 by Saturday.	I'll be up to nine or10 by Saturday.	1346526	1471966151893	1471966152049	1	49
2703	28148	I'll be up to nine or 10 by Saturday.	I'll be up to nine or10 by Saturday.	1346530	1471966152126	1471966152236	0	48
2703	28148	I'll be up to nine or 10 by Saturday.	I'll be up to nine or10 by Saturday.	1346534	1471966152368	1471966152473	 	32
2703	28148	I'll be up to nine or 10 by Saturday.	I'll be up to nine or10 by Saturday.	1346538	1471966152632	1471966152737	b	66
2703	28148	I'll be up to nine or 10 by Saturday.	I'll be up to nine or10 by Saturday.	1346675	1471966153374	1471966153483	y	89
2703	28148	I'll be up to nine or 10 by Saturday.	I'll be up to nine or10 by Saturday.	1346677	1471966153591	1471966153718	 	32
2703	28148	I'll be up to nine or 10 by Saturday.	I'll be up to nine or10 by Saturday.	1346679	1471966153937	1471966154033	s	83
2703	28148	I'll be up to nine or 10 by Saturday.	I'll be up to nine or10 by Saturday.	1346682	1471966154744	1471966154845	BKSP	8
2703	28148	I'll be up to nine or 10 by Saturday.	I'll be up to nine or10 by Saturday.	1346684	1471966155001	1471966155337	SHIFT	16
2703	28148	I'll be up to nine or 10 by Saturday.	I'll be up to nine or10 by Saturday.	1346686	1471966155245	1471966155346	S	83
2703	28148	I'll be up to nine or 10 by Saturday.	I'll be up to nine or10 by Saturday.	1346688	1471966155438	1471966155534	a	65
2703	28148	I'll be up to nine or 10 by Saturday.	I'll be up to nine or10 by Saturday.	1346773	1471966155919	1471966156020	t	84
2703	28148	I'll be up to nine or 10 by Saturday.	I'll be up to nine or10 by Saturday.	1346775	1471966156390	1471966156480	u	85
2703	28148	I'll be up to nine or 10 by Saturday.	I'll be up to nine or10 by Saturday.	1346780	1471966156675	1471966156771	r	82
2703	28148	I'll be up to nine or 10 by Saturday.	I'll be up to nine or10 by Saturday.	1346785	1471966157022	1471966157117	d	68
2703	28148	I'll be up to nine or 10 by Saturday.	I'll be up to nine or10 by Saturday.	1346790	1471966157257	1471966157407	a	65
2703	28148	I'll be up to nine or 10 by Saturday.	I'll be up to nine or10 by Saturday.	1346834	1471966157602	1471966157689	y	89
2703	28148	I'll be up to nine or 10 by Saturday.	I'll be up to nine or10 by Saturday.	1346836	1471966158218	1471966158305	.	190
2703	28177	He is pretty tapped into it all.	He is pretty tapped into it all.	1347406	1471966166582	1471966167153	SHIFT	16
2703	28177	He is pretty tapped into it all.	He is pretty tapped into it all.	1347410	1471966167067	1471966167157	H	72
2703	28177	He is pretty tapped into it all.	He is pretty tapped into it all.	1347417	1471966167377	1471966167527	e	69
2703	28177	He is pretty tapped into it all.	He is pretty tapped into it all.	1347422	1471966167587	1471966167701	 	32
2703	28177	He is pretty tapped into it all.	He is pretty tapped into it all.	1347427	1471966167799	1471966167926	i	73
2703	28177	He is pretty tapped into it all.	He is pretty tapped into it all.	1347429	1471966168060	1471966168210	s	83
2703	28177	He is pretty tapped into it all.	He is pretty tapped into it all.	1347513	1471966168242	1471966168351	 	32
2703	28177	He is pretty tapped into it all.	He is pretty tapped into it all.	1347515	1471966168679	1471966168789	p	80
2703	28177	He is pretty tapped into it all.	He is pretty tapped into it all.	1347519	1471966169038	1471966169137	r	82
2703	28177	He is pretty tapped into it all.	He is pretty tapped into it all.	1347523	1471966169279	1471966169387	e	69
2703	28177	He is pretty tapped into it all.	He is pretty tapped into it all.	1347527	1471966169675	1471966169771	t	84
2703	28177	He is pretty tapped into it all.	He is pretty tapped into it all.	1347592	1471966169821	1471966169926	t	84
2703	28177	He is pretty tapped into it all.	He is pretty tapped into it all.	1347596	1471966169996	1471966170109	y	89
2703	28177	He is pretty tapped into it all.	He is pretty tapped into it all.	1347601	1471966170215	1471966170335	 	32
2703	28177	He is pretty tapped into it all.	He is pretty tapped into it all.	1347606	1471966170996	1471966171092	t	84
2703	28177	He is pretty tapped into it all.	He is pretty tapped into it all.	1347612	1471966171180	1471966171323	a	65
2703	28177	He is pretty tapped into it all.	He is pretty tapped into it all.	1347662	1471966171632	1471966171723	p	80
2703	28177	He is pretty tapped into it all.	He is pretty tapped into it all.	1347665	1471966171784	1471966171890	p	80
2703	28177	He is pretty tapped into it all.	He is pretty tapped into it all.	1347670	1471966171975	1471966172107	e	69
2703	28177	He is pretty tapped into it all.	He is pretty tapped into it all.	1347673	1471966172204	1471966172326	d	68
2703	28177	He is pretty tapped into it all.	He is pretty tapped into it all.	1347675	1471966172416	1471966172521	 	32
2703	28177	He is pretty tapped into it all.	He is pretty tapped into it all.	1347720	1471966172634	1471966172752	i	73
2703	28177	He is pretty tapped into it all.	He is pretty tapped into it all.	1347723	1471966172841	1471966172955	n	78
2703	28177	He is pretty tapped into it all.	He is pretty tapped into it all.	1347728	1471966173154	1471966173290	t	84
2703	28177	He is pretty tapped into it all.	He is pretty tapped into it all.	1347735	1471966173416	1471966173535	o	79
2703	28177	He is pretty tapped into it all.	He is pretty tapped into it all.	1347740	1471966173618	1471966173736	 	32
2703	28177	He is pretty tapped into it all.	He is pretty tapped into it all.	1347826	1471966173853	1471966173963	i	73
2703	28177	He is pretty tapped into it all.	He is pretty tapped into it all.	1347830	1471966174225	1471966174348	t	84
2703	28177	He is pretty tapped into it all.	He is pretty tapped into it all.	1347834	1471966174421	1471966174534	 	32
2703	28177	He is pretty tapped into it all.	He is pretty tapped into it all.	1347837	1471966174749	1471966174931	a	65
2703	28177	He is pretty tapped into it all.	He is pretty tapped into it all.	1347840	1471966175059	1471966175124	;	186
2703	28177	He is pretty tapped into it all.	He is pretty tapped into it all.	1348020	1471966176288	1471966176366	BKSP	8
2703	28177	He is pretty tapped into it all.	He is pretty tapped into it all.	1348023	1471966176635	1471966176699	l	76
2703	28177	He is pretty tapped into it all.	He is pretty tapped into it all.	1348026	1471966176772	1471966176850	l	76
2703	28177	He is pretty tapped into it all.	He is pretty tapped into it all.	1348030	1471966177574	1471966177666	.	190
2703	28202	See the list below.	See the list below.	1348447	1471966182694	1471966183243	SHIFT	16
2703	28202	See the list below.	See the list below.	1348448	1471966183143	1471966183252	S	83
2703	28202	See the list below.	See the list below.	1348452	1471966183360	1471966183457	e	69
2703	28202	See the list below.	See the list below.	1348455	1471966183514	1471966183605	e	69
2703	28202	See the list below.	See the list below.	1348458	1471966183937	1471966184038	 	32
2703	28202	See the list below.	See the list below.	1348460	1471966184199	1471966184359	t	84
2703	28202	See the list below.	See the list below.	1348519	1471966184396	1471966184496	h	72
2703	28202	See the list below.	See the list below.	1348521	1471966184607	1471966184752	e	69
2703	28202	See the list below.	See the list below.	1348524	1471966184760	1471966184864	 	32
2703	28202	See the list below.	See the list below.	1348526	1471966185176	1471966185273	l	76
2703	28202	See the list below.	See the list below.	1348529	1471966185860	1471966185963	i	73
2703	28202	See the list below.	See the list below.	1348602	1471966186205	1471966186337	s	83
2703	28202	See the list below.	See the list below.	1348607	1471966186521	1471966186648	t	84
2703	28202	See the list below.	See the list below.	1348613	1471966186729	1471966186834	 	32
2703	28202	See the list below.	See the list below.	1348618	1471966186940	1471966187054	b	66
2703	28202	See the list below.	See the list below.	1348622	1471966187265	1471966187388	e	69
2703	28202	See the list below.	See the list below.	1348804	1471966187877	1471966187968	l	76
2703	28202	See the list below.	See the list below.	1348806	1471966188318	1471966188404	o	79
2703	28202	See the list below.	See the list below.	1348808	1471966190140	1471966190278	w	87
2703	28202	See the list below.	See the list below.	1348811	1471966190691	1471966190778	.	190
2703	28224	Here's the September purchase for September.	Here's the September purchase for September.	1349701	1471966203848	1471966204406	SHIFT	16
2703	28224	Here's the September purchase for September.	Here's the September purchase for September.	1349699	1471966204242	1471966204356	H	72
2703	28224	Here's the September purchase for September.	Here's the September purchase for September.	1349704	1471966204579	1471966204674	e	69
2703	28224	Here's the September purchase for September.	Here's the September purchase for September.	1349707	1471966204751	1471966204865	r	82
2703	28224	Here's the September purchase for September.	Here's the September purchase for September.	1349709	1471966205004	1471966205104	e	69
2703	28224	Here's the September purchase for September.	Here's the September purchase for September.	1349712	1471966205918	1471966205999	'	222
2703	28224	Here's the September purchase for September.	Here's the September purchase for September.	1349755	1471966206141	1471966206308	s	83
2703	28224	Here's the September purchase for September.	Here's the September purchase for September.	1349758	1471966206360	1471966206436	 	32
2703	28224	Here's the September purchase for September.	Here's the September purchase for September.	1349762	1471966206572	1471966206713	t	84
2703	28224	Here's the September purchase for September.	Here's the September purchase for September.	1349764	1471966206785	1471966206885	h	72
2703	28224	Here's the September purchase for September.	Here's the September purchase for September.	1349768	1471966207085	1471966207213	e	69
2703	28224	Here's the September purchase for September.	Here's the September purchase for September.	1349941	1471966207285	1471966207376	 	32
2703	28224	Here's the September purchase for September.	Here's the September purchase for September.	1349948	1471966208307	1471966208665	SHIFT	16
2703	28224	Here's the September purchase for September.	Here's the September purchase for September.	1349944	1471966208555	1471966208652	S	83
2703	28224	Here's the September purchase for September.	Here's the September purchase for September.	1349952	1471966208734	1471966208852	e	69
2703	28224	Here's the September purchase for September.	Here's the September purchase for September.	1349958	1471966209283	1471966209370	p	80
2703	28224	Here's the September purchase for September.	Here's the September purchase for September.	1349964	1471966210116	1471966210208	t	84
2703	28224	Here's the September purchase for September.	Here's the September purchase for September.	1350095	1471966210678	1471966210819	e	69
2703	28224	Here's the September purchase for September.	Here's the September purchase for September.	1350101	1471966210899	1471966211004	m	77
2703	28224	Here's the September purchase for September.	Here's the September purchase for September.	1350109	1471966211376	1471966211472	b	66
2703	28224	Here's the September purchase for September.	Here's the September purchase for September.	1350120	1471966211606	1471966211744	e	69
2703	28224	Here's the September purchase for September.	Here's the September purchase for September.	1350129	1471966211907	1471966212037	r	82
2703	28224	Here's the September purchase for September.	Here's the September purchase for September.	1350270	1471966212131	1471966212222	 	32
2703	28224	Here's the September purchase for September.	Here's the September purchase for September.	1350275	1471966212563	1471966212666	p	80
2703	28224	Here's the September purchase for September.	Here's the September purchase for September.	1350278	1471966212981	1471966213082	u	85
2703	28224	Here's the September purchase for September.	Here's the September purchase for September.	1350282	1471966213327	1471966213414	r	82
2703	28224	Here's the September purchase for September.	Here's the September purchase for September.	1350285	1471966213736	1471966213841	c	67
2703	28224	Here's the September purchase for September.	Here's the September purchase for September.	1350370	1471966214074	1471966214173	h	72
2703	28224	Here's the September purchase for September.	Here's the September purchase for September.	1350376	1471966214293	1471966214447	a	65
2703	28224	Here's the September purchase for September.	Here's the September purchase for September.	1350381	1471966214586	1471966214713	s	83
2703	28224	Here's the September purchase for September.	Here's the September purchase for September.	1350385	1471966214839	1471966214957	e	69
2703	28224	Here's the September purchase for September.	Here's the September purchase for September.	1350390	1471966215076	1471966215176	 	32
2703	28224	Here's the September purchase for September.	Here's the September purchase for September.	1350510	1471966215285	1471966215418	f	70
2703	28224	Here's the September purchase for September.	Here's the September purchase for September.	1350519	1471966215528	1471966215628	o	79
2703	28224	Here's the September purchase for September.	Here's the September purchase for September.	1350526	1471966215717	1471966215854	r	82
2703	28224	Here's the September purchase for September.	Here's the September purchase for September.	1350534	1471966215921	1471966216013	 	32
2703	28224	Here's the September purchase for September.	Here's the September purchase for September.	1350661	1471966216719	1471966217141	SHIFT	16
2703	28224	Here's the September purchase for September.	Here's the September purchase for September.	1350541	1471966217009	1471966217101	S	83
2703	28224	Here's the September purchase for September.	Here's the September purchase for September.	1350665	1471966217317	1471966217409	e	69
2703	28224	Here's the September purchase for September.	Here's the September purchase for September.	1350671	1471966217852	1471966217951	p	80
2703	28224	Here's the September purchase for September.	Here's the September purchase for September.	1350675	1471966218279	1471966218365	t	84
2703	28224	Here's the September purchase for September.	Here's the September purchase for September.	1350680	1471966218661	1471966218788	e	69
2703	28224	Here's the September purchase for September.	Here's the September purchase for September.	1350685	1471966218883	1471966218973	m	77
2703	28224	Here's the September purchase for September.	Here's the September purchase for September.	1350777	1471966219316	1471966219407	b	66
2703	28224	Here's the September purchase for September.	Here's the September purchase for September.	1350780	1471966219555	1471966219687	e	69
2703	28224	Here's the September purchase for September.	Here's the September purchase for September.	1350785	1471966219732	1471966219824	r	82
2703	28224	Here's the September purchase for September.	Here's the September purchase for September.	1350791	1471966220409	1471966220491	.	190
2703	28267	Crestone won't have final measurement until next week.	Crestone won't have final measurement until next week.	1351612	1471966232736	1471966233216	SHIFT	16
2703	28267	Crestone won't have final measurement until next week.	Crestone won't have final measurement until next week.	1351608	1471966233089	1471966233198	C	67
2703	28267	Crestone won't have final measurement until next week.	Crestone won't have final measurement until next week.	1351615	1471966233364	1471966233465	r	82
2703	28267	Crestone won't have final measurement until next week.	Crestone won't have final measurement until next week.	1351619	1471966233561	1471966233675	e	69
2703	28267	Crestone won't have final measurement until next week.	Crestone won't have final measurement until next week.	1351622	1471966233857	1471966234016	s	83
2703	28267	Crestone won't have final measurement until next week.	Crestone won't have final measurement until next week.	1351623	1471966234287	1471966234428	t	84
2703	28267	Crestone won't have final measurement until next week.	Crestone won't have final measurement until next week.	1351667	1471966234579	1471966234702	o	79
2703	28267	Crestone won't have final measurement until next week.	Crestone won't have final measurement until next week.	1351668	1471966234797	1471966234902	n	78
2703	28267	Crestone won't have final measurement until next week.	Crestone won't have final measurement until next week.	1351669	1471966235071	1471966235205	e	69
2703	28267	Crestone won't have final measurement until next week.	Crestone won't have final measurement until next week.	1351670	1471966235281	1471966235380	 	32
2703	28267	Crestone won't have final measurement until next week.	Crestone won't have final measurement until next week.	1351672	1471966235459	1471966235617	w	87
2703	28267	Crestone won't have final measurement until next week.	Crestone won't have final measurement until next week.	1351765	1471966235696	1471966235824	o	79
2703	28267	Crestone won't have final measurement until next week.	Crestone won't have final measurement until next week.	1351770	1471966235943	1471966236053	n	78
2703	28267	Crestone won't have final measurement until next week.	Crestone won't have final measurement until next week.	1351778	1471966236956	1471966237043	'	222
2703	28267	Crestone won't have final measurement until next week.	Crestone won't have final measurement until next week.	1351781	1471966237231	1471966237359	t	84
2703	28267	Crestone won't have final measurement until next week.	Crestone won't have final measurement until next week.	1351787	1471966237384	1471966237476	 	32
2703	28267	Crestone won't have final measurement until next week.	Crestone won't have final measurement until next week.	1351918	1471966238542	1471966238641	h	72
2703	28267	Crestone won't have final measurement until next week.	Crestone won't have final measurement until next week.	1351922	1471966238744	1471966238905	a	65
2703	28267	Crestone won't have final measurement until next week.	Crestone won't have final measurement until next week.	1351927	1471966239249	1471966239341	v	86
2703	28267	Crestone won't have final measurement until next week.	Crestone won't have final measurement until next week.	1351932	1471966239537	1471966239674	e	69
2703	28267	Crestone won't have final measurement until next week.	Crestone won't have final measurement until next week.	1351935	1471966239728	1471966239833	 	32
2703	28267	Crestone won't have final measurement until next week.	Crestone won't have final measurement until next week.	1352018	1471966239931	1471966240080	f	70
2703	28267	Crestone won't have final measurement until next week.	Crestone won't have final measurement until next week.	1352022	1471966240206	1471966240329	i	73
2703	28267	Crestone won't have final measurement until next week.	Crestone won't have final measurement until next week.	1352027	1471966240470	1471966240572	n	78
2703	28267	Crestone won't have final measurement until next week.	Crestone won't have final measurement until next week.	1352033	1471966240797	1471966240965	a	65
2703	28267	Crestone won't have final measurement until next week.	Crestone won't have final measurement until next week.	1352040	1471966241011	1471966241111	l	76
2703	28267	Crestone won't have final measurement until next week.	Crestone won't have final measurement until next week.	1352138	1471966241214	1471966241328	 	32
2703	28267	Crestone won't have final measurement until next week.	Crestone won't have final measurement until next week.	1352143	1471966241406	1471966241525	m	77
2703	28267	Crestone won't have final measurement until next week.	Crestone won't have final measurement until next week.	1352151	1471966241704	1471966241831	e	69
2703	28267	Crestone won't have final measurement until next week.	Crestone won't have final measurement until next week.	1352159	1471966242266	1471966242399	a	65
2703	28267	Crestone won't have final measurement until next week.	Crestone won't have final measurement until next week.	1352165	1471966242513	1471966242640	s	83
2703	28267	Crestone won't have final measurement until next week.	Crestone won't have final measurement until next week.	1352316	1471966242924	1471966243056	u	85
2703	28267	Crestone won't have final measurement until next week.	Crestone won't have final measurement until next week.	1352319	1471966243257	1471966243396	r	82
2703	28267	Crestone won't have final measurement until next week.	Crestone won't have final measurement until next week.	1352324	1471966243838	1471966243965	e	69
2703	28267	Crestone won't have final measurement until next week.	Crestone won't have final measurement until next week.	1352329	1471966244145	1471966244250	m	77
2703	28267	Crestone won't have final measurement until next week.	Crestone won't have final measurement until next week.	1352336	1471966244536	1471966244665	e	69
2703	28267	Crestone won't have final measurement until next week.	Crestone won't have final measurement until next week.	1352426	1471966244725	1471966244831	n	78
2703	28267	Crestone won't have final measurement until next week.	Crestone won't have final measurement until next week.	1352431	1471966244999	1471966245113	t	84
2703	28267	Crestone won't have final measurement until next week.	Crestone won't have final measurement until next week.	1352437	1471966245242	1471966245365	 	32
2703	28267	Crestone won't have final measurement until next week.	Crestone won't have final measurement until next week.	1352445	1471966245521	1471966245630	u	85
2703	28267	Crestone won't have final measurement until next week.	Crestone won't have final measurement until next week.	1352451	1471966245738	1471966245861	n	78
2703	28267	Crestone won't have final measurement until next week.	Crestone won't have final measurement until next week.	1352603	1471966246254	1471966246382	t	84
2703	28267	Crestone won't have final measurement until next week.	Crestone won't have final measurement until next week.	1352607	1471966246517	1471966246627	i	73
2703	28267	Crestone won't have final measurement until next week.	Crestone won't have final measurement until next week.	1352611	1471966246801	1471966246902	l	76
2703	28267	Crestone won't have final measurement until next week.	Crestone won't have final measurement until next week.	1352617	1471966247057	1471966247153	 	32
2703	28267	Crestone won't have final measurement until next week.	Crestone won't have final measurement until next week.	1352623	1471966248697	1471966248793	n	78
2703	28267	Crestone won't have final measurement until next week.	Crestone won't have final measurement until next week.	1352716	1471966249061	1471966249175	e	69
2703	28267	Crestone won't have final measurement until next week.	Crestone won't have final measurement until next week.	1352720	1471966249422	1471966249544	x	88
2703	28267	Crestone won't have final measurement until next week.	Crestone won't have final measurement until next week.	1352725	1471966249728	1471966249814	t	84
2703	28267	Crestone won't have final measurement until next week.	Crestone won't have final measurement until next week.	1352730	1471966249931	1471966250044	 	32
2703	28267	Crestone won't have final measurement until next week.	Crestone won't have final measurement until next week.	1352735	1471966250163	1471966250296	w	87
2703	28267	Crestone won't have final measurement until next week.	Crestone won't have final measurement until next week.	1352802	1471966250421	1471966250530	e	69
2703	28267	Crestone won't have final measurement until next week.	Crestone won't have final measurement until next week.	1352804	1471966250578	1471966250654	e	69
2703	28267	Crestone won't have final measurement until next week.	Crestone won't have final measurement until next week.	1352807	1471966250909	1471966251005	k	75
2703	28267	Crestone won't have final measurement until next week.	Crestone won't have final measurement until next week.	1352813	1471966251396	1471966251487	.	190
2703	28315	He did not return to the game, and is listed as day to day.	He did not return to the game and is listed as day to day.	1354590	1471966269978	1471966270386	SHIFT	16
2703	28315	He did not return to the game, and is listed as day to day.	He did not return to the game and is listed as day to day.	1354596	1471966270291	1471966270423	H	72
2703	28315	He did not return to the game, and is listed as day to day.	He did not return to the game and is listed as day to day.	1354602	1471966270601	1471966270748	e	69
2703	28315	He did not return to the game, and is listed as day to day.	He did not return to the game and is listed as day to day.	1354606	1471966272470	1471966272597	d	68
2703	28315	He did not return to the game, and is listed as day to day.	He did not return to the game and is listed as day to day.	1354615	1471966273459	1471966273560	BKSP	8
2703	28315	He did not return to the game, and is listed as day to day.	He did not return to the game and is listed as day to day.	1354620	1471966273891	1471966273982	 	32
2703	28315	He did not return to the game, and is listed as day to day.	He did not return to the game and is listed as day to day.	1354629	1471966274159	1471966274315	d	68
2703	28315	He did not return to the game, and is listed as day to day.	He did not return to the game and is listed as day to day.	1354770	1471966274424	1471966274528	i	73
2703	28315	He did not return to the game, and is listed as day to day.	He did not return to the game and is listed as day to day.	1354775	1471966274591	1471966274755	d	68
2703	28315	He did not return to the game, and is listed as day to day.	He did not return to the game and is listed as day to day.	1354781	1471966275287	1471966275408	 	32
2703	28315	He did not return to the game, and is listed as day to day.	He did not return to the game and is listed as day to day.	1354787	1471966275732	1471966275834	n	78
2703	28315	He did not return to the game, and is listed as day to day.	He did not return to the game and is listed as day to day.	1354791	1471966275987	1471966276106	o	79
2703	28315	He did not return to the game, and is listed as day to day.	He did not return to the game and is listed as day to day.	1354880	1471966276288	1471966276411	t	84
2703	28315	He did not return to the game, and is listed as day to day.	He did not return to the game and is listed as day to day.	1354887	1471966276477	1471966276572	 	32
2703	28315	He did not return to the game, and is listed as day to day.	He did not return to the game and is listed as day to day.	1354890	1471966276712	1471966276825	r	82
2703	28315	He did not return to the game, and is listed as day to day.	He did not return to the game and is listed as day to day.	1354896	1471966276926	1471966277049	e	69
2703	28315	He did not return to the game, and is listed as day to day.	He did not return to the game and is listed as day to day.	1354901	1471966277272	1471966277386	t	84
2703	28315	He did not return to the game, and is listed as day to day.	He did not return to the game and is listed as day to day.	1355031	1471966277699	1471966277808	u	85
2703	28315	He did not return to the game, and is listed as day to day.	He did not return to the game and is listed as day to day.	1355034	1471966278029	1471966278184	r	82
2703	28315	He did not return to the game, and is listed as day to day.	He did not return to the game and is listed as day to day.	1355040	1471966278297	1471966278401	n	78
2703	28315	He did not return to the game, and is listed as day to day.	He did not return to the game and is listed as day to day.	1355043	1471966278479	1471966278582	 	32
2703	28315	He did not return to the game, and is listed as day to day.	He did not return to the game and is listed as day to day.	1355050	1471966278885	1471966279024	t	84
2703	28315	He did not return to the game, and is listed as day to day.	He did not return to the game and is listed as day to day.	1355158	1471966279127	1471966279241	o	79
2703	28315	He did not return to the game, and is listed as day to day.	He did not return to the game and is listed as day to day.	1355161	1471966279332	1471966279446	 	32
2703	28315	He did not return to the game, and is listed as day to day.	He did not return to the game and is listed as day to day.	1355164	1471966279624	1471966279724	t	84
2703	28315	He did not return to the game, and is listed as day to day.	He did not return to the game and is listed as day to day.	1355168	1471966279792	1471966279905	h	72
2703	28315	He did not return to the game, and is listed as day to day.	He did not return to the game and is listed as day to day.	1355174	1471966280062	1471966280212	e	69
2703	28315	He did not return to the game, and is listed as day to day.	He did not return to the game and is listed as day to day.	1355286	1471966280293	1471966280384	 	32
2703	28315	He did not return to the game, and is listed as day to day.	He did not return to the game and is listed as day to day.	1355292	1471966280683	1471966280788	g	71
2703	28315	He did not return to the game, and is listed as day to day.	He did not return to the game and is listed as day to day.	1355300	1471966280966	1471966281116	a	65
2703	28315	He did not return to the game, and is listed as day to day.	He did not return to the game and is listed as day to day.	1355307	1471966281203	1471966281293	m	77
2703	28315	He did not return to the game, and is listed as day to day.	He did not return to the game and is listed as day to day.	1355310	1471966281489	1471966281612	e	69
2703	28315	He did not return to the game, and is listed as day to day.	He did not return to the game and is listed as day to day.	1355438	1471966281827	1471966281926	 	32
2703	28315	He did not return to the game, and is listed as day to day.	He did not return to the game and is listed as day to day.	1355445	1471966282093	1471966282238	a	65
2703	28315	He did not return to the game, and is listed as day to day.	He did not return to the game and is listed as day to day.	1355452	1471966282455	1471966282554	n	78
2703	28315	He did not return to the game, and is listed as day to day.	He did not return to the game and is listed as day to day.	1355462	1471966282762	1471966282903	d	68
2703	28315	He did not return to the game, and is listed as day to day.	He did not return to the game and is listed as day to day.	1355466	1471966282952	1471966283052	 	32
2703	28315	He did not return to the game, and is listed as day to day.	He did not return to the game and is listed as day to day.	1355566	1471966283160	1471966283275	i	73
2703	28315	He did not return to the game, and is listed as day to day.	He did not return to the game and is listed as day to day.	1355574	1471966283417	1471966283559	s	83
2703	28315	He did not return to the game, and is listed as day to day.	He did not return to the game and is listed as day to day.	1355582	1471966283636	1471966283741	 	32
2703	28315	He did not return to the game, and is listed as day to day.	He did not return to the game and is listed as day to day.	1355591	1471966283968	1471966284073	l	76
2703	28315	He did not return to the game, and is listed as day to day.	He did not return to the game and is listed as day to day.	1355597	1471966284189	1471966284289	i	73
2703	28315	He did not return to the game, and is listed as day to day.	He did not return to the game and is listed as day to day.	1355716	1471966284452	1471966284584	s	83
2703	28315	He did not return to the game, and is listed as day to day.	He did not return to the game and is listed as day to day.	1355720	1471966284793	1471966284889	t	84
2703	28315	He did not return to the game, and is listed as day to day.	He did not return to the game and is listed as day to day.	1355725	1471966285111	1471966285201	e	87
2703	28315	He did not return to the game, and is listed as day to day.	He did not return to the game and is listed as day to day.	1355730	1471966285693	1471966285829	d	68
2703	28315	He did not return to the game, and is listed as day to day.	He did not return to the game and is listed as day to day.	1356068	1471966286831	1471966286914	BKSP	8
2703	28315	He did not return to the game, and is listed as day to day.	He did not return to the game and is listed as day to day.	1356073	1471966286951	1471966287046	BKSP	8
2703	28315	He did not return to the game, and is listed as day to day.	He did not return to the game and is listed as day to day.	1356077	1471966287656	1471966287699	\	220
2703	28315	He did not return to the game, and is listed as day to day.	He did not return to the game and is listed as day to day.	1356082	1471966287666	1471966287722	BKSP	8
2703	28315	He did not return to the game, and is listed as day to day.	He did not return to the game and is listed as day to day.	1356086	1471966288567	1471966288649	BKSP	8
2703	28315	He did not return to the game, and is listed as day to day.	He did not return to the game and is listed as day to day.	1356090	1471966289573	1471966289684	e	69
2703	28315	He did not return to the game, and is listed as day to day.	He did not return to the game and is listed as day to day.	1356095	1471966289774	1471966289888	d	68
2703	28315	He did not return to the game, and is listed as day to day.	He did not return to the game and is listed as day to day.	1356101	1471966289986	1471966290097	 	32
2703	28315	He did not return to the game, and is listed as day to day.	He did not return to the game and is listed as day to day.	1356109	1471966290187	1471966290337	a	65
2703	28315	He did not return to the game, and is listed as day to day.	He did not return to the game and is listed as day to day.	1356186	1471966290406	1471966290515	s	83
2703	28315	He did not return to the game, and is listed as day to day.	He did not return to the game and is listed as day to day.	1356195	1471966290605	1471966290715	 	32
2703	28315	He did not return to the game, and is listed as day to day.	He did not return to the game and is listed as day to day.	1356204	1471966290848	1471966290979	d	68
2703	28315	He did not return to the game, and is listed as day to day.	He did not return to the game and is listed as day to day.	1356211	1471966291184	1471966291326	a	65
2703	28315	He did not return to the game, and is listed as day to day.	He did not return to the game and is listed as day to day.	1356216	1471966291585	1471966291685	y	89
2703	28315	He did not return to the game, and is listed as day to day.	He did not return to the game and is listed as day to day.	1356307	1471966291796	1471966291912	 	32
2703	28315	He did not return to the game, and is listed as day to day.	He did not return to the game and is listed as day to day.	1356309	1471966291977	1471966292122	t	84
2703	28315	He did not return to the game, and is listed as day to day.	He did not return to the game and is listed as day to day.	1356318	1471966292196	1471966292306	o	79
2703	28315	He did not return to the game, and is listed as day to day.	He did not return to the game and is listed as day to day.	1356324	1471966292412	1471966292527	 	32
2703	28315	He did not return to the game, and is listed as day to day.	He did not return to the game and is listed as day to day.	1356331	1471966292699	1471966292813	d	68
2703	28315	He did not return to the game, and is listed as day to day.	He did not return to the game and is listed as day to day.	1356469	1471966292901	1471966293069	a	65
2703	28315	He did not return to the game, and is listed as day to day.	He did not return to the game and is listed as day to day.	1356478	1471966293099	1471966293204	y	89
2703	28315	He did not return to the game, and is listed as day to day.	He did not return to the game and is listed as day to day.	1356483	1471966293897	1471966293997	.	190
2703	28393	I hope you went.	I hope you went.	1356964	1471966297868	1471966298189	SHIFT	16
2703	28393	I hope you went.	I hope you went.	1356967	1471966298125	1471966298216	I	73
2703	28393	I hope you went.	I hope you went.	1356971	1471966298344	1471966298461	 	32
2703	28393	I hope you went.	I hope you went.	1356979	1471966298716	1471966298821	h	72
2703	28393	I hope you went.	I hope you went.	1356987	1471966299071	1471966299161	o	79
2703	28393	I hope you went.	I hope you went.	1356994	1471966299379	1471966299480	p	80
2703	28393	I hope you went.	I hope you went.	1357268	1471966299717	1471966299812	w	87
2703	28393	I hope you went.	I hope you went.	1357271	1471966301206	1471966301287	BKSP	8
2703	28393	I hope you went.	I hope you went.	1357275	1471966301524	1471966301645	e	69
2703	28393	I hope you went.	I hope you went.	1357280	1471966301755	1471966301846	 	32
2703	28393	I hope you went.	I hope you went.	1357286	1471966302241	1471966302349	y	89
2703	28393	I hope you went.	I hope you went.	1357291	1471966302492	1471966302620	o	79
2703	28393	I hope you went.	I hope you went.	1357365	1471966302692	1471966302797	u	85
2703	28393	I hope you went.	I hope you went.	1357370	1471966302926	1471966303045	 	32
2703	28393	I hope you went.	I hope you went.	1357376	1471966303214	1471966303364	w	87
2703	28393	I hope you went.	I hope you went.	1357380	1471966303448	1471966303557	e	69
2703	28393	I hope you went.	I hope you went.	1357388	1471966303732	1471966303840	n	78
2703	28393	I hope you went.	I hope you went.	1357488	1471966304055	1471966304164	t	84
2703	28393	I hope you went.	I hope you went.	1357494	1471966305217	1471966305300	.	190
2703	28411	This method can be used on individual folders as well.	This method can be used on individual folders as well.	1358128	1471966311603	1471966312192	SHIFT	16
2703	28411	This method can be used on individual folders as well.	This method can be used on individual folders as well.	1358122	1471966312056	1471966312173	T	84
2703	28411	This method can be used on individual folders as well.	This method can be used on individual folders as well.	1358132	1471966312266	1471966312370	h	72
2703	28411	This method can be used on individual folders as well.	This method can be used on individual folders as well.	1358137	1471966312624	1471966312719	i	73
2703	28411	This method can be used on individual folders as well.	This method can be used on individual folders as well.	1358143	1471966312877	1471966313013	s	83
2703	28411	This method can be used on individual folders as well.	This method can be used on individual folders as well.	1358150	1471966313082	1471966313181	 	32
2703	28411	This method can be used on individual folders as well.	This method can be used on individual folders as well.	1358293	1471966313317	1471966313427	m	77
2703	28411	This method can be used on individual folders as well.	This method can be used on individual folders as well.	1358298	1471966313551	1471966313701	e	69
2703	28411	This method can be used on individual folders as well.	This method can be used on individual folders as well.	1358303	1471966313906	1471966314038	t	84
2703	28411	This method can be used on individual folders as well.	This method can be used on individual folders as well.	1358307	1471966314383	1471966314518	h	72
2703	28411	This method can be used on individual folders as well.	This method can be used on individual folders as well.	1358310	1471966314658	1471966314785	o	79
2703	28411	This method can be used on individual folders as well.	This method can be used on individual folders as well.	1358406	1471966315099	1471966315254	d	68
2703	28411	This method can be used on individual folders as well.	This method can be used on individual folders as well.	1358408	1471966315308	1471966315403	 	32
2703	28411	This method can be used on individual folders as well.	This method can be used on individual folders as well.	1358412	1471966315680	1471966315785	c	67
2703	28411	This method can be used on individual folders as well.	This method can be used on individual folders as well.	1358416	1471966315898	1471966316071	a	65
2703	28411	This method can be used on individual folders as well.	This method can be used on individual folders as well.	1358421	1471966316167	1471966316245	n	78
2703	28411	This method can be used on individual folders as well.	This method can be used on individual folders as well.	1358649	1471966316336	1471966316428	 	32
2703	28411	This method can be used on individual folders as well.	This method can be used on individual folders as well.	1358652	1471966316759	1471966316852	b	66
2703	28411	This method can be used on individual folders as well.	This method can be used on individual folders as well.	1358655	1471966317021	1471966317144	e	69
2703	28411	This method can be used on individual folders as well.	This method can be used on individual folders as well.	1358662	1471966317307	1471966317402	 	32
2703	28411	This method can be used on individual folders as well.	This method can be used on individual folders as well.	1358672	1471966319471	1471966319558	u	85
2703	28411	This method can be used on individual folders as well.	This method can be used on individual folders as well.	1358873	1471966320288	1471966320425	s	83
2703	28411	This method can be used on individual folders as well.	This method can be used on individual folders as well.	1358878	1471966320524	1471966320627	e	69
2703	28411	This method can be used on individual folders as well.	This method can be used on individual folders as well.	1358884	1471966320718	1471966320823	d	68
2703	28411	This method can be used on individual folders as well.	This method can be used on individual folders as well.	1358886	1471966320935	1471966321022	 	32
2703	28411	This method can be used on individual folders as well.	This method can be used on individual folders as well.	1358892	1471966321886	1471966322008	o	79
2703	28411	This method can be used on individual folders as well.	This method can be used on individual folders as well.	1358943	1471966322093	1471966322189	n	78
2703	28411	This method can be used on individual folders as well.	This method can be used on individual folders as well.	1358947	1471966322255	1471966322377	 	32
2703	28411	This method can be used on individual folders as well.	This method can be used on individual folders as well.	1358953	1471966322498	1471966322629	i	73
2703	28411	This method can be used on individual folders as well.	This method can be used on individual folders as well.	1358961	1471966322697	1471966322810	n	78
2703	28411	This method can be used on individual folders as well.	This method can be used on individual folders as well.	1358969	1471966323070	1471966323211	d	68
2703	28411	This method can be used on individual folders as well.	This method can be used on individual folders as well.	1359071	1471966323385	1471966323503	i	73
2703	28411	This method can be used on individual folders as well.	This method can be used on individual folders as well.	1359076	1471966323745	1471966323845	v	86
2703	28411	This method can be used on individual folders as well.	This method can be used on individual folders as well.	1359081	1471966324127	1471966324221	i	73
2703	28411	This method can be used on individual folders as well.	This method can be used on individual folders as well.	1359086	1471966324487	1471966324628	d	68
2703	28411	This method can be used on individual folders as well.	This method can be used on individual folders as well.	1359092	1471966324777	1471966324882	u	85
2703	28411	This method can be used on individual folders as well.	This method can be used on individual folders as well.	1359156	1471966325007	1471966325179	a	65
2703	28411	This method can be used on individual folders as well.	This method can be used on individual folders as well.	1359161	1471966325244	1471966325340	l	76
2703	28411	This method can be used on individual folders as well.	This method can be used on individual folders as well.	1359170	1471966325446	1471966325559	 	32
2703	28411	This method can be used on individual folders as well.	This method can be used on individual folders as well.	1359177	1471966325730	1471966325881	f	70
2703	28411	This method can be used on individual folders as well.	This method can be used on individual folders as well.	1359181	1471966325954	1471966326056	o	79
2703	28411	This method can be used on individual folders as well.	This method can be used on individual folders as well.	1359271	1471966326132	1471966326245	l	76
2703	28411	This method can be used on individual folders as well.	This method can be used on individual folders as well.	1359276	1471966326501	1471966326633	d	68
2703	28411	This method can be used on individual folders as well.	This method can be used on individual folders as well.	1359285	1471966326752	1471966326875	e	69
2703	28411	This method can be used on individual folders as well.	This method can be used on individual folders as well.	1359296	1471966326993	1471966327089	r	82
2703	28411	This method can be used on individual folders as well.	This method can be used on individual folders as well.	1359304	1471966327260	1471966327405	s	83
2703	28411	This method can be used on individual folders as well.	This method can be used on individual folders as well.	1359465	1471966327518	1471966327608	 	32
2703	28411	This method can be used on individual folders as well.	This method can be used on individual folders as well.	1359466	1471966327681	1471966327822	a	65
2703	28411	This method can be used on individual folders as well.	This method can be used on individual folders as well.	1359468	1471966327930	1471966328013	 	32
2703	28411	This method can be used on individual folders as well.	This method can be used on individual folders as well.	1359470	1471966328760	1471966328854	BKSP	8
2703	28411	This method can be used on individual folders as well.	This method can be used on individual folders as well.	1359474	1471966329496	1471966329619	s	83
2703	28411	This method can be used on individual folders as well.	This method can be used on individual folders as well.	1359478	1471966329718	1471966329801	 	32
2703	28411	This method can be used on individual folders as well.	This method can be used on individual folders as well.	1359611	1471966329933	1471966330074	w	87
2703	28411	This method can be used on individual folders as well.	This method can be used on individual folders as well.	1359617	1471966330147	1471966330265	e	69
2703	28411	This method can be used on individual folders as well.	This method can be used on individual folders as well.	1359623	1471966330448	1471966330658	l	76
2703	28411	This method can be used on individual folders as well.	This method can be used on individual folders as well.	1359628	1471966331008	1471966331095	l	76
2703	28411	This method can be used on individual folders as well.	This method can be used on individual folders as well.	1359631	1471966331964	1471966332028	.	190
2703	28456	Did you see Laura's message.?	Did you see Laura's message.?	1360252	1471966338822	1471966339293	SHIFT	16
2703	28456	Did you see Laura's message.?	Did you see Laura's message.?	1360250	1471966339170	1471966339271	D	68
2703	28456	Did you see Laura's message.?	Did you see Laura's message.?	1360258	1471966339666	1471966339762	i	73
2703	28456	Did you see Laura's message.?	Did you see Laura's message.?	1360263	1471966339984	1471966340131	d	68
2703	28456	Did you see Laura's message.?	Did you see Laura's message.?	1360269	1471966340410	1471966340507	 	32
2703	28456	Did you see Laura's message.?	Did you see Laura's message.?	1360274	1471966341163	1471966341303	y	89
2703	28456	Did you see Laura's message.?	Did you see Laura's message.?	1360327	1471966341330	1471966341459	o	79
2703	28456	Did you see Laura's message.?	Did you see Laura's message.?	1360332	1471966341525	1471966341657	u	85
2703	28456	Did you see Laura's message.?	Did you see Laura's message.?	1360336	1471966341794	1471966341908	 	32
2703	28456	Did you see Laura's message.?	Did you see Laura's message.?	1360342	1471966341992	1471966342137	s	83
2703	28456	Did you see Laura's message.?	Did you see Laura's message.?	1360346	1471966342274	1471966342379	e	69
2703	28456	Did you see Laura's message.?	Did you see Laura's message.?	1360490	1471966342421	1471966342485	e	69
2703	28456	Did you see Laura's message.?	Did you see Laura's message.?	1360495	1471966342612	1471966342702	 	32
2703	28456	Did you see Laura's message.?	Did you see Laura's message.?	1360502	1471966343024	1471966343414	SHIFT	16
2703	28456	Did you see Laura's message.?	Did you see Laura's message.?	1360508	1471966343355	1471966343450	L	76
2703	28456	Did you see Laura's message.?	Did you see Laura's message.?	1360517	1471966343617	1471966343753	a	65
2703	28456	Did you see Laura's message.?	Did you see Laura's message.?	1360527	1471966343971	1471966344065	u	85
2703	28456	Did you see Laura's message.?	Did you see Laura's message.?	1360665	1471966344423	1471966344521	r	82
2703	28456	Did you see Laura's message.?	Did you see Laura's message.?	1360671	1471966344712	1471966344853	a	65
2703	28456	Did you see Laura's message.?	Did you see Laura's message.?	1360677	1471966345305	1471966345396	'	222
2703	28456	Did you see Laura's message.?	Did you see Laura's message.?	1360684	1471966345594	1471966345717	s	83
2703	28456	Did you see Laura's message.?	Did you see Laura's message.?	1360692	1471966345808	1471966345908	 	32
2703	28456	Did you see Laura's message.?	Did you see Laura's message.?	1360901	1471966347329	1471966347425	m	77
2703	28456	Did you see Laura's message.?	Did you see Laura's message.?	1360907	1471966347666	1471966347785	e	69
2703	28456	Did you see Laura's message.?	Did you see Laura's message.?	1360914	1471966348015	1471966348110	s	83
2703	28456	Did you see Laura's message.?	Did you see Laura's message.?	1360917	1471966348189	1471966348298	s	83
2703	28456	Did you see Laura's message.?	Did you see Laura's message.?	1360923	1471966348435	1471966348581	a	65
2703	28456	Did you see Laura's message.?	Did you see Laura's message.?	1361163	1471966349044	1471966349135	h	72
2703	28456	Did you see Laura's message.?	Did you see Laura's message.?	1361168	1471966349884	1471966349980	BKSP	8
2703	28456	Did you see Laura's message.?	Did you see Laura's message.?	1361172	1471966350376	1471966350467	g	71
2703	28456	Did you see Laura's message.?	Did you see Laura's message.?	1361179	1471966350576	1471966350714	e	69
2703	28456	Did you see Laura's message.?	Did you see Laura's message.?	1361185	1471966351226	1471966351327	.	190
2703	28456	Did you see Laura's message.?	Did you see Laura's message.?	1361195	1471966352133	1471966352432	SHIFT	16
2703	28456	Did you see Laura's message.?	Did you see Laura's message.?	1361206	1471966352363	1471966352450	?	191
2703	28487	I wonder if RBS is another institution which could move quickly.	I wonder if RBS is another institution which could move quickly.	1362387	1471966366838	1471966367341	SHIFT	16
2703	28487	I wonder if RBS is another institution which could move quickly.	I wonder if RBS is another institution which could move quickly.	1362379	1471966367195	1471966367313	I	73
2703	28487	I wonder if RBS is another institution which could move quickly.	I wonder if RBS is another institution which could move quickly.	1362391	1471966367442	1471966367550	 	32
2703	28487	I wonder if RBS is another institution which could move quickly.	I wonder if RBS is another institution which could move quickly.	1362397	1471966367869	1471966368028	w	87
2703	28487	I wonder if RBS is another institution which could move quickly.	I wonder if RBS is another institution which could move quickly.	1362403	1471966368146	1471966368263	o	79
2703	28487	I wonder if RBS is another institution which could move quickly.	I wonder if RBS is another institution which could move quickly.	1362410	1471966368454	1471966368536	n	78
2703	28487	I wonder if RBS is another institution which could move quickly.	I wonder if RBS is another institution which could move quickly.	1362550	1471966369386	1471966369516	d	68
2703	28487	I wonder if RBS is another institution which could move quickly.	I wonder if RBS is another institution which could move quickly.	1362554	1471966369605	1471966369737	e	69
2703	28487	I wonder if RBS is another institution which could move quickly.	I wonder if RBS is another institution which could move quickly.	1362561	1471966369808	1471966369922	r	82
2703	28487	I wonder if RBS is another institution which could move quickly.	I wonder if RBS is another institution which could move quickly.	1362571	1471966370045	1471966370133	 	32
2703	28487	I wonder if RBS is another institution which could move quickly.	I wonder if RBS is another institution which could move quickly.	1362581	1471966370806	1471966370910	i	73
2703	28487	I wonder if RBS is another institution which could move quickly.	I wonder if RBS is another institution which could move quickly.	1362793	1471966371194	1471966371290	d	68
2703	28487	I wonder if RBS is another institution which could move quickly.	I wonder if RBS is another institution which could move quickly.	1362796	1471966372038	1471966372129	BKSP	8
2703	28487	I wonder if RBS is another institution which could move quickly.	I wonder if RBS is another institution which could move quickly.	1362801	1471966372275	1471966372415	f	70
2703	28487	I wonder if RBS is another institution which could move quickly.	I wonder if RBS is another institution which could move quickly.	1362809	1471966372995	1471966373078	 	32
2703	28487	I wonder if RBS is another institution which could move quickly.	I wonder if RBS is another institution which could move quickly.	1362857	1471966373373	1471966374668	SHIFT	16
2703	28487	I wonder if RBS is another institution which could move quickly.	I wonder if RBS is another institution which could move quickly.	1362814	1471966373681	1471966373782	R	82
2703	28487	I wonder if RBS is another institution which could move quickly.	I wonder if RBS is another institution which could move quickly.	1362819	1471966374089	1471966374194	B	66
2703	28487	I wonder if RBS is another institution which could move quickly.	I wonder if RBS is another institution which could move quickly.	1362855	1471966374403	1471966374497	S	83
2703	28487	I wonder if RBS is another institution which could move quickly.	I wonder if RBS is another institution which could move quickly.	1362861	1471966374632	1471966374732	 	32
2703	28487	I wonder if RBS is another institution which could move quickly.	I wonder if RBS is another institution which could move quickly.	1362868	1471966374983	1471966375092	i	73
2703	28487	I wonder if RBS is another institution which could move quickly.	I wonder if RBS is another institution which could move quickly.	1362876	1471966375274	1471966375413	s	83
2703	28487	I wonder if RBS is another institution which could move quickly.	I wonder if RBS is another institution which could move quickly.	1362887	1471966375479	1471966375583	 	32
2703	28487	I wonder if RBS is another institution which could move quickly.	I wonder if RBS is another institution which could move quickly.	1362969	1471966375657	1471966375812	a	65
2703	28487	I wonder if RBS is another institution which could move quickly.	I wonder if RBS is another institution which could move quickly.	1362972	1471966375878	1471966375983	n	78
2703	28487	I wonder if RBS is another institution which could move quickly.	I wonder if RBS is another institution which could move quickly.	1362977	1471966376486	1471966376592	o	79
2703	28487	I wonder if RBS is another institution which could move quickly.	I wonder if RBS is another institution which could move quickly.	1362979	1471966376809	1471966376932	t	84
2703	28487	I wonder if RBS is another institution which could move quickly.	I wonder if RBS is another institution which could move quickly.	1362982	1471966376964	1471966377069	h	72
2703	28487	I wonder if RBS is another institution which could move quickly.	I wonder if RBS is another institution which could move quickly.	1363025	1471966377394	1471966377526	e	69
2703	28487	I wonder if RBS is another institution which could move quickly.	I wonder if RBS is another institution which could move quickly.	1363029	1471966377607	1471966377735	r	82
2703	28487	I wonder if RBS is another institution which could move quickly.	I wonder if RBS is another institution which could move quickly.	1363032	1471966377861	1471966377965	 	32
2703	28487	I wonder if RBS is another institution which could move quickly.	I wonder if RBS is another institution which could move quickly.	1363036	1471966378090	1471966378217	i	73
2703	28487	I wonder if RBS is another institution which could move quickly.	I wonder if RBS is another institution which could move quickly.	1363038	1471966378296	1471966378397	n	78
2703	28487	I wonder if RBS is another institution which could move quickly.	I wonder if RBS is another institution which could move quickly.	1363184	1471966378573	1471966378714	s	83
2703	28487	I wonder if RBS is another institution which could move quickly.	I wonder if RBS is another institution which could move quickly.	1363189	1471966379093	1471966379212	t	84
2703	28487	I wonder if RBS is another institution which could move quickly.	I wonder if RBS is another institution which could move quickly.	1363195	1471966379475	1471966379566	i	73
2703	28487	I wonder if RBS is another institution which could move quickly.	I wonder if RBS is another institution which could move quickly.	1363200	1471966379793	1471966379916	t	84
2703	28487	I wonder if RBS is another institution which could move quickly.	I wonder if RBS is another institution which could move quickly.	1363209	1471966380296	1471966380396	u	85
2703	28487	I wonder if RBS is another institution which could move quickly.	I wonder if RBS is another institution which could move quickly.	1363309	1471966380844	1471966380958	t	84
2703	28487	I wonder if RBS is another institution which could move quickly.	I wonder if RBS is another institution which could move quickly.	1363312	1471966381349	1471966381436	i	73
2703	28487	I wonder if RBS is another institution which could move quickly.	I wonder if RBS is another institution which could move quickly.	1363317	1471966381512	1471966381617	o	79
2703	28487	I wonder if RBS is another institution which could move quickly.	I wonder if RBS is another institution which could move quickly.	1363322	1471966381736	1471966381840	n	78
2703	28487	I wonder if RBS is another institution which could move quickly.	I wonder if RBS is another institution which could move quickly.	1363326	1471966381932	1471966382019	 	32
2703	28487	I wonder if RBS is another institution which could move quickly.	I wonder if RBS is another institution which could move quickly.	1363477	1471966382990	1471966383132	w	87
2703	28487	I wonder if RBS is another institution which could move quickly.	I wonder if RBS is another institution which could move quickly.	1363482	1471966383304	1471966383386	h	72
2703	28487	I wonder if RBS is another institution which could move quickly.	I wonder if RBS is another institution which could move quickly.	1363486	1471966383838	1471966383940	i	73
2703	28487	I wonder if RBS is another institution which could move quickly.	I wonder if RBS is another institution which could move quickly.	1363493	1471966384298	1471966384434	c	67
2703	28487	I wonder if RBS is another institution which could move quickly.	I wonder if RBS is another institution which could move quickly.	1363496	1471966384554	1471966384659	h	72
2703	28487	I wonder if RBS is another institution which could move quickly.	I wonder if RBS is another institution which could move quickly.	1363584	1471966384767	1471966384882	 	32
2703	28487	I wonder if RBS is another institution which could move quickly.	I wonder if RBS is another institution which could move quickly.	1363588	1471966385610	1471966385757	c	67
2703	28487	I wonder if RBS is another institution which could move quickly.	I wonder if RBS is another institution which could move quickly.	1363590	1471966385901	1471966386024	o	79
2703	28487	I wonder if RBS is another institution which could move quickly.	I wonder if RBS is another institution which could move quickly.	1363592	1471966386134	1471966386252	u	85
2703	28487	I wonder if RBS is another institution which could move quickly.	I wonder if RBS is another institution which could move quickly.	1363595	1471966386401	1471966386506	l	76
2703	28487	I wonder if RBS is another institution which could move quickly.	I wonder if RBS is another institution which could move quickly.	1363675	1471966386681	1471966386831	d	68
2703	28487	I wonder if RBS is another institution which could move quickly.	I wonder if RBS is another institution which could move quickly.	1363678	1471966386902	1471966387002	 	32
2703	28487	I wonder if RBS is another institution which could move quickly.	I wonder if RBS is another institution which could move quickly.	1363680	1471966387231	1471966387327	m	77
2703	28487	I wonder if RBS is another institution which could move quickly.	I wonder if RBS is another institution which could move quickly.	1363682	1471966387462	1471966387581	o	79
2703	28487	I wonder if RBS is another institution which could move quickly.	I wonder if RBS is another institution which could move quickly.	1363686	1471966387770	1471966387874	v	86
2703	28487	I wonder if RBS is another institution which could move quickly.	I wonder if RBS is another institution which could move quickly.	1363772	1471966388027	1471966388168	e	69
2703	28487	I wonder if RBS is another institution which could move quickly.	I wonder if RBS is another institution which could move quickly.	1363776	1471966388263	1471966388341	 	32
2703	28487	I wonder if RBS is another institution which could move quickly.	I wonder if RBS is another institution which could move quickly.	1363780	1471966389074	1471966389218	q	81
2703	28487	I wonder if RBS is another institution which could move quickly.	I wonder if RBS is another institution which could move quickly.	1363783	1471966389345	1471966389446	u	85
2703	28487	I wonder if RBS is another institution which could move quickly.	I wonder if RBS is another institution which could move quickly.	1363786	1471966389526	1471966389645	i	73
2703	28487	I wonder if RBS is another institution which could move quickly.	I wonder if RBS is another institution which could move quickly.	1363931	1471966389906	1471966389994	c	67
2703	28487	I wonder if RBS is another institution which could move quickly.	I wonder if RBS is another institution which could move quickly.	1363937	1471966390402	1471966390479	k	75
2703	28487	I wonder if RBS is another institution which could move quickly.	I wonder if RBS is another institution which could move quickly.	1363944	1471966390619	1471966390720	l	76
2703	28487	I wonder if RBS is another institution which could move quickly.	I wonder if RBS is another institution which could move quickly.	1363951	1471966391175	1471966391276	y	89
2703	28487	I wonder if RBS is another institution which could move quickly.	I wonder if RBS is another institution which could move quickly.	1363958	1471966392437	1471966392520	.	190
2703	28544	I am all over it.	I am all over it.	1364442	1471966397219	1471966397708	SHIFT	16
2703	28544	I am all over it.	I am all over it.	1364439	1471966397481	1471966397604	I	73
2703	28544	I am all over it.	I am all over it.	1364445	1471966398792	1471966398874	 	32
2703	28544	I am all over it.	I am all over it.	1364448	1471966399118	1471966399277	a	65
2703	28544	I am all over it.	I am all over it.	1364450	1471966399344	1471966399425	m	77
2703	28544	I am all over it.	I am all over it.	1364455	1471966399506	1471966399602	 	32
2703	28544	I am all over it.	I am all over it.	1364558	1471966399730	1471966399871	a	65
2703	28544	I am all over it.	I am all over it.	1364561	1471966400003	1471966400080	l	76
2703	28544	I am all over it.	I am all over it.	1364565	1471966400101	1471966400174	l	76
2703	28544	I am all over it.	I am all over it.	1364570	1471966401157	1471966401261	 	32
2703	28544	I am all over it.	I am all over it.	1364577	1471966401668	1471966401771	o	79
2703	28544	I am all over it.	I am all over it.	1364646	1471966402242	1471966402355	v	86
2703	28544	I am all over it.	I am all over it.	1364653	1471966402494	1471966402650	e	69
2703	28544	I am all over it.	I am all over it.	1364659	1471966402671	1471966402774	r	82
2703	28544	I am all over it.	I am all over it.	1364668	1471966402865	1471966402991	 	32
2703	28544	I am all over it.	I am all over it.	1364673	1471966403163	1471966403292	i	73
2703	28544	I am all over it.	I am all over it.	1364724	1471966403494	1471966403652	t	84
2703	28544	I am all over it.	I am all over it.	1364726	1471966403905	1471966403996	.	190
