PARTICIPANT_ID	TEST_SECTION_ID	SENTENCE	USER_INPUT	KEYSTROKE_ID	PRESS_TIME	RELEASE_TIME	LETTER	KEYCODE
2834	29741	Miller might have to wait until Sunday.	Miller might have to wait until Sunday.	1420968	1471967207291	1471967207458	SHIFT	16
2834	29741	Miller might have to wait until Sunday.	Miller might have to wait until Sunday.	1420973	1471967207377	1471967207498	M	77
2834	29741	Miller might have to wait until Sunday.	Miller might have to wait until Sunday.	1420977	1471967207534	1471967207615	i	73
2834	29741	Miller might have to wait until Sunday.	Miller might have to wait until Sunday.	1420980	1471967207728	1471967207785	l	76
2834	29741	Miller might have to wait until Sunday.	Miller might have to wait until Sunday.	1420982	1471967207860	1471967207983	l	76
2834	29741	Miller might have to wait until Sunday.	Miller might have to wait until Sunday.	1421017	1471967207975	1471967208067	e	69
2834	29741	Miller might have to wait until Sunday.	Miller might have to wait until Sunday.	1421024	1471967208024	1471967208154	r	82
2834	29741	Miller might have to wait until Sunday.	Miller might have to wait until Sunday.	1421031	1471967208190	1471967208233	 	32
2834	29741	Miller might have to wait until Sunday.	Miller might have to wait until Sunday.	1421036	1471967208384	1471967208464	m	77
2834	29741	Miller might have to wait until Sunday.	Miller might have to wait until Sunday.	1421040	1471967208513	1471967208637	i	73
2834	29741	Miller might have to wait until Sunday.	Miller might have to wait until Sunday.	1421072	1471967208629	1471967208711	g	71
2834	29741	Miller might have to wait until Sunday.	Miller might have to wait until Sunday.	1421080	1471967208714	1471967208832	h	72
2834	29741	Miller might have to wait until Sunday.	Miller might have to wait until Sunday.	1421088	1471967208825	1471967208908	t	84
2834	29741	Miller might have to wait until Sunday.	Miller might have to wait until Sunday.	1421096	1471967208866	1471967208948	 	32
2834	29741	Miller might have to wait until Sunday.	Miller might have to wait until Sunday.	1421105	1471967209023	1471967209107	h	72
2834	29741	Miller might have to wait until Sunday.	Miller might have to wait until Sunday.	1421154	1471967209100	1471967209260	a	65
2834	29741	Miller might have to wait until Sunday.	Miller might have to wait until Sunday.	1421161	1471967209217	1471967209338	v	86
2834	29741	Miller might have to wait until Sunday.	Miller might have to wait until Sunday.	1421169	1471967209413	1471967209494	e	69
2834	29741	Miller might have to wait until Sunday.	Miller might have to wait until Sunday.	1421174	1471967209452	1471967209534	 	32
2834	29741	Miller might have to wait until Sunday.	Miller might have to wait until Sunday.	1421178	1471967209571	1471967209690	t	84
2834	29741	Miller might have to wait until Sunday.	Miller might have to wait until Sunday.	1421250	1471967209610	1471967209730	o	79
2834	29741	Miller might have to wait until Sunday.	Miller might have to wait until Sunday.	1421253	1471967209733	1471967209810	 	32
2834	29741	Miller might have to wait until Sunday.	Miller might have to wait until Sunday.	1421258	1471967209961	1471967210042	w	87
2834	29741	Miller might have to wait until Sunday.	Miller might have to wait until Sunday.	1421265	1471967210116	1471967210235	a	65
2834	29741	Miller might have to wait until Sunday.	Miller might have to wait until Sunday.	1421275	1471967210155	1471967210276	i	73
2834	29741	Miller might have to wait until Sunday.	Miller might have to wait until Sunday.	1421283	1471967210541	1471967210622	t	84
2834	29741	Miller might have to wait until Sunday.	Miller might have to wait until Sunday.	1421383	1471967210658	1471967210739	 	32
2834	29741	Miller might have to wait until Sunday.	Miller might have to wait until Sunday.	1421388	1471967210890	1471967210971	u	85
2834	29741	Miller might have to wait until Sunday.	Miller might have to wait until Sunday.	1421393	1471967211045	1471967211164	n	78
2834	29741	Miller might have to wait until Sunday.	Miller might have to wait until Sunday.	1421398	1471967211239	1471967211320	t	84
2834	29741	Miller might have to wait until Sunday.	Miller might have to wait until Sunday.	1421403	1471967211356	1471967211399	i	73
2834	29741	Miller might have to wait until Sunday.	Miller might have to wait until Sunday.	1421456	1471967211511	1471967211630	l	76
2834	29741	Miller might have to wait until Sunday.	Miller might have to wait until Sunday.	1421460	1471967211633	1471967211709	 	32
2834	29741	Miller might have to wait until Sunday.	Miller might have to wait until Sunday.	1421467	1471967211746	1471967211903	SHIFT	16
2834	29741	Miller might have to wait until Sunday.	Miller might have to wait until Sunday.	1421473	1471967211863	1471967211981	S	83
2834	29741	Miller might have to wait until Sunday.	Miller might have to wait until Sunday.	1421478	1471967211984	1471967212061	u	85
2834	29741	Miller might have to wait until Sunday.	Miller might have to wait until Sunday.	1421483	1471967212136	1471967212255	n	78
2834	29741	Miller might have to wait until Sunday.	Miller might have to wait until Sunday.	1421504	1471967212212	1471967212294	d	68
2834	29741	Miller might have to wait until Sunday.	Miller might have to wait until Sunday.	1421512	1471967212332	1471967212527	a	65
2834	29741	Miller might have to wait until Sunday.	Miller might have to wait until Sunday.	1421520	1471967212447	1471967212568	y	89
2834	29741	Miller might have to wait until Sunday.	Miller might have to wait until Sunday.	1421526	1471967212643	1471967212761	.	190
2834	29759	US President Bill Clinton favours lifting the embargo.	US President Bill Clinton favours lifting the embargo.	1422179	1471967217937	1471967218485	SHIFT	16
2834	29759	US President Bill Clinton favours lifting the embargo.	US President Bill Clinton favours lifting the embargo.	1422165	1471967218204	1471967218326	U	85
2834	29759	US President Bill Clinton favours lifting the embargo.	US President Bill Clinton favours lifting the embargo.	1422172	1471967218319	1471967218479	S	83
2834	29759	US President Bill Clinton favours lifting the embargo.	US President Bill Clinton favours lifting the embargo.	1422188	1471967218517	1471967218598	 	32
2834	29759	US President Bill Clinton favours lifting the embargo.	US President Bill Clinton favours lifting the embargo.	1422203	1471967218711	1471967218968	SHIFT	16
2834	29759	US President Bill Clinton favours lifting the embargo.	US President Bill Clinton favours lifting the embargo.	1422196	1471967218843	1471967218963	P	80
2834	29759	US President Bill Clinton favours lifting the embargo.	US President Bill Clinton favours lifting the embargo.	1422210	1471967219077	1471967219196	r	82
2834	29759	US President Bill Clinton favours lifting the embargo.	US President Bill Clinton favours lifting the embargo.	1422256	1471967219233	1471967219313	e	69
2834	29759	US President Bill Clinton favours lifting the embargo.	US President Bill Clinton favours lifting the embargo.	1422259	1471967219579	1471967219698	s	83
2834	29759	US President Bill Clinton favours lifting the embargo.	US President Bill Clinton favours lifting the embargo.	1422262	1471967219746	1471967219870	i	73
2834	29759	US President Bill Clinton favours lifting the embargo.	US President Bill Clinton favours lifting the embargo.	1422267	1471967219862	1471967219944	d	68
2834	29759	US President Bill Clinton favours lifting the embargo.	US President Bill Clinton favours lifting the embargo.	1422271	1471967220057	1471967220176	e	69
2834	29759	US President Bill Clinton favours lifting the embargo.	US President Bill Clinton favours lifting the embargo.	1422307	1471967220213	1471967220293	n	78
2834	29759	US President Bill Clinton favours lifting the embargo.	US President Bill Clinton favours lifting the embargo.	1422310	1471967220330	1471967220381	t	84
2834	29759	US President Bill Clinton favours lifting the embargo.	US President Bill Clinton favours lifting the embargo.	1422313	1471967220455	1471967220517	 	32
2834	29759	US President Bill Clinton favours lifting the embargo.	US President Bill Clinton favours lifting the embargo.	1422316	1471967220591	1471967220787	SHIFT	16
2834	29759	US President Bill Clinton favours lifting the embargo.	US President Bill Clinton favours lifting the embargo.	1422320	1471967220745	1471967220827	B	66
2834	29759	US President Bill Clinton favours lifting the embargo.	US President Bill Clinton favours lifting the embargo.	1422324	1471967220940	1471967221021	i	73
2834	29759	US President Bill Clinton favours lifting the embargo.	US President Bill Clinton favours lifting the embargo.	1422365	1471967221096	1471967221176	l	76
2834	29759	US President Bill Clinton favours lifting the embargo.	US President Bill Clinton favours lifting the embargo.	1422368	1471967221251	1471967221370	l	76
2834	29759	US President Bill Clinton favours lifting the embargo.	US President Bill Clinton favours lifting the embargo.	1422373	1471967221406	1471967221449	 	32
2834	29759	US President Bill Clinton favours lifting the embargo.	US President Bill Clinton favours lifting the embargo.	1422377	1471967221485	1471967221607	SHIFT	16
2834	29759	US President Bill Clinton favours lifting the embargo.	US President Bill Clinton favours lifting the embargo.	1422382	1471967221601	1471967221760	C	67
2834	29759	US President Bill Clinton favours lifting the embargo.	US President Bill Clinton favours lifting the embargo.	1422404	1471967221718	1471967221839	l	76
2834	29759	US President Bill Clinton favours lifting the embargo.	US President Bill Clinton favours lifting the embargo.	1422409	1471967221875	1471967222009	i	73
2834	29759	US President Bill Clinton favours lifting the embargo.	US President Bill Clinton favours lifting the embargo.	1422417	1471967222002	1471967222123	n	78
2834	29759	US President Bill Clinton favours lifting the embargo.	US President Bill Clinton favours lifting the embargo.	1422429	1471967222159	1471967222210	t	84
2834	29759	US President Bill Clinton favours lifting the embargo.	US President Bill Clinton favours lifting the embargo.	1422437	1471967222323	1471967222442	o	79
2834	29759	US President Bill Clinton favours lifting the embargo.	US President Bill Clinton favours lifting the embargo.	1422501	1471967222400	1471967222520	n	78
2834	29759	US President Bill Clinton favours lifting the embargo.	US President Bill Clinton favours lifting the embargo.	1422504	1471967222523	1471967222581	 	32
2834	29759	US President Bill Clinton favours lifting the embargo.	US President Bill Clinton favours lifting the embargo.	1422508	1471967222655	1471967222774	f	70
2834	29759	US President Bill Clinton favours lifting the embargo.	US President Bill Clinton favours lifting the embargo.	1422513	1471967222811	1471967222968	o	79
2834	29759	US President Bill Clinton favours lifting the embargo.	US President Bill Clinton favours lifting the embargo.	1422519	1471967223195	1471967223276	BKSP	8
2834	29759	US President Bill Clinton favours lifting the embargo.	US President Bill Clinton favours lifting the embargo.	1422528	1471967223350	1471967223469	a	65
2834	29759	US President Bill Clinton favours lifting the embargo.	US President Bill Clinton favours lifting the embargo.	1422536	1471967223473	1471967223586	v	86
2834	29759	US President Bill Clinton favours lifting the embargo.	US President Bill Clinton favours lifting the embargo.	1422588	1471967224043	1471967224162	o	79
2834	29759	US President Bill Clinton favours lifting the embargo.	US President Bill Clinton favours lifting the embargo.	1422591	1471967224120	1471967224284	u	85
2834	29759	US President Bill Clinton favours lifting the embargo.	US President Bill Clinton favours lifting the embargo.	1422594	1471967224275	1471967224358	r	82
2834	29759	US President Bill Clinton favours lifting the embargo.	US President Bill Clinton favours lifting the embargo.	1422601	1471967224471	1471967224590	s	83
2834	29759	US President Bill Clinton favours lifting the embargo.	US President Bill Clinton favours lifting the embargo.	1422605	1471967224626	1471967224669	 	32
2834	29759	US President Bill Clinton favours lifting the embargo.	US President Bill Clinton favours lifting the embargo.	1422673	1471967224987	1471967225067	l	76
2834	29759	US President Bill Clinton favours lifting the embargo.	US President Bill Clinton favours lifting the embargo.	1422679	1471967225104	1471967225223	i	73
2834	29759	US President Bill Clinton favours lifting the embargo.	US President Bill Clinton favours lifting the embargo.	1422686	1471967225259	1471967225340	f	70
2834	29759	US President Bill Clinton favours lifting the embargo.	US President Bill Clinton favours lifting the embargo.	1422694	1471967225491	1471967225572	t	84
2834	29759	US President Bill Clinton favours lifting the embargo.	US President Bill Clinton favours lifting the embargo.	1422698	1471967225608	1471967225690	i	73
2834	29759	US President Bill Clinton favours lifting the embargo.	US President Bill Clinton favours lifting the embargo.	1422744	1471967225647	1471967225809	n	78
2834	29759	US President Bill Clinton favours lifting the embargo.	US President Bill Clinton favours lifting the embargo.	1422748	1471967225803	1471967225885	g	71
2834	29759	US President Bill Clinton favours lifting the embargo.	US President Bill Clinton favours lifting the embargo.	1422754	1471967225921	1471967226002	 	32
2834	29759	US President Bill Clinton favours lifting the embargo.	US President Bill Clinton favours lifting the embargo.	1422758	1471967226229	1471967226310	t	84
2834	29759	US President Bill Clinton favours lifting the embargo.	US President Bill Clinton favours lifting the embargo.	1422763	1471967226313	1471967226466	h	72
2834	29759	US President Bill Clinton favours lifting the embargo.	US President Bill Clinton favours lifting the embargo.	1422868	1471967226423	1471967226545	e	69
2834	29759	US President Bill Clinton favours lifting the embargo.	US President Bill Clinton favours lifting the embargo.	1422873	1471967226503	1471967226585	 	32
2834	29759	US President Bill Clinton favours lifting the embargo.	US President Bill Clinton favours lifting the embargo.	1422878	1471967227157	1471967227238	e	69
2834	29759	US President Bill Clinton favours lifting the embargo.	US President Bill Clinton favours lifting the embargo.	1422880	1471967227274	1471967227393	m	77
2834	29759	US President Bill Clinton favours lifting the embargo.	US President Bill Clinton favours lifting the embargo.	1422884	1471967227426	1471967227507	b	66
2834	29759	US President Bill Clinton favours lifting the embargo.	US President Bill Clinton favours lifting the embargo.	1422886	1471967227773	1471967227929	a	65
2834	29759	US President Bill Clinton favours lifting the embargo.	US President Bill Clinton favours lifting the embargo.	1422933	1471967228004	1471967228047	r	82
2834	29759	US President Bill Clinton favours lifting the embargo.	US President Bill Clinton favours lifting the embargo.	1422938	1471967228198	1471967228249	g	71
2834	29759	US President Bill Clinton favours lifting the embargo.	US President Bill Clinton favours lifting the embargo.	1422943	1471967228361	1471967228518	o	79
2834	29759	US President Bill Clinton favours lifting the embargo.	US President Bill Clinton favours lifting the embargo.	1422947	1471967228707	1471967228788	.	190
2834	29789	Or are you going to be tied up with dinner?	Or are you going to be tied up with dinner?	1423265	1471967232122	1471967232318	SHIFT	16
2834	29789	Or are you going to be tied up with dinner?	Or are you going to be tied up with dinner?	1423276	1471967232275	1471967232396	O	79
2834	29789	Or are you going to be tied up with dinner?	Or are you going to be tied up with dinner?	1423284	1471967232433	1471967232513	r	82
2834	29789	Or are you going to be tied up with dinner?	Or are you going to be tied up with dinner?	1423295	1471967232516	1471967232593	 	32
2834	29789	Or are you going to be tied up with dinner?	Or are you going to be tied up with dinner?	1423304	1471967232667	1471967232825	a	65
2834	29789	Or are you going to be tied up with dinner?	Or are you going to be tied up with dinner?	1423350	1471967232782	1471967232941	r	82
2834	29789	Or are you going to be tied up with dinner?	Or are you going to be tied up with dinner?	1423361	1471967232899	1471967233020	e	69
2834	29789	Or are you going to be tied up with dinner?	Or are you going to be tied up with dinner?	1423370	1471967232944	1471967233062	 	32
2834	29789	Or are you going to be tied up with dinner?	Or are you going to be tied up with dinner?	1423376	1471967233023	1471967233140	y	89
2834	29789	Or are you going to be tied up with dinner?	Or are you going to be tied up with dinner?	1423383	1471967233143	1471967233296	o	79
2834	29789	Or are you going to be tied up with dinner?	Or are you going to be tied up with dinner?	1423417	1471967233254	1471967233374	u	85
2834	29789	Or are you going to be tied up with dinner?	Or are you going to be tied up with dinner?	1423425	1471967233377	1471967233416	 	32
2834	29789	Or are you going to be tied up with dinner?	Or are you going to be tied up with dinner?	1423437	1471967233452	1471967233532	g	71
2834	29789	Or are you going to be tied up with dinner?	Or are you going to be tied up with dinner?	1423441	1471967233535	1471967233651	o	79
2834	29789	Or are you going to be tied up with dinner?	Or are you going to be tied up with dinner?	1423445	1471967233608	1471967233806	i	73
2834	29789	Or are you going to be tied up with dinner?	Or are you going to be tied up with dinner?	1423505	1471967233763	1471967233888	n	78
2834	29789	Or are you going to be tied up with dinner?	Or are you going to be tied up with dinner?	1423511	1471967233881	1471967233964	g	71
2834	29789	Or are you going to be tied up with dinner?	Or are you going to be tied up with dinner?	1423516	1471967234000	1471967234043	 	32
2834	29789	Or are you going to be tied up with dinner?	Or are you going to be tied up with dinner?	1423519	1471967234384	1471967234465	t	84
2834	29789	Or are you going to be tied up with dinner?	Or are you going to be tied up with dinner?	1423522	1471967234540	1471967234620	o	79
2834	29789	Or are you going to be tied up with dinner?	Or are you going to be tied up with dinner?	1423526	1471967234657	1471967234738	 	32
2834	29789	Or are you going to be tied up with dinner?	Or are you going to be tied up with dinner?	1423559	1471967234812	1471967234931	b	66
2834	29789	Or are you going to be tied up with dinner?	Or are you going to be tied up with dinner?	1423562	1471967235044	1471967235124	e	69
2834	29789	Or are you going to be tied up with dinner?	Or are you going to be tied up with dinner?	1423566	1471967235127	1471967235204	 	32
2834	29789	Or are you going to be tied up with dinner?	Or are you going to be tied up with dinner?	1423570	1471967235316	1471967235359	t	84
2834	29789	Or are you going to be tied up with dinner?	Or are you going to be tied up with dinner?	1423573	1471967235433	1471967235552	i	73
2834	29789	Or are you going to be tied up with dinner?	Or are you going to be tied up with dinner?	1423670	1471967235627	1471967235708	e	69
2834	29789	Or are you going to be tied up with dinner?	Or are you going to be tied up with dinner?	1423674	1471967235820	1471967235901	d	68
2834	29789	Or are you going to be tied up with dinner?	Or are you going to be tied up with dinner?	1423676	1471967235904	1471967235980	 	32
2834	29789	Or are you going to be tied up with dinner?	Or are you going to be tied up with dinner?	1423680	1471967236476	1471967236557	u	85
2834	29789	Or are you going to be tied up with dinner?	Or are you going to be tied up with dinner?	1423684	1471967236593	1471967236750	p	80
2834	29789	Or are you going to be tied up with dinner?	Or are you going to be tied up with dinner?	1423728	1471967236787	1471967236867	 	32
2834	29789	Or are you going to be tied up with dinner?	Or are you going to be tied up with dinner?	1423732	1471967237209	1471967237290	w	87
2834	29789	Or are you going to be tied up with dinner?	Or are you going to be tied up with dinner?	1423736	1471967237248	1471967237412	i	73
2834	29789	Or are you going to be tied up with dinner?	Or are you going to be tied up with dinner?	1423742	1471967237403	1471967237486	t	84
2834	29789	Or are you going to be tied up with dinner?	Or are you going to be tied up with dinner?	1423795	1471967237444	1471967237526	h	72
2834	29789	Or are you going to be tied up with dinner?	Or are you going to be tied up with dinner?	1423799	1471967237529	1471967237606	 	32
2834	29789	Or are you going to be tied up with dinner?	Or are you going to be tied up with dinner?	1423803	1471967237719	1471967237838	d	68
2834	29789	Or are you going to be tied up with dinner?	Or are you going to be tied up with dinner?	1423807	1471967237795	1471967237878	i	73
2834	29789	Or are you going to be tied up with dinner?	Or are you going to be tied up with dinner?	1423811	1471967237953	1471967238034	n	78
2834	29789	Or are you going to be tied up with dinner?	Or are you going to be tied up with dinner?	1423814	1471967238108	1471967238228	n	78
2834	29789	Or are you going to be tied up with dinner?	Or are you going to be tied up with dinner?	1423847	1471967238185	1471967238307	e	69
2834	29789	Or are you going to be tied up with dinner?	Or are you going to be tied up with dinner?	1423856	1471967238264	1471967238385	r	82
2834	29789	Or are you going to be tied up with dinner?	Or are you going to be tied up with dinner?	1423866	1471967238460	1471967238658	SHIFT	16
2834	29789	Or are you going to be tied up with dinner?	Or are you going to be tied up with dinner?	1423859	1471967238537	1471967238617	?	191
2834	29810	Jackie Adams is trying to get this done today.	Jackie Adams is trying to get this done today.	1424301	1471967242491	1471967242650	SHIFT	16
2834	29810	Jackie Adams is trying to get this done today.	Jackie Adams is trying to get this done today.	1424304	1471967242644	1471967242727	J	74
2834	29810	Jackie Adams is trying to get this done today.	Jackie Adams is trying to get this done today.	1424311	1471967242801	1471967242920	a	65
2834	29810	Jackie Adams is trying to get this done today.	Jackie Adams is trying to get this done today.	1424320	1471967242995	1471967243114	c	67
2834	29810	Jackie Adams is trying to get this done today.	Jackie Adams is trying to get this done today.	1424325	1471967243150	1471967243231	k	75
2834	29810	Jackie Adams is trying to get this done today.	Jackie Adams is trying to get this done today.	1424332	1471967243344	1471967243424	i	73
2834	29810	Jackie Adams is trying to get this done today.	Jackie Adams is trying to get this done today.	1424406	1471967243499	1471967243617	e	69
2834	29810	Jackie Adams is trying to get this done today.	Jackie Adams is trying to get this done today.	1424414	1471967243620	1471967243698	 	32
2834	29810	Jackie Adams is trying to get this done today.	Jackie Adams is trying to get this done today.	1424420	1471967243848	1471967244005	SHIFT	16
2834	29810	Jackie Adams is trying to get this done today.	Jackie Adams is trying to get this done today.	1424425	1471967243925	1471967244046	A	65
2834	29810	Jackie Adams is trying to get this done today.	Jackie Adams is trying to get this done today.	1424433	1471967244082	1471967244201	d	68
2834	29810	Jackie Adams is trying to get this done today.	Jackie Adams is trying to get this done today.	1424443	1471967244352	1471967244473	a	65
2834	29810	Jackie Adams is trying to get this done today.	Jackie Adams is trying to get this done today.	1424478	1471967244509	1471967244628	m	77
2834	29810	Jackie Adams is trying to get this done today.	Jackie Adams is trying to get this done today.	1424482	1471967244703	1471967244821	s	83
2834	29810	Jackie Adams is trying to get this done today.	Jackie Adams is trying to get this done today.	1424488	1471967244824	1471967244901	 	32
2834	29810	Jackie Adams is trying to get this done today.	Jackie Adams is trying to get this done today.	1424492	1471967244975	1471967245059	i	73
2834	29810	Jackie Adams is trying to get this done today.	Jackie Adams is trying to get this done today.	1424541	1471967245053	1471967245212	s	83
2834	29810	Jackie Adams is trying to get this done today.	Jackie Adams is trying to get this done today.	1424546	1471967245170	1471967245252	 	32
2834	29810	Jackie Adams is trying to get this done today.	Jackie Adams is trying to get this done today.	1424552	1471967245365	1471967245446	t	84
2834	29810	Jackie Adams is trying to get this done today.	Jackie Adams is trying to get this done today.	1424556	1471967245559	1471967245639	r	82
2834	29810	Jackie Adams is trying to get this done today.	Jackie Adams is trying to get this done today.	1424560	1471967245642	1471967245718	y	89
2834	29810	Jackie Adams is trying to get this done today.	Jackie Adams is trying to get this done today.	1424563	1471967245755	1471967245876	i	73
2834	29810	Jackie Adams is trying to get this done today.	Jackie Adams is trying to get this done today.	1424588	1471967245870	1471967245956	n	78
2834	29810	Jackie Adams is trying to get this done today.	Jackie Adams is trying to get this done today.	1424596	1471967245949	1471967246002	g	71
2834	29810	Jackie Adams is trying to get this done today.	Jackie Adams is trying to get this done today.	1424601	1471967246005	1471967246081	 	32
2834	29810	Jackie Adams is trying to get this done today.	Jackie Adams is trying to get this done today.	1424612	1471967246118	1471967246198	t	84
2834	29810	Jackie Adams is trying to get this done today.	Jackie Adams is trying to get this done today.	1424626	1471967246201	1471967246277	o	79
2834	29810	Jackie Adams is trying to get this done today.	Jackie Adams is trying to get this done today.	1424639	1471967246280	1471967246356	 	32
2834	29810	Jackie Adams is trying to get this done today.	Jackie Adams is trying to get this done today.	1424673	1471967246431	1471967246512	g	71
2834	29810	Jackie Adams is trying to get this done today.	Jackie Adams is trying to get this done today.	1424678	1471967246548	1471967246667	e	69
2834	29810	Jackie Adams is trying to get this done today.	Jackie Adams is trying to get this done today.	1424683	1471967246704	1471967246785	t	84
2834	29810	Jackie Adams is trying to get this done today.	Jackie Adams is trying to get this done today.	1424686	1471967246742	1471967246825	 	32
2834	29810	Jackie Adams is trying to get this done today.	Jackie Adams is trying to get this done today.	1424689	1471967246899	1471967246943	h	84
2834	29810	Jackie Adams is trying to get this done today.	Jackie Adams is trying to get this done today.	1424740	1471967247024	1471967247177	i	73
2834	29810	Jackie Adams is trying to get this done today.	Jackie Adams is trying to get this done today.	1424747	1471967247135	1471967247256	s	83
2834	29810	Jackie Adams is trying to get this done today.	Jackie Adams is trying to get this done today.	1424754	1471967247214	1471967247297	 	32
2834	29810	Jackie Adams is trying to get this done today.	Jackie Adams is trying to get this done today.	1424761	1471967247448	1471967247528	d	68
2834	29810	Jackie Adams is trying to get this done today.	Jackie Adams is trying to get this done today.	1424767	1471967247531	1471967247646	o	79
2834	29810	Jackie Adams is trying to get this done today.	Jackie Adams is trying to get this done today.	1424797	1471967247604	1471967247763	n	78
2834	29810	Jackie Adams is trying to get this done today.	Jackie Adams is trying to get this done today.	1424800	1471967247683	1471967247803	e	69
2834	29810	Jackie Adams is trying to get this done today.	Jackie Adams is trying to get this done today.	1424805	1471967247806	1471967247883	 	32
2834	29810	Jackie Adams is trying to get this done today.	Jackie Adams is trying to get this done today.	1424812	1471967247996	1471967248076	t	84
2834	29810	Jackie Adams is trying to get this done today.	Jackie Adams is trying to get this done today.	1424818	1471967248113	1471967248251	o	79
2834	29810	Jackie Adams is trying to get this done today.	Jackie Adams is trying to get this done today.	1424863	1471967248243	1471967248362	d	68
2834	29810	Jackie Adams is trying to get this done today.	Jackie Adams is trying to get this done today.	1424867	1471967248400	1471967248607	a	65
2834	29810	Jackie Adams is trying to get this done today.	Jackie Adams is trying to get this done today.	1424874	1471967248477	1471967248613	y	89
2834	29810	Jackie Adams is trying to get this done today.	Jackie Adams is trying to get this done today.	1424880	1471967248683	1471967248764	.	190
2834	29830	I am out of town on business tonight.	I am out of town on buisness tonight.	1425794	1471967258580	1471967258737	SHIFT	16
2834	29830	I am out of town on business tonight.	I am out of town on buisness tonight.	1425800	1471967258695	1471967258777	I	73
2834	29830	I am out of town on business tonight.	I am out of town on buisness tonight.	1425806	1471967259081	1471967259181	 	32
2834	29830	I am out of town on business tonight.	I am out of town on buisness tonight.	1425812	1471967259255	1471967259413	a	65
2834	29830	I am out of town on business tonight.	I am out of town on buisness tonight.	1425816	1471967259370	1471967259453	m	77
2834	29830	I am out of town on business tonight.	I am out of town on buisness tonight.	1425820	1471967259490	1471967259570	 	32
2834	29830	I am out of town on business tonight.	I am out of town on buisness tonight.	1425873	1471967259721	1471967259845	o	79
2834	29830	I am out of town on business tonight.	I am out of town on buisness tonight.	1425878	1471967259837	1471967259957	u	85
2834	29830	I am out of town on business tonight.	I am out of town on buisness tonight.	1425882	1471967259994	1471967260036	t	84
2834	29830	I am out of town on business tonight.	I am out of town on buisness tonight.	1425885	1471967260073	1471967260116	 	32
2834	29830	I am out of town on business tonight.	I am out of town on buisness tonight.	1425889	1471967260243	1471967260324	o	79
2834	29830	I am out of town on business tonight.	I am out of town on buisness tonight.	1425966	1471967260360	1471967260441	f	70
2834	29830	I am out of town on business tonight.	I am out of town on buisness tonight.	1425973	1471967260477	1471967260558	 	32
2834	29830	I am out of town on business tonight.	I am out of town on buisness tonight.	1425980	1471967261015	1471967261095	t	84
2834	29830	I am out of town on business tonight.	I am out of town on buisness tonight.	1425986	1471967261170	1471967261289	o	79
2834	29830	I am out of town on business tonight.	I am out of town on buisness tonight.	1425990	1471967261478	1471967261597	w	87
2834	29830	I am out of town on business tonight.	I am out of town on buisness tonight.	1426004	1471967261633	1471967261714	n	78
2834	29830	I am out of town on business tonight.	I am out of town on buisness tonight.	1426008	1471967261750	1471967261831	 	32
2834	29830	I am out of town on business tonight.	I am out of town on buisness tonight.	1426015	1471967261906	1471967262025	o	79
2834	29830	I am out of town on business tonight.	I am out of town on buisness tonight.	1426022	1471967261982	1471967262124	n	78
2834	29830	I am out of town on business tonight.	I am out of town on buisness tonight.	1426084	1471967262080	1471967262202	 	32
2834	29830	I am out of town on business tonight.	I am out of town on buisness tonight.	1426093	1471967262276	1471967262357	b	66
2834	29830	I am out of town on business tonight.	I am out of town on buisness tonight.	1426099	1471967262393	1471967262474	u	85
2834	29830	I am out of town on business tonight.	I am out of town on buisness tonight.	1426104	1471967262549	1471967262630	i	73
2834	29830	I am out of town on business tonight.	I am out of town on buisness tonight.	1426107	1471967262666	1471967262785	s	83
2834	29830	I am out of town on business tonight.	I am out of town on buisness tonight.	1426113	1471967262821	1471967262902	n	78
2834	29830	I am out of town on business tonight.	I am out of town on buisness tonight.	1426176	1471967263091	1471967263172	e	69
2834	29830	I am out of town on business tonight.	I am out of town on buisness tonight.	1426182	1471967263285	1471967263365	s	83
2834	29830	I am out of town on business tonight.	I am out of town on buisness tonight.	1426186	1471967263478	1471967263558	s	83
2834	29830	I am out of town on business tonight.	I am out of town on buisness tonight.	1426190	1471967263561	1471967263638	 	32
2834	29830	I am out of town on business tonight.	I am out of town on buisness tonight.	1426193	1471967263751	1471967263831	t	84
2834	29830	I am out of town on business tonight.	I am out of town on buisness tonight.	1426217	1471967263834	1471967263915	o	79
2834	29830	I am out of town on business tonight.	I am out of town on buisness tonight.	1426222	1471967263907	1471967264028	n	78
2834	29830	I am out of town on business tonight.	I am out of town on buisness tonight.	1426225	1471967264102	1471967264200	i	73
2834	29830	I am out of town on business tonight.	I am out of town on buisness tonight.	1426228	1471967264191	1471967264273	g	71
2834	29830	I am out of town on business tonight.	I am out of town on buisness tonight.	1426235	1471967264310	1471967264429	h	72
2834	29830	I am out of town on business tonight.	I am out of town on buisness tonight.	1426250	1471967264387	1471967264522	t	84
2834	29830	I am out of town on business tonight.	I am out of town on buisness tonight.	1426253	1471967264525	1471967264640	.	190
2834	29854	I'm glad you are involved!	I'm glad you are involved!	1426824	1471967270927	1471967271090	SHIFT	16
2834	29854	I'm glad you are involved!	I'm glad you are involved!	1426821	1471967271003	1471967271085	I	73
2834	29854	I'm glad you are involved!	I'm glad you are involved!	1426828	1471967271161	1471967271320	'	222
2834	29854	I'm glad you are involved!	I'm glad you are involved!	1426831	1471967271277	1471967271397	m	77
2834	29854	I'm glad you are involved!	I'm glad you are involved!	1426834	1471967271400	1471967271477	 	32
2834	29854	I'm glad you are involved!	I'm glad you are involved!	1426838	1471967271666	1471967271747	g	71
2834	29854	I'm glad you are involved!	I'm glad you are involved!	1426873	1471967271783	1471967271902	l	76
2834	29854	I'm glad you are involved!	I'm glad you are involved!	1426876	1471967272053	1471967272172	a	65
2834	29854	I'm glad you are involved!	I'm glad you are involved!	1426882	1471967272247	1471967272365	d	68
2834	29854	I'm glad you are involved!	I'm glad you are involved!	1426887	1471967272368	1471967272521	 	32
2834	29854	I'm glad you are involved!	I'm glad you are involved!	1426919	1471967272479	1471967272599	y	89
2834	29854	I'm glad you are involved!	I'm glad you are involved!	1426923	1471967272602	1471967272720	o	79
2834	29854	I'm glad you are involved!	I'm glad you are involved!	1426928	1471967272714	1471967272834	u	85
2834	29854	I'm glad you are involved!	I'm glad you are involved!	1426936	1471967272837	1471967272875	 	32
2834	29854	I'm glad you are involved!	I'm glad you are involved!	1426941	1471967272950	1471967273070	a	65
2834	29854	I'm glad you are involved!	I'm glad you are involved!	1426977	1471967273027	1471967273148	r	82
2834	29854	I'm glad you are involved!	I'm glad you are involved!	1426978	1471967273106	1471967273278	e	69
2834	29854	I'm glad you are involved!	I'm glad you are involved!	1426981	1471967273185	1471967273319	 	32
2834	29854	I'm glad you are involved!	I'm glad you are involved!	1426984	1471967273280	1471967273437	i	73
2834	29854	I'm glad you are involved!	I'm glad you are involved!	1426989	1471967273394	1471967273515	n	78
2834	29854	I'm glad you are involved!	I'm glad you are involved!	1426997	1471967273590	1471967273746	c	67
2834	29854	I'm glad you are involved!	I'm glad you are involved!	1427048	1471967273783	1471967273864	o	79
2834	29854	I'm glad you are involved!	I'm glad you are involved!	1427049	1471967274091	1471967274133	BKSP	8
2834	29854	I'm glad you are involved!	I'm glad you are involved!	1427052	1471967274208	1471967274311	BKSP	8
2834	29854	I'm glad you are involved!	I'm glad you are involved!	1427057	1471967274304	1471967274425	v	86
2834	29854	I'm glad you are involved!	I'm glad you are involved!	1427060	1471967274461	1471967274542	o	79
2834	29854	I'm glad you are involved!	I'm glad you are involved!	1427068	1471967274655	1471967274736	l	76
2834	29854	I'm glad you are involved!	I'm glad you are involved!	1427080	1471967274810	1471967274899	v	86
2834	29854	I'm glad you are involved!	I'm glad you are involved!	1427138	1471967275088	1471967275169	e	69
2834	29854	I'm glad you are involved!	I'm glad you are involved!	1427139	1471967275320	1471967275439	d	68
2834	29854	I'm glad you are involved!	I'm glad you are involved!	1427142	1471967275590	1471967276016	SHIFT	16
2834	29854	I'm glad you are involved!	I'm glad you are involved!	1427140	1471967275857	1471967275976	!	49
2834	29869	I think I'm OK.	I think I'm OK/	1427455	1471967280003	1471967280205	SHIFT	16
2834	29869	I think I'm OK.	I think I'm OK/	1427451	1471967280118	1471967280199	I	73
2834	29869	I think I'm OK.	I think I'm OK/	1427457	1471967280275	1471967280394	 	32
2834	29869	I think I'm OK.	I think I'm OK/	1427461	1471967280431	1471967280522	t	84
2834	29869	I think I'm OK.	I think I'm OK/	1427467	1471967280480	1471967280600	h	72
2834	29869	I think I'm OK.	I think I'm OK/	1427474	1471967280603	1471967280685	i	73
2834	29869	I think I'm OK.	I think I'm OK/	1427527	1471967280677	1471967280836	n	78
2834	29869	I think I'm OK.	I think I'm OK/	1427530	1471967280793	1471967280952	k	75
2834	29869	I think I'm OK.	I think I'm OK/	1427532	1471967280955	1471967281069	 	32
2834	29869	I think I'm OK.	I think I'm OK/	1427534	1471967281072	1471967281226	SHIFT	16
2834	29869	I think I'm OK.	I think I'm OK/	1427540	1471967281145	1471967281266	I	73
2834	29869	I think I'm OK.	I think I'm OK/	1427544	1471967281302	1471967281460	'	222
2834	29869	I think I'm OK.	I think I'm OK/	1427628	1471967281418	1471967281614	m	77
2834	29869	I think I'm OK.	I think I'm OK/	1427631	1471967281617	1471967281694	 	32
2834	29869	I think I'm OK.	I think I'm OK/	1427643	1471967281845	1471967282312	SHIFT	16
2834	29869	I think I'm OK.	I think I'm OK/	1427635	1471967281960	1471967282040	O	79
2834	29869	I think I'm OK.	I think I'm OK/	1427640	1471967282153	1471967282234	K	75
2834	29869	I think I'm OK.	I think I'm OK/	1427647	1471967282387	1471967282430	/	191
2834	29882	I'm in Stan's office.	I'm in Stan's office.	1427931	1471967285342	1471967285544	SHIFT	16
2834	29882	I'm in Stan's office.	I'm in Stan's office.	1427924	1471967285457	1471967285538	I	73
2834	29882	I'm in Stan's office.	I'm in Stan's office.	1427940	1471967285614	1471967285736	'	222
2834	29882	I'm in Stan's office.	I'm in Stan's office.	1427944	1471967285730	1471967285889	m	77
2834	29882	I'm in Stan's office.	I'm in Stan's office.	1427950	1471967285847	1471967285967	 	32
2834	29882	I'm in Stan's office.	I'm in Stan's office.	1427953	1471967286119	1471967286248	i	73
2834	29882	I'm in Stan's office.	I'm in Stan's office.	1428006	1471967286206	1471967286327	n	78
2834	29882	I'm in Stan's office.	I'm in Stan's office.	1428012	1471967286285	1471967286406	 	32
2834	29882	I'm in Stan's office.	I'm in Stan's office.	1428018	1471967286481	1471967286676	SHIFT	16
2834	29882	I'm in Stan's office.	I'm in Stan's office.	1428026	1471967286596	1471967286717	S	83
2834	29882	I'm in Stan's office.	I'm in Stan's office.	1428030	1471967286791	1471967286872	t	84
2834	29882	I'm in Stan's office.	I'm in Stan's office.	1428034	1471967286947	1471967287065	a	65
2834	29882	I'm in Stan's office.	I'm in Stan's office.	1428038	1471967287068	1471967287183	n	78
2834	29882	I'm in Stan's office.	I'm in Stan's office.	1428140	1471967287372	1471967287488	'	222
2834	29882	I'm in Stan's office.	I'm in Stan's office.	1428147	1471967287600	1471967287719	s	83
2834	29882	I'm in Stan's office.	I'm in Stan's office.	1428158	1471967287756	1471967287836	 	32
2834	29882	I'm in Stan's office.	I'm in Stan's office.	1428165	1471967287911	1471967288065	SHIFT	16
2834	29882	I'm in Stan's office.	I'm in Stan's office.	1428171	1471967288057	1471967288101	O	79
2834	29882	I'm in Stan's office.	I'm in Stan's office.	1428176	1471967288443	1471967288524	BKSP	8
2834	29882	I'm in Stan's office.	I'm in Stan's office.	1428182	1471967288676	1471967288718	o	79
2834	29882	I'm in Stan's office.	I'm in Stan's office.	1428215	1471967288793	1471967288873	f	70
2834	29882	I'm in Stan's office.	I'm in Stan's office.	1428220	1471967288948	1471967289029	f	70
2834	29882	I'm in Stan's office.	I'm in Stan's office.	1428223	1471967289065	1471967289187	i	73
2834	29882	I'm in Stan's office.	I'm in Stan's office.	1428227	1471967289180	1471967289301	c	67
2834	29882	I'm in Stan's office.	I'm in Stan's office.	1428230	1471967289338	1471967289494	e	69
2834	29882	I'm in Stan's office.	I'm in Stan's office.	1428234	1471967289497	1471967289574	.	190
2834	29895	We are delayed, got another 30 minutes on the runway.	We are delayed, got another 30 minutes on the runway.	1428601	1471967293809	1471967294005	SHIFT	16
2834	29895	We are delayed, got another 30 minutes on the runway.	We are delayed, got another 30 minutes on the runway.	1428606	1471967293962	1471967294045	W	87
2834	29895	We are delayed, got another 30 minutes on the runway.	We are delayed, got another 30 minutes on the runway.	1428609	1471967294126	1471967294206	e	69
2834	29895	We are delayed, got another 30 minutes on the runway.	We are delayed, got another 30 minutes on the runway.	1428613	1471967294209	1471967294286	 	32
2834	29895	We are delayed, got another 30 minutes on the runway.	We are delayed, got another 30 minutes on the runway.	1428618	1471967294360	1471967294442	a	65
2834	29895	We are delayed, got another 30 minutes on the runway.	We are delayed, got another 30 minutes on the runway.	1428684	1471967294399	1471967294533	r	82
2834	29895	We are delayed, got another 30 minutes on the runway.	We are delayed, got another 30 minutes on the runway.	1428688	1471967294524	1471967294606	e	69
2834	29895	We are delayed, got another 30 minutes on the runway.	We are delayed, got another 30 minutes on the runway.	1428695	1471967294609	1471967294686	 	32
2834	29895	We are delayed, got another 30 minutes on the runway.	We are delayed, got another 30 minutes on the runway.	1428701	1471967294760	1471967294879	d	68
2834	29895	We are delayed, got another 30 minutes on the runway.	We are delayed, got another 30 minutes on the runway.	1428705	1471967294992	1471967295034	e	69
2834	29895	We are delayed, got another 30 minutes on the runway.	We are delayed, got another 30 minutes on the runway.	1428710	1471967295037	1471967295190	l	76
2834	29895	We are delayed, got another 30 minutes on the runway.	We are delayed, got another 30 minutes on the runway.	1428784	1471967295379	1471967295498	a	65
2834	29895	We are delayed, got another 30 minutes on the runway.	We are delayed, got another 30 minutes on the runway.	1428787	1471967295456	1471967295538	y	89
2834	29895	We are delayed, got another 30 minutes on the runway.	We are delayed, got another 30 minutes on the runway.	1428791	1471967295728	1471967295808	e	69
2834	29895	We are delayed, got another 30 minutes on the runway.	We are delayed, got another 30 minutes on the runway.	1428793	1471967295921	1471967296002	d	68
2834	29895	We are delayed, got another 30 minutes on the runway.	We are delayed, got another 30 minutes on the runway.	1428797	1471967296115	1471967296233	,	188
2834	29895	We are delayed, got another 30 minutes on the runway.	We are delayed, got another 30 minutes on the runway.	1428843	1471967296308	1471967296351	 	32
2834	29895	We are delayed, got another 30 minutes on the runway.	We are delayed, got another 30 minutes on the runway.	1428846	1471967296540	1471967296620	g	71
2834	29895	We are delayed, got another 30 minutes on the runway.	We are delayed, got another 30 minutes on the runway.	1428850	1471967296623	1471967296700	o	79
2834	29895	We are delayed, got another 30 minutes on the runway.	We are delayed, got another 30 minutes on the runway.	1428853	1471967296774	1471967296816	t	84
2834	29895	We are delayed, got another 30 minutes on the runway.	We are delayed, got another 30 minutes on the runway.	1428859	1471967296819	1471967296896	 	32
2834	29895	We are delayed, got another 30 minutes on the runway.	We are delayed, got another 30 minutes on the runway.	1428887	1471967296971	1471967297128	a	65
2834	29895	We are delayed, got another 30 minutes on the runway.	We are delayed, got another 30 minutes on the runway.	1428892	1471967297047	1471967297134	n	78
2834	29895	We are delayed, got another 30 minutes on the runway.	We are delayed, got another 30 minutes on the runway.	1428897	1471967297166	1471967297262	o	79
2834	29895	We are delayed, got another 30 minutes on the runway.	We are delayed, got another 30 minutes on the runway.	1428901	1471967297299	1471967297380	t	84
2834	29895	We are delayed, got another 30 minutes on the runway.	We are delayed, got another 30 minutes on the runway.	1428966	1471967297337	1471967297500	h	72
2834	29895	We are delayed, got another 30 minutes on the runway.	We are delayed, got another 30 minutes on the runway.	1428972	1471967297493	1471967297652	e	69
2834	29895	We are delayed, got another 30 minutes on the runway.	We are delayed, got another 30 minutes on the runway.	1428976	1471967297610	1471967297730	r	82
2834	29895	We are delayed, got another 30 minutes on the runway.	We are delayed, got another 30 minutes on the runway.	1428981	1471967297733	1471967297772	 	32
2834	29895	We are delayed, got another 30 minutes on the runway.	We are delayed, got another 30 minutes on the runway.	1428986	1471967298151	1471967298194	3	51
2834	29895	We are delayed, got another 30 minutes on the runway.	We are delayed, got another 30 minutes on the runway.	1428991	1471967298230	1471967298349	0	48
2834	29895	We are delayed, got another 30 minutes on the runway.	We are delayed, got another 30 minutes on the runway.	1429009	1471967298386	1471967298428	 	32
2834	29895	We are delayed, got another 30 minutes on the runway.	We are delayed, got another 30 minutes on the runway.	1429013	1471967298541	1471967298622	m	77
2834	29895	We are delayed, got another 30 minutes on the runway.	We are delayed, got another 30 minutes on the runway.	1429020	1471967298658	1471967298816	i	73
2834	29895	We are delayed, got another 30 minutes on the runway.	We are delayed, got another 30 minutes on the runway.	1429024	1471967298773	1471967298856	n	78
2834	29895	We are delayed, got another 30 minutes on the runway.	We are delayed, got another 30 minutes on the runway.	1429031	1471967298969	1471967299052	u	85
2834	29895	We are delayed, got another 30 minutes on the runway.	We are delayed, got another 30 minutes on the runway.	1429055	1471967299046	1471967299129	t	84
2834	29895	We are delayed, got another 30 minutes on the runway.	We are delayed, got another 30 minutes on the runway.	1429057	1471967299241	1471967299284	e	69
2834	29895	We are delayed, got another 30 minutes on the runway.	We are delayed, got another 30 minutes on the runway.	1429059	1471967299359	1471967299477	s	83
2834	29895	We are delayed, got another 30 minutes on the runway.	We are delayed, got another 30 minutes on the runway.	1429062	1471967299480	1471967299559	 	32
2834	29895	We are delayed, got another 30 minutes on the runway.	We are delayed, got another 30 minutes on the runway.	1429067	1471967299553	1471967299674	o	79
2834	29895	We are delayed, got another 30 minutes on the runway.	We are delayed, got another 30 minutes on the runway.	1429094	1471967299632	1471967299752	n	78
2834	29895	We are delayed, got another 30 minutes on the runway.	We are delayed, got another 30 minutes on the runway.	1429097	1471967299755	1471967299835	 	32
2834	29895	We are delayed, got another 30 minutes on the runway.	We are delayed, got another 30 minutes on the runway.	1429103	1471967299828	1471967299922	t	84
2834	29895	We are delayed, got another 30 minutes on the runway.	We are delayed, got another 30 minutes on the runway.	1429109	1471967299880	1471967300045	h	72
2834	29895	We are delayed, got another 30 minutes on the runway.	We are delayed, got another 30 minutes on the runway.	1429115	1471967299965	1471967300086	e	69
2834	29895	We are delayed, got another 30 minutes on the runway.	We are delayed, got another 30 minutes on the runway.	1429171	1471967300048	1471967300127	 	32
2834	29895	We are delayed, got another 30 minutes on the runway.	We are delayed, got another 30 minutes on the runway.	1429173	1471967300201	1471967300282	r	82
2834	29895	We are delayed, got another 30 minutes on the runway.	We are delayed, got another 30 minutes on the runway.	1429176	1471967300319	1471967300399	u	85
2834	29895	We are delayed, got another 30 minutes on the runway.	We are delayed, got another 30 minutes on the runway.	1429180	1471967300512	1471967300593	n	78
2834	29895	We are delayed, got another 30 minutes on the runway.	We are delayed, got another 30 minutes on the runway.	1429184	1471967300896	1471967300977	w	87
2834	29895	We are delayed, got another 30 minutes on the runway.	We are delayed, got another 30 minutes on the runway.	1429188	1471967301052	1471967301247	a	65
2834	29895	We are delayed, got another 30 minutes on the runway.	We are delayed, got another 30 minutes on the runway.	1429200	1471967301205	1471967301288	y	89
2834	29895	We are delayed, got another 30 minutes on the runway.	We are delayed, got another 30 minutes on the runway.	1429203	1471967301400	1471967301519	.	190
2834	29912	New switches can also be added to the Paging System.	New switches can also be added to the Paging System.	1429509	1471967305007	1471967305128	SHIFT	16
2834	29912	New switches can also be added to the Paging System.	New switches can also be added to the Paging System.	1429511	1471967305122	1471967305205	N	78
2834	29912	New switches can also be added to the Paging System.	New switches can also be added to the Paging System.	1429516	1471967305279	1471967305360	e	69
2834	29912	New switches can also be added to the Paging System.	New switches can also be added to the Paging System.	1429522	1471967305473	1471967305630	w	87
2834	29912	New switches can also be added to the Paging System.	New switches can also be added to the Paging System.	1429528	1471967305685	1471967305728	 	32
2834	29912	New switches can also be added to the Paging System.	New switches can also be added to the Paging System.	1429533	1471967305917	1471967305998	s	83
2834	29912	New switches can also be added to the Paging System.	New switches can also be added to the Paging System.	1429593	1471967306302	1471967306383	w	87
2834	29912	New switches can also be added to the Paging System.	New switches can also be added to the Paging System.	1429596	1471967306686	1471967306767	i	73
2834	29912	New switches can also be added to the Paging System.	New switches can also be added to the Paging System.	1429599	1471967306842	1471967306884	t	84
2834	29912	New switches can also be added to the Paging System.	New switches can also be added to the Paging System.	1429602	1471967307111	1471967307192	c	67
2834	29912	New switches can also be added to the Paging System.	New switches can also be added to the Paging System.	1429607	1471967307195	1471967307271	h	72
2834	29912	New switches can also be added to the Paging System.	New switches can also be added to the Paging System.	1429663	1471967307308	1471967307350	e	69
2834	29912	New switches can also be added to the Paging System.	New switches can also be added to the Paging System.	1429666	1471967307501	1471967307620	s	83
2834	29912	New switches can also be added to the Paging System.	New switches can also be added to the Paging System.	1429669	1471967307656	1471967307700	 	32
2834	29912	New switches can also be added to the Paging System.	New switches can also be added to the Paging System.	1429673	1471967308003	1471967308083	a	65
2834	29912	New switches can also be added to the Paging System.	New switches can also be added to the Paging System.	1429678	1471967308234	1471967308315	BKSP	8
2834	29912	New switches can also be added to the Paging System.	New switches can also be added to the Paging System.	1429684	1471967308351	1471967308432	c	67
2834	29912	New switches can also be added to the Paging System.	New switches can also be added to the Paging System.	1429738	1471967308507	1471967308599	a	65
2834	29912	New switches can also be added to the Paging System.	New switches can also be added to the Paging System.	1429742	1471967308556	1471967308676	n	78
2834	29912	New switches can also be added to the Paging System.	New switches can also be added to the Paging System.	1429746	1471967308679	1471967308756	 	32
2834	29912	New switches can also be added to the Paging System.	New switches can also be added to the Paging System.	1429750	1471967308907	1471967309025	c	67
2834	29912	New switches can also be added to the Paging System.	New switches can also be added to the Paging System.	1429754	1471967309062	1471967309181	a	65
2834	29912	New switches can also be added to the Paging System.	New switches can also be added to the Paging System.	1429866	1471967309332	1471967309413	BKSP	8
2834	29912	New switches can also be added to the Paging System.	New switches can also be added to the Paging System.	1429871	1471967309678	1471967309721	BKSP	8
2834	29912	New switches can also be added to the Paging System.	New switches can also be added to the Paging System.	1429875	1471967310139	1471967310257	a	65
2834	29912	New switches can also be added to the Paging System.	New switches can also be added to the Paging System.	1429876	1471967310260	1471967310377	l	76
2834	29912	New switches can also be added to the Paging System.	New switches can also be added to the Paging System.	1429878	1471967310371	1471967310491	s	83
2834	29912	New switches can also be added to the Paging System.	New switches can also be added to the Paging System.	1429885	1471967310494	1471967310571	o	79
2834	29912	New switches can also be added to the Paging System.	New switches can also be added to the Paging System.	1429890	1471967310836	1471967310898	 	32
2834	29912	New switches can also be added to the Paging System.	New switches can also be added to the Paging System.	1429942	1471967311240	1471967311320	b	66
2834	29912	New switches can also be added to the Paging System.	New switches can also be added to the Paging System.	1429947	1471967311433	1471967311514	e	69
2834	29912	New switches can also be added to the Paging System.	New switches can also be added to the Paging System.	1429951	1471967311550	1471967311631	 	32
2834	29912	New switches can also be added to the Paging System.	New switches can also be added to the Paging System.	1429958	1471967311743	1471967311862	a	65
2834	29912	New switches can also be added to the Paging System.	New switches can also be added to the Paging System.	1429964	1471967311937	1471967311986	d	68
2834	29912	New switches can also be added to the Paging System.	New switches can also be added to the Paging System.	1429991	1471967312060	1471967312141	d	68
2834	29912	New switches can also be added to the Paging System.	New switches can also be added to the Paging System.	1429995	1471967312254	1471967312335	e	69
2834	29912	New switches can also be added to the Paging System.	New switches can also be added to the Paging System.	1429999	1471967312409	1471967312528	d	68
2834	29912	New switches can also be added to the Paging System.	New switches can also be added to the Paging System.	1430004	1471967312565	1471967312649	 	32
2834	29912	New switches can also be added to the Paging System.	New switches can also be added to the Paging System.	1430030	1471967312642	1471967312724	t	84
2834	29912	New switches can also be added to the Paging System.	New switches can also be added to the Paging System.	1430033	1471967312727	1471967312841	o	79
2834	29912	New switches can also be added to the Paging System.	New switches can also be added to the Paging System.	1430039	1471967312844	1471967312923	 	32
2834	29912	New switches can also be added to the Paging System.	New switches can also be added to the Paging System.	1430044	1471967312917	1471967312999	t	84
2834	29912	New switches can also be added to the Paging System.	New switches can also be added to the Paging System.	1430048	1471967313002	1471967313117	h	72
2834	29912	New switches can also be added to the Paging System.	New switches can also be added to the Paging System.	1430099	1471967313075	1471967313197	e	69
2834	29912	New switches can also be added to the Paging System.	New switches can also be added to the Paging System.	1430102	1471967313120	1471967313203	 	32
2834	29912	New switches can also be added to the Paging System.	New switches can also be added to the Paging System.	1430111	1471967313388	1471967313622	SHIFT	16
2834	29912	New switches can also be added to the Paging System.	New switches can also be added to the Paging System.	1430116	1471967313541	1471967313662	P	80
2834	29912	New switches can also be added to the Paging System.	New switches can also be added to the Paging System.	1430124	1471967313736	1471967313893	a	65
2834	29912	New switches can also be added to the Paging System.	New switches can also be added to the Paging System.	1430131	1471967313896	1471967314010	g	71
2834	29912	New switches can also be added to the Paging System.	New switches can also be added to the Paging System.	1430134	1471967314013	1471967314128	i	73
2834	29912	New switches can also be added to the Paging System.	New switches can also be added to the Paging System.	1430222	1471967314086	1471967314207	n	78
2834	29912	New switches can also be added to the Paging System.	New switches can also be added to the Paging System.	1430224	1471967314358	1471967314439	e	69
2834	29912	New switches can also be added to the Paging System.	New switches can also be added to the Paging System.	1430227	1471967314895	1471967314995	BKSP	8
2834	29912	New switches can also be added to the Paging System.	New switches can also be added to the Paging System.	1430230	1471967315069	1471967315150	g	71
2834	29912	New switches can also be added to the Paging System.	New switches can also be added to the Paging System.	1430234	1471967315186	1471967315267	 	32
2834	29912	New switches can also be added to the Paging System.	New switches can also be added to the Paging System.	1430238	1471967315456	1471967315614	SHIFT	16
2834	29912	New switches can also be added to the Paging System.	New switches can also be added to the Paging System.	1430242	1471967315571	1471967315654	S	83
2834	29912	New switches can also be added to the Paging System.	New switches can also be added to the Paging System.	1430246	1471967315690	1471967315814	y	89
2834	29912	New switches can also be added to the Paging System.	New switches can also be added to the Paging System.	1430281	1471967315772	1471967315893	s	83
2834	29912	New switches can also be added to the Paging System.	New switches can also be added to the Paging System.	1430283	1471967315929	1471967316010	t	84
2834	29912	New switches can also be added to the Paging System.	New switches can also be added to the Paging System.	1430286	1471967316123	1471967316247	e	69
2834	29912	New switches can also be added to the Paging System.	New switches can also be added to the Paging System.	1430289	1471967316250	1471967316365	m	77
2834	29912	New switches can also be added to the Paging System.	New switches can also be added to the Paging System.	1430294	1471967316402	1471967316520	.	190
2834	29936	The troops just walked in.	The troops just walked in.	1430464	1471967319164	1471967319287	SHIFT	16
2834	29936	The troops just walked in.	The troops just walked in.	1430468	1471967319279	1471967319332	T	84
2834	29936	The troops just walked in.	The troops just walked in.	1430474	1471967319369	1471967319450	h	72
2834	29936	The troops just walked in.	The troops just walked in.	1430480	1471967319486	1471967319566	e	69
2834	29936	The troops just walked in.	The troops just walked in.	1430487	1471967319569	1471967319646	 	32
2834	29936	The troops just walked in.	The troops just walked in.	1430491	1471967319797	1471967319877	t	84
2834	29936	The troops just walked in.	The troops just walked in.	1430552	1471967319990	1471967320109	r	82
2834	29936	The troops just walked in.	The troops just walked in.	1430555	1471967320184	1471967320302	o	79
2834	29936	The troops just walked in.	The troops just walked in.	1430558	1471967320453	1471967320496	p	80
2834	29936	The troops just walked in.	The troops just walked in.	1430563	1471967320761	1471967320842	BKSP	8
2834	29936	The troops just walked in.	The troops just walked in.	1430567	1471967320993	1471967321112	o	79
2834	29936	The troops just walked in.	The troops just walked in.	1430571	1471967321186	1471967321267	p	80
2834	29936	The troops just walked in.	The troops just walked in.	1430599	1471967321304	1471967321422	s	83
2834	29936	The troops just walked in.	The troops just walked in.	1430603	1471967321425	1471967321501	 	32
2834	29936	The troops just walked in.	The troops just walked in.	1430609	1471967321614	1471967321695	j	74
2834	29936	The troops just walked in.	The troops just walked in.	1430615	1471967321808	1471967321888	u	85
2834	29936	The troops just walked in.	The troops just walked in.	1430620	1471967321963	1471967322082	s	83
2834	29936	The troops just walked in.	The troops just walked in.	1430680	1471967322127	1471967322208	t	84
2834	29936	The troops just walked in.	The troops just walked in.	1430684	1471967322244	1471967322325	 	32
2834	29936	The troops just walked in.	The troops just walked in.	1430690	1471967322705	1471967322785	w	87
2834	29936	The troops just walked in.	The troops just walked in.	1430696	1471967322898	1471967323017	a	65
2834	29936	The troops just walked in.	The troops just walked in.	1430760	1471967322937	1471967323029	l	76
2834	29936	The troops just walked in.	The troops just walked in.	1430763	1471967323020	1471967323099	k	75
2834	29936	The troops just walked in.	The troops just walked in.	1430768	1471967323186	1471967323305	i	73
2834	29936	The troops just walked in.	The troops just walked in.	1430772	1471967323263	1471967323384	n	78
2834	29936	The troops just walked in.	The troops just walked in.	1430776	1471967323497	1471967323577	BKSP	8
2834	29936	The troops just walked in.	The troops just walked in.	1430780	1471967323691	1471967323810	BKSP	8
2834	29936	The troops just walked in.	The troops just walked in.	1430784	1471967323768	1471967323851	e	69
2834	29936	The troops just walked in.	The troops just walked in.	1430787	1471967323963	1471967324083	d	68
2834	29936	The troops just walked in.	The troops just walked in.	1430818	1471967324040	1471967324162	 	32
2834	29936	The troops just walked in.	The troops just walked in.	1430820	1471967324119	1471967324279	i	73
2834	29936	The troops just walked in.	The troops just walked in.	1430824	1471967324236	1471967324434	n	78
2834	29936	The troops just walked in.	The troops just walked in.	1430827	1471967324509	1471967324627	.	190
2834	29950	Go for the dollars.	Go for the dollars.	1431035	1471967327042	1471967327134	SHIFT	16
2834	29950	Go for the dollars.	Go for the dollars.	1431037	1471967327127	1471967327262	G	71
2834	29950	Go for the dollars.	Go for the dollars.	1431039	1471967327265	1471967327342	o	79
2834	29950	Go for the dollars.	Go for the dollars.	1431041	1471967327378	1471967327459	 	32
2834	29950	Go for the dollars.	Go for the dollars.	1431044	1471967327686	1471967327767	f	70
2834	29950	Go for the dollars.	Go for the dollars.	1431048	1471967327803	1471967327887	o	79
2834	29950	Go for the dollars.	Go for the dollars.	1431056	1471967327880	1471967327962	r	82
2834	29950	Go for the dollars.	Go for the dollars.	1431061	1471967327965	1471967328042	 	32
2834	29950	Go for the dollars.	Go for the dollars.	1431066	1471967328078	1471967328160	t	84
2834	29950	Go for the dollars.	Go for the dollars.	1431070	1471967328117	1471967328238	h	72
2834	29950	Go for the dollars.	Go for the dollars.	1431072	1471967328196	1471967328280	e	69
2834	29950	Go for the dollars.	Go for the dollars.	1431107	1471967328241	1471967328320	 	32
2834	29950	Go for the dollars.	Go for the dollars.	1431111	1471967328471	1471967328590	d	68
2834	29950	Go for the dollars.	Go for the dollars.	1431115	1471967328548	1471967328631	o	79
2834	29950	Go for the dollars.	Go for the dollars.	1431120	1471967328744	1471967328786	l	76
2834	29950	Go for the dollars.	Go for the dollars.	1431123	1471967328875	1471967328955	l	76
2834	29950	Go for the dollars.	Go for the dollars.	1431126	1471967328993	1471967329150	a	65
2834	29950	Go for the dollars.	Go for the dollars.	1431154	1471967329108	1471967329229	r	82
2834	29950	Go for the dollars.	Go for the dollars.	1431160	1471967329341	1471967329460	s	83
2834	29950	Go for the dollars.	Go for the dollars.	1431163	1471967329463	1471967329578	.	190
2834	29959	You can explain this to me next week or over the weekend.	You can explain this to me next week or over the weekend.	1431660	1471967336440	1471967336636	SHIFT	16
2834	29959	You can explain this to me next week or over the weekend.	You can explain this to me next week or over the weekend.	1431663	1471967336593	1471967336676	Y	89
2834	29959	You can explain this to me next week or over the weekend.	You can explain this to me next week or over the weekend.	1431665	1471967336751	1471967336872	o	79
2834	29959	You can explain this to me next week or over the weekend.	You can explain this to me next week or over the weekend.	1431669	1471967336866	1471967336987	u	85
2834	29959	You can explain this to me next week or over the weekend.	You can explain this to me next week or over the weekend.	1431672	1471967337023	1471967337066	 	32
2834	29959	You can explain this to me next week or over the weekend.	You can explain this to me next week or over the weekend.	1431673	1471967337293	1471967337374	c	67
2834	29959	You can explain this to me next week or over the weekend.	You can explain this to me next week or over the weekend.	1431699	1471967337448	1471967337568	a	65
2834	29959	You can explain this to me next week or over the weekend.	You can explain this to me next week or over the weekend.	1431704	1471967337487	1471967337607	n	78
2834	29959	You can explain this to me next week or over the weekend.	You can explain this to me next week or over the weekend.	1431710	1471967337610	1471967337687	 	32
2834	29959	You can explain this to me next week or over the weekend.	You can explain this to me next week or over the weekend.	1431714	1471967337723	1471967337804	e	69
2834	29959	You can explain this to me next week or over the weekend.	You can explain this to me next week or over the weekend.	1431719	1471967337917	1471967338074	x	88
2834	29959	You can explain this to me next week or over the weekend.	You can explain this to me next week or over the weekend.	1431772	1471967338032	1471967338153	p	80
2834	29959	You can explain this to me next week or over the weekend.	You can explain this to me next week or over the weekend.	1431776	1471967338228	1471967338385	l	76
2834	29959	You can explain this to me next week or over the weekend.	You can explain this to me next week or over the weekend.	1431782	1471967338343	1471967338502	a	65
2834	29959	You can explain this to me next week or over the weekend.	You can explain this to me next week or over the weekend.	1431788	1471967338538	1471967338619	n	78
2834	29959	You can explain this to me next week or over the weekend.	You can explain this to me next week or over the weekend.	1431791	1471967338808	1471967338889	BKSP	8
2834	29959	You can explain this to me next week or over the weekend.	You can explain this to me next week or over the weekend.	1431796	1471967339078	1471967339199	i	73
2834	29959	You can explain this to me next week or over the weekend.	You can explain this to me next week or over the weekend.	1431835	1471967339193	1471967339314	n	78
2834	29959	You can explain this to me next week or over the weekend.	You can explain this to me next week or over the weekend.	1431841	1471967339350	1471967339396	 	32
2834	29959	You can explain this to me next week or over the weekend.	You can explain this to me next week or over the weekend.	1431846	1471967339545	1471967339625	t	84
2834	29959	You can explain this to me next week or over the weekend.	You can explain this to me next week or over the weekend.	1431851	1471967339583	1471967339676	h	72
2834	29959	You can explain this to me next week or over the weekend.	You can explain this to me next week or over the weekend.	1431856	1471967339712	1471967339793	i	73
2834	29959	You can explain this to me next week or over the weekend.	You can explain this to me next week or over the weekend.	1431861	1471967339830	1471967339910	s	83
2834	29959	You can explain this to me next week or over the weekend.	You can explain this to me next week or over the weekend.	1431876	1471967339913	1471967339990	 	32
2834	29959	You can explain this to me next week or over the weekend.	You can explain this to me next week or over the weekend.	1431878	1471967340026	1471967340107	t	84
2834	29959	You can explain this to me next week or over the weekend.	You can explain this to me next week or over the weekend.	1431880	1471967340065	1471967340186	o	79
2834	29959	You can explain this to me next week or over the weekend.	You can explain this to me next week or over the weekend.	1431882	1471967340144	1471967340226	 	32
2834	29959	You can explain this to me next week or over the weekend.	You can explain this to me next week or over the weekend.	1431883	1471967340301	1471967340421	m	77
2834	29959	You can explain this to me next week or over the weekend.	You can explain this to me next week or over the weekend.	1431977	1471967340378	1471967340499	e	69
2834	29959	You can explain this to me next week or over the weekend.	You can explain this to me next week or over the weekend.	1431979	1471967340502	1471967340578	 	32
2834	29959	You can explain this to me next week or over the weekend.	You can explain this to me next week or over the weekend.	1431982	1471967340653	1471967340810	n	78
2834	29959	You can explain this to me next week or over the weekend.	You can explain this to me next week or over the weekend.	1431983	1471967340768	1471967340851	e	69
2834	29959	You can explain this to me next week or over the weekend.	You can explain this to me next week or over the weekend.	1431985	1471967341538	1471967341657	x	88
2834	29959	You can explain this to me next week or over the weekend.	You can explain this to me next week or over the weekend.	1431987	1471967341778	1471967341859	t	84
2834	29959	You can explain this to me next week or over the weekend.	You can explain this to me next week or over the weekend.	1432036	1471967341896	1471967342015	 	32
2834	29959	You can explain this to me next week or over the weekend.	You can explain this to me next week or over the weekend.	1432038	1471967342089	1471967342208	w	87
2834	29959	You can explain this to me next week or over the weekend.	You can explain this to me next week or over the weekend.	1432039	1471967342321	1471967342401	e	69
2834	29959	You can explain this to me next week or over the weekend.	You can explain this to me next week or over the weekend.	1432041	1471967342514	1471967342633	e	69
2834	29959	You can explain this to me next week or over the weekend.	You can explain this to me next week or over the weekend.	1432044	1471967342669	1471967342788	k	75
2834	29959	You can explain this to me next week or over the weekend.	You can explain this to me next week or over the weekend.	1432087	1471967342825	1471967342906	 	32
2834	29959	You can explain this to me next week or over the weekend.	You can explain this to me next week or over the weekend.	1432091	1471967343018	1471967343102	o	79
2834	29959	You can explain this to me next week or over the weekend.	You can explain this to me next week or over the weekend.	1432096	1471967343095	1471967343178	r	82
2834	29959	You can explain this to me next week or over the weekend.	You can explain this to me next week or over the weekend.	1432100	1471967343214	1471967343295	 	32
2834	29959	You can explain this to me next week or over the weekend.	You can explain this to me next week or over the weekend.	1432104	1471967343408	1471967343527	o	79
2834	29959	You can explain this to me next week or over the weekend.	You can explain this to me next week or over the weekend.	1432118	1471967343485	1471967343568	v	86
2834	29959	You can explain this to me next week or over the weekend.	You can explain this to me next week or over the weekend.	1432124	1471967343681	1471967343800	e	69
2834	29959	You can explain this to me next week or over the weekend.	You can explain this to me next week or over the weekend.	1432126	1471967343757	1471967343879	r	82
2834	29959	You can explain this to me next week or over the weekend.	You can explain this to me next week or over the weekend.	1432132	1471967343836	1471967343919	 	32
2834	29959	You can explain this to me next week or over the weekend.	You can explain this to me next week or over the weekend.	1432139	1471967343956	1471967344037	t	84
2834	29959	You can explain this to me next week or over the weekend.	You can explain this to me next week or over the weekend.	1432182	1471967343995	1471967344122	h	72
2834	29959	You can explain this to me next week or over the weekend.	You can explain this to me next week or over the weekend.	1432184	1471967344080	1471967344202	e	69
2834	29959	You can explain this to me next week or over the weekend.	You can explain this to me next week or over the weekend.	1432189	1471967344125	1471967344208	 	32
2834	29959	You can explain this to me next week or over the weekend.	You can explain this to me next week or over the weekend.	1432196	1471967344393	1471967344512	w	87
2834	29959	You can explain this to me next week or over the weekend.	You can explain this to me next week or over the weekend.	1432203	1471967344586	1471967344667	e	69
2834	29959	You can explain this to me next week or over the weekend.	You can explain this to me next week or over the weekend.	1432208	1471967344742	1471967344822	e	69
2834	29959	You can explain this to me next week or over the weekend.	You can explain this to me next week or over the weekend.	1432227	1471967344825	1471967344901	k	75
2834	29959	You can explain this to me next week or over the weekend.	You can explain this to me next week or over the weekend.	1432233	1471967344938	1471967345056	e	69
2834	29959	You can explain this to me next week or over the weekend.	You can explain this to me next week or over the weekend.	1432240	1471967345059	1471967345183	n	78
2834	29959	You can explain this to me next week or over the weekend.	You can explain this to me next week or over the weekend.	1432244	1471967345177	1471967345304	d	68
2834	29959	You can explain this to me next week or over the weekend.	You can explain this to me next week or over the weekend.	1432248	1471967345340	1471967345436	.	190
2834	29978	He is close to full speed, says the Charlotte Observer.	He is close to full speed, says the Charlotte Observer.	1433098	1471967359082	1471967359239	SHIFT	16
2834	29978	He is close to full speed, says the Charlotte Observer.	He is close to full speed, says the Charlotte Observer.	1433100	1471967359197	1471967359279	H	72
2834	29978	He is close to full speed, says the Charlotte Observer.	He is close to full speed, says the Charlotte Observer.	1433103	1471967359354	1471967359474	e	69
2834	29978	He is close to full speed, says the Charlotte Observer.	He is close to full speed, says the Charlotte Observer.	1433107	1471967359431	1471967359514	 	32
2834	29978	He is close to full speed, says the Charlotte Observer.	He is close to full speed, says the Charlotte Observer.	1433111	1471967359627	1471967359708	i	73
2834	29978	He is close to full speed, says the Charlotte Observer.	He is close to full speed, says the Charlotte Observer.	1433114	1471967359782	1471967359863	s	83
2834	29978	He is close to full speed, says the Charlotte Observer.	He is close to full speed, says the Charlotte Observer.	1433134	1471967359821	1471967359904	 	32
2834	29978	He is close to full speed, says the Charlotte Observer.	He is close to full speed, says the Charlotte Observer.	1433137	1471967360093	1471967360173	c	67
2834	29978	He is close to full speed, says the Charlotte Observer.	He is close to full speed, says the Charlotte Observer.	1433140	1471967360176	1471967360214	l	76
2834	29978	He is close to full speed, says the Charlotte Observer.	He is close to full speed, says the Charlotte Observer.	1433144	1471967360327	1471967360411	o	79
2834	29978	He is close to full speed, says the Charlotte Observer.	He is close to full speed, says the Charlotte Observer.	1433146	1471967360404	1471967360525	s	83
2834	29978	He is close to full speed, says the Charlotte Observer.	He is close to full speed, says the Charlotte Observer.	1433149	1471967360562	1471967360680	e	69
2834	29978	He is close to full speed, says the Charlotte Observer.	He is close to full speed, says the Charlotte Observer.	1433169	1471967360683	1471967360760	 	32
2834	29978	He is close to full speed, says the Charlotte Observer.	He is close to full speed, says the Charlotte Observer.	1433171	1471967360796	1471967360877	t	84
2834	29978	He is close to full speed, says the Charlotte Observer.	He is close to full speed, says the Charlotte Observer.	1433174	1471967360835	1471967360932	o	79
2834	29978	He is close to full speed, says the Charlotte Observer.	He is close to full speed, says the Charlotte Observer.	1433178	1471967360935	1471967361050	 	32
2834	29978	He is close to full speed, says the Charlotte Observer.	He is close to full speed, says the Charlotte Observer.	1433182	1471967361086	1471967361204	f	70
2834	29978	He is close to full speed, says the Charlotte Observer.	He is close to full speed, says the Charlotte Observer.	1433231	1471967361207	1471967361284	u	85
2834	29978	He is close to full speed, says the Charlotte Observer.	He is close to full speed, says the Charlotte Observer.	1433234	1471967361397	1471967361439	l	76
2834	29978	He is close to full speed, says the Charlotte Observer.	He is close to full speed, says the Charlotte Observer.	1433237	1471967361552	1471967361633	l	76
2834	29978	He is close to full speed, says the Charlotte Observer.	He is close to full speed, says the Charlotte Observer.	1433239	1471967361784	1471967361826	 	32
2834	29978	He is close to full speed, says the Charlotte Observer.	He is close to full speed, says the Charlotte Observer.	1433240	1471967361981	1471967362100	s	83
2834	29978	He is close to full speed, says the Charlotte Observer.	He is close to full speed, says the Charlotte Observer.	1433263	1471967362175	1471967362294	p	80
2834	29978	He is close to full speed, says the Charlotte Observer.	He is close to full speed, says the Charlotte Observer.	1433264	1471967362330	1471967362411	e	69
2834	29978	He is close to full speed, says the Charlotte Observer.	He is close to full speed, says the Charlotte Observer.	1433265	1471967362638	1471967362719	e	69
2834	29978	He is close to full speed, says the Charlotte Observer.	He is close to full speed, says the Charlotte Observer.	1433266	1471967362838	1471967362956	d	68
2834	29978	He is close to full speed, says the Charlotte Observer.	He is close to full speed, says the Charlotte Observer.	1433267	1471967362959	1471967363036	,	188
2834	29978	He is close to full speed, says the Charlotte Observer.	He is close to full speed, says the Charlotte Observer.	1433293	1471967363111	1471967363191	 	32
2834	29978	He is close to full speed, says the Charlotte Observer.	He is close to full speed, says the Charlotte Observer.	1433294	1471967363342	1471967363461	s	83
2834	29978	He is close to full speed, says the Charlotte Observer.	He is close to full speed, says the Charlotte Observer.	1433295	1471967363536	1471967363654	a	65
2834	29978	He is close to full speed, says the Charlotte Observer.	He is close to full speed, says the Charlotte Observer.	1433296	1471967363657	1471967363734	y	89
2834	29978	He is close to full speed, says the Charlotte Observer.	He is close to full speed, says the Charlotte Observer.	1433297	1471967363808	1471967363927	s	83
2834	29978	He is close to full speed, says the Charlotte Observer.	He is close to full speed, says the Charlotte Observer.	1433328	1471967363964	1471967364047	 	32
2834	29978	He is close to full speed, says the Charlotte Observer.	He is close to full speed, says the Charlotte Observer.	1433334	1471967364041	1471967364123	t	84
2834	29978	He is close to full speed, says the Charlotte Observer.	He is close to full speed, says the Charlotte Observer.	1433339	1471967364160	1471967364279	h	72
2834	29978	He is close to full speed, says the Charlotte Observer.	He is close to full speed, says the Charlotte Observer.	1433342	1471967364199	1471967364320	e	69
2834	29978	He is close to full speed, says the Charlotte Observer.	He is close to full speed, says the Charlotte Observer.	1433428	1471967364282	1471967364360	 	32
2834	29978	He is close to full speed, says the Charlotte Observer.	He is close to full speed, says the Charlotte Observer.	1433436	1471967364473	1471967364669	SHIFT	16
2834	29978	He is close to full speed, says the Charlotte Observer.	He is close to full speed, says the Charlotte Observer.	1433432	1471967364550	1471967364664	C	67
2834	29978	He is close to full speed, says the Charlotte Observer.	He is close to full speed, says the Charlotte Observer.	1433440	1471967364739	1471967364896	a	65
2834	29978	He is close to full speed, says the Charlotte Observer.	He is close to full speed, says the Charlotte Observer.	1433443	1471967365353	1471967365396	BKSP	8
2834	29978	He is close to full speed, says the Charlotte Observer.	He is close to full speed, says the Charlotte Observer.	1433444	1471967365547	1471967365668	h	72
2834	29978	He is close to full speed, says the Charlotte Observer.	He is close to full speed, says the Charlotte Observer.	1433445	1471967365662	1471967365820	a	65
2834	29978	He is close to full speed, says the Charlotte Observer.	He is close to full speed, says the Charlotte Observer.	1433448	1471967365823	1471967365900	r	82
2834	29978	He is close to full speed, says the Charlotte Observer.	He is close to full speed, says the Charlotte Observer.	1433495	1471967366089	1471967366170	l	76
2834	29978	He is close to full speed, says the Charlotte Observer.	He is close to full speed, says the Charlotte Observer.	1433498	1471967366282	1471967366363	o	79
2834	29978	He is close to full speed, says the Charlotte Observer.	He is close to full speed, says the Charlotte Observer.	1433504	1471967366438	1471967366480	t	84
2834	29978	He is close to full speed, says the Charlotte Observer.	He is close to full speed, says the Charlotte Observer.	1433507	1471967366555	1471967366636	t	84
2834	29978	He is close to full speed, says the Charlotte Observer.	He is close to full speed, says the Charlotte Observer.	1433513	1471967366748	1471967366867	e	69
2834	29978	He is close to full speed, says the Charlotte Observer.	He is close to full speed, says the Charlotte Observer.	1433565	1471967366870	1471967366946	 	32
2834	29978	He is close to full speed, says the Charlotte Observer.	He is close to full speed, says the Charlotte Observer.	1433570	1471967367097	1471967367293	SHIFT	16
2834	29978	He is close to full speed, says the Charlotte Observer.	He is close to full speed, says the Charlotte Observer.	1433573	1471967367212	1471967367333	O	79
2834	29978	He is close to full speed, says the Charlotte Observer.	He is close to full speed, says the Charlotte Observer.	1433576	1471967367408	1471967367450	b	66
2834	29978	He is close to full speed, says the Charlotte Observer.	He is close to full speed, says the Charlotte Observer.	1433579	1471967367678	1471967367758	s	83
2834	29978	He is close to full speed, says the Charlotte Observer.	He is close to full speed, says the Charlotte Observer.	1433582	1471967367871	1471967367990	e	69
2834	29978	He is close to full speed, says the Charlotte Observer.	He is close to full speed, says the Charlotte Observer.	1433648	1471967367948	1471967368069	r	82
2834	29978	He is close to full speed, says the Charlotte Observer.	He is close to full speed, says the Charlotte Observer.	1433650	1471967368526	1471967368644	v	86
2834	29978	He is close to full speed, says the Charlotte Observer.	He is close to full speed, says the Charlotte Observer.	1433653	1471967368757	1471967368922	e	69
2834	29978	He is close to full speed, says the Charlotte Observer.	He is close to full speed, says the Charlotte Observer.	1433657	1471967368925	1471967369078	r	82
2834	29978	He is close to full speed, says the Charlotte Observer.	He is close to full speed, says the Charlotte Observer.	1433660	1471967369114	1471967369233	.	190
2834	30009	I hope you went.	I hope you went.	1434184	1471967377343	1471967377545	SHIFT	16
2834	30009	I hope you went.	I hope you went.	1434178	1471967377458	1471967377539	I	73
2834	30009	I hope you went.	I hope you went.	1434190	1471967377577	1471967377701	 	32
2834	30009	I hope you went.	I hope you went.	1434196	1471967377693	1471967377813	h	72
2834	30009	I hope you went.	I hope you went.	1434202	1471967377816	1471967377968	o	79
2834	30009	I hope you went.	I hope you went.	1434206	1471967377971	1471967378091	p	80
2834	30009	I hope you went.	I hope you went.	1434220	1471967378082	1471967378204	 	69
2834	30009	I hope you went.	I hope you went.	1434224	1471967378357	1471967378475	y	89
2834	30009	I hope you went.	I hope you went.	1434228	1471967378478	1471967378596	o	79
2834	30009	I hope you went.	I hope you went.	1434232	1471967378590	1471967378711	u	85
2834	30009	I hope you went.	I hope you went.	1434304	1471967378668	1471967378751	 	32
2834	30009	I hope you went.	I hope you went.	1434306	1471967378864	1471967378983	w	87
2834	30009	I hope you went.	I hope you went.	1434311	1471967379095	1471967379253	a	65
2834	30009	I hope you went.	I hope you went.	1434313	1471967379172	1471967379336	n	78
2834	30009	I hope you went.	I hope you went.	1434315	1471967379328	1471967379411	t	84
2834	30009	I hope you went.	I hope you went.	1434318	1471967379562	1471967379642	BKSP	8
2834	30009	I hope you went.	I hope you went.	1434320	1471967379736	1471967379817	BKSP	8
2834	30009	I hope you went.	I hope you went.	1434323	1471967379929	1471967380010	BKSP	8
2834	30009	I hope you went.	I hope you went.	1434326	1471967380046	1471967380166	e	69
2834	30009	I hope you went.	I hope you went.	1434333	1471967380123	1471967380287	n	78
2834	30009	I hope you went.	I hope you went.	1434336	1471967380279	1471967380369	t	84
2834	30009	I hope you went.	I hope you went.	1434342	1471967380372	1471967380487	.	190
