PARTICIPANT_ID	TEST_SECTION_ID	SENTENCE	USER_INPUT	KEYSTROKE_ID	PRESS_TIME	RELEASE_TIME	LETTER	KEYCODE
2895	30624	Please accept my apology.	Please accept my apology.	1462744	1471967769793	1471967770024	SHIFT	16
2895	30624	Please accept my apology.	Please accept my apology.	1462756	1471967769896	1471967770024	P	80
2895	30624	Please accept my apology.	Please accept my apology.	1462771	1471967770112	1471967770328	l	76
2895	30624	Please accept my apology.	Please accept my apology.	1462763	1471967770184	1471967770328	e	69
2895	30624	Please accept my apology.	Please accept my apology.	1462778	1471967770352	1471967770480	a	65
2895	30624	Please accept my apology.	Please accept my apology.	1462785	1471967770496	1471967770624	s	83
2895	30624	Please accept my apology.	Please accept my apology.	1462855	1471967770696	1471967770832	e	69
2895	30624	Please accept my apology.	Please accept my apology.	1462858	1471967770848	1471967770960	 	32
2895	30624	Please accept my apology.	Please accept my apology.	1462864	1471967771144	1471967771272	a	65
2895	30624	Please accept my apology.	Please accept my apology.	1462869	1471967771448	1471967771496	c	67
2895	30624	Please accept my apology.	Please accept my apology.	1462873	1471967771600	1471967771656	c	67
2895	30624	Please accept my apology.	Please accept my apology.	1462922	1471967771776	1471967771872	e	69
2895	30624	Please accept my apology.	Please accept my apology.	1462927	1471967771944	1471967772072	p	80
2895	30624	Please accept my apology.	Please accept my apology.	1462930	1471967772096	1471967772192	t	84
2895	30624	Please accept my apology.	Please accept my apology.	1462938	1471967772208	1471967772360	 	32
2895	30624	Please accept my apology.	Please accept my apology.	1462942	1471967772376	1471967772464	m	77
2895	30624	Please accept my apology.	Please accept my apology.	1462993	1471967772576	1471967772672	y	89
2895	30624	Please accept my apology.	Please accept my apology.	1462997	1471967772696	1471967772800	 	32
2895	30624	Please accept my apology.	Please accept my apology.	1463003	1471967772808	1471967772951	a	65
2895	30624	Please accept my apology.	Please accept my apology.	1463009	1471967772912	1471967773000	p	80
2895	30624	Please accept my apology.	Please accept my apology.	1463017	1471967773120	1471967773215	o	79
2895	30624	Please accept my apology.	Please accept my apology.	1463090	1471967773328	1471967773415	l	76
2895	30624	Please accept my apology.	Please accept my apology.	1463096	1471967773504	1471967773608	o	79
2895	30624	Please accept my apology.	Please accept my apology.	1463104	1471967773688	1471967773791	g	71
2895	30624	Please accept my apology.	Please accept my apology.	1463110	1471967773784	1471967773880	y	89
2895	30624	Please accept my apology.	Please accept my apology.	1463114	1471967774007	1471967774112	.	190
2895	30635	What is the cost issue?	What is the cost issue?	1463438	1471967777320	1471967777519	SHIFT	16
2895	30635	What is the cost issue?	What is the cost issue?	1463444	1471967777416	1471967777576	W	87
2895	30635	What is the cost issue?	What is the cost issue?	1463449	1471967777608	1471967777735	h	72
2895	30635	What is the cost issue?	What is the cost issue?	1463454	1471967777760	1471967777935	a	65
2895	30635	What is the cost issue?	What is the cost issue?	1463460	1471967777928	1471967778055	t	84
2895	30635	What is the cost issue?	What is the cost issue?	1463480	1471967778016	1471967778143	 	32
2895	30635	What is the cost issue?	What is the cost issue?	1463482	1471967778152	1471967778240	i	73
2895	30635	What is the cost issue?	What is the cost issue?	1463487	1471967778240	1471967778336	s	83
2895	30635	What is the cost issue?	What is the cost issue?	1463491	1471967778336	1471967778415	 	32
2895	30635	What is the cost issue?	What is the cost issue?	1463498	1471967778432	1471967778559	t	84
2895	30635	What is the cost issue?	What is the cost issue?	1463534	1471967778528	1471967778631	h	72
2895	30635	What is the cost issue?	What is the cost issue?	1463541	1471967778616	1471967778735	e	69
2895	30635	What is the cost issue?	What is the cost issue?	1463550	1471967778680	1471967778823	 	32
2895	30635	What is the cost issue?	What is the cost issue?	1463556	1471967778880	1471967779007	c	67
2895	30635	What is the cost issue?	What is the cost issue?	1463559	1471967779000	1471967779119	o	79
2895	30635	What is the cost issue?	What is the cost issue?	1463565	1471967779120	1471967779215	s	83
2895	30635	What is the cost issue?	What is the cost issue?	1463594	1471967779280	1471967779415	t	84
2895	30635	What is the cost issue?	What is the cost issue?	1463596	1471967779400	1471967779496	 	32
2895	30635	What is the cost issue?	What is the cost issue?	1463599	1471967779576	1471967779671	i	73
2895	30635	What is the cost issue?	What is the cost issue?	1463602	1471967779728	1471967779791	s	83
2895	30635	What is the cost issue?	What is the cost issue?	1463605	1471967779872	1471967779991	s	83
2895	30635	What is the cost issue?	What is the cost issue?	1463648	1471967779993	1471967780071	u	85
2895	30635	What is the cost issue?	What is the cost issue?	1463651	1471967780144	1471967780271	e	69
2895	30635	What is the cost issue?	What is the cost issue?	1463654	1471967780391	1471967780599	SHIFT	16
2895	30635	What is the cost issue?	What is the cost issue?	1463657	1471967780472	1471967780631	?	191
2895	30648	Mansell has not forgotten what the ovals have meant to him, however.	Mansell has not forgotten what the ovals have meant to him, however.	1464247	1471967787607	1471967787895	SHIFT	16
2895	30648	Mansell has not forgotten what the ovals have meant to him, however.	Mansell has not forgotten what the ovals have meant to him, however.	1464242	1471967787752	1471967787879	M	77
2895	30648	Mansell has not forgotten what the ovals have meant to him, however.	Mansell has not forgotten what the ovals have meant to him, however.	1464254	1471967788016	1471967788175	a	65
2895	30648	Mansell has not forgotten what the ovals have meant to him, however.	Mansell has not forgotten what the ovals have meant to him, however.	1464258	1471967788128	1471967788223	n	78
2895	30648	Mansell has not forgotten what the ovals have meant to him, however.	Mansell has not forgotten what the ovals have meant to him, however.	1464267	1471967788328	1471967788471	s	83
2895	30648	Mansell has not forgotten what the ovals have meant to him, however.	Mansell has not forgotten what the ovals have meant to him, however.	1464277	1471967788528	1471967788639	e	69
2895	30648	Mansell has not forgotten what the ovals have meant to him, however.	Mansell has not forgotten what the ovals have meant to him, however.	1464317	1471967788711	1471967788791	l	76
2895	30648	Mansell has not forgotten what the ovals have meant to him, however.	Mansell has not forgotten what the ovals have meant to him, however.	1464321	1471967788872	1471967788999	l	76
2895	30648	Mansell has not forgotten what the ovals have meant to him, however.	Mansell has not forgotten what the ovals have meant to him, however.	1464324	1471967789008	1471967789159	 	32
2895	30648	Mansell has not forgotten what the ovals have meant to him, however.	Mansell has not forgotten what the ovals have meant to him, however.	1464329	1471967789136	1471967789239	h	72
2895	30648	Mansell has not forgotten what the ovals have meant to him, however.	Mansell has not forgotten what the ovals have meant to him, however.	1464367	1471967789223	1471967789367	a	65
2895	30648	Mansell has not forgotten what the ovals have meant to him, however.	Mansell has not forgotten what the ovals have meant to him, however.	1464371	1471967789375	1471967789527	s	83
2895	30648	Mansell has not forgotten what the ovals have meant to him, however.	Mansell has not forgotten what the ovals have meant to him, however.	1464376	1471967789496	1471967789583	 	32
2895	30648	Mansell has not forgotten what the ovals have meant to him, however.	Mansell has not forgotten what the ovals have meant to him, however.	1464381	1471967789615	1471967789775	n	78
2895	30648	Mansell has not forgotten what the ovals have meant to him, however.	Mansell has not forgotten what the ovals have meant to him, however.	1464387	1471967789720	1471967789855	o	79
2895	30648	Mansell has not forgotten what the ovals have meant to him, however.	Mansell has not forgotten what the ovals have meant to him, however.	1464439	1471967789815	1471967789959	t	84
2895	30648	Mansell has not forgotten what the ovals have meant to him, however.	Mansell has not forgotten what the ovals have meant to him, however.	1464446	1471967789944	1471967790031	 	32
2895	30648	Mansell has not forgotten what the ovals have meant to him, however.	Mansell has not forgotten what the ovals have meant to him, however.	1464456	1471967790103	1471967790206	f	70
2895	30648	Mansell has not forgotten what the ovals have meant to him, however.	Mansell has not forgotten what the ovals have meant to him, however.	1464460	1471967790191	1471967790287	o	79
2895	30648	Mansell has not forgotten what the ovals have meant to him, however.	Mansell has not forgotten what the ovals have meant to him, however.	1464468	1471967790327	1471967790399	r	82
2895	30648	Mansell has not forgotten what the ovals have meant to him, however.	Mansell has not forgotten what the ovals have meant to him, however.	1464471	1471967790552	1471967790672	g	71
2895	30648	Mansell has not forgotten what the ovals have meant to him, however.	Mansell has not forgotten what the ovals have meant to him, however.	1464503	1471967790655	1471967790783	o	79
2895	30648	Mansell has not forgotten what the ovals have meant to him, however.	Mansell has not forgotten what the ovals have meant to him, however.	1464506	1471967790808	1471967790871	t	84
2895	30648	Mansell has not forgotten what the ovals have meant to him, however.	Mansell has not forgotten what the ovals have meant to him, however.	1464510	1471967790959	1471967791039	t	84
2895	30648	Mansell has not forgotten what the ovals have meant to him, however.	Mansell has not forgotten what the ovals have meant to him, however.	1464512	1471967791135	1471967791262	e	69
2895	30648	Mansell has not forgotten what the ovals have meant to him, however.	Mansell has not forgotten what the ovals have meant to him, however.	1464516	1471967791255	1471967791335	n	78
2895	30648	Mansell has not forgotten what the ovals have meant to him, however.	Mansell has not forgotten what the ovals have meant to him, however.	1464519	1471967791423	1471967791511	 	32
2895	30648	Mansell has not forgotten what the ovals have meant to him, however.	Mansell has not forgotten what the ovals have meant to him, however.	1464526	1471967791535	1471967791663	w	87
2895	30648	Mansell has not forgotten what the ovals have meant to him, however.	Mansell has not forgotten what the ovals have meant to him, however.	1464529	1471967791623	1471967791727	h	72
2895	30648	Mansell has not forgotten what the ovals have meant to him, however.	Mansell has not forgotten what the ovals have meant to him, however.	1464534	1471967791743	1471967791887	a	65
2895	30648	Mansell has not forgotten what the ovals have meant to him, however.	Mansell has not forgotten what the ovals have meant to him, however.	1464540	1471967791848	1471967791935	t	84
2895	30648	Mansell has not forgotten what the ovals have meant to him, however.	Mansell has not forgotten what the ovals have meant to him, however.	1464549	1471967791911	1471967791991	 	32
2895	30648	Mansell has not forgotten what the ovals have meant to him, however.	Mansell has not forgotten what the ovals have meant to him, however.	1464552	1471967792047	1471967792167	t	84
2895	30648	Mansell has not forgotten what the ovals have meant to him, however.	Mansell has not forgotten what the ovals have meant to him, however.	1464556	1471967792111	1471967792199	h	72
2895	30648	Mansell has not forgotten what the ovals have meant to him, however.	Mansell has not forgotten what the ovals have meant to him, however.	1464561	1471967792231	1471967792343	e	69
2895	30648	Mansell has not forgotten what the ovals have meant to him, however.	Mansell has not forgotten what the ovals have meant to him, however.	1464571	1471967792279	1471967792383	 	32
2895	30648	Mansell has not forgotten what the ovals have meant to him, however.	Mansell has not forgotten what the ovals have meant to him, however.	1464578	1471967792391	1471967792511	o	79
2895	30648	Mansell has not forgotten what the ovals have meant to him, however.	Mansell has not forgotten what the ovals have meant to him, however.	1464613	1471967792527	1471967792632	v	86
2895	30648	Mansell has not forgotten what the ovals have meant to him, however.	Mansell has not forgotten what the ovals have meant to him, however.	1464614	1471967792631	1471967792775	a	65
2895	30648	Mansell has not forgotten what the ovals have meant to him, however.	Mansell has not forgotten what the ovals have meant to him, however.	1464618	1471967792751	1471967792863	l	76
2895	30648	Mansell has not forgotten what the ovals have meant to him, however.	Mansell has not forgotten what the ovals have meant to him, however.	1464623	1471967792920	1471967793055	s	83
2895	30648	Mansell has not forgotten what the ovals have meant to him, however.	Mansell has not forgotten what the ovals have meant to him, however.	1464626	1471967793095	1471967793183	 	32
2895	30648	Mansell has not forgotten what the ovals have meant to him, however.	Mansell has not forgotten what the ovals have meant to him, however.	1464672	1471967793551	1471967793639	h	72
2895	30648	Mansell has not forgotten what the ovals have meant to him, however.	Mansell has not forgotten what the ovals have meant to him, however.	1464678	1471967793679	1471967793807	a	65
2895	30648	Mansell has not forgotten what the ovals have meant to him, however.	Mansell has not forgotten what the ovals have meant to him, however.	1464684	1471967793799	1471967793927	v	86
2895	30648	Mansell has not forgotten what the ovals have meant to him, however.	Mansell has not forgotten what the ovals have meant to him, however.	1464691	1471967793895	1471967794014	e	69
2895	30648	Mansell has not forgotten what the ovals have meant to him, however.	Mansell has not forgotten what the ovals have meant to him, however.	1464723	1471967793991	1471967794112	 	32
2895	30648	Mansell has not forgotten what the ovals have meant to him, however.	Mansell has not forgotten what the ovals have meant to him, however.	1464727	1471967794111	1471967794208	m	77
2895	30648	Mansell has not forgotten what the ovals have meant to him, however.	Mansell has not forgotten what the ovals have meant to him, however.	1464732	1471967794207	1471967794271	e	69
2895	30648	Mansell has not forgotten what the ovals have meant to him, however.	Mansell has not forgotten what the ovals have meant to him, however.	1464739	1471967794295	1471967794479	a	65
2895	30648	Mansell has not forgotten what the ovals have meant to him, however.	Mansell has not forgotten what the ovals have meant to him, however.	1464744	1471967794439	1471967794519	n	78
2895	30648	Mansell has not forgotten what the ovals have meant to him, however.	Mansell has not forgotten what the ovals have meant to him, however.	1464748	1471967794607	1471967794695	t	84
2895	30648	Mansell has not forgotten what the ovals have meant to him, however.	Mansell has not forgotten what the ovals have meant to him, however.	1464796	1471967794719	1471967794799	 	32
2895	30648	Mansell has not forgotten what the ovals have meant to him, however.	Mansell has not forgotten what the ovals have meant to him, however.	1464801	1471967794839	1471967794927	t	84
2895	30648	Mansell has not forgotten what the ovals have meant to him, however.	Mansell has not forgotten what the ovals have meant to him, however.	1464804	1471967794959	1471967795047	o	79
2895	30648	Mansell has not forgotten what the ovals have meant to him, however.	Mansell has not forgotten what the ovals have meant to him, however.	1464808	1471967795103	1471967795183	 	32
2895	30648	Mansell has not forgotten what the ovals have meant to him, however.	Mansell has not forgotten what the ovals have meant to him, however.	1464811	1471967795255	1471967795383	h	72
2895	30648	Mansell has not forgotten what the ovals have meant to him, however.	Mansell has not forgotten what the ovals have meant to him, however.	1464899	1471967795351	1471967795479	i	73
2895	30648	Mansell has not forgotten what the ovals have meant to him, however.	Mansell has not forgotten what the ovals have meant to him, however.	1464900	1471967795535	1471967795647	m	77
2895	30648	Mansell has not forgotten what the ovals have meant to him, however.	Mansell has not forgotten what the ovals have meant to him, however.	1464904	1471967795759	1471967795839	,	188
2895	30648	Mansell has not forgotten what the ovals have meant to him, however.	Mansell has not forgotten what the ovals have meant to him, however.	1464906	1471967795928	1471967796023	 	32
2895	30648	Mansell has not forgotten what the ovals have meant to him, however.	Mansell has not forgotten what the ovals have meant to him, however.	1464909	1471967796063	1471967796191	o	79
2895	30648	Mansell has not forgotten what the ovals have meant to him, however.	Mansell has not forgotten what the ovals have meant to him, however.	1464910	1471967796495	1471967796583	BKSP	8
2895	30648	Mansell has not forgotten what the ovals have meant to him, however.	Mansell has not forgotten what the ovals have meant to him, however.	1464912	1471967796871	1471967796967	o	79
2895	30648	Mansell has not forgotten what the ovals have meant to him, however.	Mansell has not forgotten what the ovals have meant to him, however.	1465044	1471967797327	1471967797407	BKSP	8
2895	30648	Mansell has not forgotten what the ovals have meant to him, however.	Mansell has not forgotten what the ovals have meant to him, however.	1465048	1471967797551	1471967797631	h	72
2895	30648	Mansell has not forgotten what the ovals have meant to him, however.	Mansell has not forgotten what the ovals have meant to him, however.	1465053	1471967797727	1471967797807	o	79
2895	30648	Mansell has not forgotten what the ovals have meant to him, however.	Mansell has not forgotten what the ovals have meant to him, however.	1465058	1471967797959	1471967798054	w	87
2895	30648	Mansell has not forgotten what the ovals have meant to him, however.	Mansell has not forgotten what the ovals have meant to him, however.	1465062	1471967798199	1471967798351	e	69
2895	30648	Mansell has not forgotten what the ovals have meant to him, however.	Mansell has not forgotten what the ovals have meant to him, however.	1465066	1471967798599	1471967798702	v	86
2895	30648	Mansell has not forgotten what the ovals have meant to him, however.	Mansell has not forgotten what the ovals have meant to him, however.	1465126	1471967798735	1471967798878	e	69
2895	30648	Mansell has not forgotten what the ovals have meant to him, however.	Mansell has not forgotten what the ovals have meant to him, however.	1465133	1471967798855	1471967798943	r	82
2895	30648	Mansell has not forgotten what the ovals have meant to him, however.	Mansell has not forgotten what the ovals have meant to him, however.	1465142	1471967799055	1471967799159	.	190
2895	30678	I'm on a plane.	I'm on a plane.	1465456	1471967803111	1471967803383	SHIFT	16
2895	30678	I'm on a plane.	I'm on a plane.	1465449	1471967803255	1471967803351	I	73
2895	30678	I'm on a plane.	I'm on a plane.	1465464	1471967803447	1471967803647	'	222
2895	30678	I'm on a plane.	I'm on a plane.	1465469	1471967803631	1471967803743	m	77
2895	30678	I'm on a plane.	I'm on a plane.	1465480	1471967803815	1471967803943	 	32
2895	30678	I'm on a plane.	I'm on a plane.	1465561	1471967803919	1471967804086	o	79
2895	30678	I'm on a plane.	I'm on a plane.	1465567	1471967804055	1471967804151	n	78
2895	30678	I'm on a plane.	I'm on a plane.	1465574	1471967804223	1471967804318	 	32
2895	30678	I'm on a plane.	I'm on a plane.	1465579	1471967804503	1471967804670	a	65
2895	30678	I'm on a plane.	I'm on a plane.	1465582	1471967804647	1471967804735	 	32
2895	30678	I'm on a plane.	I'm on a plane.	1465589	1471967804951	1471967805047	p	80
2895	30678	I'm on a plane.	I'm on a plane.	1465640	1471967805167	1471967805262	l	76
2895	30678	I'm on a plane.	I'm on a plane.	1465646	1471967805255	1471967805415	a	65
2895	30678	I'm on a plane.	I'm on a plane.	1465652	1471967805399	1471967805479	n	78
2895	30678	I'm on a plane.	I'm on a plane.	1465660	1471967805543	1471967805663	e	69
2895	30678	I'm on a plane.	I'm on a plane.	1465665	1471967805775	1471967805879	.	190
2895	30690	Binoche welcomed the movie industry to the French riviera.	Binoche wilcomed the movie industry to the French riviera.	1466178	1471967809998	1471967810534	SHIFT	16
2895	30690	Binoche welcomed the movie industry to the French riviera.	Binoche wilcomed the movie industry to the French riviera.	1466183	1471967810439	1471967810566	B	66
2895	30690	Binoche welcomed the movie industry to the French riviera.	Binoche wilcomed the movie industry to the French riviera.	1466190	1471967810679	1471967810790	i	73
2895	30690	Binoche welcomed the movie industry to the French riviera.	Binoche wilcomed the movie industry to the French riviera.	1466199	1471967810879	1471967811038	n	78
2895	30690	Binoche welcomed the movie industry to the French riviera.	Binoche wilcomed the movie industry to the French riviera.	1466206	1471967811031	1471967811158	o	79
2895	30690	Binoche welcomed the movie industry to the French riviera.	Binoche wilcomed the movie industry to the French riviera.	1466215	1471967811231	1471967811366	c	67
2895	30690	Binoche welcomed the movie industry to the French riviera.	Binoche wilcomed the movie industry to the French riviera.	1466268	1471967811319	1471967811422	h	72
2895	30690	Binoche welcomed the movie industry to the French riviera.	Binoche wilcomed the movie industry to the French riviera.	1466270	1471967811495	1471967811615	e	69
2895	30690	Binoche welcomed the movie industry to the French riviera.	Binoche wilcomed the movie industry to the French riviera.	1466276	1471967811687	1471967811782	 	32
2895	30690	Binoche welcomed the movie industry to the French riviera.	Binoche wilcomed the movie industry to the French riviera.	1466281	1471967811839	1471967811990	w	87
2895	30690	Binoche welcomed the movie industry to the French riviera.	Binoche wilcomed the movie industry to the French riviera.	1466285	1471967811927	1471967812030	i	73
2895	30690	Binoche welcomed the movie industry to the French riviera.	Binoche wilcomed the movie industry to the French riviera.	1466290	1471967812135	1471967812214	l	76
2895	30690	Binoche welcomed the movie industry to the French riviera.	Binoche wilcomed the movie industry to the French riviera.	1466337	1471967812551	1471967812726	c	67
2895	30690	Binoche welcomed the movie industry to the French riviera.	Binoche wilcomed the movie industry to the French riviera.	1466341	1471967812655	1471967812734	o	79
2895	30690	Binoche welcomed the movie industry to the French riviera.	Binoche wilcomed the movie industry to the French riviera.	1466344	1471967812831	1471967812942	m	77
2895	30690	Binoche welcomed the movie industry to the French riviera.	Binoche wilcomed the movie industry to the French riviera.	1466348	1471967812951	1471967813038	e	69
2895	30690	Binoche welcomed the movie industry to the French riviera.	Binoche wilcomed the movie industry to the French riviera.	1466353	1471967813151	1471967813294	d	68
2895	30690	Binoche welcomed the movie industry to the French riviera.	Binoche wilcomed the movie industry to the French riviera.	1466430	1471967813287	1471967813382	 	32
2895	30690	Binoche welcomed the movie industry to the French riviera.	Binoche wilcomed the movie industry to the French riviera.	1466433	1471967813487	1471967813614	t	84
2895	30690	Binoche welcomed the movie industry to the French riviera.	Binoche wilcomed the movie industry to the French riviera.	1466436	1471967813599	1471967813670	h	72
2895	30690	Binoche welcomed the movie industry to the French riviera.	Binoche wilcomed the movie industry to the French riviera.	1466439	1471967813783	1471967813902	e	69
2895	30690	Binoche welcomed the movie industry to the French riviera.	Binoche wilcomed the movie industry to the French riviera.	1466442	1471967813967	1471967814078	 	32
2895	30690	Binoche welcomed the movie industry to the French riviera.	Binoche wilcomed the movie industry to the French riviera.	1466445	1471967814615	1471967814742	m	77
2895	30690	Binoche welcomed the movie industry to the French riviera.	Binoche wilcomed the movie industry to the French riviera.	1466471	1471967814758	1471967814894	o	79
2895	30690	Binoche welcomed the movie industry to the French riviera.	Binoche wilcomed the movie industry to the French riviera.	1466476	1471967814919	1471967815046	v	86
2895	30690	Binoche welcomed the movie industry to the French riviera.	Binoche wilcomed the movie industry to the French riviera.	1466479	1471967815015	1471967815086	i	73
2895	30690	Binoche welcomed the movie industry to the French riviera.	Binoche wilcomed the movie industry to the French riviera.	1466486	1471967815143	1471967815270	e	69
2895	30690	Binoche welcomed the movie industry to the French riviera.	Binoche wilcomed the movie industry to the French riviera.	1466521	1471967815262	1471967815342	 	32
2895	30690	Binoche welcomed the movie industry to the French riviera.	Binoche wilcomed the movie industry to the French riviera.	1466523	1471967815351	1471967815462	i	73
2895	30690	Binoche welcomed the movie industry to the French riviera.	Binoche wilcomed the movie industry to the French riviera.	1466528	1471967815518	1471967815614	n	78
2895	30690	Binoche welcomed the movie industry to the French riviera.	Binoche wilcomed the movie industry to the French riviera.	1466535	1471967815711	1471967815838	d	68
2895	30690	Binoche welcomed the movie industry to the French riviera.	Binoche wilcomed the movie industry to the French riviera.	1466541	1471967815822	1471967815910	u	85
2895	30690	Binoche welcomed the movie industry to the French riviera.	Binoche wilcomed the movie industry to the French riviera.	1466548	1471967815951	1471967816046	s	83
2895	30690	Binoche welcomed the movie industry to the French riviera.	Binoche wilcomed the movie industry to the French riviera.	1466582	1471967816151	1471967816230	t	84
2895	30690	Binoche welcomed the movie industry to the French riviera.	Binoche wilcomed the movie industry to the French riviera.	1466585	1471967816343	1471967816430	r	82
2895	30690	Binoche welcomed the movie industry to the French riviera.	Binoche wilcomed the movie industry to the French riviera.	1466588	1471967816423	1471967816502	y	89
2895	30690	Binoche welcomed the movie industry to the French riviera.	Binoche wilcomed the movie industry to the French riviera.	1466591	1471967816574	1471967816662	 	32
2895	30690	Binoche welcomed the movie industry to the French riviera.	Binoche wilcomed the movie industry to the French riviera.	1466594	1471967816758	1471967816854	t	84
2895	30690	Binoche welcomed the movie industry to the French riviera.	Binoche wilcomed the movie industry to the French riviera.	1466632	1471967816815	1471967816910	o	79
2895	30690	Binoche welcomed the movie industry to the French riviera.	Binoche wilcomed the movie industry to the French riviera.	1466638	1471967816951	1471967817030	 	32
2895	30690	Binoche welcomed the movie industry to the French riviera.	Binoche wilcomed the movie industry to the French riviera.	1466645	1471967817054	1471967817159	t	84
2895	30690	Binoche welcomed the movie industry to the French riviera.	Binoche wilcomed the movie industry to the French riviera.	1466651	1471967817143	1471967817230	h	72
2895	30690	Binoche welcomed the movie industry to the French riviera.	Binoche wilcomed the movie industry to the French riviera.	1466657	1471967817239	1471967817374	e	69
2895	30690	Binoche welcomed the movie industry to the French riviera.	Binoche wilcomed the movie industry to the French riviera.	1466711	1471967817327	1471967817414	 	32
2895	30690	Binoche welcomed the movie industry to the French riviera.	Binoche wilcomed the movie industry to the French riviera.	1466717	1471967817462	1471967817670	SHIFT	16
2895	30690	Binoche welcomed the movie industry to the French riviera.	Binoche wilcomed the movie industry to the French riviera.	1466714	1471967817575	1471967817646	F	70
2895	30690	Binoche welcomed the movie industry to the French riviera.	Binoche wilcomed the movie industry to the French riviera.	1466721	1471967817783	1471967817926	r	82
2895	30690	Binoche welcomed the movie industry to the French riviera.	Binoche wilcomed the movie industry to the French riviera.	1466725	1471967817910	1471967818046	e	69
2895	30690	Binoche welcomed the movie industry to the French riviera.	Binoche wilcomed the movie industry to the French riviera.	1466730	1471967818047	1471967818134	n	78
2895	30690	Binoche welcomed the movie industry to the French riviera.	Binoche wilcomed the movie industry to the French riviera.	1466736	1471967818206	1471967818334	c	67
2895	30690	Binoche welcomed the movie industry to the French riviera.	Binoche wilcomed the movie industry to the French riviera.	1466805	1471967818327	1471967818406	h	72
2895	30690	Binoche welcomed the movie industry to the French riviera.	Binoche wilcomed the movie industry to the French riviera.	1466809	1471967818511	1471967818598	 	32
2895	30690	Binoche welcomed the movie industry to the French riviera.	Binoche wilcomed the movie industry to the French riviera.	1466812	1471967818767	1471967818910	r	82
2895	30690	Binoche welcomed the movie industry to the French riviera.	Binoche wilcomed the movie industry to the French riviera.	1466816	1471967818903	1471967818982	i	73
2895	30690	Binoche welcomed the movie industry to the French riviera.	Binoche wilcomed the movie industry to the French riviera.	1466820	1471967819118	1471967819262	v	86
2895	30690	Binoche welcomed the movie industry to the French riviera.	Binoche wilcomed the movie industry to the French riviera.	1466822	1471967819582	1471967819646	i	73
2895	30690	Binoche welcomed the movie industry to the French riviera.	Binoche wilcomed the movie industry to the French riviera.	1466887	1471967819838	1471967819998	e	69
2895	30690	Binoche welcomed the movie industry to the French riviera.	Binoche wilcomed the movie industry to the French riviera.	1466888	1471967819974	1471967820086	r	82
2895	30690	Binoche welcomed the movie industry to the French riviera.	Binoche wilcomed the movie industry to the French riviera.	1466890	1471967820198	1471967820366	a	65
2895	30690	Binoche welcomed the movie industry to the French riviera.	Binoche wilcomed the movie industry to the French riviera.	1466895	1471967820430	1471967820542	.	190
2895	30718	I am looking forward to the salad.	I am looking forward to the salad.	1467419	1471967824854	1471967825110	SHIFT	16
2895	30718	I am looking forward to the salad.	I am looking forward to the salad.	1467411	1471967824990	1471967825102	I	73
2895	30718	I am looking forward to the salad.	I am looking forward to the salad.	1467424	1471967825590	1471967825718	 	32
2895	30718	I am looking forward to the salad.	I am looking forward to the salad.	1467434	1471967825710	1471967825886	a	65
2895	30718	I am looking forward to the salad.	I am looking forward to the salad.	1467437	1471967825926	1471967826022	m	77
2895	30718	I am looking forward to the salad.	I am looking forward to the salad.	1467443	1471967826134	1471967826190	 	32
2895	30718	I am looking forward to the salad.	I am looking forward to the salad.	1467492	1471967826278	1471967826366	l	76
2895	30718	I am looking forward to the salad.	I am looking forward to the salad.	1467498	1471967826470	1471967826558	o	79
2895	30718	I am looking forward to the salad.	I am looking forward to the salad.	1467509	1471967826622	1471967826710	o	79
2895	30718	I am looking forward to the salad.	I am looking forward to the salad.	1467519	1471967826798	1471967826870	k	75
2895	30718	I am looking forward to the salad.	I am looking forward to the salad.	1467525	1471967826950	1471967827101	i	73
2895	30718	I am looking forward to the salad.	I am looking forward to the salad.	1467565	1471967827078	1471967827182	n	78
2895	30718	I am looking forward to the salad.	I am looking forward to the salad.	1467569	1471967827230	1471967827334	g	71
2895	30718	I am looking forward to the salad.	I am looking forward to the salad.	1467571	1471967827318	1471967827430	 	32
2895	30718	I am looking forward to the salad.	I am looking forward to the salad.	1467574	1471967827518	1471967827598	f	70
2895	30718	I am looking forward to the salad.	I am looking forward to the salad.	1467578	1471967827606	1471967827694	o	79
2895	30718	I am looking forward to the salad.	I am looking forward to the salad.	1467581	1471967827758	1471967827862	r	82
2895	30718	I am looking forward to the salad.	I am looking forward to the salad.	1467627	1471967828134	1471967828246	w	87
2895	30718	I am looking forward to the salad.	I am looking forward to the salad.	1467633	1471967828286	1471967828446	a	65
2895	30718	I am looking forward to the salad.	I am looking forward to the salad.	1467635	1471967828406	1471967828510	r	82
2895	30718	I am looking forward to the salad.	I am looking forward to the salad.	1467645	1471967828614	1471967828765	d	68
2895	30718	I am looking forward to the salad.	I am looking forward to the salad.	1467699	1471967828758	1471967828846	 	32
2895	30718	I am looking forward to the salad.	I am looking forward to the salad.	1467702	1471967828902	1471967829021	t	84
2895	30718	I am looking forward to the salad.	I am looking forward to the salad.	1467703	1471967828982	1471967829086	o	79
2895	30718	I am looking forward to the salad.	I am looking forward to the salad.	1467705	1471967829094	1471967829199	 	32
2895	30718	I am looking forward to the salad.	I am looking forward to the salad.	1467707	1471967829198	1471967829318	t	84
2895	30718	I am looking forward to the salad.	I am looking forward to the salad.	1467750	1471967829294	1471967829374	h	72
2895	30718	I am looking forward to the salad.	I am looking forward to the salad.	1467760	1471967829406	1471967829525	e	69
2895	30718	I am looking forward to the salad.	I am looking forward to the salad.	1467767	1471967829494	1471967829581	 	32
2895	30718	I am looking forward to the salad.	I am looking forward to the salad.	1467774	1471967829630	1471967829766	s	83
2895	30718	I am looking forward to the salad.	I am looking forward to the salad.	1467777	1471967829798	1471967829966	a	65
2895	30718	I am looking forward to the salad.	I am looking forward to the salad.	1467838	1471967829950	1471967830030	l	76
2895	30718	I am looking forward to the salad.	I am looking forward to the salad.	1467843	1471967830118	1471967830301	a	65
2895	30718	I am looking forward to the salad.	I am looking forward to the salad.	1467849	1471967830454	1471967830517	d	68
2895	30718	I am looking forward to the salad.	I am looking forward to the salad.	1467854	1471967830678	1471967830782	.	190
2895	30735	The law enforcement has responsibility for the safety of the public.	The law enforcement has responsibility for the safety of the public.	1468181	1471967835326	1471967835518	SHIFT	16
2895	30735	The law enforcement has responsibility for the safety of the public.	The law enforcement has responsibility for the safety of the public.	1468189	1471967835422	1471967835565	T	84
2895	30735	The law enforcement has responsibility for the safety of the public.	The law enforcement has responsibility for the safety of the public.	1468196	1471967835614	1471967835717	h	72
2895	30735	The law enforcement has responsibility for the safety of the public.	The law enforcement has responsibility for the safety of the public.	1468202	1471967835726	1471967835854	e	69
2895	30735	The law enforcement has responsibility for the safety of the public.	The law enforcement has responsibility for the safety of the public.	1468208	1471967835822	1471967835925	 	32
2895	30735	The law enforcement has responsibility for the safety of the public.	The law enforcement has responsibility for the safety of the public.	1468216	1471967835950	1471967836093	l	76
2895	30735	The law enforcement has responsibility for the safety of the public.	The law enforcement has responsibility for the safety of the public.	1468283	1471967836054	1471967836213	a	65
2895	30735	The law enforcement has responsibility for the safety of the public.	The law enforcement has responsibility for the safety of the public.	1468286	1471967836310	1471967836462	w	87
2895	30735	The law enforcement has responsibility for the safety of the public.	The law enforcement has responsibility for the safety of the public.	1468292	1471967836446	1471967836550	 	32
2895	30735	The law enforcement has responsibility for the safety of the public.	The law enforcement has responsibility for the safety of the public.	1468297	1471967836646	1471967836782	e	69
2895	30735	The law enforcement has responsibility for the safety of the public.	The law enforcement has responsibility for the safety of the public.	1468301	1471967836830	1471967836933	n	78
2895	30735	The law enforcement has responsibility for the safety of the public.	The law enforcement has responsibility for the safety of the public.	1468306	1471967837070	1471967837141	f	70
2895	30735	The law enforcement has responsibility for the safety of the public.	The law enforcement has responsibility for the safety of the public.	1468351	1471967837174	1471967837285	o	79
2895	30735	The law enforcement has responsibility for the safety of the public.	The law enforcement has responsibility for the safety of the public.	1468356	1471967837278	1471967837381	r	82
2895	30735	The law enforcement has responsibility for the safety of the public.	The law enforcement has responsibility for the safety of the public.	1468361	1471967837534	1471967837637	c	67
2895	30735	The law enforcement has responsibility for the safety of the public.	The law enforcement has responsibility for the safety of the public.	1468367	1471967837742	1471967837805	e	69
2895	30735	The law enforcement has responsibility for the safety of the public.	The law enforcement has responsibility for the safety of the public.	1468374	1471967837886	1471967837965	m	77
2895	30735	The law enforcement has responsibility for the safety of the public.	The law enforcement has responsibility for the safety of the public.	1468416	1471967837982	1471967838093	e	69
2895	30735	The law enforcement has responsibility for the safety of the public.	The law enforcement has responsibility for the safety of the public.	1468419	1471967838110	1471967838197	n	78
2895	30735	The law enforcement has responsibility for the safety of the public.	The law enforcement has responsibility for the safety of the public.	1468421	1471967838230	1471967838349	t	84
2895	30735	The law enforcement has responsibility for the safety of the public.	The law enforcement has responsibility for the safety of the public.	1468424	1471967838342	1471967838421	 	32
2895	30735	The law enforcement has responsibility for the safety of the public.	The law enforcement has responsibility for the safety of the public.	1468427	1471967838485	1471967838565	h	72
2895	30735	The law enforcement has responsibility for the safety of the public.	The law enforcement has responsibility for the safety of the public.	1468496	1471967838550	1471967838710	a	65
2895	30735	The law enforcement has responsibility for the safety of the public.	The law enforcement has responsibility for the safety of the public.	1468497	1471967838686	1471967838845	s	83
2895	30735	The law enforcement has responsibility for the safety of the public.	The law enforcement has responsibility for the safety of the public.	1468499	1471967838830	1471967838925	 	32
2895	30735	The law enforcement has responsibility for the safety of the public.	The law enforcement has responsibility for the safety of the public.	1468503	1471967839070	1471967839230	r	82
2895	30735	The law enforcement has responsibility for the safety of the public.	The law enforcement has responsibility for the safety of the public.	1468509	1471967839198	1471967839309	e	69
2895	30735	The law enforcement has responsibility for the safety of the public.	The law enforcement has responsibility for the safety of the public.	1468517	1471967839398	1471967839573	s	83
2895	30735	The law enforcement has responsibility for the safety of the public.	The law enforcement has responsibility for the safety of the public.	1468618	1471967839558	1471967839662	p	80
2895	30735	The law enforcement has responsibility for the safety of the public.	The law enforcement has responsibility for the safety of the public.	1468619	1471967839749	1471967839829	o	79
2895	30735	The law enforcement has responsibility for the safety of the public.	The law enforcement has responsibility for the safety of the public.	1468625	1471967839942	1471967840037	n	78
2895	30735	The law enforcement has responsibility for the safety of the public.	The law enforcement has responsibility for the safety of the public.	1468634	1471967840134	1471967840285	s	83
2895	30735	The law enforcement has responsibility for the safety of the public.	The law enforcement has responsibility for the safety of the public.	1468645	1471967840246	1471967840325	i	73
2895	30735	The law enforcement has responsibility for the safety of the public.	The law enforcement has responsibility for the safety of the public.	1468655	1471967840558	1471967840637	b	66
2895	30735	The law enforcement has responsibility for the safety of the public.	The law enforcement has responsibility for the safety of the public.	1468680	1471967840686	1471967840765	i	73
2895	30735	The law enforcement has responsibility for the safety of the public.	The law enforcement has responsibility for the safety of the public.	1468688	1471967840894	1471967841037	l	76
2895	30735	The law enforcement has responsibility for the safety of the public.	The law enforcement has responsibility for the safety of the public.	1468695	1471967841014	1471967841117	i	73
2895	30735	The law enforcement has responsibility for the safety of the public.	The law enforcement has responsibility for the safety of the public.	1468700	1471967841166	1471967841309	t	84
2895	30735	The law enforcement has responsibility for the safety of the public.	The law enforcement has responsibility for the safety of the public.	1468729	1471967841278	1471967841357	y	89
2895	30735	The law enforcement has responsibility for the safety of the public.	The law enforcement has responsibility for the safety of the public.	1468732	1471967841470	1471967841541	 	32
2895	30735	The law enforcement has responsibility for the safety of the public.	The law enforcement has responsibility for the safety of the public.	1468734	1471967841654	1471967841749	f	70
2895	30735	The law enforcement has responsibility for the safety of the public.	The law enforcement has responsibility for the safety of the public.	1468735	1471967841742	1471967841829	o	79
2895	30735	The law enforcement has responsibility for the safety of the public.	The law enforcement has responsibility for the safety of the public.	1468737	1471967841862	1471967841933	r	82
2895	30735	The law enforcement has responsibility for the safety of the public.	The law enforcement has responsibility for the safety of the public.	1468773	1471967841926	1471967842013	 	32
2895	30735	The law enforcement has responsibility for the safety of the public.	The law enforcement has responsibility for the safety of the public.	1468776	1471967842054	1471967842149	t	84
2895	30735	The law enforcement has responsibility for the safety of the public.	The law enforcement has responsibility for the safety of the public.	1468781	1471967842142	1471967842229	h	72
2895	30735	The law enforcement has responsibility for the safety of the public.	The law enforcement has responsibility for the safety of the public.	1468786	1471967842222	1471967842333	e	69
2895	30735	The law enforcement has responsibility for the safety of the public.	The law enforcement has responsibility for the safety of the public.	1468792	1471967842318	1471967842421	 	32
2895	30735	The law enforcement has responsibility for the safety of the public.	The law enforcement has responsibility for the safety of the public.	1468798	1471967842446	1471967842567	s	83
2895	30735	The law enforcement has responsibility for the safety of the public.	The law enforcement has responsibility for the safety of the public.	1468846	1471967842566	1471967842749	a	65
2895	30735	The law enforcement has responsibility for the safety of the public.	The law enforcement has responsibility for the safety of the public.	1468852	1471967842718	1471967842829	f	70
2895	30735	The law enforcement has responsibility for the safety of the public.	The law enforcement has responsibility for the safety of the public.	1468857	1471967842854	1471967842997	e	69
2895	30735	The law enforcement has responsibility for the safety of the public.	The law enforcement has responsibility for the safety of the public.	1468863	1471967843118	1471967843205	t	84
2895	30735	The law enforcement has responsibility for the safety of the public.	The law enforcement has responsibility for the safety of the public.	1468866	1471967843238	1471967843317	y	89
2895	30735	The law enforcement has responsibility for the safety of the public.	The law enforcement has responsibility for the safety of the public.	1468871	1471967843397	1471967843485	 	32
2895	30735	The law enforcement has responsibility for the safety of the public.	The law enforcement has responsibility for the safety of the public.	1468882	1471967843526	1471967843621	o	79
2895	30735	The law enforcement has responsibility for the safety of the public.	The law enforcement has responsibility for the safety of the public.	1468886	1471967843606	1471967843709	f	70
2895	30735	The law enforcement has responsibility for the safety of the public.	The law enforcement has responsibility for the safety of the public.	1468888	1471967843726	1471967843805	 	32
2895	30735	The law enforcement has responsibility for the safety of the public.	The law enforcement has responsibility for the safety of the public.	1468892	1471967843838	1471967843917	t	84
2895	30735	The law enforcement has responsibility for the safety of the public.	The law enforcement has responsibility for the safety of the public.	1468935	1471967843910	1471967843997	h	72
2895	30735	The law enforcement has responsibility for the safety of the public.	The law enforcement has responsibility for the safety of the public.	1468938	1471967843990	1471967844101	e	69
2895	30735	The law enforcement has responsibility for the safety of the public.	The law enforcement has responsibility for the safety of the public.	1468942	1471967844078	1471967844181	 	32
2895	30735	The law enforcement has responsibility for the safety of the public.	The law enforcement has responsibility for the safety of the public.	1468948	1471967844270	1471967844421	p	80
2895	30735	The law enforcement has responsibility for the safety of the public.	The law enforcement has responsibility for the safety of the public.	1468954	1471967844374	1471967844485	u	85
2895	30735	The law enforcement has responsibility for the safety of the public.	The law enforcement has responsibility for the safety of the public.	1468961	1471967844598	1471967844717	b	66
2895	30735	The law enforcement has responsibility for the safety of the public.	The law enforcement has responsibility for the safety of the public.	1469009	1471967844702	1471967844877	l	76
2895	30735	The law enforcement has responsibility for the safety of the public.	The law enforcement has responsibility for the safety of the public.	1469012	1471967844846	1471967844941	i	73
2895	30735	The law enforcement has responsibility for the safety of the public.	The law enforcement has responsibility for the safety of the public.	1469015	1471967845038	1471967845173	c	67
2895	30735	The law enforcement has responsibility for the safety of the public.	The law enforcement has responsibility for the safety of the public.	1469018	1471967845254	1471967845365	.	190
2895	30758	Thank you for your support.	Thank you for your support.	1469254	1471967848517	1471967848765	SHIFT	16
2895	30758	Thank you for your support.	Thank you for your support.	1469256	1471967848669	1471967848829	T	84
2895	30758	Thank you for your support.	Thank you for your support.	1469260	1471967848846	1471967848925	h	72
2895	30758	Thank you for your support.	Thank you for your support.	1469262	1471967848941	1471967849117	a	65
2895	30758	Thank you for your support.	Thank you for your support.	1469265	1471967849037	1471967849181	n	78
2895	30758	Thank you for your support.	Thank you for your support.	1469310	1471967849157	1471967849253	k	75
2895	30758	Thank you for your support.	Thank you for your support.	1469312	1471967849365	1471967849453	 	32
2895	30758	Thank you for your support.	Thank you for your support.	1469313	1471967849525	1471967849613	y	89
2895	30758	Thank you for your support.	Thank you for your support.	1469314	1471967849654	1471967849781	o	79
2895	30758	Thank you for your support.	Thank you for your support.	1469315	1471967849725	1471967849885	u	85
2895	30758	Thank you for your support.	Thank you for your support.	1469360	1471967849846	1471967849941	 	32
2895	30758	Thank you for your support.	Thank you for your support.	1469363	1471967849981	1471967850069	f	70
2895	30758	Thank you for your support.	Thank you for your support.	1469367	1471967850029	1471967850141	o	79
2895	30758	Thank you for your support.	Thank you for your support.	1469371	1471967850213	1471967850285	r	82
2895	30758	Thank you for your support.	Thank you for your support.	1469374	1471967850334	1471967850413	 	32
2895	30758	Thank you for your support.	Thank you for your support.	1469379	1471967850510	1471967850581	y	89
2895	30758	Thank you for your support.	Thank you for your support.	1469400	1471967850597	1471967850741	o	79
2895	30758	Thank you for your support.	Thank you for your support.	1469405	1471967850701	1471967850805	u	85
2895	30758	Thank you for your support.	Thank you for your support.	1469411	1471967850813	1471967850933	r	82
2895	30758	Thank you for your support.	Thank you for your support.	1469414	1471967850917	1471967851021	 	32
2895	30758	Thank you for your support.	Thank you for your support.	1469420	1471967851061	1471967851221	s	83
2895	30758	Thank you for your support.	Thank you for your support.	1469474	1471967851181	1471967851277	u	85
2895	30758	Thank you for your support.	Thank you for your support.	1469480	1471967851349	1471967851429	p	80
2895	30758	Thank you for your support.	Thank you for your support.	1469486	1471967851485	1471967851591	p	80
2895	30758	Thank you for your support.	Thank you for your support.	1469492	1471967851590	1471967851732	o	79
2895	30758	Thank you for your support.	Thank you for your support.	1469497	1471967851725	1471967851805	r	82
2895	30758	Thank you for your support.	Thank you for your support.	1469502	1471967851909	1471967851981	t	84
2895	30758	Thank you for your support.	Thank you for your support.	1469511	1471967852077	1471967852181	.	190
2895	30771	Not like you'll get paid for it.	Not like you'll get paid for it.	1469794	1471967855125	1471967855405	SHIFT	16
2895	30771	Not like you'll get paid for it.	Not like you'll get paid for it.	1469788	1471967855269	1471967855381	N	78
2895	30771	Not like you'll get paid for it.	Not like you'll get paid for it.	1469800	1471967855525	1471967855621	o	79
2895	30771	Not like you'll get paid for it.	Not like you'll get paid for it.	1469807	1471967855613	1471967855741	t	84
2895	30771	Not like you'll get paid for it.	Not like you'll get paid for it.	1469814	1471967855765	1471967855853	 	32
2895	30771	Not like you'll get paid for it.	Not like you'll get paid for it.	1469819	1471967855933	1471967856021	l	76
2895	30771	Not like you'll get paid for it.	Not like you'll get paid for it.	1469865	1471967856117	1471967856197	i	73
2895	30771	Not like you'll get paid for it.	Not like you'll get paid for it.	1469871	1471967856341	1471967856413	k	75
2895	30771	Not like you'll get paid for it.	Not like you'll get paid for it.	1469877	1471967856493	1471967856613	e	69
2895	30771	Not like you'll get paid for it.	Not like you'll get paid for it.	1469883	1471967856621	1471967856701	 	32
2895	30771	Not like you'll get paid for it.	Not like you'll get paid for it.	1469887	1471967856813	1471967856901	y	89
2895	30771	Not like you'll get paid for it.	Not like you'll get paid for it.	1469979	1471967856941	1471967857093	o	79
2895	30771	Not like you'll get paid for it.	Not like you'll get paid for it.	1469986	1471967857293	1471967857397	u	85
2895	30771	Not like you'll get paid for it.	Not like you'll get paid for it.	1469989	1471967857797	1471967857925	'	222
2895	30771	Not like you'll get paid for it.	Not like you'll get paid for it.	1469995	1471967858077	1471967858149	l	76
2895	30771	Not like you'll get paid for it.	Not like you'll get paid for it.	1469998	1471967858245	1471967858333	l	76
2895	30771	Not like you'll get paid for it.	Not like you'll get paid for it.	1470038	1471967858421	1471967858501	 	32
2895	30771	Not like you'll get paid for it.	Not like you'll get paid for it.	1470043	1471967858717	1471967858812	g	71
2895	30771	Not like you'll get paid for it.	Not like you'll get paid for it.	1470051	1471967858909	1471967858981	e	69
2895	30771	Not like you'll get paid for it.	Not like you'll get paid for it.	1470057	1471967859037	1471967859148	t	84
2895	30771	Not like you'll get paid for it.	Not like you'll get paid for it.	1470073	1471967859141	1471967859253	 	32
2895	30771	Not like you'll get paid for it.	Not like you'll get paid for it.	1470077	1471967859325	1471967859453	p	80
2895	30771	Not like you'll get paid for it.	Not like you'll get paid for it.	1470082	1471967859389	1471967859573	a	65
2895	30771	Not like you'll get paid for it.	Not like you'll get paid for it.	1470085	1471967859533	1471967859597	i	73
2895	30771	Not like you'll get paid for it.	Not like you'll get paid for it.	1470088	1471967859693	1471967859828	d	68
2895	30771	Not like you'll get paid for it.	Not like you'll get paid for it.	1470100	1471967859821	1471967859892	 	32
2895	30771	Not like you'll get paid for it.	Not like you'll get paid for it.	1470105	1471967859941	1471967860004	f	70
2895	30771	Not like you'll get paid for it.	Not like you'll get paid for it.	1470108	1471967860037	1471967860108	o	79
2895	30771	Not like you'll get paid for it.	Not like you'll get paid for it.	1470113	1471967860125	1471967860205	r	82
2895	30771	Not like you'll get paid for it.	Not like you'll get paid for it.	1470122	1471967860205	1471967860293	 	32
2895	30771	Not like you'll get paid for it.	Not like you'll get paid for it.	1470129	1471967860309	1471967860396	i	73
2895	30771	Not like you'll get paid for it.	Not like you'll get paid for it.	1470151	1471967860389	1471967860493	t	84
2895	30771	Not like you'll get paid for it.	Not like you'll get paid for it.	1470156	1471967860597	1471967860693	.	190
2895	30781	his will be hard.	his will be hard.	1470371	1471967863461	1471967863628	h	72
2895	30781	his will be hard.	his will be hard.	1470374	1471967863597	1471967863709	i	73
2895	30781	his will be hard.	his will be hard.	1470378	1471967863741	1471967863884	s	83
2895	30781	his will be hard.	his will be hard.	1470383	1471967863877	1471967863997	 	32
2895	30781	his will be hard.	his will be hard.	1470387	1471967864029	1471967864181	w	87
2895	30781	his will be hard.	his will be hard.	1470439	1471967864117	1471967864205	i	73
2895	30781	his will be hard.	his will be hard.	1470443	1471967864309	1471967864380	l	76
2895	30781	his will be hard.	his will be hard.	1470445	1471967864501	1471967864581	l	76
2895	30781	his will be hard.	his will be hard.	1470448	1471967864693	1471967864789	 	32
2895	30781	his will be hard.	his will be hard.	1470451	1471967864869	1471967864949	b	66
2895	30781	his will be hard.	his will be hard.	1470456	1471967865037	1471967865157	e	69
2895	30781	his will be hard.	his will be hard.	1470509	1471967865125	1471967865196	 	32
2895	30781	his will be hard.	his will be hard.	1470513	1471967865261	1471967865380	h	72
2895	30781	his will be hard.	his will be hard.	1470516	1471967865349	1471967865541	a	65
2895	30781	his will be hard.	his will be hard.	1470519	1471967865501	1471967865612	r	82
2895	30781	his will be hard.	his will be hard.	1470522	1471967865733	1471967865869	d	68
2895	30781	his will be hard.	his will be hard.	1470524	1471967865925	1471967866021	.	190
2895	30789	I wanted to go drinking with you.	I wanted to go drinking with you.	1470749	1471967868540	1471967868788	SHIFT	16
2895	30789	I wanted to go drinking with you.	I wanted to go drinking with you.	1470742	1471967868661	1471967868781	I	73
2895	30789	I wanted to go drinking with you.	I wanted to go drinking with you.	1470755	1471967868853	1471967868990	 	32
2895	30789	I wanted to go drinking with you.	I wanted to go drinking with you.	1470763	1471967868973	1471967869108	w	87
2895	30789	I wanted to go drinking with you.	I wanted to go drinking with you.	1470769	1471967869101	1471967869308	a	65
2895	30789	I wanted to go drinking with you.	I wanted to go drinking with you.	1470802	1471967869204	1471967869332	n	78
2895	30789	I wanted to go drinking with you.	I wanted to go drinking with you.	1470806	1471967869341	1471967869476	t	84
2895	30789	I wanted to go drinking with you.	I wanted to go drinking with you.	1470810	1471967869517	1471967869604	e	69
2895	30789	I wanted to go drinking with you.	I wanted to go drinking with you.	1470812	1471967869693	1471967869812	d	68
2895	30789	I wanted to go drinking with you.	I wanted to go drinking with you.	1470814	1471967869781	1471967869868	 	32
2895	30789	I wanted to go drinking with you.	I wanted to go drinking with you.	1470818	1471967869941	1471967870076	t	84
2895	30789	I wanted to go drinking with you.	I wanted to go drinking with you.	1470858	1471967870020	1471967870100	o	79
2895	30789	I wanted to go drinking with you.	I wanted to go drinking with you.	1470862	1471967870157	1471967870244	 	32
2895	30789	I wanted to go drinking with you.	I wanted to go drinking with you.	1470865	1471967870277	1471967870388	g	71
2895	30789	I wanted to go drinking with you.	I wanted to go drinking with you.	1470870	1471967870381	1471967870468	o	79
2895	30789	I wanted to go drinking with you.	I wanted to go drinking with you.	1470875	1471967870533	1471967870652	 	32
2895	30789	I wanted to go drinking with you.	I wanted to go drinking with you.	1470880	1471967870733	1471967870844	d	68
2895	30789	I wanted to go drinking with you.	I wanted to go drinking with you.	1470939	1471967870933	1471967871052	r	82
2895	30789	I wanted to go drinking with you.	I wanted to go drinking with you.	1470945	1471967871045	1471967871124	i	73
2895	30789	I wanted to go drinking with you.	I wanted to go drinking with you.	1470950	1471967871205	1471967871308	n	78
2895	30789	I wanted to go drinking with you.	I wanted to go drinking with you.	1470953	1471967871341	1471967871420	k	75
2895	30789	I wanted to go drinking with you.	I wanted to go drinking with you.	1470956	1471967871565	1471967871716	i	73
2895	30789	I wanted to go drinking with you.	I wanted to go drinking with you.	1470991	1471967871693	1471967871812	n	78
2895	30789	I wanted to go drinking with you.	I wanted to go drinking with you.	1470993	1471967871853	1471967871972	g	71
2895	30789	I wanted to go drinking with you.	I wanted to go drinking with you.	1470995	1471967872045	1471967872132	 	32
2895	30789	I wanted to go drinking with you.	I wanted to go drinking with you.	1471000	1471967872341	1471967872476	w	87
2895	30789	I wanted to go drinking with you.	I wanted to go drinking with you.	1471007	1471967872445	1471967872524	i	73
2895	30789	I wanted to go drinking with you.	I wanted to go drinking with you.	1471013	1471967872573	1471967872700	t	84
2895	30789	I wanted to go drinking with you.	I wanted to go drinking with you.	1471045	1471967872637	1471967872716	h	72
2895	30789	I wanted to go drinking with you.	I wanted to go drinking with you.	1471049	1471967872805	1471967872892	 	32
2895	30789	I wanted to go drinking with you.	I wanted to go drinking with you.	1471052	1471967872965	1471967873044	y	89
2895	30789	I wanted to go drinking with you.	I wanted to go drinking with you.	1471058	1471967873076	1471967873221	o	79
2895	30789	I wanted to go drinking with you.	I wanted to go drinking with you.	1471061	1471967873165	1471967873276	u	85
2895	30789	I wanted to go drinking with you.	I wanted to go drinking with you.	1471062	1471967873405	1471967873516	.	190
2895	30801	Are we ready for this on Monday?	Are we ready for this on Monday?	1471350	1471967877164	1471967877388	SHIFT	16
2895	30801	Are we ready for this on Monday?	Are we ready for this on Monday?	1471353	1471967877284	1471967877444	A	65
2895	30801	Are we ready for this on Monday?	Are we ready for this on Monday?	1471356	1471967877564	1471967877716	r	82
2895	30801	Are we ready for this on Monday?	Are we ready for this on Monday?	1471361	1471967877684	1471967877812	e	69
2895	30801	Are we ready for this on Monday?	Are we ready for this on Monday?	1471364	1471967877837	1471967877932	 	32
2895	30801	Are we ready for this on Monday?	Are we ready for this on Monday?	1471368	1471967877956	1471967878116	w	87
2895	30801	Are we ready for this on Monday?	Are we ready for this on Monday?	1471408	1471967878068	1471967878212	e	69
2895	30801	Are we ready for this on Monday?	Are we ready for this on Monday?	1471412	1471967878220	1471967878324	 	32
2895	30801	Are we ready for this on Monday?	Are we ready for this on Monday?	1471417	1471967878380	1471967878516	r	82
2895	30801	Are we ready for this on Monday?	Are we ready for this on Monday?	1471419	1471967878476	1471967878612	e	69
2895	30801	Are we ready for this on Monday?	Are we ready for this on Monday?	1471421	1471967878604	1471967878780	a	65
2895	30801	Are we ready for this on Monday?	Are we ready for this on Monday?	1471449	1471967878764	1471967878916	d	68
2895	30801	Are we ready for this on Monday?	Are we ready for this on Monday?	1471455	1471967878860	1471967878932	y	89
2895	30801	Are we ready for this on Monday?	Are we ready for this on Monday?	1471462	1471967879004	1471967879092	 	32
2895	30801	Are we ready for this on Monday?	Are we ready for this on Monday?	1471470	1471967879116	1471967879204	f	70
2895	30801	Are we ready for this on Monday?	Are we ready for this on Monday?	1471476	1471967879212	1471967879300	o	79
2895	30801	Are we ready for this on Monday?	Are we ready for this on Monday?	1471482	1471967879308	1471967879396	r	82
2895	30801	Are we ready for this on Monday?	Are we ready for this on Monday?	1471493	1471967879397	1471967879484	 	32
2895	30801	Are we ready for this on Monday?	Are we ready for this on Monday?	1471497	1471967879516	1471967879628	t	84
2895	30801	Are we ready for this on Monday?	Are we ready for this on Monday?	1471501	1471967879580	1471967879708	h	72
2895	30801	Are we ready for this on Monday?	Are we ready for this on Monday?	1471504	1471967879652	1471967879763	i	73
2895	30801	Are we ready for this on Monday?	Are we ready for this on Monday?	1471563	1471967879756	1471967879900	s	83
2895	30801	Are we ready for this on Monday?	Are we ready for this on Monday?	1471566	1471967879868	1471967879964	 	32
2895	30801	Are we ready for this on Monday?	Are we ready for this on Monday?	1471572	1471967880076	1471967880188	o	79
2895	30801	Are we ready for this on Monday?	Are we ready for this on Monday?	1471577	1471967880220	1471967880300	n	78
2895	30801	Are we ready for this on Monday?	Are we ready for this on Monday?	1471582	1471967880372	1471967880492	 	32
2895	30801	Are we ready for this on Monday?	Are we ready for this on Monday?	1471606	1471967880588	1471967880820	SHIFT	16
2895	30801	Are we ready for this on Monday?	Are we ready for this on Monday?	1471584	1471967880692	1471967880780	M	77
2895	30801	Are we ready for this on Monday?	Are we ready for this on Monday?	1471609	1471967880860	1471967881020	o	79
2895	30801	Are we ready for this on Monday?	Are we ready for this on Monday?	1471613	1471967880988	1471967881100	n	78
2895	30801	Are we ready for this on Monday?	Are we ready for this on Monday?	1471618	1471967881164	1471967881300	d	68
2895	30801	Are we ready for this on Monday?	Are we ready for this on Monday?	1471621	1471967881308	1471967881476	a	65
2895	30801	Are we ready for this on Monday?	Are we ready for this on Monday?	1471645	1471967881396	1471967881500	y	89
2895	30801	Are we ready for this on Monday?	Are we ready for this on Monday?	1471647	1471967881604	1471967881812	SHIFT	16
2895	30801	Are we ready for this on Monday?	Are we ready for this on Monday?	1471646	1471967881692	1471967881804	?	191
2895	30810	I tried that to no avail.	I tried that to no avial.	1471794	1471967884092	1471967884388	SHIFT	16
2895	30810	I tried that to no avail.	I tried that to no avial.	1471792	1471967884244	1471967884340	I	73
2895	30810	I tried that to no avail.	I tried that to no avial.	1471797	1471967884484	1471967884612	 	32
2895	30810	I tried that to no avail.	I tried that to no avial.	1471799	1471967884644	1471967884708	t	84
2895	30810	I tried that to no avail.	I tried that to no avial.	1471801	1471967884828	1471967884926	r	82
2895	30810	I tried that to no avail.	I tried that to no avial.	1471844	1471967884924	1471967885012	i	73
2895	30810	I tried that to no avail.	I tried that to no avial.	1471846	1471967885092	1471967885164	e	69
2895	30810	I tried that to no avail.	I tried that to no avial.	1471848	1471967885284	1471967885428	d	68
2895	30810	I tried that to no avail.	I tried that to no avial.	1471850	1471967885380	1471967885460	 	32
2895	30810	I tried that to no avail.	I tried that to no avial.	1471855	1471967885660	1471967885820	t	84
2895	30810	I tried that to no avail.	I tried that to no avial.	1471871	1471967885756	1471967885852	h	72
2895	30810	I tried that to no avail.	I tried that to no avial.	1471874	1471967885884	1471967886027	a	65
2895	30810	I tried that to no avail.	I tried that to no avial.	1471877	1471967885988	1471967886116	t	84
2895	30810	I tried that to no avail.	I tried that to no avial.	1471881	1471967886084	1471967886172	 	32
2895	30810	I tried that to no avail.	I tried that to no avial.	1471886	1471967886324	1471967886436	t	84
2895	30810	I tried that to no avail.	I tried that to no avial.	1471890	1471967886460	1471967886540	o	79
2895	30810	I tried that to no avail.	I tried that to no avial.	1471916	1471967886604	1471967886700	 	32
2895	30810	I tried that to no avail.	I tried that to no avial.	1471922	1471967886820	1471967886924	n	78
2895	30810	I tried that to no avail.	I tried that to no avial.	1471929	1471967886956	1471967887044	o	79
2895	30810	I tried that to no avail.	I tried that to no avial.	1471933	1471967887124	1471967887212	 	32
2895	30810	I tried that to no avail.	I tried that to no avial.	1471940	1471967887244	1471967887420	a	65
2895	30810	I tried that to no avail.	I tried that to no avial.	1472007	1471967887452	1471967887588	v	86
2895	30810	I tried that to no avail.	I tried that to no avial.	1472010	1471967887596	1471967887668	i	73
2895	30810	I tried that to no avail.	I tried that to no avial.	1472012	1471967887644	1471967887780	a	65
2895	30810	I tried that to no avail.	I tried that to no avial.	1472015	1471967888524	1471967888620	l	76
2895	30810	I tried that to no avail.	I tried that to no avial.	1472020	1471967888812	1471967888908	.	190
2895	30820	Lusinchi is currently in Boston, MA, according to his attorney.	Lusinchi is currently in Bostan, MA, according to his attorney.	1472387	1471967893827	1471967894084	SHIFT	16
2895	30820	Lusinchi is currently in Boston, MA, according to his attorney.	Lusinchi is currently in Bostan, MA, according to his attorney.	1472386	1471967893932	1471967894067	L	76
2895	30820	Lusinchi is currently in Boston, MA, according to his attorney.	Lusinchi is currently in Bostan, MA, according to his attorney.	1472388	1471967894180	1471967894293	u	85
2895	30820	Lusinchi is currently in Boston, MA, according to his attorney.	Lusinchi is currently in Bostan, MA, according to his attorney.	1472389	1471967894292	1471967894459	s	83
2895	30820	Lusinchi is currently in Boston, MA, according to his attorney.	Lusinchi is currently in Bostan, MA, according to his attorney.	1472390	1471967895012	1471967895123	i	73
2895	30820	Lusinchi is currently in Boston, MA, according to his attorney.	Lusinchi is currently in Bostan, MA, according to his attorney.	1472393	1471967895252	1471967895387	n	78
2895	30820	Lusinchi is currently in Boston, MA, according to his attorney.	Lusinchi is currently in Bostan, MA, according to his attorney.	1472429	1471967895500	1471967895644	c	67
2895	30820	Lusinchi is currently in Boston, MA, according to his attorney.	Lusinchi is currently in Bostan, MA, according to his attorney.	1472430	1471967895612	1471967895707	h	72
2895	30820	Lusinchi is currently in Boston, MA, according to his attorney.	Lusinchi is currently in Bostan, MA, according to his attorney.	1472431	1471967895788	1471967895883	i	73
2895	30820	Lusinchi is currently in Boston, MA, according to his attorney.	Lusinchi is currently in Bostan, MA, according to his attorney.	1472432	1471967895988	1471967896083	 	32
2895	30820	Lusinchi is currently in Boston, MA, according to his attorney.	Lusinchi is currently in Bostan, MA, according to his attorney.	1472433	1471967896100	1471967896227	i	73
2895	30820	Lusinchi is currently in Boston, MA, according to his attorney.	Lusinchi is currently in Bostan, MA, according to his attorney.	1472446	1471967896236	1471967896395	s	83
2895	30820	Lusinchi is currently in Boston, MA, according to his attorney.	Lusinchi is currently in Bostan, MA, according to his attorney.	1472448	1471967896324	1471967896427	 	32
2895	30820	Lusinchi is currently in Boston, MA, according to his attorney.	Lusinchi is currently in Bostan, MA, according to his attorney.	1472452	1471967896532	1471967896667	c	67
2895	30820	Lusinchi is currently in Boston, MA, according to his attorney.	Lusinchi is currently in Bostan, MA, according to his attorney.	1472456	1471967896628	1471967896715	u	85
2895	30820	Lusinchi is currently in Boston, MA, according to his attorney.	Lusinchi is currently in Bostan, MA, according to his attorney.	1472461	1471967896804	1471967896875	r	82
2895	30820	Lusinchi is currently in Boston, MA, according to his attorney.	Lusinchi is currently in Bostan, MA, according to his attorney.	1472514	1471967896964	1471967897004	e	82
2895	30820	Lusinchi is currently in Boston, MA, according to his attorney.	Lusinchi is currently in Bostan, MA, according to his attorney.	1472521	1471967897532	1471967897651	n	78
2895	30820	Lusinchi is currently in Boston, MA, according to his attorney.	Lusinchi is currently in Bostan, MA, according to his attorney.	1472529	1471967897780	1471967897892	t	84
2895	30820	Lusinchi is currently in Boston, MA, according to his attorney.	Lusinchi is currently in Bostan, MA, according to his attorney.	1472535	1471967897908	1471967898011	l	76
2895	30820	Lusinchi is currently in Boston, MA, according to his attorney.	Lusinchi is currently in Bostan, MA, according to his attorney.	1472555	1471967898108	1471967898187	y	89
2895	30820	Lusinchi is currently in Boston, MA, according to his attorney.	Lusinchi is currently in Bostan, MA, according to his attorney.	1472559	1471967898244	1471967898388	 	32
2895	30820	Lusinchi is currently in Boston, MA, according to his attorney.	Lusinchi is currently in Bostan, MA, according to his attorney.	1472565	1471967898356	1471967898499	i	73
2895	30820	Lusinchi is currently in Boston, MA, according to his attorney.	Lusinchi is currently in Bostan, MA, according to his attorney.	1472571	1471967898508	1471967898619	n	78
2895	30820	Lusinchi is currently in Boston, MA, according to his attorney.	Lusinchi is currently in Bostan, MA, according to his attorney.	1472575	1471967898676	1471967898788	 	32
2895	30820	Lusinchi is currently in Boston, MA, according to his attorney.	Lusinchi is currently in Bostan, MA, according to his attorney.	1472630	1471967898883	1471967899067	SHIFT	16
2895	30820	Lusinchi is currently in Boston, MA, according to his attorney.	Lusinchi is currently in Bostan, MA, according to his attorney.	1472633	1471967899036	1471967899147	B	66
2895	30820	Lusinchi is currently in Boston, MA, according to his attorney.	Lusinchi is currently in Bostan, MA, according to his attorney.	1472641	1471967899179	1471967899291	o	79
2895	30820	Lusinchi is currently in Boston, MA, according to his attorney.	Lusinchi is currently in Bostan, MA, according to his attorney.	1472645	1471967899308	1471967899411	s	83
2895	30820	Lusinchi is currently in Boston, MA, according to his attorney.	Lusinchi is currently in Bostan, MA, according to his attorney.	1472649	1471967899508	1471967899611	t	84
2895	30820	Lusinchi is currently in Boston, MA, according to his attorney.	Lusinchi is currently in Bostan, MA, according to his attorney.	1472652	1471967899644	1471967899795	a	65
2895	30820	Lusinchi is currently in Boston, MA, according to his attorney.	Lusinchi is currently in Bostan, MA, according to his attorney.	1472719	1471967899788	1471967899875	n	78
2895	30820	Lusinchi is currently in Boston, MA, according to his attorney.	Lusinchi is currently in Bostan, MA, according to his attorney.	1472720	1471967900044	1471967900131	,	188
2895	30820	Lusinchi is currently in Boston, MA, according to his attorney.	Lusinchi is currently in Bostan, MA, according to his attorney.	1472723	1471967900236	1471967900323	 	32
2895	30820	Lusinchi is currently in Boston, MA, according to his attorney.	Lusinchi is currently in Bostan, MA, according to his attorney.	1472728	1471967900347	1471967901043	SHIFT	16
2895	30820	Lusinchi is currently in Boston, MA, according to his attorney.	Lusinchi is currently in Bostan, MA, according to his attorney.	1472724	1471967900476	1471967900571	M	77
2895	30820	Lusinchi is currently in Boston, MA, according to his attorney.	Lusinchi is currently in Bostan, MA, according to his attorney.	1472727	1471967900860	1471967901003	A	65
2895	30820	Lusinchi is currently in Boston, MA, according to his attorney.	Lusinchi is currently in Bostan, MA, according to his attorney.	1472731	1471967901228	1471967901315	,	188
2895	30820	Lusinchi is currently in Boston, MA, according to his attorney.	Lusinchi is currently in Bostan, MA, according to his attorney.	1472766	1471967901452	1471967901531	 	32
2895	30820	Lusinchi is currently in Boston, MA, according to his attorney.	Lusinchi is currently in Bostan, MA, according to his attorney.	1472771	1471967901627	1471967901779	a	65
2895	30820	Lusinchi is currently in Boston, MA, according to his attorney.	Lusinchi is currently in Bostan, MA, according to his attorney.	1472776	1471967901892	1471967901963	c	67
2895	30820	Lusinchi is currently in Boston, MA, according to his attorney.	Lusinchi is currently in Bostan, MA, according to his attorney.	1472781	1471967902052	1471967902163	c	67
2895	30820	Lusinchi is currently in Boston, MA, according to his attorney.	Lusinchi is currently in Bostan, MA, according to his attorney.	1472804	1471967902156	1471967902235	o	79
2895	30820	Lusinchi is currently in Boston, MA, according to his attorney.	Lusinchi is currently in Bostan, MA, according to his attorney.	1472805	1471967902300	1471967902411	r	82
2895	30820	Lusinchi is currently in Boston, MA, according to his attorney.	Lusinchi is currently in Bostan, MA, according to his attorney.	1472806	1471967902516	1471967902643	d	68
2895	30820	Lusinchi is currently in Boston, MA, according to his attorney.	Lusinchi is currently in Bostan, MA, according to his attorney.	1472808	1471967902612	1471967902755	i	73
2895	30820	Lusinchi is currently in Boston, MA, according to his attorney.	Lusinchi is currently in Bostan, MA, according to his attorney.	1472811	1471967902748	1471967902827	n	78
2895	30820	Lusinchi is currently in Boston, MA, according to his attorney.	Lusinchi is currently in Bostan, MA, according to his attorney.	1472842	1471967902812	1471967902899	g	71
2895	30820	Lusinchi is currently in Boston, MA, according to his attorney.	Lusinchi is currently in Bostan, MA, according to his attorney.	1472846	1471967902948	1471967903011	 	32
2895	30820	Lusinchi is currently in Boston, MA, according to his attorney.	Lusinchi is currently in Bostan, MA, according to his attorney.	1472855	1471967903052	1471967903171	t	84
2895	30820	Lusinchi is currently in Boston, MA, according to his attorney.	Lusinchi is currently in Bostan, MA, according to his attorney.	1472860	1471967903124	1471967903227	o	79
2895	30820	Lusinchi is currently in Boston, MA, according to his attorney.	Lusinchi is currently in Bostan, MA, according to his attorney.	1472866	1471967903212	1471967903299	 	32
2895	30820	Lusinchi is currently in Boston, MA, according to his attorney.	Lusinchi is currently in Bostan, MA, according to his attorney.	1472871	1471967903340	1471967903475	h	72
2895	30820	Lusinchi is currently in Boston, MA, according to his attorney.	Lusinchi is currently in Bostan, MA, according to his attorney.	1472895	1471967903451	1471967903571	i	73
2895	30820	Lusinchi is currently in Boston, MA, according to his attorney.	Lusinchi is currently in Bostan, MA, according to his attorney.	1472898	1471967903555	1471967903707	s	83
2895	30820	Lusinchi is currently in Boston, MA, according to his attorney.	Lusinchi is currently in Bostan, MA, according to his attorney.	1472900	1471967903700	1471967903787	 	32
2895	30820	Lusinchi is currently in Boston, MA, according to his attorney.	Lusinchi is currently in Bostan, MA, according to his attorney.	1472904	1471967903924	1471967904075	a	65
2895	30820	Lusinchi is currently in Boston, MA, according to his attorney.	Lusinchi is currently in Bostan, MA, according to his attorney.	1472906	1471967904203	1471967904275	t	84
2895	30820	Lusinchi is currently in Boston, MA, according to his attorney.	Lusinchi is currently in Bostan, MA, according to his attorney.	1472908	1471967904372	1471967904435	t	84
2895	30820	Lusinchi is currently in Boston, MA, according to his attorney.	Lusinchi is currently in Bostan, MA, according to his attorney.	1472931	1471967904468	1471967904555	o	79
2895	30820	Lusinchi is currently in Boston, MA, according to his attorney.	Lusinchi is currently in Bostan, MA, according to his attorney.	1472936	1471967904612	1471967904691	r	82
2895	30820	Lusinchi is currently in Boston, MA, according to his attorney.	Lusinchi is currently in Bostan, MA, according to his attorney.	1472939	1471967904820	1471967904915	n	78
2895	30820	Lusinchi is currently in Boston, MA, according to his attorney.	Lusinchi is currently in Bostan, MA, according to his attorney.	1472941	1471967904964	1471967905067	e	69
2895	30820	Lusinchi is currently in Boston, MA, according to his attorney.	Lusinchi is currently in Bostan, MA, according to his attorney.	1472943	1471967905108	1471967905187	y	89
2895	30820	Lusinchi is currently in Boston, MA, according to his attorney.	Lusinchi is currently in Bostan, MA, according to his attorney.	1472950	1471967905308	1471967905403	.	190
2895	30837	We will forward it to you as soon as we get it.	We will forward it to you as soon as we get it,	1473091	1471967907443	1471967907643	SHIFT	16
2895	30837	We will forward it to you as soon as we get it.	We will forward it to you as soon as we get it,	1473093	1471967907539	1471967907691	W	87
2895	30837	We will forward it to you as soon as we get it.	We will forward it to you as soon as we get it,	1473095	1471967907787	1471967907907	e	69
2895	30837	We will forward it to you as soon as we get it.	We will forward it to you as soon as we get it,	1473097	1471967907892	1471967907995	 	32
2895	30837	We will forward it to you as soon as we get it.	We will forward it to you as soon as we get it,	1473098	1471967908035	1471967908171	w	87
2895	30837	We will forward it to you as soon as we get it.	We will forward it to you as soon as we get it,	1473121	1471967908123	1471967908211	i	73
2895	30837	We will forward it to you as soon as we get it.	We will forward it to you as soon as we get it,	1473124	1471967908307	1471967908371	l	76
2895	30837	We will forward it to you as soon as we get it.	We will forward it to you as soon as we get it,	1473126	1471967908467	1471967908571	l	76
2895	30837	We will forward it to you as soon as we get it.	We will forward it to you as soon as we get it,	1473128	1471967908588	1471967908691	 	32
2895	30837	We will forward it to you as soon as we get it.	We will forward it to you as soon as we get it,	1473130	1471967908715	1471967908803	f	70
2895	30837	We will forward it to you as soon as we get it.	We will forward it to you as soon as we get it,	1473132	1471967908827	1471967908915	o	79
2895	30837	We will forward it to you as soon as we get it.	We will forward it to you as soon as we get it,	1473160	1471967908931	1471967909035	r	82
2895	30837	We will forward it to you as soon as we get it.	We will forward it to you as soon as we get it,	1473161	1471967909243	1471967909331	w	87
2895	30837	We will forward it to you as soon as we get it.	We will forward it to you as soon as we get it,	1473162	1471967909395	1471967909555	a	65
2895	30837	We will forward it to you as soon as we get it.	We will forward it to you as soon as we get it,	1473163	1471967909515	1471967909651	r	82
2895	30837	We will forward it to you as soon as we get it.	We will forward it to you as soon as we get it,	1473164	1471967909787	1471967909923	d	68
2895	30837	We will forward it to you as soon as we get it.	We will forward it to you as soon as we get it,	1473168	1471967909931	1471967910011	 	32
2895	30837	We will forward it to you as soon as we get it.	We will forward it to you as soon as we get it,	1473171	1471967910115	1471967910195	i	73
2895	30837	We will forward it to you as soon as we get it.	We will forward it to you as soon as we get it,	1473174	1471967910227	1471967910323	t	84
2895	30837	We will forward it to you as soon as we get it.	We will forward it to you as soon as we get it,	1473179	1471967910323	1471967910403	 	32
2895	30837	We will forward it to you as soon as we get it.	We will forward it to you as soon as we get it,	1473181	1471967910467	1471967910547	t	84
2895	30837	We will forward it to you as soon as we get it.	We will forward it to you as soon as we get it,	1473196	1471967910555	1471967910643	o	79
2895	30837	We will forward it to you as soon as we get it.	We will forward it to you as soon as we get it,	1473200	1471967910683	1471967910763	 	32
2895	30837	We will forward it to you as soon as we get it.	We will forward it to you as soon as we get it,	1473207	1471967910835	1471967910915	y	89
2895	30837	We will forward it to you as soon as we get it.	We will forward it to you as soon as we get it,	1473213	1471967910955	1471967911075	o	79
2895	30837	We will forward it to you as soon as we get it.	We will forward it to you as soon as we get it,	1473254	1471967911051	1471967911163	u	85
2895	30837	We will forward it to you as soon as we get it.	We will forward it to you as soon as we get it,	1473255	1471967911123	1471967911235	 	32
2895	30837	We will forward it to you as soon as we get it.	We will forward it to you as soon as we get it,	1473256	1471967911243	1471967911418	a	65
2895	30837	We will forward it to you as soon as we get it.	We will forward it to you as soon as we get it,	1473257	1471967911411	1471967911547	s	83
2895	30837	We will forward it to you as soon as we get it.	We will forward it to you as soon as we get it,	1473258	1471967911547	1471967911635	 	32
2895	30837	We will forward it to you as soon as we get it.	We will forward it to you as soon as we get it,	1473261	1471967911771	1471967911907	s	83
2895	30837	We will forward it to you as soon as we get it.	We will forward it to you as soon as we get it,	1473282	1471967911987	1471967912050	o	79
2895	30837	We will forward it to you as soon as we get it.	We will forward it to you as soon as we get it,	1473284	1471967912139	1471967912227	o	79
2895	30837	We will forward it to you as soon as we get it.	We will forward it to you as soon as we get it,	1473287	1471967912315	1471967912427	n	78
2895	30837	We will forward it to you as soon as we get it.	We will forward it to you as soon as we get it,	1473291	1471967912459	1471967912563	 	32
2895	30837	We will forward it to you as soon as we get it.	We will forward it to you as soon as we get it,	1473315	1471967912555	1471967912715	a	65
2895	30837	We will forward it to you as soon as we get it.	We will forward it to you as soon as we get it,	1473317	1471967912699	1471967912827	s	83
2895	30837	We will forward it to you as soon as we get it.	We will forward it to you as soon as we get it,	1473320	1471967912827	1471967912907	 	32
2895	30837	We will forward it to you as soon as we get it.	We will forward it to you as soon as we get it,	1473323	1471967912955	1471967913083	w	87
2895	30837	We will forward it to you as soon as we get it.	We will forward it to you as soon as we get it,	1473327	1471967913051	1471967913195	e	69
2895	30837	We will forward it to you as soon as we get it.	We will forward it to you as soon as we get it,	1473331	1471967913211	1471967913315	 	32
2895	30837	We will forward it to you as soon as we get it.	We will forward it to you as soon as we get it,	1473346	1471967913395	1471967913483	g	71
2895	30837	We will forward it to you as soon as we get it.	We will forward it to you as soon as we get it,	1473350	1471967913555	1471967913683	e	69
2895	30837	We will forward it to you as soon as we get it.	We will forward it to you as soon as we get it,	1473354	1471967913667	1471967913763	t	84
2895	30837	We will forward it to you as soon as we get it.	We will forward it to you as soon as we get it,	1473357	1471967913795	1471967913906	 	32
2895	30837	We will forward it to you as soon as we get it.	We will forward it to you as soon as we get it,	1473373	1471967913899	1471967913995	i	73
2895	30837	We will forward it to you as soon as we get it.	We will forward it to you as soon as we get it,	1473374	1471967914027	1471967914131	t	84
2895	30837	We will forward it to you as soon as we get it.	We will forward it to you as soon as we get it,	1473376	1471967914211	1471967914291	,	188
