PARTICIPANT_ID	TEST_SECTION_ID	SENTENCE	USER_INPUT	KEYSTROKE_ID	PRESS_TIME	RELEASE_TIME	LETTER	KEYCODE
3023	31986	I was going to call you but I hate to bother your holiday.	I was going to call you but I hate to bother your holiday.	1527243	1471969015981	1471969016161	SHIFT	16
3023	31986	I was going to call you but I hate to bother your holiday.	I was going to call you but I hate to bother your holiday.	1527246	1471969016117	1471969016241	I	73
3023	31986	I was going to call you but I hate to bother your holiday.	I was going to call you but I hate to bother your holiday.	1527250	1471969016287	1471969016436	w	87
3023	31986	I was going to call you but I hate to bother your holiday.	I was going to call you but I hate to bother your holiday.	1527254	1471969016522	1471969016692	a	65
3023	31986	I was going to call you but I hate to bother your holiday.	I was going to call you but I hate to bother your holiday.	1527260	1471969016914	1471969016980	BKSP	8
3023	31986	I was going to call you but I hate to bother your holiday.	I was going to call you but I hate to bother your holiday.	1527267	1471969017071	1471969017161	BKSP	8
3023	31986	I was going to call you but I hate to bother your holiday.	I was going to call you but I hate to bother your holiday.	1527274	1471969017357	1471969017462	 	32
3023	31986	I was going to call you but I hate to bother your holiday.	I was going to call you but I hate to bother your holiday.	1527281	1471969017705	1471969017821	w	87
3023	31986	I was going to call you but I hate to bother your holiday.	I was going to call you but I hate to bother your holiday.	1527294	1471969017891	1471969018038	a	65
3023	31986	I was going to call you but I hate to bother your holiday.	I was going to call you but I hate to bother your holiday.	1527296	1471969018028	1471969018154	s	83
3023	31986	I was going to call you but I hate to bother your holiday.	I was going to call you but I hate to bother your holiday.	1527299	1471969018159	1471969018311	 	32
3023	31986	I was going to call you but I hate to bother your holiday.	I was going to call you but I hate to bother your holiday.	1527302	1471969018334	1471969018469	g	71
3023	31986	I was going to call you but I hate to bother your holiday.	I was going to call you but I hate to bother your holiday.	1527306	1471969018494	1471969018620	o	79
3023	31986	I was going to call you but I hate to bother your holiday.	I was going to call you but I hate to bother your holiday.	1527340	1471969018696	1471969018816	i	73
3023	31986	I was going to call you but I hate to bother your holiday.	I was going to call you but I hate to bother your holiday.	1527342	1471969018862	1471969019023	n	78
3023	31986	I was going to call you but I hate to bother your holiday.	I was going to call you but I hate to bother your holiday.	1527349	1471969019159	1471969019306	 	32
3023	31986	I was going to call you but I hate to bother your holiday.	I was going to call you but I hate to bother your holiday.	1527352	1471969019330	1471969019391	g	71
3023	31986	I was going to call you but I hate to bother your holiday.	I was going to call you but I hate to bother your holiday.	1527355	1471969019521	1471969019622	BKSP	8
3023	31986	I was going to call you but I hate to bother your holiday.	I was going to call you but I hate to bother your holiday.	1527360	1471969019698	1471969019803	BKSP	8
3023	31986	I was going to call you but I hate to bother your holiday.	I was going to call you but I hate to bother your holiday.	1527364	1471969019877	1471969019980	g	71
3023	31986	I was going to call you but I hate to bother your holiday.	I was going to call you but I hate to bother your holiday.	1527388	1471969020011	1471969020122	 	32
3023	31986	I was going to call you but I hate to bother your holiday.	I was going to call you but I hate to bother your holiday.	1527393	1471969020232	1471969020337	t	84
3023	31986	I was going to call you but I hate to bother your holiday.	I was going to call you but I hate to bother your holiday.	1527400	1471969020317	1471969020471	o	79
3023	31986	I was going to call you but I hate to bother your holiday.	I was going to call you but I hate to bother your holiday.	1527407	1471969020492	1471969020607	 	32
3023	31986	I was going to call you but I hate to bother your holiday.	I was going to call you but I hate to bother your holiday.	1527414	1471969020623	1471969020763	a	65
3023	31986	I was going to call you but I hate to bother your holiday.	I was going to call you but I hate to bother your holiday.	1527487	1471969020753	1471969020920	c	67
3023	31986	I was going to call you but I hate to bother your holiday.	I was going to call you but I hate to bother your holiday.	1527489	1471969020915	1471969021035	a	65
3023	31986	I was going to call you but I hate to bother your holiday.	I was going to call you but I hate to bother your holiday.	1527495	1471969021010	1471969021110	l	76
3023	31986	I was going to call you but I hate to bother your holiday.	I was going to call you but I hate to bother your holiday.	1527499	1471969021323	1471969021428	BKSP	8
3023	31986	I was going to call you but I hate to bother your holiday.	I was going to call you but I hate to bother your holiday.	1527501	1471969021499	1471969021579	BKSP	8
3023	31986	I was going to call you but I hate to bother your holiday.	I was going to call you but I hate to bother your holiday.	1527504	1471969021640	1471969021730	BKSP	8
3023	31986	I was going to call you but I hate to bother your holiday.	I was going to call you but I hate to bother your holiday.	1527506	1471969021806	1471969021907	BKSP	8
3023	31986	I was going to call you but I hate to bother your holiday.	I was going to call you but I hate to bother your holiday.	1527509	1471969021992	1471969022156	c	67
3023	31986	I was going to call you but I hate to bother your holiday.	I was going to call you but I hate to bother your holiday.	1527512	1471969022149	1471969022290	a	65
3023	31986	I was going to call you but I hate to bother your holiday.	I was going to call you but I hate to bother your holiday.	1527516	1471969022320	1471969022425	l	76
3023	31986	I was going to call you but I hate to bother your holiday.	I was going to call you but I hate to bother your holiday.	1527567	1471969022486	1471969022595	l	76
3023	31986	I was going to call you but I hate to bother your holiday.	I was going to call you but I hate to bother your holiday.	1527572	1471969022697	1471969022833	 	32
3023	31986	I was going to call you but I hate to bother your holiday.	I was going to call you but I hate to bother your holiday.	1527575	1471969023710	1471969023828	y	89
3023	31986	I was going to call you but I hate to bother your holiday.	I was going to call you but I hate to bother your holiday.	1527581	1471969023810	1471969023925	o	79
3023	31986	I was going to call you but I hate to bother your holiday.	I was going to call you but I hate to bother your holiday.	1527586	1471969024021	1471969024172	u	85
3023	31986	I was going to call you but I hate to bother your holiday.	I was going to call you but I hate to bother your holiday.	1527618	1471969024202	1471969024308	 	32
3023	31986	I was going to call you but I hate to bother your holiday.	I was going to call you but I hate to bother your holiday.	1527621	1471969024417	1471969024547	b	66
3023	31986	I was going to call you but I hate to bother your holiday.	I was going to call you but I hate to bother your holiday.	1527626	1471969024623	1471969024754	u	85
3023	31986	I was going to call you but I hate to bother your holiday.	I was going to call you but I hate to bother your holiday.	1527631	1471969024804	1471969024930	t	84
3023	31986	I was going to call you but I hate to bother your holiday.	I was going to call you but I hate to bother your holiday.	1527634	1471969024971	1471969025090	 	32
3023	31986	I was going to call you but I hate to bother your holiday.	I was going to call you but I hate to bother your holiday.	1527671	1471969025399	1471969025575	SHIFT	16
3023	31986	I was going to call you but I hate to bother your holiday.	I was going to call you but I hate to bother your holiday.	1527674	1471969025489	1471969025619	I	73
3023	31986	I was going to call you but I hate to bother your holiday.	I was going to call you but I hate to bother your holiday.	1527676	1471969025624	1471969025715	 	32
3023	31986	I was going to call you but I hate to bother your holiday.	I was going to call you but I hate to bother your holiday.	1527679	1471969025791	1471969025901	h	72
3023	31986	I was going to call you but I hate to bother your holiday.	I was going to call you but I hate to bother your holiday.	1527684	1471969025892	1471969026068	a	65
3023	31986	I was going to call you but I hate to bother your holiday.	I was going to call you but I hate to bother your holiday.	1527690	1471969026094	1471969026264	t	84
3023	31986	I was going to call you but I hate to bother your holiday.	I was going to call you but I hate to bother your holiday.	1527721	1471969026299	1471969026479	e	69
3023	31986	I was going to call you but I hate to bother your holiday.	I was going to call you but I hate to bother your holiday.	1527724	1471969026515	1471969026635	 	32
3023	31986	I was going to call you but I hate to bother your holiday.	I was going to call you but I hate to bother your holiday.	1527727	1471969026746	1471969026866	t	84
3023	31986	I was going to call you but I hate to bother your holiday.	I was going to call you but I hate to bother your holiday.	1527729	1471969026851	1471969026998	o	79
3023	31986	I was going to call you but I hate to bother your holiday.	I was going to call you but I hate to bother your holiday.	1527731	1471969027013	1471969027133	 	32
3023	31986	I was going to call you but I hate to bother your holiday.	I was going to call you but I hate to bother your holiday.	1527776	1471969027275	1471969027365	b	66
3023	31986	I was going to call you but I hate to bother your holiday.	I was going to call you but I hate to bother your holiday.	1527779	1471969027486	1471969027610	o	79
3023	31986	I was going to call you but I hate to bother your holiday.	I was going to call you but I hate to bother your holiday.	1527787	1471969027602	1471969027738	t	84
3023	31986	I was going to call you but I hate to bother your holiday.	I was going to call you but I hate to bother your holiday.	1527795	1471969027984	1471969028091	h	72
3023	31986	I was going to call you but I hate to bother your holiday.	I was going to call you but I hate to bother your holiday.	1527802	1471969028146	1471969028246	e	69
3023	31986	I was going to call you but I hate to bother your holiday.	I was going to call you but I hate to bother your holiday.	1527871	1471969028337	1471969028475	r	82
3023	31986	I was going to call you but I hate to bother your holiday.	I was going to call you but I hate to bother your holiday.	1527874	1471969028480	1471969028596	 	32
3023	31986	I was going to call you but I hate to bother your holiday.	I was going to call you but I hate to bother your holiday.	1527877	1471969029297	1471969029392	y	89
3023	31986	I was going to call you but I hate to bother your holiday.	I was going to call you but I hate to bother your holiday.	1527878	1471969029371	1471969029498	o	79
3023	31986	I was going to call you but I hate to bother your holiday.	I was going to call you but I hate to bother your holiday.	1527880	1471969029589	1471969029704	u	85
3023	31986	I was going to call you but I hate to bother your holiday.	I was going to call you but I hate to bother your holiday.	1527917	1471969029720	1471969029860	r	82
3023	31986	I was going to call you but I hate to bother your holiday.	I was going to call you but I hate to bother your holiday.	1527920	1471969029881	1471969030002	 	32
3023	31986	I was going to call you but I hate to bother your holiday.	I was going to call you but I hate to bother your holiday.	1527924	1471969030349	1471969030472	h	72
3023	31986	I was going to call you but I hate to bother your holiday.	I was going to call you but I hate to bother your holiday.	1527927	1471969030558	1471969030679	o	79
3023	31986	I was going to call you but I hate to bother your holiday.	I was going to call you but I hate to bother your holiday.	1527930	1471969030801	1471969030920	l	76
3023	31986	I was going to call you but I hate to bother your holiday.	I was going to call you but I hate to bother your holiday.	1527963	1471969031229	1471969031333	i	73
3023	31986	I was going to call you but I hate to bother your holiday.	I was going to call you but I hate to bother your holiday.	1527966	1471969031444	1471969031580	d	68
3023	31986	I was going to call you but I hate to bother your holiday.	I was going to call you but I hate to bother your holiday.	1527968	1471969031883	1471969032044	a	65
3023	31986	I was going to call you but I hate to bother your holiday.	I was going to call you but I hate to bother your holiday.	1527972	1471969032014	1471969032124	u	85
3023	31986	I was going to call you but I hate to bother your holiday.	I was going to call you but I hate to bother your holiday.	1527977	1471969032256	1471969032346	s	83
3023	31986	I was going to call you but I hate to bother your holiday.	I was going to call you but I hate to bother your holiday.	1528301	1471969032535	1471969032626	BKSP	8
3023	31986	I was going to call you but I hate to bother your holiday.	I was going to call you but I hate to bother your holiday.	1528304	1471969032707	1471969032776	BKSP	8
3023	31986	I was going to call you but I hate to bother your holiday.	I was going to call you but I hate to bother your holiday.	1528310	1471969033442	1471969033539	y	89
3023	31986	I was going to call you but I hate to bother your holiday.	I was going to call you but I hate to bother your holiday.	1528314	1471969034305	1471969034400	.	190
3023	32015	Clinton on the other hand, had backed a plan to convince Europe.	Clinton on the other hand, had backed a plan to convince Europe.	1528440	1471969040797	1471969041081	SHIFT	16
3023	32015	Clinton on the other hand, had backed a plan to convince Europe.	Clinton on the other hand, had backed a plan to convince Europe.	1528441	1471969041021	1471969041172	C	67
3023	32015	Clinton on the other hand, had backed a plan to convince Europe.	Clinton on the other hand, had backed a plan to convince Europe.	1528442	1471969041187	1471969041313	l	76
3023	32015	Clinton on the other hand, had backed a plan to convince Europe.	Clinton on the other hand, had backed a plan to convince Europe.	1528444	1471969041398	1471969041483	i	73
3023	32015	Clinton on the other hand, had backed a plan to convince Europe.	Clinton on the other hand, had backed a plan to convince Europe.	1528446	1471969041544	1471969041675	n	78
3023	32015	Clinton on the other hand, had backed a plan to convince Europe.	Clinton on the other hand, had backed a plan to convince Europe.	1528448	1471969041705	1471969041807	t	84
3023	32015	Clinton on the other hand, had backed a plan to convince Europe.	Clinton on the other hand, had backed a plan to convince Europe.	1528488	1471969041791	1471969041923	o	79
3023	32015	Clinton on the other hand, had backed a plan to convince Europe.	Clinton on the other hand, had backed a plan to convince Europe.	1528492	1471969041999	1471969042140	n	78
3023	32015	Clinton on the other hand, had backed a plan to convince Europe.	Clinton on the other hand, had backed a plan to convince Europe.	1528494	1471969042196	1471969042291	 	32
3023	32015	Clinton on the other hand, had backed a plan to convince Europe.	Clinton on the other hand, had backed a plan to convince Europe.	1528496	1471969042362	1471969042453	o	79
3023	32015	Clinton on the other hand, had backed a plan to convince Europe.	Clinton on the other hand, had backed a plan to convince Europe.	1528498	1471969042553	1471969042684	n	78
3023	32015	Clinton on the other hand, had backed a plan to convince Europe.	Clinton on the other hand, had backed a plan to convince Europe.	1528500	1471969042740	1471969042833	 	32
3023	32015	Clinton on the other hand, had backed a plan to convince Europe.	Clinton on the other hand, had backed a plan to convince Europe.	1528526	1471969042843	1471969042985	t	84
3023	32015	Clinton on the other hand, had backed a plan to convince Europe.	Clinton on the other hand, had backed a plan to convince Europe.	1528528	1471969042915	1471969043035	h	72
3023	32015	Clinton on the other hand, had backed a plan to convince Europe.	Clinton on the other hand, had backed a plan to convince Europe.	1528531	1471969043025	1471969043156	e	69
3023	32015	Clinton on the other hand, had backed a plan to convince Europe.	Clinton on the other hand, had backed a plan to convince Europe.	1528534	1471969043181	1471969043286	 	32
3023	32015	Clinton on the other hand, had backed a plan to convince Europe.	Clinton on the other hand, had backed a plan to convince Europe.	1528537	1471969043362	1471969043497	o	79
3023	32015	Clinton on the other hand, had backed a plan to convince Europe.	Clinton on the other hand, had backed a plan to convince Europe.	1528566	1471969043553	1471969043653	t	84
3023	32015	Clinton on the other hand, had backed a plan to convince Europe.	Clinton on the other hand, had backed a plan to convince Europe.	1528567	1471969043624	1471969043740	h	72
3023	32015	Clinton on the other hand, had backed a plan to convince Europe.	Clinton on the other hand, had backed a plan to convince Europe.	1528568	1471969043775	1471969043876	e	69
3023	32015	Clinton on the other hand, had backed a plan to convince Europe.	Clinton on the other hand, had backed a plan to convince Europe.	1528570	1471969043961	1471969044087	r	82
3023	32015	Clinton on the other hand, had backed a plan to convince Europe.	Clinton on the other hand, had backed a plan to convince Europe.	1528575	1471969044098	1471969044203	 	32
3023	32015	Clinton on the other hand, had backed a plan to convince Europe.	Clinton on the other hand, had backed a plan to convince Europe.	1528664	1471969044299	1471969044410	h	72
3023	32015	Clinton on the other hand, had backed a plan to convince Europe.	Clinton on the other hand, had backed a plan to convince Europe.	1528666	1471969044657	1471969044817	a	65
3023	32015	Clinton on the other hand, had backed a plan to convince Europe.	Clinton on the other hand, had backed a plan to convince Europe.	1528667	1471969044787	1471969044911	n	78
3023	32015	Clinton on the other hand, had backed a plan to convince Europe.	Clinton on the other hand, had backed a plan to convince Europe.	1528670	1471969044922	1471969045063	d	68
3023	32015	Clinton on the other hand, had backed a plan to convince Europe.	Clinton on the other hand, had backed a plan to convince Europe.	1528671	1471969045803	1471969045893	.	190
3023	32015	Clinton on the other hand, had backed a plan to convince Europe.	Clinton on the other hand, had backed a plan to convince Europe.	1528753	1471969046878	1471969046958	BKSP	8
3023	32015	Clinton on the other hand, had backed a plan to convince Europe.	Clinton on the other hand, had backed a plan to convince Europe.	1528756	1471969047463	1471969047569	,	188
3023	32015	Clinton on the other hand, had backed a plan to convince Europe.	Clinton on the other hand, had backed a plan to convince Europe.	1528760	1471969047795	1471969047898	 	32
3023	32015	Clinton on the other hand, had backed a plan to convince Europe.	Clinton on the other hand, had backed a plan to convince Europe.	1528764	1471969048271	1471969048388	h	72
3023	32015	Clinton on the other hand, had backed a plan to convince Europe.	Clinton on the other hand, had backed a plan to convince Europe.	1528767	1471969048438	1471969048543	a	65
3023	32015	Clinton on the other hand, had backed a plan to convince Europe.	Clinton on the other hand, had backed a plan to convince Europe.	1528769	1471969048549	1471969048714	d	68
3023	32015	Clinton on the other hand, had backed a plan to convince Europe.	Clinton on the other hand, had backed a plan to convince Europe.	1528875	1471969048709	1471969048840	 	32
3023	32015	Clinton on the other hand, had backed a plan to convince Europe.	Clinton on the other hand, had backed a plan to convince Europe.	1528877	1471969048939	1471969049039	a	65
3023	32015	Clinton on the other hand, had backed a plan to convince Europe.	Clinton on the other hand, had backed a plan to convince Europe.	1528880	1471969049418	1471969049532	BKSP	8
3023	32015	Clinton on the other hand, had backed a plan to convince Europe.	Clinton on the other hand, had backed a plan to convince Europe.	1528883	1471969049879	1471969050006	b	66
3023	32015	Clinton on the other hand, had backed a plan to convince Europe.	Clinton on the other hand, had backed a plan to convince Europe.	1528887	1471969050036	1471969050182	a	65
3023	32015	Clinton on the other hand, had backed a plan to convince Europe.	Clinton on the other hand, had backed a plan to convince Europe.	1528893	1471969050204	1471969050333	k	75
3023	32015	Clinton on the other hand, had backed a plan to convince Europe.	Clinton on the other hand, had backed a plan to convince Europe.	1528899	1471969050935	1471969051046	BKSP	8
3023	32015	Clinton on the other hand, had backed a plan to convince Europe.	Clinton on the other hand, had backed a plan to convince Europe.	1528904	1471969051172	1471969051293	c	67
3023	32015	Clinton on the other hand, had backed a plan to convince Europe.	Clinton on the other hand, had backed a plan to convince Europe.	1528930	1471969051298	1471969051403	k	75
3023	32015	Clinton on the other hand, had backed a plan to convince Europe.	Clinton on the other hand, had backed a plan to convince Europe.	1528935	1471969051424	1471969051519	e	69
3023	32015	Clinton on the other hand, had backed a plan to convince Europe.	Clinton on the other hand, had backed a plan to convince Europe.	1528941	1471969051620	1471969051735	d	68
3023	32015	Clinton on the other hand, had backed a plan to convince Europe.	Clinton on the other hand, had backed a plan to convince Europe.	1528947	1471969051802	1471969051921	 	32
3023	32015	Clinton on the other hand, had backed a plan to convince Europe.	Clinton on the other hand, had backed a plan to convince Europe.	1528952	1471969052144	1471969052269	a	65
3023	32015	Clinton on the other hand, had backed a plan to convince Europe.	Clinton on the other hand, had backed a plan to convince Europe.	1528997	1471969052284	1471969052396	 	32
3023	32015	Clinton on the other hand, had backed a plan to convince Europe.	Clinton on the other hand, had backed a plan to convince Europe.	1528998	1471969052486	1471969052607	p	80
3023	32015	Clinton on the other hand, had backed a plan to convince Europe.	Clinton on the other hand, had backed a plan to convince Europe.	1529002	1471969052708	1471969052812	l	76
3023	32015	Clinton on the other hand, had backed a plan to convince Europe.	Clinton on the other hand, had backed a plan to convince Europe.	1529005	1471969052838	1471969052952	a	65
3023	32015	Clinton on the other hand, had backed a plan to convince Europe.	Clinton on the other hand, had backed a plan to convince Europe.	1529011	1471969053003	1471969053119	n	78
3023	32015	Clinton on the other hand, had backed a plan to convince Europe.	Clinton on the other hand, had backed a plan to convince Europe.	1529058	1471969053235	1471969053355	 	32
3023	32015	Clinton on the other hand, had backed a plan to convince Europe.	Clinton on the other hand, had backed a plan to convince Europe.	1529060	1471969053537	1471969053647	t	84
3023	32015	Clinton on the other hand, had backed a plan to convince Europe.	Clinton on the other hand, had backed a plan to convince Europe.	1529063	1471969053586	1471969053728	o	79
3023	32015	Clinton on the other hand, had backed a plan to convince Europe.	Clinton on the other hand, had backed a plan to convince Europe.	1529066	1471969053774	1471969053878	 	32
3023	32015	Clinton on the other hand, had backed a plan to convince Europe.	Clinton on the other hand, had backed a plan to convince Europe.	1529069	1471969054091	1471969054231	c	67
3023	32015	Clinton on the other hand, had backed a plan to convince Europe.	Clinton on the other hand, had backed a plan to convince Europe.	1529135	1471969054197	1471969054317	o	79
3023	32015	Clinton on the other hand, had backed a plan to convince Europe.	Clinton on the other hand, had backed a plan to convince Europe.	1529137	1471969054408	1471969054534	n	78
3023	32015	Clinton on the other hand, had backed a plan to convince Europe.	Clinton on the other hand, had backed a plan to convince Europe.	1529141	1471969054594	1471969054710	c	67
3023	32015	Clinton on the other hand, had backed a plan to convince Europe.	Clinton on the other hand, had backed a plan to convince Europe.	1529144	1471969054887	1471969055010	BKSP	8
3023	32015	Clinton on the other hand, had backed a plan to convince Europe.	Clinton on the other hand, had backed a plan to convince Europe.	1529146	1471969055066	1471969055176	v	86
3023	32015	Clinton on the other hand, had backed a plan to convince Europe.	Clinton on the other hand, had backed a plan to convince Europe.	1529148	1471969055192	1471969055317	i	73
3023	32015	Clinton on the other hand, had backed a plan to convince Europe.	Clinton on the other hand, had backed a plan to convince Europe.	1529153	1471969055392	1471969055513	n	78
3023	32015	Clinton on the other hand, had backed a plan to convince Europe.	Clinton on the other hand, had backed a plan to convince Europe.	1529241	1471969055932	1471969056120	c	67
3023	32015	Clinton on the other hand, had backed a plan to convince Europe.	Clinton on the other hand, had backed a plan to convince Europe.	1529244	1471969056108	1471969056264	e	69
3023	32015	Clinton on the other hand, had backed a plan to convince Europe.	Clinton on the other hand, had backed a plan to convince Europe.	1529248	1471969056410	1471969056536	 	32
3023	32015	Clinton on the other hand, had backed a plan to convince Europe.	Clinton on the other hand, had backed a plan to convince Europe.	1529251	1471969056992	1471969057479	SHIFT	16
3023	32015	Clinton on the other hand, had backed a plan to convince Europe.	Clinton on the other hand, had backed a plan to convince Europe.	1529253	1471969057389	1471969057484	E	69
3023	32015	Clinton on the other hand, had backed a plan to convince Europe.	Clinton on the other hand, had backed a plan to convince Europe.	1529256	1471969057595	1471969057686	u	85
3023	32015	Clinton on the other hand, had backed a plan to convince Europe.	Clinton on the other hand, had backed a plan to convince Europe.	1529379	1471969057828	1471969057982	r	82
3023	32015	Clinton on the other hand, had backed a plan to convince Europe.	Clinton on the other hand, had backed a plan to convince Europe.	1529383	1471969058050	1471969058150	o	79
3023	32015	Clinton on the other hand, had backed a plan to convince Europe.	Clinton on the other hand, had backed a plan to convince Europe.	1529388	1471969058724	1471969058860	p	80
3023	32015	Clinton on the other hand, had backed a plan to convince Europe.	Clinton on the other hand, had backed a plan to convince Europe.	1529391	1471969058895	1471969059023	e	69
3023	32015	Clinton on the other hand, had backed a plan to convince Europe.	Clinton on the other hand, had backed a plan to convince Europe.	1529394	1471969059759	1471969059865	.	190
3023	32037	Had a great meeting.	Had a great meeting.	1529563	1471969062138	1471969062308	h	72
3023	32037	Had a great meeting.	Had a great meeting.	1529564	1471969062309	1471969062386	a	65
3023	32037	Had a great meeting.	Had a great meeting.	1529565	1471969062422	1471969062584	d	68
3023	32037	Had a great meeting.	Had a great meeting.	1529566	1471969062977	1471969063066	BKSP	8
3023	32037	Had a great meeting.	Had a great meeting.	1529567	1471969063132	1471969063227	BKSP	8
3023	32037	Had a great meeting.	Had a great meeting.	1529569	1471969063272	1471969063368	BKSP	8
3023	32037	Had a great meeting.	Had a great meeting.	1529571	1471969063474	1471969063641	SHIFT	16
3023	32037	Had a great meeting.	Had a great meeting.	1529573	1471969063575	1471969063691	H	72
3023	32037	Had a great meeting.	Had a great meeting.	1529575	1471969063762	1471969063892	a	65
3023	32037	Had a great meeting.	Had a great meeting.	1529642	1471969063926	1471969064073	d	68
3023	32037	Had a great meeting.	Had a great meeting.	1529645	1471969064476	1471969064596	 	32
3023	32037	Had a great meeting.	Had a great meeting.	1529648	1471969064658	1471969064797	a	65
3023	32037	Had a great meeting.	Had a great meeting.	1529652	1471969064789	1471969064889	 	32
3023	32037	Had a great meeting.	Had a great meeting.	1529656	1471969065395	1471969065554	g	71
3023	32037	Had a great meeting.	Had a great meeting.	1529693	1471969065547	1471969065657	r	82
3023	32037	Had a great meeting.	Had a great meeting.	1529695	1471969065733	1471969065870	e	69
3023	32037	Had a great meeting.	Had a great meeting.	1529698	1471969065909	1471969066078	a	65
3023	32037	Had a great meeting.	Had a great meeting.	1529700	1471969066071	1471969066201	t	84
3023	32037	Had a great meeting.	Had a great meeting.	1529703	1471969066282	1471969066408	 	32
3023	32037	Had a great meeting.	Had a great meeting.	1529706	1471969066584	1471969066715	m	77
3023	32037	Had a great meeting.	Had a great meeting.	1529739	1471969066689	1471969066770	e	69
3023	32037	Had a great meeting.	Had a great meeting.	1529741	1471969066846	1471969066977	e	69
3023	32037	Had a great meeting.	Had a great meeting.	1529743	1471969067048	1471969067165	t	84
3023	32037	Had a great meeting.	Had a great meeting.	1529745	1471969067312	1471969067417	i	73
3023	32037	Had a great meeting.	Had a great meeting.	1529747	1471969067508	1471969067650	n	78
3023	32037	Had a great meeting.	Had a great meeting.	1529819	1471969067639	1471969067760	g	71
3023	32037	Had a great meeting.	Had a great meeting.	1529821	1471969067795	1471969067905	 	32
3023	32037	Had a great meeting.	Had a great meeting.	1529828	1471969068497	1471969068592	BKSP	8
3023	32037	Had a great meeting.	Had a great meeting.	1529831	1471969069305	1471969069421	.	190
3023	32051	Hope you had a good weekend.	Hope you had a good weekend.	1529978	1471969071926	1471969072117	SHIFT	16
3023	32051	Hope you had a good weekend.	Hope you had a good weekend.	1529982	1471969072052	1471969072157	H	72
3023	32051	Hope you had a good weekend.	Hope you had a good weekend.	1529986	1471969072686	1471969072787	o	79
3023	32051	Hope you had a good weekend.	Hope you had a good weekend.	1529989	1471969072867	1471969072978	p	80
3023	32051	Hope you had a good weekend.	Hope you had a good weekend.	1529993	1471969073058	1471969073162	e	69
3023	32051	Hope you had a good weekend.	Hope you had a good weekend.	1529994	1471969073228	1471969073348	 	32
3023	32051	Hope you had a good weekend.	Hope you had a good weekend.	1530063	1471969073842	1471969073907	y	89
3023	32051	Hope you had a good weekend.	Hope you had a good weekend.	1530065	1471969073932	1471969073993	o	79
3023	32051	Hope you had a good weekend.	Hope you had a good weekend.	1530069	1471969074638	1471969074743	u	85
3023	32051	Hope you had a good weekend.	Hope you had a good weekend.	1530074	1471969074899	1471969075021	 	32
3023	32051	Hope you had a good weekend.	Hope you had a good weekend.	1530078	1471969075127	1471969075233	h	72
3023	32051	Hope you had a good weekend.	Hope you had a good weekend.	1530099	1471969075273	1471969075395	a	65
3023	32051	Hope you had a good weekend.	Hope you had a good weekend.	1530103	1471969075456	1471969075612	d	68
3023	32051	Hope you had a good weekend.	Hope you had a good weekend.	1530106	1471969075592	1471969075718	 	32
3023	32051	Hope you had a good weekend.	Hope you had a good weekend.	1530109	1471969075858	1471969076019	a	65
3023	32051	Hope you had a good weekend.	Hope you had a good weekend.	1530134	1471969075959	1471969076085	 	32
3023	32051	Hope you had a good weekend.	Hope you had a good weekend.	1530136	1471969076150	1471969076272	g	71
3023	32051	Hope you had a good weekend.	Hope you had a good weekend.	1530141	1471969076276	1471969076378	o	79
3023	32051	Hope you had a good weekend.	Hope you had a good weekend.	1530147	1471969076423	1471969076513	o	79
3023	32051	Hope you had a good weekend.	Hope you had a good weekend.	1530151	1471969076543	1471969076674	d	68
3023	32051	Hope you had a good weekend.	Hope you had a good weekend.	1530157	1471969076735	1471969076850	 	32
3023	32051	Hope you had a good weekend.	Hope you had a good weekend.	1530196	1471969077119	1471969077266	w	87
3023	32051	Hope you had a good weekend.	Hope you had a good weekend.	1530198	1471969077326	1471969077407	e	69
3023	32051	Hope you had a good weekend.	Hope you had a good weekend.	1530200	1471969077483	1471969077608	e	69
3023	32051	Hope you had a good weekend.	Hope you had a good weekend.	1530202	1471969077634	1471969077749	k	75
3023	32051	Hope you had a good weekend.	Hope you had a good weekend.	1530205	1471969077866	1471969078001	e	69
3023	32051	Hope you had a good weekend.	Hope you had a good weekend.	1530282	1471969078021	1471969078132	n	78
3023	32051	Hope you had a good weekend.	Hope you had a good weekend.	1530286	1471969078194	1471969078314	d	68
3023	32051	Hope you had a good weekend.	Hope you had a good weekend.	1530290	1471969079283	1471969079409	.	190
3023	32058	Juntao is in Washington this week  meeting with lawmakers.	Juntao is in Washington this week meeting with lawnmakers.	1530422	1471969081890	1471969082080	SHIFT	16
3023	32058	Juntao is in Washington this week  meeting with lawmakers.	Juntao is in Washington this week meeting with lawnmakers.	1530425	1471969082031	1471969082161	J	74
3023	32058	Juntao is in Washington this week  meeting with lawmakers.	Juntao is in Washington this week meeting with lawnmakers.	1530429	1471969082216	1471969082323	u	85
3023	32058	Juntao is in Washington this week  meeting with lawmakers.	Juntao is in Washington this week meeting with lawnmakers.	1530434	1471969082433	1471969082564	n	78
3023	32058	Juntao is in Washington this week  meeting with lawmakers.	Juntao is in Washington this week meeting with lawnmakers.	1530438	1471969083099	1471969083233	t	84
3023	32058	Juntao is in Washington this week  meeting with lawmakers.	Juntao is in Washington this week meeting with lawnmakers.	1530441	1471969083294	1471969083419	a	65
3023	32058	Juntao is in Washington this week  meeting with lawmakers.	Juntao is in Washington this week meeting with lawnmakers.	1530604	1471969083615	1471969083721	o	79
3023	32058	Juntao is in Washington this week  meeting with lawmakers.	Juntao is in Washington this week meeting with lawnmakers.	1530607	1471969084085	1471969084200	 	32
3023	32058	Juntao is in Washington this week  meeting with lawmakers.	Juntao is in Washington this week meeting with lawnmakers.	1530613	1471969084492	1471969084597	i	73
3023	32058	Juntao is in Washington this week  meeting with lawmakers.	Juntao is in Washington this week meeting with lawnmakers.	1530617	1471969084905	1471969085005	BKSP	8
3023	32058	Juntao is in Washington this week  meeting with lawmakers.	Juntao is in Washington this week meeting with lawnmakers.	1530621	1471969087055	1471969087114	i	73
3023	32058	Juntao is in Washington this week  meeting with lawmakers.	Juntao is in Washington this week meeting with lawnmakers.	1530625	1471969087606	1471969087745	s	83
3023	32058	Juntao is in Washington this week  meeting with lawmakers.	Juntao is in Washington this week meeting with lawnmakers.	1530678	1471969087727	1471969087816	 	32
3023	32058	Juntao is in Washington this week  meeting with lawmakers.	Juntao is in Washington this week meeting with lawnmakers.	1530680	1471969087897	1471969088018	i	73
3023	32058	Juntao is in Washington this week  meeting with lawmakers.	Juntao is in Washington this week meeting with lawnmakers.	1530682	1471969088094	1471969088250	n	78
3023	32058	Juntao is in Washington this week  meeting with lawmakers.	Juntao is in Washington this week meeting with lawnmakers.	1530684	1471969088279	1471969088402	 	32
3023	32058	Juntao is in Washington this week  meeting with lawmakers.	Juntao is in Washington this week meeting with lawnmakers.	1530808	1471969088628	1471969088784	t	84
3023	32058	Juntao is in Washington this week  meeting with lawmakers.	Juntao is in Washington this week meeting with lawnmakers.	1530686	1471969088668	1471969088774	h	72
3023	32058	Juntao is in Washington this week  meeting with lawmakers.	Juntao is in Washington this week meeting with lawnmakers.	1530810	1471969088834	1471969088955	e	69
3023	32058	Juntao is in Washington this week  meeting with lawmakers.	Juntao is in Washington this week meeting with lawnmakers.	1530813	1471969089162	1471969089263	BKSP	8
3023	32058	Juntao is in Washington this week  meeting with lawmakers.	Juntao is in Washington this week meeting with lawnmakers.	1530817	1471969089331	1471969089426	BKSP	8
3023	32058	Juntao is in Washington this week  meeting with lawmakers.	Juntao is in Washington this week meeting with lawnmakers.	1530820	1471969089522	1471969089663	BKSP	8
3023	32058	Juntao is in Washington this week  meeting with lawmakers.	Juntao is in Washington this week meeting with lawnmakers.	1530826	1471969090106	1471969090443	SHIFT	16
3023	32058	Juntao is in Washington this week  meeting with lawmakers.	Juntao is in Washington this week meeting with lawnmakers.	1530830	1471969090302	1471969090448	W	87
3023	32058	Juntao is in Washington this week  meeting with lawmakers.	Juntao is in Washington this week meeting with lawnmakers.	1530833	1471969090610	1471969090761	a	65
3023	32058	Juntao is in Washington this week  meeting with lawmakers.	Juntao is in Washington this week meeting with lawnmakers.	1530837	1471969090811	1471969090952	s	83
3023	32058	Juntao is in Washington this week  meeting with lawmakers.	Juntao is in Washington this week meeting with lawnmakers.	1530841	1471969091509	1471969091604	h	72
3023	32058	Juntao is in Washington this week  meeting with lawmakers.	Juntao is in Washington this week meeting with lawnmakers.	1530848	1471969091675	1471969091806	i	73
3023	32058	Juntao is in Washington this week  meeting with lawmakers.	Juntao is in Washington this week meeting with lawnmakers.	1530851	1471969091841	1471969091962	n	78
3023	32058	Juntao is in Washington this week  meeting with lawmakers.	Juntao is in Washington this week meeting with lawnmakers.	1530852	1471969091947	1471969092047	g	71
3023	32058	Juntao is in Washington this week  meeting with lawmakers.	Juntao is in Washington this week meeting with lawnmakers.	1530853	1471969092148	1471969092244	t	84
3023	32058	Juntao is in Washington this week  meeting with lawmakers.	Juntao is in Washington this week meeting with lawnmakers.	1530885	1471969092234	1471969092390	o	79
3023	32058	Juntao is in Washington this week  meeting with lawmakers.	Juntao is in Washington this week meeting with lawnmakers.	1530887	1471969092496	1471969092601	n	78
3023	32058	Juntao is in Washington this week  meeting with lawmakers.	Juntao is in Washington this week meeting with lawnmakers.	1530889	1471969092697	1471969092848	 	32
3023	32058	Juntao is in Washington this week  meeting with lawmakers.	Juntao is in Washington this week meeting with lawnmakers.	1530891	1471969093116	1471969093232	t	84
3023	32058	Juntao is in Washington this week  meeting with lawmakers.	Juntao is in Washington this week meeting with lawnmakers.	1530892	1471969093222	1471969093332	h	72
3023	32058	Juntao is in Washington this week  meeting with lawmakers.	Juntao is in Washington this week meeting with lawnmakers.	1530893	1471969093388	1471969093524	i	73
3023	32058	Juntao is in Washington this week  meeting with lawmakers.	Juntao is in Washington this week meeting with lawnmakers.	1530930	1471969093488	1471969093604	s	83
3023	32058	Juntao is in Washington this week  meeting with lawmakers.	Juntao is in Washington this week meeting with lawnmakers.	1530932	1471969093644	1471969093754	 	32
3023	32058	Juntao is in Washington this week  meeting with lawmakers.	Juntao is in Washington this week meeting with lawnmakers.	1530934	1471969094066	1471969094183	w	87
3023	32058	Juntao is in Washington this week  meeting with lawmakers.	Juntao is in Washington this week meeting with lawnmakers.	1530935	1471969094269	1471969094359	e	69
3023	32058	Juntao is in Washington this week  meeting with lawmakers.	Juntao is in Washington this week meeting with lawnmakers.	1530936	1471969094430	1471969094526	e	69
3023	32058	Juntao is in Washington this week  meeting with lawmakers.	Juntao is in Washington this week meeting with lawnmakers.	1530978	1471969094511	1471969094651	k	75
3023	32058	Juntao is in Washington this week  meeting with lawmakers.	Juntao is in Washington this week meeting with lawnmakers.	1530979	1471969094727	1471969094853	 	32
3023	32058	Juntao is in Washington this week  meeting with lawmakers.	Juntao is in Washington this week meeting with lawnmakers.	1530981	1471969095226	1471969095360	m	77
3023	32058	Juntao is in Washington this week  meeting with lawmakers.	Juntao is in Washington this week meeting with lawnmakers.	1530983	1471969095348	1471969095425	e	69
3023	32058	Juntao is in Washington this week  meeting with lawmakers.	Juntao is in Washington this week meeting with lawnmakers.	1530985	1471969095505	1471969095641	e	69
3023	32058	Juntao is in Washington this week  meeting with lawmakers.	Juntao is in Washington this week meeting with lawnmakers.	1530987	1471969095697	1471969095813	t	84
3023	32058	Juntao is in Washington this week  meeting with lawmakers.	Juntao is in Washington this week meeting with lawnmakers.	1531021	1471969095883	1471969096019	i	73
3023	32058	Juntao is in Washington this week  meeting with lawmakers.	Juntao is in Washington this week meeting with lawnmakers.	1531024	1471969096065	1471969096195	n	78
3023	32058	Juntao is in Washington this week  meeting with lawmakers.	Juntao is in Washington this week meeting with lawnmakers.	1531028	1471969096155	1471969096260	g	71
3023	32058	Juntao is in Washington this week  meeting with lawmakers.	Juntao is in Washington this week meeting with lawnmakers.	1531031	1471969096372	1471969096503	 	32
3023	32058	Juntao is in Washington this week  meeting with lawmakers.	Juntao is in Washington this week meeting with lawnmakers.	1531033	1471969096684	1471969096830	w	87
3023	32058	Juntao is in Washington this week  meeting with lawmakers.	Juntao is in Washington this week meeting with lawnmakers.	1531065	1471969096877	1471969097006	i	73
3023	32058	Juntao is in Washington this week  meeting with lawmakers.	Juntao is in Washington this week meeting with lawnmakers.	1531067	1471969097036	1471969097157	t	84
3023	32058	Juntao is in Washington this week  meeting with lawmakers.	Juntao is in Washington this week meeting with lawnmakers.	1531070	1471969097122	1471969097248	h	72
3023	32058	Juntao is in Washington this week  meeting with lawmakers.	Juntao is in Washington this week meeting with lawnmakers.	1531074	1471969097431	1471969097552	 	32
3023	32058	Juntao is in Washington this week  meeting with lawmakers.	Juntao is in Washington this week meeting with lawnmakers.	1531079	1471969097890	1471969098026	l	76
3023	32058	Juntao is in Washington this week  meeting with lawmakers.	Juntao is in Washington this week meeting with lawnmakers.	1531170	1471969098126	1471969098236	a	65
3023	32058	Juntao is in Washington this week  meeting with lawmakers.	Juntao is in Washington this week meeting with lawnmakers.	1531171	1471969098298	1471969098388	n	78
3023	32058	Juntao is in Washington this week  meeting with lawmakers.	Juntao is in Washington this week meeting with lawnmakers.	1531174	1471969098735	1471969098841	BKSP	8
3023	32058	Juntao is in Washington this week  meeting with lawmakers.	Juntao is in Washington this week meeting with lawnmakers.	1531177	1471969098882	1471969098997	w	87
3023	32058	Juntao is in Washington this week  meeting with lawmakers.	Juntao is in Washington this week meeting with lawnmakers.	1531179	1471969099078	1471969099214	n	78
3023	32058	Juntao is in Washington this week  meeting with lawmakers.	Juntao is in Washington this week meeting with lawnmakers.	1531183	1471969099640	1471969099775	m	77
3023	32058	Juntao is in Washington this week  meeting with lawmakers.	Juntao is in Washington this week meeting with lawnmakers.	1531213	1471969099811	1471969099912	a	65
3023	32058	Juntao is in Washington this week  meeting with lawmakers.	Juntao is in Washington this week meeting with lawnmakers.	1531216	1471969099887	1471969100032	k	75
3023	32058	Juntao is in Washington this week  meeting with lawmakers.	Juntao is in Washington this week meeting with lawnmakers.	1531220	1471969100078	1471969100188	e	69
3023	32058	Juntao is in Washington this week  meeting with lawmakers.	Juntao is in Washington this week meeting with lawnmakers.	1531224	1471969100259	1471969100380	r	82
3023	32058	Juntao is in Washington this week  meeting with lawmakers.	Juntao is in Washington this week meeting with lawnmakers.	1531228	1471969100466	1471969100617	s	83
3023	32058	Juntao is in Washington this week  meeting with lawmakers.	Juntao is in Washington this week meeting with lawnmakers.	1531286	1471969101541	1471969101651	.	190
3023	32079	Evaluating a lease offer on Sonoran project.	Evaluating a lease offer on Sonoran project.	1531397	1471969103850	1471969104082	SHIFT	16
3023	32079	Evaluating a lease offer on Sonoran project.	Evaluating a lease offer on Sonoran project.	1531398	1471969104032	1471969104157	E	69
3023	32079	Evaluating a lease offer on Sonoran project.	Evaluating a lease offer on Sonoran project.	1531400	1471969104253	1471969104398	v	86
3023	32079	Evaluating a lease offer on Sonoran project.	Evaluating a lease offer on Sonoran project.	1531405	1471969104423	1471969104530	a	65
3023	32079	Evaluating a lease offer on Sonoran project.	Evaluating a lease offer on Sonoran project.	1531408	1471969104555	1471969104686	l	76
3023	32079	Evaluating a lease offer on Sonoran project.	Evaluating a lease offer on Sonoran project.	1531413	1471969104792	1471969104907	u	85
3023	32079	Evaluating a lease offer on Sonoran project.	Evaluating a lease offer on Sonoran project.	1531455	1471969105449	1471969105586	a	65
3023	32079	Evaluating a lease offer on Sonoran project.	Evaluating a lease offer on Sonoran project.	1531456	1471969105651	1471969105756	t	84
3023	32079	Evaluating a lease offer on Sonoran project.	Evaluating a lease offer on Sonoran project.	1531457	1471969105772	1471969105912	i	73
3023	32079	Evaluating a lease offer on Sonoran project.	Evaluating a lease offer on Sonoran project.	1531458	1471969106073	1471969106199	n	78
3023	32079	Evaluating a lease offer on Sonoran project.	Evaluating a lease offer on Sonoran project.	1531459	1471969106225	1471969106331	g	71
3023	32079	Evaluating a lease offer on Sonoran project.	Evaluating a lease offer on Sonoran project.	1531516	1471969106336	1471969106472	 	32
3023	32079	Evaluating a lease offer on Sonoran project.	Evaluating a lease offer on Sonoran project.	1531522	1471969107632	1471969107754	a	65
3023	32079	Evaluating a lease offer on Sonoran project.	Evaluating a lease offer on Sonoran project.	1531527	1471969107743	1471969107864	 	32
3023	32079	Evaluating a lease offer on Sonoran project.	Evaluating a lease offer on Sonoran project.	1531528	1471969107944	1471969108090	l	76
3023	32079	Evaluating a lease offer on Sonoran project.	Evaluating a lease offer on Sonoran project.	1531567	1471969108045	1471969108176	e	69
3023	32079	Evaluating a lease offer on Sonoran project.	Evaluating a lease offer on Sonoran project.	1531571	1471969108222	1471969108388	a	65
3023	32079	Evaluating a lease offer on Sonoran project.	Evaluating a lease offer on Sonoran project.	1531574	1471969108393	1471969108544	s	83
3023	32079	Evaluating a lease offer on Sonoran project.	Evaluating a lease offer on Sonoran project.	1531577	1471969108560	1471969108710	e	69
3023	32079	Evaluating a lease offer on Sonoran project.	Evaluating a lease offer on Sonoran project.	1531582	1471969108741	1471969108876	 	32
3023	32079	Evaluating a lease offer on Sonoran project.	Evaluating a lease offer on Sonoran project.	1531588	1471969108983	1471969109108	o	79
3023	32079	Evaluating a lease offer on Sonoran project.	Evaluating a lease offer on Sonoran project.	1531628	1471969109103	1471969109199	f	70
3023	32079	Evaluating a lease offer on Sonoran project.	Evaluating a lease offer on Sonoran project.	1531631	1471969109264	1471969109375	f	70
3023	32079	Evaluating a lease offer on Sonoran project.	Evaluating a lease offer on Sonoran project.	1531634	1471969109441	1471969109548	f	70
3023	32079	Evaluating a lease offer on Sonoran project.	Evaluating a lease offer on Sonoran project.	1531638	1471969109654	1471969109755	e	69
3023	32079	Evaluating a lease offer on Sonoran project.	Evaluating a lease offer on Sonoran project.	1531642	1471969109831	1471969109906	r	82
3023	32079	Evaluating a lease offer on Sonoran project.	Evaluating a lease offer on Sonoran project.	1531645	1471969109982	1471969110089	 	32
3023	32079	Evaluating a lease offer on Sonoran project.	Evaluating a lease offer on Sonoran project.	1531729	1471969110305	1471969110410	BKSP	8
3023	32079	Evaluating a lease offer on Sonoran project.	Evaluating a lease offer on Sonoran project.	1531732	1471969110476	1471969110562	BKSP	8
3023	32079	Evaluating a lease offer on Sonoran project.	Evaluating a lease offer on Sonoran project.	1531735	1471969110627	1471969110709	BKSP	8
3023	32079	Evaluating a lease offer on Sonoran project.	Evaluating a lease offer on Sonoran project.	1531738	1471969110763	1471969110879	BKSP	8
3023	32079	Evaluating a lease offer on Sonoran project.	Evaluating a lease offer on Sonoran project.	1531739	1471969110959	1471969111060	e	69
3023	32079	Evaluating a lease offer on Sonoran project.	Evaluating a lease offer on Sonoran project.	1531741	1471969111221	1471969111347	r	82
3023	32079	Evaluating a lease offer on Sonoran project.	Evaluating a lease offer on Sonoran project.	1531743	1471969111422	1471969111551	 	32
3023	32079	Evaluating a lease offer on Sonoran project.	Evaluating a lease offer on Sonoran project.	1531745	1471969111672	1471969111768	o	79
3023	32079	Evaluating a lease offer on Sonoran project.	Evaluating a lease offer on Sonoran project.	1531749	1471969112291	1471969112427	n	78
3023	32079	Evaluating a lease offer on Sonoran project.	Evaluating a lease offer on Sonoran project.	1531786	1471969112493	1471969112614	 	32
3023	32079	Evaluating a lease offer on Sonoran project.	Evaluating a lease offer on Sonoran project.	1531788	1471969112655	1471969112789	t	84
3023	32079	Evaluating a lease offer on Sonoran project.	Evaluating a lease offer on Sonoran project.	1531793	1471969112745	1471969112850	h	72
3023	32079	Evaluating a lease offer on Sonoran project.	Evaluating a lease offer on Sonoran project.	1531796	1471969113067	1471969113163	BKSP	8
3023	32079	Evaluating a lease offer on Sonoran project.	Evaluating a lease offer on Sonoran project.	1531800	1471969113229	1471969113339	BKSP	8
3023	32079	Evaluating a lease offer on Sonoran project.	Evaluating a lease offer on Sonoran project.	1531807	1471969113490	1471969113828	SHIFT	16
3023	32079	Evaluating a lease offer on Sonoran project.	Evaluating a lease offer on Sonoran project.	1531804	1471969113666	1471969113807	S	83
3023	32079	Evaluating a lease offer on Sonoran project.	Evaluating a lease offer on Sonoran project.	1531939	1471969113817	1471969113953	O	79
3023	32079	Evaluating a lease offer on Sonoran project.	Evaluating a lease offer on Sonoran project.	1531941	1471969114064	1471969114190	n	78
3023	32079	Evaluating a lease offer on Sonoran project.	Evaluating a lease offer on Sonoran project.	1531943	1471969114583	1471969114683	BKSP	8
3023	32079	Evaluating a lease offer on Sonoran project.	Evaluating a lease offer on Sonoran project.	1531945	1471969114753	1471969114871	BKSP	8
3023	32079	Evaluating a lease offer on Sonoran project.	Evaluating a lease offer on Sonoran project.	1531948	1471969115001	1471969115156	o	79
3023	32079	Evaluating a lease offer on Sonoran project.	Evaluating a lease offer on Sonoran project.	1531951	1471969115283	1471969115413	n	78
3023	32079	Evaluating a lease offer on Sonoran project.	Evaluating a lease offer on Sonoran project.	1531953	1471969116332	1471969116448	o	79
3023	32079	Evaluating a lease offer on Sonoran project.	Evaluating a lease offer on Sonoran project.	1531956	1471969116468	1471969116604	r	82
3023	32079	Evaluating a lease offer on Sonoran project.	Evaluating a lease offer on Sonoran project.	1532059	1471969116640	1471969116756	a	65
3023	32079	Evaluating a lease offer on Sonoran project.	Evaluating a lease offer on Sonoran project.	1532061	1471969116730	1471969116846	n	78
3023	32079	Evaluating a lease offer on Sonoran project.	Evaluating a lease offer on Sonoran project.	1532063	1471969116957	1471969117072	 	32
3023	32079	Evaluating a lease offer on Sonoran project.	Evaluating a lease offer on Sonoran project.	1532066	1471969118491	1471969118604	p	80
3023	32079	Evaluating a lease offer on Sonoran project.	Evaluating a lease offer on Sonoran project.	1532069	1471969119007	1471969119113	r	82
3023	32079	Evaluating a lease offer on Sonoran project.	Evaluating a lease offer on Sonoran project.	1532183	1471969120203	1471969120323	o	79
3023	32079	Evaluating a lease offer on Sonoran project.	Evaluating a lease offer on Sonoran project.	1532188	1471969120454	1471969120580	j	74
3023	32079	Evaluating a lease offer on Sonoran project.	Evaluating a lease offer on Sonoran project.	1532190	1471969121306	1471969121446	e	69
3023	32079	Evaluating a lease offer on Sonoran project.	Evaluating a lease offer on Sonoran project.	1532192	1471969121537	1471969121619	c	67
3023	32079	Evaluating a lease offer on Sonoran project.	Evaluating a lease offer on Sonoran project.	1532197	1471969121781	1471969121897	t	84
3023	32079	Evaluating a lease offer on Sonoran project.	Evaluating a lease offer on Sonoran project.	1532247	1471969122754	1471969122849	.	190
3023	32109	We just pulled schedules from the web.	We just pulled schedules from the web.	1532429	1471969125269	1471969125586	SHIFT	16
3023	32109	We just pulled schedules from the web.	We just pulled schedules from the web.	1532433	1471969125466	1471969125591	W	87
3023	32109	We just pulled schedules from the web.	We just pulled schedules from the web.	1532439	1471969125661	1471969125766	e	69
3023	32109	We just pulled schedules from the web.	We just pulled schedules from the web.	1532443	1471969125827	1471969125937	 	32
3023	32109	We just pulled schedules from the web.	We just pulled schedules from the web.	1532448	1471969126044	1471969126155	j	74
3023	32109	We just pulled schedules from the web.	We just pulled schedules from the web.	1532450	1471969126225	1471969126346	u	85
3023	32109	We just pulled schedules from the web.	We just pulled schedules from the web.	1532480	1471969126391	1471969126558	s	83
3023	32109	We just pulled schedules from the web.	We just pulled schedules from the web.	1532485	1471969126542	1471969126668	t	84
3023	32109	We just pulled schedules from the web.	We just pulled schedules from the web.	1532492	1471969126678	1471969126788	 	32
3023	32109	We just pulled schedules from the web.	We just pulled schedules from the web.	1532498	1471969127192	1471969127327	p	80
3023	32109	We just pulled schedules from the web.	We just pulled schedules from the web.	1532506	1471969127524	1471969127594	u	85
3023	32109	We just pulled schedules from the web.	We just pulled schedules from the web.	1532550	1471969127783	1471969127873	l	76
3023	32109	We just pulled schedules from the web.	We just pulled schedules from the web.	1532556	1471969127924	1471969128039	l	76
3023	32109	We just pulled schedules from the web.	We just pulled schedules from the web.	1532565	1471969128080	1471969128181	e	69
3023	32109	We just pulled schedules from the web.	We just pulled schedules from the web.	1532570	1471969128273	1471969128407	d	68
3023	32109	We just pulled schedules from the web.	We just pulled schedules from the web.	1532582	1471969128438	1471969128559	 	32
3023	32109	We just pulled schedules from the web.	We just pulled schedules from the web.	1532630	1471969129069	1471969129188	s	83
3023	32109	We just pulled schedules from the web.	We just pulled schedules from the web.	1532631	1471969129280	1471969129410	c	67
3023	32109	We just pulled schedules from the web.	We just pulled schedules from the web.	1532632	1471969129460	1471969129570	h	72
3023	32109	We just pulled schedules from the web.	We just pulled schedules from the web.	1532633	1471969129657	1471969129765	e	69
3023	32109	We just pulled schedules from the web.	We just pulled schedules from the web.	1532634	1471969129931	1471969130087	d	68
3023	32109	We just pulled schedules from the web.	We just pulled schedules from the web.	1532731	1471969131140	1471969131210	u	85
3023	32109	We just pulled schedules from the web.	We just pulled schedules from the web.	1532736	1471969131337	1471969131462	l	76
3023	32109	We just pulled schedules from the web.	We just pulled schedules from the web.	1532739	1471969131488	1471969131603	e	69
3023	32109	We just pulled schedules from the web.	We just pulled schedules from the web.	1532742	1471969131695	1471969131853	s	83
3023	32109	We just pulled schedules from the web.	We just pulled schedules from the web.	1532746	1471969131928	1471969132048	 	32
3023	32109	We just pulled schedules from the web.	We just pulled schedules from the web.	1532787	1471969132114	1471969132255	f	70
3023	32109	We just pulled schedules from the web.	We just pulled schedules from the web.	1532788	1471969132327	1471969132462	r	82
3023	32109	We just pulled schedules from the web.	We just pulled schedules from the web.	1532792	1471969132483	1471969132543	o	79
3023	32109	We just pulled schedules from the web.	We just pulled schedules from the web.	1532796	1471969132815	1471969132945	m	77
3023	32109	We just pulled schedules from the web.	We just pulled schedules from the web.	1532800	1471969133011	1471969133122	 	32
3023	32109	We just pulled schedules from the web.	We just pulled schedules from the web.	1532832	1471969133147	1471969133273	t	84
3023	32109	We just pulled schedules from the web.	We just pulled schedules from the web.	1532836	1471969133218	1471969133328	h	72
3023	32109	We just pulled schedules from the web.	We just pulled schedules from the web.	1532840	1471969133349	1471969133450	e	69
3023	32109	We just pulled schedules from the web.	We just pulled schedules from the web.	1532843	1471969133439	1471969133555	 	32
3023	32109	We just pulled schedules from the web.	We just pulled schedules from the web.	1532844	1471969133616	1471969133754	w	87
3023	32109	We just pulled schedules from the web.	We just pulled schedules from the web.	1532901	1471969133790	1471969133919	e	69
3023	32109	We just pulled schedules from the web.	We just pulled schedules from the web.	1532904	1471969134294	1471969134404	b	66
3023	32109	We just pulled schedules from the web.	We just pulled schedules from the web.	1532909	1471969135094	1471969135215	.	190
3023	32122	Have not added Westport on yet.	Have not added Westport on yet.	1533063	1471969137840	1471969138019	SHIFT	16
3023	32122	Have not added Westport on yet.	Have not added Westport on yet.	1533065	1471969137955	1471969138080	H	72
3023	32122	Have not added Westport on yet.	Have not added Westport on yet.	1533067	1471969138130	1471969138277	a	65
3023	32122	Have not added Westport on yet.	Have not added Westport on yet.	1533070	1471969138282	1471969138438	v	86
3023	32122	Have not added Westport on yet.	Have not added Westport on yet.	1533071	1471969138478	1471969138605	e	69
3023	32122	Have not added Westport on yet.	Have not added Westport on yet.	1533125	1471969138599	1471969138700	 	32
3023	32122	Have not added Westport on yet.	Have not added Westport on yet.	1533128	1471969138750	1471969138886	n	78
3023	32122	Have not added Westport on yet.	Have not added Westport on yet.	1533133	1471969138958	1471969139093	o	79
3023	32122	Have not added Westport on yet.	Have not added Westport on yet.	1533137	1471969139099	1471969139199	t	84
3023	32122	Have not added Westport on yet.	Have not added Westport on yet.	1533141	1471969139214	1471969139354	 	32
3023	32122	Have not added Westport on yet.	Have not added Westport on yet.	1533146	1471969139501	1471969139657	a	65
3023	32122	Have not added Westport on yet.	Have not added Westport on yet.	1533188	1471969139728	1471969139806	d	68
3023	32122	Have not added Westport on yet.	Have not added Westport on yet.	1533189	1471969139882	1471969139967	d	68
3023	32122	Have not added Westport on yet.	Have not added Westport on yet.	1533191	1471969140078	1471969140199	e	69
3023	32122	Have not added Westport on yet.	Have not added Westport on yet.	1533196	1471969140325	1471969140466	d	68
3023	32122	Have not added Westport on yet.	Have not added Westport on yet.	1533200	1471969140643	1471969140768	 	32
3023	32122	Have not added Westport on yet.	Have not added Westport on yet.	1533284	1471969141147	1471969141467	SHIFT	16
3023	32122	Have not added Westport on yet.	Have not added Westport on yet.	1533281	1471969141322	1471969141463	W	87
3023	32122	Have not added Westport on yet.	Have not added Westport on yet.	1533289	1471969142076	1471969142187	e	69
3023	32122	Have not added Westport on yet.	Have not added Westport on yet.	1533291	1471969142268	1471969142453	s	83
3023	32122	Have not added Westport on yet.	Have not added Westport on yet.	1533294	1471969142443	1471969142569	t	84
3023	32122	Have not added Westport on yet.	Have not added Westport on yet.	1533297	1471969142761	1471969142897	p	80
3023	32122	Have not added Westport on yet.	Have not added Westport on yet.	1533340	1471969142992	1471969143109	o	79
3023	32122	Have not added Westport on yet.	Have not added Westport on yet.	1533342	1471969143149	1471969143259	r	82
3023	32122	Have not added Westport on yet.	Have not added Westport on yet.	1533344	1471969143350	1471969143446	t	84
3023	32122	Have not added Westport on yet.	Have not added Westport on yet.	1533346	1471969143537	1471969143658	 	32
3023	32122	Have not added Westport on yet.	Have not added Westport on yet.	1533349	1471969143759	1471969143893	o	79
3023	32122	Have not added Westport on yet.	Have not added Westport on yet.	1533459	1471969143985	1471969144106	n	78
3023	32122	Have not added Westport on yet.	Have not added Westport on yet.	1533462	1471969144393	1471969144519	 	32
3023	32122	Have not added Westport on yet.	Have not added Westport on yet.	1533466	1471969145491	1471969145576	y	89
3023	32122	Have not added Westport on yet.	Have not added Westport on yet.	1533471	1471969145632	1471969145743	e	69
3023	32122	Have not added Westport on yet.	Have not added Westport on yet.	1533474	1471969145788	1471969145896	t	84
3023	32122	Have not added Westport on yet.	Have not added Westport on yet.	1533659	1471969146592	1471969146671	,	188
3023	32122	Have not added Westport on yet.	Have not added Westport on yet.	1533660	1471969147312	1471969147402	BKSP	8
3023	32122	Have not added Westport on yet.	Have not added Westport on yet.	1533661	1471969148175	1471969148291	/	191
3023	32122	Have not added Westport on yet.	Have not added Westport on yet.	1533662	1471969149112	1471969149212	BKSP	8
3023	32122	Have not added Westport on yet.	Have not added Westport on yet.	1533663	1471969149434	1471969149524	.	190
3023	32138	Every Enron employee has an internet email address.	Every Enron employee has an internet email address.	1533754	1471969151751	1471969152041	SHIFT	16
3023	32138	Every Enron employee has an internet email address.	Every Enron employee has an internet email address.	1533760	1471969151955	1471969152106	E	69
3023	32138	Every Enron employee has an internet email address.	Every Enron employee has an internet email address.	1533766	1471969152187	1471969152350	v	86
3023	32138	Every Enron employee has an internet email address.	Every Enron employee has an internet email address.	1533773	1471969152345	1471969152459	e	69
3023	32138	Every Enron employee has an internet email address.	Every Enron employee has an internet email address.	1533780	1471969152525	1471969152635	r	82
3023	32138	Every Enron employee has an internet email address.	Every Enron employee has an internet email address.	1533786	1471969152666	1471969152770	y	89
3023	32138	Every Enron employee has an internet email address.	Every Enron employee has an internet email address.	1533864	1471969153073	1471969153184	 	32
3023	32138	Every Enron employee has an internet email address.	Every Enron employee has an internet email address.	1533867	1471969153532	1471969153794	SHIFT	16
3023	32138	Every Enron employee has an internet email address.	Every Enron employee has an internet email address.	1533876	1471969153709	1471969153844	E	69
3023	32138	Every Enron employee has an internet email address.	Every Enron employee has an internet email address.	1533882	1471969153952	1471969154098	n	78
3023	32138	Every Enron employee has an internet email address.	Every Enron employee has an internet email address.	1533887	1471969154260	1471969154376	r	82
3023	32138	Every Enron employee has an internet email address.	Every Enron employee has an internet email address.	1533894	1471969154406	1471969154542	o	79
3023	32138	Every Enron employee has an internet email address.	Every Enron employee has an internet email address.	1533978	1471969154673	1471969154809	n	78
3023	32138	Every Enron employee has an internet email address.	Every Enron employee has an internet email address.	1533983	1471969154860	1471969155000	 	32
3023	32138	Every Enron employee has an internet email address.	Every Enron employee has an internet email address.	1533987	1471969155550	1471969155816	SHIFT	16
3023	32138	Every Enron employee has an internet email address.	Every Enron employee has an internet email address.	1533992	1471969155716	1471969155842	E	69
3023	32138	Every Enron employee has an internet email address.	Every Enron employee has an internet email address.	1533996	1471969156277	1471969156408	BKSP	8
3023	32138	Every Enron employee has an internet email address.	Every Enron employee has an internet email address.	1534004	1471969156483	1471969156604	e	69
3023	32138	Every Enron employee has an internet email address.	Every Enron employee has an internet email address.	1534012	1471969156609	1471969156721	m	77
3023	32138	Every Enron employee has an internet email address.	Every Enron employee has an internet email address.	1534092	1471969156917	1471969157053	p	80
3023	32138	Every Enron employee has an internet email address.	Every Enron employee has an internet email address.	1534096	1471969157155	1471969157275	l	76
3023	32138	Every Enron employee has an internet email address.	Every Enron employee has an internet email address.	1534103	1471969157710	1471969157844	o	79
3023	32138	Every Enron employee has an internet email address.	Every Enron employee has an internet email address.	1534111	1471969158213	1471969158319	y	89
3023	32138	Every Enron employee has an internet email address.	Every Enron employee has an internet email address.	1534115	1471969158339	1471969158460	e	69
3023	32138	Every Enron employee has an internet email address.	Every Enron employee has an internet email address.	1534175	1471969158536	1471969158651	r	82
3023	32138	Every Enron employee has an internet email address.	Every Enron employee has an internet email address.	1534180	1471969158737	1471969158878	s	83
3023	32138	Every Enron employee has an internet email address.	Every Enron employee has an internet email address.	1534184	1471969159206	1471969159316	BKSP	8
3023	32138	Every Enron employee has an internet email address.	Every Enron employee has an internet email address.	1534189	1471969159366	1471969159482	BKSP	8
3023	32138	Every Enron employee has an internet email address.	Every Enron employee has an internet email address.	1534192	1471969159538	1471969159658	e	69
3023	32138	Every Enron employee has an internet email address.	Every Enron employee has an internet email address.	1534193	1471969159860	1471969159976	 	32
3023	32138	Every Enron employee has an internet email address.	Every Enron employee has an internet email address.	1534197	1471969160220	1471969160341	h	72
3023	32138	Every Enron employee has an internet email address.	Every Enron employee has an internet email address.	1534225	1471969160376	1471969160516	a	65
3023	32138	Every Enron employee has an internet email address.	Every Enron employee has an internet email address.	1534228	1471969160542	1471969160668	s	83
3023	32138	Every Enron employee has an internet email address.	Every Enron employee has an internet email address.	1534230	1471969160708	1471969160834	 	32
3023	32138	Every Enron employee has an internet email address.	Every Enron employee has an internet email address.	1534234	1471969161046	1471969161202	a	65
3023	32138	Every Enron employee has an internet email address.	Every Enron employee has an internet email address.	1534265	1471969161132	1471969161242	n	78
3023	32138	Every Enron employee has an internet email address.	Every Enron employee has an internet email address.	1534266	1471969161308	1471969161443	 	32
3023	32138	Every Enron employee has an internet email address.	Every Enron employee has an internet email address.	1534268	1471969161535	1471969161670	i	73
3023	32138	Every Enron employee has an internet email address.	Every Enron employee has an internet email address.	1534271	1471969161725	1471969161831	n	78
3023	32138	Every Enron employee has an internet email address.	Every Enron employee has an internet email address.	1534274	1471969161791	1471969161906	t	84
3023	32138	Every Enron employee has an internet email address.	Every Enron employee has an internet email address.	1534278	1471969162060	1471969162171	e	69
3023	32138	Every Enron employee has an internet email address.	Every Enron employee has an internet email address.	1534342	1471969162327	1471969162443	r	82
3023	32138	Every Enron employee has an internet email address.	Every Enron employee has an internet email address.	1534346	1471969162569	1471969162653	e	69
3023	32138	Every Enron employee has an internet email address.	Every Enron employee has an internet email address.	1534350	1471969162997	1471969163104	BKSP	8
3023	32138	Every Enron employee has an internet email address.	Every Enron employee has an internet email address.	1534353	1471969163251	1471969163351	n	78
3023	32138	Every Enron employee has an internet email address.	Every Enron employee has an internet email address.	1534357	1471969163463	1471969163585	e	69
3023	32138	Every Enron employee has an internet email address.	Every Enron employee has an internet email address.	1534366	1471969163695	1471969163800	r	82
3023	32138	Every Enron employee has an internet email address.	Every Enron employee has an internet email address.	1534482	1471969163851	1471969163996	 	32
3023	32138	Every Enron employee has an internet email address.	Every Enron employee has an internet email address.	1534485	1471969164196	1471969164432	BKSP	8
3023	32138	Every Enron employee has an internet email address.	Every Enron employee has an internet email address.	1534488	1471969164513	1471969164578	BKSP	8
3023	32138	Every Enron employee has an internet email address.	Every Enron employee has an internet email address.	1534492	1471969164800	1471969164914	t	84
3023	32138	Every Enron employee has an internet email address.	Every Enron employee has an internet email address.	1534498	1471969164906	1471969165021	 	32
3023	32138	Every Enron employee has an internet email address.	Every Enron employee has an internet email address.	1534501	1471969165793	1471969165932	e	69
3023	32138	Every Enron employee has an internet email address.	Every Enron employee has an internet email address.	1534505	1471969166450	1471969166565	m	77
3023	32138	Every Enron employee has an internet email address.	Every Enron employee has an internet email address.	1534565	1471969166615	1471969166726	a	65
3023	32138	Every Enron employee has an internet email address.	Every Enron employee has an internet email address.	1534569	1471969166716	1471969166832	i	73
3023	32138	Every Enron employee has an internet email address.	Every Enron employee has an internet email address.	1534571	1471969166952	1471969167073	l	76
3023	32138	Every Enron employee has an internet email address.	Every Enron employee has an internet email address.	1534574	1471969167189	1471969167326	 	32
3023	32138	Every Enron employee has an internet email address.	Every Enron employee has an internet email address.	1534577	1471969167809	1471969167975	a	65
3023	32138	Every Enron employee has an internet email address.	Every Enron employee has an internet email address.	1534666	1471969168031	1471969168129	d	68
3023	32138	Every Enron employee has an internet email address.	Every Enron employee has an internet email address.	1534669	1471969168205	1471969168306	d	68
3023	32138	Every Enron employee has an internet email address.	Every Enron employee has an internet email address.	1534673	1471969168426	1471969168516	e	69
3023	32138	Every Enron employee has an internet email address.	Every Enron employee has an internet email address.	1534677	1471969168815	1471969168909	r	82
3023	32138	Every Enron employee has an internet email address.	Every Enron employee has an internet email address.	1534682	1471969169113	1471969169208	BKSP	8
3023	32138	Every Enron employee has an internet email address.	Every Enron employee has an internet email address.	1534686	1471969169249	1471969169364	BKSP	8
3023	32138	Every Enron employee has an internet email address.	Every Enron employee has an internet email address.	1534691	1471969169415	1471969169526	r	82
3023	32138	Every Enron employee has an internet email address.	Every Enron employee has an internet email address.	1534808	1471969169642	1471969169762	e	69
3023	32138	Every Enron employee has an internet email address.	Every Enron employee has an internet email address.	1534814	1471969169854	1471969170008	a	65
3023	32138	Every Enron employee has an internet email address.	Every Enron employee has an internet email address.	1534817	1471969170328	1471969170440	BKSP	8
3023	32138	Every Enron employee has an internet email address.	Every Enron employee has an internet email address.	1534821	1471969170505	1471969170590	s	83
3023	32138	Every Enron employee has an internet email address.	Every Enron employee has an internet email address.	1534826	1471969170661	1471969170797	s	83
3023	32138	Every Enron employee has an internet email address.	Every Enron employee has an internet email address.	1534831	1471969171931	1471969172031	.	190
3023	32165	Can you help me here?	Can you help me her?	1534996	1471969174338	1471969174518	SHIFT	16
3023	32165	Can you help me here?	Can you help me her?	1534998	1471969174464	1471969174625	C	67
3023	32165	Can you help me here?	Can you help me her?	1535001	1471969174594	1471969174710	n	78
3023	32165	Can you help me here?	Can you help me her?	1535006	1471969174745	1471969174881	a	65
3023	32165	Can you help me here?	Can you help me her?	1535014	1471969174942	1471969175073	 	32
3023	32165	Can you help me here?	Can you help me her?	1535019	1471969175299	1471969175395	BKSP	8
3023	32165	Can you help me here?	Can you help me her?	1535024	1471969175451	1471969175526	BKSP	8
3023	32165	Can you help me here?	Can you help me her?	1535028	1471969175576	1471969175687	BKSP	8
3023	32165	Can you help me here?	Can you help me her?	1535031	1471969175768	1471969175884	a	65
3023	32165	Can you help me here?	Can you help me her?	1535074	1471969175864	1471969175979	n	78
3023	32165	Can you help me here?	Can you help me her?	1535077	1471969176101	1471969176209	 	32
3023	32165	Can you help me here?	Can you help me her?	1535081	1471969176379	1471969176504	y	89
3023	32165	Can you help me here?	Can you help me her?	1535085	1471969176495	1471969176616	o	79
3023	32165	Can you help me here?	Can you help me her?	1535088	1471969176712	1471969176832	u	85
3023	32165	Can you help me here?	Can you help me her?	1535093	1471969176963	1471969177093	 	32
3023	32165	Can you help me here?	Can you help me her?	1535160	1471969177453	1471969177547	h	72
3023	32165	Can you help me here?	Can you help me her?	1535166	1471969177649	1471969177779	e	69
3023	32165	Can you help me here?	Can you help me her?	1535171	1471969177744	1471969177878	l	76
3023	32165	Can you help me here?	Can you help me her?	1535178	1471969178016	1471969178152	p	80
3023	32165	Can you help me here?	Can you help me her?	1535183	1471969178295	1471969178406	 	32
3023	32165	Can you help me here?	Can you help me her?	1535243	1471969178723	1471969178783	h	72
3023	32165	Can you help me here?	Can you help me her?	1535247	1471969179031	1471969179146	BKSP	8
3023	32165	Can you help me here?	Can you help me her?	1535251	1471969179242	1471969179378	m	77
3023	32165	Can you help me here?	Can you help me her?	1535257	1471969179398	1471969179493	e	69
3023	32165	Can you help me here?	Can you help me her?	1535263	1471969179499	1471969179635	 	32
3023	32165	Can you help me here?	Can you help me her?	1535268	1471969179690	1471969179811	h	72
3023	32165	Can you help me here?	Can you help me her?	1535438	1471969179837	1471969179901	e	69
3023	32165	Can you help me here?	Can you help me her?	1535442	1471969179997	1471969180123	r	82
3023	32165	Can you help me here?	Can you help me her?	1535453	1471969180418	1471969183104	SHIFT	16
3023	32165	Can you help me here?	Can you help me her?	1535447	1471969182843	1471969182988	?	191
3023	32182	This event will be a blast.	This event will be a blast.	1535662	1471969185878	1471969186098	SHIFT	16
3023	32182	This event will be a blast.	This event will be a blast.	1535664	1471969186039	1471969186144	T	84
3023	32182	This event will be a blast.	This event will be a blast.	1535667	1471969186063	1471969186199	H	72
3023	32182	This event will be a blast.	This event will be a blast.	1535670	1471969186302	1471969186413	e	69
3023	32182	This event will be a blast.	This event will be a blast.	1535673	1471969186700	1471969186755	BKSP	8
3023	32182	This event will be a blast.	This event will be a blast.	1535676	1471969186866	1471969186987	BKSP	8
3023	32182	This event will be a blast.	This event will be a blast.	1535680	1471969187451	1471969187571	h	72
3023	32182	This event will be a blast.	This event will be a blast.	1535685	1471969187633	1471969187747	i	73
3023	32182	This event will be a blast.	This event will be a blast.	1535718	1471969187777	1471969187913	s	83
3023	32182	This event will be a blast.	This event will be a blast.	1535724	1471969187948	1471969188085	 	32
3023	32182	This event will be a blast.	This event will be a blast.	1535730	1471969188344	1471969188485	e	69
3023	32182	This event will be a blast.	This event will be a blast.	1535735	1471969188560	1471969188711	v	86
3023	32182	This event will be a blast.	This event will be a blast.	1535740	1471969188756	1471969188902	e	69
3023	32182	This event will be a blast.	This event will be a blast.	1535805	1471969188897	1471969189029	n	78
3023	32182	This event will be a blast.	This event will be a blast.	1535808	1471969189230	1471969189361	t	84
3023	32182	This event will be a blast.	This event will be a blast.	1535813	1471969189386	1471969189517	 	32
3023	32182	This event will be a blast.	This event will be a blast.	1535819	1471969189733	1471969189895	w	87
3023	32182	This event will be a blast.	This event will be a blast.	1535825	1471969189885	1471969190011	i	73
3023	32182	This event will be a blast.	This event will be a blast.	1535828	1471969190292	1471969190402	;	186
3023	32182	This event will be a blast.	This event will be a blast.	1535933	1471969190472	1471969190603	;	186
3023	32182	This event will be a blast.	This event will be a blast.	1535937	1471969190866	1471969190961	BKSP	8
3023	32182	This event will be a blast.	This event will be a blast.	1535942	1471969191031	1471969191123	BKSP	8
3023	32182	This event will be a blast.	This event will be a blast.	1535948	1471969191747	1471969191837	l	76
3023	32182	This event will be a blast.	This event will be a blast.	1535953	1471969191918	1471969192039	l	76
3023	32182	This event will be a blast.	This event will be a blast.	1535958	1471969192185	1471969192314	 	32
3023	32182	This event will be a blast.	This event will be a blast.	1535963	1471969192425	1471969192530	b	66
3023	32182	This event will be a blast.	This event will be a blast.	1535994	1471969192545	1471969192656	e	69
3023	32182	This event will be a blast.	This event will be a blast.	1535997	1471969192686	1471969192817	 	32
3023	32182	This event will be a blast.	This event will be a blast.	1535999	1471969192858	1471969192982	a	65
3023	32182	This event will be a blast.	This event will be a blast.	1536001	1471969192988	1471969193114	 	32
3023	32182	This event will be a blast.	This event will be a blast.	1536003	1471969193608	1471969193709	b	66
3023	32182	This event will be a blast.	This event will be a blast.	1536051	1471969193699	1471969193830	l	76
3023	32182	This event will be a blast.	This event will be a blast.	1536053	1471969193865	1471969194026	a	65
3023	32182	This event will be a blast.	This event will be a blast.	1536056	1471969194051	1471969194258	s	83
3023	32182	This event will be a blast.	This event will be a blast.	1536059	1471969194268	1471969194402	t	84
3023	32182	This event will be a blast.	This event will be a blast.	1536062	1471969195082	1471969195193	.	190
3023	32199	All our demographics indicate that is a family audience.	All out demographics indicate that is a family audience.	1536227	1471969197418	1471969197725	SHIFT	16
3023	32199	All our demographics indicate that is a family audience.	All out demographics indicate that is a family audience.	1536224	1471969197589	1471969197720	A	65
3023	32199	All our demographics indicate that is a family audience.	All out demographics indicate that is a family audience.	1536234	1471969197690	1471969197780	L	76
3023	32199	All our demographics indicate that is a family audience.	All out demographics indicate that is a family audience.	1536237	1471969197851	1471969197936	l	76
3023	32199	All our demographics indicate that is a family audience.	All out demographics indicate that is a family audience.	1536241	1471969198503	1471969198593	BKSP	8
3023	32199	All our demographics indicate that is a family audience.	All out demographics indicate that is a family audience.	1536242	1471969198643	1471969198759	BKSP	8
3023	32199	All our demographics indicate that is a family audience.	All out demographics indicate that is a family audience.	1536245	1471969198901	1471969198996	l	76
3023	32199	All our demographics indicate that is a family audience.	All out demographics indicate that is a family audience.	1536247	1471969199073	1471969199167	l	76
3023	32199	All our demographics indicate that is a family audience.	All out demographics indicate that is a family audience.	1536290	1471969199223	1471969199338	 	32
3023	32199	All our demographics indicate that is a family audience.	All out demographics indicate that is a family audience.	1536298	1471969199485	1471969199594	o	79
3023	32199	All our demographics indicate that is a family audience.	All out demographics indicate that is a family audience.	1536304	1471969199705	1471969199806	u	85
3023	32199	All our demographics indicate that is a family audience.	All out demographics indicate that is a family audience.	1536309	1471969199917	1471969200049	t	84
3023	32199	All our demographics indicate that is a family audience.	All out demographics indicate that is a family audience.	1536313	1471969200114	1471969200215	 	32
3023	32199	All our demographics indicate that is a family audience.	All out demographics indicate that is a family audience.	1536376	1471969200755	1471969200861	d	68
3023	32199	All our demographics indicate that is a family audience.	All out demographics indicate that is a family audience.	1536378	1471969200962	1471969201067	e	69
3023	32199	All our demographics indicate that is a family audience.	All out demographics indicate that is a family audience.	1536380	1471969201058	1471969201189	m	77
3023	32199	All our demographics indicate that is a family audience.	All out demographics indicate that is a family audience.	1536383	1471969201275	1471969201391	o	79
3023	32199	All our demographics indicate that is a family audience.	All out demographics indicate that is a family audience.	1536387	1471969201627	1471969201758	g	71
3023	32199	All our demographics indicate that is a family audience.	All out demographics indicate that is a family audience.	1536424	1471969201773	1471969201914	r	82
3023	32199	All our demographics indicate that is a family audience.	All out demographics indicate that is a family audience.	1536427	1471969201974	1471969202125	a	65
3023	32199	All our demographics indicate that is a family audience.	All out demographics indicate that is a family audience.	1536431	1471969202131	1471969202267	p	80
3023	32199	All our demographics indicate that is a family audience.	All out demographics indicate that is a family audience.	1536434	1471969202517	1471969202642	h	72
3023	32199	All our demographics indicate that is a family audience.	All out demographics indicate that is a family audience.	1536438	1471969202719	1471969202859	i	73
3023	32199	All our demographics indicate that is a family audience.	All out demographics indicate that is a family audience.	1536542	1471969203644	1471969203801	c	67
3023	32199	All our demographics indicate that is a family audience.	All out demographics indicate that is a family audience.	1536544	1471969203816	1471969203967	s	83
3023	32199	All our demographics indicate that is a family audience.	All out demographics indicate that is a family audience.	1536546	1471969204088	1471969204224	 	32
3023	32199	All our demographics indicate that is a family audience.	All out demographics indicate that is a family audience.	1536548	1471969204559	1471969204674	i	73
3023	32199	All our demographics indicate that is a family audience.	All out demographics indicate that is a family audience.	1536549	1471969204745	1471969204865	n	78
3023	32199	All our demographics indicate that is a family audience.	All out demographics indicate that is a family audience.	1536592	1471969204881	1471969205012	d	68
3023	32199	All our demographics indicate that is a family audience.	All out demographics indicate that is a family audience.	1536596	1471969205037	1471969205173	i	73
3023	32199	All our demographics indicate that is a family audience.	All out demographics indicate that is a family audience.	1536600	1471969205253	1471969205420	c	67
3023	32199	All our demographics indicate that is a family audience.	All out demographics indicate that is a family audience.	1536605	1471969205486	1471969205636	a	65
3023	32199	All our demographics indicate that is a family audience.	All out demographics indicate that is a family audience.	1536610	1471969205768	1471969205929	t	84
3023	32199	All our demographics indicate that is a family audience.	All out demographics indicate that is a family audience.	1536639	1471969205983	1471969206162	e	69
3023	32199	All our demographics indicate that is a family audience.	All out demographics indicate that is a family audience.	1536644	1471969206246	1471969206382	 	32
3023	32199	All our demographics indicate that is a family audience.	All out demographics indicate that is a family audience.	1536649	1471969206762	1471969206883	t	84
3023	32199	All our demographics indicate that is a family audience.	All out demographics indicate that is a family audience.	1536653	1471969206858	1471969206958	h	72
3023	32199	All our demographics indicate that is a family audience.	All out demographics indicate that is a family audience.	1536655	1471969206983	1471969207110	a	65
3023	32199	All our demographics indicate that is a family audience.	All out demographics indicate that is a family audience.	1536702	1471969207059	1471969207184	t	84
3023	32199	All our demographics indicate that is a family audience.	All out demographics indicate that is a family audience.	1536704	1471969207174	1471969207265	 	32
3023	32199	All our demographics indicate that is a family audience.	All out demographics indicate that is a family audience.	1536706	1471969207371	1471969207517	i	73
3023	32199	All our demographics indicate that is a family audience.	All out demographics indicate that is a family audience.	1536709	1471969207604	1471969207733	s	83
3023	32199	All our demographics indicate that is a family audience.	All out demographics indicate that is a family audience.	1536712	1471969207759	1471969207877	 	32
3023	32199	All our demographics indicate that is a family audience.	All out demographics indicate that is a family audience.	1536717	1471969207966	1471969208111	a	65
3023	32199	All our demographics indicate that is a family audience.	All out demographics indicate that is a family audience.	1536766	1471969208101	1471969208217	 	32
3023	32199	All our demographics indicate that is a family audience.	All out demographics indicate that is a family audience.	1536769	1471969208269	1471969208439	f	70
3023	32199	All our demographics indicate that is a family audience.	All out demographics indicate that is a family audience.	1536772	1471969208461	1471969208593	a	65
3023	32199	All our demographics indicate that is a family audience.	All out demographics indicate that is a family audience.	1536774	1471969208568	1471969208709	m	77
3023	32199	All our demographics indicate that is a family audience.	All out demographics indicate that is a family audience.	1536777	1471969208770	1471969208895	i	73
3023	32199	All our demographics indicate that is a family audience.	All out demographics indicate that is a family audience.	1536781	1471969209027	1471969209168	l	76
3023	32199	All our demographics indicate that is a family audience.	All out demographics indicate that is a family audience.	1536858	1471969209560	1471969209665	y	89
3023	32199	All our demographics indicate that is a family audience.	All out demographics indicate that is a family audience.	1536862	1471969209767	1471969209878	 	32
3023	32199	All our demographics indicate that is a family audience.	All out demographics indicate that is a family audience.	1536863	1471969210437	1471969210610	a	65
3023	32199	All our demographics indicate that is a family audience.	All out demographics indicate that is a family audience.	1536864	1471969210720	1471969210857	u	85
3023	32199	All our demographics indicate that is a family audience.	All out demographics indicate that is a family audience.	1536865	1471969211154	1471969211290	d	68
3023	32199	All our demographics indicate that is a family audience.	All out demographics indicate that is a family audience.	1536907	1471969211275	1471969211412	i	73
3023	32199	All our demographics indicate that is a family audience.	All out demographics indicate that is a family audience.	1536908	1471969211427	1471969211526	e	69
3023	32199	All our demographics indicate that is a family audience.	All out demographics indicate that is a family audience.	1536909	1471969211603	1471969211714	n	78
3023	32199	All our demographics indicate that is a family audience.	All out demographics indicate that is a family audience.	1536910	1471969211755	1471969211970	c	67
3023	32199	All our demographics indicate that is a family audience.	All out demographics indicate that is a family audience.	1536912	1471969211920	1471969212055	e	69
3023	32199	All our demographics indicate that is a family audience.	All out demographics indicate that is a family audience.	1536914	1471969213020	1471969213120	.	190
3023	32215	You are welcome in Palacios this weekend, of course.	You are welcome in Palacios this weekend, of course.	1537096	1471969215129	1471969215334	SHIFT	16
3023	32215	You are welcome in Palacios this weekend, of course.	You are welcome in Palacios this weekend, of course.	1537099	1471969215340	1471969215480	y	89
3023	32215	You are welcome in Palacios this weekend, of course.	You are welcome in Palacios this weekend, of course.	1537102	1471969215475	1471969215597	o	79
3023	32215	You are welcome in Palacios this weekend, of course.	You are welcome in Palacios this weekend, of course.	1537105	1471969215688	1471969215808	u	85
3023	32215	You are welcome in Palacios this weekend, of course.	You are welcome in Palacios this weekend, of course.	1537107	1471969215889	1471969216004	 	32
3023	32215	You are welcome in Palacios this weekend, of course.	You are welcome in Palacios this weekend, of course.	1537109	1471969216161	1471969216312	a	65
3023	32215	You are welcome in Palacios this weekend, of course.	You are welcome in Palacios this weekend, of course.	1537211	1471969216413	1471969216503	BKSP	8
3023	32215	You are welcome in Palacios this weekend, of course.	You are welcome in Palacios this weekend, of course.	1537213	1471969216581	1471969216666	BKSP	8
3023	32215	You are welcome in Palacios this weekend, of course.	You are welcome in Palacios this weekend, of course.	1537216	1471969216732	1471969216817	BKSP	8
3023	32215	You are welcome in Palacios this weekend, of course.	You are welcome in Palacios this weekend, of course.	1537218	1471969216893	1471969216973	BKSP	8
3023	32215	You are welcome in Palacios this weekend, of course.	You are welcome in Palacios this weekend, of course.	1537219	1471969217044	1471969217125	BKSP	8
3023	32215	You are welcome in Palacios this weekend, of course.	You are welcome in Palacios this weekend, of course.	1537224	1471969217401	1471969217770	SHIFT	16
3023	32215	You are welcome in Palacios this weekend, of course.	You are welcome in Palacios this weekend, of course.	1537221	1471969217649	1471969217760	Y	89
3023	32215	You are welcome in Palacios this weekend, of course.	You are welcome in Palacios this weekend, of course.	1537227	1471969218214	1471969218318	o	79
3023	32215	You are welcome in Palacios this weekend, of course.	You are welcome in Palacios this weekend, of course.	1537231	1471969218429	1471969218560	u	85
3023	32215	You are welcome in Palacios this weekend, of course.	You are welcome in Palacios this weekend, of course.	1537235	1471969218623	1471969218719	 	32
3023	32215	You are welcome in Palacios this weekend, of course.	You are welcome in Palacios this weekend, of course.	1537237	1471969218805	1471969218975	a	65
3023	32215	You are welcome in Palacios this weekend, of course.	You are welcome in Palacios this weekend, of course.	1537310	1471969218955	1471969219121	r	82
3023	32215	You are welcome in Palacios this weekend, of course.	You are welcome in Palacios this weekend, of course.	1537313	1471969219091	1471969219202	e	69
3023	32215	You are welcome in Palacios this weekend, of course.	You are welcome in Palacios this weekend, of course.	1537315	1471969219187	1471969219294	 	32
3023	32215	You are welcome in Palacios this weekend, of course.	You are welcome in Palacios this weekend, of course.	1537318	1471969219687	1471969219813	w	87
3023	32215	You are welcome in Palacios this weekend, of course.	You are welcome in Palacios this weekend, of course.	1537323	1471969220681	1471969220812	e	69
3023	32215	You are welcome in Palacios this weekend, of course.	You are welcome in Palacios this weekend, of course.	1537327	1471969220828	1471969220948	l	76
3023	32215	You are welcome in Palacios this weekend, of course.	You are welcome in Palacios this weekend, of course.	1537393	1471969220976	1471969221125	c	67
3023	32215	You are welcome in Palacios this weekend, of course.	You are welcome in Palacios this weekend, of course.	1537400	1471969221105	1471969221250	e	69
3023	32215	You are welcome in Palacios this weekend, of course.	You are welcome in Palacios this weekend, of course.	1537405	1471969221437	1471969221568	o	79
3023	32215	You are welcome in Palacios this weekend, of course.	You are welcome in Palacios this weekend, of course.	1537409	1471969221638	1471969221759	m	77
3023	32215	You are welcome in Palacios this weekend, of course.	You are welcome in Palacios this weekend, of course.	1537412	1471969221915	1471969221996	BKSP	8
3023	32215	You are welcome in Palacios this weekend, of course.	You are welcome in Palacios this weekend, of course.	1537416	1471969222056	1471969222137	BKSP	8
3023	32215	You are welcome in Palacios this weekend, of course.	You are welcome in Palacios this weekend, of course.	1537419	1471969222197	1471969222313	BKSP	8
3023	32215	You are welcome in Palacios this weekend, of course.	You are welcome in Palacios this weekend, of course.	1537422	1471969222425	1471969222544	o	79
3023	32215	You are welcome in Palacios this weekend, of course.	You are welcome in Palacios this weekend, of course.	1537453	1471969222619	1471969222710	m	77
3023	32215	You are welcome in Palacios this weekend, of course.	You are welcome in Palacios this weekend, of course.	1537455	1471969222800	1471969222916	e	69
3023	32215	You are welcome in Palacios this weekend, of course.	You are welcome in Palacios this weekend, of course.	1537457	1471969222930	1471969223077	 	32
3023	32215	You are welcome in Palacios this weekend, of course.	You are welcome in Palacios this weekend, of course.	1537461	1471969223203	1471969223344	i	73
3023	32215	You are welcome in Palacios this weekend, of course.	You are welcome in Palacios this weekend, of course.	1537465	1471969223409	1471969223535	n	78
3023	32215	You are welcome in Palacios this weekend, of course.	You are welcome in Palacios this weekend, of course.	1537549	1471969223566	1471969223717	 	32
3023	32215	You are welcome in Palacios this weekend, of course.	You are welcome in Palacios this weekend, of course.	1537550	1471969224151	1471969224270	p	80
3023	32215	You are welcome in Palacios this weekend, of course.	You are welcome in Palacios this weekend, of course.	1537555	1471969224478	1471969224620	BKSP	8
3023	32215	You are welcome in Palacios this weekend, of course.	You are welcome in Palacios this weekend, of course.	1537563	1471969224748	1471969225070	SHIFT	16
3023	32215	You are welcome in Palacios this weekend, of course.	You are welcome in Palacios this weekend, of course.	1537560	1471969224919	1471969225060	P	80
3023	32215	You are welcome in Palacios this weekend, of course.	You are welcome in Palacios this weekend, of course.	1537567	1471969225191	1471969225337	a	65
3023	32215	You are welcome in Palacios this weekend, of course.	You are welcome in Palacios this weekend, of course.	1537676	1471969225322	1471969225428	l	76
3023	32215	You are welcome in Palacios this weekend, of course.	You are welcome in Palacios this weekend, of course.	1537678	1471969226576	1471969226724	a	65
3023	32215	You are welcome in Palacios this weekend, of course.	You are welcome in Palacios this weekend, of course.	1537680	1471969227244	1471969227384	c	67
3023	32215	You are welcome in Palacios this weekend, of course.	You are welcome in Palacios this weekend, of course.	1537683	1471969227375	1471969227470	i	73
3023	32215	You are welcome in Palacios this weekend, of course.	You are welcome in Palacios this weekend, of course.	1537685	1471969227571	1471969227677	o	79
3023	32215	You are welcome in Palacios this weekend, of course.	You are welcome in Palacios this weekend, of course.	1537686	1471969227792	1471969227923	s	83
3023	32215	You are welcome in Palacios this weekend, of course.	You are welcome in Palacios this weekend, of course.	1537769	1471969227968	1471969228084	 	32
3023	32215	You are welcome in Palacios this weekend, of course.	You are welcome in Palacios this weekend, of course.	1537771	1471969229361	1471969229476	t	84
3023	32215	You are welcome in Palacios this weekend, of course.	You are welcome in Palacios this weekend, of course.	1537776	1471969229471	1471969229602	h	72
3023	32215	You are welcome in Palacios this weekend, of course.	You are welcome in Palacios this weekend, of course.	1537779	1471969229676	1471969229797	i	73
3023	32215	You are welcome in Palacios this weekend, of course.	You are welcome in Palacios this weekend, of course.	1537783	1471969229827	1471969229913	s	83
3023	32215	You are welcome in Palacios this weekend, of course.	You are welcome in Palacios this weekend, of course.	1537820	1471969229928	1471969230063	 	32
3023	32215	You are welcome in Palacios this weekend, of course.	You are welcome in Palacios this weekend, of course.	1537824	1471969230247	1471969230356	w	87
3023	32215	You are welcome in Palacios this weekend, of course.	You are welcome in Palacios this weekend, of course.	1537826	1471969230422	1471969230512	e	69
3023	32215	You are welcome in Palacios this weekend, of course.	You are welcome in Palacios this weekend, of course.	1537828	1471969230593	1471969230701	e	69
3023	32215	You are welcome in Palacios this weekend, of course.	You are welcome in Palacios this weekend, of course.	1537830	1471969230712	1471969230857	k	75
3023	32215	You are welcome in Palacios this weekend, of course.	You are welcome in Palacios this weekend, of course.	1537948	1471969231159	1471969231280	e	69
3023	32215	You are welcome in Palacios this weekend, of course.	You are welcome in Palacios this weekend, of course.	1537951	1471969231290	1471969231416	n	78
3023	32215	You are welcome in Palacios this weekend, of course.	You are welcome in Palacios this weekend, of course.	1537952	1471969231472	1471969231613	 	32
3023	32215	You are welcome in Palacios this weekend, of course.	You are welcome in Palacios this weekend, of course.	1537955	1471969232076	1471969232201	BKSP	8
3023	32215	You are welcome in Palacios this weekend, of course.	You are welcome in Palacios this weekend, of course.	1537958	1471969233045	1471969233155	d	68
3023	32215	You are welcome in Palacios this weekend, of course.	You are welcome in Palacios this weekend, of course.	1537960	1471969233216	1471969233337	,	188
3023	32215	You are welcome in Palacios this weekend, of course.	You are welcome in Palacios this weekend, of course.	1538004	1471969233367	1471969233493	 	32
3023	32215	You are welcome in Palacios this weekend, of course.	You are welcome in Palacios this weekend, of course.	1538011	1471969233524	1471969233654	o	79
3023	32215	You are welcome in Palacios this weekend, of course.	You are welcome in Palacios this weekend, of course.	1538018	1471969233665	1471969233790	f	70
3023	32215	You are welcome in Palacios this weekend, of course.	You are welcome in Palacios this weekend, of course.	1538023	1471969233810	1471969233922	 	32
3023	32215	You are welcome in Palacios this weekend, of course.	You are welcome in Palacios this weekend, of course.	1538029	1471969234235	1471969234344	c	67
3023	32215	You are welcome in Palacios this weekend, of course.	You are welcome in Palacios this weekend, of course.	1538078	1471969234355	1471969234490	o	79
3023	32215	You are welcome in Palacios this weekend, of course.	You are welcome in Palacios this weekend, of course.	1538081	1471969235057	1471969235173	u	85
3023	32215	You are welcome in Palacios this weekend, of course.	You are welcome in Palacios this weekend, of course.	1538084	1471969235233	1471969235349	r	82
3023	32215	You are welcome in Palacios this weekend, of course.	You are welcome in Palacios this weekend, of course.	1538085	1471969235465	1471969235625	s	83
3023	32215	You are welcome in Palacios this weekend, of course.	You are welcome in Palacios this weekend, of course.	1538136	1471969235616	1471969235742	e	69
3023	32215	You are welcome in Palacios this weekend, of course.	You are welcome in Palacios this weekend, of course.	1538138	1471969236534	1471969236664	.	190
3023	32243	This is a golden moment.	This is a golden moment.	1538240	1471969238731	1471969238929	SHIFT	16
3023	32243	This is a golden moment.	This is a golden moment.	1538242	1471969238859	1471969238965	T	84
3023	32243	This is a golden moment.	This is a golden moment.	1538244	1471969238904	1471969239021	H	72
3023	32243	This is a golden moment.	This is a golden moment.	1538246	1471969239076	1471969239217	i	73
3023	32243	This is a golden moment.	This is a golden moment.	1538248	1471969239192	1471969239307	s	83
3023	32243	This is a golden moment.	This is a golden moment.	1538249	1471969239379	1471969239464	 	32
3023	32243	This is a golden moment.	This is a golden moment.	1538324	1471969239706	1471969239776	BKSP	8
3023	32243	This is a golden moment.	This is a golden moment.	1538326	1471969239851	1471969239942	BKSP	8
3023	32243	This is a golden moment.	This is a golden moment.	1538328	1471969240008	1471969240078	BKSP	8
3023	32243	This is a golden moment.	This is a golden moment.	1538330	1471969240154	1471969240265	BKSP	8
3023	32243	This is a golden moment.	This is a golden moment.	1538332	1471969240507	1471969240597	h	72
3023	32243	This is a golden moment.	This is a golden moment.	1538334	1471969240678	1471969240814	i	73
3023	32243	This is a golden moment.	This is a golden moment.	1538336	1471969240864	1471969241000	s	83
3023	32243	This is a golden moment.	This is a golden moment.	1538339	1471969240950	1471969241075	 	32
3023	32243	This is a golden moment.	This is a golden moment.	1538341	1471969241161	1471969241292	i	73
3023	32243	This is a golden moment.	This is a golden moment.	1538413	1471969241355	1471969241473	s	83
3023	32243	This is a golden moment.	This is a golden moment.	1538414	1471969241484	1471969241609	 	32
3023	32243	This is a golden moment.	This is a golden moment.	1538417	1471969241801	1471969241911	a	32
3023	32243	This is a golden moment.	This is a golden moment.	1538420	1471969242245	1471969242329	BKSP	8
3023	32243	This is a golden moment.	This is a golden moment.	1538422	1471969242400	1471969242486	BKSP	8
3023	32243	This is a golden moment.	This is a golden moment.	1538424	1471969242552	1471969242688	BKSP	8
3023	32243	This is a golden moment.	This is a golden moment.	1538428	1471969242957	1471969243063	 	32
3023	32243	This is a golden moment.	This is a golden moment.	1538454	1471969243169	1471969243337	a	65
3023	32243	This is a golden moment.	This is a golden moment.	1538457	1471969243331	1471969243430	 	32
3023	32243	This is a golden moment.	This is a golden moment.	1538461	1471969243697	1471969243813	g	71
3023	32243	This is a golden moment.	This is a golden moment.	1538466	1471969243849	1471969243953	o	79
3023	32243	This is a golden moment.	This is a golden moment.	1538471	1471969244272	1471969244376	l	76
3023	32243	This is a golden moment.	This is a golden moment.	1538530	1471969244488	1471969244563	e	69
3023	32243	This is a golden moment.	This is a golden moment.	1538531	1471969244710	1471969244795	d	68
3023	32243	This is a golden moment.	This is a golden moment.	1538532	1471969245145	1471969245236	BKSP	8
3023	32243	This is a golden moment.	This is a golden moment.	1538533	1471969245292	1471969245392	BKSP	8
3023	32243	This is a golden moment.	This is a golden moment.	1538534	1471969245437	1471969245563	d	68
3023	32243	This is a golden moment.	This is a golden moment.	1538535	1471969245649	1471969245784	e	69
3023	32243	This is a golden moment.	This is a golden moment.	1538596	1471969245754	1471969245876	n	78
3023	32243	This is a golden moment.	This is a golden moment.	1538599	1471969245942	1471969246072	 	32
3023	32243	This is a golden moment.	This is a golden moment.	1538603	1471969246462	1471969246590	m	77
3023	32243	This is a golden moment.	This is a golden moment.	1538607	1471969247504	1471969247636	o	79
3023	32243	This is a golden moment.	This is a golden moment.	1538611	1471969247691	1471969247868	m	77
3023	32243	This is a golden moment.	This is a golden moment.	1538615	1471969247912	1471969248039	o	79
3023	32243	This is a golden moment.	This is a golden moment.	1538712	1471969248819	1471969248902	BKSP	8
3023	32243	This is a golden moment.	This is a golden moment.	1538714	1471969249104	1471969249244	e	69
3023	32243	This is a golden moment.	This is a golden moment.	1538720	1471969249204	1471969249320	n	78
3023	32243	This is a golden moment.	This is a golden moment.	1538724	1471969249365	1471969249486	t	84
3023	32243	This is a golden moment.	This is a golden moment.	1538726	1471969249507	1471969249612	 	32
3023	32243	This is a golden moment.	This is a golden moment.	1538728	1471969249754	1471969249854	BKSP	8
3023	32243	This is a golden moment.	This is a golden moment.	1538730	1471969250327	1471969250398	.	190
3023	32256	I was planning on calling you after I saw your revisions.	I was planning on calling you after I saw your revisions.	1538833	1471969252224	1471969252412	SHIFT	16
3023	32256	I was planning on calling you after I saw your revisions.	I was planning on calling you after I saw your revisions.	1538835	1471969252330	1471969252470	I	73
3023	32256	I was planning on calling you after I saw your revisions.	I was planning on calling you after I saw your revisions.	1538837	1471969252525	1471969252672	w	87
3023	32256	I was planning on calling you after I saw your revisions.	I was planning on calling you after I saw your revisions.	1538838	1471969252753	1471969252901	a	65
3023	32256	I was planning on calling you after I saw your revisions.	I was planning on calling you after I saw your revisions.	1538842	1471969253042	1471969253138	BKSP	8
3023	32256	I was planning on calling you after I saw your revisions.	I was planning on calling you after I saw your revisions.	1538845	1471969253198	1471969253303	BKSP	8
3023	32256	I was planning on calling you after I saw your revisions.	I was planning on calling you after I saw your revisions.	1538849	1471969253414	1471969253504	 	32
3023	32256	I was planning on calling you after I saw your revisions.	I was planning on calling you after I saw your revisions.	1538853	1471969253581	1471969253691	w	87
3023	32256	I was planning on calling you after I saw your revisions.	I was planning on calling you after I saw your revisions.	1538879	1471969253751	1471969253915	a	65
3023	32256	I was planning on calling you after I saw your revisions.	I was planning on calling you after I saw your revisions.	1538881	1471969253905	1471969254031	s	83
3023	32256	I was planning on calling you after I saw your revisions.	I was planning on calling you after I saw your revisions.	1538883	1471969254006	1471969254122	 	32
3023	32256	I was planning on calling you after I saw your revisions.	I was planning on calling you after I saw your revisions.	1538886	1471969254258	1471969254349	p	80
3023	32256	I was planning on calling you after I saw your revisions.	I was planning on calling you after I saw your revisions.	1538888	1471969254486	1471969254601	l	76
3023	32256	I was planning on calling you after I saw your revisions.	I was planning on calling you after I saw your revisions.	1538925	1471969254687	1471969254797	a	65
3023	32256	I was planning on calling you after I saw your revisions.	I was planning on calling you after I saw your revisions.	1538933	1471969255026	1471969255117	n	78
3023	32256	I was planning on calling you after I saw your revisions.	I was planning on calling you after I saw your revisions.	1538938	1471969255182	1471969255304	n	78
3023	32256	I was planning on calling you after I saw your revisions.	I was planning on calling you after I saw your revisions.	1538943	1471969255415	1471969255565	i	73
3023	32256	I was planning on calling you after I saw your revisions.	I was planning on calling you after I saw your revisions.	1538948	1471969255610	1471969255741	n	78
3023	32256	I was planning on calling you after I saw your revisions.	I was planning on calling you after I saw your revisions.	1538982	1471969255711	1471969255848	g	71
3023	32256	I was planning on calling you after I saw your revisions.	I was planning on calling you after I saw your revisions.	1538985	1471969255888	1471969256014	 	32
3023	32256	I was planning on calling you after I saw your revisions.	I was planning on calling you after I saw your revisions.	1538989	1471969256130	1471969256230	o	79
3023	32256	I was planning on calling you after I saw your revisions.	I was planning on calling you after I saw your revisions.	1538994	1471969256336	1471969256467	n	78
3023	32256	I was planning on calling you after I saw your revisions.	I was planning on calling you after I saw your revisions.	1538998	1471969256473	1471969256588	 	32
3023	32256	I was planning on calling you after I saw your revisions.	I was planning on calling you after I saw your revisions.	1539002	1471969257059	1471969257214	c	67
3023	32256	I was planning on calling you after I saw your revisions.	I was planning on calling you after I saw your revisions.	1539025	1471969257235	1471969257371	a	65
3023	32256	I was planning on calling you after I saw your revisions.	I was planning on calling you after I saw your revisions.	1539027	1471969257336	1471969257432	l	76
3023	32256	I was planning on calling you after I saw your revisions.	I was planning on calling you after I saw your revisions.	1539030	1471969257492	1471969257608	l	76
3023	32256	I was planning on calling you after I saw your revisions.	I was planning on calling you after I saw your revisions.	1539034	1471969257960	1471969258091	i	73
3023	32256	I was planning on calling you after I saw your revisions.	I was planning on calling you after I saw your revisions.	1539040	1471969258147	1471969258278	n	78
3023	32256	I was planning on calling you after I saw your revisions.	I was planning on calling you after I saw your revisions.	1539085	1471969258313	1471969258439	g	71
3023	32256	I was planning on calling you after I saw your revisions.	I was planning on calling you after I saw your revisions.	1539086	1471969258455	1471969258590	 	32
3023	32256	I was planning on calling you after I saw your revisions.	I was planning on calling you after I saw your revisions.	1539087	1471969259026	1471969259176	y	89
3023	32256	I was planning on calling you after I saw your revisions.	I was planning on calling you after I saw your revisions.	1539088	1471969259121	1471969259237	o	79
3023	32256	I was planning on calling you after I saw your revisions.	I was planning on calling you after I saw your revisions.	1539089	1471969259348	1471969259478	u	85
3023	32256	I was planning on calling you after I saw your revisions.	I was planning on calling you after I saw your revisions.	1539129	1471969259534	1471969259660	 	32
3023	32256	I was planning on calling you after I saw your revisions.	I was planning on calling you after I saw your revisions.	1539132	1471969259796	1471969259942	a	65
3023	32256	I was planning on calling you after I saw your revisions.	I was planning on calling you after I saw your revisions.	1539133	1471969259987	1471969260153	f	70
3023	32256	I was planning on calling you after I saw your revisions.	I was planning on calling you after I saw your revisions.	1539135	1471969260512	1471969260673	t	84
3023	32256	I was planning on calling you after I saw your revisions.	I was planning on calling you after I saw your revisions.	1539137	1471969260742	1471969260838	e	69
3023	32256	I was planning on calling you after I saw your revisions.	I was planning on calling you after I saw your revisions.	1539174	1471969260924	1471969261028	r	82
3023	32256	I was planning on calling you after I saw your revisions.	I was planning on calling you after I saw your revisions.	1539178	1471969261093	1471969261223	 	32
3023	32256	I was planning on calling you after I saw your revisions.	I was planning on calling you after I saw your revisions.	1539184	1471969261299	1471969261480	SHIFT	16
3023	32256	I was planning on calling you after I saw your revisions.	I was planning on calling you after I saw your revisions.	1539190	1471969261371	1471969261526	I	73
3023	32256	I was planning on calling you after I saw your revisions.	I was planning on calling you after I saw your revisions.	1539197	1471969261562	1471969261692	 	32
3023	32256	I was planning on calling you after I saw your revisions.	I was planning on calling you after I saw your revisions.	1539206	1471969261954	1471969262081	s	83
3023	32256	I was planning on calling you after I saw your revisions.	I was planning on calling you after I saw your revisions.	1539253	1471969262126	1471969262268	a	65
3023	32256	I was planning on calling you after I saw your revisions.	I was planning on calling you after I saw your revisions.	1539255	1471969262257	1471969262392	u	85
3023	32256	I was planning on calling you after I saw your revisions.	I was planning on calling you after I saw your revisions.	1539257	1471969262604	1471969262709	 	32
3023	32256	I was planning on calling you after I saw your revisions.	I was planning on calling you after I saw your revisions.	1539258	1471969262881	1471969262962	BKSP	8
3023	32256	I was planning on calling you after I saw your revisions.	I was planning on calling you after I saw your revisions.	1539259	1471969263025	1471969263135	BKSP	8
3023	32256	I was planning on calling you after I saw your revisions.	I was planning on calling you after I saw your revisions.	1539261	1471969263221	1471969263351	w	87
3023	32256	I was planning on calling you after I saw your revisions.	I was planning on calling you after I saw your revisions.	1539263	1471969263372	1471969263502	 	32
3023	32256	I was planning on calling you after I saw your revisions.	I was planning on calling you after I saw your revisions.	1539306	1471969264309	1471969264409	y	89
3023	32256	I was planning on calling you after I saw your revisions.	I was planning on calling you after I saw your revisions.	1539311	1471969264379	1471969264500	o	79
3023	32256	I was planning on calling you after I saw your revisions.	I was planning on calling you after I saw your revisions.	1539315	1471969264601	1471969264721	u	85
3023	32256	I was planning on calling you after I saw your revisions.	I was planning on calling you after I saw your revisions.	1539319	1471969264757	1471969264867	r	82
3023	32256	I was planning on calling you after I saw your revisions.	I was planning on calling you after I saw your revisions.	1539322	1471969264908	1471969265046	 	32
3023	32256	I was planning on calling you after I saw your revisions.	I was planning on calling you after I saw your revisions.	1539364	1471969265898	1471969265988	r	82
3023	32256	I was planning on calling you after I saw your revisions.	I was planning on calling you after I saw your revisions.	1539366	1471969266088	1471969266174	e	69
3023	32256	I was planning on calling you after I saw your revisions.	I was planning on calling you after I saw your revisions.	1539370	1471969266281	1471969266424	v	86
3023	32256	I was planning on calling you after I saw your revisions.	I was planning on calling you after I saw your revisions.	1539374	1471969266441	1471969266574	i	73
3023	32256	I was planning on calling you after I saw your revisions.	I was planning on calling you after I saw your revisions.	1539448	1471969266562	1471969266698	s	83
3023	32256	I was planning on calling you after I saw your revisions.	I was planning on calling you after I saw your revisions.	1539450	1471969266689	1471969266877	i	73
3023	32256	I was planning on calling you after I saw your revisions.	I was planning on calling you after I saw your revisions.	1539452	1471969266895	1471969267059	o	79
3023	32256	I was planning on calling you after I saw your revisions.	I was planning on calling you after I saw your revisions.	1539454	1471969267120	1471969267266	n	78
3023	32256	I was planning on calling you after I saw your revisions.	I was planning on calling you after I saw your revisions.	1539456	1471969267286	1471969267427	s	83
3023	32256	I was planning on calling you after I saw your revisions.	I was planning on calling you after I saw your revisions.	1539458	1471969268344	1471969268454	.	190
