PARTICIPANT_ID	TEST_SECTION_ID	SENTENCE	USER_INPUT	KEYSTROKE_ID	PRESS_TIME	RELEASE_TIME	LETTER	KEYCODE
3072	32406	But the Chiefs might depend on the run, so his numbers may be limited.	But the Chiefs might depend on thew run, so his numbers may be limited	1546133	1471969431357	1471969431919	SHIFT	16
3072	32406	But the Chiefs might depend on the run, so his numbers may be limited.	But the Chiefs might depend on thew run, so his numbers may be limited	1546132	1471969431664	1471969431763	B	66
3072	32406	But the Chiefs might depend on the run, so his numbers may be limited.	But the Chiefs might depend on thew run, so his numbers may be limited	1546134	1471969432174	1471969432280	u	85
3072	32406	But the Chiefs might depend on the run, so his numbers may be limited.	But the Chiefs might depend on thew run, so his numbers may be limited	1546135	1471969432359	1471969432431	t	84
3072	32406	But the Chiefs might depend on the run, so his numbers may be limited.	But the Chiefs might depend on thew run, so his numbers may be limited	1546136	1471969432509	1471969432612	 	32
3072	32406	But the Chiefs might depend on the run, so his numbers may be limited.	But the Chiefs might depend on thew run, so his numbers may be limited	1546137	1471969432740	1471969432799	t	84
3072	32406	But the Chiefs might depend on the run, so his numbers may be limited.	But the Chiefs might depend on thew run, so his numbers may be limited	1546207	1471969432924	1471969433045	h	72
3072	32406	But the Chiefs might depend on the run, so his numbers may be limited.	But the Chiefs might depend on thew run, so his numbers may be limited	1546208	1471969433201	1471969433243	e	69
3072	32406	But the Chiefs might depend on the run, so his numbers may be limited.	But the Chiefs might depend on thew run, so his numbers may be limited	1546210	1471969433293	1471969433410	 	32
3072	32406	But the Chiefs might depend on the run, so his numbers may be limited.	But the Chiefs might depend on thew run, so his numbers may be limited	1546213	1471969433508	1471969433945	SHIFT	16
3072	32406	But the Chiefs might depend on the run, so his numbers may be limited.	But the Chiefs might depend on thew run, so his numbers may be limited	1546211	1471969433781	1471969433821	C	67
3072	32406	But the Chiefs might depend on the run, so his numbers may be limited.	But the Chiefs might depend on thew run, so his numbers may be limited	1546214	1471969434320	1471969434398	h	72
3072	32406	But the Chiefs might depend on the run, so his numbers may be limited.	But the Chiefs might depend on thew run, so his numbers may be limited	1546312	1471969434758	1471969434848	i	73
3072	32406	But the Chiefs might depend on the run, so his numbers may be limited.	But the Chiefs might depend on thew run, so his numbers may be limited	1546315	1471969434957	1471969435047	e	69
3072	32406	But the Chiefs might depend on the run, so his numbers may be limited.	But the Chiefs might depend on thew run, so his numbers may be limited	1546318	1471969435299	1471969435331	f	70
3072	32406	But the Chiefs might depend on the run, so his numbers may be limited.	But the Chiefs might depend on thew run, so his numbers may be limited	1546323	1471969435962	1471969436054	BKSP	8
3072	32406	But the Chiefs might depend on the run, so his numbers may be limited.	But the Chiefs might depend on thew run, so his numbers may be limited	1546328	1471969436816	1471969436883	f	70
3072	32406	But the Chiefs might depend on the run, so his numbers may be limited.	But the Chiefs might depend on thew run, so his numbers may be limited	1546334	1471969437102	1471969437215	s	83
3072	32406	But the Chiefs might depend on the run, so his numbers may be limited.	But the Chiefs might depend on thew run, so his numbers may be limited	1546413	1471969437317	1471969437428	 	32
3072	32406	But the Chiefs might depend on the run, so his numbers may be limited.	But the Chiefs might depend on thew run, so his numbers may be limited	1546417	1471969438041	1471969438145	m	77
3072	32406	But the Chiefs might depend on the run, so his numbers may be limited.	But the Chiefs might depend on thew run, so his numbers may be limited	1546421	1471969438270	1471969438363	i	73
3072	32406	But the Chiefs might depend on the run, so his numbers may be limited.	But the Chiefs might depend on thew run, so his numbers may be limited	1546423	1471969438645	1471969438747	g	71
3072	32406	But the Chiefs might depend on the run, so his numbers may be limited.	But the Chiefs might depend on thew run, so his numbers may be limited	1546426	1471969438840	1471969438899	h	72
3072	32406	But the Chiefs might depend on the run, so his numbers may be limited.	But the Chiefs might depend on thew run, so his numbers may be limited	1546475	1471969439235	1471969439321	t	84
3072	32406	But the Chiefs might depend on the run, so his numbers may be limited.	But the Chiefs might depend on thew run, so his numbers may be limited	1546478	1471969439408	1471969439503	 	32
3072	32406	But the Chiefs might depend on the run, so his numbers may be limited.	But the Chiefs might depend on thew run, so his numbers may be limited	1546481	1471969440031	1471969440161	d	68
3072	32406	But the Chiefs might depend on the run, so his numbers may be limited.	But the Chiefs might depend on thew run, so his numbers may be limited	1546484	1471969440224	1471969440347	e	69
3072	32406	But the Chiefs might depend on the run, so his numbers may be limited.	But the Chiefs might depend on thew run, so his numbers may be limited	1546488	1471969440582	1471969440680	p	80
3072	32406	But the Chiefs might depend on the run, so his numbers may be limited.	But the Chiefs might depend on thew run, so his numbers may be limited	1546574	1471969440784	1471969440880	e	69
3072	32406	But the Chiefs might depend on the run, so his numbers may be limited.	But the Chiefs might depend on thew run, so his numbers may be limited	1546578	1471969441345	1471969441439	n	78
3072	32406	But the Chiefs might depend on the run, so his numbers may be limited.	But the Chiefs might depend on thew run, so his numbers may be limited	1546582	1471969442089	1471969442180	d	68
3072	32406	But the Chiefs might depend on the run, so his numbers may be limited.	But the Chiefs might depend on thew run, so his numbers may be limited	1546583	1471969442242	1471969442347	 	32
3072	32406	But the Chiefs might depend on the run, so his numbers may be limited.	But the Chiefs might depend on thew run, so his numbers may be limited	1546585	1471969442840	1471969442939	o	79
3072	32406	But the Chiefs might depend on the run, so his numbers may be limited.	But the Chiefs might depend on thew run, so his numbers may be limited	1546599	1471969443017	1471969443132	n	78
3072	32406	But the Chiefs might depend on the run, so his numbers may be limited.	But the Chiefs might depend on thew run, so his numbers may be limited	1546602	1471969443197	1471969443305	 	32
3072	32406	But the Chiefs might depend on the run, so his numbers may be limited.	But the Chiefs might depend on thew run, so his numbers may be limited	1546605	1471969443417	1471969443482	t	84
3072	32406	But the Chiefs might depend on the run, so his numbers may be limited.	But the Chiefs might depend on thew run, so his numbers may be limited	1546608	1471969443526	1471969443645	h	72
3072	32406	But the Chiefs might depend on the run, so his numbers may be limited.	But the Chiefs might depend on thew run, so his numbers may be limited	1546674	1471969443739	1471969443832	w	69
3072	32406	But the Chiefs might depend on the run, so his numbers may be limited.	But the Chiefs might depend on thew run, so his numbers may be limited	1546677	1471969443926	1471969444030	 	32
3072	32406	But the Chiefs might depend on the run, so his numbers may be limited.	But the Chiefs might depend on thew run, so his numbers may be limited	1546681	1471969444986	1471969445096	r	82
3072	32406	But the Chiefs might depend on the run, so his numbers may be limited.	But the Chiefs might depend on thew run, so his numbers may be limited	1546684	1471969445143	1471969445221	u	85
3072	32406	But the Chiefs might depend on the run, so his numbers may be limited.	But the Chiefs might depend on thew run, so his numbers may be limited	1546689	1471969445587	1471969445646	n	78
3072	32406	But the Chiefs might depend on the run, so his numbers may be limited.	But the Chiefs might depend on thew run, so his numbers may be limited	1546692	1471969445939	1471969446030	,	188
3072	32406	But the Chiefs might depend on the run, so his numbers may be limited.	But the Chiefs might depend on thew run, so his numbers may be limited	1546785	1471969446119	1471969446197	 	32
3072	32406	But the Chiefs might depend on the run, so his numbers may be limited.	But the Chiefs might depend on thew run, so his numbers may be limited	1546790	1471969447186	1471969447196	s	83
3072	32406	But the Chiefs might depend on the run, so his numbers may be limited.	But the Chiefs might depend on thew run, so his numbers may be limited	1546794	1471969448047	1471969448163	o	79
3072	32406	But the Chiefs might depend on the run, so his numbers may be limited.	But the Chiefs might depend on thew run, so his numbers may be limited	1546796	1471969448272	1471969448388	 	32
3072	32406	But the Chiefs might depend on the run, so his numbers may be limited.	But the Chiefs might depend on thew run, so his numbers may be limited	1546798	1471969448747	1471969448798	h	72
3072	32406	But the Chiefs might depend on the run, so his numbers may be limited.	But the Chiefs might depend on thew run, so his numbers may be limited	1546878	1471969449261	1471969449362	i	73
3072	32406	But the Chiefs might depend on the run, so his numbers may be limited.	But the Chiefs might depend on thew run, so his numbers may be limited	1546880	1471969449465	1471969449572	s	83
3072	32406	But the Chiefs might depend on the run, so his numbers may be limited.	But the Chiefs might depend on thew run, so his numbers may be limited	1546882	1471969449666	1471969449794	 	32
3072	32406	But the Chiefs might depend on the run, so his numbers may be limited.	But the Chiefs might depend on thew run, so his numbers may be limited	1546885	1471969450671	1471969450779	n	78
3072	32406	But the Chiefs might depend on the run, so his numbers may be limited.	But the Chiefs might depend on thew run, so his numbers may be limited	1546888	1471969451061	1471969451164	u	85
3072	32406	But the Chiefs might depend on the run, so his numbers may be limited.	But the Chiefs might depend on thew run, so his numbers may be limited	1546941	1471969451285	1471969451403	m	77
3072	32406	But the Chiefs might depend on the run, so his numbers may be limited.	But the Chiefs might depend on thew run, so his numbers may be limited	1546943	1471969451881	1471969451964	b	66
3072	32406	But the Chiefs might depend on the run, so his numbers may be limited.	But the Chiefs might depend on thew run, so his numbers may be limited	1546944	1471969452043	1471969452162	e	69
3072	32406	But the Chiefs might depend on the run, so his numbers may be limited.	But the Chiefs might depend on thew run, so his numbers may be limited	1546945	1471969452178	1471969452294	r	82
3072	32406	But the Chiefs might depend on the run, so his numbers may be limited.	But the Chiefs might depend on thew run, so his numbers may be limited	1546946	1471969452669	1471969452773	s	83
3072	32406	But the Chiefs might depend on the run, so his numbers may be limited.	But the Chiefs might depend on thew run, so his numbers may be limited	1547078	1471969452866	1471969452979	 	32
3072	32406	But the Chiefs might depend on the run, so his numbers may be limited.	But the Chiefs might depend on thew run, so his numbers may be limited	1547082	1471969453761	1471969453863	m	77
3072	32406	But the Chiefs might depend on the run, so his numbers may be limited.	But the Chiefs might depend on thew run, so his numbers may be limited	1547085	1471969453972	1471969454079	a	65
3072	32406	But the Chiefs might depend on the run, so his numbers may be limited.	But the Chiefs might depend on thew run, so his numbers may be limited	1547087	1471969455208	1471969455300	y	89
3072	32406	But the Chiefs might depend on the run, so his numbers may be limited.	But the Chiefs might depend on thew run, so his numbers may be limited	1547091	1471969455924	1471969456038	 	32
3072	32406	But the Chiefs might depend on the run, so his numbers may be limited.	But the Chiefs might depend on thew run, so his numbers may be limited	1547139	1471969456142	1471969456257	b	66
3072	32406	But the Chiefs might depend on the run, so his numbers may be limited.	But the Chiefs might depend on thew run, so his numbers may be limited	1547140	1471969456319	1471969456429	e	69
3072	32406	But the Chiefs might depend on the run, so his numbers may be limited.	But the Chiefs might depend on thew run, so his numbers may be limited	1547141	1471969456558	1471969456647	 	32
3072	32406	But the Chiefs might depend on the run, so his numbers may be limited.	But the Chiefs might depend on thew run, so his numbers may be limited	1547142	1471969457196	1471969457272	l	76
3072	32406	But the Chiefs might depend on the run, so his numbers may be limited.	But the Chiefs might depend on thew run, so his numbers may be limited	1547144	1471969457477	1471969457551	i	73
3072	32406	But the Chiefs might depend on the run, so his numbers may be limited.	But the Chiefs might depend on thew run, so his numbers may be limited	1547258	1471969458083	1471969458203	m	77
3072	32406	But the Chiefs might depend on the run, so his numbers may be limited.	But the Chiefs might depend on thew run, so his numbers may be limited	1547260	1471969458297	1471969458395	i	73
3072	32406	But the Chiefs might depend on the run, so his numbers may be limited.	But the Chiefs might depend on thew run, so his numbers may be limited	1547262	1471969458692	1471969458812	t	84
3072	32406	But the Chiefs might depend on the run, so his numbers may be limited.	But the Chiefs might depend on thew run, so his numbers may be limited	1547264	1471969459330	1471969459488	e	69
3072	32406	But the Chiefs might depend on the run, so his numbers may be limited.	But the Chiefs might depend on thew run, so his numbers may be limited	1547280	1471969459476	1471969459620	d	68
3072	32445	You can reply via email.	You can reply via email.	1547572	1471969464523	1471969464876	SHIFT	16
3072	32445	You can reply via email.	You can reply via email.	1547570	1471969464711	1471969464813	Y	89
3072	32445	You can reply via email.	You can reply via email.	1547577	1471969465016	1471969465191	o	79
3072	32445	You can reply via email.	You can reply via email.	1547581	1471969465207	1471969465332	u	85
3072	32445	You can reply via email.	You can reply via email.	1547585	1471969465481	1471969465562	 	32
3072	32445	You can reply via email.	You can reply via email.	1547590	1471969465897	1471969465965	c	67
3072	32445	You can reply via email.	You can reply via email.	1547646	1471969466069	1471969466194	a	65
3072	32445	You can reply via email.	You can reply via email.	1547647	1471969466413	1471969466489	n	78
3072	32445	You can reply via email.	You can reply via email.	1547648	1471969466590	1471969466663	 	32
3072	32445	You can reply via email.	You can reply via email.	1547649	1471969467054	1471969467130	r	82
3072	32445	You can reply via email.	You can reply via email.	1547650	1471969467193	1471969467332	e	69
3072	32445	You can reply via email.	You can reply via email.	1547754	1471969467665	1471969467787	p	80
3072	32445	You can reply via email.	You can reply via email.	1547757	1471969467803	1471969467927	l	76
3072	32445	You can reply via email.	You can reply via email.	1547760	1471969468239	1471969468307	y	89
3072	32445	You can reply via email.	You can reply via email.	1547764	1471969468401	1471969468504	 	32
3072	32445	You can reply via email.	You can reply via email.	1547901	1471969469201	1471969469290	c	67
3072	32445	You can reply via email.	You can reply via email.	1547769	1471969469222	1471969469284	v	86
3072	32445	You can reply via email.	You can reply via email.	1547903	1471969469697	1471969469835	BKSP	8
3072	32445	You can reply via email.	You can reply via email.	1547906	1471969470039	1471969470097	v	86
3072	32445	You can reply via email.	You can reply via email.	1547910	1471969470113	1471969470198	BKSP	8
3072	32445	You can reply via email.	You can reply via email.	1547911	1471969470355	1471969470447	BKSP	8
3072	32445	You can reply via email.	You can reply via email.	1547914	1471969470635	1471969470745	v	86
3072	32445	You can reply via email.	You can reply via email.	1547917	1471969470918	1471969471014	i	73
3072	32445	You can reply via email.	You can reply via email.	1547920	1471969471463	1471969471590	a	65
3072	32445	You can reply via email.	You can reply via email.	1547923	1471969471634	1471969471728	 	32
3072	32445	You can reply via email.	You can reply via email.	1548038	1471969472262	1471969472362	e	69
3072	32445	You can reply via email.	You can reply via email.	1548039	1471969472565	1471969472693	m	77
3072	32445	You can reply via email.	You can reply via email.	1548040	1471969472974	1471969473093	a	65
3072	32445	You can reply via email.	You can reply via email.	1548042	1471969473235	1471969473316	i	73
3072	32445	You can reply via email.	You can reply via email.	1548046	1471969473438	1471969473522	l	76
3072	32445	You can reply via email.	You can reply via email.	1548075	1471969473931	1471969473990	.	190
3072	32461	I know you changed it.	I know you changed it	1548390	1471969478308	1471969478840	SHIFT	16
3072	32461	I know you changed it.	I know you changed it	1548386	1471969478652	1471969478746	I	73
3072	32461	I know you changed it.	I know you changed it	1548395	1471969478887	1471969479004	 	32
3072	32461	I know you changed it.	I know you changed it	1548399	1471969479254	1471969479365	k	75
3072	32461	I know you changed it.	I know you changed it	1548402	1471969479407	1471969479518	n	78
3072	32461	I know you changed it.	I know you changed it	1548405	1471969479649	1471969479747	o	79
3072	32461	I know you changed it.	I know you changed it	1548440	1471969479997	1471969480095	w	87
3072	32461	I know you changed it.	I know you changed it	1548443	1471969480189	1471969480295	 	32
3072	32461	I know you changed it.	I know you changed it	1548446	1471969480717	1471969480780	y	89
3072	32461	I know you changed it.	I know you changed it	1548449	1471969480905	1471969481072	o	79
3072	32461	I know you changed it.	I know you changed it	1548518	1471969481041	1471969481170	u	85
3072	32461	I know you changed it.	I know you changed it	1548523	1471969481360	1471969481448	 	32
3072	32461	I know you changed it.	I know you changed it	1548528	1471969481760	1471969481877	c	67
3072	32461	I know you changed it.	I know you changed it	1548533	1471969482034	1471969482145	h	72
3072	32461	I know you changed it.	I know you changed it	1548537	1471969482316	1471969482451	a	65
3072	32461	I know you changed it.	I know you changed it	1548543	1471969482576	1471969482693	n	78
3072	32461	I know you changed it.	I know you changed it	1548595	1471969483016	1471969483090	f	71
3072	32461	I know you changed it.	I know you changed it	1548597	1471969483370	1471969483436	]	221
3072	32461	I know you changed it.	I know you changed it	1548600	1471969483621	1471969483681	g	71
3072	32461	I know you changed it.	I know you changed it	1548602	1471969483712	1471969483773	BKSP	8
3072	32461	I know you changed it.	I know you changed it	1548604	1471969483929	1471969483986	BKSP	8
3072	32461	I know you changed it.	I know you changed it	1548608	1471969484232	1471969484314	BKSP	8
3072	32461	I know you changed it.	I know you changed it	1548611	1471969484423	1471969484528	g	71
3072	32461	I know you changed it.	I know you changed it	1548767	1471969484586	1471969484711	e	69
3072	32461	I know you changed it.	I know you changed it	1548770	1471969484946	1471969485016	DELETE	46
3072	32461	I know you changed it.	I know you changed it	1548773	1471969484958	1471969485023	BKSP	8
3072	32461	I know you changed it.	I know you changed it	1548779	1471969485132	1471969485199	BKSP	8
3072	32461	I know you changed it.	I know you changed it	1548776	1471969485146	1471969485192	DELETE	46
3072	32461	I know you changed it.	I know you changed it	1548782	1471969485445	1471969485582	e	69
3072	32461	I know you changed it.	I know you changed it	1548784	1471969486204	1471969486244	d	68
3072	32461	I know you changed it.	I know you changed it	1548786	1471969486664	1471969486707	BKSP	8
3072	32461	I know you changed it.	I know you changed it	1548790	1471969487043	1471969487161	d	68
3072	32461	I know you changed it.	I know you changed it	1548792	1471969487548	1471969487644	 	32
3072	32461	I know you changed it.	I know you changed it	1548835	1471969488209	1471969488295	i	73
3072	32461	I know you changed it.	I know you changed it	1548840	1471969488357	1471969488446	t	84
3072	32482	If not can I call you?	If not I can call you?	1549572	1471969495229	1471969495546	SHIFT	16
3072	32482	If not can I call you?	If not I can call you?	1549569	1471969495389	1471969495484	I	73
3072	32482	If not can I call you?	If not I can call you?	1549576	1471969495760	1471969495870	 	32
3072	32482	If not can I call you?	If not I can call you?	1549578	1471969496936	1471969496982	INSERT	45
3072	32482	If not can I call you?	If not I can call you?	1549580	1471969497367	1471969497442	DELETE	46
3072	32482	If not can I call you?	If not I can call you?	1549582	1471969497531	1471969497585	DELETE	46
3072	32482	If not can I call you?	If not I can call you?	1549584	1471969497682	1471969497717	DELETE	46
3072	32482	If not can I call you?	If not I can call you?	1549586	1471969498561	1471969498594	BKSP	8
3072	32482	If not can I call you?	If not I can call you?	1549588	1471969498645	1471969498706	BKSP	8
3072	32482	If not can I call you?	If not I can call you?	1549592	1471969498784	1471969498835	BKSP	8
3072	32482	If not can I call you?	If not I can call you?	1549603	1471969499626	1471969500062	SHIFT	16
3072	32482	If not can I call you?	If not I can call you?	1549597	1471969499836	1471969499922	I	73
3072	32482	If not can I call you?	If not I can call you?	1549608	1471969500343	1471969500413	f	70
3072	32482	If not can I call you?	If not I can call you?	1549614	1471969500569	1471969500662	 	32
3072	32482	If not can I call you?	If not I can call you?	1549784	1471969501606	1471969501746	n	78
3072	32482	If not can I call you?	If not I can call you?	1549789	1471969501680	1471969501856	o	79
3072	32482	If not can I call you?	If not I can call you?	1549794	1471969501903	1471969502092	t	84
3072	32482	If not can I call you?	If not I can call you?	1549799	1471969502042	1471969502161	 	32
3072	32482	If not can I call you?	If not I can call you?	1549889	1471969503298	1471969503640	SHIFT	16
3072	32482	If not can I call you?	If not I can call you?	1549805	1471969503466	1471969503563	I	73
3072	32482	If not can I call you?	If not I can call you?	1549892	1471969503822	1471969503920	 	32
3072	32482	If not can I call you?	If not I can call you?	1549896	1471969504139	1471969504259	c	67
3072	32482	If not can I call you?	If not I can call you?	1549899	1471969504511	1471969504611	a	65
3072	32482	If not can I call you?	If not I can call you?	1549902	1471969504736	1471969504797	n	78
3072	32482	If not can I call you?	If not I can call you?	1549904	1471969504969	1471969505061	 	32
3072	32482	If not can I call you?	If not I can call you?	1550001	1471969505561	1471969505646	c	67
3072	32482	If not can I call you?	If not I can call you?	1550004	1471969505760	1471969505891	a	65
3072	32482	If not can I call you?	If not I can call you?	1550006	1471969505969	1471969506041	l	76
3072	32482	If not can I call you?	If not I can call you?	1550007	1471969506125	1471969506180	l	76
3072	32482	If not can I call you?	If not I can call you?	1550008	1471969506383	1471969506461	SHIFT	16
3072	32482	If not can I call you?	If not I can call you?	1550009	1471969506669	1471969506777	 	32
3072	32482	If not can I call you?	If not I can call you?	1550242	1471969507068	1471969507282	y	89
3072	32482	If not can I call you?	If not I can call you?	1550250	1471969507715	1471969507795	o	79
3072	32482	If not can I call you?	If not I can call you?	1550255	1471969509066	1471969509177	u	85
3072	32482	If not can I call you?	If not I can call you?	1550266	1471969510790	1471969511168	SHIFT	16
3072	32482	If not can I call you?	If not I can call you?	1550258	1471969510900	1471969511004	?	191
3072	32482	If not can I call you?	If not I can call you?	1550323	1471969511138	1471969511290	|	220
3072	32482	If not can I call you?	If not I can call you?	1550326	1471969512146	1471969512207	BKSP	8
3072	32511	I'm pleased with my speeds.	I'm pleased with my speeds.	1550916	1471969512431	1471969519049	SHIFT	16
3072	32511	I'm pleased with my speeds.	I'm pleased with my speeds.	1550912	1471969518883	1471969518955	I	73
3072	32511	I'm pleased with my speeds.	I'm pleased with my speeds.	1550921	1471969519442	1471969519495	'	222
3072	32511	I'm pleased with my speeds.	I'm pleased with my speeds.	1550923	1471969519965	1471969520061	m	77
3072	32511	I'm pleased with my speeds.	I'm pleased with my speeds.	1550925	1471969520155	1471969520245	 	32
3072	32511	I'm pleased with my speeds.	I'm pleased with my speeds.	1550927	1471969520951	1471969521147	p	80
3072	32511	I'm pleased with my speeds.	I'm pleased with my speeds.	1550982	1471969521109	1471969521258	l	76
3072	32511	I'm pleased with my speeds.	I'm pleased with my speeds.	1550984	1471969521289	1471969521434	e	69
3072	32511	I'm pleased with my speeds.	I'm pleased with my speeds.	1550986	1471969521552	1471969521711	a	65
3072	32511	I'm pleased with my speeds.	I'm pleased with my speeds.	1550989	1471969521836	1471969521928	s	83
3072	32511	I'm pleased with my speeds.	I'm pleased with my speeds.	1550993	1471969522267	1471969522305	e	69
3072	32511	I'm pleased with my speeds.	I'm pleased with my speeds.	1550997	1471969522345	1471969522419	w	87
3072	32511	I'm pleased with my speeds.	I'm pleased with my speeds.	1551146	1471969522398	1471969522429	e	69
3072	32511	I'm pleased with my speeds.	I'm pleased with my speeds.	1551150	1471969522846	1471969522890	BKSP	8
3072	32511	I'm pleased with my speeds.	I'm pleased with my speeds.	1551154	1471969522968	1471969523045	BKSP	8
3072	32511	I'm pleased with my speeds.	I'm pleased with my speeds.	1551157	1471969523263	1471969523364	e	69
3072	32511	I'm pleased with my speeds.	I'm pleased with my speeds.	1551164	1471969523502	1471969523620	d	68
3072	32511	I'm pleased with my speeds.	I'm pleased with my speeds.	1551168	1471969523777	1471969523885	BKSP	8
3072	32511	I'm pleased with my speeds.	I'm pleased with my speeds.	1551172	1471969523947	1471969524045	BKSP	8
3072	32511	I'm pleased with my speeds.	I'm pleased with my speeds.	1551175	1471969524139	1471969524266	d	68
3072	32511	I'm pleased with my speeds.	I'm pleased with my speeds.	1551181	1471969524476	1471969524593	 	32
3072	32511	I'm pleased with my speeds.	I'm pleased with my speeds.	1551184	1471969525420	1471969525506	w	87
3072	32511	I'm pleased with my speeds.	I'm pleased with my speeds.	1551248	1471969525573	1471969525700	i	73
3072	32511	I'm pleased with my speeds.	I'm pleased with my speeds.	1551250	1471969525759	1471969525860	t	84
3072	32511	I'm pleased with my speeds.	I'm pleased with my speeds.	1551253	1471969525891	1471969525987	h	72
3072	32511	I'm pleased with my speeds.	I'm pleased with my speeds.	1551257	1471969526112	1471969526219	 	32
3072	32511	I'm pleased with my speeds.	I'm pleased with my speeds.	1551260	1471969527104	1471969527204	m	77
3072	32511	I'm pleased with my speeds.	I'm pleased with my speeds.	1551359	1471969527261	1471969527375	y	89
3072	32511	I'm pleased with my speeds.	I'm pleased with my speeds.	1551366	1471969527441	1471969527534	 	32
3072	32511	I'm pleased with my speeds.	I'm pleased with my speeds.	1551372	1471969528044	1471969528160	s	83
3072	32511	I'm pleased with my speeds.	I'm pleased with my speeds.	1551378	1471969528379	1471969528477	p	80
3072	32511	I'm pleased with my speeds.	I'm pleased with my speeds.	1551384	1471969528540	1471969528642	e	69
3072	32511	I'm pleased with my speeds.	I'm pleased with my speeds.	1551498	1471969528736	1471969528843	e	69
3072	32511	I'm pleased with my speeds.	I'm pleased with my speeds.	1551502	1471969528906	1471969529040	d	68
3072	32511	I'm pleased with my speeds.	I'm pleased with my speeds.	1551506	1471969529181	1471969529327	s	83
3072	32511	I'm pleased with my speeds.	I'm pleased with my speeds.	1551510	1471969529434	1471969529534	 	32
3072	32511	I'm pleased with my speeds.	I'm pleased with my speeds.	1551514	1471969529979	1471969530120	BKSP	8
3072	32511	I'm pleased with my speeds.	I'm pleased with my speeds.	1551517	1471969530829	1471969530927	.	190
3072	32534	I was a bit rusty but I didn't want to miss the elections back home.	I was a bit rusty but I didn't want to miss the elections back home	1552090	1471969539076	1471969539461	SHIFT	16
3072	32534	I was a bit rusty but I didn't want to miss the elections back home.	I was a bit rusty but I didn't want to miss the elections back home	1552086	1471969539264	1471969539354	I	73
3072	32534	I was a bit rusty but I didn't want to miss the elections back home.	I was a bit rusty but I didn't want to miss the elections back home	1552096	1471969539597	1471969539706	 	32
3072	32534	I was a bit rusty but I didn't want to miss the elections back home.	I was a bit rusty but I didn't want to miss the elections back home	1552099	1471969539753	1471969539905	w	87
3072	32534	I was a bit rusty but I didn't want to miss the elections back home.	I was a bit rusty but I didn't want to miss the elections back home	1552104	1471969539983	1471969540222	a	65
3072	32534	I was a bit rusty but I didn't want to miss the elections back home.	I was a bit rusty but I didn't want to miss the elections back home	1552158	1471969540169	1471969540333	s	83
3072	32534	I was a bit rusty but I didn't want to miss the elections back home.	I was a bit rusty but I didn't want to miss the elections back home	1552160	1471969540349	1471969540483	 	32
3072	32534	I was a bit rusty but I didn't want to miss the elections back home.	I was a bit rusty but I didn't want to miss the elections back home	1552167	1471969540592	1471969540726	a	65
3072	32534	I was a bit rusty but I didn't want to miss the elections back home.	I was a bit rusty but I didn't want to miss the elections back home	1552170	1471969540773	1471969540905	 	32
3072	32534	I was a bit rusty but I didn't want to miss the elections back home.	I was a bit rusty but I didn't want to miss the elections back home	1552173	1471969541093	1471969541169	b	66
3072	32534	I was a bit rusty but I didn't want to miss the elections back home.	I was a bit rusty but I didn't want to miss the elections back home	1552175	1471969541589	1471969541675	i	73
3072	32534	I was a bit rusty but I didn't want to miss the elections back home.	I was a bit rusty but I didn't want to miss the elections back home	1552264	1471969541822	1471969541878	t	84
3072	32534	I was a bit rusty but I didn't want to miss the elections back home.	I was a bit rusty but I didn't want to miss the elections back home	1552266	1471969542019	1471969542140	 	32
3072	32534	I was a bit rusty but I didn't want to miss the elections back home.	I was a bit rusty but I didn't want to miss the elections back home	1552269	1471969542589	1471969542659	r	82
3072	32534	I was a bit rusty but I didn't want to miss the elections back home.	I was a bit rusty but I didn't want to miss the elections back home	1552275	1471969543065	1471969543192	u	85
3072	32534	I was a bit rusty but I didn't want to miss the elections back home.	I was a bit rusty but I didn't want to miss the elections back home	1552277	1471969543348	1471969543442	s	83
3072	32534	I was a bit rusty but I didn't want to miss the elections back home.	I was a bit rusty but I didn't want to miss the elections back home	1552384	1471969543775	1471969543860	t	84
3072	32534	I was a bit rusty but I didn't want to miss the elections back home.	I was a bit rusty but I didn't want to miss the elections back home	1552386	1471969543953	1471969544043	y	89
3072	32534	I was a bit rusty but I didn't want to miss the elections back home.	I was a bit rusty but I didn't want to miss the elections back home	1552391	1471969544199	1471969544276	 	32
3072	32534	I was a bit rusty but I didn't want to miss the elections back home.	I was a bit rusty but I didn't want to miss the elections back home	1552397	1471969544636	1471969544725	b	66
3072	32534	I was a bit rusty but I didn't want to miss the elections back home.	I was a bit rusty but I didn't want to miss the elections back home	1552404	1471969545068	1471969545206	u	85
3072	32534	I was a bit rusty but I didn't want to miss the elections back home.	I was a bit rusty but I didn't want to miss the elections back home	1552477	1471969545269	1471969545383	t	84
3072	32534	I was a bit rusty but I didn't want to miss the elections back home.	I was a bit rusty but I didn't want to miss the elections back home	1552480	1471969545398	1471969545493	 	32
3072	32534	I was a bit rusty but I didn't want to miss the elections back home.	I was a bit rusty but I didn't want to miss the elections back home	1552485	1471969546103	1471969546407	SHIFT	16
3072	32534	I was a bit rusty but I didn't want to miss the elections back home.	I was a bit rusty but I didn't want to miss the elections back home	1552482	1471969546259	1471969546360	I	73
3072	32534	I was a bit rusty but I didn't want to miss the elections back home.	I was a bit rusty but I didn't want to miss the elections back home	1552487	1471969546548	1471969546642	 	32
3072	32534	I was a bit rusty but I didn't want to miss the elections back home.	I was a bit rusty but I didn't want to miss the elections back home	1552489	1471969546736	1471969546825	d	68
3072	32534	I was a bit rusty but I didn't want to miss the elections back home.	I was a bit rusty but I didn't want to miss the elections back home	1552577	1471969547319	1471969547423	i	73
3072	32534	I was a bit rusty but I didn't want to miss the elections back home.	I was a bit rusty but I didn't want to miss the elections back home	1552581	1471969547470	1471969547602	d	68
3072	32534	I was a bit rusty but I didn't want to miss the elections back home.	I was a bit rusty but I didn't want to miss the elections back home	1552586	1471969547900	1471969547992	 	32
3072	32534	I was a bit rusty but I didn't want to miss the elections back home.	I was a bit rusty but I didn't want to miss the elections back home	1552589	1471969548107	1471969548191	n	78
3072	32534	I was a bit rusty but I didn't want to miss the elections back home.	I was a bit rusty but I didn't want to miss the elections back home	1552594	1471969548613	1471969548723	i	73
3072	32534	I was a bit rusty but I didn't want to miss the elections back home.	I was a bit rusty but I didn't want to miss the elections back home	1552731	1471969548783	1471969548947	t	84
3072	32534	I was a bit rusty but I didn't want to miss the elections back home.	I was a bit rusty but I didn't want to miss the elections back home	1552738	1471969549072	1471969549218	 	32
3072	32534	I was a bit rusty but I didn't want to miss the elections back home.	I was a bit rusty but I didn't want to miss the elections back home	1552744	1471969550677	1471969550800	=	187
3072	32534	I was a bit rusty but I didn't want to miss the elections back home.	I was a bit rusty but I didn't want to miss the elections back home	1552749	1471969550863	1471969550942	=	187
3072	32534	I was a bit rusty but I didn't want to miss the elections back home.	I was a bit rusty but I didn't want to miss the elections back home	1552753	1471969551020	1471969551082	=	187
3072	32534	I was a bit rusty but I didn't want to miss the elections back home.	I was a bit rusty but I didn't want to miss the elections back home	1552965	1471969551188	1471969551274	BKSP	8
3072	32534	I was a bit rusty but I didn't want to miss the elections back home.	I was a bit rusty but I didn't want to miss the elections back home	1552967	1471969551368	1471969551451	BKSP	8
3072	32534	I was a bit rusty but I didn't want to miss the elections back home.	I was a bit rusty but I didn't want to miss the elections back home	1552970	1471969551534	1471969551632	BKSP	8
3072	32534	I was a bit rusty but I didn't want to miss the elections back home.	I was a bit rusty but I didn't want to miss the elections back home	1552973	1471969551675	1471969551752	BKSP	8
3072	32534	I was a bit rusty but I didn't want to miss the elections back home.	I was a bit rusty but I didn't want to miss the elections back home	1552977	1471969551804	1471969551892	BKSP	8
3072	32534	I was a bit rusty but I didn't want to miss the elections back home.	I was a bit rusty but I didn't want to miss the elections back home	1552980	1471969551926	1471969552009	BKSP	8
3072	32534	I was a bit rusty but I didn't want to miss the elections back home.	I was a bit rusty but I didn't want to miss the elections back home	1552983	1471969552072	1471969552159	BKSP	8
3072	32534	I was a bit rusty but I didn't want to miss the elections back home.	I was a bit rusty but I didn't want to miss the elections back home	1552987	1471969552237	1471969552302	BKSP	8
3072	32534	I was a bit rusty but I didn't want to miss the elections back home.	I was a bit rusty but I didn't want to miss the elections back home	1552989	1471969553384	1471969553515	n	78
3072	32534	I was a bit rusty but I didn't want to miss the elections back home.	I was a bit rusty but I didn't want to miss the elections back home	1552994	1471969554385	1471969554476	'	222
3072	32534	I was a bit rusty but I didn't want to miss the elections back home.	I was a bit rusty but I didn't want to miss the elections back home	1553001	1471969554679	1471969554774	t	84
3072	32534	I was a bit rusty but I didn't want to miss the elections back home.	I was a bit rusty but I didn't want to miss the elections back home	1553010	1471969554852	1471969554946	 	32
3072	32534	I was a bit rusty but I didn't want to miss the elections back home.	I was a bit rusty but I didn't want to miss the elections back home	1553018	1471969555796	1471969555953	w	87
3072	32534	I was a bit rusty but I didn't want to miss the elections back home.	I was a bit rusty but I didn't want to miss the elections back home	1553043	1471969555968	1471969556135	a	65
3072	32534	I was a bit rusty but I didn't want to miss the elections back home.	I was a bit rusty but I didn't want to miss the elections back home	1553045	1471969556401	1471969556523	n	78
3072	32534	I was a bit rusty but I didn't want to miss the elections back home.	I was a bit rusty but I didn't want to miss the elections back home	1553049	1471969556648	1471969556787	t	84
3072	32534	I was a bit rusty but I didn't want to miss the elections back home.	I was a bit rusty but I didn't want to miss the elections back home	1553052	1471969556834	1471969556894	 	32
3072	32534	I was a bit rusty but I didn't want to miss the elections back home.	I was a bit rusty but I didn't want to miss the elections back home	1553057	1471969556941	1471969557041	t	84
3072	32534	I was a bit rusty but I didn't want to miss the elections back home.	I was a bit rusty but I didn't want to miss the elections back home	1553170	1471969557275	1471969557376	o	79
3072	32534	I was a bit rusty but I didn't want to miss the elections back home.	I was a bit rusty but I didn't want to miss the elections back home	1553173	1471969557582	1471969557638	 	32
3072	32534	I was a bit rusty but I didn't want to miss the elections back home.	I was a bit rusty but I didn't want to miss the elections back home	1553180	1471969558301	1471969558401	m	77
3072	32534	I was a bit rusty but I didn't want to miss the elections back home.	I was a bit rusty but I didn't want to miss the elections back home	1553184	1471969558479	1471969558575	i	73
3072	32534	I was a bit rusty but I didn't want to miss the elections back home.	I was a bit rusty but I didn't want to miss the elections back home	1553190	1471969558621	1471969558740	s	83
3072	32534	I was a bit rusty but I didn't want to miss the elections back home.	I was a bit rusty but I didn't want to miss the elections back home	1553280	1471969558829	1471969558940	 	32
3072	32534	I was a bit rusty but I didn't want to miss the elections back home.	I was a bit rusty but I didn't want to miss the elections back home	1553283	1471969559350	1471969559442	BKSP	8
3072	32534	I was a bit rusty but I didn't want to miss the elections back home.	I was a bit rusty but I didn't want to miss the elections back home	1553287	1471969559519	1471969559637	s	83
3072	32534	I was a bit rusty but I didn't want to miss the elections back home.	I was a bit rusty but I didn't want to miss the elections back home	1553291	1471969559894	1471969559991	 	32
3072	32534	I was a bit rusty but I didn't want to miss the elections back home.	I was a bit rusty but I didn't want to miss the elections back home	1553293	1471969560116	1471969560218	t	84
3072	32534	I was a bit rusty but I didn't want to miss the elections back home.	I was a bit rusty but I didn't want to miss the elections back home	1553294	1471969560311	1471969560395	h	72
3072	32534	I was a bit rusty but I didn't want to miss the elections back home.	I was a bit rusty but I didn't want to miss the elections back home	1553480	1471969560437	1471969560566	e	69
3072	32534	I was a bit rusty but I didn't want to miss the elections back home.	I was a bit rusty but I didn't want to miss the elections back home	1553483	1471969560660	1471969560742	e	69
3072	32534	I was a bit rusty but I didn't want to miss the elections back home.	I was a bit rusty but I didn't want to miss the elections back home	1553485	1471969560805	1471969560924	 	32
3072	32534	I was a bit rusty but I didn't want to miss the elections back home.	I was a bit rusty but I didn't want to miss the elections back home	1553486	1471969561194	1471969561431	BKSP	8
3072	32534	I was a bit rusty but I didn't want to miss the elections back home.	I was a bit rusty but I didn't want to miss the elections back home	1553487	1471969561699	1471969561783	BKSP	8
3072	32534	I was a bit rusty but I didn't want to miss the elections back home.	I was a bit rusty but I didn't want to miss the elections back home	1553488	1471969561822	1471969561957	 	32
3072	32534	I was a bit rusty but I didn't want to miss the elections back home.	I was a bit rusty but I didn't want to miss the elections back home	1553489	1471969563812	1471969563908	e	69
3072	32534	I was a bit rusty but I didn't want to miss the elections back home.	I was a bit rusty but I didn't want to miss the elections back home	1553579	1471969564203	1471969564307	l	76
3072	32534	I was a bit rusty but I didn't want to miss the elections back home.	I was a bit rusty but I didn't want to miss the elections back home	1553581	1471969564322	1471969564465	e	69
3072	32534	I was a bit rusty but I didn't want to miss the elections back home.	I was a bit rusty but I didn't want to miss the elections back home	1553585	1471969564683	1471969564791	c	67
3072	32534	I was a bit rusty but I didn't want to miss the elections back home.	I was a bit rusty but I didn't want to miss the elections back home	1553589	1471969565057	1471969565125	t	84
3072	32534	I was a bit rusty but I didn't want to miss the elections back home.	I was a bit rusty but I didn't want to miss the elections back home	1553595	1471969565745	1471969565914	i	73
3072	32534	I was a bit rusty but I didn't want to miss the elections back home.	I was a bit rusty but I didn't want to miss the elections back home	1553770	1471969565883	1471969566038	n	78
3072	32534	I was a bit rusty but I didn't want to miss the elections back home.	I was a bit rusty but I didn't want to miss the elections back home	1553775	1471969566272	1471969566310	=	187
3072	32534	I was a bit rusty but I didn't want to miss the elections back home.	I was a bit rusty but I didn't want to miss the elections back home	1553781	1471969566687	1471969566806	BKSP	8
3072	32534	I was a bit rusty but I didn't want to miss the elections back home.	I was a bit rusty but I didn't want to miss the elections back home	1553786	1471969566869	1471969566974	BKSP	8
3072	32534	I was a bit rusty but I didn't want to miss the elections back home.	I was a bit rusty but I didn't want to miss the elections back home	1553790	1471969567492	1471969567592	o	79
3072	32534	I was a bit rusty but I didn't want to miss the elections back home.	I was a bit rusty but I didn't want to miss the elections back home	1553793	1471969567705	1471969567804	n	78
3072	32534	I was a bit rusty but I didn't want to miss the elections back home.	I was a bit rusty but I didn't want to miss the elections back home	1553797	1471969567979	1471969568090	s	83
3072	32534	I was a bit rusty but I didn't want to miss the elections back home.	I was a bit rusty but I didn't want to miss the elections back home	1553805	1471969568121	1471969568238	 	32
3072	32534	I was a bit rusty but I didn't want to miss the elections back home.	I was a bit rusty but I didn't want to miss the elections back home	1553876	1471969568624	1471969568733	b	66
3072	32534	I was a bit rusty but I didn't want to miss the elections back home.	I was a bit rusty but I didn't want to miss the elections back home	1553879	1471969568827	1471969568940	a	65
3072	32534	I was a bit rusty but I didn't want to miss the elections back home.	I was a bit rusty but I didn't want to miss the elections back home	1553884	1471969569143	1471969569256	c	67
3072	32534	I was a bit rusty but I didn't want to miss the elections back home.	I was a bit rusty but I didn't want to miss the elections back home	1553888	1471969569561	1471969569676	k	75
3072	32534	I was a bit rusty but I didn't want to miss the elections back home.	I was a bit rusty but I didn't want to miss the elections back home	1553894	1471969569767	1471969569886	 	32
3072	32534	I was a bit rusty but I didn't want to miss the elections back home.	I was a bit rusty but I didn't want to miss the elections back home	1554012	1471969570688	1471969570759	h	72
3072	32534	I was a bit rusty but I didn't want to miss the elections back home.	I was a bit rusty but I didn't want to miss the elections back home	1554015	1471969571072	1471969571183	o	79
3072	32534	I was a bit rusty but I didn't want to miss the elections back home.	I was a bit rusty but I didn't want to miss the elections back home	1554018	1471969571230	1471969571371	m	77
3072	32534	I was a bit rusty but I didn't want to miss the elections back home.	I was a bit rusty but I didn't want to miss the elections back home	1554020	1471969571418	1471969571548	e	69
3072	32591	Let me know if I can help.	Let me know if I can help.	1554358	1471969575492	1471969575963	SHIFT	16
3072	32591	Let me know if I can help.	Let me know if I can help.	1554355	1471969575792	1471969575901	L	76
3072	32591	Let me know if I can help.	Let me know if I can help.	1554361	1471969576166	1471969576305	e	69
3072	32591	Let me know if I can help.	Let me know if I can help.	1554364	1471969576383	1471969576443	t	84
3072	32591	Let me know if I can help.	Let me know if I can help.	1554367	1471969576712	1471969576808	 	32
3072	32591	Let me know if I can help.	Let me know if I can help.	1554371	1471969577435	1471969577540	m	77
3072	32591	Let me know if I can help.	Let me know if I can help.	1554490	1471969577603	1471969577727	e	69
3072	32591	Let me know if I can help.	Let me know if I can help.	1554493	1471969577785	1471969577892	 	32
3072	32591	Let me know if I can help.	Let me know if I can help.	1554500	1471969578150	1471969578582	SHIFT	16
3072	32591	Let me know if I can help.	Let me know if I can help.	1554497	1471969578364	1471969578426	K	75
3072	32591	Let me know if I can help.	Let me know if I can help.	1554502	1471969578786	1471969578907	BKSP	8
3072	32591	Let me know if I can help.	Let me know if I can help.	1554506	1471969578985	1471969579059	BKSP	8
3072	32591	Let me know if I can help.	Let me know if I can help.	1554509	1471969579153	1471969579204	BKSP	8
3072	32591	Let me know if I can help.	Let me know if I can help.	1554511	1471969580149	1471969580224	e	69
3072	32591	Let me know if I can help.	Let me know if I can help.	1554513	1471969580302	1471969580390	 	32
3072	32591	Let me know if I can help.	Let me know if I can help.	1554553	1471969580908	1471969580999	k	75
3072	32591	Let me know if I can help.	Let me know if I can help.	1554555	1471969581046	1471969581196	n	78
3072	32591	Let me know if I can help.	Let me know if I can help.	1554559	1471969581243	1471969581333	o	79
3072	32591	Let me know if I can help.	Let me know if I can help.	1554562	1471969581396	1471969581521	w	87
3072	32591	Let me know if I can help.	Let me know if I can help.	1554565	1471969581568	1471969581628	 	32
3072	32591	Let me know if I can help.	Let me know if I can help.	1554729	1471969582191	1471969582299	i	73
3072	32591	Let me know if I can help.	Let me know if I can help.	1554736	1471969582424	1471969582523	f	70
3072	32591	Let me know if I can help.	Let me know if I can help.	1554745	1471969582570	1471969582682	 	32
3072	32591	Let me know if I can help.	Let me know if I can help.	1554753	1471969583137	1471969583208	i	73
3072	32591	Let me know if I can help.	Let me know if I can help.	1554760	1471969583473	1471969583574	BKSP	8
3072	32591	Let me know if I can help.	Let me know if I can help.	1554902	1471969583659	1471969584303	SHIFT	16
3072	32591	Let me know if I can help.	Let me know if I can help.	1554764	1471969583994	1471969584038	I	73
3072	32591	Let me know if I can help.	Let me know if I can help.	1554903	1471969584887	1471969584974	 	32
3072	32591	Let me know if I can help.	Let me know if I can help.	1554905	1471969585318	1471969585409	c	67
3072	32591	Let me know if I can help.	Let me know if I can help.	1554907	1471969585805	1471969585929	a	65
3072	32591	Let me know if I can help.	Let me know if I can help.	1554910	1471969586023	1471969586125	n	78
3072	32591	Let me know if I can help.	Let me know if I can help.	1554915	1471969586218	1471969586306	 	32
3072	32591	Let me know if I can help.	Let me know if I can help.	1555079	1471969586556	1471969586612	j	74
3072	32591	Let me know if I can help.	Let me know if I can help.	1555077	1471969586576	1471969586603	h	72
3072	32591	Let me know if I can help.	Let me know if I can help.	1555085	1471969587158	1471969587255	BKSP	8
3072	32591	Let me know if I can help.	Let me know if I can help.	1555090	1471969587412	1471969587491	BKSP	8
3072	32591	Let me know if I can help.	Let me know if I can help.	1555098	1471969588055	1471969588141	h	72
3072	32591	Let me know if I can help.	Let me know if I can help.	1555104	1471969588219	1471969588307	e	69
3072	32591	Let me know if I can help.	Let me know if I can help.	1555110	1471969588495	1471969588621	l	76
3072	32591	Let me know if I can help.	Let me know if I can help.	1555185	1471969588695	1471969588760	p	80
3072	32591	Let me know if I can help.	Let me know if I can help.	1555186	1471969589213	1471969589292	.	190
3072	32613	We're not adversarial in this, but we want to know what's going on.	We're not adversarial in this, but we want to know what's going on.	1555818	1471969597299	1471969598071	SHIFT	16
3072	32613	We're not adversarial in this, but we want to know what's going on.	We're not adversarial in this, but we want to know what's going on.	1555811	1471969597804	1471969597953	W	87
3072	32613	We're not adversarial in this, but we want to know what's going on.	We're not adversarial in this, but we want to know what's going on.	1555822	1471969599458	1471969599581	e	69
3072	32613	We're not adversarial in this, but we want to know what's going on.	We're not adversarial in this, but we want to know what's going on.	1555826	1471969600090	1471969600189	'	222
3072	32613	We're not adversarial in this, but we want to know what's going on.	We're not adversarial in this, but we want to know what's going on.	1555830	1471969600236	1471969600402	r	82
3072	32613	We're not adversarial in this, but we want to know what's going on.	We're not adversarial in this, but we want to know what's going on.	1555835	1471969600418	1471969600531	e	69
3072	32613	We're not adversarial in this, but we want to know what's going on.	We're not adversarial in this, but we want to know what's going on.	1555919	1471969600667	1471969600797	 	32
3072	32613	We're not adversarial in this, but we want to know what's going on.	We're not adversarial in this, but we want to know what's going on.	1555922	1471969601204	1471969601291	n	78
3072	32613	We're not adversarial in this, but we want to know what's going on.	We're not adversarial in this, but we want to know what's going on.	1555925	1471969601722	1471969601836	o	79
3072	32613	We're not adversarial in this, but we want to know what's going on.	We're not adversarial in this, but we want to know what's going on.	1555926	1471969601953	1471969602025	t	84
3072	32613	We're not adversarial in this, but we want to know what's going on.	We're not adversarial in this, but we want to know what's going on.	1555931	1471969602135	1471969602234	 	32
3072	32613	We're not adversarial in this, but we want to know what's going on.	We're not adversarial in this, but we want to know what's going on.	1556032	1471969602609	1471969602769	a	65
3072	32613	We're not adversarial in this, but we want to know what's going on.	We're not adversarial in this, but we want to know what's going on.	1556034	1471969602894	1471969602999	d	68
3072	32613	We're not adversarial in this, but we want to know what's going on.	We're not adversarial in this, but we want to know what's going on.	1556036	1471969603792	1471969603902	v	86
3072	32613	We're not adversarial in this, but we want to know what's going on.	We're not adversarial in this, but we want to know what's going on.	1556037	1471969604307	1471969604432	e	69
3072	32613	We're not adversarial in this, but we want to know what's going on.	We're not adversarial in this, but we want to know what's going on.	1556038	1471969604478	1471969604606	r	82
3072	32613	We're not adversarial in this, but we want to know what's going on.	We're not adversarial in this, but we want to know what's going on.	1556333	1471969604805	1471969604933	s	83
3072	32613	We're not adversarial in this, but we want to know what's going on.	We're not adversarial in this, but we want to know what's going on.	1556338	1471969605921	1471969606041	BKSP	8
3072	32613	We're not adversarial in this, but we want to know what's going on.	We're not adversarial in this, but we want to know what's going on.	1556341	1471969607670	1471969607847	s	83
3072	32613	We're not adversarial in this, but we want to know what's going on.	We're not adversarial in this, but we want to know what's going on.	1556344	1471969607864	1471969608025	a	65
3072	32613	We're not adversarial in this, but we want to know what's going on.	We're not adversarial in this, but we want to know what's going on.	1556346	1471969608244	1471969608356	r	82
3072	32613	We're not adversarial in this, but we want to know what's going on.	We're not adversarial in this, but we want to know what's going on.	1556348	1471969610180	1471969610291	i	73
3072	32613	We're not adversarial in this, but we want to know what's going on.	We're not adversarial in this, but we want to know what's going on.	1556450	1471969610322	1471969610463	a	65
3072	32613	We're not adversarial in this, but we want to know what's going on.	We're not adversarial in this, but we want to know what's going on.	1556452	1471969610714	1471969610801	l	76
3072	32613	We're not adversarial in this, but we want to know what's going on.	We're not adversarial in this, but we want to know what's going on.	1556456	1471969610957	1471969611057	 	32
3072	32613	We're not adversarial in this, but we want to know what's going on.	We're not adversarial in this, but we want to know what's going on.	1556460	1471969611932	1471969612091	i	73
3072	32613	We're not adversarial in this, but we want to know what's going on.	We're not adversarial in this, but we want to know what's going on.	1556545	1471969612058	1471969612172	n	78
3072	32613	We're not adversarial in this, but we want to know what's going on.	We're not adversarial in this, but we want to know what's going on.	1556548	1471969612281	1471969612358	 	32
3072	32613	We're not adversarial in this, but we want to know what's going on.	We're not adversarial in this, but we want to know what's going on.	1556551	1471969612478	1471969612542	t	84
3072	32613	We're not adversarial in this, but we want to know what's going on.	We're not adversarial in this, but we want to know what's going on.	1556554	1471969612620	1471969612717	h	72
3072	32613	We're not adversarial in this, but we want to know what's going on.	We're not adversarial in this, but we want to know what's going on.	1556559	1471969613139	1471969613224	i	73
3072	32613	We're not adversarial in this, but we want to know what's going on.	We're not adversarial in this, but we want to know what's going on.	1556562	1471969613287	1471969613383	s	83
3072	32613	We're not adversarial in this, but we want to know what's going on.	We're not adversarial in this, but we want to know what's going on.	1556750	1471969615020	1471969615104	,	188
3072	32613	We're not adversarial in this, but we want to know what's going on.	We're not adversarial in this, but we want to know what's going on.	1556753	1471969615197	1471969615295	 	32
3072	32613	We're not adversarial in this, but we want to know what's going on.	We're not adversarial in this, but we want to know what's going on.	1556755	1471969616812	1471969616943	b	66
3072	32613	We're not adversarial in this, but we want to know what's going on.	We're not adversarial in this, but we want to know what's going on.	1556756	1471969616914	1471969617047	u	85
3072	32613	We're not adversarial in this, but we want to know what's going on.	We're not adversarial in this, but we want to know what's going on.	1556757	1471969617110	1471969617238	t	84
3072	32613	We're not adversarial in this, but we want to know what's going on.	We're not adversarial in this, but we want to know what's going on.	1556868	1471969617342	1471969617527	 	32
3072	32613	We're not adversarial in this, but we want to know what's going on.	We're not adversarial in this, but we want to know what's going on.	1556870	1471969618593	1471969618700	w	87
3072	32613	We're not adversarial in this, but we want to know what's going on.	We're not adversarial in this, but we want to know what's going on.	1556874	1471969618747	1471969618887	e	69
3072	32613	We're not adversarial in this, but we want to know what's going on.	We're not adversarial in this, but we want to know what's going on.	1556878	1471969618949	1471969619097	 	32
3072	32613	We're not adversarial in this, but we want to know what's going on.	We're not adversarial in this, but we want to know what's going on.	1556881	1471969619225	1471969619307	w	87
3072	32613	We're not adversarial in this, but we want to know what's going on.	We're not adversarial in this, but we want to know what's going on.	1556982	1471969619460	1471969619588	a	65
3072	32613	We're not adversarial in this, but we want to know what's going on.	We're not adversarial in this, but we want to know what's going on.	1556987	1471969620120	1471969620206	n	78
3072	32613	We're not adversarial in this, but we want to know what's going on.	We're not adversarial in this, but we want to know what's going on.	1556990	1471969620237	1471969620348	t	84
3072	32613	We're not adversarial in this, but we want to know what's going on.	We're not adversarial in this, but we want to know what's going on.	1556994	1471969620395	1471969620522	 	32
3072	32613	We're not adversarial in this, but we want to know what's going on.	We're not adversarial in this, but we want to know what's going on.	1556997	1471969621274	1471969621341	t	84
3072	32613	We're not adversarial in this, but we want to know what's going on.	We're not adversarial in this, but we want to know what's going on.	1557096	1471969621479	1471969621557	o	79
3072	32613	We're not adversarial in this, but we want to know what's going on.	We're not adversarial in this, but we want to know what's going on.	1557099	1471969621713	1471969621781	 	32
3072	32613	We're not adversarial in this, but we want to know what's going on.	We're not adversarial in this, but we want to know what's going on.	1557103	1471969622402	1471969622545	k	75
3072	32613	We're not adversarial in this, but we want to know what's going on.	We're not adversarial in this, but we want to know what's going on.	1557107	1471969622489	1471969622652	n	78
3072	32613	We're not adversarial in this, but we want to know what's going on.	We're not adversarial in this, but we want to know what's going on.	1557111	1471969622699	1471969622883	o	79
3072	32613	We're not adversarial in this, but we want to know what's going on.	We're not adversarial in this, but we want to know what's going on.	1557172	1471969622946	1471969623071	w	87
3072	32613	We're not adversarial in this, but we want to know what's going on.	We're not adversarial in this, but we want to know what's going on.	1557176	1471969623149	1471969623271	 	32
3072	32613	We're not adversarial in this, but we want to know what's going on.	We're not adversarial in this, but we want to know what's going on.	1557182	1471969623816	1471969623952	w	87
3072	32613	We're not adversarial in this, but we want to know what's going on.	We're not adversarial in this, but we want to know what's going on.	1557187	1471969624104	1471969624222	h	72
3072	32613	We're not adversarial in this, but we want to know what's going on.	We're not adversarial in this, but we want to know what's going on.	1557189	1471969624441	1471969624579	a	65
3072	32613	We're not adversarial in this, but we want to know what's going on.	We're not adversarial in this, but we want to know what's going on.	1557319	1471969625214	1471969625321	t	84
3072	32613	We're not adversarial in this, but we want to know what's going on.	We're not adversarial in this, but we want to know what's going on.	1557321	1471969626459	1471969626584	'	222
3072	32613	We're not adversarial in this, but we want to know what's going on.	We're not adversarial in this, but we want to know what's going on.	1557324	1471969626599	1471969626705	s	83
3072	32613	We're not adversarial in this, but we want to know what's going on.	We're not adversarial in this, but we want to know what's going on.	1557327	1471969626815	1471969626940	 	32
3072	32613	We're not adversarial in this, but we want to know what's going on.	We're not adversarial in this, but we want to know what's going on.	1557330	1471969627821	1471969627917	g	71
3072	32613	We're not adversarial in this, but we want to know what's going on.	We're not adversarial in this, but we want to know what's going on.	1557386	1471969628168	1471969628339	o	79
3072	32613	We're not adversarial in this, but we want to know what's going on.	We're not adversarial in this, but we want to know what's going on.	1557390	1471969628304	1471969628437	i	73
3072	32613	We're not adversarial in this, but we want to know what's going on.	We're not adversarial in this, but we want to know what's going on.	1557393	1471969628609	1471969628715	n	78
3072	32613	We're not adversarial in this, but we want to know what's going on.	We're not adversarial in this, but we want to know what's going on.	1557396	1471969629364	1471969629457	g	71
3072	32613	We're not adversarial in this, but we want to know what's going on.	We're not adversarial in this, but we want to know what's going on.	1557403	1471969629504	1471969629621	 	32
3072	32613	We're not adversarial in this, but we want to know what's going on.	We're not adversarial in this, but we want to know what's going on.	1557469	1471969629981	1471969630088	o	79
3072	32613	We're not adversarial in this, but we want to know what's going on.	We're not adversarial in this, but we want to know what's going on.	1557472	1471969630200	1471969630282	n	78
3072	32613	We're not adversarial in this, but we want to know what's going on.	We're not adversarial in this, but we want to know what's going on.	1557474	1471969630965	1471969631024	.	190
3072	32660	I was planning on calling you after I saw your revisions.	I was planning on calling you after i saw your revisions.\	1557760	1471969636827	1471969637411	SHIFT	16
3072	32660	I was planning on calling you after I saw your revisions.	I was planning on calling you after i saw your revisions.\	1557759	1471969637236	1471969637333	I	73
3072	32660	I was planning on calling you after I saw your revisions.	I was planning on calling you after i saw your revisions.\	1557761	1471969637661	1471969637788	 	32
3072	32660	I was planning on calling you after I saw your revisions.	I was planning on calling you after i saw your revisions.\	1557762	1471969637829	1471969637982	w	87
3072	32660	I was planning on calling you after I saw your revisions.	I was planning on calling you after i saw your revisions.\	1557763	1471969638034	1471969638235	a	65
3072	32660	I was planning on calling you after I saw your revisions.	I was planning on calling you after i saw your revisions.\	1557857	1471969638182	1471969638318	s	83
3072	32660	I was planning on calling you after I saw your revisions.	I was planning on calling you after i saw your revisions.\	1557858	1471969638334	1471969638494	 	32
3072	32660	I was planning on calling you after I saw your revisions.	I was planning on calling you after i saw your revisions.\	1557859	1471969639738	1471969639899	p	80
3072	32660	I was planning on calling you after I saw your revisions.	I was planning on calling you after i saw your revisions.\	1557860	1471969639912	1471969640005	l	76
3072	32660	I was planning on calling you after I saw your revisions.	I was planning on calling you after i saw your revisions.\	1557861	1471969640151	1471969640287	a	65
3072	32660	I was planning on calling you after I saw your revisions.	I was planning on calling you after i saw your revisions.\	1557863	1471969640380	1471969640480	n	78
3072	32660	I was planning on calling you after I saw your revisions.	I was planning on calling you after i saw your revisions.\	1557906	1471969640569	1471969640633	n	78
3072	32660	I was planning on calling you after I saw your revisions.	I was planning on calling you after i saw your revisions.\	1557908	1471969640817	1471969640876	i	73
3072	32660	I was planning on calling you after I saw your revisions.	I was planning on calling you after i saw your revisions.\	1557911	1471969641047	1471969641154	n	78
3072	32660	I was planning on calling you after I saw your revisions.	I was planning on calling you after i saw your revisions.\	1557915	1471969641613	1471969641698	g	71
3072	32660	I was planning on calling you after I saw your revisions.	I was planning on calling you after i saw your revisions.\	1557918	1471969641745	1471969641862	 	32
3072	32660	I was planning on calling you after I saw your revisions.	I was planning on calling you after i saw your revisions.\	1558003	1471969642434	1471969642547	o	79
3072	32660	I was planning on calling you after I saw your revisions.	I was planning on calling you after i saw your revisions.\	1558008	1471969642672	1471969642789	n	78
3072	32660	I was planning on calling you after I saw your revisions.	I was planning on calling you after i saw your revisions.\	1558013	1471969642859	1471969642971	 	32
3072	32660	I was planning on calling you after I saw your revisions.	I was planning on calling you after i saw your revisions.\	1558018	1471969643511	1471969643622	c	67
3072	32660	I was planning on calling you after I saw your revisions.	I was planning on calling you after i saw your revisions.\	1558022	1471969644002	1471969644109	a	65
3072	32660	I was planning on calling you after I saw your revisions.	I was planning on calling you after i saw your revisions.\	1558091	1471969644214	1471969644290	l	76
3072	32660	I was planning on calling you after I saw your revisions.	I was planning on calling you after i saw your revisions.\	1558092	1471969644368	1471969644472	l	76
3072	32660	I was planning on calling you after I saw your revisions.	I was planning on calling you after i saw your revisions.\	1558093	1471969644737	1471969644854	i	73
3072	32660	I was planning on calling you after I saw your revisions.	I was planning on calling you after i saw your revisions.\	1558094	1471969644932	1471969645047	n	78
3072	32660	I was planning on calling you after I saw your revisions.	I was planning on calling you after i saw your revisions.\	1558095	1471969645359	1471969645472	g	71
3072	32660	I was planning on calling you after I saw your revisions.	I was planning on calling you after i saw your revisions.\	1558163	1471969645519	1471969645637	 	32
3072	32660	I was planning on calling you after I saw your revisions.	I was planning on calling you after i saw your revisions.\	1558166	1471969645886	1471969645979	y	89
3072	32660	I was planning on calling you after I saw your revisions.	I was planning on calling you after i saw your revisions.\	1558169	1471969646073	1471969646197	o	79
3072	32660	I was planning on calling you after I saw your revisions.	I was planning on calling you after i saw your revisions.\	1558171	1471969646306	1471969646420	u	85
3072	32660	I was planning on calling you after I saw your revisions.	I was planning on calling you after i saw your revisions.\	1558174	1471969646655	1471969646771	 	32
3072	32660	I was planning on calling you after I saw your revisions.	I was planning on calling you after i saw your revisions.\	1558302	1471969647077	1471969647207	a	65
3072	32660	I was planning on calling you after I saw your revisions.	I was planning on calling you after i saw your revisions.\	1558307	1471969648201	1471969648305	f	70
3072	32660	I was planning on calling you after I saw your revisions.	I was planning on calling you after i saw your revisions.\	1558312	1471969648970	1471969649072	t	84
3072	32660	I was planning on calling you after I saw your revisions.	I was planning on calling you after i saw your revisions.\	1558320	1471969649181	1471969649329	e	69
3072	32660	I was planning on calling you after I saw your revisions.	I was planning on calling you after i saw your revisions.\	1558451	1471969649305	1471969649461	r	82
3072	32660	I was planning on calling you after I saw your revisions.	I was planning on calling you after i saw your revisions.\	1558452	1471969649570	1471969649719	 	32
3072	32660	I was planning on calling you after I saw your revisions.	I was planning on calling you after i saw your revisions.\	1558454	1471969650595	1471969650683	i	73
3072	32660	I was planning on calling you after I saw your revisions.	I was planning on calling you after i saw your revisions.\	1558456	1471969650792	1471969650920	 	32
3072	32660	I was planning on calling you after I saw your revisions.	I was planning on calling you after i saw your revisions.\	1558458	1471969651421	1471969651538	s	83
3072	32660	I was planning on calling you after I saw your revisions.	I was planning on calling you after i saw your revisions.\	1558463	1471969651772	1471969651962	a	65
3072	32660	I was planning on calling you after I saw your revisions.	I was planning on calling you after i saw your revisions.\	1558550	1471969651936	1471969652104	w	87
3072	32660	I was planning on calling you after I saw your revisions.	I was planning on calling you after i saw your revisions.\	1558553	1471969652181	1471969652336	 	32
3072	32660	I was planning on calling you after I saw your revisions.	I was planning on calling you after i saw your revisions.\	1558555	1471969653480	1471969653581	y	89
3072	32660	I was planning on calling you after I saw your revisions.	I was planning on calling you after i saw your revisions.\	1558558	1471969653675	1471969653842	o	79
3072	32660	I was planning on calling you after I saw your revisions.	I was planning on calling you after i saw your revisions.\	1558560	1471969653874	1471969654001	u	85
3072	32660	I was planning on calling you after I saw your revisions.	I was planning on calling you after i saw your revisions.\	1558562	1471969654130	1471969654222	r	82
3072	32660	I was planning on calling you after I saw your revisions.	I was planning on calling you after i saw your revisions.\	1558613	1471969654334	1471969654422	 	32
3072	32660	I was planning on calling you after I saw your revisions.	I was planning on calling you after i saw your revisions.\	1558617	1471969654776	1471969654887	r	82
3072	32660	I was planning on calling you after I saw your revisions.	I was planning on calling you after i saw your revisions.\	1558620	1471969654934	1471969655069	e	69
3072	32660	I was planning on calling you after I saw your revisions.	I was planning on calling you after i saw your revisions.\	1558623	1471969655272	1471969655388	v	86
3072	32660	I was planning on calling you after I saw your revisions.	I was planning on calling you after i saw your revisions.\	1558627	1471969655607	1471969655689	i	73
3072	32660	I was planning on calling you after I saw your revisions.	I was planning on calling you after i saw your revisions.\	1558717	1471969656190	1471969656282	s	83
3072	32660	I was planning on calling you after I saw your revisions.	I was planning on calling you after i saw your revisions.\	1558722	1471969656329	1471969656531	i	73
3072	32660	I was planning on calling you after I saw your revisions.	I was planning on calling you after i saw your revisions.\	1558726	1471969656500	1471969656668	o	79
3072	32660	I was planning on calling you after I saw your revisions.	I was planning on calling you after i saw your revisions.\	1558729	1471969656761	1471969656855	n	78
3072	32660	I was planning on calling you after I saw your revisions.	I was planning on calling you after i saw your revisions.\	1558731	1471969657535	1471969657637	s	83
3072	32660	I was planning on calling you after I saw your revisions.	I was planning on calling you after i saw your revisions.\	1558746	1471969657960	1471969658045	.	190
3072	32685	Lynn checked with Fran and she told her coordinator.	Lynn checked with Fran and she told her coordinator.	1559463	1471969667651	1471969668073	SHIFT	16
3072	32685	Lynn checked with Fran and she told her coordinator.	Lynn checked with Fran and she told her coordinator.	1559460	1471969667838	1471969667957	L	76
3072	32685	Lynn checked with Fran and she told her coordinator.	Lynn checked with Fran and she told her coordinator.	1559471	1471969668550	1471969668638	y	89
3072	32685	Lynn checked with Fran and she told her coordinator.	Lynn checked with Fran and she told her coordinator.	1559467	1471969668578	1471969668627	u	85
3072	32685	Lynn checked with Fran and she told her coordinator.	Lynn checked with Fran and she told her coordinator.	1559478	1471969668748	1471969668899	n	78
3072	32685	Lynn checked with Fran and she told her coordinator.	Lynn checked with Fran and she told her coordinator.	1559483	1471969669210	1471969669304	DELETE	46
3072	32685	Lynn checked with Fran and she told her coordinator.	Lynn checked with Fran and she told her coordinator.	1559488	1471969669632	1471969669735	DELETE	46
3072	32685	Lynn checked with Fran and she told her coordinator.	Lynn checked with Fran and she told her coordinator.	1559492	1471969670477	1471969670580	BKSP	8
3072	32685	Lynn checked with Fran and she told her coordinator.	Lynn checked with Fran and she told her coordinator.	1559495	1471969670705	1471969670812	BKSP	8
3072	32685	Lynn checked with Fran and she told her coordinator.	Lynn checked with Fran and she told her coordinator.	1559497	1471969671540	1471969671614	n	78
3072	32685	Lynn checked with Fran and she told her coordinator.	Lynn checked with Fran and she told her coordinator.	1559579	1471969671687	1471969671771	n	78
3072	32685	Lynn checked with Fran and she told her coordinator.	Lynn checked with Fran and she told her coordinator.	1559582	1471969672540	1471969672699	 	32
3072	32685	Lynn checked with Fran and she told her coordinator.	Lynn checked with Fran and she told her coordinator.	1559585	1471969673138	1471969673245	c	67
3072	32685	Lynn checked with Fran and she told her coordinator.	Lynn checked with Fran and she told her coordinator.	1559588	1471969673307	1471969673434	h	72
3072	32685	Lynn checked with Fran and she told her coordinator.	Lynn checked with Fran and she told her coordinator.	1559591	1471969673731	1471969673819	e	69
3072	32685	Lynn checked with Fran and she told her coordinator.	Lynn checked with Fran and she told her coordinator.	1559652	1471969674186	1471969674299	c	67
3072	32685	Lynn checked with Fran and she told her coordinator.	Lynn checked with Fran and she told her coordinator.	1559654	1471969675226	1471969675331	k	75
3072	32685	Lynn checked with Fran and she told her coordinator.	Lynn checked with Fran and she told her coordinator.	1559657	1471969675314	1471969675403	e	69
3072	32685	Lynn checked with Fran and she told her coordinator.	Lynn checked with Fran and she told her coordinator.	1559659	1471969675512	1471969675619	d	68
3072	32685	Lynn checked with Fran and she told her coordinator.	Lynn checked with Fran and she told her coordinator.	1559661	1471969675650	1471969675784	 	32
3072	32685	Lynn checked with Fran and she told her coordinator.	Lynn checked with Fran and she told her coordinator.	1559741	1471969676394	1471969676528	w	87
3072	32685	Lynn checked with Fran and she told her coordinator.	Lynn checked with Fran and she told her coordinator.	1559744	1471969676669	1471969676785	i	73
3072	32685	Lynn checked with Fran and she told her coordinator.	Lynn checked with Fran and she told her coordinator.	1559746	1471969677019	1471969677104	t	84
3072	32685	Lynn checked with Fran and she told her coordinator.	Lynn checked with Fran and she told her coordinator.	1559748	1471969677229	1471969677336	h	72
3072	32685	Lynn checked with Fran and she told her coordinator.	Lynn checked with Fran and she told her coordinator.	1559749	1471969677492	1471969677602	 	32
3072	32685	Lynn checked with Fran and she told her coordinator.	Lynn checked with Fran and she told her coordinator.	1559832	1471969677868	1471969678276	SHIFT	16
3072	32685	Lynn checked with Fran and she told her coordinator.	Lynn checked with Fran and she told her coordinator.	1559830	1471969678091	1471969678181	F	70
3072	32685	Lynn checked with Fran and she told her coordinator.	Lynn checked with Fran and she told her coordinator.	1559834	1471969678495	1471969678604	r	82
3072	32685	Lynn checked with Fran and she told her coordinator.	Lynn checked with Fran and she told her coordinator.	1559835	1471969678713	1471969678850	a	65
3072	32685	Lynn checked with Fran and she told her coordinator.	Lynn checked with Fran and she told her coordinator.	1559836	1471969679634	1471969679751	n	78
3072	32685	Lynn checked with Fran and she told her coordinator.	Lynn checked with Fran and she told her coordinator.	1559837	1471969679830	1471969679945	 	32
3072	32685	Lynn checked with Fran and she told her coordinator.	Lynn checked with Fran and she told her coordinator.	1559938	1471969680626	1471969680761	a	65
3072	32685	Lynn checked with Fran and she told her coordinator.	Lynn checked with Fran and she told her coordinator.	1559941	1471969681038	1471969681151	n	78
3072	32685	Lynn checked with Fran and she told her coordinator.	Lynn checked with Fran and she told her coordinator.	1559943	1471969681214	1471969681369	d	68
3072	32685	Lynn checked with Fran and she told her coordinator.	Lynn checked with Fran and she told her coordinator.	1559945	1471969681351	1471969681508	 	32
3072	32685	Lynn checked with Fran and she told her coordinator.	Lynn checked with Fran and she told her coordinator.	1559946	1471969682130	1471969682225	s	83
3072	32685	Lynn checked with Fran and she told her coordinator.	Lynn checked with Fran and she told her coordinator.	1560082	1471969682800	1471969682904	DELETE	46
3072	32685	Lynn checked with Fran and she told her coordinator.	Lynn checked with Fran and she told her coordinator.	1560085	1471969682821	1471969682904	BKSP	8
3072	32685	Lynn checked with Fran and she told her coordinator.	Lynn checked with Fran and she told her coordinator.	1560087	1471969683649	1471969683769	s	83
3072	32685	Lynn checked with Fran and she told her coordinator.	Lynn checked with Fran and she told her coordinator.	1560090	1471969683847	1471969683932	j	74
3072	32685	Lynn checked with Fran and she told her coordinator.	Lynn checked with Fran and she told her coordinator.	1560092	1471969684785	1471969684917	BKSP	8
3072	32685	Lynn checked with Fran and she told her coordinator.	Lynn checked with Fran and she told her coordinator.	1560097	1471969685482	1471969685570	h	72
3072	32685	Lynn checked with Fran and she told her coordinator.	Lynn checked with Fran and she told her coordinator.	1560101	1471969685633	1471969685745	e	69
3072	32685	Lynn checked with Fran and she told her coordinator.	Lynn checked with Fran and she told her coordinator.	1560108	1471969685792	1471969685887	 	32
3072	32685	Lynn checked with Fran and she told her coordinator.	Lynn checked with Fran and she told her coordinator.	1560223	1471969686890	1471969686970	t	84
3072	32685	Lynn checked with Fran and she told her coordinator.	Lynn checked with Fran and she told her coordinator.	1560226	1471969687189	1471969687254	o	79
3072	32685	Lynn checked with Fran and she told her coordinator.	Lynn checked with Fran and she told her coordinator.	1560229	1471969688150	1471969688270	l	76
3072	32685	Lynn checked with Fran and she told her coordinator.	Lynn checked with Fran and she told her coordinator.	1560231	1471969688304	1471969688450	d	68
3072	32685	Lynn checked with Fran and she told her coordinator.	Lynn checked with Fran and she told her coordinator.	1560232	1471969688528	1471969688682	 	32
3072	32685	Lynn checked with Fran and she told her coordinator.	Lynn checked with Fran and she told her coordinator.	1560351	1471969689492	1471969689602	h	72
3072	32685	Lynn checked with Fran and she told her coordinator.	Lynn checked with Fran and she told her coordinator.	1560354	1471969689790	1471969689927	e	69
3072	32685	Lynn checked with Fran and she told her coordinator.	Lynn checked with Fran and she told her coordinator.	1560358	1471969689974	1471969690103	r	82
3072	32685	Lynn checked with Fran and she told her coordinator.	Lynn checked with Fran and she told her coordinator.	1560361	1471969690175	1471969690290	 	32
3072	32685	Lynn checked with Fran and she told her coordinator.	Lynn checked with Fran and she told her coordinator.	1560363	1471969691539	1471969691631	c	67
3072	32685	Lynn checked with Fran and she told her coordinator.	Lynn checked with Fran and she told her coordinator.	1560443	1471969692018	1471969692097	o	79
3072	32685	Lynn checked with Fran and she told her coordinator.	Lynn checked with Fran and she told her coordinator.	1560447	1471969692175	1471969692284	o	79
3072	32685	Lynn checked with Fran and she told her coordinator.	Lynn checked with Fran and she told her coordinator.	1560453	1471969692383	1471969692533	r	82
3072	32685	Lynn checked with Fran and she told her coordinator.	Lynn checked with Fran and she told her coordinator.	1560460	1471969693725	1471969693851	d	68
3072	32685	Lynn checked with Fran and she told her coordinator.	Lynn checked with Fran and she told her coordinator.	1560466	1471969693913	1471969694095	i	73
3072	32685	Lynn checked with Fran and she told her coordinator.	Lynn checked with Fran and she told her coordinator.	1560572	1471969694131	1471969694235	n	78
3072	32685	Lynn checked with Fran and she told her coordinator.	Lynn checked with Fran and she told her coordinator.	1560575	1471969695240	1471969695367	a	65
3072	32685	Lynn checked with Fran and she told her coordinator.	Lynn checked with Fran and she told her coordinator.	1560579	1471969696043	1471969696132	t	84
3072	32685	Lynn checked with Fran and she told her coordinator.	Lynn checked with Fran and she told her coordinator.	1560583	1471969696508	1471969696650	o	79
3072	32685	Lynn checked with Fran and she told her coordinator.	Lynn checked with Fran and she told her coordinator.	1560587	1471969696697	1471969696817	r	82
3072	32685	Lynn checked with Fran and she told her coordinator.	Lynn checked with Fran and she told her coordinator.	1560657	1471969697710	1471969697812	.	190
3072	32725	Tonight is my anniversary.	Tonight is my anniversary.	1560931	1471969702351	1471969702727	SHIFT	16
3072	32725	Tonight is my anniversary.	Tonight is my anniversary.	1560929	1471969702512	1471969702602	T	84
3072	32725	Tonight is my anniversary.	Tonight is my anniversary.	1560936	1471969703199	1471969703349	o	79
3072	32725	Tonight is my anniversary.	Tonight is my anniversary.	1560940	1471969703411	1471969703580	n	78
3072	32725	Tonight is my anniversary.	Tonight is my anniversary.	1560946	1471969703580	1471969703757	i	73
3072	32725	Tonight is my anniversary.	Tonight is my anniversary.	1560952	1471969704007	1471969704154	g	71
3072	32725	Tonight is my anniversary.	Tonight is my anniversary.	1560984	1471969704132	1471969704271	h	72
3072	32725	Tonight is my anniversary.	Tonight is my anniversary.	1560988	1471969704327	1471969704419	t	84
3072	32725	Tonight is my anniversary.	Tonight is my anniversary.	1560991	1471969704497	1471969704571	 	32
3072	32725	Tonight is my anniversary.	Tonight is my anniversary.	1560994	1471969704903	1471969705002	i	73
3072	32725	Tonight is my anniversary.	Tonight is my anniversary.	1560999	1471969705080	1471969705184	s	83
3072	32725	Tonight is my anniversary.	Tonight is my anniversary.	1561002	1471969705278	1471969705369	 	32
3072	32725	Tonight is my anniversary.	Tonight is my anniversary.	1561072	1471969705494	1471969705557	m	77
3072	32725	Tonight is my anniversary.	Tonight is my anniversary.	1561075	1471969706320	1471969706418	y	89
3072	32725	Tonight is my anniversary.	Tonight is my anniversary.	1561078	1471969706465	1471969706600	 	32
3072	32725	Tonight is my anniversary.	Tonight is my anniversary.	1561079	1471969706975	1471969707100	a	65
3072	32725	Tonight is my anniversary.	Tonight is my anniversary.	1561081	1471969707272	1471969707390	n	78
3072	32725	Tonight is my anniversary.	Tonight is my anniversary.	1561119	1471969707479	1471969707553	n	78
3072	32725	Tonight is my anniversary.	Tonight is my anniversary.	1561121	1471969707725	1471969707803	i	73
3072	32725	Tonight is my anniversary.	Tonight is my anniversary.	1561123	1471969708242	1471969708331	v	86
3072	32725	Tonight is my anniversary.	Tonight is my anniversary.	1561124	1471969708551	1471969708660	e	69
3072	32725	Tonight is my anniversary.	Tonight is my anniversary.	1561125	1471969708754	1471969708836	r	82
3072	32725	Tonight is my anniversary.	Tonight is my anniversary.	1561205	1471969708993	1471969709126	s	83
3072	32725	Tonight is my anniversary.	Tonight is my anniversary.	1561208	1471969709220	1471969709390	a	65
3072	32725	Tonight is my anniversary.	Tonight is my anniversary.	1561212	1471969709960	1471969710052	r	82
3072	32725	Tonight is my anniversary.	Tonight is my anniversary.	1561216	1471969710103	1471969710194	y	89
3072	32725	Tonight is my anniversary.	Tonight is my anniversary.	1561219	1471969711502	1471969711566	.	190
3072	32738	We tried to copy it and it worked for us.	We tried to copy it and it worked for us.	1561549	1471969717157	1471969717634	SHIFT	16
3072	32738	We tried to copy it and it worked for us.	We tried to copy it and it worked for us.	1561546	1471969717360	1471969717524	W	87
3072	32738	We tried to copy it and it worked for us.	We tried to copy it and it worked for us.	1561552	1471969717884	1471969717969	e	69
3072	32738	We tried to copy it and it worked for us.	We tried to copy it and it worked for us.	1561555	1471969718048	1471969718185	 	32
3072	32738	We tried to copy it and it worked for us.	We tried to copy it and it worked for us.	1561559	1471969718447	1471969718520	t	84
3072	32738	We tried to copy it and it worked for us.	We tried to copy it and it worked for us.	1561563	1471969719026	1471969719127	r	82
3072	32738	We tried to copy it and it worked for us.	We tried to copy it and it worked for us.	1561593	1471969719217	1471969719349	i	73
3072	32738	We tried to copy it and it worked for us.	We tried to copy it and it worked for us.	1561596	1471969719396	1471969719501	e	69
3072	32738	We tried to copy it and it worked for us.	We tried to copy it and it worked for us.	1561599	1471969719613	1471969719733	d	68
3072	32738	We tried to copy it and it worked for us.	We tried to copy it and it worked for us.	1561601	1471969719812	1471969719917	 	32
3072	32738	We tried to copy it and it worked for us.	We tried to copy it and it worked for us.	1561603	1471969719995	1471969720079	t	84
3072	32738	We tried to copy it and it worked for us.	We tried to copy it and it worked for us.	1561678	1471969720350	1471969720430	o	79
3072	32738	We tried to copy it and it worked for us.	We tried to copy it and it worked for us.	1561679	1471969720571	1471969720680	 	32
3072	32738	We tried to copy it and it worked for us.	We tried to copy it and it worked for us.	1561680	1471969721095	1471969721210	c	67
3072	32738	We tried to copy it and it worked for us.	We tried to copy it and it worked for us.	1561681	1471969721335	1471969721492	o	79
3072	32738	We tried to copy it and it worked for us.	We tried to copy it and it worked for us.	1561682	1471969721523	1471969721681	p	80
3072	32738	We tried to copy it and it worked for us.	We tried to copy it and it worked for us.	1561736	1471969722141	1471969722203	y	89
3072	32738	We tried to copy it and it worked for us.	We tried to copy it and it worked for us.	1561737	1471969722254	1471969722372	 	32
3072	32738	We tried to copy it and it worked for us.	We tried to copy it and it worked for us.	1561738	1471969722742	1471969722860	i	73
3072	32738	We tried to copy it and it worked for us.	We tried to copy it and it worked for us.	1561739	1471969722970	1471969723036	t	84
3072	32738	We tried to copy it and it worked for us.	We tried to copy it and it worked for us.	1561740	1471969723192	1471969723316	 	32
3072	32738	We tried to copy it and it worked for us.	We tried to copy it and it worked for us.	1561806	1471969723519	1471969723618	a	65
3072	32738	We tried to copy it and it worked for us.	We tried to copy it and it worked for us.	1561811	1471969723743	1471969723845	n	78
3072	32738	We tried to copy it and it worked for us.	We tried to copy it and it worked for us.	1561816	1471969724140	1471969724235	d	68
3072	32738	We tried to copy it and it worked for us.	We tried to copy it and it worked for us.	1561820	1471969724360	1471969724443	 	32
3072	32738	We tried to copy it and it worked for us.	We tried to copy it and it worked for us.	1561824	1471969724775	1471969724877	i	73
3072	32738	We tried to copy it and it worked for us.	We tried to copy it and it worked for us.	1561894	1471969724952	1471969725045	t	84
3072	32738	We tried to copy it and it worked for us.	We tried to copy it and it worked for us.	1561898	1471969725154	1471969725291	 	32
3072	32738	We tried to copy it and it worked for us.	We tried to copy it and it worked for us.	1561902	1471969725528	1471969725633	w	87
3072	32738	We tried to copy it and it worked for us.	We tried to copy it and it worked for us.	1561906	1471969725946	1471969726051	o	79
3072	32738	We tried to copy it and it worked for us.	We tried to copy it and it worked for us.	1561912	1471969726234	1471969726316	r	82
3072	32738	We tried to copy it and it worked for us.	We tried to copy it and it worked for us.	1562008	1471969726437	1471969726527	k	75
3072	32738	We tried to copy it and it worked for us.	We tried to copy it and it worked for us.	1562012	1471969726746	1471969726866	e	69
3072	32738	We tried to copy it and it worked for us.	We tried to copy it and it worked for us.	1562016	1471969726944	1471969727066	d	68
3072	32738	We tried to copy it and it worked for us.	We tried to copy it and it worked for us.	1562022	1471969727129	1471969727250	 	32
3072	32738	We tried to copy it and it worked for us.	We tried to copy it and it worked for us.	1562027	1471969727736	1471969727835	f	70
3072	32738	We tried to copy it and it worked for us.	We tried to copy it and it worked for us.	1562101	1471969728064	1471969728144	o	79
3072	32738	We tried to copy it and it worked for us.	We tried to copy it and it worked for us.	1562104	1471969728315	1471969728461	r	82
3072	32738	We tried to copy it and it worked for us.	We tried to copy it and it worked for us.	1562107	1471969728555	1471969728636	 	32
3072	32738	We tried to copy it and it worked for us.	We tried to copy it and it worked for us.	1562109	1471969729027	1471969729120	u	85
3072	32738	We tried to copy it and it worked for us.	We tried to copy it and it worked for us.	1562111	1471969729245	1471969729335	s	83
3072	32738	We tried to copy it and it worked for us.	We tried to copy it and it worked for us.	1562156	1471969729745	1471969729813	.	190
3072	32762	For those of you who have not paid please get your money tome soon.	For those of you who have not paid please get your money tome soon.	1562796	1471969740912	1471969741136	SHIFT	16
3072	32762	For those of you who have not paid please get your money tome soon.	For those of you who have not paid please get your money tome soon.	1562799	1471969741065	1471969741168	F	70
3072	32762	For those of you who have not paid please get your money tome soon.	For those of you who have not paid please get your money tome soon.	1562802	1471969741683	1471969741814	o	79
3072	32762	For those of you who have not paid please get your money tome soon.	For those of you who have not paid please get your money tome soon.	1562805	1471969741893	1471969741999	r	82
3072	32762	For those of you who have not paid please get your money tome soon.	For those of you who have not paid please get your money tome soon.	1562807	1471969742271	1471969742378	 	32
3072	32762	For those of you who have not paid please get your money tome soon.	For those of you who have not paid please get your money tome soon.	1562810	1471969742556	1471969742635	t	84
3072	32762	For those of you who have not paid please get your money tome soon.	For those of you who have not paid please get your money tome soon.	1562867	1471969742760	1471969742851	h	72
3072	32762	For those of you who have not paid please get your money tome soon.	For those of you who have not paid please get your money tome soon.	1562870	1471969743335	1471969743401	o	79
3072	32762	For those of you who have not paid please get your money tome soon.	For those of you who have not paid please get your money tome soon.	1562880	1471969743448	1471969743575	s	83
3072	32762	For those of you who have not paid please get your money tome soon.	For those of you who have not paid please get your money tome soon.	1562887	1471969743684	1471969743768	e	69
3072	32762	For those of you who have not paid please get your money tome soon.	For those of you who have not paid please get your money tome soon.	1562893	1471969743831	1471969743996	 	32
3072	32762	For those of you who have not paid please get your money tome soon.	For those of you who have not paid please get your money tome soon.	1563084	1471969745102	1471969745246	o	79
3072	32762	For those of you who have not paid please get your money tome soon.	For those of you who have not paid please get your money tome soon.	1563086	1471969745622	1471969745732	f	70
3072	32762	For those of you who have not paid please get your money tome soon.	For those of you who have not paid please get your money tome soon.	1563089	1471969745795	1471969745899	 	32
3072	32762	For those of you who have not paid please get your money tome soon.	For those of you who have not paid please get your money tome soon.	1563092	1471969746237	1471969746343	y	89
3072	32762	For those of you who have not paid please get your money tome soon.	For those of you who have not paid please get your money tome soon.	1563094	1471969746440	1471969746566	o	79
3072	32762	For those of you who have not paid please get your money tome soon.	For those of you who have not paid please get your money tome soon.	1563207	1471969746660	1471969746735	u	85
3072	32762	For those of you who have not paid please get your money tome soon.	For those of you who have not paid please get your money tome soon.	1563210	1471969746938	1471969747011	 	32
3072	32762	For those of you who have not paid please get your money tome soon.	For those of you who have not paid please get your money tome soon.	1563215	1471969747975	1471969748083	w	87
3072	32762	For those of you who have not paid please get your money tome soon.	For those of you who have not paid please get your money tome soon.	1563220	1471969748161	1471969748223	h	72
3072	32762	For those of you who have not paid please get your money tome soon.	For those of you who have not paid please get your money tome soon.	1563224	1471969748584	1471969748668	o	79
3072	32762	For those of you who have not paid please get your money tome soon.	For those of you who have not paid please get your money tome soon.	1563308	1471969748851	1471969748958	 	32
3072	32762	For those of you who have not paid please get your money tome soon.	For those of you who have not paid please get your money tome soon.	1563309	1471969749499	1471969749600	h	72
3072	32762	For those of you who have not paid please get your money tome soon.	For those of you who have not paid please get your money tome soon.	1563311	1471969749819	1471969749949	a	65
3072	32762	For those of you who have not paid please get your money tome soon.	For those of you who have not paid please get your money tome soon.	1563312	1471969750307	1471969750432	v	86
3072	32762	For those of you who have not paid please get your money tome soon.	For those of you who have not paid please get your money tome soon.	1563313	1471969750478	1471969750599	e	69
3072	32762	For those of you who have not paid please get your money tome soon.	For those of you who have not paid please get your money tome soon.	1563375	1471969750610	1471969750731	 	32
3072	32762	For those of you who have not paid please get your money tome soon.	For those of you who have not paid please get your money tome soon.	1563378	1471969751218	1471969751349	n	78
3072	32762	For those of you who have not paid please get your money tome soon.	For those of you who have not paid please get your money tome soon.	1563386	1471969751474	1471969751599	o	79
3072	32762	For those of you who have not paid please get your money tome soon.	For those of you who have not paid please get your money tome soon.	1563390	1471969751708	1471969751769	t	84
3072	32762	For those of you who have not paid please get your money tome soon.	For those of you who have not paid please get your money tome soon.	1563394	1471969751894	1471969752015	 	32
3072	32762	For those of you who have not paid please get your money tome soon.	For those of you who have not paid please get your money tome soon.	1563564	1471969753771	1471969753866	p	80
3072	32762	For those of you who have not paid please get your money tome soon.	For those of you who have not paid please get your money tome soon.	1563569	1471969753929	1471969754048	a	65
3072	32762	For those of you who have not paid please get your money tome soon.	For those of you who have not paid please get your money tome soon.	1563577	1471969754157	1471969754275	i	73
3072	32762	For those of you who have not paid please get your money tome soon.	For those of you who have not paid please get your money tome soon.	1563584	1471969754384	1471969754493	d	68
3072	32762	For those of you who have not paid please get your money tome soon.	For those of you who have not paid please get your money tome soon.	1563591	1471969754585	1471969754731	 	32
3072	32762	For those of you who have not paid please get your money tome soon.	For those of you who have not paid please get your money tome soon.	1563760	1471969755373	1471969755452	g	71
3072	32762	For those of you who have not paid please get your money tome soon.	For those of you who have not paid please get your money tome soon.	1563763	1471969755577	1471969755697	e	69
3072	32762	For those of you who have not paid please get your money tome soon.	For those of you who have not paid please get your money tome soon.	1563767	1471969756669	1471969756767	t	84
3072	32762	For those of you who have not paid please get your money tome soon.	For those of you who have not paid please get your money tome soon.	1563773	1471969757864	1471969757952	=	187
3072	32762	For those of you who have not paid please get your money tome soon.	For those of you who have not paid please get your money tome soon.	1563778	1471969758061	1471969758175	=	187
3072	32762	For those of you who have not paid please get your money tome soon.	For those of you who have not paid please get your money tome soon.	1563936	1471969758554	1471969758822	BKSP	8
3072	32762	For those of you who have not paid please get your money tome soon.	For those of you who have not paid please get your money tome soon.	1563939	1471969758931	1471969758986	BKSP	8
3072	32762	For those of you who have not paid please get your money tome soon.	For those of you who have not paid please get your money tome soon.	1563945	1471969759143	1471969759219	BKSP	8
3072	32762	For those of you who have not paid please get your money tome soon.	For those of you who have not paid please get your money tome soon.	1563951	1471969759297	1471969759362	BKSP	8
3072	32762	For those of you who have not paid please get your money tome soon.	For those of you who have not paid please get your money tome soon.	1563958	1471969759471	1471969759582	BKSP	8
3072	32762	For those of you who have not paid please get your money tome soon.	For those of you who have not paid please get your money tome soon.	1563965	1471969760450	1471969760606	p	80
3072	32762	For those of you who have not paid please get your money tome soon.	For those of you who have not paid please get your money tome soon.	1563968	1471969760554	1471969760696	l	76
3072	32762	For those of you who have not paid please get your money tome soon.	For those of you who have not paid please get your money tome soon.	1563972	1471969760946	1471969761112	e	69
3072	32762	For those of you who have not paid please get your money tome soon.	For those of you who have not paid please get your money tome soon.	1563975	1471969761175	1471969761391	a	65
3072	32762	For those of you who have not paid please get your money tome soon.	For those of you who have not paid please get your money tome soon.	1564130	1471969761361	1471969761508	s	83
3072	32762	For those of you who have not paid please get your money tome soon.	For those of you who have not paid please get your money tome soon.	1564134	1471969761924	1471969762041	e	69
3072	32762	For those of you who have not paid please get your money tome soon.	For those of you who have not paid please get your money tome soon.	1564143	1471969762072	1471969762199	 	32
3072	32762	For those of you who have not paid please get your money tome soon.	For those of you who have not paid please get your money tome soon.	1564154	1471969763947	1471969764050	g	71
3072	32762	For those of you who have not paid please get your money tome soon.	For those of you who have not paid please get your money tome soon.	1564164	1471969764128	1471969764257	e	69
3072	32762	For those of you who have not paid please get your money tome soon.	For those of you who have not paid please get your money tome soon.	1564174	1471969764404	1471969764511	t	84
3072	32762	For those of you who have not paid please get your money tome soon.	For those of you who have not paid please get your money tome soon.	1564265	1471969764602	1471969764700	 	32
3072	32762	For those of you who have not paid please get your money tome soon.	For those of you who have not paid please get your money tome soon.	1564267	1471969765406	1471969765501	y	89
3072	32762	For those of you who have not paid please get your money tome soon.	For those of you who have not paid please get your money tome soon.	1564271	1471969765595	1471969765784	o	79
3072	32762	For those of you who have not paid please get your money tome soon.	For those of you who have not paid please get your money tome soon.	1564275	1471969765723	1471969765831	u	85
3072	32762	For those of you who have not paid please get your money tome soon.	For those of you who have not paid please get your money tome soon.	1564282	1471969766667	1471969766760	r	82
3072	32762	For those of you who have not paid please get your money tome soon.	For those of you who have not paid please get your money tome soon.	1564471	1471969766822	1471969766931	 	32
3072	32762	For those of you who have not paid please get your money tome soon.	For those of you who have not paid please get your money tome soon.	1564475	1471969767512	1471969767600	m	77
3072	32762	For those of you who have not paid please get your money tome soon.	For those of you who have not paid please get your money tome soon.	1564479	1471969767724	1471969767753	o	79
3072	32762	For those of you who have not paid please get your money tome soon.	For those of you who have not paid please get your money tome soon.	1564483	1471969769188	1471969769261	n	78
3072	32762	For those of you who have not paid please get your money tome soon.	For those of you who have not paid please get your money tome soon.	1564487	1471969769347	1471969769448	e	69
3072	32762	For those of you who have not paid please get your money tome soon.	For those of you who have not paid please get your money tome soon.	1564572	1471969769837	1471969769917	y	89
3072	32762	For those of you who have not paid please get your money tome soon.	For those of you who have not paid please get your money tome soon.	1564574	1471969770042	1471969770165	 	32
3072	32762	For those of you who have not paid please get your money tome soon.	For those of you who have not paid please get your money tome soon.	1564579	1471969770902	1471969771031	t	84
3072	32762	For those of you who have not paid please get your money tome soon.	For those of you who have not paid please get your money tome soon.	1564583	1471969771140	1471969771289	o	79
3072	32762	For those of you who have not paid please get your money tome soon.	For those of you who have not paid please get your money tome soon.	1564586	1471969771289	1471969771414	m	77
3072	32762	For those of you who have not paid please get your money tome soon.	For those of you who have not paid please get your money tome soon.	1564698	1471969771503	1471969771614	e	69
3072	32762	For those of you who have not paid please get your money tome soon.	For those of you who have not paid please get your money tome soon.	1564702	1471969771708	1471969771819	 	32
3072	32762	For those of you who have not paid please get your money tome soon.	For those of you who have not paid please get your money tome soon.	1564706	1471969773219	1471969773333	s	83
3072	32762	For those of you who have not paid please get your money tome soon.	For those of you who have not paid please get your money tome soon.	1564710	1471969773411	1471969773467	o	79
3072	32762	For those of you who have not paid please get your money tome soon.	For those of you who have not paid please get your money tome soon.	1564713	1471969773545	1471969773627	o	79
3072	32762	For those of you who have not paid please get your money tome soon.	For those of you who have not paid please get your money tome soon.	1564773	1471969773831	1471969773910	n	78
3072	32762	For those of you who have not paid please get your money tome soon.	For those of you who have not paid please get your money tome soon.	1564776	1471969774650	1471969774717	.	190
3072	32821	I need your home cell or whatever.	I needyour home cell or whatever.	1565297	1471969781459	1471969781933	SHIFT	16
3072	32821	I need your home cell or whatever.	I needyour home cell or whatever.	1565294	1471969781709	1471969781793	I	73
3072	32821	I need your home cell or whatever.	I needyour home cell or whatever.	1565301	1471969783477	1471969783613	 	32
3072	32821	I need your home cell or whatever.	I needyour home cell or whatever.	1565304	1471969783660	1471969783782	n	78
3072	32821	I need your home cell or whatever.	I needyour home cell or whatever.	1565307	1471969783938	1471969784073	e	69
3072	32821	I need your home cell or whatever.	I needyour home cell or whatever.	1565310	1471969784183	1471969784307	e	69
3072	32821	I need your home cell or whatever.	I needyour home cell or whatever.	1565441	1471969784414	1471969784549	d	68
3072	32821	I need your home cell or whatever.	I needyour home cell or whatever.	1565446	1471969785675	1471969785783	y	89
3072	32821	I need your home cell or whatever.	I needyour home cell or whatever.	1565450	1471969785861	1471969786050	o	79
3072	32821	I need your home cell or whatever.	I needyour home cell or whatever.	1565452	1471969786037	1471969786163	u	85
3072	32821	I need your home cell or whatever.	I needyour home cell or whatever.	1565456	1471969786428	1471969786539	r	82
3072	32821	I need your home cell or whatever.	I needyour home cell or whatever.	1565573	1471969786597	1471969786744	 	32
3072	32821	I need your home cell or whatever.	I needyour home cell or whatever.	1565579	1471969787968	1471969788066	h	72
3072	32821	I need your home cell or whatever.	I needyour home cell or whatever.	1565586	1471969788577	1471969788754	o	79
3072	32821	I need your home cell or whatever.	I needyour home cell or whatever.	1565595	1471969788728	1471969788878	m	77
3072	32821	I need your home cell or whatever.	I needyour home cell or whatever.	1565601	1471969789034	1471969789172	e	69
3072	32821	I need your home cell or whatever.	I needyour home cell or whatever.	1565680	1471969789108	1471969789246	 	32
3072	32821	I need your home cell or whatever.	I needyour home cell or whatever.	1565682	1471969789694	1471969789828	c	67
3072	32821	I need your home cell or whatever.	I needyour home cell or whatever.	1565685	1471969789844	1471969789979	e	69
3072	32821	I need your home cell or whatever.	I needyour home cell or whatever.	1565687	1471969790151	1471969790233	l	76
3072	32821	I need your home cell or whatever.	I needyour home cell or whatever.	1565689	1471969790311	1471969790409	l	76
3072	32821	I need your home cell or whatever.	I needyour home cell or whatever.	1565690	1471969790711	1471969790832	 	32
3072	32821	I need your home cell or whatever.	I needyour home cell or whatever.	1565776	1471969792062	1471969792151	o	79
3072	32821	I need your home cell or whatever.	I needyour home cell or whatever.	1565778	1471969792261	1471969792369	r	82
3072	32821	I need your home cell or whatever.	I needyour home cell or whatever.	1565780	1471969792483	1471969792582	 	32
3072	32821	I need your home cell or whatever.	I needyour home cell or whatever.	1565783	1471969792945	1471969793111	w	87
3072	32821	I need your home cell or whatever.	I needyour home cell or whatever.	1565785	1471969793189	1471969793281	h	72
3072	32821	I need your home cell or whatever.	I needyour home cell or whatever.	1565835	1471969793344	1471969793479	a	65
3072	32821	I need your home cell or whatever.	I needyour home cell or whatever.	1565837	1471969793604	1471969793714	t	84
3072	32821	I need your home cell or whatever.	I needyour home cell or whatever.	1565838	1471969793765	1471969793890	e	69
3072	32821	I need your home cell or whatever.	I needyour home cell or whatever.	1565839	1471969794249	1471969794358	v	86
3072	32821	I need your home cell or whatever.	I needyour home cell or whatever.	1565841	1471969794434	1471969794597	e	69
3072	32821	I need your home cell or whatever.	I needyour home cell or whatever.	1565903	1471969794575	1471969794727	r	82
3072	32821	I need your home cell or whatever.	I needyour home cell or whatever.	1565906	1471969795590	1471969795683	.	190
3072	32846	We are heartened by the many notes of care and concern.	We are heartened by the many notes of care and concern.	1566215	1471969800187	1471969800681	SHIFT	16
3072	32846	We are heartened by the many notes of care and concern.	We are heartened by the many notes of care and concern.	1566212	1471969800445	1471969800600	W	87
3072	32846	We are heartened by the many notes of care and concern.	We are heartened by the many notes of care and concern.	1566220	1471969801022	1471969801154	e	69
3072	32846	We are heartened by the many notes of care and concern.	We are heartened by the many notes of care and concern.	1566224	1471969801435	1471969801533	 	32
3072	32846	We are heartened by the many notes of care and concern.	We are heartened by the many notes of care and concern.	1566229	1471969801690	1471969801813	a	65
3072	32846	We are heartened by the many notes of care and concern.	We are heartened by the many notes of care and concern.	1566234	1471969801969	1471969802112	r	82
3072	32846	We are heartened by the many notes of care and concern.	We are heartened by the many notes of care and concern.	1566309	1471969802123	1471969802277	e	69
3072	32846	We are heartened by the many notes of care and concern.	We are heartened by the many notes of care and concern.	1566312	1471969802324	1471969802449	 	32
3072	32846	We are heartened by the many notes of care and concern.	We are heartened by the many notes of care and concern.	1566316	1471969803026	1471969803148	h	72
3072	32846	We are heartened by the many notes of care and concern.	We are heartened by the many notes of care and concern.	1566321	1471969803626	1471969803810	e	69
3072	32846	We are heartened by the many notes of care and concern.	We are heartened by the many notes of care and concern.	1566461	1471969803786	1471969803960	a	65
3072	32846	We are heartened by the many notes of care and concern.	We are heartened by the many notes of care and concern.	1566464	1471969804182	1471969804282	r	82
3072	32846	We are heartened by the many notes of care and concern.	We are heartened by the many notes of care and concern.	1566469	1471969804386	1471969804518	t	84
3072	32846	We are heartened by the many notes of care and concern.	We are heartened by the many notes of care and concern.	1566474	1471969805704	1471969805815	e	69
3072	32846	We are heartened by the many notes of care and concern.	We are heartened by the many notes of care and concern.	1566482	1471969805909	1471969806031	n	78
3072	32846	We are heartened by the many notes of care and concern.	We are heartened by the many notes of care and concern.	1566488	1471969806172	1471969806342	e	69
3072	32846	We are heartened by the many notes of care and concern.	We are heartened by the many notes of care and concern.	1566593	1471969806313	1471969806482	d	68
3072	32846	We are heartened by the many notes of care and concern.	We are heartened by the many notes of care and concern.	1566595	1471969806590	1471969806696	 	32
3072	32846	We are heartened by the many notes of care and concern.	We are heartened by the many notes of care and concern.	1566596	1471969807043	1471969807133	b	66
3072	32846	We are heartened by the many notes of care and concern.	We are heartened by the many notes of care and concern.	1566597	1471969807642	1471969807740	y	89
3072	32846	We are heartened by the many notes of care and concern.	We are heartened by the many notes of care and concern.	1566598	1471969807834	1471969807978	 	32
3072	32846	We are heartened by the many notes of care and concern.	We are heartened by the many notes of care and concern.	1566599	1471969808997	1471969809115	t	84
3072	32846	We are heartened by the many notes of care and concern.	We are heartened by the many notes of care and concern.	1566673	1471969809208	1471969809313	h	72
3072	32846	We are heartened by the many notes of care and concern.	We are heartened by the many notes of care and concern.	1566675	1471969809681	1471969809813	e	69
3072	32846	We are heartened by the many notes of care and concern.	We are heartened by the many notes of care and concern.	1566677	1471969809829	1471969809963	 	32
3072	32846	We are heartened by the many notes of care and concern.	We are heartened by the many notes of care and concern.	1566679	1471969810657	1471969810748	m	77
3072	32846	We are heartened by the many notes of care and concern.	We are heartened by the many notes of care and concern.	1566683	1471969810779	1471969810927	a	65
3072	32846	We are heartened by the many notes of care and concern.	We are heartened by the many notes of care and concern.	1566773	1471969810985	1471969811081	n	78
3072	32846	We are heartened by the many notes of care and concern.	We are heartened by the many notes of care and concern.	1566776	1471969811584	1471969811697	y	89
3072	32846	We are heartened by the many notes of care and concern.	We are heartened by the many notes of care and concern.	1566786	1471969811806	1471969811945	 	32
3072	32846	We are heartened by the many notes of care and concern.	We are heartened by the many notes of care and concern.	1566795	1471969812661	1471969812748	n	78
3072	32846	We are heartened by the many notes of care and concern.	We are heartened by the many notes of care and concern.	1566802	1471969813123	1471969813229	o	79
3072	32846	We are heartened by the many notes of care and concern.	We are heartened by the many notes of care and concern.	1566937	1471969813475	1471969813565	t	84
3072	32846	We are heartened by the many notes of care and concern.	We are heartened by the many notes of care and concern.	1566938	1471969813643	1471969813794	e	69
3072	32846	We are heartened by the many notes of care and concern.	We are heartened by the many notes of care and concern.	1566939	1471969813951	1471969814087	s	83
3072	32846	We are heartened by the many notes of care and concern.	We are heartened by the many notes of care and concern.	1566940	1471969814196	1471969814353	 	32
3072	32846	We are heartened by the many notes of care and concern.	We are heartened by the many notes of care and concern.	1566941	1471969815379	1471969815496	o	79
3072	32846	We are heartened by the many notes of care and concern.	We are heartened by the many notes of care and concern.	1567025	1471969815631	1471969815762	f	70
3072	32846	We are heartened by the many notes of care and concern.	We are heartened by the many notes of care and concern.	1567031	1471969815809	1471969815914	 	32
3072	32846	We are heartened by the many notes of care and concern.	We are heartened by the many notes of care and concern.	1567037	1471969816431	1471969816494	c	67
3072	32846	We are heartened by the many notes of care and concern.	We are heartened by the many notes of care and concern.	1567043	1471969816711	1471969816814	a	65
3072	32846	We are heartened by the many notes of care and concern.	We are heartened by the many notes of care and concern.	1567047	1471969817043	1471969817148	r	82
3072	32846	We are heartened by the many notes of care and concern.	We are heartened by the many notes of care and concern.	1567127	1471969817174	1471969817321	e	69
3072	32846	We are heartened by the many notes of care and concern.	We are heartened by the many notes of care and concern.	1567129	1471969817367	1471969817540	 	32
3072	32846	We are heartened by the many notes of care and concern.	We are heartened by the many notes of care and concern.	1567132	1471969818311	1471969818429	a	65
3072	32846	We are heartened by the many notes of care and concern.	We are heartened by the many notes of care and concern.	1567136	1471969818962	1471969819095	n	78
3072	32846	We are heartened by the many notes of care and concern.	We are heartened by the many notes of care and concern.	1567140	1471969819390	1471969819512	g	71
3072	32846	We are heartened by the many notes of care and concern.	We are heartened by the many notes of care and concern.	1567241	1471969820170	1471969820244	=	187
3072	32846	We are heartened by the many notes of care and concern.	We are heartened by the many notes of care and concern.	1567239	1471969820189	1471969820234	BKSP	8
3072	32846	We are heartened by the many notes of care and concern.	We are heartened by the many notes of care and concern.	1567244	1471969820492	1471969820609	BKSP	8
3072	32846	We are heartened by the many notes of care and concern.	We are heartened by the many notes of care and concern.	1567247	1471969820747	1471969820856	d	68
3072	32846	We are heartened by the many notes of care and concern.	We are heartened by the many notes of care and concern.	1567252	1471969820950	1471969821063	 	32
3072	32846	We are heartened by the many notes of care and concern.	We are heartened by the many notes of care and concern.	1567258	1471969821754	1471969821847	c	67
3072	32846	We are heartened by the many notes of care and concern.	We are heartened by the many notes of care and concern.	1567264	1471969822019	1471969822131	o	79
3072	32846	We are heartened by the many notes of care and concern.	We are heartened by the many notes of care and concern.	1567318	1471969822252	1471969822347	n	78
3072	32846	We are heartened by the many notes of care and concern.	We are heartened by the many notes of care and concern.	1567321	1471969822747	1471969822821	c	67
3072	32846	We are heartened by the many notes of care and concern.	We are heartened by the many notes of care and concern.	1567324	1471969822959	1471969823095	e	69
3072	32846	We are heartened by the many notes of care and concern.	We are heartened by the many notes of care and concern.	1567326	1471969823126	1471969823245	r	82
3072	32846	We are heartened by the many notes of care and concern.	We are heartened by the many notes of care and concern.	1567328	1471969823432	1471969823515	n	78
3072	32846	We are heartened by the many notes of care and concern.	We are heartened by the many notes of care and concern.	1567424	1471969824539	1471969824620	.	190
