PARTICIPANT_ID	TEST_SECTION_ID	SENTENCE	USER_INPUT	KEYSTROKE_ID	PRESS_TIME	RELEASE_TIME	LETTER	KEYCODE
3158	33245	Kind of like silent fireworks.	Kind of like slent firw\worke	1585261	1471970088740	1471970088935	SHIFT	16
3158	33245	Kind of like silent fireworks.	Kind of like slent firw\worke	1585263	1471970088876	1471970088974	K	75
3158	33245	Kind of like silent fireworks.	Kind of like slent firw\worke	1585266	1471970089037	1471970089130	i	73
3158	33245	Kind of like silent fireworks.	Kind of like slent firw\worke	1585268	1471970089282	1471970089378	n	78
3158	33245	Kind of like silent fireworks.	Kind of like slent firw\worke	1585270	1471970089683	1471970089788	d	68
3158	33245	Kind of like silent fireworks.	Kind of like slent firw\worke	1585271	1471970089881	1471970089996	 	32
3158	33245	Kind of like silent fireworks.	Kind of like slent firw\worke	1585338	1471970090665	1471970090781	o	79
3158	33245	Kind of like silent fireworks.	Kind of like slent firw\worke	1585339	1471970090921	1471970091023	f	70
3158	33245	Kind of like silent fireworks.	Kind of like slent firw\worke	1585340	1471970091086	1471970091167	 	32
3158	33245	Kind of like silent fireworks.	Kind of like slent firw\worke	1585341	1471970091607	1471970091698	l	76
3158	33245	Kind of like silent fireworks.	Kind of like slent firw\worke	1585343	1471970091795	1471970091894	i	73
3158	33245	Kind of like silent fireworks.	Kind of like slent firw\worke	1585421	1471970091949	1471970092057	k	75
3158	33245	Kind of like silent fireworks.	Kind of like slent firw\worke	1585423	1471970092139	1471970092243	e	69
3158	33245	Kind of like silent fireworks.	Kind of like slent firw\worke	1585424	1471970092296	1471970092401	 	32
3158	33245	Kind of like silent fireworks.	Kind of like slent firw\worke	1585426	1471970093379	1471970093502	s	83
3158	33245	Kind of like silent fireworks.	Kind of like slent firw\worke	1585427	1471970093613	1471970093724	l	76
3158	33245	Kind of like silent fireworks.	Kind of like slent firw\worke	1585543	1471970095683	1471970095832	e	69
3158	33245	Kind of like silent fireworks.	Kind of like slent firw\worke	1585548	1471970096070	1471970096182	n	78
3158	33245	Kind of like silent fireworks.	Kind of like slent firw\worke	1585552	1471970096277	1471970096387	t	84
3158	33245	Kind of like silent fireworks.	Kind of like slent firw\worke	1585555	1471970096458	1471970096557	 	32
3158	33245	Kind of like silent fireworks.	Kind of like slent firw\worke	1585558	1471970097503	1471970097656	f	70
3158	33245	Kind of like silent fireworks.	Kind of like slent firw\worke	1585705	1471970097972	1471970098094	i	73
3158	33245	Kind of like silent fireworks.	Kind of like slent firw\worke	1585710	1471970098809	1471970098943	r	82
3158	33245	Kind of like silent fireworks.	Kind of like slent firw\worke	1585712	1471970099119	1471970099243	e	87
3158	33245	Kind of like silent fireworks.	Kind of like slent firw\worke	1585715	1471970100906	1471970100990	\	8
3158	33245	Kind of like silent fireworks.	Kind of like slent firw\worke	1585752	1471970101420	1471970101597	w	87
3158	33245	Kind of like silent fireworks.	Kind of like slent firw\worke	1585755	1471970101562	1471970101677	o	79
3158	33245	Kind of like silent fireworks.	Kind of like slent firw\worke	1585758	1471970101745	1471970101858	r	82
3158	33245	Kind of like silent fireworks.	Kind of like slent firw\worke	1585760	1471970101924	1471970102014	k	75
3158	33245	Kind of like silent fireworks.	Kind of like slent firw\worke	1585763	1471970102170	1471970102262	e	69
3158	33272	One of the Hottest Gifts for Holiday 2001.	one of the hottes gifts for holidY 2001	1585937	1471970105265	1471970105369	o	79
3158	33272	One of the Hottest Gifts for Holiday 2001.	one of the hottes gifts for holidY 2001	1585939	1471970105478	1471970105589	n	78
3158	33272	One of the Hottest Gifts for Holiday 2001.	one of the hottes gifts for holidY 2001	1585940	1471970105665	1471970105782	e	69
3158	33272	One of the Hottest Gifts for Holiday 2001.	one of the hottes gifts for holidY 2001	1585941	1471970105839	1471970105944	 	32
3158	33272	One of the Hottest Gifts for Holiday 2001.	one of the hottes gifts for holidY 2001	1585942	1471970106501	1471970106611	o	79
3158	33272	One of the Hottest Gifts for Holiday 2001.	one of the hottes gifts for holidY 2001	1585991	1471970106708	1471970106825	f	70
3158	33272	One of the Hottest Gifts for Holiday 2001.	one of the hottes gifts for holidY 2001	1585992	1471970106843	1471970106948	 	32
3158	33272	One of the Hottest Gifts for Holiday 2001.	one of the hottes gifts for holidY 2001	1585994	1471970107117	1471970107210	t	84
3158	33272	One of the Hottest Gifts for Holiday 2001.	one of the hottes gifts for holidY 2001	1585995	1471970107319	1471970107418	h	72
3158	33272	One of the Hottest Gifts for Holiday 2001.	one of the hottes gifts for holidY 2001	1585998	1471970107458	1471970107571	e	69
3158	33272	One of the Hottest Gifts for Holiday 2001.	one of the hottes gifts for holidY 2001	1586053	1471970107647	1471970107737	 	32
3158	33272	One of the Hottest Gifts for Holiday 2001.	one of the hottes gifts for holidY 2001	1586055	1471970108175	1471970108275	h	72
3158	33272	One of the Hottest Gifts for Holiday 2001.	one of the hottes gifts for holidY 2001	1586058	1471970108533	1471970108637	o	79
3158	33272	One of the Hottest Gifts for Holiday 2001.	one of the hottes gifts for holidY 2001	1586061	1471970108887	1471970108997	t	84
3158	33272	One of the Hottest Gifts for Holiday 2001.	one of the hottes gifts for holidY 2001	1586064	1471970109054	1471970109151	t	84
3158	33272	One of the Hottest Gifts for Holiday 2001.	one of the hottes gifts for holidY 2001	1586163	1471970109415	1471970109551	e	69
3158	33272	One of the Hottest Gifts for Holiday 2001.	one of the hottes gifts for holidY 2001	1586166	1471970109621	1471970109762	s	83
3158	33272	One of the Hottest Gifts for Holiday 2001.	one of the hottes gifts for holidY 2001	1586169	1471970109803	1471970109914	 	32
3158	33272	One of the Hottest Gifts for Holiday 2001.	one of the hottes gifts for holidY 2001	1586173	1471970110943	1471970111073	g	71
3158	33272	One of the Hottest Gifts for Holiday 2001.	one of the hottes gifts for holidY 2001	1586179	1471970111702	1471970111832	i	73
3158	33272	One of the Hottest Gifts for Holiday 2001.	one of the hottes gifts for holidY 2001	1586280	1471970112536	1471970112664	f	70
3158	33272	One of the Hottest Gifts for Holiday 2001.	one of the hottes gifts for holidY 2001	1586282	1471970112732	1471970112830	t	84
3158	33272	One of the Hottest Gifts for Holiday 2001.	one of the hottes gifts for holidY 2001	1586284	1471970112870	1471970112981	s	83
3158	33272	One of the Hottest Gifts for Holiday 2001.	one of the hottes gifts for holidY 2001	1586286	1471970113033	1471970113113	 	32
3158	33272	One of the Hottest Gifts for Holiday 2001.	one of the hottes gifts for holidY 2001	1586288	1471970113775	1471970113899	f	70
3158	33272	One of the Hottest Gifts for Holiday 2001.	one of the hottes gifts for holidY 2001	1586346	1471970113955	1471970114054	o	79
3158	33272	One of the Hottest Gifts for Holiday 2001.	one of the hottes gifts for holidY 2001	1586349	1471970114131	1471970114242	r	82
3158	33272	One of the Hottest Gifts for Holiday 2001.	one of the hottes gifts for holidY 2001	1586351	1471970114299	1471970114397	 	32
3158	33272	One of the Hottest Gifts for Holiday 2001.	one of the hottes gifts for holidY 2001	1586354	1471970114976	1471970115074	h	72
3158	33272	One of the Hottest Gifts for Holiday 2001.	one of the hottes gifts for holidY 2001	1586356	1471970115366	1471970115464	o	79
3158	33272	One of the Hottest Gifts for Holiday 2001.	one of the hottes gifts for holidY 2001	1586474	1471970115542	1471970115653	l	76
3158	33272	One of the Hottest Gifts for Holiday 2001.	one of the hottes gifts for holidY 2001	1586475	1471970117359	1471970117445	i	73
3158	33272	One of the Hottest Gifts for Holiday 2001.	one of the hottes gifts for holidY 2001	1586476	1471970117722	1471970117803	d	68
3158	33272	One of the Hottest Gifts for Holiday 2001.	one of the hottes gifts for holidY 2001	1586477	1471970117945	1471970118074	CAPS_LOCK	20
3158	33272	One of the Hottest Gifts for Holiday 2001.	one of the hottes gifts for holidY 2001	1586478	1471970118062	1471970118161	Y	89
3158	33272	One of the Hottest Gifts for Holiday 2001.	one of the hottes gifts for holidY 2001	1586479	1471970118342	1471970118443	 	32
3158	33272	One of the Hottest Gifts for Holiday 2001.	one of the hottes gifts for holidY 2001	1586605	1471970119640	1471970119786	2	50
3158	33272	One of the Hottest Gifts for Holiday 2001.	one of the hottes gifts for holidY 2001	1586608	1471970120023	1471970120134	0	48
3158	33272	One of the Hottest Gifts for Holiday 2001.	one of the hottes gifts for holidY 2001	1586611	1471970120190	1471970120279	0	48
3158	33272	One of the Hottest Gifts for Holiday 2001.	one of the hottes gifts for holidY 2001	1586614	1471970120553	1471970120674	1	49
3158	33272	One of the Hottest Gifts for Holiday 2001.	one of the hottes gifts for holidY 2001	1586617	1471970121175	1471970121256	CAPS_LOCK	20
3158	33291	Mostly a social call.	mostky a socal call 	1586833	1471970124003	1471970124152	m	77
3158	33291	Mostly a social call.	mostky a socal call 	1586836	1471970124229	1471970124328	o	79
3158	33291	Mostly a social call.	mostky a socal call 	1586843	1471970124603	1471970124720	s	83
3158	33291	Mostly a social call.	mostky a socal call 	1586846	1471970125649	1471970125739	t	84
3158	33291	Mostly a social call.	mostky a socal call 	1586848	1471970126051	1471970126151	k	75
3158	33291	Mostly a social call.	mostky a socal call 	1586953	1471970126569	1471970126672	y	89
3158	33291	Mostly a social call.	mostky a socal call 	1586956	1471970126740	1471970126833	 	32
3158	33291	Mostly a social call.	mostky a socal call 	1586959	1471970127428	1471970127533	a	65
3158	33291	Mostly a social call.	mostky a socal call 	1586961	1471970127585	1471970127683	 	32
3158	33291	Mostly a social call.	mostky a socal call 	1586963	1471970128543	1471970128659	s	83
3158	33291	Mostly a social call.	mostky a socal call 	1587123	1471970129008	1471970129119	o	79
3158	33291	Mostly a social call.	mostky a socal call 	1587127	1471970130196	1471970130298	c	67
3158	33291	Mostly a social call.	mostky a socal call 	1587131	1471970130397	1471970130536	a	65
3158	33291	Mostly a social call.	mostky a socal call 	1587134	1471970131315	1471970131429	l	76
3158	33291	Mostly a social call.	mostky a socal call 	1587136	1471970131565	1471970131666	 	32
3158	33291	Mostly a social call.	mostky a socal call 	1587220	1471970132217	1471970132333	c	67
3158	33291	Mostly a social call.	mostky a socal call 	1587225	1471970132384	1471970132495	a	65
3158	33291	Mostly a social call.	mostky a socal call 	1587231	1471970132711	1471970132794	l	76
3158	33291	Mostly a social call.	mostky a socal call 	1587238	1471970132847	1471970132938	l	76
3158	33291	Mostly a social call.	mostky a socal call 	1587243	1471970133342	1471970133449	 	32
3158	33300	Washington was not moving toward a unilateral lifting of the embargo.	wasingon was not moveing towed a unilatera lifing of the eambargo	1587457	1471970136335	1471970136436	w	87
3158	33300	Washington was not moving toward a unilateral lifting of the embargo.	wasingon was not moveing towed a unilatera lifing of the eambargo	1587458	1471970136496	1471970136618	a	65
3158	33300	Washington was not moving toward a unilateral lifting of the embargo.	wasingon was not moveing towed a unilatera lifing of the eambargo	1587460	1471970136648	1471970136756	s	83
3158	33300	Washington was not moving toward a unilateral lifting of the embargo.	wasingon was not moveing towed a unilatera lifing of the eambargo	1587463	1471970137737	1471970137840	i	73
3158	33300	Washington was not moving toward a unilateral lifting of the embargo.	wasingon was not moveing towed a unilatera lifing of the eambargo	1587470	1471970137999	1471970138115	n	78
3158	33300	Washington was not moving toward a unilateral lifting of the embargo.	wasingon was not moveing towed a unilatera lifing of the eambargo	1587576	1471970138364	1471970138463	g	71
3158	33300	Washington was not moving toward a unilateral lifting of the embargo.	wasingon was not moveing towed a unilatera lifing of the eambargo	1587579	1471970139107	1471970139223	o	79
3158	33300	Washington was not moving toward a unilateral lifting of the embargo.	wasingon was not moveing towed a unilatera lifing of the eambargo	1587581	1471970139370	1471970139448	n	78
3158	33300	Washington was not moving toward a unilateral lifting of the embargo.	wasingon was not moveing towed a unilatera lifing of the eambargo	1587582	1471970139564	1471970139660	 	32
3158	33300	Washington was not moving toward a unilateral lifting of the embargo.	wasingon was not moveing towed a unilatera lifing of the eambargo	1587584	1471970140265	1471970140369	w	87
3158	33300	Washington was not moving toward a unilateral lifting of the embargo.	wasingon was not moveing towed a unilatera lifing of the eambargo	1587694	1471970140413	1471970140536	a	65
3158	33300	Washington was not moving toward a unilateral lifting of the embargo.	wasingon was not moveing towed a unilatera lifing of the eambargo	1587699	1471970140543	1471970140647	s	83
3158	33300	Washington was not moving toward a unilateral lifting of the embargo.	wasingon was not moveing towed a unilatera lifing of the eambargo	1587700	1471970140886	1471970141018	 	32
3158	33300	Washington was not moving toward a unilateral lifting of the embargo.	wasingon was not moveing towed a unilatera lifing of the eambargo	1587702	1471970142351	1471970142482	n	78
3158	33300	Washington was not moving toward a unilateral lifting of the embargo.	wasingon was not moveing towed a unilatera lifing of the eambargo	1587706	1471970142586	1471970142684	o	79
3158	33300	Washington was not moving toward a unilateral lifting of the embargo.	wasingon was not moveing towed a unilatera lifing of the eambargo	1587781	1471970142876	1471970143002	t	84
3158	33300	Washington was not moving toward a unilateral lifting of the embargo.	wasingon was not moveing towed a unilatera lifing of the eambargo	1587783	1471970143075	1471970143180	 	32
3158	33300	Washington was not moving toward a unilateral lifting of the embargo.	wasingon was not moveing towed a unilatera lifing of the eambargo	1587785	1471970143781	1471970143896	m	77
3158	33300	Washington was not moving toward a unilateral lifting of the embargo.	wasingon was not moveing towed a unilatera lifing of the eambargo	1587787	1471970144006	1471970144122	o	79
3158	33300	Washington was not moving toward a unilateral lifting of the embargo.	wasingon was not moveing towed a unilatera lifing of the eambargo	1587789	1471970144327	1471970144443	v	86
3158	33300	Washington was not moving toward a unilateral lifting of the embargo.	wasingon was not moveing towed a unilatera lifing of the eambargo	1587876	1471970144646	1471970144774	e	69
3158	33300	Washington was not moving toward a unilateral lifting of the embargo.	wasingon was not moveing towed a unilatera lifing of the eambargo	1587879	1471970145448	1471970145548	i	73
3158	33300	Washington was not moving toward a unilateral lifting of the embargo.	wasingon was not moveing towed a unilatera lifing of the eambargo	1587883	1471970145629	1471970145754	n	78
3158	33300	Washington was not moving toward a unilateral lifting of the embargo.	wasingon was not moveing towed a unilatera lifing of the eambargo	1587887	1471970145829	1471970145928	g	71
3158	33300	Washington was not moving toward a unilateral lifting of the embargo.	wasingon was not moveing towed a unilatera lifing of the eambargo	1587889	1471970145996	1471970146117	 	32
3158	33300	Washington was not moving toward a unilateral lifting of the embargo.	wasingon was not moveing towed a unilatera lifing of the eambargo	1587960	1471970146815	1471970146901	t	84
3158	33300	Washington was not moving toward a unilateral lifting of the embargo.	wasingon was not moveing towed a unilatera lifing of the eambargo	1587962	1471970146965	1471970147069	o	79
3158	33300	Washington was not moving toward a unilateral lifting of the embargo.	wasingon was not moveing towed a unilatera lifing of the eambargo	1587964	1471970147576	1471970147724	w	87
3158	33300	Washington was not moving toward a unilateral lifting of the embargo.	wasingon was not moveing towed a unilatera lifing of the eambargo	1587965	1471970147787	1471970147918	e	69
3158	33300	Washington was not moving toward a unilateral lifting of the embargo.	wasingon was not moveing towed a unilatera lifing of the eambargo	1587966	1471970147982	1471970148104	d	68
3158	33300	Washington was not moving toward a unilateral lifting of the embargo.	wasingon was not moveing towed a unilatera lifing of the eambargo	1588060	1471970148146	1471970148244	 	32
3158	33300	Washington was not moving toward a unilateral lifting of the embargo.	wasingon was not moveing towed a unilatera lifing of the eambargo	1588064	1471970148858	1471970148987	a	65
3158	33300	Washington was not moving toward a unilateral lifting of the embargo.	wasingon was not moveing towed a unilatera lifing of the eambargo	1588067	1471970149006	1471970149116	 	32
3158	33300	Washington was not moving toward a unilateral lifting of the embargo.	wasingon was not moveing towed a unilatera lifing of the eambargo	1588070	1471970150034	1471970150141	u	85
3158	33300	Washington was not moving toward a unilateral lifting of the embargo.	wasingon was not moveing towed a unilatera lifing of the eambargo	1588072	1471970150265	1471970150372	n	78
3158	33300	Washington was not moving toward a unilateral lifting of the embargo.	wasingon was not moveing towed a unilatera lifing of the eambargo	1588196	1471970151276	1471970151368	i	73
3158	33300	Washington was not moving toward a unilateral lifting of the embargo.	wasingon was not moveing towed a unilatera lifing of the eambargo	1588199	1471970151503	1471970151625	l	76
3158	33300	Washington was not moving toward a unilateral lifting of the embargo.	wasingon was not moveing towed a unilatera lifing of the eambargo	1588202	1471970153013	1471970153156	a	65
3158	33300	Washington was not moving toward a unilateral lifting of the embargo.	wasingon was not moveing towed a unilatera lifing of the eambargo	1588204	1471970153161	1471970153286	t	84
3158	33300	Washington was not moving toward a unilateral lifting of the embargo.	wasingon was not moveing towed a unilatera lifing of the eambargo	1588206	1471970154936	1471970155093	e	69
3158	33300	Washington was not moving toward a unilateral lifting of the embargo.	wasingon was not moveing towed a unilatera lifing of the eambargo	1588406	1471970156428	1471970156533	r	82
3158	33300	Washington was not moving toward a unilateral lifting of the embargo.	wasingon was not moveing towed a unilatera lifing of the eambargo	1588411	1471970156584	1471970156694	a	65
3158	33300	Washington was not moving toward a unilateral lifting of the embargo.	wasingon was not moveing towed a unilatera lifing of the eambargo	1588417	1471970156814	1471970156918	 	32
3158	33300	Washington was not moving toward a unilateral lifting of the embargo.	wasingon was not moveing towed a unilatera lifing of the eambargo	1588422	1471970157109	1471970157214	l	76
3158	33300	Washington was not moving toward a unilateral lifting of the embargo.	wasingon was not moveing towed a unilatera lifing of the eambargo	1588426	1471970158974	1471970159093	i	73
3158	33300	Washington was not moving toward a unilateral lifting of the embargo.	wasingon was not moveing towed a unilatera lifing of the eambargo	1588609	1471970160115	1471970160230	f	70
3158	33300	Washington was not moving toward a unilateral lifting of the embargo.	wasingon was not moveing towed a unilatera lifing of the eambargo	1588614	1471970160420	1471970160561	i	73
3158	33300	Washington was not moving toward a unilateral lifting of the embargo.	wasingon was not moveing towed a unilatera lifing of the eambargo	1588620	1471970161607	1471970161751	n	78
3158	33300	Washington was not moving toward a unilateral lifting of the embargo.	wasingon was not moveing towed a unilatera lifing of the eambargo	1588624	1471970162164	1471970162293	g	71
3158	33300	Washington was not moving toward a unilateral lifting of the embargo.	wasingon was not moveing towed a unilatera lifing of the eambargo	1588628	1471970162416	1471970162538	 	32
3158	33300	Washington was not moving toward a unilateral lifting of the embargo.	wasingon was not moveing towed a unilatera lifing of the eambargo	1588710	1471970163444	1471970163564	o	79
3158	33300	Washington was not moving toward a unilateral lifting of the embargo.	wasingon was not moveing towed a unilatera lifing of the eambargo	1588712	1471970163612	1471970163724	f	70
3158	33300	Washington was not moving toward a unilateral lifting of the embargo.	wasingon was not moveing towed a unilatera lifing of the eambargo	1588714	1471970163753	1471970163875	 	32
3158	33300	Washington was not moving toward a unilateral lifting of the embargo.	wasingon was not moveing towed a unilatera lifing of the eambargo	1588718	1471970164516	1471970164621	t	84
3158	33300	Washington was not moving toward a unilateral lifting of the embargo.	wasingon was not moveing towed a unilatera lifing of the eambargo	1588720	1471970164690	1471970164799	h	72
3158	33300	Washington was not moving toward a unilateral lifting of the embargo.	wasingon was not moveing towed a unilatera lifing of the eambargo	1588813	1471970164838	1471970164954	e	69
3158	33300	Washington was not moving toward a unilateral lifting of the embargo.	wasingon was not moveing towed a unilatera lifing of the eambargo	1588815	1471970165002	1471970165109	 	32
3158	33300	Washington was not moving toward a unilateral lifting of the embargo.	wasingon was not moveing towed a unilatera lifing of the eambargo	1588816	1471970165847	1471970165951	e	69
3158	33300	Washington was not moving toward a unilateral lifting of the embargo.	wasingon was not moveing towed a unilatera lifing of the eambargo	1588817	1471970166083	1471970166227	a	65
3158	33300	Washington was not moving toward a unilateral lifting of the embargo.	wasingon was not moveing towed a unilatera lifing of the eambargo	1588818	1471970166954	1471970167072	m	77
3158	33300	Washington was not moving toward a unilateral lifting of the embargo.	wasingon was not moveing towed a unilatera lifing of the eambargo	1588925	1471970167275	1471970167381	b	66
3158	33300	Washington was not moving toward a unilateral lifting of the embargo.	wasingon was not moveing towed a unilatera lifing of the eambargo	1588927	1471970168338	1471970168478	a	65
3158	33300	Washington was not moving toward a unilateral lifting of the embargo.	wasingon was not moveing towed a unilatera lifing of the eambargo	1588934	1471970168694	1471970168810	r	82
3158	33300	Washington was not moving toward a unilateral lifting of the embargo.	wasingon was not moveing towed a unilatera lifing of the eambargo	1588939	1471970169036	1471970169123	g	71
3158	33300	Washington was not moving toward a unilateral lifting of the embargo.	wasingon was not moveing towed a unilatera lifing of the eambargo	1588945	1471970169404	1471970169517	o	79
3158	33337	Could you please let me know as soon as possible.	could you plase let me know as sson as possible \	1589167	1471970172690	1471970172793	c	67
3158	33337	Could you please let me know as soon as possible.	could you plase let me know as sson as possible \	1589170	1471970172776	1471970172890	o	79
3158	33337	Could you please let me know as soon as possible.	could you plase let me know as sson as possible \	1589173	1471970173013	1471970173114	u	85
3158	33337	Could you please let me know as soon as possible.	could you plase let me know as sson as possible \	1589175	1471970173243	1471970173359	l	76
3158	33337	Could you please let me know as soon as possible.	could you plase let me know as sson as possible \	1589176	1471970173440	1471970173541	d	68
3158	33337	Could you please let me know as soon as possible.	could you plase let me know as sson as possible \	1589228	1471970173637	1471970173733	 	32
3158	33337	Could you please let me know as soon as possible.	could you plase let me know as sson as possible \	1589231	1471970174472	1471970174575	y	89
3158	33337	Could you please let me know as soon as possible.	could you plase let me know as sson as possible \	1589234	1471970174582	1471970174686	o	79
3158	33337	Could you please let me know as soon as possible.	could you plase let me know as sson as possible \	1589237	1471970174791	1471970174875	u	85
3158	33337	Could you please let me know as soon as possible.	could you plase let me know as sson as possible \	1589242	1471970175031	1471970175141	 	32
3158	33337	Could you please let me know as soon as possible.	could you plase let me know as sson as possible \	1589341	1471970175733	1471970175835	p	80
3158	33337	Could you please let me know as soon as possible.	could you plase let me know as sson as possible \	1589344	1471970175912	1471970176008	l	76
3158	33337	Could you please let me know as soon as possible.	could you plase let me know as sson as possible \	1589348	1471970176352	1471970176446	a	65
3158	33337	Could you please let me know as soon as possible.	could you plase let me know as sson as possible \	1589354	1471970176506	1471970176656	s	83
3158	33337	Could you please let me know as soon as possible.	could you plase let me know as sson as possible \	1589358	1471970176789	1471970176959	e	69
3158	33337	Could you please let me know as soon as possible.	could you plase let me know as sson as possible \	1589434	1471970177088	1471970177155	 	32
3158	33337	Could you please let me know as soon as possible.	could you plase let me know as sson as possible \	1589437	1471970178184	1471970178291	l	76
3158	33337	Could you please let me know as soon as possible.	could you plase let me know as sson as possible \	1589440	1471970178377	1471970178493	e	69
3158	33337	Could you please let me know as soon as possible.	could you plase let me know as sson as possible \	1589443	1471970178693	1471970178795	t	84
3158	33337	Could you please let me know as soon as possible.	could you plase let me know as sson as possible \	1589446	1471970178994	1471970179094	 	32
3158	33337	Could you please let me know as soon as possible.	could you plase let me know as sson as possible \	1589534	1471970179498	1471970179609	m	77
3158	33337	Could you please let me know as soon as possible.	could you plase let me know as sson as possible \	1589536	1471970179780	1471970179890	e	69
3158	33337	Could you please let me know as soon as possible.	could you plase let me know as sson as possible \	1589537	1471970179908	1471970180005	 	32
3158	33337	Could you please let me know as soon as possible.	could you plase let me know as sson as possible \	1589541	1471970180357	1471970180455	k	75
3158	33337	Could you please let me know as soon as possible.	could you plase let me know as sson as possible \	1589542	1471970181276	1471970181381	n	78
3158	33337	Could you please let me know as soon as possible.	could you plase let me know as sson as possible \	1589583	1471970181517	1471970181627	o	79
3158	33337	Could you please let me know as soon as possible.	could you plase let me know as sson as possible \	1589585	1471970181738	1471970181862	w	87
3158	33337	Could you please let me know as soon as possible.	could you plase let me know as sson as possible \	1589588	1471970181895	1471970182002	 	32
3158	33337	Could you please let me know as soon as possible.	could you plase let me know as sson as possible \	1589591	1471970182505	1471970182635	a	65
3158	33337	Could you please let me know as soon as possible.	could you plase let me know as sson as possible \	1589593	1471970182678	1471970182789	s	83
3158	33337	Could you please let me know as soon as possible.	could you plase let me know as sson as possible \	1589643	1471970182807	1471970182912	 	32
3158	33337	Could you please let me know as soon as possible.	could you plase let me know as sson as possible \	1589648	1471970183086	1471970183228	s	83
3158	33337	Could you please let me know as soon as possible.	could you plase let me know as sson as possible \	1589650	1471970183293	1471970183387	s	83
3158	33337	Could you please let me know as soon as possible.	could you plase let me know as sson as possible \	1589653	1471970183535	1471970183638	o	79
3158	33337	Could you please let me know as soon as possible.	could you plase let me know as sson as possible \	1589658	1471970183812	1471970183873	n	78
3158	33337	Could you please let me know as soon as possible.	could you plase let me know as sson as possible \	1589772	1471970183977	1471970184068	 	32
3158	33337	Could you please let me know as soon as possible.	could you plase let me know as sson as possible \	1589773	1471970185168	1471970185309	a	65
3158	33337	Could you please let me know as soon as possible.	could you plase let me know as sson as possible \	1589775	1471970185328	1471970185461	s	83
3158	33337	Could you please let me know as soon as possible.	could you plase let me know as sson as possible \	1589779	1471970185451	1471970185562	 	32
3158	33337	Could you please let me know as soon as possible.	could you plase let me know as sson as possible \	1589783	1471970186065	1471970186199	p	80
3158	33337	Could you please let me know as soon as possible.	could you plase let me know as sson as possible \	1589938	1471970187283	1471970187389	o	79
3158	33337	Could you please let me know as soon as possible.	could you plase let me know as sson as possible \	1589939	1471970187573	1471970187697	s	83
3158	33337	Could you please let me know as soon as possible.	could you plase let me know as sson as possible \	1589941	1471970187733	1471970187835	s	83
3158	33337	Could you please let me know as soon as possible.	could you plase let me know as sson as possible \	1589943	1471970188901	1471970188997	i	73
3158	33337	Could you please let me know as soon as possible.	could you plase let me know as sson as possible \	1589945	1471970189415	1471970189507	b	66
3158	33337	Could you please let me know as soon as possible.	could you plase let me know as sson as possible \	1590003	1471970189936	1471970190025	l	76
3158	33337	Could you please let me know as soon as possible.	could you plase let me know as sson as possible \	1590005	1471970190058	1471970190175	e	69
3158	33337	Could you please let me know as soon as possible.	could you plase let me know as sson as possible \	1590009	1471970190217	1471970190315	 	32
3158	33360	She was going to leave at 8 or 9.	shw was going to leave at 8 or 9.	1590895	1471970191028	1471970208595	\	220
3158	33360	She was going to leave at 8 or 9.	shw was going to leave at 8 or 9.	1590168	1471970193386	1471970193523	s	83
3158	33360	She was going to leave at 8 or 9.	shw was going to leave at 8 or 9.	1590169	1471970193492	1471970193594	h	72
3158	33360	She was going to leave at 8 or 9.	shw was going to leave at 8 or 9.	1590170	1471970193720	1471970193838	w	87
3158	33360	She was going to leave at 8 or 9.	shw was going to leave at 8 or 9.	1590171	1471970193874	1471970193978	 	32
3158	33360	She was going to leave at 8 or 9.	shw was going to leave at 8 or 9.	1590172	1471970194462	1471970194561	w	87
3158	33360	She was going to leave at 8 or 9.	shw was going to leave at 8 or 9.	1590238	1471970194608	1471970194737	a	65
3158	33360	She was going to leave at 8 or 9.	shw was going to leave at 8 or 9.	1590242	1471970194743	1471970194842	s	83
3158	33360	She was going to leave at 8 or 9.	shw was going to leave at 8 or 9.	1590247	1471970195076	1471970195177	 	32
3158	33360	She was going to leave at 8 or 9.	shw was going to leave at 8 or 9.	1590251	1471970195829	1471970195939	g	71
3158	33360	She was going to leave at 8 or 9.	shw was going to leave at 8 or 9.	1590254	1471970195946	1471970196064	o	79
3158	33360	She was going to leave at 8 or 9.	shw was going to leave at 8 or 9.	1590314	1471970196136	1471970196232	i	73
3158	33360	She was going to leave at 8 or 9.	shw was going to leave at 8 or 9.	1590315	1471970196382	1471970196491	n	78
3158	33360	She was going to leave at 8 or 9.	shw was going to leave at 8 or 9.	1590317	1471970196505	1471970196624	g	71
3158	33360	She was going to leave at 8 or 9.	shw was going to leave at 8 or 9.	1590318	1471970196679	1471970196784	 	32
3158	33360	She was going to leave at 8 or 9.	shw was going to leave at 8 or 9.	1590319	1471970197347	1471970197489	a	65
3158	33360	She was going to leave at 8 or 9.	shw was going to leave at 8 or 9.	1590515	1471970198061	1471970198157	BKSP	8
3158	33360	She was going to leave at 8 or 9.	shw was going to leave at 8 or 9.	1590517	1471970198481	1471970198579	t	84
3158	33360	She was going to leave at 8 or 9.	shw was going to leave at 8 or 9.	1590519	1471970198939	1471970199043	o	79
3158	33360	She was going to leave at 8 or 9.	shw was going to leave at 8 or 9.	1590521	1471970199169	1471970199303	 	32
3158	33360	She was going to leave at 8 or 9.	shw was going to leave at 8 or 9.	1590523	1471970200962	1471970201078	l	76
3158	33360	She was going to leave at 8 or 9.	shw was going to leave at 8 or 9.	1590528	1471970201216	1471970201314	e	69
3158	33360	She was going to leave at 8 or 9.	shw was going to leave at 8 or 9.	1590583	1471970201494	1471970201649	a	65
3158	33360	She was going to leave at 8 or 9.	shw was going to leave at 8 or 9.	1590587	1471970201682	1471970201790	v	86
3158	33360	She was going to leave at 8 or 9.	shw was going to leave at 8 or 9.	1590589	1471970201864	1471970201976	e	69
3158	33360	She was going to leave at 8 or 9.	shw was going to leave at 8 or 9.	1590593	1471970202058	1471970202162	 	32
3158	33360	She was going to leave at 8 or 9.	shw was going to leave at 8 or 9.	1590598	1471970202783	1471970202914	a	65
3158	33360	She was going to leave at 8 or 9.	shw was going to leave at 8 or 9.	1590682	1471970203005	1471970203105	r	82
3158	33360	She was going to leave at 8 or 9.	shw was going to leave at 8 or 9.	1590684	1471970203723	1471970203819	BKSP	8
3158	33360	She was going to leave at 8 or 9.	shw was going to leave at 8 or 9.	1590686	1471970203890	1471970204002	t	84
3158	33360	She was going to leave at 8 or 9.	shw was going to leave at 8 or 9.	1590689	1471970204068	1471970204179	 	32
3158	33360	She was going to leave at 8 or 9.	shw was going to leave at 8 or 9.	1590694	1471970205391	1471970205490	8	56
3158	33360	She was going to leave at 8 or 9.	shw was going to leave at 8 or 9.	1590697	1471970206033	1471970206149	 	32
3158	33360	She was going to leave at 8 or 9.	shw was going to leave at 8 or 9.	1590804	1471970206479	1471970206568	o	79
3158	33360	She was going to leave at 8 or 9.	shw was going to leave at 8 or 9.	1590810	1471970206846	1471970206951	r	82
3158	33360	She was going to leave at 8 or 9.	shw was going to leave at 8 or 9.	1590814	1471970207022	1471970207118	 	32
3158	33360	She was going to leave at 8 or 9.	shw was going to leave at 8 or 9.	1590819	1471970207518	1471970207614	9	57
3158	33360	She was going to leave at 8 or 9.	shw was going to leave at 8 or 9.	1590824	1471970208242	1471970208333	.	190
3158	33360	She was going to leave at 8 or 9.	shw was going to leave at 8 or 9.	1590899	1471970209898	1471970210002	BKSP	8
3158	33376	Diplomats are predicting that the embargo will remain in force.	diplomomats are predicting that the embargo will rea\main in forcde.	1591079	1471970212826	1471970212942	d	68
3158	33376	Diplomats are predicting that the embargo will remain in force.	diplomomats are predicting that the embargo will rea\main in forcde.	1591081	1471970213022	1471970213121	i	73
3158	33376	Diplomats are predicting that the embargo will remain in force.	diplomomats are predicting that the embargo will rea\main in forcde.	1591084	1471970213214	1471970213326	p	80
3158	33376	Diplomats are predicting that the embargo will remain in force.	diplomomats are predicting that the embargo will rea\main in forcde.	1591086	1471970214398	1471970214537	l	76
3158	33376	Diplomats are predicting that the embargo will remain in force.	diplomomats are predicting that the embargo will rea\main in forcde.	1591090	1471970214605	1471970214717	o	79
3158	33376	Diplomats are predicting that the embargo will remain in force.	diplomomats are predicting that the embargo will rea\main in forcde.	1591208	1471970214942	1471970215073	m	77
3158	33376	Diplomats are predicting that the embargo will remain in force.	diplomomats are predicting that the embargo will rea\main in forcde.	1591210	1471970216487	1471970216592	o	79
3158	33376	Diplomats are predicting that the embargo will remain in force.	diplomomats are predicting that the embargo will rea\main in forcde.	1591212	1471970217409	1471970217520	m	77
3158	33376	Diplomats are predicting that the embargo will remain in force.	diplomomats are predicting that the embargo will rea\main in forcde.	1591215	1471970217780	1471970217928	a	65
3158	33376	Diplomats are predicting that the embargo will remain in force.	diplomomats are predicting that the embargo will rea\main in forcde.	1591261	1471970217909	1471970218020	t	84
3158	33376	Diplomats are predicting that the embargo will remain in force.	diplomomats are predicting that the embargo will rea\main in forcde.	1591266	1471970218331	1471970218454	s	83
3158	33376	Diplomats are predicting that the embargo will remain in force.	diplomomats are predicting that the embargo will rea\main in forcde.	1591269	1471970218466	1471970218589	 	32
3158	33376	Diplomats are predicting that the embargo will remain in force.	diplomomats are predicting that the embargo will rea\main in forcde.	1591272	1471970218992	1471970219124	a	65
3158	33376	Diplomats are predicting that the embargo will remain in force.	diplomomats are predicting that the embargo will rea\main in forcde.	1591273	1471970219193	1471970219303	r	82
3158	33376	Diplomats are predicting that the embargo will remain in force.	diplomomats are predicting that the embargo will rea\main in forcde.	1591275	1471970219346	1471970219463	e	69
3158	33376	Diplomats are predicting that the embargo will remain in force.	diplomomats are predicting that the embargo will rea\main in forcde.	1591371	1471970219559	1471970219657	 	32
3158	33376	Diplomats are predicting that the embargo will remain in force.	diplomomats are predicting that the embargo will rea\main in forcde.	1591373	1471970220597	1471970220655	p	80
3158	33376	Diplomats are predicting that the embargo will remain in force.	diplomomats are predicting that the embargo will rea\main in forcde.	1591376	1471970220983	1471970221003	r	82
3158	33376	Diplomats are predicting that the embargo will remain in force.	diplomomats are predicting that the embargo will rea\main in forcde.	1591378	1471970221006	1471970221182	e	69
3158	33376	Diplomats are predicting that the embargo will remain in force.	diplomomats are predicting that the embargo will rea\main in forcde.	1591380	1471970222164	1471970222279	d	68
3158	33376	Diplomats are predicting that the embargo will remain in force.	diplomomats are predicting that the embargo will rea\main in forcde.	1591508	1471970222367	1471970222479	i	73
3158	33376	Diplomats are predicting that the embargo will remain in force.	diplomomats are predicting that the embargo will rea\main in forcde.	1591513	1471970223457	1471970223566	c	67
3158	33376	Diplomats are predicting that the embargo will remain in force.	diplomomats are predicting that the embargo will rea\main in forcde.	1591518	1471970224638	1471970224732	t	84
3158	33376	Diplomats are predicting that the embargo will remain in force.	diplomomats are predicting that the embargo will rea\main in forcde.	1591522	1471970224790	1471970224895	i	73
3158	33376	Diplomats are predicting that the embargo will remain in force.	diplomomats are predicting that the embargo will rea\main in forcde.	1591527	1471970225063	1471970225168	n	78
3158	33376	Diplomats are predicting that the embargo will remain in force.	diplomomats are predicting that the embargo will rea\main in forcde.	1591586	1471970225415	1471970225522	g	71
3158	33376	Diplomats are predicting that the embargo will remain in force.	diplomomats are predicting that the embargo will rea\main in forcde.	1591588	1471970225592	1471970225695	 	32
3158	33376	Diplomats are predicting that the embargo will remain in force.	diplomomats are predicting that the embargo will rea\main in forcde.	1591589	1471970226258	1471970226350	t	84
3158	33376	Diplomats are predicting that the embargo will remain in force.	diplomomats are predicting that the embargo will rea\main in forcde.	1591591	1471970226430	1471970226534	h	72
3158	33376	Diplomats are predicting that the embargo will remain in force.	diplomomats are predicting that the embargo will rea\main in forcde.	1591593	1471970226573	1471970226682	a	65
3158	33376	Diplomats are predicting that the embargo will remain in force.	diplomomats are predicting that the embargo will rea\main in forcde.	1591639	1471970226731	1471970226814	t	84
3158	33376	Diplomats are predicting that the embargo will remain in force.	diplomomats are predicting that the embargo will rea\main in forcde.	1591640	1471970227008	1471970227124	 	32
3158	33376	Diplomats are predicting that the embargo will remain in force.	diplomomats are predicting that the embargo will rea\main in forcde.	1591641	1471970227341	1471970227445	t	84
3158	33376	Diplomats are predicting that the embargo will remain in force.	diplomomats are predicting that the embargo will rea\main in forcde.	1591642	1471970227508	1471970227613	h	72
3158	33376	Diplomats are predicting that the embargo will remain in force.	diplomomats are predicting that the embargo will rea\main in forcde.	1591645	1471970227673	1471970227783	e	69
3158	33376	Diplomats are predicting that the embargo will remain in force.	diplomomats are predicting that the embargo will rea\main in forcde.	1591793	1471970227854	1471970227956	 	32
3158	33376	Diplomats are predicting that the embargo will remain in force.	diplomomats are predicting that the embargo will rea\main in forcde.	1591794	1471970228731	1471970228842	e	69
3158	33376	Diplomats are predicting that the embargo will remain in force.	diplomomats are predicting that the embargo will rea\main in forcde.	1591797	1471970228989	1471970229069	n	78
3158	33376	Diplomats are predicting that the embargo will remain in force.	diplomomats are predicting that the embargo will rea\main in forcde.	1591798	1471970229664	1471970229763	BKSP	8
3158	33376	Diplomats are predicting that the embargo will remain in force.	diplomomats are predicting that the embargo will rea\main in forcde.	1591800	1471970229923	1471970230056	m	77
3158	33376	Diplomats are predicting that the embargo will remain in force.	diplomomats are predicting that the embargo will rea\main in forcde.	1591802	1471970230984	1471970231093	b	66
3158	33376	Diplomats are predicting that the embargo will remain in force.	diplomomats are predicting that the embargo will rea\main in forcde.	1591875	1471970232024	1471970232145	a	65
3158	33376	Diplomats are predicting that the embargo will remain in force.	diplomomats are predicting that the embargo will rea\main in forcde.	1591880	1471970232227	1471970232331	r	82
3158	33376	Diplomats are predicting that the embargo will remain in force.	diplomomats are predicting that the embargo will rea\main in forcde.	1591887	1471970232657	1471970232785	g	71
3158	33376	Diplomats are predicting that the embargo will remain in force.	diplomomats are predicting that the embargo will rea\main in forcde.	1591893	1471970232842	1471970232940	o	79
3158	33376	Diplomats are predicting that the embargo will remain in force.	diplomomats are predicting that the embargo will rea\main in forcde.	1591900	1471970233093	1471970233204	 	32
3158	33376	Diplomats are predicting that the embargo will remain in force.	diplomomats are predicting that the embargo will rea\main in forcde.	1591932	1471970233764	1471970233875	w	87
3158	33376	Diplomats are predicting that the embargo will remain in force.	diplomomats are predicting that the embargo will rea\main in forcde.	1591935	1471970233955	1471970234049	i	73
3158	33376	Diplomats are predicting that the embargo will remain in force.	diplomomats are predicting that the embargo will rea\main in forcde.	1591943	1471970234154	1471970234246	l	76
3158	33376	Diplomats are predicting that the embargo will remain in force.	diplomomats are predicting that the embargo will rea\main in forcde.	1591952	1471970234293	1471970234379	l	76
3158	33376	Diplomats are predicting that the embargo will remain in force.	diplomomats are predicting that the embargo will rea\main in forcde.	1591959	1471970234521	1471970234625	 	32
3158	33376	Diplomats are predicting that the embargo will remain in force.	diplomomats are predicting that the embargo will rea\main in forcde.	1592045	1471970235236	1471970235358	r	82
3158	33376	Diplomats are predicting that the embargo will remain in force.	diplomomats are predicting that the embargo will rea\main in forcde.	1592047	1471970235425	1471970235544	e	69
3158	33376	Diplomats are predicting that the embargo will remain in force.	diplomomats are predicting that the embargo will rea\main in forcde.	1592048	1471970235678	1471970235868	a	65
3158	33376	Diplomats are predicting that the embargo will remain in force.	diplomomats are predicting that the embargo will rea\main in forcde.	1592050	1471970236613	1471970236696	\	220
3158	33376	Diplomats are predicting that the embargo will remain in force.	diplomomats are predicting that the embargo will rea\main in forcde.	1592053	1471970236887	1471970237009	m	77
3158	33376	Diplomats are predicting that the embargo will remain in force.	diplomomats are predicting that the embargo will rea\main in forcde.	1592170	1471970237572	1471970237733	a	65
3158	33376	Diplomats are predicting that the embargo will remain in force.	diplomomats are predicting that the embargo will rea\main in forcde.	1592175	1471970237917	1471970238024	i	73
3158	33376	Diplomats are predicting that the embargo will remain in force.	diplomomats are predicting that the embargo will rea\main in forcde.	1592180	1471970238147	1471970238246	n	78
3158	33376	Diplomats are predicting that the embargo will remain in force.	diplomomats are predicting that the embargo will rea\main in forcde.	1592186	1471970238617	1471970238740	 	32
3158	33376	Diplomats are predicting that the embargo will remain in force.	diplomomats are predicting that the embargo will rea\main in forcde.	1592191	1471970239403	1471970239493	i	73
3158	33376	Diplomats are predicting that the embargo will remain in force.	diplomomats are predicting that the embargo will rea\main in forcde.	1592289	1471970239608	1471970239700	n	78
3158	33376	Diplomats are predicting that the embargo will remain in force.	diplomomats are predicting that the embargo will rea\main in forcde.	1592291	1471970239789	1471970239899	 	32
3158	33376	Diplomats are predicting that the embargo will remain in force.	diplomomats are predicting that the embargo will rea\main in forcde.	1592293	1471970240209	1471970240339	f	70
3158	33376	Diplomats are predicting that the embargo will remain in force.	diplomomats are predicting that the embargo will rea\main in forcde.	1592295	1471970240357	1471970240467	o	79
3158	33376	Diplomats are predicting that the embargo will remain in force.	diplomomats are predicting that the embargo will rea\main in forcde.	1592298	1471970241737	1471970241835	r	82
3158	33376	Diplomats are predicting that the embargo will remain in force.	diplomomats are predicting that the embargo will rea\main in forcde.	1592341	1471970241926	1471970242072	c	67
3158	33376	Diplomats are predicting that the embargo will remain in force.	diplomomats are predicting that the embargo will rea\main in forcde.	1592345	1471970242229	1471970242323	e	68
3158	33376	Diplomats are predicting that the embargo will remain in force.	diplomomats are predicting that the embargo will rea\main in forcde.	1592349	1471970242778	1471970242904	.	190
3158	33406	Most contenders here use his Ford-Cosworth engines.	most contenders herr use his ford coswoth enfines	1592485	1471970245344	1471970245486	m	77
3158	33406	Most contenders here use his Ford-Cosworth engines.	most contenders herr use his ford coswoth enfines	1592487	1471970245517	1471970245627	o	79
3158	33406	Most contenders here use his Ford-Cosworth engines.	most contenders herr use his ford coswoth enfines	1592490	1471970245838	1471970245960	s	83
3158	33406	Most contenders here use his Ford-Cosworth engines.	most contenders herr use his ford coswoth enfines	1592492	1471970246017	1471970246122	t	84
3158	33406	Most contenders here use his Ford-Cosworth engines.	most contenders herr use his ford coswoth enfines	1592494	1471970246284	1471970246391	 	32
3158	33406	Most contenders here use his Ford-Cosworth engines.	most contenders herr use his ford coswoth enfines	1592603	1471970246986	1471970247106	c	67
3158	33406	Most contenders here use his Ford-Cosworth engines.	most contenders herr use his ford coswoth enfines	1592606	1471970247158	1471970247274	o	79
3158	33406	Most contenders here use his Ford-Cosworth engines.	most contenders herr use his ford coswoth enfines	1592609	1471970248295	1471970248417	n	78
3158	33406	Most contenders here use his Ford-Cosworth engines.	most contenders herr use his ford coswoth enfines	1592612	1471970249032	1471970249129	t	84
3158	33406	Most contenders here use his Ford-Cosworth engines.	most contenders herr use his ford coswoth enfines	1592616	1471970249252	1471970249364	e	69
3158	33406	Most contenders here use his Ford-Cosworth engines.	most contenders herr use his ford coswoth enfines	1592696	1471970249452	1471970249549	n	78
3158	33406	Most contenders here use his Ford-Cosworth engines.	most contenders herr use his ford coswoth enfines	1592700	1471970249696	1471970249846	d	68
3158	33406	Most contenders here use his Ford-Cosworth engines.	most contenders herr use his ford coswoth enfines	1592703	1471970251097	1471970251197	e	69
3158	33406	Most contenders here use his Ford-Cosworth engines.	most contenders herr use his ford coswoth enfines	1592707	1471970251266	1471970251376	r	82
3158	33406	Most contenders here use his Ford-Cosworth engines.	most contenders herr use his ford coswoth enfines	1592710	1471970251458	1471970251580	s	83
3158	33406	Most contenders here use his Ford-Cosworth engines.	most contenders herr use his ford coswoth enfines	1592754	1471970251639	1471970251743	 	32
3158	33406	Most contenders here use his Ford-Cosworth engines.	most contenders herr use his ford coswoth enfines	1592757	1471970252507	1471970252623	h	72
3158	33406	Most contenders here use his Ford-Cosworth engines.	most contenders herr use his ford coswoth enfines	1592759	1471970252686	1471970252809	e	69
3158	33406	Most contenders here use his Ford-Cosworth engines.	most contenders herr use his ford coswoth enfines	1592763	1471970252853	1471970252925	r	82
3158	33406	Most contenders here use his Ford-Cosworth engines.	most contenders herr use his ford coswoth enfines	1592768	1471970252968	1471970253042	r	82
3158	33406	Most contenders here use his Ford-Cosworth engines.	most contenders herr use his ford coswoth enfines	1592839	1471970253105	1471970253215	 	32
3158	33406	Most contenders here use his Ford-Cosworth engines.	most contenders herr use his ford coswoth enfines	1592845	1471970254667	1471970254792	u	85
3158	33406	Most contenders here use his Ford-Cosworth engines.	most contenders herr use his ford coswoth enfines	1592849	1471970254864	1471970254993	s	83
3158	33406	Most contenders here use his Ford-Cosworth engines.	most contenders herr use his ford coswoth enfines	1592852	1471970255127	1471970255229	e	69
3158	33406	Most contenders here use his Ford-Cosworth engines.	most contenders herr use his ford coswoth enfines	1592856	1471970255466	1471970255589	 	32
3158	33406	Most contenders here use his Ford-Cosworth engines.	most contenders herr use his ford coswoth enfines	1592909	1471970256224	1471970256311	h	72
3158	33406	Most contenders here use his Ford-Cosworth engines.	most contenders herr use his ford coswoth enfines	1592913	1471970256344	1471970256440	i	73
3158	33406	Most contenders here use his Ford-Cosworth engines.	most contenders herr use his ford coswoth enfines	1592916	1471970256576	1471970256711	s	83
3158	33406	Most contenders here use his Ford-Cosworth engines.	most contenders herr use his ford coswoth enfines	1592920	1471970256776	1471970256866	 	32
3158	33406	Most contenders here use his Ford-Cosworth engines.	most contenders herr use his ford coswoth enfines	1592923	1471970257730	1471970257858	f	70
3158	33406	Most contenders here use his Ford-Cosworth engines.	most contenders herr use his ford coswoth enfines	1592978	1471970257876	1471970257982	o	79
3158	33406	Most contenders here use his Ford-Cosworth engines.	most contenders herr use his ford coswoth enfines	1592980	1471970258166	1471970258275	r	82
3158	33406	Most contenders here use his Ford-Cosworth engines.	most contenders herr use his ford coswoth enfines	1592982	1471970258444	1471970258579	d	68
3158	33406	Most contenders here use his Ford-Cosworth engines.	most contenders herr use his ford coswoth enfines	1592986	1471970258628	1471970258733	 	32
3158	33406	Most contenders here use his Ford-Cosworth engines.	most contenders herr use his ford coswoth enfines	1592989	1471970259617	1471970259727	c	67
3158	33406	Most contenders here use his Ford-Cosworth engines.	most contenders herr use his ford coswoth enfines	1593105	1471970259984	1471970260100	o	79
3158	33406	Most contenders here use his Ford-Cosworth engines.	most contenders herr use his ford coswoth enfines	1593109	1471970260290	1471970260425	s	83
3158	33406	Most contenders here use his Ford-Cosworth engines.	most contenders herr use his ford coswoth enfines	1593111	1471970261358	1471970261482	w	87
3158	33406	Most contenders here use his Ford-Cosworth engines.	most contenders herr use his ford coswoth enfines	1593119	1471970261603	1471970261726	o	79
3158	33406	Most contenders here use his Ford-Cosworth engines.	most contenders herr use his ford coswoth enfines	1593122	1471970262768	1471970262890	t	84
3158	33406	Most contenders here use his Ford-Cosworth engines.	most contenders herr use his ford coswoth enfines	1593209	1471970262989	1471970263117	h	72
3158	33406	Most contenders here use his Ford-Cosworth engines.	most contenders herr use his ford coswoth enfines	1593210	1471970263336	1471970263460	 	32
3158	33406	Most contenders here use his Ford-Cosworth engines.	most contenders herr use his ford coswoth enfines	1593211	1471970264325	1471970264433	e	69
3158	33406	Most contenders here use his Ford-Cosworth engines.	most contenders herr use his ford coswoth enfines	1593212	1471970264548	1471970264652	n	78
3158	33406	Most contenders here use his Ford-Cosworth engines.	most contenders herr use his ford coswoth enfines	1593213	1471970265657	1471970265748	f	70
3158	33406	Most contenders here use his Ford-Cosworth engines.	most contenders herr use his ford coswoth enfines	1593301	1471970266433	1471970266532	i	73
3158	33406	Most contenders here use his Ford-Cosworth engines.	most contenders herr use his ford coswoth enfines	1593303	1471970266646	1471970266768	n	78
3158	33406	Most contenders here use his Ford-Cosworth engines.	most contenders herr use his ford coswoth enfines	1593306	1471970267673	1471970267776	e	69
3158	33406	Most contenders here use his Ford-Cosworth engines.	most contenders herr use his ford coswoth enfines	1593309	1471970267813	1471970267943	s	83
3158	33427	Some of us may have have acted as critics at one point or another.	some of us mayt have acted as crites at one point ot another.	1593392	1471970270505	1471970270643	s	83
3158	33427	Some of us may have have acted as critics at one point or another.	some of us mayt have acted as crites at one point ot another.	1593395	1471970270591	1471970270681	o	79
3158	33427	Some of us may have have acted as critics at one point or another.	some of us mayt have acted as crites at one point ot another.	1593399	1471970270792	1471970270878	m	77
3158	33427	Some of us may have have acted as critics at one point or another.	some of us mayt have acted as crites at one point ot another.	1593401	1471970270998	1471970271104	e	69
3158	33427	Some of us may have have acted as critics at one point or another.	some of us mayt have acted as crites at one point ot another.	1593404	1471970271128	1471970271227	 	32
3158	33427	Some of us may have have acted as critics at one point or another.	some of us mayt have acted as crites at one point ot another.	1593457	1471970271643	1471970271747	o	79
3158	33427	Some of us may have have acted as critics at one point or another.	some of us mayt have acted as crites at one point ot another.	1593459	1471970271765	1471970271896	f	70
3158	33427	Some of us may have have acted as critics at one point or another.	some of us mayt have acted as crites at one point ot another.	1593461	1471970271976	1471970272087	 	32
3158	33427	Some of us may have have acted as critics at one point or another.	some of us mayt have acted as crites at one point ot another.	1593463	1471970272716	1471970272826	u	85
3158	33427	Some of us may have have acted as critics at one point or another.	some of us mayt have acted as crites at one point ot another.	1593465	1471970272985	1471970273108	s	83
3158	33427	Some of us may have have acted as critics at one point or another.	some of us mayt have acted as crites at one point ot another.	1593500	1471970273147	1471970273261	 	32
3158	33427	Some of us may have have acted as critics at one point or another.	some of us mayt have acted as crites at one point ot another.	1593503	1471970273869	1471970273977	m	77
3158	33427	Some of us may have have acted as critics at one point or another.	some of us mayt have acted as crites at one point ot another.	1593506	1471970274008	1471970274151	a	65
3158	33427	Some of us may have have acted as critics at one point or another.	some of us mayt have acted as crites at one point ot another.	1593510	1471970274484	1471970274582	t	89
3158	33427	Some of us may have have acted as critics at one point or another.	some of us mayt have acted as crites at one point ot another.	1593559	1471970274670	1471970274811	 	32
3158	33427	Some of us may have have acted as critics at one point or another.	some of us mayt have acted as crites at one point ot another.	1593562	1471970275357	1471970275474	h	72
3158	33427	Some of us may have have acted as critics at one point or another.	some of us mayt have acted as crites at one point ot another.	1593565	1471970275522	1471970275668	a	65
3158	33427	Some of us may have have acted as critics at one point or another.	some of us mayt have acted as crites at one point ot another.	1593572	1471970275633	1471970275743	v	86
3158	33427	Some of us may have have acted as critics at one point or another.	some of us mayt have acted as crites at one point ot another.	1593576	1471970275841	1471970275969	e	69
3158	33427	Some of us may have have acted as critics at one point or another.	some of us mayt have acted as crites at one point ot another.	1593657	1471970276022	1471970276120	 	32
3158	33427	Some of us may have have acted as critics at one point or another.	some of us mayt have acted as crites at one point ot another.	1593660	1471970277303	1471970277436	a	65
3158	33427	Some of us may have have acted as critics at one point or another.	some of us mayt have acted as crites at one point ot another.	1593667	1471970277484	1471970277594	c	67
3158	33427	Some of us may have have acted as critics at one point or another.	some of us mayt have acted as crites at one point ot another.	1593671	1471970277983	1471970278098	t	84
3158	33427	Some of us may have have acted as critics at one point or another.	some of us mayt have acted as crites at one point ot another.	1593676	1471970278203	1471970278342	e	69
3158	33427	Some of us may have have acted as critics at one point or another.	some of us mayt have acted as crites at one point ot another.	1593723	1471970278393	1471970278506	d	68
3158	33427	Some of us may have have acted as critics at one point or another.	some of us mayt have acted as crites at one point ot another.	1593724	1471970278528	1471970278650	 	32
3158	33427	Some of us may have have acted as critics at one point or another.	some of us mayt have acted as crites at one point ot another.	1593725	1471970279083	1471970279188	a	65
3158	33427	Some of us may have have acted as critics at one point or another.	some of us mayt have acted as crites at one point ot another.	1593727	1471970279247	1471970279352	s	83
3158	33427	Some of us may have have acted as critics at one point or another.	some of us mayt have acted as crites at one point ot another.	1593729	1471970279364	1471970279473	 	32
3158	33427	Some of us may have have acted as critics at one point or another.	some of us mayt have acted as crites at one point ot another.	1593859	1471970280198	1471970280319	c	67
3158	33427	Some of us may have have acted as critics at one point or another.	some of us mayt have acted as crites at one point ot another.	1593862	1471970280524	1471970280644	r	82
3158	33427	Some of us may have have acted as critics at one point or another.	some of us mayt have acted as crites at one point ot another.	1593866	1471970281577	1471970281688	i	73
3158	33427	Some of us may have have acted as critics at one point or another.	some of us mayt have acted as crites at one point ot another.	1593871	1471970282083	1471970282207	t	84
3158	33427	Some of us may have have acted as critics at one point or another.	some of us mayt have acted as crites at one point ot another.	1593875	1471970283188	1471970283280	e	69
3158	33427	Some of us may have have acted as critics at one point or another.	some of us mayt have acted as crites at one point ot another.	1593931	1471970283393	1471970283503	s	83
3158	33427	Some of us may have have acted as critics at one point or another.	some of us mayt have acted as crites at one point ot another.	1593932	1471970283582	1471970283684	 	32
3158	33427	Some of us may have have acted as critics at one point or another.	some of us mayt have acted as crites at one point ot another.	1593933	1471970284055	1471970284185	a	65
3158	33427	Some of us may have have acted as critics at one point or another.	some of us mayt have acted as crites at one point ot another.	1593934	1471970284277	1471970284399	t	84
3158	33427	Some of us may have have acted as critics at one point or another.	some of us mayt have acted as crites at one point ot another.	1593935	1471970284573	1471970284694	 	32
3158	33427	Some of us may have have acted as critics at one point or another.	some of us mayt have acted as crites at one point ot another.	1593998	1471970285543	1471970285631	o	79
3158	33427	Some of us may have have acted as critics at one point or another.	some of us mayt have acted as crites at one point ot another.	1594001	1471970285744	1471970285860	n	78
3158	33427	Some of us may have have acted as critics at one point or another.	some of us mayt have acted as crites at one point ot another.	1594004	1471970286056	1471970286192	e	69
3158	33427	Some of us may have have acted as critics at one point or another.	some of us mayt have acted as crites at one point ot another.	1594006	1471970286235	1471970286357	 	32
3158	33427	Some of us may have have acted as critics at one point or another.	some of us mayt have acted as crites at one point ot another.	1594010	1471970286788	1471970286887	p	80
3158	33427	Some of us may have have acted as critics at one point or another.	some of us mayt have acted as crites at one point ot another.	1594065	1471970286980	1471970287079	o	79
3158	33427	Some of us may have have acted as critics at one point or another.	some of us mayt have acted as crites at one point ot another.	1594071	1471970287189	1471970287287	i	73
3158	33427	Some of us may have have acted as critics at one point or another.	some of us mayt have acted as crites at one point ot another.	1594077	1471970287514	1471970287642	n	78
3158	33427	Some of us may have have acted as critics at one point or another.	some of us mayt have acted as crites at one point ot another.	1594080	1471970287947	1471970288066	t	84
3158	33427	Some of us may have have acted as critics at one point or another.	some of us mayt have acted as crites at one point ot another.	1594084	1471970288093	1471970288202	 	32
3158	33427	Some of us may have have acted as critics at one point or another.	some of us mayt have acted as crites at one point ot another.	1594186	1471970289199	1471970289294	o	79
3158	33427	Some of us may have have acted as critics at one point or another.	some of us mayt have acted as crites at one point ot another.	1594191	1471970289461	1471970289595	t	84
3158	33427	Some of us may have have acted as critics at one point or another.	some of us mayt have acted as crites at one point ot another.	1594194	1471970289622	1471970289724	 	32
3158	33427	Some of us may have have acted as critics at one point or another.	some of us mayt have acted as crites at one point ot another.	1594196	1471970291013	1471970291142	a	65
3158	33427	Some of us may have have acted as critics at one point or another.	some of us mayt have acted as crites at one point ot another.	1594197	1471970291159	1471970291277	n	78
3158	33427	Some of us may have have acted as critics at one point or another.	some of us mayt have acted as crites at one point ot another.	1594231	1471970291567	1471970291683	o	79
3158	33427	Some of us may have have acted as critics at one point or another.	some of us mayt have acted as crites at one point ot another.	1594233	1471970291924	1471970292033	t	84
3158	33427	Some of us may have have acted as critics at one point or another.	some of us mayt have acted as crites at one point ot another.	1594234	1471970292099	1471970292216	h	72
3158	33427	Some of us may have have acted as critics at one point or another.	some of us mayt have acted as crites at one point ot another.	1594236	1471970292297	1471970292425	e	69
3158	33427	Some of us may have have acted as critics at one point or another.	some of us mayt have acted as crites at one point ot another.	1594238	1471970292495	1471970292577	r	82
3158	33427	Some of us may have have acted as critics at one point or another.	some of us mayt have acted as crites at one point ot another.	1594242	1471970292808	1471970292898	.	190
3158	33447	Have not added Westport on yet.	have not addes westport on yet.	1594345	1471970295328	1471970295436	h	72
3158	33447	Have not added Westport on yet.	have not addes westport on yet.	1594348	1471970295488	1471970295653	a	65
3158	33447	Have not added Westport on yet.	have not addes westport on yet.	1594352	1471970295633	1471970295739	v	86
3158	33447	Have not added Westport on yet.	have not addes westport on yet.	1594357	1471970295805	1471970295915	e	69
3158	33447	Have not added Westport on yet.	have not addes westport on yet.	1594364	1471970295968	1471970296084	 	32
3158	33447	Have not added Westport on yet.	have not addes westport on yet.	1594441	1471970296620	1471970296744	n	78
3158	33447	Have not added Westport on yet.	have not addes westport on yet.	1594447	1471970296835	1471970296964	o	79
3158	33447	Have not added Westport on yet.	have not addes westport on yet.	1594451	1471970297122	1471970297266	t	84
3158	33447	Have not added Westport on yet.	have not addes westport on yet.	1594457	1471970297300	1471970297423	 	32
3158	33447	Have not added Westport on yet.	have not addes westport on yet.	1594460	1471970297889	1471970298017	a	65
3158	33447	Have not added Westport on yet.	have not addes westport on yet.	1594486	1471970298138	1471970298254	d	68
3158	33447	Have not added Westport on yet.	have not addes westport on yet.	1594492	1471970298301	1471970298417	d	68
3158	33447	Have not added Westport on yet.	have not addes westport on yet.	1594501	1471970298495	1471970298600	e	69
3158	33447	Have not added Westport on yet.	have not addes westport on yet.	1594504	1471970298738	1471970298877	s	83
3158	33447	Have not added Westport on yet.	have not addes westport on yet.	1594509	1471970298954	1471970299064	 	32
3158	33447	Have not added Westport on yet.	have not addes westport on yet.	1594638	1471970300224	1471970300377	w	87
3158	33447	Have not added Westport on yet.	have not addes westport on yet.	1594641	1471970300431	1471970300498	e	69
3158	33447	Have not added Westport on yet.	have not addes westport on yet.	1594644	1471970300581	1471970300692	e	69
3158	33447	Have not added Westport on yet.	have not addes westport on yet.	1594647	1471970300745	1471970300874	s	83
3158	33447	Have not added Westport on yet.	have not addes westport on yet.	1594813	1471970301773	1471970301927	BKSP	8
3158	33447	Have not added Westport on yet.	have not addes westport on yet.	1594650	1471970301793	1471970301864	\	220
3158	33447	Have not added Westport on yet.	have not addes westport on yet.	1594815	1471970301933	1471970302041	BKSP	8
3158	33447	Have not added Westport on yet.	have not addes westport on yet.	1594817	1471970302106	1471970302192	BKSP	8
3158	33447	Have not added Westport on yet.	have not addes westport on yet.	1594818	1471970303188	1471970303295	s	83
3158	33447	Have not added Westport on yet.	have not addes westport on yet.	1594820	1471970304665	1471970304753	t	84
3158	33447	Have not added Westport on yet.	have not addes westport on yet.	1594824	1471970305134	1471970305238	p	80
3158	33447	Have not added Westport on yet.	have not addes westport on yet.	1594825	1471970305313	1471970305412	o	79
3158	33447	Have not added Westport on yet.	have not addes westport on yet.	1594827	1471970305628	1471970305734	r	82
3158	33447	Have not added Westport on yet.	have not addes westport on yet.	1594879	1471970305778	1471970305884	t	84
3158	33447	Have not added Westport on yet.	have not addes westport on yet.	1594882	1471970306083	1471970306198	 	32
3158	33447	Have not added Westport on yet.	have not addes westport on yet.	1594886	1471970306638	1471970306747	o	79
3158	33447	Have not added Westport on yet.	have not addes westport on yet.	1594889	1471970306858	1471970306961	n	78
3158	33447	Have not added Westport on yet.	have not addes westport on yet.	1594890	1471970307073	1471970307172	 	32
3158	33447	Have not added Westport on yet.	have not addes westport on yet.	1594955	1471970307453	1471970307573	y	89
3158	33447	Have not added Westport on yet.	have not addes westport on yet.	1594956	1471970307709	1471970307817	e	69
3158	33447	Have not added Westport on yet.	have not addes westport on yet.	1594957	1471970307849	1471970307949	t	84
3158	33447	Have not added Westport on yet.	have not addes westport on yet.	1594958	1471970308643	1471970308735	.	190
3158	33461	The ceremony was followed by the premiere of the opening film.	the ceremony was fllowed bt ther prmiere of the p flim	1595057	1471970311036	1471970311133	t	84
3158	33461	The ceremony was followed by the premiere of the opening film.	the ceremony was fllowed bt ther prmiere of the p flim	1595060	1471970311212	1471970311315	h	72
3158	33461	The ceremony was followed by the premiere of the opening film.	the ceremony was fllowed bt ther prmiere of the p flim	1595063	1471970311402	1471970311530	e	69
3158	33461	The ceremony was followed by the premiere of the opening film.	the ceremony was fllowed bt ther prmiere of the p flim	1595066	1471970311718	1471970311832	 	32
3158	33461	The ceremony was followed by the premiere of the opening film.	the ceremony was fllowed bt ther prmiere of the p flim	1595068	1471970312414	1471970312536	c	67
3158	33461	The ceremony was followed by the premiere of the opening film.	the ceremony was fllowed bt ther prmiere of the p flim	1595159	1471970312784	1471970312900	e	69
3158	33461	The ceremony was followed by the premiere of the opening film.	the ceremony was fllowed bt ther prmiere of the p flim	1595163	1471970313958	1471970314057	r	82
3158	33461	The ceremony was followed by the premiere of the opening film.	the ceremony was fllowed bt ther prmiere of the p flim	1595165	1471970314416	1471970314575	e	69
3158	33461	The ceremony was followed by the premiere of the opening film.	the ceremony was fllowed bt ther prmiere of the p flim	1595166	1471970315280	1471970315414	m	77
3158	33461	The ceremony was followed by the premiere of the opening film.	the ceremony was fllowed bt ther prmiere of the p flim	1595167	1471970315473	1471970315600	o	79
3158	33461	The ceremony was followed by the premiere of the opening film.	the ceremony was fllowed bt ther prmiere of the p flim	1595229	1471970315735	1471970315830	n	78
3158	33461	The ceremony was followed by the premiere of the opening film.	the ceremony was fllowed bt ther prmiere of the p flim	1595233	1471970316135	1471970316236	y	89
3158	33461	The ceremony was followed by the premiere of the opening film.	the ceremony was fllowed bt ther prmiere of the p flim	1595237	1471970316294	1471970316387	 	32
3158	33461	The ceremony was followed by the premiere of the opening film.	the ceremony was fllowed bt ther prmiere of the p flim	1595242	1471970316896	1471970317004	w	87
3158	33461	The ceremony was followed by the premiere of the opening film.	the ceremony was fllowed bt ther prmiere of the p flim	1595248	1471970317089	1471970317226	a	65
3158	33461	The ceremony was followed by the premiere of the opening film.	the ceremony was fllowed bt ther prmiere of the p flim	1595296	1471970317265	1471970317367	s	83
3158	33461	The ceremony was followed by the premiere of the opening film.	the ceremony was fllowed bt ther prmiere of the p flim	1595297	1471970317394	1471970317504	 	32
3158	33461	The ceremony was followed by the premiere of the opening film.	the ceremony was fllowed bt ther prmiere of the p flim	1595299	1471970318095	1471970318205	f	70
3158	33461	The ceremony was followed by the premiere of the opening film.	the ceremony was fllowed bt ther prmiere of the p flim	1595301	1471970318391	1471970318507	o	79
3158	33461	The ceremony was followed by the premiere of the opening film.	the ceremony was fllowed bt ther prmiere of the p flim	1595303	1471970318567	1471970318672	o	79
3158	33461	The ceremony was followed by the premiere of the opening film.	the ceremony was fllowed bt ther prmiere of the p flim	1595424	1471970318782	1471970318872	l	76
3158	33461	The ceremony was followed by the premiere of the opening film.	the ceremony was fllowed bt ther prmiere of the p flim	1595425	1471970320424	1471970320528	BKSP	8
3158	33461	The ceremony was followed by the premiere of the opening film.	the ceremony was fllowed bt ther prmiere of the p flim	1595426	1471970320589	1471970320697	BKSP	8
3158	33461	The ceremony was followed by the premiere of the opening film.	the ceremony was fllowed bt ther prmiere of the p flim	1595427	1471970320763	1471970320838	BKSP	8
3158	33461	The ceremony was followed by the premiere of the opening film.	the ceremony was fllowed bt ther prmiere of the p flim	1595428	1471970321490	1471970321592	l	76
3158	33461	The ceremony was followed by the premiere of the opening film.	the ceremony was fllowed bt ther prmiere of the p flim	1595429	1471970321656	1471970321757	l	76
3158	33461	The ceremony was followed by the premiere of the opening film.	the ceremony was fllowed bt ther prmiere of the p flim	1595430	1471970322775	1471970322869	o	79
3158	33461	The ceremony was followed by the premiere of the opening film.	the ceremony was fllowed bt ther prmiere of the p flim	1595431	1471970323104	1471970323217	w	87
3158	33461	The ceremony was followed by the premiere of the opening film.	the ceremony was fllowed bt ther prmiere of the p flim	1595503	1471970323278	1471970323376	e	69
3158	33461	The ceremony was followed by the premiere of the opening film.	the ceremony was fllowed bt ther prmiere of the p flim	1595505	1471970323455	1471970323560	d	68
3158	33461	The ceremony was followed by the premiere of the opening film.	the ceremony was fllowed bt ther prmiere of the p flim	1595507	1471970323659	1471970323768	 	32
3158	33461	The ceremony was followed by the premiere of the opening film.	the ceremony was fllowed bt ther prmiere of the p flim	1595509	1471970324332	1471970324429	b	66
3158	33461	The ceremony was followed by the premiere of the opening film.	the ceremony was fllowed bt ther prmiere of the p flim	1595511	1471970324582	1471970324680	t	84
3158	33461	The ceremony was followed by the premiere of the opening film.	the ceremony was fllowed bt ther prmiere of the p flim	1595549	1471970325195	1471970325301	 	32
3158	33461	The ceremony was followed by the premiere of the opening film.	the ceremony was fllowed bt ther prmiere of the p flim	1595551	1471970325668	1471970325785	t	84
3158	33461	The ceremony was followed by the premiere of the opening film.	the ceremony was fllowed bt ther prmiere of the p flim	1595553	1471970325822	1471970325919	h	72
3158	33461	The ceremony was followed by the premiere of the opening film.	the ceremony was fllowed bt ther prmiere of the p flim	1595733	1471970326034	1471970326159	e	69
3158	33461	The ceremony was followed by the premiere of the opening film.	the ceremony was fllowed bt ther prmiere of the p flim	1595554	1471970326052	1471970326107	r	82
3158	33461	The ceremony was followed by the premiere of the opening film.	the ceremony was fllowed bt ther prmiere of the p flim	1595735	1471970326212	1471970326310	 	32
3158	33461	The ceremony was followed by the premiere of the opening film.	the ceremony was fllowed bt ther prmiere of the p flim	1595739	1471970327797	1471970327908	p	80
3158	33461	The ceremony was followed by the premiere of the opening film.	the ceremony was fllowed bt ther prmiere of the p flim	1595744	1471970327992	1471970328107	r	82
3158	33461	The ceremony was followed by the premiere of the opening film.	the ceremony was fllowed bt ther prmiere of the p flim	1595747	1471970329344	1471970329474	m	77
3158	33461	The ceremony was followed by the premiere of the opening film.	the ceremony was fllowed bt ther prmiere of the p flim	1595749	1471970330593	1471970330705	i	73
3158	33461	The ceremony was followed by the premiere of the opening film.	the ceremony was fllowed bt ther prmiere of the p flim	1595782	1471970330926	1471970331055	e	69
3158	33461	The ceremony was followed by the premiere of the opening film.	the ceremony was fllowed bt ther prmiere of the p flim	1595784	1471970331148	1471970331223	r	82
3158	33461	The ceremony was followed by the premiere of the opening film.	the ceremony was fllowed bt ther prmiere of the p flim	1595786	1471970331286	1471970331389	e	69
3158	33461	The ceremony was followed by the premiere of the opening film.	the ceremony was fllowed bt ther prmiere of the p flim	1595792	1471970331416	1471970331538	 	32
3158	33461	The ceremony was followed by the premiere of the opening film.	the ceremony was fllowed bt ther prmiere of the p flim	1595795	1471970332015	1471970332137	o	79
3158	33461	The ceremony was followed by the premiere of the opening film.	the ceremony was fllowed bt ther prmiere of the p flim	1595856	1471970332326	1471970332448	f	70
3158	33461	The ceremony was followed by the premiere of the opening film.	the ceremony was fllowed bt ther prmiere of the p flim	1595858	1471970332517	1471970332628	 	32
3158	33461	The ceremony was followed by the premiere of the opening film.	the ceremony was fllowed bt ther prmiere of the p flim	1595860	1471970333136	1471970333246	t	84
3158	33461	The ceremony was followed by the premiere of the opening film.	the ceremony was fllowed bt ther prmiere of the p flim	1595862	1471970333322	1471970333425	h	72
3158	33461	The ceremony was followed by the premiere of the opening film.	the ceremony was fllowed bt ther prmiere of the p flim	1595864	1471970333502	1471970333632	e	69
3158	33461	The ceremony was followed by the premiere of the opening film.	the ceremony was fllowed bt ther prmiere of the p flim	1596011	1471970333688	1471970333780	 	32
3158	33461	The ceremony was followed by the premiere of the opening film.	the ceremony was fllowed bt ther prmiere of the p flim	1596015	1471970334358	1471970334476	p	80
3158	33461	The ceremony was followed by the premiere of the opening film.	the ceremony was fllowed bt ther prmiere of the p flim	1596021	1471970335419	1471970335552	 	32
3158	33461	The ceremony was followed by the premiere of the opening film.	the ceremony was fllowed bt ther prmiere of the p flim	1596024	1471970336707	1471970336874	f	70
3158	33461	The ceremony was followed by the premiere of the opening film.	the ceremony was fllowed bt ther prmiere of the p flim	1596129	1471970336863	1471970337001	l	76
3158	33461	The ceremony was followed by the premiere of the opening film.	the ceremony was fllowed bt ther prmiere of the p flim	1596131	1471970338264	1471970338342	i	73
3158	33461	The ceremony was followed by the premiere of the opening film.	the ceremony was fllowed bt ther prmiere of the p flim	1596133	1471970338547	1471970338634	m	77
3158	33489	I'll get busy now and hopefully email you later today.	ill get busy now and hopefully eamils you later today	1596335	1471970342416	1471970342506	i	73
3158	33489	I'll get busy now and hopefully email you later today.	ill get busy now and hopefully eamils you later today	1596342	1471970342615	1471970342702	l	76
3158	33489	I'll get busy now and hopefully email you later today.	ill get busy now and hopefully eamils you later today	1596349	1471970342778	1471970342859	l	76
3158	33489	I'll get busy now and hopefully email you later today.	ill get busy now and hopefully eamils you later today	1596353	1471970343023	1471970343114	 	32
3158	33489	I'll get busy now and hopefully email you later today.	ill get busy now and hopefully eamils you later today	1596356	1471970343492	1471970343605	g	71
3158	33489	I'll get busy now and hopefully email you later today.	ill get busy now and hopefully eamils you later today	1596478	1471970343653	1471970343788	e	69
3158	33489	I'll get busy now and hopefully email you later today.	ill get busy now and hopefully eamils you later today	1596481	1471970343800	1471970343907	t	84
3158	33489	I'll get busy now and hopefully email you later today.	ill get busy now and hopefully eamils you later today	1596485	1471970344110	1471970344226	 	32
3158	33489	I'll get busy now and hopefully email you later today.	ill get busy now and hopefully eamils you later today	1596489	1471970346184	1471970346206	b	66
3158	33489	I'll get busy now and hopefully email you later today.	ill get busy now and hopefully eamils you later today	1596493	1471970346443	1471970346544	u	85
3158	33489	I'll get busy now and hopefully email you later today.	ill get busy now and hopefully eamils you later today	1596581	1471970346750	1471970346866	s	83
3158	33489	I'll get busy now and hopefully email you later today.	ill get busy now and hopefully eamils you later today	1596585	1471970346933	1471970347061	y	89
3158	33489	I'll get busy now and hopefully email you later today.	ill get busy now and hopefully eamils you later today	1596588	1471970347253	1471970347370	 	32
3158	33489	I'll get busy now and hopefully email you later today.	ill get busy now and hopefully eamils you later today	1596590	1471970347926	1471970348048	n	78
3158	33489	I'll get busy now and hopefully email you later today.	ill get busy now and hopefully eamils you later today	1596592	1471970348137	1471970348255	o	79
3158	33489	I'll get busy now and hopefully email you later today.	ill get busy now and hopefully eamils you later today	1596693	1471970348378	1471970348495	w	87
3158	33489	I'll get busy now and hopefully email you later today.	ill get busy now and hopefully eamils you later today	1596697	1471970348536	1471970348640	 	32
3158	33489	I'll get busy now and hopefully email you later today.	ill get busy now and hopefully eamils you later today	1596704	1471970349473	1471970349655	a	65
3158	33489	I'll get busy now and hopefully email you later today.	ill get busy now and hopefully eamils you later today	1596709	1471970349662	1471970349784	n	78
3158	33489	I'll get busy now and hopefully email you later today.	ill get busy now and hopefully eamils you later today	1596713	1471970349877	1471970350001	d	68
3158	33489	I'll get busy now and hopefully email you later today.	ill get busy now and hopefully eamils you later today	1596785	1471970350071	1471970350189	 	32
3158	33489	I'll get busy now and hopefully email you later today.	ill get busy now and hopefully eamils you later today	1596787	1471970351113	1471970351232	h	72
3158	33489	I'll get busy now and hopefully email you later today.	ill get busy now and hopefully eamils you later today	1596789	1471970351276	1471970351383	o	79
3158	33489	I'll get busy now and hopefully email you later today.	ill get busy now and hopefully eamils you later today	1596791	1471970351453	1471970351564	p	80
3158	33489	I'll get busy now and hopefully email you later today.	ill get busy now and hopefully eamils you later today	1596793	1471970351888	1471970352005	e	69
3158	33489	I'll get busy now and hopefully email you later today.	ill get busy now and hopefully eamils you later today	1596867	1471970353149	1471970353257	f	70
3158	33489	I'll get busy now and hopefully email you later today.	ill get busy now and hopefully eamils you later today	1596869	1471970353445	1471970353543	u	85
3158	33489	I'll get busy now and hopefully email you later today.	ill get busy now and hopefully eamils you later today	1596871	1471970353719	1471970353805	l	76
3158	33489	I'll get busy now and hopefully email you later today.	ill get busy now and hopefully eamils you later today	1596872	1471970353865	1471970353969	l	76
3158	33489	I'll get busy now and hopefully email you later today.	ill get busy now and hopefully eamils you later today	1596873	1471970354156	1471970354243	y	89
3158	33489	I'll get busy now and hopefully email you later today.	ill get busy now and hopefully eamils you later today	1596964	1471970354614	1471970354729	 	32
3158	33489	I'll get busy now and hopefully email you later today.	ill get busy now and hopefully eamils you later today	1596969	1471970355459	1471970355575	e	69
3158	33489	I'll get busy now and hopefully email you later today.	ill get busy now and hopefully eamils you later today	1596971	1471970355806	1471970355948	a	65
3158	33489	I'll get busy now and hopefully email you later today.	ill get busy now and hopefully eamils you later today	1596974	1471970355973	1471970356089	m	77
3158	33489	I'll get busy now and hopefully email you later today.	ill get busy now and hopefully eamils you later today	1596977	1471970356260	1471970356351	i	73
3158	33489	I'll get busy now and hopefully email you later today.	ill get busy now and hopefully eamils you later today	1597050	1471970356433	1471970356543	l	76
3158	33489	I'll get busy now and hopefully email you later today.	ill get busy now and hopefully eamils you later today	1597053	1471970356696	1471970356818	s	83
3158	33489	I'll get busy now and hopefully email you later today.	ill get busy now and hopefully eamils you later today	1597059	1471970357114	1471970357226	 	32
3158	33489	I'll get busy now and hopefully email you later today.	ill get busy now and hopefully eamils you later today	1597063	1471970358064	1471970358217	y	89
3158	33489	I'll get busy now and hopefully email you later today.	ill get busy now and hopefully eamils you later today	1597140	1471970358199	1471970358324	o	79
3158	33489	I'll get busy now and hopefully email you later today.	ill get busy now and hopefully eamils you later today	1597143	1471970358348	1471970358453	u	85
3158	33489	I'll get busy now and hopefully email you later today.	ill get busy now and hopefully eamils you later today	1597146	1471970358563	1471970358673	 	32
3158	33489	I'll get busy now and hopefully email you later today.	ill get busy now and hopefully eamils you later today	1597149	1471970359280	1471970359382	l	76
3158	33489	I'll get busy now and hopefully email you later today.	ill get busy now and hopefully eamils you later today	1597153	1471970359524	1471970359662	a	65
3158	33489	I'll get busy now and hopefully email you later today.	ill get busy now and hopefully eamils you later today	1597159	1471970359742	1471970359852	t	84
3158	33489	I'll get busy now and hopefully email you later today.	ill get busy now and hopefully eamils you later today	1597257	1471970359973	1471970360082	e	69
3158	33489	I'll get busy now and hopefully email you later today.	ill get busy now and hopefully eamils you later today	1597261	1471970360181	1471970360273	r	82
3158	33489	I'll get busy now and hopefully email you later today.	ill get busy now and hopefully eamils you later today	1597267	1471970360752	1471970360868	 	32
3158	33489	I'll get busy now and hopefully email you later today.	ill get busy now and hopefully eamils you later today	1597270	1471970362195	1471970362295	t	84
3158	33489	I'll get busy now and hopefully email you later today.	ill get busy now and hopefully eamils you later today	1597277	1471970362472	1471970362540	o	79
3158	33489	I'll get busy now and hopefully email you later today.	ill get busy now and hopefully eamils you later today	1597332	1471970363007	1471970363117	d	68
3158	33489	I'll get busy now and hopefully email you later today.	ill get busy now and hopefully eamils you later today	1597340	1471970363148	1471970363270	a	65
3158	33489	I'll get busy now and hopefully email you later today.	ill get busy now and hopefully eamils you later today	1597348	1471970363325	1471970363409	y	89
3158	33520	Mike got himself a bamboo needle.	mike got him\self a bamboo needle 	1597632	1471970367153	1471970367269	m	77
3158	33520	Mike got himself a bamboo needle.	mike got him\self a bamboo needle 	1597634	1471970367368	1471970367471	i	73
3158	33520	Mike got himself a bamboo needle.	mike got him\self a bamboo needle 	1597636	1471970367616	1471970367733	k	75
3158	33520	Mike got himself a bamboo needle.	mike got him\self a bamboo needle 	1597639	1471970367942	1471970368056	e	69
3158	33520	Mike got himself a bamboo needle.	mike got him\self a bamboo needle 	1597641	1471970368760	1471970368888	 	32
3158	33520	Mike got himself a bamboo needle.	mike got him\self a bamboo needle 	1597749	1471970369398	1471970369503	g	71
3158	33520	Mike got himself a bamboo needle.	mike got him\self a bamboo needle 	1597752	1471970369520	1471970369622	o	79
3158	33520	Mike got himself a bamboo needle.	mike got him\self a bamboo needle 	1597756	1471970369864	1471970369975	t	84
3158	33520	Mike got himself a bamboo needle.	mike got him\self a bamboo needle 	1597764	1471970370057	1471970370163	 	32
3158	33520	Mike got himself a bamboo needle.	mike got him\self a bamboo needle 	1597767	1471970371124	1471970371236	h	72
3158	33520	Mike got himself a bamboo needle.	mike got him\self a bamboo needle 	1597943	1471970371301	1471970371399	i	73
3158	33520	Mike got himself a bamboo needle.	mike got him\self a bamboo needle 	1597946	1471970371537	1471970371645	m	77
3158	33520	Mike got himself a bamboo needle.	mike got him\self a bamboo needle 	1597950	1471970372744	1471970372896	e	69
3158	33520	Mike got himself a bamboo needle.	mike got him\self a bamboo needle 	1597954	1471970373837	1471970373920	\	8
3158	33520	Mike got himself a bamboo needle.	mike got him\self a bamboo needle 	1597960	1471970374549	1471970374672	s	83
3158	33520	Mike got himself a bamboo needle.	mike got him\self a bamboo needle 	1598108	1471970375233	1471970375349	e	69
3158	33520	Mike got himself a bamboo needle.	mike got him\self a bamboo needle 	1598111	1471970375397	1471970375501	l	76
3158	33520	Mike got himself a bamboo needle.	mike got him\self a bamboo needle 	1598117	1471970375543	1471970375660	f	70
3158	33520	Mike got himself a bamboo needle.	mike got him\self a bamboo needle 	1598122	1471970375780	1471970375885	 	32
3158	33520	Mike got himself a bamboo needle.	mike got him\self a bamboo needle 	1598123	1471970377143	1471970377277	a	65
3158	33520	Mike got himself a bamboo needle.	mike got him\self a bamboo needle 	1598271	1471970377316	1471970377426	 	32
3158	33520	Mike got himself a bamboo needle.	mike got him\self a bamboo needle 	1598273	1471970377578	1471970377683	b	66
3158	33520	Mike got himself a bamboo needle.	mike got him\self a bamboo needle 	1598276	1471970378423	1471970378550	a	65
3158	33520	Mike got himself a bamboo needle.	mike got him\self a bamboo needle 	1598279	1471970378973	1471970379078	m	77
3158	33520	Mike got himself a bamboo needle.	mike got him\self a bamboo needle 	1598283	1471970379528	1471970379626	b	66
3158	33520	Mike got himself a bamboo needle.	mike got him\self a bamboo needle 	1598347	1471970379912	1471970379998	o	79
3158	33520	Mike got himself a bamboo needle.	mike got him\self a bamboo needle 	1598349	1471970380053	1471970380130	o	79
3158	33520	Mike got himself a bamboo needle.	mike got him\self a bamboo needle 	1598355	1471970380314	1471970380425	 	32
3158	33520	Mike got himself a bamboo needle.	mike got him\self a bamboo needle 	1598358	1471970380940	1471970381044	n	78
3158	33520	Mike got himself a bamboo needle.	mike got him\self a bamboo needle 	1598363	1471970381223	1471970381346	e	69
3158	33520	Mike got himself a bamboo needle.	mike got him\self a bamboo needle 	1598450	1471970381410	1471970381508	e	69
3158	33520	Mike got himself a bamboo needle.	mike got him\self a bamboo needle 	1598454	1471970382283	1471970382427	d	68
3158	33520	Mike got himself a bamboo needle.	mike got him\self a bamboo needle 	1598458	1471970382478	1471970382574	l	76
3158	33520	Mike got himself a bamboo needle.	mike got him\self a bamboo needle 	1598462	1471970382634	1471970382750	e	69
3158	33520	Mike got himself a bamboo needle.	mike got him\self a bamboo needle 	1598466	1471970382834	1471970382923	 	32
3158	33545	Nothing but good news everyday.	nothing but good news everyday	1598699	1471970385385	1471970385489	n	78
3158	33545	Nothing but good news everyday.	nothing but good news everyday	1598703	1471970385637	1471970385741	o	79
3158	33545	Nothing but good news everyday.	nothing but good news everyday	1598707	1471970386053	1471970386150	t	84
3158	33545	Nothing but good news everyday.	nothing but good news everyday	1598712	1471970386244	1471970386339	h	72
3158	33545	Nothing but good news everyday.	nothing but good news everyday	1598716	1471970386513	1471970386610	i	73
3158	33545	Nothing but good news everyday.	nothing but good news everyday	1598822	1471970386763	1471970386861	n	78
3158	33545	Nothing but good news everyday.	nothing but good news everyday	1598828	1471970387014	1471970387114	g	71
3158	33545	Nothing but good news everyday.	nothing but good news everyday	1598837	1471970387262	1471970387354	 	32
3158	33545	Nothing but good news everyday.	nothing but good news everyday	1598844	1471970387965	1471970388075	b	66
3158	33545	Nothing but good news everyday.	nothing but good news everyday	1598850	1471970388226	1471970388324	u	85
3158	33545	Nothing but good news everyday.	nothing but good news everyday	1598941	1471970388483	1471970388569	t	84
3158	33545	Nothing but good news everyday.	nothing but good news everyday	1598947	1471970388676	1471970388763	 	32
3158	33545	Nothing but good news everyday.	nothing but good news everyday	1598954	1471970389564	1471970389662	g	71
3158	33545	Nothing but good news everyday.	nothing but good news everyday	1598959	1471970389744	1471970389843	o	79
3158	33545	Nothing but good news everyday.	nothing but good news everyday	1598967	1471970389900	1471970389993	o	79
3158	33545	Nothing but good news everyday.	nothing but good news everyday	1599066	1471970390050	1471970390167	d	68
3158	33545	Nothing but good news everyday.	nothing but good news everyday	1599073	1471970390272	1471970390369	 	32
3158	33545	Nothing but good news everyday.	nothing but good news everyday	1599079	1471970390847	1471970390952	n	78
3158	33545	Nothing but good news everyday.	nothing but good news everyday	1599087	1471970391106	1471970391209	e	69
3158	33545	Nothing but good news everyday.	nothing but good news everyday	1599093	1471970391482	1471970391573	w	87
3158	33545	Nothing but good news everyday.	nothing but good news everyday	1599188	1471970391675	1471970391775	s	83
3158	33545	Nothing but good news everyday.	nothing but good news everyday	1599190	1471970391836	1471970391932	 	32
3158	33545	Nothing but good news everyday.	nothing but good news everyday	1599195	1471970392856	1471970392971	e	69
3158	33545	Nothing but good news everyday.	nothing but good news everyday	1599201	1471970393096	1471970393202	v	86
3158	33545	Nothing but good news everyday.	nothing but good news everyday	1599206	1471970393326	1471970393443	e	69
3158	33545	Nothing but good news everyday.	nothing but good news everyday	1599274	1471970393639	1471970393720	r	82
3158	33545	Nothing but good news everyday.	nothing but good news everyday	1599275	1471970394009	1471970394099	y	89
3158	33545	Nothing but good news everyday.	nothing but good news everyday	1599276	1471970394644	1471970394737	d	68
3158	33545	Nothing but good news everyday.	nothing but good news everyday	1599278	1471970394773	1471970394902	a	65
3158	33545	Nothing but good news everyday.	nothing but good news everyday	1599281	1471970394953	1471970395047	y	89
3158	33565	Do we have anyone in Portland?	do we have abyone in portland	1599479	1471970397574	1471970397676	d	68
3158	33565	Do we have anyone in Portland?	do we have abyone in portland	1599481	1471970397734	1471970397826	o	79
3158	33565	Do we have anyone in Portland?	do we have abyone in portland	1599485	1471970397974	1471970398074	 	32
3158	33565	Do we have anyone in Portland?	do we have abyone in portland	1599488	1471970398175	1471970398291	w	87
3158	33565	Do we have anyone in Portland?	do we have abyone in portland	1599492	1471970398406	1471970398511	e	69
3158	33565	Do we have anyone in Portland?	do we have abyone in portland	1599570	1471970398705	1471970398801	 	32
3158	33565	Do we have anyone in Portland?	do we have abyone in portland	1599572	1471970399123	1471970399227	h	72
3158	33565	Do we have anyone in Portland?	do we have abyone in portland	1599574	1471970399287	1471970399440	a	65
3158	33565	Do we have anyone in Portland?	do we have abyone in portland	1599578	1471970399452	1471970399550	v	86
3158	33565	Do we have anyone in Portland?	do we have abyone in portland	1599584	1471970399641	1471970399757	e	69
3158	33565	Do we have anyone in Portland?	do we have abyone in portland	1599778	1471970399865	1471970399967	 	32
3158	33565	Do we have anyone in Portland?	do we have abyone in portland	1599782	1471970400346	1471970400512	a	65
3158	33565	Do we have anyone in Portland?	do we have abyone in portland	1599786	1471970400574	1471970400648	b	66
3158	33565	Do we have anyone in Portland?	do we have abyone in portland	1599792	1471970401764	1471970401856	y	89
3158	33565	Do we have anyone in Portland?	do we have abyone in portland	1599798	1471970402897	1471970402996	o	79
3158	33565	Do we have anyone in Portland?	do we have abyone in portland	1599885	1471970403145	1471970403238	n	78
3158	33565	Do we have anyone in Portland?	do we have abyone in portland	1599887	1471970403325	1471970403421	e	69
3158	33565	Do we have anyone in Portland?	do we have abyone in portland	1599890	1471970403537	1471970403629	 	32
3158	33565	Do we have anyone in Portland?	do we have abyone in portland	1599893	1471970404195	1471970404281	i	73
3158	33565	Do we have anyone in Portland?	do we have abyone in portland	1599899	1471970404419	1471970404506	n	78
3158	33565	Do we have anyone in Portland?	do we have abyone in portland	1600023	1471970404637	1471970404724	 	32
3158	33565	Do we have anyone in Portland?	do we have abyone in portland	1600026	1471970405569	1471970405685	p	80
3158	33565	Do we have anyone in Portland?	do we have abyone in portland	1600032	1471970405827	1471970405919	o	79
3158	33565	Do we have anyone in Portland?	do we have abyone in portland	1600037	1471970406113	1471970406217	r	82
3158	33565	Do we have anyone in Portland?	do we have abyone in portland	1600039	1471970406403	1471970406490	t	84
3158	33565	Do we have anyone in Portland?	do we have abyone in portland	1600122	1471970406885	1471970406987	l	76
3158	33565	Do we have anyone in Portland?	do we have abyone in portland	1600127	1471970407091	1471970407213	a	65
3158	33565	Do we have anyone in Portland?	do we have abyone in portland	1600137	1471970407263	1471970407361	n	78
3158	33565	Do we have anyone in Portland?	do we have abyone in portland	1600144	1471970407699	1471970407813	d	68
