PARTICIPANT_ID	TEST_SECTION_ID	SENTENCE	USER_INPUT	KEYSTROKE_ID	PRESS_TIME	RELEASE_TIME	LETTER	KEYCODE
3164	33295	Time trials for the May 29 race continue the next two weekends.	Time trials for the May 29 race continue the next two weekends.	1587196	1471970126242	1471970126367	SHIFT	16
3164	33295	Time trials for the May 29 race continue the next two weekends.	Time trials for the May 29 race continue the next two weekends.	1587200	1471970126319	1471970126383	T	84
3164	33295	Time trials for the May 29 race continue the next two weekends.	Time trials for the May 29 race continue the next two weekends.	1587204	1471970126455	1471970126591	i	73
3164	33295	Time trials for the May 29 race continue the next two weekends.	Time trials for the May 29 race continue the next two weekends.	1587206	1471970126567	1471970126687	m	77
3164	33295	Time trials for the May 29 race continue the next two weekends.	Time trials for the May 29 race continue the next two weekends.	1587208	1471970126655	1471970126743	e	69
3164	33295	Time trials for the May 29 race continue the next two weekends.	Time trials for the May 29 race continue the next two weekends.	1587210	1471970126839	1471970126927	 	32
3164	33295	Time trials for the May 29 race continue the next two weekends.	Time trials for the May 29 race continue the next two weekends.	1587263	1471970127063	1471970127143	t	84
3164	33295	Time trials for the May 29 race continue the next two weekends.	Time trials for the May 29 race continue the next two weekends.	1587265	1471970127239	1471970127359	r	82
3164	33295	Time trials for the May 29 race continue the next two weekends.	Time trials for the May 29 race continue the next two weekends.	1587271	1471970127343	1471970127479	e	69
3164	33295	Time trials for the May 29 race continue the next two weekends.	Time trials for the May 29 race continue the next two weekends.	1587276	1471970127799	1471970127903	i	73
3164	33295	Time trials for the May 29 race continue the next two weekends.	Time trials for the May 29 race continue the next two weekends.	1587279	1471970127943	1471970128023	a	65
3164	33295	Time trials for the May 29 race continue the next two weekends.	Time trials for the May 29 race continue the next two weekends.	1587364	1471970128071	1471970128175	l	76
3164	33295	Time trials for the May 29 race continue the next two weekends.	Time trials for the May 29 race continue the next two weekends.	1587366	1471970128271	1471970128351	s	83
3164	33295	Time trials for the May 29 race continue the next two weekends.	Time trials for the May 29 race continue the next two weekends.	1587370	1471970128695	1471970128767	BKSP	8
3164	33295	Time trials for the May 29 race continue the next two weekends.	Time trials for the May 29 race continue the next two weekends.	1587374	1471970128862	1471970128934	BKSP	8
3164	33295	Time trials for the May 29 race continue the next two weekends.	Time trials for the May 29 race continue the next two weekends.	1587380	1471970129022	1471970129078	BKSP	8
3164	33295	Time trials for the May 29 race continue the next two weekends.	Time trials for the May 29 race continue the next two weekends.	1587385	1471970129182	1471970129246	BKSP	8
3164	33295	Time trials for the May 29 race continue the next two weekends.	Time trials for the May 29 race continue the next two weekends.	1587390	1471970129342	1471970129422	BKSP	8
3164	33295	Time trials for the May 29 race continue the next two weekends.	Time trials for the May 29 race continue the next two weekends.	1587395	1471970129567	1471970129631	i	73
3164	33295	Time trials for the May 29 race continue the next two weekends.	Time trials for the May 29 race continue the next two weekends.	1587400	1471970129655	1471970129719	a	65
3164	33295	Time trials for the May 29 race continue the next two weekends.	Time trials for the May 29 race continue the next two weekends.	1587404	1471970130255	1471970130351	l	76
3164	33295	Time trials for the May 29 race continue the next two weekends.	Time trials for the May 29 race continue the next two weekends.	1587411	1471970130375	1471970130519	s	83
3164	33295	Time trials for the May 29 race continue the next two weekends.	Time trials for the May 29 race continue the next two weekends.	1587412	1471970130591	1471970130655	 	32
3164	33295	Time trials for the May 29 race continue the next two weekends.	Time trials for the May 29 race continue the next two weekends.	1587414	1471970130815	1471970130895	f	70
3164	33295	Time trials for the May 29 race continue the next two weekends.	Time trials for the May 29 race continue the next two weekends.	1587417	1471970130919	1471970131031	o	79
3164	33295	Time trials for the May 29 race continue the next two weekends.	Time trials for the May 29 race continue the next two weekends.	1587431	1471970130999	1471970131079	r	82
3164	33295	Time trials for the May 29 race continue the next two weekends.	Time trials for the May 29 race continue the next two weekends.	1587433	1471970131135	1471970131191	 	32
3164	33295	Time trials for the May 29 race continue the next two weekends.	Time trials for the May 29 race continue the next two weekends.	1587435	1471970131216	1471970131287	t	84
3164	33295	Time trials for the May 29 race continue the next two weekends.	Time trials for the May 29 race continue the next two weekends.	1587439	1471970131255	1471970131375	h	72
3164	33295	Time trials for the May 29 race continue the next two weekends.	Time trials for the May 29 race continue the next two weekends.	1587442	1471970131351	1471970131455	e	69
3164	33295	Time trials for the May 29 race continue the next two weekends.	Time trials for the May 29 race continue the next two weekends.	1587494	1471970131431	1471970131519	 	32
3164	33295	Time trials for the May 29 race continue the next two weekends.	Time trials for the May 29 race continue the next two weekends.	1587497	1471970131575	1471970131695	SHIFT	16
3164	33295	Time trials for the May 29 race continue the next two weekends.	Time trials for the May 29 race continue the next two weekends.	1587500	1471970131647	1471970131735	M	77
3164	33295	Time trials for the May 29 race continue the next two weekends.	Time trials for the May 29 race continue the next two weekends.	1587504	1471970131815	1471970131919	a	65
3164	33295	Time trials for the May 29 race continue the next two weekends.	Time trials for the May 29 race continue the next two weekends.	1587507	1471970132063	1471970132167	y	89
3164	33295	Time trials for the May 29 race continue the next two weekends.	Time trials for the May 29 race continue the next two weekends.	1587510	1471970132231	1471970132311	 	32
3164	33295	Time trials for the May 29 race continue the next two weekends.	Time trials for the May 29 race continue the next two weekends.	1587513	1471970132623	1471970132711	2	50
3164	33295	Time trials for the May 29 race continue the next two weekends.	Time trials for the May 29 race continue the next two weekends.	1587556	1471970132750	1471970132871	9	57
3164	33295	Time trials for the May 29 race continue the next two weekends.	Time trials for the May 29 race continue the next two weekends.	1587557	1471970133199	1471970133271	 	32
3164	33295	Time trials for the May 29 race continue the next two weekends.	Time trials for the May 29 race continue the next two weekends.	1587558	1471970133479	1471970133591	r	82
3164	33295	Time trials for the May 29 race continue the next two weekends.	Time trials for the May 29 race continue the next two weekends.	1587559	1471970133631	1471970133711	a	65
3164	33295	Time trials for the May 29 race continue the next two weekends.	Time trials for the May 29 race continue the next two weekends.	1587561	1471970133799	1471970133895	c	67
3164	33295	Time trials for the May 29 race continue the next two weekends.	Time trials for the May 29 race continue the next two weekends.	1587577	1471970133991	1471970134063	e	69
3164	33295	Time trials for the May 29 race continue the next two weekends.	Time trials for the May 29 race continue the next two weekends.	1587580	1471970134087	1471970134159	 	32
3164	33295	Time trials for the May 29 race continue the next two weekends.	Time trials for the May 29 race continue the next two weekends.	1587583	1471970134279	1471970134375	c	67
3164	33295	Time trials for the May 29 race continue the next two weekends.	Time trials for the May 29 race continue the next two weekends.	1587585	1471970134335	1471970134455	o	79
3164	33295	Time trials for the May 29 race continue the next two weekends.	Time trials for the May 29 race continue the next two weekends.	1587602	1471970134431	1471970134535	n	78
3164	33295	Time trials for the May 29 race continue the next two weekends.	Time trials for the May 29 race continue the next two weekends.	1587607	1471970134503	1471970134575	t	84
3164	33295	Time trials for the May 29 race continue the next two weekends.	Time trials for the May 29 race continue the next two weekends.	1587613	1471970134623	1471970134759	i	73
3164	33295	Time trials for the May 29 race continue the next two weekends.	Time trials for the May 29 race continue the next two weekends.	1587619	1471970134711	1471970134799	n	78
3164	33295	Time trials for the May 29 race continue the next two weekends.	Time trials for the May 29 race continue the next two weekends.	1587622	1471970134919	1471970134999	u	85
3164	33295	Time trials for the May 29 race continue the next two weekends.	Time trials for the May 29 race continue the next two weekends.	1587625	1471970135023	1471970135087	e	69
3164	33295	Time trials for the May 29 race continue the next two weekends.	Time trials for the May 29 race continue the next two weekends.	1587638	1471970135159	1471970135223	 	32
3164	33295	Time trials for the May 29 race continue the next two weekends.	Time trials for the May 29 race continue the next two weekends.	1587640	1471970135295	1471970135375	t	84
3164	33295	Time trials for the May 29 race continue the next two weekends.	Time trials for the May 29 race continue the next two weekends.	1587641	1471970135391	1471970135487	h	72
3164	33295	Time trials for the May 29 race continue the next two weekends.	Time trials for the May 29 race continue the next two weekends.	1587643	1471970135471	1471970135551	e	69
3164	33295	Time trials for the May 29 race continue the next two weekends.	Time trials for the May 29 race continue the next two weekends.	1587645	1471970135575	1471970135656	 	32
3164	33295	Time trials for the May 29 race continue the next two weekends.	Time trials for the May 29 race continue the next two weekends.	1587713	1471970135735	1471970135820	n	78
3164	33295	Time trials for the May 29 race continue the next two weekends.	Time trials for the May 29 race continue the next two weekends.	1587715	1471970135791	1471970135871	e	69
3164	33295	Time trials for the May 29 race continue the next two weekends.	Time trials for the May 29 race continue the next two weekends.	1587719	1471970136567	1471970136647	x	88
3164	33295	Time trials for the May 29 race continue the next two weekends.	Time trials for the May 29 race continue the next two weekends.	1587722	1471970136839	1471970136919	t	84
3164	33295	Time trials for the May 29 race continue the next two weekends.	Time trials for the May 29 race continue the next two weekends.	1587725	1471970136965	1471970137031	 	32
3164	33295	Time trials for the May 29 race continue the next two weekends.	Time trials for the May 29 race continue the next two weekends.	1587762	1471970137247	1471970137335	t	84
3164	33295	Time trials for the May 29 race continue the next two weekends.	Time trials for the May 29 race continue the next two weekends.	1587763	1471970137423	1471970137571	w	87
3164	33295	Time trials for the May 29 race continue the next two weekends.	Time trials for the May 29 race continue the next two weekends.	1587764	1471970137543	1471970137663	o	79
3164	33295	Time trials for the May 29 race continue the next two weekends.	Time trials for the May 29 race continue the next two weekends.	1587765	1471970137703	1471970137782	 	32
3164	33295	Time trials for the May 29 race continue the next two weekends.	Time trials for the May 29 race continue the next two weekends.	1587767	1471970137919	1471970137999	w	87
3164	33295	Time trials for the May 29 race continue the next two weekends.	Time trials for the May 29 race continue the next two weekends.	1587795	1471970138023	1471970138127	e	69
3164	33295	Time trials for the May 29 race continue the next two weekends.	Time trials for the May 29 race continue the next two weekends.	1587798	1471970138223	1471970138319	e	69
3164	33295	Time trials for the May 29 race continue the next two weekends.	Time trials for the May 29 race continue the next two weekends.	1587799	1471970138343	1471970138439	k	75
3164	33295	Time trials for the May 29 race continue the next two weekends.	Time trials for the May 29 race continue the next two weekends.	1587802	1471970138479	1471970138583	e	69
3164	33295	Time trials for the May 29 race continue the next two weekends.	Time trials for the May 29 race continue the next two weekends.	1587806	1471970138615	1471970138727	n	78
3164	33295	Time trials for the May 29 race continue the next two weekends.	Time trials for the May 29 race continue the next two weekends.	1587842	1471970138807	1471970138903	d	68
3164	33295	Time trials for the May 29 race continue the next two weekends.	Time trials for the May 29 race continue the next two weekends.	1587845	1471970138999	1471970139111	s	83
3164	33295	Time trials for the May 29 race continue the next two weekends.	Time trials for the May 29 race continue the next two weekends.	1587848	1471970139287	1471970139367	.	190
3164	33311	That's a lot of dollars.	That's a lot of dollars.	1587968	1471970141719	1471970141799	SHIFT	16
3164	33311	That's a lot of dollars.	That's a lot of dollars.	1587971	1471970141759	1471970141885	T	84
3164	33311	That's a lot of dollars.	That's a lot of dollars.	1587977	1471970141863	1471970141951	h	72
3164	33311	That's a lot of dollars.	That's a lot of dollars.	1587984	1471970141926	1471970142063	a	65
3164	33311	That's a lot of dollars.	That's a lot of dollars.	1587990	1471970142023	1471970142118	t	84
3164	33311	That's a lot of dollars.	That's a lot of dollars.	1587996	1471970142199	1471970142335	'	222
3164	33311	That's a lot of dollars.	That's a lot of dollars.	1588010	1471970142367	1471970142500	s	83
3164	33311	That's a lot of dollars.	That's a lot of dollars.	1588012	1471970142479	1471970142575	 	32
3164	33311	That's a lot of dollars.	That's a lot of dollars.	1588013	1471970142615	1471970142749	a	65
3164	33311	That's a lot of dollars.	That's a lot of dollars.	1588016	1471970142727	1471970142815	 	32
3164	33311	That's a lot of dollars.	That's a lot of dollars.	1588017	1471970142847	1471970142943	l	76
3164	33311	That's a lot of dollars.	That's a lot of dollars.	1588061	1471970143039	1471970143158	o	79
3164	33311	That's a lot of dollars.	That's a lot of dollars.	1588065	1471970143135	1471970143223	t	84
3164	33311	That's a lot of dollars.	That's a lot of dollars.	1588068	1471970143975	1471970144063	 	32
3164	33311	That's a lot of dollars.	That's a lot of dollars.	1588071	1471970144223	1471970144351	o	79
3164	33311	That's a lot of dollars.	That's a lot of dollars.	1588100	1471970144327	1471970144431	f	70
3164	33311	That's a lot of dollars.	That's a lot of dollars.	1588105	1471970144377	1471970144486	 	32
3164	33311	That's a lot of dollars.	That's a lot of dollars.	1588108	1471970144663	1471970144750	d	68
3164	33311	That's a lot of dollars.	That's a lot of dollars.	1588112	1471970144775	1471970144887	o	79
3164	33311	That's a lot of dollars.	That's a lot of dollars.	1588113	1471970145175	1471970145230	l	76
3164	33311	That's a lot of dollars.	That's a lot of dollars.	1588114	1471970145319	1471970145430	l	76
3164	33311	That's a lot of dollars.	That's a lot of dollars.	1588124	1471970145447	1471970145600	a	65
3164	33311	That's a lot of dollars.	That's a lot of dollars.	1588126	1471970145583	1471970145678	r	82
3164	33311	That's a lot of dollars.	That's a lot of dollars.	1588128	1471970145903	1471970145990	s	83
3164	33311	That's a lot of dollars.	That's a lot of dollars.	1588130	1471970146079	1471970146158	.	190
3164	33317	Your voice cheered me up.	Your voice cheered me up.	1588375	1471970150630	1471970150782	SHIFT	16
3164	33317	Your voice cheered me up.	Your voice cheered me up.	1588380	1471970150766	1471970150846	Y	89
3164	33317	Your voice cheered me up.	Your voice cheered me up.	1588385	1471970150862	1471970150998	o	79
3164	33317	Your voice cheered me up.	Your voice cheered me up.	1588390	1471970150974	1471970151078	u	85
3164	33317	Your voice cheered me up.	Your voice cheered me up.	1588392	1471970152302	1471970152406	r	82
3164	33317	Your voice cheered me up.	Your voice cheered me up.	1588395	1471970152455	1471970152526	 	32
3164	33317	Your voice cheered me up.	Your voice cheered me up.	1588431	1471970152742	1471970152822	v	86
3164	33317	Your voice cheered me up.	Your voice cheered me up.	1588434	1471970152862	1471970152998	o	79
3164	33317	Your voice cheered me up.	Your voice cheered me up.	1588436	1471970152975	1471970153078	i	73
3164	33317	Your voice cheered me up.	Your voice cheered me up.	1588438	1471970153126	1471970153198	c	67
3164	33317	Your voice cheered me up.	Your voice cheered me up.	1588441	1471970153302	1471970153390	e	69
3164	33317	Your voice cheered me up.	Your voice cheered me up.	1588496	1471970153406	1471970153502	 	32
3164	33317	Your voice cheered me up.	Your voice cheered me up.	1588499	1471970153702	1471970153742	h	67
3164	33317	Your voice cheered me up.	Your voice cheered me up.	1588501	1471970154310	1471970154398	e	69
3164	33317	Your voice cheered me up.	Your voice cheered me up.	1588505	1471970154486	1471970154614	e	69
3164	33317	Your voice cheered me up.	Your voice cheered me up.	1588542	1471970154566	1471970154678	r	82
3164	33317	Your voice cheered me up.	Your voice cheered me up.	1588544	1471970154846	1471970154926	e	69
3164	33317	Your voice cheered me up.	Your voice cheered me up.	1588547	1471970155022	1471970155145	d	68
3164	33317	Your voice cheered me up.	Your voice cheered me up.	1588554	1471970155118	1471970155207	 	32
3164	33317	Your voice cheered me up.	Your voice cheered me up.	1588559	1471970155382	1471970155494	m	77
3164	33317	Your voice cheered me up.	Your voice cheered me up.	1588567	1471970155542	1471970155662	e	69
3164	33317	Your voice cheered me up.	Your voice cheered me up.	1588615	1471970155646	1471970155742	 	32
3164	33317	Your voice cheered me up.	Your voice cheered me up.	1588621	1471970155878	1471970156014	u	85
3164	33317	Your voice cheered me up.	Your voice cheered me up.	1588626	1471970155990	1471970156118	p	80
3164	33317	Your voice cheered me up.	Your voice cheered me up.	1588630	1471970156294	1471970156382	.	190
3164	33329	We will be dining fashionably late.	We will be dining fashionably late.	1588765	1471970159590	1471970159750	SHIFT	16
3164	33329	We will be dining fashionably late.	We will be dining fashionably late.	1588768	1471970159662	1471970159791	W	87
3164	33329	We will be dining fashionably late.	We will be dining fashionably late.	1588770	1471970159766	1471970159838	e	69
3164	33329	We will be dining fashionably late.	We will be dining fashionably late.	1588773	1471970159902	1471970159966	 	32
3164	33329	We will be dining fashionably late.	We will be dining fashionably late.	1588775	1471970160102	1471970160190	w	87
3164	33329	We will be dining fashionably late.	We will be dining fashionably late.	1588819	1471970160166	1471970160302	i	73
3164	33329	We will be dining fashionably late.	We will be dining fashionably late.	1588820	1471970160278	1471970160342	l	76
3164	33329	We will be dining fashionably late.	We will be dining fashionably late.	1588821	1471970160398	1471970160494	l	76
3164	33329	We will be dining fashionably late.	We will be dining fashionably late.	1588822	1471970160814	1471970160878	 	32
3164	33329	We will be dining fashionably late.	We will be dining fashionably late.	1588823	1471970160958	1471970161030	b	66
3164	33329	We will be dining fashionably late.	We will be dining fashionably late.	1588826	1471970161150	1471970161238	e	69
3164	33329	We will be dining fashionably late.	We will be dining fashionably late.	1588861	1471970161294	1471970161326	 	32
3164	33329	We will be dining fashionably late.	We will be dining fashionably late.	1588866	1471970161742	1471970161862	d	68
3164	33329	We will be dining fashionably late.	We will be dining fashionably late.	1588871	1471970161982	1471970162094	i	73
3164	33329	We will be dining fashionably late.	We will be dining fashionably late.	1588878	1471970162054	1471970162150	n	78
3164	33329	We will be dining fashionably late.	We will be dining fashionably late.	1588880	1471970162214	1471970162310	i	73
3164	33329	We will be dining fashionably late.	We will be dining fashionably late.	1588946	1471970162270	1471970162382	n	78
3164	33329	We will be dining fashionably late.	We will be dining fashionably late.	1588949	1471970162534	1471970162614	g	71
3164	33329	We will be dining fashionably late.	We will be dining fashionably late.	1588954	1471970162750	1471970162822	 	32
3164	33329	We will be dining fashionably late.	We will be dining fashionably late.	1588957	1471970163046	1471970163126	f	70
3164	33329	We will be dining fashionably late.	We will be dining fashionably late.	1588960	1471970163270	1471970163366	a	65
3164	33329	We will be dining fashionably late.	We will be dining fashionably late.	1588964	1471970163590	1471970163719	s	83
3164	33329	We will be dining fashionably late.	We will be dining fashionably late.	1588995	1471970163694	1471970163790	h	72
3164	33329	We will be dining fashionably late.	We will be dining fashionably late.	1588998	1471970163846	1471970163982	i	73
3164	33329	We will be dining fashionably late.	We will be dining fashionably late.	1589000	1471970163926	1471970164078	o	79
3164	33329	We will be dining fashionably late.	We will be dining fashionably late.	1589003	1471970164102	1471970164198	n	78
3164	33329	We will be dining fashionably late.	We will be dining fashionably late.	1589005	1471970164214	1471970164318	a	65
3164	33329	We will be dining fashionably late.	We will be dining fashionably late.	1589007	1471970164358	1471970164438	l	76
3164	33329	We will be dining fashionably late.	We will be dining fashionably late.	1589059	1471970164502	1471970164574	b	66
3164	33329	We will be dining fashionably late.	We will be dining fashionably late.	1589061	1471970164886	1471970164935	BKSP	8
3164	33329	We will be dining fashionably late.	We will be dining fashionably late.	1589063	1471970165038	1471970165102	BKSP	8
3164	33329	We will be dining fashionably late.	We will be dining fashionably late.	1589066	1471970165134	1471970165213	b	66
3164	33329	We will be dining fashionably late.	We will be dining fashionably late.	1589068	1471970165286	1471970165398	l	76
3164	33329	We will be dining fashionably late.	We will be dining fashionably late.	1589071	1471970165526	1471970165614	y	89
3164	33329	We will be dining fashionably late.	We will be dining fashionably late.	1589074	1471970165822	1471970165902	 	32
3164	33329	We will be dining fashionably late.	We will be dining fashionably late.	1589104	1471970166102	1471970166212	l	76
3164	33329	We will be dining fashionably late.	We will be dining fashionably late.	1589109	1471970166190	1471970166344	a	65
3164	33329	We will be dining fashionably late.	We will be dining fashionably late.	1589113	1471970166318	1471970166406	t	84
3164	33329	We will be dining fashionably late.	We will be dining fashionably late.	1589116	1471970166478	1471970166550	e	69
3164	33329	We will be dining fashionably late.	We will be dining fashionably late.	1589122	1471970166630	1471970166718	.	190
3164	33339	I need a little more stability in my work environment.	I need a little more stability in my work environment.	1589257	1471970168958	1471970169070	SHIFT	16
3164	33339	I need a little more stability in my work environment.	I need a little more stability in my work environment.	1589260	1471970169038	1471970169150	I	73
3164	33339	I need a little more stability in my work environment.	I need a little more stability in my work environment.	1589265	1471970169126	1471970169254	 	32
3164	33339	I need a little more stability in my work environment.	I need a little more stability in my work environment.	1589272	1471970169302	1471970169398	n	78
3164	33339	I need a little more stability in my work environment.	I need a little more stability in my work environment.	1589276	1471970169414	1471970169495	e	69
3164	33339	I need a little more stability in my work environment.	I need a little more stability in my work environment.	1589280	1471970169591	1471970169662	e	69
3164	33339	I need a little more stability in my work environment.	I need a little more stability in my work environment.	1589308	1471970169814	1471970169910	d	68
3164	33339	I need a little more stability in my work environment.	I need a little more stability in my work environment.	1589311	1471970169934	1471970170014	 	32
3164	33339	I need a little more stability in my work environment.	I need a little more stability in my work environment.	1589314	1471970170070	1471970170213	a	65
3164	33339	I need a little more stability in my work environment.	I need a little more stability in my work environment.	1589319	1471970170150	1471970170245	 	32
3164	33339	I need a little more stability in my work environment.	I need a little more stability in my work environment.	1589322	1471970170318	1471970170422	l	76
3164	33339	I need a little more stability in my work environment.	I need a little more stability in my work environment.	1589398	1471970170542	1471970170598	t	84
3164	33339	I need a little more stability in my work environment.	I need a little more stability in my work environment.	1589401	1471970171030	1471970171094	BKSP	8
3164	33339	I need a little more stability in my work environment.	I need a little more stability in my work environment.	1589405	1471970171238	1471970171317	i	73
3164	33339	I need a little more stability in my work environment.	I need a little more stability in my work environment.	1589408	1471970171278	1471970171350	t	84
3164	33339	I need a little more stability in my work environment.	I need a little more stability in my work environment.	1589413	1471970171446	1471970171526	t	84
3164	33339	I need a little more stability in my work environment.	I need a little more stability in my work environment.	1589417	1471970171558	1471970171671	l	76
3164	33339	I need a little more stability in my work environment.	I need a little more stability in my work environment.	1589425	1471970171710	1471970171782	e	69
3164	33339	I need a little more stability in my work environment.	I need a little more stability in my work environment.	1589428	1471970171886	1471970171966	 	32
3164	33339	I need a little more stability in my work environment.	I need a little more stability in my work environment.	1589430	1471970172086	1471970172190	m	77
3164	33339	I need a little more stability in my work environment.	I need a little more stability in my work environment.	1589431	1471970172214	1471970172310	o	79
3164	33339	I need a little more stability in my work environment.	I need a little more stability in my work environment.	1589436	1471970172246	1471970172365	r	82
3164	33339	I need a little more stability in my work environment.	I need a little more stability in my work environment.	1589438	1471970172390	1471970172462	e	69
3164	33339	I need a little more stability in my work environment.	I need a little more stability in my work environment.	1589441	1471970172486	1471970172574	 	32
3164	33339	I need a little more stability in my work environment.	I need a little more stability in my work environment.	1589445	1471970172710	1471970172822	s	83
3164	33339	I need a little more stability in my work environment.	I need a little more stability in my work environment.	1589448	1471970172862	1471970172958	t	84
3164	33339	I need a little more stability in my work environment.	I need a little more stability in my work environment.	1589451	1471970172990	1471970173094	a	65
3164	33339	I need a little more stability in my work environment.	I need a little more stability in my work environment.	1589467	1471970173182	1471970173254	b	66
3164	33339	I need a little more stability in my work environment.	I need a little more stability in my work environment.	1589470	1471970173286	1471970173390	i	73
3164	33339	I need a little more stability in my work environment.	I need a little more stability in my work environment.	1589475	1471970173406	1471970173470	l	76
3164	33339	I need a little more stability in my work environment.	I need a little more stability in my work environment.	1589477	1471970173510	1471970173638	i	73
3164	33339	I need a little more stability in my work environment.	I need a little more stability in my work environment.	1589481	1471970173661	1471970173725	t	84
3164	33339	I need a little more stability in my work environment.	I need a little more stability in my work environment.	1589498	1471970173741	1471970173845	y	89
3164	33339	I need a little more stability in my work environment.	I need a little more stability in my work environment.	1589501	1471970173885	1471970173981	 	32
3164	33339	I need a little more stability in my work environment.	I need a little more stability in my work environment.	1589507	1471970174053	1471970174173	i	73
3164	33339	I need a little more stability in my work environment.	I need a little more stability in my work environment.	1589510	1471970174141	1471970174277	n	78
3164	33339	I need a little more stability in my work environment.	I need a little more stability in my work environment.	1589515	1471970174301	1471970174357	 	32
3164	33339	I need a little more stability in my work environment.	I need a little more stability in my work environment.	1589556	1471970174781	1471970174893	y	89
3164	33339	I need a little more stability in my work environment.	I need a little more stability in my work environment.	1589557	1471970175197	1471970175262	BKSP	8
3164	33339	I need a little more stability in my work environment.	I need a little more stability in my work environment.	1589558	1471970175414	1471970175502	m	77
3164	33339	I need a little more stability in my work environment.	I need a little more stability in my work environment.	1589559	1471970175654	1471970175750	y	89
3164	33339	I need a little more stability in my work environment.	I need a little more stability in my work environment.	1589560	1471970175790	1471970175894	 	32
3164	33339	I need a little more stability in my work environment.	I need a little more stability in my work environment.	1589561	1471970175958	1471970176092	w	87
3164	33339	I need a little more stability in my work environment.	I need a little more stability in my work environment.	1589605	1471970176070	1471970176182	o	79
3164	33339	I need a little more stability in my work environment.	I need a little more stability in my work environment.	1589609	1471970176206	1471970176302	r	82
3164	33339	I need a little more stability in my work environment.	I need a little more stability in my work environment.	1589614	1471970176278	1471970176398	k	75
3164	33339	I need a little more stability in my work environment.	I need a little more stability in my work environment.	1589619	1471970176494	1471970176558	 	32
3164	33339	I need a little more stability in my work environment.	I need a little more stability in my work environment.	1589624	1471970176934	1471970177022	e	69
3164	33339	I need a little more stability in my work environment.	I need a little more stability in my work environment.	1589627	1471970177062	1471970177158	n	78
3164	33339	I need a little more stability in my work environment.	I need a little more stability in my work environment.	1589691	1471970177902	1471970178006	v	86
3164	33339	I need a little more stability in my work environment.	I need a little more stability in my work environment.	1589694	1471970178102	1471970178190	i	73
3164	33339	I need a little more stability in my work environment.	I need a little more stability in my work environment.	1589697	1471970178222	1471970178310	r	82
3164	33339	I need a little more stability in my work environment.	I need a little more stability in my work environment.	1589700	1471970178390	1471970178558	o	79
3164	33339	I need a little more stability in my work environment.	I need a little more stability in my work environment.	1589731	1471970178502	1471970178686	n	78
3164	33339	I need a little more stability in my work environment.	I need a little more stability in my work environment.	1589732	1471970178838	1471970178942	m	77
3164	33339	I need a little more stability in my work environment.	I need a little more stability in my work environment.	1589733	1471970178918	1471970179030	e	69
3164	33339	I need a little more stability in my work environment.	I need a little more stability in my work environment.	1589734	1471970179054	1471970179158	n	78
3164	33339	I need a little more stability in my work environment.	I need a little more stability in my work environment.	1589739	1471970179126	1471970179214	t	84
3164	33339	I need a little more stability in my work environment.	I need a little more stability in my work environment.	1589742	1471970179326	1471970179422	.	190
3164	33353	Add a Star Trek convention and sports memorabilia show to the mix.	Add a Star Trek convention and sports memorabilia show to the mix.	1589885	1471970181678	1471970181822	SHIFT	16
3164	33353	Add a Star Trek convention and sports memorabilia show to the mix.	Add a Star Trek convention and sports memorabilia show to the mix.	1589889	1471970181742	1471970181846	A	65
3164	33353	Add a Star Trek convention and sports memorabilia show to the mix.	Add a Star Trek convention and sports memorabilia show to the mix.	1589893	1471970181982	1471970182062	d	68
3164	33353	Add a Star Trek convention and sports memorabilia show to the mix.	Add a Star Trek convention and sports memorabilia show to the mix.	1589896	1471970182150	1471970182262	d	68
3164	33353	Add a Star Trek convention and sports memorabilia show to the mix.	Add a Star Trek convention and sports memorabilia show to the mix.	1589901	1471970182230	1471970182334	 	32
3164	33353	Add a Star Trek convention and sports memorabilia show to the mix.	Add a Star Trek convention and sports memorabilia show to the mix.	1589903	1471970182398	1471970182534	a	65
3164	33353	Add a Star Trek convention and sports memorabilia show to the mix.	Add a Star Trek convention and sports memorabilia show to the mix.	1590006	1471970182510	1471970182606	 	32
3164	33353	Add a Star Trek convention and sports memorabilia show to the mix.	Add a Star Trek convention and sports memorabilia show to the mix.	1590008	1471970182734	1471970182846	s	83
3164	33353	Add a Star Trek convention and sports memorabilia show to the mix.	Add a Star Trek convention and sports memorabilia show to the mix.	1590010	1471970182774	1471970182950	SHIFT	16
3164	33353	Add a Star Trek convention and sports memorabilia show to the mix.	Add a Star Trek convention and sports memorabilia show to the mix.	1590012	1471970183078	1471970183150	t	84
3164	33353	Add a Star Trek convention and sports memorabilia show to the mix.	Add a Star Trek convention and sports memorabilia show to the mix.	1590014	1471970183574	1471970183645	BKSP	8
3164	33353	Add a Star Trek convention and sports memorabilia show to the mix.	Add a Star Trek convention and sports memorabilia show to the mix.	1590017	1471970183734	1471970183806	BKSP	8
3164	33353	Add a Star Trek convention and sports memorabilia show to the mix.	Add a Star Trek convention and sports memorabilia show to the mix.	1590021	1471970183966	1471970184086	s	83
3164	33353	Add a Star Trek convention and sports memorabilia show to the mix.	Add a Star Trek convention and sports memorabilia show to the mix.	1590024	1471970183989	1471970184102	SHIFT	16
3164	33353	Add a Star Trek convention and sports memorabilia show to the mix.	Add a Star Trek convention and sports memorabilia show to the mix.	1590026	1471970184278	1471970184390	t	84
3164	33353	Add a Star Trek convention and sports memorabilia show to the mix.	Add a Star Trek convention and sports memorabilia show to the mix.	1590028	1471970184646	1471970184694	BKSP	8
3164	33353	Add a Star Trek convention and sports memorabilia show to the mix.	Add a Star Trek convention and sports memorabilia show to the mix.	1590030	1471970184798	1471970184854	BKSP	8
3164	33353	Add a Star Trek convention and sports memorabilia show to the mix.	Add a Star Trek convention and sports memorabilia show to the mix.	1590032	1471970184990	1471970185142	SHIFT	16
3164	33353	Add a Star Trek convention and sports memorabilia show to the mix.	Add a Star Trek convention and sports memorabilia show to the mix.	1590061	1471970185054	1471970185182	S	83
3164	33353	Add a Star Trek convention and sports memorabilia show to the mix.	Add a Star Trek convention and sports memorabilia show to the mix.	1590063	1471970185462	1471970185566	t	84
3164	33353	Add a Star Trek convention and sports memorabilia show to the mix.	Add a Star Trek convention and sports memorabilia show to the mix.	1590066	1471970185638	1471970185798	a	65
3164	33353	Add a Star Trek convention and sports memorabilia show to the mix.	Add a Star Trek convention and sports memorabilia show to the mix.	1590069	1471970185726	1471970185846	r	82
3164	33353	Add a Star Trek convention and sports memorabilia show to the mix.	Add a Star Trek convention and sports memorabilia show to the mix.	1590071	1471970186046	1471970186125	 	32
3164	33353	Add a Star Trek convention and sports memorabilia show to the mix.	Add a Star Trek convention and sports memorabilia show to the mix.	1590073	1471970186198	1471970186358	SHIFT	16
3164	33353	Add a Star Trek convention and sports memorabilia show to the mix.	Add a Star Trek convention and sports memorabilia show to the mix.	1590097	1471970186310	1471970186398	T	84
3164	33353	Add a Star Trek convention and sports memorabilia show to the mix.	Add a Star Trek convention and sports memorabilia show to the mix.	1590100	1471970186486	1471970186574	r	82
3164	33353	Add a Star Trek convention and sports memorabilia show to the mix.	Add a Star Trek convention and sports memorabilia show to the mix.	1590104	1471970186598	1471970186702	e	69
3164	33353	Add a Star Trek convention and sports memorabilia show to the mix.	Add a Star Trek convention and sports memorabilia show to the mix.	1590112	1471970186750	1471970186861	k	75
3164	33353	Add a Star Trek convention and sports memorabilia show to the mix.	Add a Star Trek convention and sports memorabilia show to the mix.	1590119	1471970186942	1471970187022	 	32
3164	33353	Add a Star Trek convention and sports memorabilia show to the mix.	Add a Star Trek convention and sports memorabilia show to the mix.	1590127	1471970187269	1471970187390	SHIFT	16
3164	33353	Add a Star Trek convention and sports memorabilia show to the mix.	Add a Star Trek convention and sports memorabilia show to the mix.	1590199	1471970187350	1471970187478	C	67
3164	33353	Add a Star Trek convention and sports memorabilia show to the mix.	Add a Star Trek convention and sports memorabilia show to the mix.	1590203	1471970187526	1471970187646	o	79
3164	33353	Add a Star Trek convention and sports memorabilia show to the mix.	Add a Star Trek convention and sports memorabilia show to the mix.	1590205	1471970187670	1471970187766	n	78
3164	33353	Add a Star Trek convention and sports memorabilia show to the mix.	Add a Star Trek convention and sports memorabilia show to the mix.	1590208	1471970188030	1471970188126	v	86
3164	33353	Add a Star Trek convention and sports memorabilia show to the mix.	Add a Star Trek convention and sports memorabilia show to the mix.	1590210	1471970188446	1471970188510	BKSP	8
3164	33353	Add a Star Trek convention and sports memorabilia show to the mix.	Add a Star Trek convention and sports memorabilia show to the mix.	1590211	1471970188598	1471970188670	BKSP	8
3164	33353	Add a Star Trek convention and sports memorabilia show to the mix.	Add a Star Trek convention and sports memorabilia show to the mix.	1590212	1471970188774	1471970188822	BKSP	8
3164	33353	Add a Star Trek convention and sports memorabilia show to the mix.	Add a Star Trek convention and sports memorabilia show to the mix.	1590213	1471970188918	1471970188982	BKSP	8
3164	33353	Add a Star Trek convention and sports memorabilia show to the mix.	Add a Star Trek convention and sports memorabilia show to the mix.	1590215	1471970188958	1471970189062	c	67
3164	33353	Add a Star Trek convention and sports memorabilia show to the mix.	Add a Star Trek convention and sports memorabilia show to the mix.	1590217	1471970189134	1471970189298	o	79
3164	33353	Add a Star Trek convention and sports memorabilia show to the mix.	Add a Star Trek convention and sports memorabilia show to the mix.	1590257	1471970189277	1471970189389	n	78
3164	33353	Add a Star Trek convention and sports memorabilia show to the mix.	Add a Star Trek convention and sports memorabilia show to the mix.	1590260	1471970189573	1471970189637	v	86
3164	33353	Add a Star Trek convention and sports memorabilia show to the mix.	Add a Star Trek convention and sports memorabilia show to the mix.	1590263	1471970189741	1471970189830	e	69
3164	33353	Add a Star Trek convention and sports memorabilia show to the mix.	Add a Star Trek convention and sports memorabilia show to the mix.	1590265	1471970189846	1471970189910	n	78
3164	33353	Add a Star Trek convention and sports memorabilia show to the mix.	Add a Star Trek convention and sports memorabilia show to the mix.	1590268	1471970189958	1471970190046	t	84
3164	33353	Add a Star Trek convention and sports memorabilia show to the mix.	Add a Star Trek convention and sports memorabilia show to the mix.	1590271	1471970190078	1471970190238	i	73
3164	33353	Add a Star Trek convention and sports memorabilia show to the mix.	Add a Star Trek convention and sports memorabilia show to the mix.	1590295	1471970190182	1471970190326	o	79
3164	33353	Add a Star Trek convention and sports memorabilia show to the mix.	Add a Star Trek convention and sports memorabilia show to the mix.	1590297	1471970190262	1471970190414	n	78
3164	33353	Add a Star Trek convention and sports memorabilia show to the mix.	Add a Star Trek convention and sports memorabilia show to the mix.	1590300	1471970190438	1471970190525	 	32
3164	33353	Add a Star Trek convention and sports memorabilia show to the mix.	Add a Star Trek convention and sports memorabilia show to the mix.	1590304	1471970190790	1471970190887	a	65
3164	33353	Add a Star Trek convention and sports memorabilia show to the mix.	Add a Star Trek convention and sports memorabilia show to the mix.	1590309	1471970190870	1471970190982	n	78
3164	33353	Add a Star Trek convention and sports memorabilia show to the mix.	Add a Star Trek convention and sports memorabilia show to the mix.	1590322	1471970190958	1471970191068	d	68
3164	33353	Add a Star Trek convention and sports memorabilia show to the mix.	Add a Star Trek convention and sports memorabilia show to the mix.	1590324	1471970191086	1471970191182	 	32
3164	33353	Add a Star Trek convention and sports memorabilia show to the mix.	Add a Star Trek convention and sports memorabilia show to the mix.	1590327	1471970191286	1471970191366	s	83
3164	33353	Add a Star Trek convention and sports memorabilia show to the mix.	Add a Star Trek convention and sports memorabilia show to the mix.	1590330	1471970191398	1471970191478	p	80
3164	33353	Add a Star Trek convention and sports memorabilia show to the mix.	Add a Star Trek convention and sports memorabilia show to the mix.	1590332	1471970191558	1471970191678	o	79
3164	33353	Add a Star Trek convention and sports memorabilia show to the mix.	Add a Star Trek convention and sports memorabilia show to the mix.	1590362	1471970191646	1471970191734	r	82
3164	33353	Add a Star Trek convention and sports memorabilia show to the mix.	Add a Star Trek convention and sports memorabilia show to the mix.	1590365	1471970191854	1471970191926	t	84
3164	33353	Add a Star Trek convention and sports memorabilia show to the mix.	Add a Star Trek convention and sports memorabilia show to the mix.	1590368	1471970192102	1471970192254	s	83
3164	33353	Add a Star Trek convention and sports memorabilia show to the mix.	Add a Star Trek convention and sports memorabilia show to the mix.	1590371	1471970192230	1471970192318	 	32
3164	33353	Add a Star Trek convention and sports memorabilia show to the mix.	Add a Star Trek convention and sports memorabilia show to the mix.	1590374	1471970192470	1471970192554	m	77
3164	33353	Add a Star Trek convention and sports memorabilia show to the mix.	Add a Star Trek convention and sports memorabilia show to the mix.	1590388	1471970192526	1471970192614	e	69
3164	33353	Add a Star Trek convention and sports memorabilia show to the mix.	Add a Star Trek convention and sports memorabilia show to the mix.	1590390	1471970192662	1471970192758	m	77
3164	33353	Add a Star Trek convention and sports memorabilia show to the mix.	Add a Star Trek convention and sports memorabilia show to the mix.	1590392	1471970192742	1471970192846	o	79
3164	33353	Add a Star Trek convention and sports memorabilia show to the mix.	Add a Star Trek convention and sports memorabilia show to the mix.	1590393	1471970192862	1471970192942	r	82
3164	33353	Add a Star Trek convention and sports memorabilia show to the mix.	Add a Star Trek convention and sports memorabilia show to the mix.	1590395	1471970193062	1471970193190	a	65
3164	33353	Add a Star Trek convention and sports memorabilia show to the mix.	Add a Star Trek convention and sports memorabilia show to the mix.	1590396	1471970193230	1471970193310	b	66
3164	33353	Add a Star Trek convention and sports memorabilia show to the mix.	Add a Star Trek convention and sports memorabilia show to the mix.	1590460	1471970193350	1471970193470	i	73
3164	33353	Add a Star Trek convention and sports memorabilia show to the mix.	Add a Star Trek convention and sports memorabilia show to the mix.	1590463	1471970193446	1471970193558	l	76
3164	33353	Add a Star Trek convention and sports memorabilia show to the mix.	Add a Star Trek convention and sports memorabilia show to the mix.	1590465	1471970193590	1471970193702	i	73
3164	33353	Add a Star Trek convention and sports memorabilia show to the mix.	Add a Star Trek convention and sports memorabilia show to the mix.	1590468	1471970194054	1471970194141	a	65
3164	33353	Add a Star Trek convention and sports memorabilia show to the mix.	Add a Star Trek convention and sports memorabilia show to the mix.	1590470	1471970194286	1471970194365	 	32
3164	33353	Add a Star Trek convention and sports memorabilia show to the mix.	Add a Star Trek convention and sports memorabilia show to the mix.	1590508	1471970194590	1471970194694	s	83
3164	33353	Add a Star Trek convention and sports memorabilia show to the mix.	Add a Star Trek convention and sports memorabilia show to the mix.	1590509	1471970194670	1471970194742	h	72
3164	33353	Add a Star Trek convention and sports memorabilia show to the mix.	Add a Star Trek convention and sports memorabilia show to the mix.	1590510	1471970194766	1471970194869	o	79
3164	33353	Add a Star Trek convention and sports memorabilia show to the mix.	Add a Star Trek convention and sports memorabilia show to the mix.	1590511	1471970194918	1471970195022	w	87
3164	33353	Add a Star Trek convention and sports memorabilia show to the mix.	Add a Star Trek convention and sports memorabilia show to the mix.	1590513	1471970195062	1471970195157	 	32
3164	33353	Add a Star Trek convention and sports memorabilia show to the mix.	Add a Star Trek convention and sports memorabilia show to the mix.	1590530	1471970195262	1471970195349	t	84
3164	33353	Add a Star Trek convention and sports memorabilia show to the mix.	Add a Star Trek convention and sports memorabilia show to the mix.	1590533	1471970195318	1471970195405	o	79
3164	33353	Add a Star Trek convention and sports memorabilia show to the mix.	Add a Star Trek convention and sports memorabilia show to the mix.	1590538	1471970195430	1471970195525	 	32
3164	33353	Add a Star Trek convention and sports memorabilia show to the mix.	Add a Star Trek convention and sports memorabilia show to the mix.	1590540	1471970195510	1471970195589	t	84
3164	33353	Add a Star Trek convention and sports memorabilia show to the mix.	Add a Star Trek convention and sports memorabilia show to the mix.	1590591	1471970195558	1471970195669	h	72
3164	33353	Add a Star Trek convention and sports memorabilia show to the mix.	Add a Star Trek convention and sports memorabilia show to the mix.	1590594	1471970196102	1471970196197	e	69
3164	33353	Add a Star Trek convention and sports memorabilia show to the mix.	Add a Star Trek convention and sports memorabilia show to the mix.	1590599	1471970196238	1471970196333	 	32
3164	33353	Add a Star Trek convention and sports memorabilia show to the mix.	Add a Star Trek convention and sports memorabilia show to the mix.	1590603	1471970196478	1471970196558	m	77
3164	33353	Add a Star Trek convention and sports memorabilia show to the mix.	Add a Star Trek convention and sports memorabilia show to the mix.	1590606	1471970196598	1471970196693	i	73
3164	33353	Add a Star Trek convention and sports memorabilia show to the mix.	Add a Star Trek convention and sports memorabilia show to the mix.	1590610	1471970196886	1471970196989	x	88
3164	33353	Add a Star Trek convention and sports memorabilia show to the mix.	Add a Star Trek convention and sports memorabilia show to the mix.	1590613	1471970197013	1471970197102	.	190
3164	33371	Weinke could have a big game.	Weinke could have a big game.	1590732	1471970199126	1471970199237	SHIFT	16
3164	33371	Weinke could have a big game.	Weinke could have a big game.	1590736	1471970199182	1471970199301	W	87
3164	33371	Weinke could have a big game.	Weinke could have a big game.	1590739	1471970199373	1471970199453	i	73
3164	33371	Weinke could have a big game.	Weinke could have a big game.	1590741	1471970200357	1471970200421	BKSP	8
3164	33371	Weinke could have a big game.	Weinke could have a big game.	1590742	1471970200478	1471970200565	e	69
3164	33371	Weinke could have a big game.	Weinke could have a big game.	1590744	1471970200645	1471970200789	i	73
3164	33371	Weinke could have a big game.	Weinke could have a big game.	1590775	1471970200741	1471970200885	n	78
3164	33371	Weinke could have a big game.	Weinke could have a big game.	1590779	1471970201213	1471970201333	k	75
3164	33371	Weinke could have a big game.	Weinke could have a big game.	1590782	1471970201445	1471970201525	e	69
3164	33371	Weinke could have a big game.	Weinke could have a big game.	1590785	1471970201573	1471970201653	 	32
3164	33371	Weinke could have a big game.	Weinke could have a big game.	1590790	1471970201837	1471970201997	c	67
3164	33371	Weinke could have a big game.	Weinke could have a big game.	1590851	1471970201877	1471970202013	o	79
3164	33371	Weinke could have a big game.	Weinke could have a big game.	1590854	1471970201973	1471970202077	u	85
3164	33371	Weinke could have a big game.	Weinke could have a big game.	1590857	1471970202741	1471970202869	l	76
3164	33371	Weinke could have a big game.	Weinke could have a big game.	1590861	1471970202845	1471970202949	d	68
3164	33371	Weinke could have a big game.	Weinke could have a big game.	1590866	1471970202973	1471970203077	 	32
3164	33371	Weinke could have a big game.	Weinke could have a big game.	1590874	1471970203149	1471970203253	h	72
3164	33371	Weinke could have a big game.	Weinke could have a big game.	1590894	1471970203237	1471970203341	a	65
3164	33371	Weinke could have a big game.	Weinke could have a big game.	1590896	1471970203317	1471970203397	v	86
3164	33371	Weinke could have a big game.	Weinke could have a big game.	1590902	1471970203477	1471970203597	e	69
3164	33371	Weinke could have a big game.	Weinke could have a big game.	1590903	1471970203853	1471970203957	 	32
3164	33371	Weinke could have a big game.	Weinke could have a big game.	1590905	1471970203986	1471970204125	a	65
3164	33371	Weinke could have a big game.	Weinke could have a big game.	1590966	1471970204093	1471970204181	 	32
3164	33371	Weinke could have a big game.	Weinke could have a big game.	1590969	1471970204285	1471970204365	b	66
3164	33371	Weinke could have a big game.	Weinke could have a big game.	1590973	1471970204389	1471970204485	i	73
3164	33371	Weinke could have a big game.	Weinke could have a big game.	1590976	1471970204821	1471970204885	g	71
3164	33371	Weinke could have a big game.	Weinke could have a big game.	1590978	1471970204981	1471970205061	 	32
3164	33371	Weinke could have a big game.	Weinke could have a big game.	1590980	1471970205493	1471970205606	g	71
3164	33371	Weinke could have a big game.	Weinke could have a big game.	1590995	1471970205629	1471970205725	a	65
3164	33371	Weinke could have a big game.	Weinke could have a big game.	1590997	1471970205701	1471970205829	m	77
3164	33371	Weinke could have a big game.	Weinke could have a big game.	1591000	1471970205853	1471970205925	e	69
3164	33371	Weinke could have a big game.	Weinke could have a big game.	1591002	1471970206021	1471970206101	.	190
3164	33379	Don't make me pull tapes on whether you understood our fee.	Don't make me pull tapes on whether you understood our fee.	1591087	1471970208405	1471970208501	SHIFT	16
3164	33379	Don't make me pull tapes on whether you understood our fee.	Don't make me pull tapes on whether you understood our fee.	1591091	1471970208477	1471970208581	D	68
3164	33379	Don't make me pull tapes on whether you understood our fee.	Don't make me pull tapes on whether you understood our fee.	1591093	1471970208605	1471970208733	o	79
3164	33379	Don't make me pull tapes on whether you understood our fee.	Don't make me pull tapes on whether you understood our fee.	1591095	1471970208709	1471970208849	n	78
3164	33379	Don't make me pull tapes on whether you understood our fee.	Don't make me pull tapes on whether you understood our fee.	1591097	1471970208829	1471970208925	'	222
3164	33379	Don't make me pull tapes on whether you understood our fee.	Don't make me pull tapes on whether you understood our fee.	1591127	1471970208901	1471970208981	t	84
3164	33379	Don't make me pull tapes on whether you understood our fee.	Don't make me pull tapes on whether you understood our fee.	1591129	1471970209045	1471970209117	 	32
3164	33379	Don't make me pull tapes on whether you understood our fee.	Don't make me pull tapes on whether you understood our fee.	1591131	1471970209245	1471970209333	m	77
3164	33379	Don't make me pull tapes on whether you understood our fee.	Don't make me pull tapes on whether you understood our fee.	1591134	1471970209317	1471970209389	a	65
3164	33379	Don't make me pull tapes on whether you understood our fee.	Don't make me pull tapes on whether you understood our fee.	1591137	1471970209453	1471970209565	k	75
3164	33379	Don't make me pull tapes on whether you understood our fee.	Don't make me pull tapes on whether you understood our fee.	1591141	1471970209613	1471970209709	 	32
3164	33379	Don't make me pull tapes on whether you understood our fee.	Don't make me pull tapes on whether you understood our fee.	1591179	1471970210086	1471970210125	BKSP	8
3164	33379	Don't make me pull tapes on whether you understood our fee.	Don't make me pull tapes on whether you understood our fee.	1591180	1471970210429	1471970210509	e	69
3164	33379	Don't make me pull tapes on whether you understood our fee.	Don't make me pull tapes on whether you understood our fee.	1591182	1471970210549	1471970210629	 	32
3164	33379	Don't make me pull tapes on whether you understood our fee.	Don't make me pull tapes on whether you understood our fee.	1591185	1471970210749	1471970210877	m	77
3164	33379	Don't make me pull tapes on whether you understood our fee.	Don't make me pull tapes on whether you understood our fee.	1591187	1471970210845	1471970210949	e	69
3164	33379	Don't make me pull tapes on whether you understood our fee.	Don't make me pull tapes on whether you understood our fee.	1591190	1471970210973	1471970211077	 	32
3164	33379	Don't make me pull tapes on whether you understood our fee.	Don't make me pull tapes on whether you understood our fee.	1591232	1471970211253	1471970211349	p	80
3164	33379	Don't make me pull tapes on whether you understood our fee.	Don't make me pull tapes on whether you understood our fee.	1591235	1471970211397	1471970211477	u	85
3164	33379	Don't make me pull tapes on whether you understood our fee.	Don't make me pull tapes on whether you understood our fee.	1591238	1471970212037	1471970212109	l	76
3164	33379	Don't make me pull tapes on whether you understood our fee.	Don't make me pull tapes on whether you understood our fee.	1591242	1471970212197	1471970212285	l	76
3164	33379	Don't make me pull tapes on whether you understood our fee.	Don't make me pull tapes on whether you understood our fee.	1591245	1471970212309	1471970212389	 	32
3164	33379	Don't make me pull tapes on whether you understood our fee.	Don't make me pull tapes on whether you understood our fee.	1591254	1471970212476	1471970212581	t	84
3164	33379	Don't make me pull tapes on whether you understood our fee.	Don't make me pull tapes on whether you understood our fee.	1591256	1471970212621	1471970212701	a	65
3164	33379	Don't make me pull tapes on whether you understood our fee.	Don't make me pull tapes on whether you understood our fee.	1591258	1471970212758	1471970212893	p	80
3164	33379	Don't make me pull tapes on whether you understood our fee.	Don't make me pull tapes on whether you understood our fee.	1591260	1471970212925	1471970213021	e	69
3164	33379	Don't make me pull tapes on whether you understood our fee.	Don't make me pull tapes on whether you understood our fee.	1591264	1471970213149	1471970213269	s	83
3164	33379	Don't make me pull tapes on whether you understood our fee.	Don't make me pull tapes on whether you understood our fee.	1591284	1471970213309	1471970213381	 	32
3164	33379	Don't make me pull tapes on whether you understood our fee.	Don't make me pull tapes on whether you understood our fee.	1591288	1471970213477	1471970213629	o	79
3164	33379	Don't make me pull tapes on whether you understood our fee.	Don't make me pull tapes on whether you understood our fee.	1591291	1471970213573	1471970213709	n	78
3164	33379	Don't make me pull tapes on whether you understood our fee.	Don't make me pull tapes on whether you understood our fee.	1591295	1471970213725	1471970213757	 	32
3164	33379	Don't make me pull tapes on whether you understood our fee.	Don't make me pull tapes on whether you understood our fee.	1591298	1471970213821	1471970213909	w	87
3164	33379	Don't make me pull tapes on whether you understood our fee.	Don't make me pull tapes on whether you understood our fee.	1591342	1471970213965	1471970214069	h	72
3164	33379	Don't make me pull tapes on whether you understood our fee.	Don't make me pull tapes on whether you understood our fee.	1591344	1471970214085	1471970214173	e	69
3164	33379	Don't make me pull tapes on whether you understood our fee.	Don't make me pull tapes on whether you understood our fee.	1591346	1471970214485	1471970214565	t	84
3164	33379	Don't make me pull tapes on whether you understood our fee.	Don't make me pull tapes on whether you understood our fee.	1591348	1471970214733	1471970214877	e	69
3164	33379	Don't make me pull tapes on whether you understood our fee.	Don't make me pull tapes on whether you understood our fee.	1591350	1471970215165	1471970215221	BKSP	8
3164	33379	Don't make me pull tapes on whether you understood our fee.	Don't make me pull tapes on whether you understood our fee.	1591354	1471970215349	1471970215461	h	72
3164	33379	Don't make me pull tapes on whether you understood our fee.	Don't make me pull tapes on whether you understood our fee.	1591369	1471970215413	1471970215557	e	69
3164	33379	Don't make me pull tapes on whether you understood our fee.	Don't make me pull tapes on whether you understood our fee.	1591372	1471970215493	1471970215621	r	82
3164	33379	Don't make me pull tapes on whether you understood our fee.	Don't make me pull tapes on whether you understood our fee.	1591375	1471970215741	1471970215813	 	32
3164	33379	Don't make me pull tapes on whether you understood our fee.	Don't make me pull tapes on whether you understood our fee.	1591377	1471970215949	1471970216053	y	89
3164	33379	Don't make me pull tapes on whether you understood our fee.	Don't make me pull tapes on whether you understood our fee.	1591379	1471970216085	1471970216213	o	79
3164	33379	Don't make me pull tapes on whether you understood our fee.	Don't make me pull tapes on whether you understood our fee.	1591414	1471970216197	1471970216253	u	85
3164	33379	Don't make me pull tapes on whether you understood our fee.	Don't make me pull tapes on whether you understood our fee.	1591416	1471970216277	1471970216349	 	32
3164	33379	Don't make me pull tapes on whether you understood our fee.	Don't make me pull tapes on whether you understood our fee.	1591418	1471970216453	1471970216549	u	85
3164	33379	Don't make me pull tapes on whether you understood our fee.	Don't make me pull tapes on whether you understood our fee.	1591420	1471970216677	1471970216781	n	78
3164	33379	Don't make me pull tapes on whether you understood our fee.	Don't make me pull tapes on whether you understood our fee.	1591424	1471970216757	1471970216853	d	68
3164	33379	Don't make me pull tapes on whether you understood our fee.	Don't make me pull tapes on whether you understood our fee.	1591427	1471970216949	1471970217085	e	69
3164	33379	Don't make me pull tapes on whether you understood our fee.	Don't make me pull tapes on whether you understood our fee.	1591491	1471970217213	1471970217301	r	82
3164	33379	Don't make me pull tapes on whether you understood our fee.	Don't make me pull tapes on whether you understood our fee.	1591492	1471970217573	1471970217677	d	68
3164	33379	Don't make me pull tapes on whether you understood our fee.	Don't make me pull tapes on whether you understood our fee.	1591494	1471970217701	1471970217765	o	79
3164	33379	Don't make me pull tapes on whether you understood our fee.	Don't make me pull tapes on whether you understood our fee.	1591495	1471970218045	1471970218117	BKSP	8
3164	33379	Don't make me pull tapes on whether you understood our fee.	Don't make me pull tapes on whether you understood our fee.	1591496	1471970218493	1471970218573	=	187
3164	33379	Don't make me pull tapes on whether you understood our fee.	Don't make me pull tapes on whether you understood our fee.	1591497	1471970218629	1471970218733	s	83
3164	33379	Don't make me pull tapes on whether you understood our fee.	Don't make me pull tapes on whether you understood our fee.	1591559	1471970219029	1471970219093	BKSP	8
3164	33379	Don't make me pull tapes on whether you understood our fee.	Don't make me pull tapes on whether you understood our fee.	1591562	1471970219189	1471970219253	BKSP	8
3164	33379	Don't make me pull tapes on whether you understood our fee.	Don't make me pull tapes on whether you understood our fee.	1591566	1471970219341	1471970219429	BKSP	8
3164	33379	Don't make me pull tapes on whether you understood our fee.	Don't make me pull tapes on whether you understood our fee.	1591567	1471970219469	1471970219605	s	83
3164	33379	Don't make me pull tapes on whether you understood our fee.	Don't make me pull tapes on whether you understood our fee.	1591571	1471970219581	1471970219685	t	84
3164	33379	Don't make me pull tapes on whether you understood our fee.	Don't make me pull tapes on whether you understood our fee.	1591572	1471970219717	1471970219805	o	79
3164	33379	Don't make me pull tapes on whether you understood our fee.	Don't make me pull tapes on whether you understood our fee.	1591577	1471970220037	1471970220165	o	79
3164	33379	Don't make me pull tapes on whether you understood our fee.	Don't make me pull tapes on whether you understood our fee.	1591578	1471970220213	1471970220333	d	68
3164	33379	Don't make me pull tapes on whether you understood our fee.	Don't make me pull tapes on whether you understood our fee.	1591608	1471970220421	1471970220501	 	32
3164	33379	Don't make me pull tapes on whether you understood our fee.	Don't make me pull tapes on whether you understood our fee.	1591612	1471970220661	1471970220790	o	79
3164	33379	Don't make me pull tapes on whether you understood our fee.	Don't make me pull tapes on whether you understood our fee.	1591614	1471970220765	1471970220901	u	85
3164	33379	Don't make me pull tapes on whether you understood our fee.	Don't make me pull tapes on whether you understood our fee.	1591616	1471970220813	1471970220941	r	82
3164	33379	Don't make me pull tapes on whether you understood our fee.	Don't make me pull tapes on whether you understood our fee.	1591619	1471970220997	1471970221117	 	32
3164	33379	Don't make me pull tapes on whether you understood our fee.	Don't make me pull tapes on whether you understood our fee.	1591661	1471970221277	1471970221349	f	70
3164	33379	Don't make me pull tapes on whether you understood our fee.	Don't make me pull tapes on whether you understood our fee.	1591663	1471970221477	1471970221557	e	69
3164	33379	Don't make me pull tapes on whether you understood our fee.	Don't make me pull tapes on whether you understood our fee.	1591666	1471970221629	1471970221717	e	69
3164	33379	Don't make me pull tapes on whether you understood our fee.	Don't make me pull tapes on whether you understood our fee.	1591672	1471970221797	1471970221901	.	190
3164	33395	Moreover we have the feeling that we are finally in our own country.	Moreover we have the feeling that we are finally in our own country.	1591805	1471970224621	1471970224757	SHIFT	16
3164	33395	Moreover we have the feeling that we are finally in our own country.	Moreover we have the feeling that we are finally in our own country.	1591806	1471970224677	1471970224797	M	77
3164	33395	Moreover we have the feeling that we are finally in our own country.	Moreover we have the feeling that we are finally in our own country.	1591807	1471970224781	1471970224885	o	79
3164	33395	Moreover we have the feeling that we are finally in our own country.	Moreover we have the feeling that we are finally in our own country.	1591808	1471970224853	1471970224949	r	82
3164	33395	Moreover we have the feeling that we are finally in our own country.	Moreover we have the feeling that we are finally in our own country.	1591809	1471970224989	1471970225077	e	69
3164	33395	Moreover we have the feeling that we are finally in our own country.	Moreover we have the feeling that we are finally in our own country.	1591810	1471970225253	1471970225389	o	79
3164	33395	Moreover we have the feeling that we are finally in our own country.	Moreover we have the feeling that we are finally in our own country.	1591839	1471970225437	1471970225525	v	86
3164	33395	Moreover we have the feeling that we are finally in our own country.	Moreover we have the feeling that we are finally in our own country.	1591841	1471970225589	1471970225741	e	69
3164	33395	Moreover we have the feeling that we are finally in our own country.	Moreover we have the feeling that we are finally in our own country.	1591844	1471970225701	1471970225805	r	82
3164	33395	Moreover we have the feeling that we are finally in our own country.	Moreover we have the feeling that we are finally in our own country.	1591848	1471970226037	1471970226133	 	32
3164	33395	Moreover we have the feeling that we are finally in our own country.	Moreover we have the feeling that we are finally in our own country.	1591852	1471970226221	1471970226301	i	73
3164	33395	Moreover we have the feeling that we are finally in our own country.	Moreover we have the feeling that we are finally in our own country.	1591873	1471970226557	1471970226629	BKSP	8
3164	33395	Moreover we have the feeling that we are finally in our own country.	Moreover we have the feeling that we are finally in our own country.	1591877	1471970226653	1471970226764	w	87
3164	33395	Moreover we have the feeling that we are finally in our own country.	Moreover we have the feeling that we are finally in our own country.	1591882	1471970226709	1471970226813	e	69
3164	33395	Moreover we have the feeling that we are finally in our own country.	Moreover we have the feeling that we are finally in our own country.	1591892	1471970226869	1471970226965	 	32
3164	33395	Moreover we have the feeling that we are finally in our own country.	Moreover we have the feeling that we are finally in our own country.	1591895	1471970227037	1471970227160	h	72
3164	33395	Moreover we have the feeling that we are finally in our own country.	Moreover we have the feeling that we are finally in our own country.	1591916	1471970227133	1471970227244	a	65
3164	33395	Moreover we have the feeling that we are finally in our own country.	Moreover we have the feeling that we are finally in our own country.	1591918	1471970227221	1471970227293	v	86
3164	33395	Moreover we have the feeling that we are finally in our own country.	Moreover we have the feeling that we are finally in our own country.	1591921	1471970227373	1471970227485	e	69
3164	33395	Moreover we have the feeling that we are finally in our own country.	Moreover we have the feeling that we are finally in our own country.	1591925	1471970227533	1471970227636	 	32
3164	33395	Moreover we have the feeling that we are finally in our own country.	Moreover we have the feeling that we are finally in our own country.	1591928	1471970227708	1471970227788	t	84
3164	33395	Moreover we have the feeling that we are finally in our own country.	Moreover we have the feeling that we are finally in our own country.	1591945	1471970227764	1471970227892	h	72
3164	33395	Moreover we have the feeling that we are finally in our own country.	Moreover we have the feeling that we are finally in our own country.	1591953	1471970227828	1471970227932	e	69
3164	33395	Moreover we have the feeling that we are finally in our own country.	Moreover we have the feeling that we are finally in our own country.	1591962	1471970227956	1471970228060	 	32
3164	33395	Moreover we have the feeling that we are finally in our own country.	Moreover we have the feeling that we are finally in our own country.	1591968	1471970228148	1471970228236	f	70
3164	33395	Moreover we have the feeling that we are finally in our own country.	Moreover we have the feeling that we are finally in our own country.	1591973	1471970228324	1471970228428	e	69
3164	33395	Moreover we have the feeling that we are finally in our own country.	Moreover we have the feeling that we are finally in our own country.	1591976	1471970228596	1471970228741	e	69
3164	33395	Moreover we have the feeling that we are finally in our own country.	Moreover we have the feeling that we are finally in our own country.	1591996	1471970228948	1471970229036	l	76
3164	33395	Moreover we have the feeling that we are finally in our own country.	Moreover we have the feeling that we are finally in our own country.	1591999	1471970229116	1471970229277	i	73
3164	33395	Moreover we have the feeling that we are finally in our own country.	Moreover we have the feeling that we are finally in our own country.	1592002	1471970229220	1471970229381	n	78
3164	33395	Moreover we have the feeling that we are finally in our own country.	Moreover we have the feeling that we are finally in our own country.	1592004	1471970229357	1471970229469	g	71
3164	33395	Moreover we have the feeling that we are finally in our own country.	Moreover we have the feeling that we are finally in our own country.	1592005	1471970229493	1471970229589	 	32
3164	33395	Moreover we have the feeling that we are finally in our own country.	Moreover we have the feeling that we are finally in our own country.	1592029	1471970229693	1471970229797	t	84
3164	33395	Moreover we have the feeling that we are finally in our own country.	Moreover we have the feeling that we are finally in our own country.	1592031	1471970229749	1471970229861	h	72
3164	33395	Moreover we have the feeling that we are finally in our own country.	Moreover we have the feeling that we are finally in our own country.	1592033	1471970229877	1471970229957	a	65
3164	33395	Moreover we have the feeling that we are finally in our own country.	Moreover we have the feeling that we are finally in our own country.	1592035	1471970229981	1471970230085	t	84
3164	33395	Moreover we have the feeling that we are finally in our own country.	Moreover we have the feeling that we are finally in our own country.	1592037	1471970230253	1471970230349	 	32
3164	33395	Moreover we have the feeling that we are finally in our own country.	Moreover we have the feeling that we are finally in our own country.	1592051	1471970230621	1471970230725	w	87
3164	33395	Moreover we have the feeling that we are finally in our own country.	Moreover we have the feeling that we are finally in our own country.	1592054	1471970230749	1471970230845	e	69
3164	33395	Moreover we have the feeling that we are finally in our own country.	Moreover we have the feeling that we are finally in our own country.	1592057	1471970230861	1471970230957	 	32
3164	33395	Moreover we have the feeling that we are finally in our own country.	Moreover we have the feeling that we are finally in our own country.	1592060	1471970231005	1471970231157	a	65
3164	33395	Moreover we have the feeling that we are finally in our own country.	Moreover we have the feeling that we are finally in our own country.	1592104	1471970231125	1471970231237	r	82
3164	33395	Moreover we have the feeling that we are finally in our own country.	Moreover we have the feeling that we are finally in our own country.	1592106	1471970231317	1471970231453	e	69
3164	33395	Moreover we have the feeling that we are finally in our own country.	Moreover we have the feeling that we are finally in our own country.	1592107	1471970231509	1471970231597	 	32
3164	33395	Moreover we have the feeling that we are finally in our own country.	Moreover we have the feeling that we are finally in our own country.	1592110	1471970231901	1471970231973	f	70
3164	33395	Moreover we have the feeling that we are finally in our own country.	Moreover we have the feeling that we are finally in our own country.	1592114	1471970232101	1471970232237	i	73
3164	33395	Moreover we have the feeling that we are finally in our own country.	Moreover we have the feeling that we are finally in our own country.	1592118	1471970232261	1471970232341	n	78
3164	33395	Moreover we have the feeling that we are finally in our own country.	Moreover we have the feeling that we are finally in our own country.	1592144	1471970232365	1471970232493	a	65
3164	33395	Moreover we have the feeling that we are finally in our own country.	Moreover we have the feeling that we are finally in our own country.	1592146	1471970232461	1471970232549	l	76
3164	33395	Moreover we have the feeling that we are finally in our own country.	Moreover we have the feeling that we are finally in our own country.	1592148	1471970232637	1471970232749	l	76
3164	33395	Moreover we have the feeling that we are finally in our own country.	Moreover we have the feeling that we are finally in our own country.	1592150	1471970232845	1471970232941	y	89
3164	33395	Moreover we have the feeling that we are finally in our own country.	Moreover we have the feeling that we are finally in our own country.	1592156	1471970233005	1471970233117	 	32
3164	33395	Moreover we have the feeling that we are finally in our own country.	Moreover we have the feeling that we are finally in our own country.	1592195	1471970233251	1471970233389	i	73
3164	33395	Moreover we have the feeling that we are finally in our own country.	Moreover we have the feeling that we are finally in our own country.	1592198	1471970233341	1471970233489	n	78
3164	33395	Moreover we have the feeling that we are finally in our own country.	Moreover we have the feeling that we are finally in our own country.	1592200	1471970233469	1471970233549	 	32
3164	33395	Moreover we have the feeling that we are finally in our own country.	Moreover we have the feeling that we are finally in our own country.	1592201	1471970233565	1471970233693	o	79
3164	33395	Moreover we have the feeling that we are finally in our own country.	Moreover we have the feeling that we are finally in our own country.	1592249	1471970233669	1471970233797	u	85
3164	33395	Moreover we have the feeling that we are finally in our own country.	Moreover we have the feeling that we are finally in our own country.	1592251	1471970233965	1471970234069	r	82
3164	33395	Moreover we have the feeling that we are finally in our own country.	Moreover we have the feeling that we are finally in our own country.	1592254	1471970234189	1471970234277	 	32
3164	33395	Moreover we have the feeling that we are finally in our own country.	Moreover we have the feeling that we are finally in our own country.	1592256	1471970234517	1471970234597	o	79
3164	33395	Moreover we have the feeling that we are finally in our own country.	Moreover we have the feeling that we are finally in our own country.	1592258	1471970234693	1471970234805	w	87
3164	33395	Moreover we have the feeling that we are finally in our own country.	Moreover we have the feeling that we are finally in our own country.	1592260	1471970234821	1471970234917	n	78
3164	33395	Moreover we have the feeling that we are finally in our own country.	Moreover we have the feeling that we are finally in our own country.	1592303	1471970234957	1471970235045	 	32
3164	33395	Moreover we have the feeling that we are finally in our own country.	Moreover we have the feeling that we are finally in our own country.	1592304	1471970235181	1471970235317	c	67
3164	33395	Moreover we have the feeling that we are finally in our own country.	Moreover we have the feeling that we are finally in our own country.	1592305	1471970235221	1471970235365	o	79
3164	33395	Moreover we have the feeling that we are finally in our own country.	Moreover we have the feeling that we are finally in our own country.	1592306	1471970235389	1471970235524	i	73
3164	33395	Moreover we have the feeling that we are finally in our own country.	Moreover we have the feeling that we are finally in our own country.	1592307	1471970235941	1471970236013	BKSP	8
3164	33395	Moreover we have the feeling that we are finally in our own country.	Moreover we have the feeling that we are finally in our own country.	1592309	1471970236165	1471970236245	u	85
3164	33395	Moreover we have the feeling that we are finally in our own country.	Moreover we have the feeling that we are finally in our own country.	1592362	1471970236373	1471970236477	n	78
3164	33395	Moreover we have the feeling that we are finally in our own country.	Moreover we have the feeling that we are finally in our own country.	1592364	1471970236557	1471970236645	t	84
3164	33395	Moreover we have the feeling that we are finally in our own country.	Moreover we have the feeling that we are finally in our own country.	1592365	1471970236773	1471970236869	y	89
3164	33395	Moreover we have the feeling that we are finally in our own country.	Moreover we have the feeling that we are finally in our own country.	1592367	1471970237277	1471970237341	BKSP	8
3164	33395	Moreover we have the feeling that we are finally in our own country.	Moreover we have the feeling that we are finally in our own country.	1592370	1471970237317	1471970237413	r	82
3164	33395	Moreover we have the feeling that we are finally in our own country.	Moreover we have the feeling that we are finally in our own country.	1592379	1471970237461	1471970237557	y	89
3164	33395	Moreover we have the feeling that we are finally in our own country.	Moreover we have the feeling that we are finally in our own country.	1592399	1471970237709	1471970237805	.	190
3164	33408	Market analysts said that the ratio was rising.	Market analysts said that the ratio was rising.	1592506	1471970239877	1471970240013	SHIFT	16
3164	33408	Market analysts said that the ratio was rising.	Market analysts said that the ratio was rising.	1592508	1471970239973	1471970240053	M	77
3164	33408	Market analysts said that the ratio was rising.	Market analysts said that the ratio was rising.	1592510	1471970240133	1471970240261	a	65
3164	33408	Market analysts said that the ratio was rising.	Market analysts said that the ratio was rising.	1592512	1471970240237	1471970240349	r	82
3164	33408	Market analysts said that the ratio was rising.	Market analysts said that the ratio was rising.	1592517	1471970240397	1471970240493	k	75
3164	33408	Market analysts said that the ratio was rising.	Market analysts said that the ratio was rising.	1592520	1471970240765	1471970240853	e	69
3164	33408	Market analysts said that the ratio was rising.	Market analysts said that the ratio was rising.	1592551	1471970240957	1471970241053	t	84
3164	33408	Market analysts said that the ratio was rising.	Market analysts said that the ratio was rising.	1592553	1471970241077	1471970241157	 	32
3164	33408	Market analysts said that the ratio was rising.	Market analysts said that the ratio was rising.	1592555	1471970241252	1471970241372	a	65
3164	33408	Market analysts said that the ratio was rising.	Market analysts said that the ratio was rising.	1592556	1471970241349	1471970241421	n	78
3164	33408	Market analysts said that the ratio was rising.	Market analysts said that the ratio was rising.	1592557	1471970241477	1471970241581	a	65
3164	33408	Market analysts said that the ratio was rising.	Market analysts said that the ratio was rising.	1592585	1471970241621	1471970241757	l	76
3164	33408	Market analysts said that the ratio was rising.	Market analysts said that the ratio was rising.	1592588	1471970241861	1471970241949	y	89
3164	33408	Market analysts said that the ratio was rising.	Market analysts said that the ratio was rising.	1592591	1471970242013	1471970242149	s	83
3164	33408	Market analysts said that the ratio was rising.	Market analysts said that the ratio was rising.	1592594	1471970242213	1471970242301	t	84
3164	33408	Market analysts said that the ratio was rising.	Market analysts said that the ratio was rising.	1592597	1471970242357	1471970242469	s	83
3164	33408	Market analysts said that the ratio was rising.	Market analysts said that the ratio was rising.	1592615	1471970242949	1471970243037	 	32
3164	33408	Market analysts said that the ratio was rising.	Market analysts said that the ratio was rising.	1592618	1471970243085	1471970243245	s	83
3164	33408	Market analysts said that the ratio was rising.	Market analysts said that the ratio was rising.	1592620	1471970243269	1471970243381	a	65
3164	33408	Market analysts said that the ratio was rising.	Market analysts said that the ratio was rising.	1592622	1471970243357	1471970243461	i	73
3164	33408	Market analysts said that the ratio was rising.	Market analysts said that the ratio was rising.	1592623	1471970243485	1471970243557	d	68
3164	33408	Market analysts said that the ratio was rising.	Market analysts said that the ratio was rising.	1592631	1471970243629	1471970243725	 	32
3164	33408	Market analysts said that the ratio was rising.	Market analysts said that the ratio was rising.	1592633	1471970243781	1471970243869	t	84
3164	33408	Market analysts said that the ratio was rising.	Market analysts said that the ratio was rising.	1592635	1471970243893	1471970243997	h	72
3164	33408	Market analysts said that the ratio was rising.	Market analysts said that the ratio was rising.	1592638	1471970243949	1471970244069	a	65
3164	33408	Market analysts said that the ratio was rising.	Market analysts said that the ratio was rising.	1592650	1471970244012	1471970244125	t	84
3164	33408	Market analysts said that the ratio was rising.	Market analysts said that the ratio was rising.	1592653	1471970244101	1471970244188	 	32
3164	33408	Market analysts said that the ratio was rising.	Market analysts said that the ratio was rising.	1592655	1471970244221	1471970244325	t	84
3164	33408	Market analysts said that the ratio was rising.	Market analysts said that the ratio was rising.	1592656	1471970244261	1471970244421	h	72
3164	33408	Market analysts said that the ratio was rising.	Market analysts said that the ratio was rising.	1592657	1471970244397	1471970244477	e	69
3164	33408	Market analysts said that the ratio was rising.	Market analysts said that the ratio was rising.	1592691	1471970244439	1471970244525	 	32
3164	33408	Market analysts said that the ratio was rising.	Market analysts said that the ratio was rising.	1592694	1471970244709	1471970244861	r	82
3164	33408	Market analysts said that the ratio was rising.	Market analysts said that the ratio was rising.	1592698	1471970244885	1471970245013	a	65
3164	33408	Market analysts said that the ratio was rising.	Market analysts said that the ratio was rising.	1592702	1471970245293	1471970245381	t	84
3164	33408	Market analysts said that the ratio was rising.	Market analysts said that the ratio was rising.	1592706	1471970245357	1471970245516	i	73
3164	33408	Market analysts said that the ratio was rising.	Market analysts said that the ratio was rising.	1592734	1471970245453	1471970245620	o	79
3164	33408	Market analysts said that the ratio was rising.	Market analysts said that the ratio was rising.	1592735	1471970245652	1471970245741	 	32
3164	33408	Market analysts said that the ratio was rising.	Market analysts said that the ratio was rising.	1592736	1471970245829	1471970245916	w	87
3164	33408	Market analysts said that the ratio was rising.	Market analysts said that the ratio was rising.	1592737	1471970245989	1471970246124	a	65
3164	33408	Market analysts said that the ratio was rising.	Market analysts said that the ratio was rising.	1592738	1471970246085	1471970246212	s	83
3164	33408	Market analysts said that the ratio was rising.	Market analysts said that the ratio was rising.	1592739	1471970246229	1471970246325	 	32
3164	33408	Market analysts said that the ratio was rising.	Market analysts said that the ratio was rising.	1592765	1471970246629	1471970246708	r	82
3164	33408	Market analysts said that the ratio was rising.	Market analysts said that the ratio was rising.	1592769	1471970246733	1471970246804	i	73
3164	33408	Market analysts said that the ratio was rising.	Market analysts said that the ratio was rising.	1592771	1471970246821	1471970246972	s	83
3164	33408	Market analysts said that the ratio was rising.	Market analysts said that the ratio was rising.	1592773	1471970246997	1471970247164	i	73
3164	33408	Market analysts said that the ratio was rising.	Market analysts said that the ratio was rising.	1592796	1471970247117	1471970247268	n	78
3164	33408	Market analysts said that the ratio was rising.	Market analysts said that the ratio was rising.	1592794	1471970247189	1471970247252	g	71
3164	33408	Market analysts said that the ratio was rising.	Market analysts said that the ratio was rising.	1592798	1471970247437	1471970247524	.	190
3164	33417	I think that we should enforce the agreement.	I think that we should enforce the agreement.	1592901	1471970250525	1471970250804	SHIFT	16
3164	33417	I think that we should enforce the agreement.	I think that we should enforce the agreement.	1592903	1471970250724	1471970250828	I	73
3164	33417	I think that we should enforce the agreement.	I think that we should enforce the agreement.	1592904	1471970250868	1471970250956	 	32
3164	33417	I think that we should enforce the agreement.	I think that we should enforce the agreement.	1592905	1471970251036	1471970251153	t	84
3164	33417	I think that we should enforce the agreement.	I think that we should enforce the agreement.	1592906	1471970251124	1471970251228	h	72
3164	33417	I think that we should enforce the agreement.	I think that we should enforce the agreement.	1592907	1471970251252	1471970251332	i	73
3164	33417	I think that we should enforce the agreement.	I think that we should enforce the agreement.	1592915	1471970251356	1471970251500	n	78
3164	33417	I think that we should enforce the agreement.	I think that we should enforce the agreement.	1592918	1471970251524	1471970251612	k	75
3164	33417	I think that we should enforce the agreement.	I think that we should enforce the agreement.	1592921	1471970251636	1471970251732	 	32
3164	33417	I think that we should enforce the agreement.	I think that we should enforce the agreement.	1592924	1471970251876	1471970251964	t	84
3164	33417	I think that we should enforce the agreement.	I think that we should enforce the agreement.	1592927	1471970251916	1471970252036	h	72
3164	33417	I think that we should enforce the agreement.	I think that we should enforce the agreement.	1592929	1471970252004	1471970252132	a	65
3164	33417	I think that we should enforce the agreement.	I think that we should enforce the agreement.	1592930	1471970252092	1471970252204	t	84
3164	33417	I think that we should enforce the agreement.	I think that we should enforce the agreement.	1592932	1471970252180	1471970252300	 	32
3164	33417	I think that we should enforce the agreement.	I think that we should enforce the agreement.	1592936	1471970252348	1471970252492	w	87
3164	33417	I think that we should enforce the agreement.	I think that we should enforce the agreement.	1592963	1471970252452	1471970252548	e	69
3164	33417	I think that we should enforce the agreement.	I think that we should enforce the agreement.	1592968	1471970252565	1471970252650	 	32
3164	33417	I think that we should enforce the agreement.	I think that we should enforce the agreement.	1592972	1471970252748	1471970252868	s	83
3164	33417	I think that we should enforce the agreement.	I think that we should enforce the agreement.	1592973	1471970252796	1471970252916	h	72
3164	33417	I think that we should enforce the agreement.	I think that we should enforce the agreement.	1592974	1471970252940	1471970253069	o	79
3164	33417	I think that we should enforce the agreement.	I think that we should enforce the agreement.	1592997	1471970253045	1471970253092	u	85
3164	33417	I think that we should enforce the agreement.	I think that we should enforce the agreement.	1592998	1471970253156	1471970253244	l	76
3164	33417	I think that we should enforce the agreement.	I think that we should enforce the agreement.	1592999	1471970253196	1471970253325	d	68
3164	33417	I think that we should enforce the agreement.	I think that we should enforce the agreement.	1593001	1471970253548	1471970253628	 	32
3164	33417	I think that we should enforce the agreement.	I think that we should enforce the agreement.	1593003	1471970253940	1471970254012	e	69
3164	33417	I think that we should enforce the agreement.	I think that we should enforce the agreement.	1593005	1471970254045	1471970254132	n	78
3164	33417	I think that we should enforce the agreement.	I think that we should enforce the agreement.	1593033	1471970254188	1471970254284	f	70
3164	33417	I think that we should enforce the agreement.	I think that we should enforce the agreement.	1593035	1471970254300	1471970254396	o	79
3164	33417	I think that we should enforce the agreement.	I think that we should enforce the agreement.	1593036	1471970254420	1471970254476	r	82
3164	33417	I think that we should enforce the agreement.	I think that we should enforce the agreement.	1593038	1471970254892	1471970254956	c	67
3164	33417	I think that we should enforce the agreement.	I think that we should enforce the agreement.	1593040	1471970255100	1471970255196	e	69
3164	33417	I think that we should enforce the agreement.	I think that we should enforce the agreement.	1593060	1471970255644	1471970255708	 	32
3164	33417	I think that we should enforce the agreement.	I think that we should enforce the agreement.	1593062	1471970255788	1471970255876	t	84
3164	33417	I think that we should enforce the agreement.	I think that we should enforce the agreement.	1593064	1471970255892	1471970255964	h	72
3164	33417	I think that we should enforce the agreement.	I think that we should enforce the agreement.	1593066	1471970255932	1471970256028	e	69
3164	33417	I think that we should enforce the agreement.	I think that we should enforce the agreement.	1593068	1471970256076	1471970256132	 	32
3164	33417	I think that we should enforce the agreement.	I think that we should enforce the agreement.	1593115	1471970256220	1471970256380	a	65
3164	33417	I think that we should enforce the agreement.	I think that we should enforce the agreement.	1593121	1471970256404	1471970256476	g	71
3164	33417	I think that we should enforce the agreement.	I think that we should enforce the agreement.	1593123	1471970256580	1471970256676	r	82
3164	33417	I think that we should enforce the agreement.	I think that we should enforce the agreement.	1593124	1471970256716	1471970256788	e	69
3164	33417	I think that we should enforce the agreement.	I think that we should enforce the agreement.	1593125	1471970256884	1471970256980	e	69
3164	33417	I think that we should enforce the agreement.	I think that we should enforce the agreement.	1593145	1471970257060	1471970257184	m	77
3164	33417	I think that we should enforce the agreement.	I think that we should enforce the agreement.	1593149	1471970257156	1471970257260	e	69
3164	33417	I think that we should enforce the agreement.	I think that we should enforce the agreement.	1593153	1471970257284	1471970257413	n	78
3164	33417	I think that we should enforce the agreement.	I think that we should enforce the agreement.	1593155	1471970257388	1471970257476	t	84
3164	33417	I think that we should enforce the agreement.	I think that we should enforce the agreement.	1593156	1471970257612	1471970257700	.	190
3164	33423	We are delayed, got another 30 minutes on the runway.	We are delayed, got another 30 minutes on the runway.	1593242	1471970259716	1471970259940	SHIFT	16
3164	33423	We are delayed, got another 30 minutes on the runway.	We are delayed, got another 30 minutes on the runway.	1593244	1471970259812	1471970259956	W	87
3164	33423	We are delayed, got another 30 minutes on the runway.	We are delayed, got another 30 minutes on the runway.	1593248	1471970260004	1471970260108	e	69
3164	33423	We are delayed, got another 30 minutes on the runway.	We are delayed, got another 30 minutes on the runway.	1593250	1471970260292	1471970260372	 	32
3164	33423	We are delayed, got another 30 minutes on the runway.	We are delayed, got another 30 minutes on the runway.	1593252	1471970260444	1471970260612	a	65
3164	33423	We are delayed, got another 30 minutes on the runway.	We are delayed, got another 30 minutes on the runway.	1593267	1471970260572	1471970260684	r	82
3164	33423	We are delayed, got another 30 minutes on the runway.	We are delayed, got another 30 minutes on the runway.	1593271	1471970260708	1471970260804	e	69
3164	33423	We are delayed, got another 30 minutes on the runway.	We are delayed, got another 30 minutes on the runway.	1593273	1471970260884	1471970260948	 	32
3164	33423	We are delayed, got another 30 minutes on the runway.	We are delayed, got another 30 minutes on the runway.	1593275	1471970261020	1471970261108	d	68
3164	33423	We are delayed, got another 30 minutes on the runway.	We are delayed, got another 30 minutes on the runway.	1593277	1471970261180	1471970261268	e	69
3164	33423	We are delayed, got another 30 minutes on the runway.	We are delayed, got another 30 minutes on the runway.	1593281	1471970261292	1471970261444	l	76
3164	33423	We are delayed, got another 30 minutes on the runway.	We are delayed, got another 30 minutes on the runway.	1593317	1471970261564	1471970261692	a	65
3164	33423	We are delayed, got another 30 minutes on the runway.	We are delayed, got another 30 minutes on the runway.	1593318	1471970261716	1471970261804	y	89
3164	33423	We are delayed, got another 30 minutes on the runway.	We are delayed, got another 30 minutes on the runway.	1593319	1471970261852	1471970261932	e	69
3164	33423	We are delayed, got another 30 minutes on the runway.	We are delayed, got another 30 minutes on the runway.	1593320	1471970262044	1471970262140	d	68
3164	33423	We are delayed, got another 30 minutes on the runway.	We are delayed, got another 30 minutes on the runway.	1593321	1471970262452	1471970262556	,	188
3164	33423	We are delayed, got another 30 minutes on the runway.	We are delayed, got another 30 minutes on the runway.	1593327	1471970262588	1471970262660	 	32
3164	33423	We are delayed, got another 30 minutes on the runway.	We are delayed, got another 30 minutes on the runway.	1593329	1471970262860	1471970262940	g	71
3164	33423	We are delayed, got another 30 minutes on the runway.	We are delayed, got another 30 minutes on the runway.	1593331	1471970262916	1471970263052	o	79
3164	33423	We are delayed, got another 30 minutes on the runway.	We are delayed, got another 30 minutes on the runway.	1593334	1471970263092	1471970263188	t	84
3164	33423	We are delayed, got another 30 minutes on the runway.	We are delayed, got another 30 minutes on the runway.	1593337	1471970263252	1471970263356	 	32
3164	33423	We are delayed, got another 30 minutes on the runway.	We are delayed, got another 30 minutes on the runway.	1593344	1471970263412	1471970263540	a	65
3164	33423	We are delayed, got another 30 minutes on the runway.	We are delayed, got another 30 minutes on the runway.	1593346	1471970263564	1471970263644	n	78
3164	33423	We are delayed, got another 30 minutes on the runway.	We are delayed, got another 30 minutes on the runway.	1593348	1471970263676	1471970263772	o	79
3164	33423	We are delayed, got another 30 minutes on the runway.	We are delayed, got another 30 minutes on the runway.	1593350	1471970263796	1471970263884	t	84
3164	33423	We are delayed, got another 30 minutes on the runway.	We are delayed, got another 30 minutes on the runway.	1593387	1471970263860	1471970263924	h	72
3164	33423	We are delayed, got another 30 minutes on the runway.	We are delayed, got another 30 minutes on the runway.	1593389	1471970264060	1471970264196	e	69
3164	33423	We are delayed, got another 30 minutes on the runway.	We are delayed, got another 30 minutes on the runway.	1593393	1471970264148	1471970264236	r	82
3164	33423	We are delayed, got another 30 minutes on the runway.	We are delayed, got another 30 minutes on the runway.	1593397	1471970264660	1471970264780	 	32
3164	33423	We are delayed, got another 30 minutes on the runway.	We are delayed, got another 30 minutes on the runway.	1593400	1471970264852	1471970264932	3	51
3164	33423	We are delayed, got another 30 minutes on the runway.	We are delayed, got another 30 minutes on the runway.	1593403	1471970264980	1471970265084	0	48
3164	33423	We are delayed, got another 30 minutes on the runway.	We are delayed, got another 30 minutes on the runway.	1593416	1471970265156	1471970265244	 	32
3164	33423	We are delayed, got another 30 minutes on the runway.	We are delayed, got another 30 minutes on the runway.	1593417	1471970265324	1471970265404	m	77
3164	33423	We are delayed, got another 30 minutes on the runway.	We are delayed, got another 30 minutes on the runway.	1593418	1471970265452	1471970265588	i	73
3164	33423	We are delayed, got another 30 minutes on the runway.	We are delayed, got another 30 minutes on the runway.	1593420	1471970265564	1471970265644	n	78
3164	33423	We are delayed, got another 30 minutes on the runway.	We are delayed, got another 30 minutes on the runway.	1593422	1471970265756	1471970265852	u	85
3164	33423	We are delayed, got another 30 minutes on the runway.	We are delayed, got another 30 minutes on the runway.	1593456	1471970266188	1471970266268	t	84
3164	33423	We are delayed, got another 30 minutes on the runway.	We are delayed, got another 30 minutes on the runway.	1593458	1471970266348	1471970266444	e	69
3164	33423	We are delayed, got another 30 minutes on the runway.	We are delayed, got another 30 minutes on the runway.	1593460	1471970266572	1471970266692	s	83
3164	33423	We are delayed, got another 30 minutes on the runway.	We are delayed, got another 30 minutes on the runway.	1593462	1471970266772	1471970266836	 	32
3164	33423	We are delayed, got another 30 minutes on the runway.	We are delayed, got another 30 minutes on the runway.	1593464	1471970266924	1471970267068	o	79
3164	33423	We are delayed, got another 30 minutes on the runway.	We are delayed, got another 30 minutes on the runway.	1593477	1471970267004	1471970267156	n	78
3164	33423	We are delayed, got another 30 minutes on the runway.	We are delayed, got another 30 minutes on the runway.	1593478	1471970267180	1471970267244	 	32
3164	33423	We are delayed, got another 30 minutes on the runway.	We are delayed, got another 30 minutes on the runway.	1593479	1471970267332	1471970267444	t	84
3164	33423	We are delayed, got another 30 minutes on the runway.	We are delayed, got another 30 minutes on the runway.	1593480	1471970267412	1471970267556	h	72
3164	33423	We are delayed, got another 30 minutes on the runway.	We are delayed, got another 30 minutes on the runway.	1593481	1471970267476	1471970267596	e	69
3164	33423	We are delayed, got another 30 minutes on the runway.	We are delayed, got another 30 minutes on the runway.	1593524	1471970267573	1471970267708	 	32
3164	33423	We are delayed, got another 30 minutes on the runway.	We are delayed, got another 30 minutes on the runway.	1593528	1471970267892	1471970268004	r	82
3164	33423	We are delayed, got another 30 minutes on the runway.	We are delayed, got another 30 minutes on the runway.	1593530	1471970268020	1471970268092	u	85
3164	33423	We are delayed, got another 30 minutes on the runway.	We are delayed, got another 30 minutes on the runway.	1593533	1471970268220	1471970268300	n	78
3164	33423	We are delayed, got another 30 minutes on the runway.	We are delayed, got another 30 minutes on the runway.	1593534	1471970268668	1471970268780	w	87
3164	33423	We are delayed, got another 30 minutes on the runway.	We are delayed, got another 30 minutes on the runway.	1593535	1471970268820	1471970268948	a	65
3164	33423	We are delayed, got another 30 minutes on the runway.	We are delayed, got another 30 minutes on the runway.	1593536	1471970268916	1471970269028	y	89
3164	33423	We are delayed, got another 30 minutes on the runway.	We are delayed, got another 30 minutes on the runway.	1593539	1471970269236	1471970269332	.	190
3164	33434	Wonder what next week will bring.	Wonder what next week will bring.	1593656	1471970271564	1471970271675	SHIFT	16
3164	33434	Wonder what next week will bring.	Wonder what next week will bring.	1593661	1471970271643	1471970271748	W	87
3164	33434	Wonder what next week will bring.	Wonder what next week will bring.	1593666	1471970271772	1471970271866	o	79
3164	33434	Wonder what next week will bring.	Wonder what next week will bring.	1593672	1471970271884	1471970271989	n	78
3164	33434	Wonder what next week will bring.	Wonder what next week will bring.	1593677	1471970271964	1471970272084	d	68
3164	33434	Wonder what next week will bring.	Wonder what next week will bring.	1593681	1471970272164	1471970272300	e	69
3164	33434	Wonder what next week will bring.	Wonder what next week will bring.	1593703	1471970272212	1471970272348	r	82
3164	33434	Wonder what next week will bring.	Wonder what next week will bring.	1593706	1471970272396	1471970272484	 	32
3164	33434	Wonder what next week will bring.	Wonder what next week will bring.	1593710	1471970272604	1471970272724	w	87
3164	33434	Wonder what next week will bring.	Wonder what next week will bring.	1593713	1471970272700	1471970272820	h	72
3164	33434	Wonder what next week will bring.	Wonder what next week will bring.	1593715	1471970272780	1471970272924	a	65
3164	33434	Wonder what next week will bring.	Wonder what next week will bring.	1593732	1471970272884	1471970272972	t	84
3164	33434	Wonder what next week will bring.	Wonder what next week will bring.	1593735	1471970273044	1471970273140	 	32
3164	33434	Wonder what next week will bring.	Wonder what next week will bring.	1593738	1471970273260	1471970273371	n	78
3164	33434	Wonder what next week will bring.	Wonder what next week will bring.	1593743	1471970273331	1471970273404	e	69
3164	33434	Wonder what next week will bring.	Wonder what next week will bring.	1593749	1471970273556	1471970273684	x	88
3164	33434	Wonder what next week will bring.	Wonder what next week will bring.	1593753	1471970273740	1471970273828	t	84
3164	33434	Wonder what next week will bring.	Wonder what next week will bring.	1593791	1471970273852	1471970273956	 	32
3164	33434	Wonder what next week will bring.	Wonder what next week will bring.	1593792	1471970273996	1471970274124	w	87
3164	33434	Wonder what next week will bring.	Wonder what next week will bring.	1593793	1471970274092	1471970274188	e	69
3164	33434	Wonder what next week will bring.	Wonder what next week will bring.	1593795	1471970274268	1471970274372	e	69
3164	33434	Wonder what next week will bring.	Wonder what next week will bring.	1593798	1471970274388	1471970274484	k	75
3164	33434	Wonder what next week will bring.	Wonder what next week will bring.	1593807	1471970274524	1471970274628	 	32
3164	33434	Wonder what next week will bring.	Wonder what next week will bring.	1593813	1471970274716	1471970274820	w	87
3164	33434	Wonder what next week will bring.	Wonder what next week will bring.	1593816	1471970274796	1471970274892	i	73
3164	33434	Wonder what next week will bring.	Wonder what next week will bring.	1593820	1471970275156	1471970275236	l	76
3164	33434	Wonder what next week will bring.	Wonder what next week will bring.	1593825	1471970275340	1471970275404	l	76
3164	33434	Wonder what next week will bring.	Wonder what next week will bring.	1593851	1471970275452	1471970275532	 	32
3164	33434	Wonder what next week will bring.	Wonder what next week will bring.	1593852	1471970275796	1471970275884	b	66
3164	33434	Wonder what next week will bring.	Wonder what next week will bring.	1593853	1471970276036	1471970276124	r	82
3164	33434	Wonder what next week will bring.	Wonder what next week will bring.	1593854	1471970276252	1471970276436	i	73
3164	33434	Wonder what next week will bring.	Wonder what next week will bring.	1593861	1471970276388	1471970276524	n	78
3164	33434	Wonder what next week will bring.	Wonder what next week will bring.	1593863	1471970276459	1471970276540	g	71
3164	33434	Wonder what next week will bring.	Wonder what next week will bring.	1593868	1471970276721	1471970276796	.	190
3164	33437	I am out of town until Friday.	I am out of town until Friday.	1593996	1471970279284	1471970279412	SHIFT	16
3164	33437	I am out of town until Friday.	I am out of town until Friday.	1593999	1471970279332	1471970279452	I	73
3164	33437	I am out of town until Friday.	I am out of town until Friday.	1594002	1471970279532	1471970279636	a	65
3164	33437	I am out of town until Friday.	I am out of town until Friday.	1594005	1471970279724	1471970279788	 	32
3164	33437	I am out of town until Friday.	I am out of town until Friday.	1594008	1471970279900	1471970280020	m	77
3164	33437	I am out of town until Friday.	I am out of town until Friday.	1594011	1471970280276	1471970280340	BKSP	8
3164	33437	I am out of town until Friday.	I am out of town until Friday.	1594013	1471970280420	1471970280492	BKSP	8
3164	33437	I am out of town until Friday.	I am out of town until Friday.	1594017	1471970280588	1471970280668	BKSP	8
3164	33437	I am out of town until Friday.	I am out of town until Friday.	1594021	1471970280700	1471970280812	 	32
3164	33437	I am out of town until Friday.	I am out of town until Friday.	1594037	1471970280843	1471970281004	a	65
3164	33437	I am out of town until Friday.	I am out of town until Friday.	1594038	1471970280964	1471970281066	m	77
3164	33437	I am out of town until Friday.	I am out of town until Friday.	1594039	1471970281116	1471970281204	 	32
3164	33437	I am out of town until Friday.	I am out of town until Friday.	1594041	1471970281396	1471970281515	o	79
3164	33437	I am out of town until Friday.	I am out of town until Friday.	1594043	1471970281539	1471970281651	u	85
3164	33437	I am out of town until Friday.	I am out of town until Friday.	1594064	1471970281675	1471970281755	t	84
3164	33437	I am out of town until Friday.	I am out of town until Friday.	1594069	1471970281787	1471970281915	 	32
3164	33437	I am out of town until Friday.	I am out of town until Friday.	1594075	1471970281955	1471970282067	o	79
3164	33437	I am out of town until Friday.	I am out of town until Friday.	1594081	1471970282043	1471970282171	f	70
3164	33437	I am out of town until Friday.	I am out of town until Friday.	1594120	1471970282155	1471970282251	 	32
3164	33437	I am out of town until Friday.	I am out of town until Friday.	1594121	1471970282291	1471970282403	o	79
3164	33437	I am out of town until Friday.	I am out of town until Friday.	1594122	1471970282979	1471970283003	BKSP	8
3164	33437	I am out of town until Friday.	I am out of town until Friday.	1594123	1471970283027	1471970283132	t	84
3164	33437	I am out of town until Friday.	I am out of town until Friday.	1594124	1471970283180	1471970283276	o	79
3164	33437	I am out of town until Friday.	I am out of town until Friday.	1594125	1471970283300	1471970283413	w	87
3164	33437	I am out of town until Friday.	I am out of town until Friday.	1594165	1471970283396	1471970283492	n	78
3164	33437	I am out of town until Friday.	I am out of town until Friday.	1594168	1471970283588	1471970283692	 	32
3164	33437	I am out of town until Friday.	I am out of town until Friday.	1594170	1471970283860	1471970283980	u	85
3164	33437	I am out of town until Friday.	I am out of town until Friday.	1594172	1471970284108	1471970284196	n	78
3164	33437	I am out of town until Friday.	I am out of town until Friday.	1594173	1471970284324	1471970284412	t	84
3164	33437	I am out of town until Friday.	I am out of town until Friday.	1594174	1471970284436	1471970284564	i	73
3164	33437	I am out of town until Friday.	I am out of town until Friday.	1594199	1471970284524	1471970284652	l	76
3164	33437	I am out of town until Friday.	I am out of town until Friday.	1594201	1471970284692	1471970284772	 	32
3164	33437	I am out of town until Friday.	I am out of town until Friday.	1594203	1471970284860	1471970284948	SHIFT	16
3164	33437	I am out of town until Friday.	I am out of town until Friday.	1594206	1471970284900	1471970284996	F	70
3164	33437	I am out of town until Friday.	I am out of town until Friday.	1594209	1471970285092	1471970285172	r	82
3164	33437	I am out of town until Friday.	I am out of town until Friday.	1594211	1471970285196	1471970285268	i	73
3164	33437	I am out of town until Friday.	I am out of town until Friday.	1594213	1471970285452	1471970285532	d	68
3164	33437	I am out of town until Friday.	I am out of town until Friday.	1594229	1471970285788	1471970285868	a	65
3164	33437	I am out of town until Friday.	I am out of town until Friday.	1594230	1471970285900	1471970285980	y	89
3164	33437	I am out of town until Friday.	I am out of town until Friday.	1594232	1471970286188	1471970286268	.	190
3164	33446	Team Chick hasn't been in the SuperBowl every year for no reason.	Team Chick hasn't been in the SuperBowl every year for no reason.	1594347	1471970289260	1471970289380	SHIFT	16
3164	33446	Team Chick hasn't been in the SuperBowl every year for no reason.	Team Chick hasn't been in the SuperBowl every year for no reason.	1594351	1471970289308	1471970289396	T	84
3164	33446	Team Chick hasn't been in the SuperBowl every year for no reason.	Team Chick hasn't been in the SuperBowl every year for no reason.	1594355	1471970289468	1471970289580	e	69
3164	33446	Team Chick hasn't been in the SuperBowl every year for no reason.	Team Chick hasn't been in the SuperBowl every year for no reason.	1594356	1471970289604	1471970289700	a	65
3164	33446	Team Chick hasn't been in the SuperBowl every year for no reason.	Team Chick hasn't been in the SuperBowl every year for no reason.	1594361	1471970289804	1471970289908	m	77
3164	33446	Team Chick hasn't been in the SuperBowl every year for no reason.	Team Chick hasn't been in the SuperBowl every year for no reason.	1594363	1471970290083	1471970290171	 	32
3164	33446	Team Chick hasn't been in the SuperBowl every year for no reason.	Team Chick hasn't been in the SuperBowl every year for no reason.	1594393	1471970290275	1471970290492	SHIFT	16
3164	33446	Team Chick hasn't been in the SuperBowl every year for no reason.	Team Chick hasn't been in the SuperBowl every year for no reason.	1594395	1471970290395	1471970290575	C	67
3164	33446	Team Chick hasn't been in the SuperBowl every year for no reason.	Team Chick hasn't been in the SuperBowl every year for no reason.	1594396	1471970290548	1471970290652	h	72
3164	33446	Team Chick hasn't been in the SuperBowl every year for no reason.	Team Chick hasn't been in the SuperBowl every year for no reason.	1594399	1471970290676	1471970290764	i	73
3164	33446	Team Chick hasn't been in the SuperBowl every year for no reason.	Team Chick hasn't been in the SuperBowl every year for no reason.	1594403	1471970290804	1471970290908	c	67
3164	33446	Team Chick hasn't been in the SuperBowl every year for no reason.	Team Chick hasn't been in the SuperBowl every year for no reason.	1594407	1471970290939	1471970291051	k	75
3164	33446	Team Chick hasn't been in the SuperBowl every year for no reason.	Team Chick hasn't been in the SuperBowl every year for no reason.	1594437	1471970291116	1471970291211	 	32
3164	33446	Team Chick hasn't been in the SuperBowl every year for no reason.	Team Chick hasn't been in the SuperBowl every year for no reason.	1594439	1471970291419	1471970291507	h	72
3164	33446	Team Chick hasn't been in the SuperBowl every year for no reason.	Team Chick hasn't been in the SuperBowl every year for no reason.	1594443	1471970291483	1471970291587	a	65
3164	33446	Team Chick hasn't been in the SuperBowl every year for no reason.	Team Chick hasn't been in the SuperBowl every year for no reason.	1594445	1471970291571	1471970291755	s	83
3164	33446	Team Chick hasn't been in the SuperBowl every year for no reason.	Team Chick hasn't been in the SuperBowl every year for no reason.	1594452	1471970291787	1471970291939	n	78
3164	33446	Team Chick hasn't been in the SuperBowl every year for no reason.	Team Chick hasn't been in the SuperBowl every year for no reason.	1594494	1471970291915	1471970292019	'	222
3164	33446	Team Chick hasn't been in the SuperBowl every year for no reason.	Team Chick hasn't been in the SuperBowl every year for no reason.	1594499	1471970292035	1471970292107	t	84
3164	33446	Team Chick hasn't been in the SuperBowl every year for no reason.	Team Chick hasn't been in the SuperBowl every year for no reason.	1594502	1471970292139	1471970292235	 	32
3164	33446	Team Chick hasn't been in the SuperBowl every year for no reason.	Team Chick hasn't been in the SuperBowl every year for no reason.	1594506	1471970292363	1471970292403	h	72
3164	33446	Team Chick hasn't been in the SuperBowl every year for no reason.	Team Chick hasn't been in the SuperBowl every year for no reason.	1594510	1471970292771	1471970292845	BKSP	8
3164	33446	Team Chick hasn't been in the SuperBowl every year for no reason.	Team Chick hasn't been in the SuperBowl every year for no reason.	1594514	1471970292875	1471970292955	b	66
3164	33446	Team Chick hasn't been in the SuperBowl every year for no reason.	Team Chick hasn't been in the SuperBowl every year for no reason.	1594517	1471970293053	1471970293131	e	69
3164	33446	Team Chick hasn't been in the SuperBowl every year for no reason.	Team Chick hasn't been in the SuperBowl every year for no reason.	1594538	1471970293211	1471970293315	e	69
3164	33446	Team Chick hasn't been in the SuperBowl every year for no reason.	Team Chick hasn't been in the SuperBowl every year for no reason.	1594543	1471970293339	1471970293411	n	78
3164	33446	Team Chick hasn't been in the SuperBowl every year for no reason.	Team Chick hasn't been in the SuperBowl every year for no reason.	1594551	1471970293475	1471970293579	 	32
3164	33446	Team Chick hasn't been in the SuperBowl every year for no reason.	Team Chick hasn't been in the SuperBowl every year for no reason.	1594556	1471970293667	1471970293835	i	73
3164	33446	Team Chick hasn't been in the SuperBowl every year for no reason.	Team Chick hasn't been in the SuperBowl every year for no reason.	1594585	1471970293803	1471970293947	n	78
3164	33446	Team Chick hasn't been in the SuperBowl every year for no reason.	Team Chick hasn't been in the SuperBowl every year for no reason.	1594586	1471970294139	1471970294251	 	32
3164	33446	Team Chick hasn't been in the SuperBowl every year for no reason.	Team Chick hasn't been in the SuperBowl every year for no reason.	1594587	1471970294563	1471970294659	t	84
3164	33446	Team Chick hasn't been in the SuperBowl every year for no reason.	Team Chick hasn't been in the SuperBowl every year for no reason.	1594588	1471970294635	1471970294755	h	72
3164	33446	Team Chick hasn't been in the SuperBowl every year for no reason.	Team Chick hasn't been in the SuperBowl every year for no reason.	1594589	1471970294779	1471970294851	e	69
3164	33446	Team Chick hasn't been in the SuperBowl every year for no reason.	Team Chick hasn't been in the SuperBowl every year for no reason.	1594674	1471970294827	1471970294923	 	32
3164	33446	Team Chick hasn't been in the SuperBowl every year for no reason.	Team Chick hasn't been in the SuperBowl every year for no reason.	1594678	1471970295051	1471970295115	SHIFT	16
3164	33446	Team Chick hasn't been in the SuperBowl every year for no reason.	Team Chick hasn't been in the SuperBowl every year for no reason.	1594680	1471970295075	1471970295163	S	83
3164	33446	Team Chick hasn't been in the SuperBowl every year for no reason.	Team Chick hasn't been in the SuperBowl every year for no reason.	1594681	1471970295243	1471970295427	u	85
3164	33446	Team Chick hasn't been in the SuperBowl every year for no reason.	Team Chick hasn't been in the SuperBowl every year for no reason.	1594682	1471970295395	1471970295523	p	80
3164	33446	Team Chick hasn't been in the SuperBowl every year for no reason.	Team Chick hasn't been in the SuperBowl every year for no reason.	1594683	1471970295811	1471970295859	BKSP	8
3164	33446	Team Chick hasn't been in the SuperBowl every year for no reason.	Team Chick hasn't been in the SuperBowl every year for no reason.	1594684	1471970296451	1471970296531	p	80
3164	33446	Team Chick hasn't been in the SuperBowl every year for no reason.	Team Chick hasn't been in the SuperBowl every year for no reason.	1594685	1471970296571	1471970296723	e	69
3164	33446	Team Chick hasn't been in the SuperBowl every year for no reason.	Team Chick hasn't been in the SuperBowl every year for no reason.	1594737	1471970296651	1471970296795	r	82
3164	33446	Team Chick hasn't been in the SuperBowl every year for no reason.	Team Chick hasn't been in the SuperBowl every year for no reason.	1594739	1471970297259	1471970297387	SHIFT	16
3164	33446	Team Chick hasn't been in the SuperBowl every year for no reason.	Team Chick hasn't been in the SuperBowl every year for no reason.	1594742	1471970297307	1471970297411	B	66
3164	33446	Team Chick hasn't been in the SuperBowl every year for no reason.	Team Chick hasn't been in the SuperBowl every year for no reason.	1594744	1471970297515	1471970297611	o	79
3164	33446	Team Chick hasn't been in the SuperBowl every year for no reason.	Team Chick hasn't been in the SuperBowl every year for no reason.	1594747	1471970298051	1471970298163	w	87
3164	33446	Team Chick hasn't been in the SuperBowl every year for no reason.	Team Chick hasn't been in the SuperBowl every year for no reason.	1594749	1471970298203	1471970298339	l	76
3164	33446	Team Chick hasn't been in the SuperBowl every year for no reason.	Team Chick hasn't been in the SuperBowl every year for no reason.	1594752	1471970298379	1471970298451	 	32
3164	33446	Team Chick hasn't been in the SuperBowl every year for no reason.	Team Chick hasn't been in the SuperBowl every year for no reason.	1594783	1471970298627	1471970298675	e	69
3164	33446	Team Chick hasn't been in the SuperBowl every year for no reason.	Team Chick hasn't been in the SuperBowl every year for no reason.	1594788	1471970298859	1471970298931	v	86
3164	33446	Team Chick hasn't been in the SuperBowl every year for no reason.	Team Chick hasn't been in the SuperBowl every year for no reason.	1594792	1471970299019	1471970299131	e	69
3164	33446	Team Chick hasn't been in the SuperBowl every year for no reason.	Team Chick hasn't been in the SuperBowl every year for no reason.	1594796	1471970299091	1471970299203	r	82
3164	33446	Team Chick hasn't been in the SuperBowl every year for no reason.	Team Chick hasn't been in the SuperBowl every year for no reason.	1594831	1471970299171	1471970299283	y	89
3164	33446	Team Chick hasn't been in the SuperBowl every year for no reason.	Team Chick hasn't been in the SuperBowl every year for no reason.	1594835	1471970299403	1471970299507	 	32
3164	33446	Team Chick hasn't been in the SuperBowl every year for no reason.	Team Chick hasn't been in the SuperBowl every year for no reason.	1594837	1471970299747	1471970299851	y	89
3164	33446	Team Chick hasn't been in the SuperBowl every year for no reason.	Team Chick hasn't been in the SuperBowl every year for no reason.	1594838	1471970299795	1471970299931	e	69
3164	33446	Team Chick hasn't been in the SuperBowl every year for no reason.	Team Chick hasn't been in the SuperBowl every year for no reason.	1594839	1471970299891	1471970300043	a	65
3164	33446	Team Chick hasn't been in the SuperBowl every year for no reason.	Team Chick hasn't been in the SuperBowl every year for no reason.	1594874	1471970299955	1471970300107	r	82
3164	33446	Team Chick hasn't been in the SuperBowl every year for no reason.	Team Chick hasn't been in the SuperBowl every year for no reason.	1594877	1471970300435	1471970300499	 	32
3164	33446	Team Chick hasn't been in the SuperBowl every year for no reason.	Team Chick hasn't been in the SuperBowl every year for no reason.	1594883	1471970300779	1471970300867	f	70
3164	33446	Team Chick hasn't been in the SuperBowl every year for no reason.	Team Chick hasn't been in the SuperBowl every year for no reason.	1594887	1471970300843	1471970300995	o	79
3164	33446	Team Chick hasn't been in the SuperBowl every year for no reason.	Team Chick hasn't been in the SuperBowl every year for no reason.	1594891	1471970300963	1471970301059	r	82
3164	33446	Team Chick hasn't been in the SuperBowl every year for no reason.	Team Chick hasn't been in the SuperBowl every year for no reason.	1594921	1471970301011	1471970301123	 	32
3164	33446	Team Chick hasn't been in the SuperBowl every year for no reason.	Team Chick hasn't been in the SuperBowl every year for no reason.	1594924	1471970301187	1471970301323	n	78
3164	33446	Team Chick hasn't been in the SuperBowl every year for no reason.	Team Chick hasn't been in the SuperBowl every year for no reason.	1594930	1471970301299	1471970301411	o	79
3164	33446	Team Chick hasn't been in the SuperBowl every year for no reason.	Team Chick hasn't been in the SuperBowl every year for no reason.	1594935	1471970301459	1471970301547	w	87
3164	33446	Team Chick hasn't been in the SuperBowl every year for no reason.	Team Chick hasn't been in the SuperBowl every year for no reason.	1594940	1471970301707	1471970301827	 	32
3164	33446	Team Chick hasn't been in the SuperBowl every year for no reason.	Team Chick hasn't been in the SuperBowl every year for no reason.	1594943	1471970302059	1471970302123	BKSP	8
3164	33446	Team Chick hasn't been in the SuperBowl every year for no reason.	Team Chick hasn't been in the SuperBowl every year for no reason.	1594947	1471970302211	1471970302299	BKSP	8
3164	33446	Team Chick hasn't been in the SuperBowl every year for no reason.	Team Chick hasn't been in the SuperBowl every year for no reason.	1594951	1471970302323	1471970302403	 	32
3164	33446	Team Chick hasn't been in the SuperBowl every year for no reason.	Team Chick hasn't been in the SuperBowl every year for no reason.	1594963	1471970302451	1471970302563	r	82
3164	33446	Team Chick hasn't been in the SuperBowl every year for no reason.	Team Chick hasn't been in the SuperBowl every year for no reason.	1594965	1471970302579	1471970302715	e	69
3164	33446	Team Chick hasn't been in the SuperBowl every year for no reason.	Team Chick hasn't been in the SuperBowl every year for no reason.	1594966	1471970302771	1471970302883	a	65
3164	33446	Team Chick hasn't been in the SuperBowl every year for no reason.	Team Chick hasn't been in the SuperBowl every year for no reason.	1594969	1471970303147	1471970303243	s	83
3164	33446	Team Chick hasn't been in the SuperBowl every year for no reason.	Team Chick hasn't been in the SuperBowl every year for no reason.	1594971	1471970303459	1471970303635	o	79
3164	33446	Team Chick hasn't been in the SuperBowl every year for no reason.	Team Chick hasn't been in the SuperBowl every year for no reason.	1594977	1471970303571	1471970303715	n	78
3164	33446	Team Chick hasn't been in the SuperBowl every year for no reason.	Team Chick hasn't been in the SuperBowl every year for no reason.	1594981	1471970303811	1471970303923	.	190
