PARTICIPANT_ID	TEST_SECTION_ID	SENTENCE	USER_INPUT	KEYSTROKE_ID	PRESS_TIME	RELEASE_TIME	LETTER	KEYCODE
3175	33384	We'll tell you who has the edge.	We'll tell you who has the edge.	1591413	1471970215852	1471970216079	SHIFT	16
3175	33384	We'll tell you who has the edge.	We'll tell you who has the edge.	1591410	1471970215927	1471970216023	W	87
3175	33384	We'll tell you who has the edge.	We'll tell you who has the edge.	1591415	1471970216103	1471970216215	e	69
3175	33384	We'll tell you who has the edge.	We'll tell you who has the edge.	1591417	1471970216423	1471970216527	'	222
3175	33384	We'll tell you who has the edge.	We'll tell you who has the edge.	1591419	1471970216647	1471970216727	l	76
3175	33384	We'll tell you who has the edge.	We'll tell you who has the edge.	1591422	1471970216783	1471970216879	l	76
3175	33384	We'll tell you who has the edge.	We'll tell you who has the edge.	1591446	1471970216863	1471970216943	 	32
3175	33384	We'll tell you who has the edge.	We'll tell you who has the edge.	1591447	1471970217015	1471970217135	t	84
3175	33384	We'll tell you who has the edge.	We'll tell you who has the edge.	1591449	1471970217191	1471970217279	e	69
3175	33384	We'll tell you who has the edge.	We'll tell you who has the edge.	1591453	1471970217471	1471970217559	l	76
3175	33384	We'll tell you who has the edge.	We'll tell you who has the edge.	1591457	1471970217647	1471970217727	l	76
3175	33384	We'll tell you who has the edge.	We'll tell you who has the edge.	1591461	1471970217847	1471970217935	 	32
3175	33384	We'll tell you who has the edge.	We'll tell you who has the edge.	1591485	1471970217999	1471970218095	y	89
3175	33384	We'll tell you who has the edge.	We'll tell you who has the edge.	1591486	1471970218103	1471970218191	o	79
3175	33384	We'll tell you who has the edge.	We'll tell you who has the edge.	1591488	1471970218207	1471970218271	u	85
3175	33384	We'll tell you who has the edge.	We'll tell you who has the edge.	1591490	1471970218279	1471970218343	 	32
3175	33384	We'll tell you who has the edge.	We'll tell you who has the edge.	1591493	1471970218415	1471970218495	w	87
3175	33384	We'll tell you who has the edge.	We'll tell you who has the edge.	1591507	1471970218519	1471970218591	h	72
3175	33384	We'll tell you who has the edge.	We'll tell you who has the edge.	1591510	1471970218615	1471970218711	o	79
3175	33384	We'll tell you who has the edge.	We'll tell you who has the edge.	1591515	1471970218727	1471970218815	 	32
3175	33384	We'll tell you who has the edge.	We'll tell you who has the edge.	1591520	1471970218847	1471970218919	h	72
3175	33384	We'll tell you who has the edge.	We'll tell you who has the edge.	1591524	1471970218920	1471970219031	a	65
3175	33384	We'll tell you who has the edge.	We'll tell you who has the edge.	1591538	1471970219047	1471970219159	s	83
3175	33384	We'll tell you who has the edge.	We'll tell you who has the edge.	1591539	1471970219191	1471970219287	 	32
3175	33384	We'll tell you who has the edge.	We'll tell you who has the edge.	1591542	1471970219311	1471970219423	t	84
3175	33384	We'll tell you who has the edge.	We'll tell you who has the edge.	1591548	1471970219415	1471970219511	h	72
3175	33384	We'll tell you who has the edge.	We'll tell you who has the edge.	1591550	1471970219512	1471970219583	e	69
3175	33384	We'll tell you who has the edge.	We'll tell you who has the edge.	1591576	1471970219591	1471970219679	 	32
3175	33384	We'll tell you who has the edge.	We'll tell you who has the edge.	1591580	1471970219759	1471970219855	e	69
3175	33384	We'll tell you who has the edge.	We'll tell you who has the edge.	1591584	1471970219975	1471970220063	d	68
3175	33384	We'll tell you who has the edge.	We'll tell you who has the edge.	1591585	1471970220151	1471970220255	g	71
3175	33384	We'll tell you who has the edge.	We'll tell you who has the edge.	1591587	1471970220311	1471970220399	e	69
3175	33384	We'll tell you who has the edge.	We'll tell you who has the edge.	1591596	1471970220431	1471970220551	.	190
3175	33394	Can we have them until we move?	Can we have them until we move?	1591722	1471970222751	1471970222967	SHIFT	16
3175	33394	Can we have them until we move?	Can we have them until we move?	1591717	1471970222839	1471970222951	C	67
3175	33394	Can we have them until we move?	Can we have them until we move?	1591725	1471970223023	1471970223103	a	65
3175	33394	Can we have them until we move?	Can we have them until we move?	1591726	1471970223111	1471970223215	n	78
3175	33394	Can we have them until we move?	Can we have them until we move?	1591727	1471970223239	1471970223327	 	32
3175	33394	Can we have them until we move?	Can we have them until we move?	1591728	1471970223423	1471970223511	w	87
3175	33394	Can we have them until we move?	Can we have them until we move?	1591746	1471970223559	1471970223679	e	69
3175	33394	Can we have them until we move?	Can we have them until we move?	1591748	1471970223711	1471970223775	 	32
3175	33394	Can we have them until we move?	Can we have them until we move?	1591751	1471970223831	1471970223935	h	72
3175	33394	Can we have them until we move?	Can we have them until we move?	1591754	1471970223919	1471970224023	a	65
3175	33394	Can we have them until we move?	Can we have them until we move?	1591759	1471970224039	1471970224111	v	86
3175	33394	Can we have them until we move?	Can we have them until we move?	1591771	1471970224175	1471970224255	e	69
3175	33394	Can we have them until we move?	Can we have them until we move?	1591775	1471970224287	1471970224359	 	32
3175	33394	Can we have them until we move?	Can we have them until we move?	1591778	1471970224399	1471970224471	t	84
3175	33394	Can we have them until we move?	Can we have them until we move?	1591783	1471970224463	1471970224567	h	72
3175	33394	Can we have them until we move?	Can we have them until we move?	1591788	1471970224615	1471970224703	e	69
3175	33394	Can we have them until we move?	Can we have them until we move?	1591812	1471970224751	1471970224855	m	77
3175	33394	Can we have them until we move?	Can we have them until we move?	1591814	1471970224919	1471970224991	 	32
3175	33394	Can we have them until we move?	Can we have them until we move?	1591816	1471970225127	1471970225215	u	85
3175	33394	Can we have them until we move?	Can we have them until we move?	1591820	1471970225319	1471970225423	n	78
3175	33394	Can we have them until we move?	Can we have them until we move?	1591823	1471970225479	1471970225575	t	84
3175	33394	Can we have them until we move?	Can we have them until we move?	1591838	1471970225591	1471970225679	i	73
3175	33394	Can we have them until we move?	Can we have them until we move?	1591840	1471970225759	1471970225847	l	76
3175	33394	Can we have them until we move?	Can we have them until we move?	1591843	1471970225799	1471970225895	 	32
3175	33394	Can we have them until we move?	Can we have them until we move?	1591847	1471970225943	1471970225999	w	87
3175	33394	Can we have them until we move?	Can we have them until we move?	1591851	1471970226039	1471970226191	e	69
3175	33394	Can we have them until we move?	Can we have them until we move?	1591867	1471970226223	1471970226303	 	32
3175	33394	Can we have them until we move?	Can we have them until we move?	1591868	1471970226375	1471970226471	m	77
3175	33394	Can we have them until we move?	Can we have them until we move?	1591869	1471970226487	1471970226591	o	79
3175	33394	Can we have them until we move?	Can we have them until we move?	1591870	1471970226599	1471970226687	v	86
3175	33394	Can we have them until we move?	Can we have them until we move?	1591874	1471970226735	1471970226855	e	69
3175	33394	Can we have them until we move?	Can we have them until we move?	1591902	1471970226927	1471970227110	SHIFT	16
3175	33394	Can we have them until we move?	Can we have them until we move?	1591898	1471970226991	1471970227103	?	191
3175	33398	Neal, can you help with this?	Nea., can you help with this?	1592012	1471970229146	1471970229247	SHIFT	16
3175	33398	Neal, can you help with this?	Nea., can you help with this?	1592013	1471970229207	1471970229311	N	78
3175	33398	Neal, can you help with this?	Nea., can you help with this?	1592016	1471970229327	1471970229455	e	69
3175	33398	Neal, can you help with this?	Nea., can you help with this?	1592019	1471970229463	1471970229567	a	65
3175	33398	Neal, can you help with this?	Nea., can you help with this?	1592023	1471970229615	1471970229711	.	190
3175	33398	Neal, can you help with this?	Nea., can you help with this?	1592026	1471970229807	1471970229895	,	188
3175	33398	Neal, can you help with this?	Nea., can you help with this?	1592056	1471970229951	1471970230039	 	32
3175	33398	Neal, can you help with this?	Nea., can you help with this?	1592059	1471970230183	1471970230287	c	67
3175	33398	Neal, can you help with this?	Nea., can you help with this?	1592062	1471970230367	1471970230455	n	65
3175	33398	Neal, can you help with this?	Nea., can you help with this?	1592065	1471970231031	1471970231103	 	32
3175	33398	Neal, can you help with this?	Nea., can you help with this?	1592089	1471970231159	1471970231255	y	89
3175	33398	Neal, can you help with this?	Nea., can you help with this?	1592090	1471970231271	1471970231367	o	79
3175	33398	Neal, can you help with this?	Nea., can you help with this?	1592091	1471970231375	1471970231431	u	85
3175	33398	Neal, can you help with this?	Nea., can you help with this?	1592092	1471970231471	1471970231543	 	32
3175	33398	Neal, can you help with this?	Nea., can you help with this?	1592093	1471970231606	1471970231687	h	72
3175	33398	Neal, can you help with this?	Nea., can you help with this?	1592113	1471970231719	1471970231799	e	69
3175	33398	Neal, can you help with this?	Nea., can you help with this?	1592115	1471970231822	1471970231911	l	76
3175	33398	Neal, can you help with this?	Nea., can you help with this?	1592120	1471970231999	1471970232087	p	80
3175	33398	Neal, can you help with this?	Nea., can you help with this?	1592121	1471970232143	1471970232231	 	32
3175	33398	Neal, can you help with this?	Nea., can you help with this?	1592125	1471970232271	1471970232359	w	87
3175	33398	Neal, can you help with this?	Nea., can you help with this?	1592149	1471970232375	1471970232463	i	73
3175	33398	Neal, can you help with this?	Nea., can you help with this?	1592153	1471970232503	1471970232591	t	84
3175	33398	Neal, can you help with this?	Nea., can you help with this?	1592159	1471970232671	1471970232743	h	72
3175	33398	Neal, can you help with this?	Nea., can you help with this?	1592164	1471970232879	1471970232972	 	32
3175	33398	Neal, can you help with this?	Nea., can you help with this?	1592171	1471970233031	1471970233127	t	84
3175	33398	Neal, can you help with this?	Nea., can you help with this?	1592207	1471970233134	1471970233223	h	72
3175	33398	Neal, can you help with this?	Nea., can you help with this?	1592213	1471970233247	1471970233335	i	73
3175	33398	Neal, can you help with this?	Nea., can you help with this?	1592218	1471970233343	1471970233447	s	83
3175	33398	Neal, can you help with this?	Nea., can you help with this?	1592228	1471970233615	1471970233903	SHIFT	16
3175	33398	Neal, can you help with this?	Nea., can you help with this?	1592223	1471970233710	1471970233831	?	191
3175	33403	They appear to be coming out of Unify, but I cannot see them.	They appear to be coming out of Unify, but I cannot see them.	1592348	1471970236415	1471970236535	SHIFT	16
3175	33403	They appear to be coming out of Unify, but I cannot see them.	They appear to be coming out of Unify, but I cannot see them.	1592351	1471970236462	1471970236574	T	84
3175	33403	They appear to be coming out of Unify, but I cannot see them.	They appear to be coming out of Unify, but I cannot see them.	1592352	1471970236590	1471970236695	h	72
3175	33403	They appear to be coming out of Unify, but I cannot see them.	They appear to be coming out of Unify, but I cannot see them.	1592354	1471970236702	1471970236807	e	69
3175	33403	They appear to be coming out of Unify, but I cannot see them.	They appear to be coming out of Unify, but I cannot see them.	1592356	1471970236823	1471970236894	y	89
3175	33403	They appear to be coming out of Unify, but I cannot see them.	They appear to be coming out of Unify, but I cannot see them.	1592357	1471970236902	1471970237015	 	32
3175	33403	They appear to be coming out of Unify, but I cannot see them.	They appear to be coming out of Unify, but I cannot see them.	1592372	1471970237055	1471970237142	a	65
3175	33403	They appear to be coming out of Unify, but I cannot see them.	They appear to be coming out of Unify, but I cannot see them.	1592376	1471970237166	1471970237238	p	80
3175	33403	They appear to be coming out of Unify, but I cannot see them.	They appear to be coming out of Unify, but I cannot see them.	1592383	1471970237294	1471970237383	p	80
3175	33403	They appear to be coming out of Unify, but I cannot see them.	They appear to be coming out of Unify, but I cannot see them.	1592389	1471970237399	1471970237518	e	69
3175	33403	They appear to be coming out of Unify, but I cannot see them.	They appear to be coming out of Unify, but I cannot see them.	1592394	1471970237519	1471970237630	a	65
3175	33403	They appear to be coming out of Unify, but I cannot see them.	They appear to be coming out of Unify, but I cannot see them.	1592401	1471970237646	1471970237734	r	82
3175	33403	They appear to be coming out of Unify, but I cannot see them.	They appear to be coming out of Unify, but I cannot see them.	1592403	1471970237798	1471970237870	 	32
3175	33403	They appear to be coming out of Unify, but I cannot see them.	They appear to be coming out of Unify, but I cannot see them.	1592406	1471970237950	1471970238038	t	84
3175	33403	They appear to be coming out of Unify, but I cannot see them.	They appear to be coming out of Unify, but I cannot see them.	1592413	1471970238118	1471970238206	o	79
3175	33403	They appear to be coming out of Unify, but I cannot see them.	They appear to be coming out of Unify, but I cannot see them.	1592436	1471970238190	1471970238278	 	32
3175	33403	They appear to be coming out of Unify, but I cannot see them.	They appear to be coming out of Unify, but I cannot see them.	1592437	1471970238382	1471970238446	b	66
3175	33403	They appear to be coming out of Unify, but I cannot see them.	They appear to be coming out of Unify, but I cannot see them.	1592439	1471970238510	1471970238598	e	69
3175	33403	They appear to be coming out of Unify, but I cannot see them.	They appear to be coming out of Unify, but I cannot see them.	1592441	1471970238600	1471970238686	 	32
3175	33403	They appear to be coming out of Unify, but I cannot see them.	They appear to be coming out of Unify, but I cannot see them.	1592443	1471970238790	1471970238870	c	67
3175	33403	They appear to be coming out of Unify, but I cannot see them.	They appear to be coming out of Unify, but I cannot see them.	1592445	1471970238894	1471970239022	o	79
3175	33403	They appear to be coming out of Unify, but I cannot see them.	They appear to be coming out of Unify, but I cannot see them.	1592474	1471970238998	1471970239118	m	77
3175	33403	They appear to be coming out of Unify, but I cannot see them.	They appear to be coming out of Unify, but I cannot see them.	1592475	1471970239126	1471970239246	i	73
3175	33403	They appear to be coming out of Unify, but I cannot see them.	They appear to be coming out of Unify, but I cannot see them.	1592476	1471970239238	1471970239318	n	78
3175	33403	They appear to be coming out of Unify, but I cannot see them.	They appear to be coming out of Unify, but I cannot see them.	1592477	1471970239382	1471970239478	g	71
3175	33403	They appear to be coming out of Unify, but I cannot see them.	They appear to be coming out of Unify, but I cannot see them.	1592478	1471970239479	1471970239558	 	32
3175	33403	They appear to be coming out of Unify, but I cannot see them.	They appear to be coming out of Unify, but I cannot see them.	1592479	1471970239694	1471970239822	o	79
3175	33403	They appear to be coming out of Unify, but I cannot see them.	They appear to be coming out of Unify, but I cannot see them.	1592495	1471970239846	1471970239918	u	85
3175	33403	They appear to be coming out of Unify, but I cannot see them.	They appear to be coming out of Unify, but I cannot see them.	1592498	1471970239990	1471970240086	t	84
3175	33403	They appear to be coming out of Unify, but I cannot see them.	They appear to be coming out of Unify, but I cannot see them.	1592501	1471970240142	1471970240222	 	32
3175	33403	They appear to be coming out of Unify, but I cannot see them.	They appear to be coming out of Unify, but I cannot see them.	1592503	1471970240278	1471970240374	o	79
3175	33403	They appear to be coming out of Unify, but I cannot see them.	They appear to be coming out of Unify, but I cannot see them.	1592505	1471970240398	1471970240494	f	70
3175	33403	They appear to be coming out of Unify, but I cannot see them.	They appear to be coming out of Unify, but I cannot see them.	1592544	1471970240502	1471970240598	 	32
3175	33403	They appear to be coming out of Unify, but I cannot see them.	They appear to be coming out of Unify, but I cannot see them.	1592548	1471970240646	1471970240790	SHIFT	16
3175	33403	They appear to be coming out of Unify, but I cannot see them.	They appear to be coming out of Unify, but I cannot see them.	1592549	1471970240718	1471970240814	U	85
3175	33403	They appear to be coming out of Unify, but I cannot see them.	They appear to be coming out of Unify, but I cannot see them.	1592550	1471970240918	1471970241014	n	78
3175	33403	They appear to be coming out of Unify, but I cannot see them.	They appear to be coming out of Unify, but I cannot see them.	1592552	1471970241038	1471970241142	i	73
3175	33403	They appear to be coming out of Unify, but I cannot see them.	They appear to be coming out of Unify, but I cannot see them.	1592554	1471970241262	1471970241342	f	70
3175	33403	They appear to be coming out of Unify, but I cannot see them.	They appear to be coming out of Unify, but I cannot see them.	1592581	1471970241382	1471970241470	y	89
3175	33403	They appear to be coming out of Unify, but I cannot see them.	They appear to be coming out of Unify, but I cannot see them.	1592582	1471970241734	1471970241806	,	188
3175	33403	They appear to be coming out of Unify, but I cannot see them.	They appear to be coming out of Unify, but I cannot see them.	1592583	1471970241902	1471970241990	 	32
3175	33403	They appear to be coming out of Unify, but I cannot see them.	They appear to be coming out of Unify, but I cannot see them.	1592584	1471970242086	1471970242182	b	66
3175	33403	They appear to be coming out of Unify, but I cannot see them.	They appear to be coming out of Unify, but I cannot see them.	1592586	1471970242190	1471970242254	u	85
3175	33403	They appear to be coming out of Unify, but I cannot see them.	They appear to be coming out of Unify, but I cannot see them.	1592604	1471970242350	1471970242430	t	84
3175	33403	They appear to be coming out of Unify, but I cannot see them.	They appear to be coming out of Unify, but I cannot see them.	1592607	1471970242502	1471970242598	 	32
3175	33403	They appear to be coming out of Unify, but I cannot see them.	They appear to be coming out of Unify, but I cannot see them.	1592610	1471970242710	1471970242846	SHIFT	16
3175	33403	They appear to be coming out of Unify, but I cannot see them.	They appear to be coming out of Unify, but I cannot see them.	1592613	1471970242782	1471970242878	I	73
3175	33403	They appear to be coming out of Unify, but I cannot see them.	They appear to be coming out of Unify, but I cannot see them.	1592617	1471970242950	1471970243046	 	32
3175	33403	They appear to be coming out of Unify, but I cannot see them.	They appear to be coming out of Unify, but I cannot see them.	1592621	1471970243142	1471970243254	c	67
3175	33403	They appear to be coming out of Unify, but I cannot see them.	They appear to be coming out of Unify, but I cannot see them.	1592629	1471970243326	1471970243398	a	65
3175	33403	They appear to be coming out of Unify, but I cannot see them.	They appear to be coming out of Unify, but I cannot see them.	1592630	1471970243438	1471970243518	n	78
3175	33403	They appear to be coming out of Unify, but I cannot see them.	They appear to be coming out of Unify, but I cannot see them.	1592632	1471970243558	1471970243654	n	78
3175	33403	They appear to be coming out of Unify, but I cannot see them.	They appear to be coming out of Unify, but I cannot see them.	1592634	1471970243678	1471970243758	o	79
3175	33403	They appear to be coming out of Unify, but I cannot see them.	They appear to be coming out of Unify, but I cannot see them.	1592637	1471970243830	1471970243926	t	84
3175	33403	They appear to be coming out of Unify, but I cannot see them.	They appear to be coming out of Unify, but I cannot see them.	1592658	1471970243958	1471970244038	 	32
3175	33403	They appear to be coming out of Unify, but I cannot see them.	They appear to be coming out of Unify, but I cannot see them.	1592659	1471970244078	1471970244166	s	83
3175	33403	They appear to be coming out of Unify, but I cannot see them.	They appear to be coming out of Unify, but I cannot see them.	1592660	1471970244278	1471970244358	e	69
3175	33403	They appear to be coming out of Unify, but I cannot see them.	They appear to be coming out of Unify, but I cannot see them.	1592661	1471970244438	1471970244534	e	69
3175	33403	They appear to be coming out of Unify, but I cannot see them.	They appear to be coming out of Unify, but I cannot see them.	1592662	1471970244582	1471970244654	 	32
3175	33403	They appear to be coming out of Unify, but I cannot see them.	They appear to be coming out of Unify, but I cannot see them.	1592705	1471970244710	1471970244774	t	84
3175	33403	They appear to be coming out of Unify, but I cannot see them.	They appear to be coming out of Unify, but I cannot see them.	1592709	1471970244806	1471970244942	h	72
3175	33403	They appear to be coming out of Unify, but I cannot see them.	They appear to be coming out of Unify, but I cannot see them.	1592711	1471970244974	1471970245038	e	69
3175	33403	They appear to be coming out of Unify, but I cannot see them.	They appear to be coming out of Unify, but I cannot see them.	1592712	1471970245102	1471970245214	m	77
3175	33403	They appear to be coming out of Unify, but I cannot see them.	They appear to be coming out of Unify, but I cannot see them.	1592713	1471970245510	1471970245606	.	190
3175	33415	I wasn't as prepared as I will be this year.	I wasn't as prepared as I will be this year.	1592935	1471970251814	1471970251970	SHIFT	16
3175	33415	I wasn't as prepared as I will be this year.	I wasn't as prepared as I will be this year.	1592938	1471970251910	1471970251998	I	73
3175	33415	I wasn't as prepared as I will be this year.	I wasn't as prepared as I will be this year.	1592941	1471970252022	1471970252126	 	32
3175	33415	I wasn't as prepared as I will be this year.	I wasn't as prepared as I will be this year.	1592945	1471970252190	1471970252310	w	87
3175	33415	I wasn't as prepared as I will be this year.	I wasn't as prepared as I will be this year.	1592948	1471970252366	1471970252510	a	65
3175	33415	I wasn't as prepared as I will be this year.	I wasn't as prepared as I will be this year.	1592984	1471970252454	1471970252614	s	83
3175	33415	I wasn't as prepared as I will be this year.	I wasn't as prepared as I will be this year.	1592987	1471970252622	1471970252750	n	78
3175	33415	I wasn't as prepared as I will be this year.	I wasn't as prepared as I will be this year.	1592990	1471970253166	1471970253262	'	222
3175	33415	I wasn't as prepared as I will be this year.	I wasn't as prepared as I will be this year.	1592992	1471970253294	1471970253382	t	84
3175	33415	I wasn't as prepared as I will be this year.	I wasn't as prepared as I will be this year.	1592994	1471970253422	1471970253510	 	32
3175	33415	I wasn't as prepared as I will be this year.	I wasn't as prepared as I will be this year.	1592995	1471970253598	1471970253744	a	65
3175	33415	I wasn't as prepared as I will be this year.	I wasn't as prepared as I will be this year.	1593008	1471970253710	1471970253862	s	83
3175	33415	I wasn't as prepared as I will be this year.	I wasn't as prepared as I will be this year.	1593010	1471970253863	1471970253950	 	32
3175	33415	I wasn't as prepared as I will be this year.	I wasn't as prepared as I will be this year.	1593012	1471970254006	1471970254134	p	80
3175	33415	I wasn't as prepared as I will be this year.	I wasn't as prepared as I will be this year.	1593015	1471970254094	1471970254246	r	82
3175	33415	I wasn't as prepared as I will be this year.	I wasn't as prepared as I will be this year.	1593018	1471970254206	1471970254301	e	69
3175	33415	I wasn't as prepared as I will be this year.	I wasn't as prepared as I will be this year.	1593022	1471970254349	1471970254446	p	80
3175	33415	I wasn't as prepared as I will be this year.	I wasn't as prepared as I will be this year.	1593039	1471970254502	1471970254662	a	65
3175	33415	I wasn't as prepared as I will be this year.	I wasn't as prepared as I will be this year.	1593041	1471970254654	1471970254806	r	82
3175	33415	I wasn't as prepared as I will be this year.	I wasn't as prepared as I will be this year.	1593042	1471970254814	1471970254902	e	69
3175	33415	I wasn't as prepared as I will be this year.	I wasn't as prepared as I will be this year.	1593043	1471970255006	1471970255086	d	68
3175	33415	I wasn't as prepared as I will be this year.	I wasn't as prepared as I will be this year.	1593044	1471970255094	1471970255190	 	32
3175	33415	I wasn't as prepared as I will be this year.	I wasn't as prepared as I will be this year.	1593065	1471970255382	1471970255541	a	65
3175	33415	I wasn't as prepared as I will be this year.	I wasn't as prepared as I will be this year.	1593067	1471970255518	1471970255694	s	83
3175	33415	I wasn't as prepared as I will be this year.	I wasn't as prepared as I will be this year.	1593069	1471970255686	1471970255774	 	32
3175	33415	I wasn't as prepared as I will be this year.	I wasn't as prepared as I will be this year.	1593070	1471970255821	1471970255982	SHIFT	16
3175	33415	I wasn't as prepared as I will be this year.	I wasn't as prepared as I will be this year.	1593071	1471970255941	1471970256030	I	73
3175	33415	I wasn't as prepared as I will be this year.	I wasn't as prepared as I will be this year.	1593072	1471970256054	1471970256158	 	32
3175	33415	I wasn't as prepared as I will be this year.	I wasn't as prepared as I will be this year.	1593106	1471970256166	1471970256262	w	87
3175	33415	I wasn't as prepared as I will be this year.	I wasn't as prepared as I will be this year.	1593110	1471970256302	1471970256390	i	73
3175	33415	I wasn't as prepared as I will be this year.	I wasn't as prepared as I will be this year.	1593114	1471970256501	1471970256550	l	76
3175	33415	I wasn't as prepared as I will be this year.	I wasn't as prepared as I will be this year.	1593116	1471970256611	1471970256686	l	76
3175	33415	I wasn't as prepared as I will be this year.	I wasn't as prepared as I will be this year.	1593120	1471970256687	1471970256766	 	32
3175	33415	I wasn't as prepared as I will be this year.	I wasn't as prepared as I will be this year.	1593136	1471970256814	1471970256893	b	66
3175	33415	I wasn't as prepared as I will be this year.	I wasn't as prepared as I will be this year.	1593140	1471970256982	1471970257054	e	69
3175	33415	I wasn't as prepared as I will be this year.	I wasn't as prepared as I will be this year.	1593144	1471970257110	1471970257198	 	32
3175	33415	I wasn't as prepared as I will be this year.	I wasn't as prepared as I will be this year.	1593148	1471970257262	1471970257350	t	84
3175	33415	I wasn't as prepared as I will be this year.	I wasn't as prepared as I will be this year.	1593152	1471970257373	1471970257478	h	72
3175	33415	I wasn't as prepared as I will be this year.	I wasn't as prepared as I will be this year.	1593157	1471970257486	1471970257558	i	73
3175	33415	I wasn't as prepared as I will be this year.	I wasn't as prepared as I will be this year.	1593158	1471970257541	1471970257646	s	83
3175	33415	I wasn't as prepared as I will be this year.	I wasn't as prepared as I will be this year.	1593159	1471970257662	1471970257742	 	32
3175	33415	I wasn't as prepared as I will be this year.	I wasn't as prepared as I will be this year.	1593160	1471970257782	1471970257885	y	89
3175	33415	I wasn't as prepared as I will be this year.	I wasn't as prepared as I will be this year.	1593181	1471970257870	1471970257966	e	69
3175	33415	I wasn't as prepared as I will be this year.	I wasn't as prepared as I will be this year.	1593183	1471970257966	1471970258070	a	65
3175	33415	I wasn't as prepared as I will be this year.	I wasn't as prepared as I will be this year.	1593186	1471970258086	1471970258190	r	82
3175	33415	I wasn't as prepared as I will be this year.	I wasn't as prepared as I will be this year.	1593189	1471970258246	1471970258366	.	190
3175	33424	The best-of-seven series moves to Indianapolis, Indiana.	The best-of-seven series moves to Indinaopilis. Indiana	1593360	1471970263701	1471970263925	SHIFT	16
3175	33424	The best-of-seven series moves to Indianapolis, Indiana.	The best-of-seven series moves to Indinaopilis. Indiana	1593361	1471970263845	1471970263973	T	84
3175	33424	The best-of-seven series moves to Indianapolis, Indiana.	The best-of-seven series moves to Indinaopilis. Indiana	1593363	1471970263957	1471970264069	h	72
3175	33424	The best-of-seven series moves to Indianapolis, Indiana.	The best-of-seven series moves to Indinaopilis. Indiana	1593365	1471970264053	1471970264157	e	69
3175	33424	The best-of-seven series moves to Indianapolis, Indiana.	The best-of-seven series moves to Indinaopilis. Indiana	1593367	1471970264173	1471970264253	 	32
3175	33424	The best-of-seven series moves to Indianapolis, Indiana.	The best-of-seven series moves to Indinaopilis. Indiana	1593371	1471970264309	1471970264421	b	66
3175	33424	The best-of-seven series moves to Indianapolis, Indiana.	The best-of-seven series moves to Indinaopilis. Indiana	1593411	1471970264477	1471970264597	e	69
3175	33424	The best-of-seven series moves to Indianapolis, Indiana.	The best-of-seven series moves to Indinaopilis. Indiana	1593412	1471970264677	1471970264781	s	83
3175	33424	The best-of-seven series moves to Indianapolis, Indiana.	The best-of-seven series moves to Indinaopilis. Indiana	1593413	1471970264821	1471970264917	t	84
3175	33424	The best-of-seven series moves to Indianapolis, Indiana.	The best-of-seven series moves to Indinaopilis. Indiana	1593414	1471970265061	1471970265173	-	189
3175	33424	The best-of-seven series moves to Indianapolis, Indiana.	The best-of-seven series moves to Indinaopilis. Indiana	1593415	1471970265397	1471970265541	o	79
3175	33424	The best-of-seven series moves to Indianapolis, Indiana.	The best-of-seven series moves to Indinaopilis. Indiana	1593449	1471970265549	1471970265645	f	70
3175	33424	The best-of-seven series moves to Indianapolis, Indiana.	The best-of-seven series moves to Indinaopilis. Indiana	1593451	1471970265925	1471970266053	-	189
3175	33424	The best-of-seven series moves to Indianapolis, Indiana.	The best-of-seven series moves to Indinaopilis. Indiana	1593453	1471970266205	1471970266317	s	83
3175	33424	The best-of-seven series moves to Indianapolis, Indiana.	The best-of-seven series moves to Indinaopilis. Indiana	1593454	1471970266397	1471970266501	e	69
3175	33424	The best-of-seven series moves to Indianapolis, Indiana.	The best-of-seven series moves to Indinaopilis. Indiana	1593455	1471970266565	1471970266661	v	86
3175	33424	The best-of-seven series moves to Indianapolis, Indiana.	The best-of-seven series moves to Indinaopilis. Indiana	1593471	1471970266709	1471970266797	e	69
3175	33424	The best-of-seven series moves to Indianapolis, Indiana.	The best-of-seven series moves to Indinaopilis. Indiana	1593473	1471970266861	1471970266941	n	78
3175	33424	The best-of-seven series moves to Indianapolis, Indiana.	The best-of-seven series moves to Indinaopilis. Indiana	1593474	1471970266925	1471970267021	 	32
3175	33424	The best-of-seven series moves to Indianapolis, Indiana.	The best-of-seven series moves to Indinaopilis. Indiana	1593475	1471970267062	1471970267125	s	83
3175	33424	The best-of-seven series moves to Indianapolis, Indiana.	The best-of-seven series moves to Indinaopilis. Indiana	1593476	1471970267221	1471970267349	e	69
3175	33424	The best-of-seven series moves to Indianapolis, Indiana.	The best-of-seven series moves to Indinaopilis. Indiana	1593493	1471970267341	1471970267437	r	82
3175	33424	The best-of-seven series moves to Indianapolis, Indiana.	The best-of-seven series moves to Indinaopilis. Indiana	1593494	1471970267461	1471970267565	i	73
3175	33424	The best-of-seven series moves to Indianapolis, Indiana.	The best-of-seven series moves to Indinaopilis. Indiana	1593495	1471970267582	1471970267709	e	69
3175	33424	The best-of-seven series moves to Indianapolis, Indiana.	The best-of-seven series moves to Indinaopilis. Indiana	1593496	1471970267773	1471970267861	s	83
3175	33424	The best-of-seven series moves to Indianapolis, Indiana.	The best-of-seven series moves to Indinaopilis. Indiana	1593497	1471970267893	1471970267981	 	32
3175	33424	The best-of-seven series moves to Indianapolis, Indiana.	The best-of-seven series moves to Indinaopilis. Indiana	1593498	1471970268037	1471970268125	m	77
3175	33424	The best-of-seven series moves to Indianapolis, Indiana.	The best-of-seven series moves to Indinaopilis. Indiana	1593521	1471970268133	1471970268221	o	79
3175	33424	The best-of-seven series moves to Indianapolis, Indiana.	The best-of-seven series moves to Indinaopilis. Indiana	1593523	1471970268222	1471970268333	v	86
3175	33424	The best-of-seven series moves to Indianapolis, Indiana.	The best-of-seven series moves to Indinaopilis. Indiana	1593525	1471970268365	1471970268469	e	69
3175	33424	The best-of-seven series moves to Indianapolis, Indiana.	The best-of-seven series moves to Indinaopilis. Indiana	1593527	1471970268525	1471970268653	s	83
3175	33424	The best-of-seven series moves to Indianapolis, Indiana.	The best-of-seven series moves to Indinaopilis. Indiana	1593531	1471970268693	1471970268781	 	32
3175	33424	The best-of-seven series moves to Indianapolis, Indiana.	The best-of-seven series moves to Indinaopilis. Indiana	1593537	1471970268869	1471970268949	t	84
3175	33424	The best-of-seven series moves to Indianapolis, Indiana.	The best-of-seven series moves to Indinaopilis. Indiana	1593541	1471970268997	1471970269101	o	79
3175	33424	The best-of-seven series moves to Indianapolis, Indiana.	The best-of-seven series moves to Indinaopilis. Indiana	1593545	1471970269069	1471970269141	 	32
3175	33424	The best-of-seven series moves to Indianapolis, Indiana.	The best-of-seven series moves to Indinaopilis. Indiana	1593548	1471970269229	1471970269349	SHIFT	16
3175	33424	The best-of-seven series moves to Indianapolis, Indiana.	The best-of-seven series moves to Indinaopilis. Indiana	1593552	1471970269285	1471970269429	I	73
3175	33424	The best-of-seven series moves to Indianapolis, Indiana.	The best-of-seven series moves to Indinaopilis. Indiana	1593585	1471970269421	1471970269501	n	78
3175	33424	The best-of-seven series moves to Indianapolis, Indiana.	The best-of-seven series moves to Indinaopilis. Indiana	1593587	1471970269509	1471970269605	d	68
3175	33424	The best-of-seven series moves to Indianapolis, Indiana.	The best-of-seven series moves to Indinaopilis. Indiana	1593589	1471970269661	1471970269821	i	73
3175	33424	The best-of-seven series moves to Indianapolis, Indiana.	The best-of-seven series moves to Indinaopilis. Indiana	1593592	1471970269813	1471970269933	n	78
3175	33424	The best-of-seven series moves to Indianapolis, Indiana.	The best-of-seven series moves to Indinaopilis. Indiana	1593595	1471970270005	1471970270101	a	65
3175	33424	The best-of-seven series moves to Indianapolis, Indiana.	The best-of-seven series moves to Indinaopilis. Indiana	1593598	1471970270205	1471970270333	o	79
3175	33424	The best-of-seven series moves to Indianapolis, Indiana.	The best-of-seven series moves to Indinaopilis. Indiana	1593633	1471970270397	1471970270517	p	80
3175	33424	The best-of-seven series moves to Indianapolis, Indiana.	The best-of-seven series moves to Indinaopilis. Indiana	1593634	1471970270637	1471970270749	i	73
3175	33424	The best-of-seven series moves to Indianapolis, Indiana.	The best-of-seven series moves to Indinaopilis. Indiana	1593635	1471970270840	1471970270973	l	76
3175	33424	The best-of-seven series moves to Indianapolis, Indiana.	The best-of-seven series moves to Indinaopilis. Indiana	1593636	1471970271005	1471970271077	i	73
3175	33424	The best-of-seven series moves to Indianapolis, Indiana.	The best-of-seven series moves to Indinaopilis. Indiana	1593637	1471970271429	1471970271517	s	83
3175	33424	The best-of-seven series moves to Indianapolis, Indiana.	The best-of-seven series moves to Indinaopilis. Indiana	1593695	1471970271725	1471970271797	.	190
3175	33424	The best-of-seven series moves to Indianapolis, Indiana.	The best-of-seven series moves to Indinaopilis. Indiana	1593698	1471970271821	1471970271909	 	32
3175	33424	The best-of-seven series moves to Indianapolis, Indiana.	The best-of-seven series moves to Indinaopilis. Indiana	1593701	1471970272365	1471970272541	SHIFT	16
3175	33424	The best-of-seven series moves to Indianapolis, Indiana.	The best-of-seven series moves to Indinaopilis. Indiana	1593705	1471970272461	1471970272565	I	73
3175	33424	The best-of-seven series moves to Indianapolis, Indiana.	The best-of-seven series moves to Indinaopilis. Indiana	1593709	1471970272605	1471970272709	n	78
3175	33424	The best-of-seven series moves to Indianapolis, Indiana.	The best-of-seven series moves to Indinaopilis. Indiana	1593742	1471970272693	1471970272797	d	68
3175	33424	The best-of-seven series moves to Indianapolis, Indiana.	The best-of-seven series moves to Indinaopilis. Indiana	1593746	1471970272813	1471970272965	i	73
3175	33424	The best-of-seven series moves to Indianapolis, Indiana.	The best-of-seven series moves to Indinaopilis. Indiana	1593754	1471970273117	1471970273213	a	65
3175	33424	The best-of-seven series moves to Indianapolis, Indiana.	The best-of-seven series moves to Indinaopilis. Indiana	1593760	1471970273221	1471970273317	n	78
3175	33424	The best-of-seven series moves to Indianapolis, Indiana.	The best-of-seven series moves to Indinaopilis. Indiana	1593767	1471970273349	1471970273445	a	65
3175	33435	He doesn't want to give the trading positions.	He doesn'nt want to give the trading poisitings	1593865	1471970276541	1471970276669	SHIFT	16
3175	33435	He doesn't want to give the trading positions.	He doesn'nt want to give the trading poisitings	1593869	1471970276629	1471970276725	H	72
3175	33435	He doesn't want to give the trading positions.	He doesn'nt want to give the trading poisitings	1593872	1471970276741	1471970276837	e	69
3175	33435	He doesn't want to give the trading positions.	He doesn'nt want to give the trading poisitings	1593878	1471970276869	1471970276957	 	32
3175	33435	He doesn't want to give the trading positions.	He doesn'nt want to give the trading poisitings	1593883	1471970276997	1471970277093	d	68
3175	33435	He doesn't want to give the trading positions.	He doesn'nt want to give the trading poisitings	1593887	1471970277101	1471970277213	o	79
3175	33435	He doesn't want to give the trading positions.	He doesn'nt want to give the trading poisitings	1593936	1471970277229	1471970277309	e	69
3175	33435	He doesn't want to give the trading positions.	He doesn'nt want to give the trading poisitings	1593937	1471970278085	1471970278165	s	83
3175	33435	He doesn't want to give the trading positions.	He doesn'nt want to give the trading poisitings	1593938	1471970278213	1471970278317	n	78
3175	33435	He doesn't want to give the trading positions.	He doesn'nt want to give the trading poisitings	1593939	1471970278437	1471970278549	'	222
3175	33435	He doesn't want to give the trading positions.	He doesn'nt want to give the trading poisitings	1593940	1471970278645	1471970278725	n	78
3175	33435	He doesn't want to give the trading positions.	He doesn'nt want to give the trading poisitings	1593972	1471970279277	1471970279349	t	84
3175	33435	He doesn't want to give the trading positions.	He doesn'nt want to give the trading poisitings	1593974	1471970279404	1471970279493	 	32
3175	33435	He doesn't want to give the trading positions.	He doesn'nt want to give the trading poisitings	1593975	1471970279677	1471970279773	w	87
3175	33435	He doesn't want to give the trading positions.	He doesn'nt want to give the trading poisitings	1593976	1471970279837	1471970279950	a	65
3175	33435	He doesn't want to give the trading positions.	He doesn'nt want to give the trading poisitings	1593983	1471970279925	1471970280037	n	78
3175	33435	He doesn't want to give the trading positions.	He doesn'nt want to give the trading poisitings	1593984	1471970279997	1471970280101	t	84
3175	33435	He doesn't want to give the trading positions.	He doesn'nt want to give the trading poisitings	1593985	1471970280117	1471970280221	 	32
3175	33435	He doesn't want to give the trading positions.	He doesn'nt want to give the trading poisitings	1593987	1471970280269	1471970280357	t	84
3175	33435	He doesn't want to give the trading positions.	He doesn'nt want to give the trading poisitings	1593990	1471970280349	1471970280445	o	79
3175	33435	He doesn't want to give the trading positions.	He doesn'nt want to give the trading poisitings	1594014	1471970280421	1471970280514	 	32
3175	33435	He doesn't want to give the trading positions.	He doesn'nt want to give the trading poisitings	1594018	1471970280565	1471970280637	g	71
3175	33435	He doesn't want to give the trading positions.	He doesn'nt want to give the trading poisitings	1594022	1471970280677	1471970280765	i	73
3175	33435	He doesn't want to give the trading positions.	He doesn'nt want to give the trading poisitings	1594025	1471970280772	1471970280837	v	86
3175	33435	He doesn't want to give the trading positions.	He doesn'nt want to give the trading poisitings	1594029	1471970280909	1471970280989	e	69
3175	33435	He doesn't want to give the trading positions.	He doesn'nt want to give the trading poisitings	1594033	1471970280997	1471970281077	 	32
3175	33435	He doesn't want to give the trading positions.	He doesn'nt want to give the trading poisitings	1594040	1471970281109	1471970281197	t	84
3175	33435	He doesn't want to give the trading positions.	He doesn'nt want to give the trading poisitings	1594042	1471970281197	1471970281285	h	72
3175	33435	He doesn't want to give the trading positions.	He doesn'nt want to give the trading poisitings	1594044	1471970281277	1471970281357	e	69
3175	33435	He doesn't want to give the trading positions.	He doesn'nt want to give the trading poisitings	1594045	1471970281389	1471970281453	 	32
3175	33435	He doesn't want to give the trading positions.	He doesn'nt want to give the trading poisitings	1594046	1471970281509	1471970281621	t	84
3175	33435	He doesn't want to give the trading positions.	He doesn'nt want to give the trading poisitings	1594090	1471970281733	1471970281852	r	82
3175	33435	He doesn't want to give the trading positions.	He doesn'nt want to give the trading poisitings	1594092	1471970281941	1471970282053	a	65
3175	33435	He doesn't want to give the trading positions.	He doesn'nt want to give the trading poisitings	1594094	1471970282085	1471970282196	d	68
3175	33435	He doesn't want to give the trading positions.	He doesn'nt want to give the trading poisitings	1594096	1471970282189	1471970282293	i	73
3175	33435	He doesn't want to give the trading positions.	He doesn'nt want to give the trading poisitings	1594098	1471970282301	1471970282412	n	78
3175	33435	He doesn't want to give the trading positions.	He doesn'nt want to give the trading poisitings	1594105	1471970282421	1471970282517	g	71
3175	33435	He doesn't want to give the trading positions.	He doesn'nt want to give the trading poisitings	1594108	1471970282541	1471970282621	 	32
3175	33435	He doesn't want to give the trading positions.	He doesn'nt want to give the trading poisitings	1594111	1471970282653	1471970282765	p	80
3175	33435	He doesn't want to give the trading positions.	He doesn'nt want to give the trading poisitings	1594117	1471970282805	1471970282941	o	79
3175	33435	He doesn't want to give the trading positions.	He doesn'nt want to give the trading poisitings	1594119	1471970282972	1471970283061	i	73
3175	33435	He doesn't want to give the trading positions.	He doesn'nt want to give the trading poisitings	1594149	1471970283725	1471970283813	s	83
3175	33435	He doesn't want to give the trading positions.	He doesn'nt want to give the trading poisitings	1594151	1471970283837	1471970283933	i	73
3175	33435	He doesn't want to give the trading positions.	He doesn'nt want to give the trading poisitings	1594154	1471970283989	1471970284077	t	84
3175	33435	He doesn't want to give the trading positions.	He doesn'nt want to give the trading poisitings	1594158	1471970284052	1471970284180	i	73
3175	33435	He doesn't want to give the trading positions.	He doesn'nt want to give the trading poisitings	1594181	1471970284164	1471970284293	n	78
3175	33435	He doesn't want to give the trading positions.	He doesn'nt want to give the trading poisitings	1594183	1471970284493	1471970284548	g	71
3175	33435	He doesn't want to give the trading positions.	He doesn'nt want to give the trading poisitings	1594188	1471970284677	1471970284773	s	83
3175	33445	Rumors have him scheduled to attend at least part of the Pacers' game.	Rumors have him scheduled to attend at least part of the Pacers' game.	1594314	1471970288556	1471970288740	SHIFT	16
3175	33445	Rumors have him scheduled to attend at least part of the Pacers' game.	Rumors have him scheduled to attend at least part of the Pacers' game.	1594318	1471970288684	1471970288796	R	82
3175	33445	Rumors have him scheduled to attend at least part of the Pacers' game.	Rumors have him scheduled to attend at least part of the Pacers' game.	1594322	1471970288772	1471970288868	u	85
3175	33445	Rumors have him scheduled to attend at least part of the Pacers' game.	Rumors have him scheduled to attend at least part of the Pacers' game.	1594325	1471970288988	1471970289068	m	77
3175	33445	Rumors have him scheduled to attend at least part of the Pacers' game.	Rumors have him scheduled to attend at least part of the Pacers' game.	1594327	1471970289100	1471970289196	o	79
3175	33445	Rumors have him scheduled to attend at least part of the Pacers' game.	Rumors have him scheduled to attend at least part of the Pacers' game.	1594329	1471970289212	1471970289316	r	82
3175	33445	Rumors have him scheduled to attend at least part of the Pacers' game.	Rumors have him scheduled to attend at least part of the Pacers' game.	1594341	1471970289356	1471970289460	s	83
3175	33445	Rumors have him scheduled to attend at least part of the Pacers' game.	Rumors have him scheduled to attend at least part of the Pacers' game.	1594343	1471970289492	1471970289580	 	32
3175	33445	Rumors have him scheduled to attend at least part of the Pacers' game.	Rumors have him scheduled to attend at least part of the Pacers' game.	1594349	1471970289620	1471970289724	h	72
3175	33445	Rumors have him scheduled to attend at least part of the Pacers' game.	Rumors have him scheduled to attend at least part of the Pacers' game.	1594354	1471970289684	1471970289812	a	65
3175	33445	Rumors have him scheduled to attend at least part of the Pacers' game.	Rumors have him scheduled to attend at least part of the Pacers' game.	1594359	1471970289813	1471970289884	v	86
3175	33445	Rumors have him scheduled to attend at least part of the Pacers' game.	Rumors have him scheduled to attend at least part of the Pacers' game.	1594375	1471970289948	1471970290028	e	69
3175	33445	Rumors have him scheduled to attend at least part of the Pacers' game.	Rumors have him scheduled to attend at least part of the Pacers' game.	1594377	1471970290044	1471970290116	 	32
3175	33445	Rumors have him scheduled to attend at least part of the Pacers' game.	Rumors have him scheduled to attend at least part of the Pacers' game.	1594379	1471970290148	1471970290252	h	72
3175	33445	Rumors have him scheduled to attend at least part of the Pacers' game.	Rumors have him scheduled to attend at least part of the Pacers' game.	1594380	1471970290284	1471970290380	i	73
3175	33445	Rumors have him scheduled to attend at least part of the Pacers' game.	Rumors have him scheduled to attend at least part of the Pacers' game.	1594381	1471970290381	1471970290476	m	77
3175	33445	Rumors have him scheduled to attend at least part of the Pacers' game.	Rumors have him scheduled to attend at least part of the Pacers' game.	1594409	1471970290516	1471970290612	 	32
3175	33445	Rumors have him scheduled to attend at least part of the Pacers' game.	Rumors have him scheduled to attend at least part of the Pacers' game.	1594411	1471970290628	1471970290740	s	83
3175	33445	Rumors have him scheduled to attend at least part of the Pacers' game.	Rumors have him scheduled to attend at least part of the Pacers' game.	1594414	1471970290892	1471970290980	c	67
3175	33445	Rumors have him scheduled to attend at least part of the Pacers' game.	Rumors have him scheduled to attend at least part of the Pacers' game.	1594417	1471970291020	1471970291116	h	72
3175	33445	Rumors have him scheduled to attend at least part of the Pacers' game.	Rumors have him scheduled to attend at least part of the Pacers' game.	1594420	1471970291156	1471970291220	e	69
3175	33445	Rumors have him scheduled to attend at least part of the Pacers' game.	Rumors have him scheduled to attend at least part of the Pacers' game.	1594442	1471970291356	1471970291428	d	68
3175	33445	Rumors have him scheduled to attend at least part of the Pacers' game.	Rumors have him scheduled to attend at least part of the Pacers' game.	1594446	1471970291452	1471970291540	u	85
3175	33445	Rumors have him scheduled to attend at least part of the Pacers' game.	Rumors have him scheduled to attend at least part of the Pacers' game.	1594450	1471970291548	1471970291668	l	76
3175	33445	Rumors have him scheduled to attend at least part of the Pacers' game.	Rumors have him scheduled to attend at least part of the Pacers' game.	1594454	1471970291652	1471970291724	e	69
3175	33445	Rumors have him scheduled to attend at least part of the Pacers' game.	Rumors have him scheduled to attend at least part of the Pacers' game.	1594456	1471970291820	1471970291900	d	68
3175	33445	Rumors have him scheduled to attend at least part of the Pacers' game.	Rumors have him scheduled to attend at least part of the Pacers' game.	1594473	1471970291956	1471970292028	 	32
3175	33445	Rumors have him scheduled to attend at least part of the Pacers' game.	Rumors have him scheduled to attend at least part of the Pacers' game.	1594479	1471970292084	1471970292164	t	84
3175	33445	Rumors have him scheduled to attend at least part of the Pacers' game.	Rumors have him scheduled to attend at least part of the Pacers' game.	1594485	1471970292204	1471970292300	o	79
3175	33445	Rumors have him scheduled to attend at least part of the Pacers' game.	Rumors have him scheduled to attend at least part of the Pacers' game.	1594493	1471970292276	1471970292364	 	32
3175	33445	Rumors have him scheduled to attend at least part of the Pacers' game.	Rumors have him scheduled to attend at least part of the Pacers' game.	1594500	1471970292629	1471970292724	a	65
3175	33445	Rumors have him scheduled to attend at least part of the Pacers' game.	Rumors have him scheduled to attend at least part of the Pacers' game.	1594523	1471970292772	1471970292852	t	84
3175	33445	Rumors have him scheduled to attend at least part of the Pacers' game.	Rumors have him scheduled to attend at least part of the Pacers' game.	1594525	1471970292940	1471970293020	t	84
3175	33445	Rumors have him scheduled to attend at least part of the Pacers' game.	Rumors have him scheduled to attend at least part of the Pacers' game.	1594527	1471970293116	1471970293196	e	69
3175	33445	Rumors have him scheduled to attend at least part of the Pacers' game.	Rumors have him scheduled to attend at least part of the Pacers' game.	1594531	1471970293260	1471970293356	n	78
3175	33445	Rumors have him scheduled to attend at least part of the Pacers' game.	Rumors have him scheduled to attend at least part of the Pacers' game.	1594532	1471970293364	1471970293460	d	68
3175	33445	Rumors have him scheduled to attend at least part of the Pacers' game.	Rumors have him scheduled to attend at least part of the Pacers' game.	1594569	1471970293532	1471970293620	 	32
3175	33445	Rumors have him scheduled to attend at least part of the Pacers' game.	Rumors have him scheduled to attend at least part of the Pacers' game.	1594570	1471970293684	1471970293796	a	65
3175	33445	Rumors have him scheduled to attend at least part of the Pacers' game.	Rumors have him scheduled to attend at least part of the Pacers' game.	1594571	1471970293836	1471970293916	t	84
3175	33445	Rumors have him scheduled to attend at least part of the Pacers' game.	Rumors have him scheduled to attend at least part of the Pacers' game.	1594572	1471970293972	1471970294044	 	32
3175	33445	Rumors have him scheduled to attend at least part of the Pacers' game.	Rumors have him scheduled to attend at least part of the Pacers' game.	1594574	1471970294132	1471970294220	e	76
3175	33445	Rumors have him scheduled to attend at least part of the Pacers' game.	Rumors have him scheduled to attend at least part of the Pacers' game.	1594591	1471970294284	1471970294436	a	65
3175	33445	Rumors have him scheduled to attend at least part of the Pacers' game.	Rumors have him scheduled to attend at least part of the Pacers' game.	1594593	1471970294404	1471970294540	s	83
3175	33445	Rumors have him scheduled to attend at least part of the Pacers' game.	Rumors have him scheduled to attend at least part of the Pacers' game.	1594598	1471970294580	1471970294692	t	84
3175	33445	Rumors have him scheduled to attend at least part of the Pacers' game.	Rumors have him scheduled to attend at least part of the Pacers' game.	1594603	1471970294684	1471970294764	 	32
3175	33445	Rumors have him scheduled to attend at least part of the Pacers' game.	Rumors have him scheduled to attend at least part of the Pacers' game.	1594607	1471970294796	1471970294900	p	80
3175	33445	Rumors have him scheduled to attend at least part of the Pacers' game.	Rumors have him scheduled to attend at least part of the Pacers' game.	1594625	1471970294868	1471970294964	a	65
3175	33445	Rumors have him scheduled to attend at least part of the Pacers' game.	Rumors have him scheduled to attend at least part of the Pacers' game.	1594629	1471970294956	1471970295036	r	82
3175	33445	Rumors have him scheduled to attend at least part of the Pacers' game.	Rumors have him scheduled to attend at least part of the Pacers' game.	1594633	1471970295140	1471970295204	t	84
3175	33445	Rumors have him scheduled to attend at least part of the Pacers' game.	Rumors have him scheduled to attend at least part of the Pacers' game.	1594636	1471970295236	1471970295332	 	32
3175	33445	Rumors have him scheduled to attend at least part of the Pacers' game.	Rumors have him scheduled to attend at least part of the Pacers' game.	1594639	1471970295404	1471970295508	o	79
3175	33445	Rumors have him scheduled to attend at least part of the Pacers' game.	Rumors have him scheduled to attend at least part of the Pacers' game.	1594651	1471970295476	1471970295556	f	70
3175	33445	Rumors have him scheduled to attend at least part of the Pacers' game.	Rumors have him scheduled to attend at least part of the Pacers' game.	1594653	1471970295612	1471970295684	 	32
3175	33445	Rumors have him scheduled to attend at least part of the Pacers' game.	Rumors have him scheduled to attend at least part of the Pacers' game.	1594655	1471970295724	1471970295812	t	84
3175	33445	Rumors have him scheduled to attend at least part of the Pacers' game.	Rumors have him scheduled to attend at least part of the Pacers' game.	1594656	1471970295844	1471970295940	h	72
3175	33445	Rumors have him scheduled to attend at least part of the Pacers' game.	Rumors have him scheduled to attend at least part of the Pacers' game.	1594657	1471970295892	1471970295996	e	69
3175	33445	Rumors have him scheduled to attend at least part of the Pacers' game.	Rumors have him scheduled to attend at least part of the Pacers' game.	1594658	1471970296004	1471970296068	 	32
3175	33445	Rumors have him scheduled to attend at least part of the Pacers' game.	Rumors have him scheduled to attend at least part of the Pacers' game.	1594686	1471970296116	1471970296260	SHIFT	16
3175	33445	Rumors have him scheduled to attend at least part of the Pacers' game.	Rumors have him scheduled to attend at least part of the Pacers' game.	1594687	1471970296188	1471970296292	P	80
3175	33445	Rumors have him scheduled to attend at least part of the Pacers' game.	Rumors have him scheduled to attend at least part of the Pacers' game.	1594689	1471970296340	1471970296428	a	65
3175	33445	Rumors have him scheduled to attend at least part of the Pacers' game.	Rumors have him scheduled to attend at least part of the Pacers' game.	1594691	1471970296524	1471970296612	c	67
3175	33445	Rumors have him scheduled to attend at least part of the Pacers' game.	Rumors have him scheduled to attend at least part of the Pacers' game.	1594693	1471970296748	1471970296852	e	69
3175	33445	Rumors have him scheduled to attend at least part of the Pacers' game.	Rumors have him scheduled to attend at least part of the Pacers' game.	1594697	1471970296853	1471970296964	r	82
3175	33445	Rumors have him scheduled to attend at least part of the Pacers' game.	Rumors have him scheduled to attend at least part of the Pacers' game.	1594723	1471970297244	1471970297340	s	83
3175	33445	Rumors have him scheduled to attend at least part of the Pacers' game.	Rumors have him scheduled to attend at least part of the Pacers' game.	1594724	1471970297460	1471970297548	'	222
3175	33445	Rumors have him scheduled to attend at least part of the Pacers' game.	Rumors have him scheduled to attend at least part of the Pacers' game.	1594725	1471970297708	1471970297796	 	32
3175	33445	Rumors have him scheduled to attend at least part of the Pacers' game.	Rumors have him scheduled to attend at least part of the Pacers' game.	1594726	1471970297876	1471970297972	g	71
3175	33445	Rumors have him scheduled to attend at least part of the Pacers' game.	Rumors have him scheduled to attend at least part of the Pacers' game.	1594728	1471970297980	1471970298068	a	65
3175	33445	Rumors have him scheduled to attend at least part of the Pacers' game.	Rumors have him scheduled to attend at least part of the Pacers' game.	1594762	1471970298100	1471970298228	m	77
3175	33445	Rumors have him scheduled to attend at least part of the Pacers' game.	Rumors have him scheduled to attend at least part of the Pacers' game.	1594766	1471970298220	1471970298308	e	69
3175	33445	Rumors have him scheduled to attend at least part of the Pacers' game.	Rumors have him scheduled to attend at least part of the Pacers' game.	1594771	1471970298364	1471970298468	.	190
3175	33458	Tonight is my anniversary.	Tonight is my anniversary.	1594985	1471970303180	1471970303420	SHIFT	16
3175	33458	Tonight is my anniversary.	Tonight is my anniversary.	1594983	1471970303300	1471970303412	T	84
3175	33458	Tonight is my anniversary.	Tonight is my anniversary.	1594991	1471970303508	1471970303596	o	79
3175	33458	Tonight is my anniversary.	Tonight is my anniversary.	1594994	1471970303604	1471970303732	n	78
3175	33458	Tonight is my anniversary.	Tonight is my anniversary.	1595000	1471970303733	1471970303868	i	73
3175	33458	Tonight is my anniversary.	Tonight is my anniversary.	1595003	1471970304020	1471970304116	g	71
3175	33458	Tonight is my anniversary.	Tonight is my anniversary.	1595006	1471970304119	1471970304212	h	72
3175	33458	Tonight is my anniversary.	Tonight is my anniversary.	1595007	1471970304284	1471970304372	t	84
3175	33458	Tonight is my anniversary.	Tonight is my anniversary.	1595008	1471970304412	1471970304500	 	32
3175	33458	Tonight is my anniversary.	Tonight is my anniversary.	1595009	1471970304524	1471970304628	i	73
3175	33458	Tonight is my anniversary.	Tonight is my anniversary.	1595025	1471970304612	1471970304707	s	83
3175	33458	Tonight is my anniversary.	Tonight is my anniversary.	1595027	1471970304716	1471970304796	 	32
3175	33458	Tonight is my anniversary.	Tonight is my anniversary.	1595031	1471970304868	1471970304948	m	77
3175	33458	Tonight is my anniversary.	Tonight is my anniversary.	1595034	1471970305084	1471970305164	y	89
3175	33458	Tonight is my anniversary.	Tonight is my anniversary.	1595036	1471970305228	1471970305324	 	32
3175	33458	Tonight is my anniversary.	Tonight is my anniversary.	1595037	1471970305380	1471970305460	a	65
3175	33458	Tonight is my anniversary.	Tonight is my anniversary.	1595044	1471970305524	1471970305580	n	78
3175	33458	Tonight is my anniversary.	Tonight is my anniversary.	1595046	1471970305643	1471970305716	n	78
3175	33458	Tonight is my anniversary.	Tonight is my anniversary.	1595049	1471970305772	1471970305852	i	73
3175	33458	Tonight is my anniversary.	Tonight is my anniversary.	1595053	1471970305876	1471970305988	v	86
3175	33458	Tonight is my anniversary.	Tonight is my anniversary.	1595058	1471970306068	1471970306188	e	69
3175	33458	Tonight is my anniversary.	Tonight is my anniversary.	1595074	1471970306204	1471970306316	r	82
3175	33458	Tonight is my anniversary.	Tonight is my anniversary.	1595076	1471970306364	1471970306460	s	83
3175	33458	Tonight is my anniversary.	Tonight is my anniversary.	1595078	1471970306548	1471970306676	a	65
3175	33458	Tonight is my anniversary.	Tonight is my anniversary.	1595081	1471970306684	1471970306796	r	82
3175	33458	Tonight is my anniversary.	Tonight is my anniversary.	1595083	1471970306836	1471970306924	y	89
3175	33458	Tonight is my anniversary.	Tonight is my anniversary.	1595095	1471970307043	1471970307164	.	190
3175	33466	Indy time trials begin Saturday.	Indy time trials begin Saturday.	1595212	1471970310036	1471970310188	SHIFT	16
3175	33466	Indy time trials begin Saturday.	Indy time trials begin Saturday.	1595216	1471970310107	1471970310219	I	73
3175	33466	Indy time trials begin Saturday.	Indy time trials begin Saturday.	1595218	1471970310211	1471970310316	n	78
3175	33466	Indy time trials begin Saturday.	Indy time trials begin Saturday.	1595219	1471970310331	1471970310428	d	68
3175	33466	Indy time trials begin Saturday.	Indy time trials begin Saturday.	1595222	1471970310491	1471970310580	y	89
3175	33466	Indy time trials begin Saturday.	Indy time trials begin Saturday.	1595227	1471970310619	1471970310708	 	32
3175	33466	Indy time trials begin Saturday.	Indy time trials begin Saturday.	1595239	1471970310755	1471970310859	t	84
3175	33466	Indy time trials begin Saturday.	Indy time trials begin Saturday.	1595245	1471970310836	1471970310924	i	73
3175	33466	Indy time trials begin Saturday.	Indy time trials begin Saturday.	1595252	1471970310939	1471970311028	m	77
3175	33466	Indy time trials begin Saturday.	Indy time trials begin Saturday.	1595255	1471970311035	1471970311131	e	69
3175	33466	Indy time trials begin Saturday.	Indy time trials begin Saturday.	1595257	1471970311179	1471970311259	 	32
3175	33466	Indy time trials begin Saturday.	Indy time trials begin Saturday.	1595268	1471970311300	1471970311372	t	84
3175	33466	Indy time trials begin Saturday.	Indy time trials begin Saturday.	1595269	1471970311475	1471970311587	r	82
3175	33466	Indy time trials begin Saturday.	Indy time trials begin Saturday.	1595271	1471970311572	1471970311676	i	73
3175	33466	Indy time trials begin Saturday.	Indy time trials begin Saturday.	1595277	1471970311707	1471970311803	a	65
3175	33466	Indy time trials begin Saturday.	Indy time trials begin Saturday.	1595280	1471970311827	1471970311931	l	76
3175	33466	Indy time trials begin Saturday.	Indy time trials begin Saturday.	1595298	1471970311935	1471970312027	s	83
3175	33466	Indy time trials begin Saturday.	Indy time trials begin Saturday.	1595300	1471970312051	1471970312123	 	32
3175	33466	Indy time trials begin Saturday.	Indy time trials begin Saturday.	1595302	1471970312171	1471970312259	b	66
3175	33466	Indy time trials begin Saturday.	Indy time trials begin Saturday.	1595304	1471970312331	1471970312419	e	69
3175	33466	Indy time trials begin Saturday.	Indy time trials begin Saturday.	1595307	1471970312467	1471970312571	g	71
3175	33466	Indy time trials begin Saturday.	Indy time trials begin Saturday.	1595334	1471970312595	1471970312691	i	73
3175	33466	Indy time trials begin Saturday.	Indy time trials begin Saturday.	1595337	1471970312683	1471970312763	n	78
3175	33466	Indy time trials begin Saturday.	Indy time trials begin Saturday.	1595341	1471970312709	1471970312835	 	32
3175	33466	Indy time trials begin Saturday.	Indy time trials begin Saturday.	1595349	1471970312939	1471970313147	SHIFT	16
3175	33466	Indy time trials begin Saturday.	Indy time trials begin Saturday.	1595344	1471970313027	1471970313139	S	83
3175	33466	Indy time trials begin Saturday.	Indy time trials begin Saturday.	1595353	1471970313315	1471970313419	a	65
3175	33466	Indy time trials begin Saturday.	Indy time trials begin Saturday.	1595365	1471970313443	1471970313539	t	84
3175	33466	Indy time trials begin Saturday.	Indy time trials begin Saturday.	1595366	1471970313619	1471970313715	u	85
3175	33466	Indy time trials begin Saturday.	Indy time trials begin Saturday.	1595367	1471970313747	1471970313860	r	82
3175	33466	Indy time trials begin Saturday.	Indy time trials begin Saturday.	1595368	1471970313947	1471970314035	d	68
3175	33466	Indy time trials begin Saturday.	Indy time trials begin Saturday.	1595369	1471970314067	1471970314171	a	65
3175	33466	Indy time trials begin Saturday.	Indy time trials begin Saturday.	1595389	1471970314219	1471970314307	y	89
3175	33466	Indy time trials begin Saturday.	Indy time trials begin Saturday.	1595391	1471970314451	1471970314555	.	190
3175	33471	A bit behind on my emails.	A bit behind m my emails.	1595444	1471970316875	1471970317099	SHIFT	16
3175	33471	A bit behind on my emails.	A bit behind m my emails.	1595441	1471970316947	1471970317067	A	65
3175	33471	A bit behind on my emails.	A bit behind m my emails.	1595449	1471970317075	1471970317171	 	32
3175	33471	A bit behind on my emails.	A bit behind m my emails.	1595453	1471970317187	1471970317275	b	66
3175	33471	A bit behind on my emails.	A bit behind m my emails.	1595457	1471970317323	1471970317403	i	73
3175	33471	A bit behind on my emails.	A bit behind m my emails.	1595460	1471970317443	1471970317531	t	84
3175	33471	A bit behind on my emails.	A bit behind m my emails.	1595494	1471970317579	1471970317659	 	32
3175	33471	A bit behind on my emails.	A bit behind m my emails.	1595496	1471970317731	1471970317803	b	66
3175	33471	A bit behind on my emails.	A bit behind m my emails.	1595500	1471970317891	1471970317971	e	69
3175	33471	A bit behind on my emails.	A bit behind m my emails.	1595501	1471970317995	1471970318099	h	72
3175	33471	A bit behind on my emails.	A bit behind m my emails.	1595502	1471970318107	1471970318219	i	73
3175	33471	A bit behind on my emails.	A bit behind m my emails.	1595555	1471970318212	1471970318294	n	78
3175	33471	A bit behind on my emails.	A bit behind m my emails.	1595556	1471970318267	1471970318379	d	68
3175	33471	A bit behind on my emails.	A bit behind m my emails.	1595557	1471970318395	1471970318467	 	32
3175	33471	A bit behind on my emails.	A bit behind m my emails.	1595558	1471970318491	1471970318579	m	77
3175	33471	A bit behind on my emails.	A bit behind m my emails.	1595559	1471970320035	1471970320131	 	32
3175	33471	A bit behind on my emails.	A bit behind m my emails.	1595560	1471970320171	1471970320251	m	77
3175	33471	A bit behind on my emails.	A bit behind m my emails.	1595571	1471970320379	1471970320435	y	89
3175	33471	A bit behind on my emails.	A bit behind m my emails.	1595573	1471970320443	1471970320555	 	32
3175	33471	A bit behind on my emails.	A bit behind m my emails.	1595574	1471970320603	1471970320723	e	69
3175	33471	A bit behind on my emails.	A bit behind m my emails.	1595575	1471970320715	1471970320819	m	77
3175	33471	A bit behind on my emails.	A bit behind m my emails.	1595599	1471970320803	1471970320907	a	65
3175	33471	A bit behind on my emails.	A bit behind m my emails.	1595602	1471970320915	1471970320995	i	73
3175	33471	A bit behind on my emails.	A bit behind m my emails.	1595605	1471970321075	1471970321171	l	76
3175	33471	A bit behind on my emails.	A bit behind m my emails.	1595608	1471970321179	1471970321267	s	83
3175	33471	A bit behind on my emails.	A bit behind m my emails.	1595612	1471970321291	1471970321363	.	190
3175	33478	I will need to get you set up in their system prior to Tuesday.	I will need to get you set up in their system prior to Tuseday.	1595718	1471970323659	1471970323819	SHIFT	16
3175	33478	I will need to get you set up in their system prior to Tuesday.	I will need to get you set up in their system prior to Tuseday.	1595720	1471970323747	1471970323835	I	73
3175	33478	I will need to get you set up in their system prior to Tuesday.	I will need to get you set up in their system prior to Tuseday.	1595721	1471970323859	1471970323947	 	32
3175	33478	I will need to get you set up in their system prior to Tuesday.	I will need to get you set up in their system prior to Tuseday.	1595722	1471970323971	1471970324083	w	87
3175	33478	I will need to get you set up in their system prior to Tuesday.	I will need to get you set up in their system prior to Tuseday.	1595724	1471970324115	1471970324187	i	73
3175	33478	I will need to get you set up in their system prior to Tuesday.	I will need to get you set up in their system prior to Tuseday.	1595729	1471970324299	1471970324347	l	76
3175	33478	I will need to get you set up in their system prior to Tuesday.	I will need to get you set up in their system prior to Tuseday.	1595751	1471970324395	1471970324483	l	76
3175	33478	I will need to get you set up in their system prior to Tuesday.	I will need to get you set up in their system prior to Tuseday.	1595752	1471970324515	1471970324595	 	32
3175	33478	I will need to get you set up in their system prior to Tuesday.	I will need to get you set up in their system prior to Tuseday.	1595753	1471970324587	1471970324691	n	78
3175	33478	I will need to get you set up in their system prior to Tuesday.	I will need to get you set up in their system prior to Tuseday.	1595754	1471970324675	1471970324755	e	69
3175	33478	I will need to get you set up in their system prior to Tuesday.	I will need to get you set up in their system prior to Tuseday.	1595755	1471970324859	1471970324923	e	69
3175	33478	I will need to get you set up in their system prior to Tuesday.	I will need to get you set up in their system prior to Tuseday.	1595771	1471970325043	1471970325115	d	68
3175	33478	I will need to get you set up in their system prior to Tuesday.	I will need to get you set up in their system prior to Tuseday.	1595773	1471970325163	1471970325243	 	32
3175	33478	I will need to get you set up in their system prior to Tuesday.	I will need to get you set up in their system prior to Tuseday.	1595774	1471970325291	1471970325371	t	84
3175	33478	I will need to get you set up in their system prior to Tuesday.	I will need to get you set up in their system prior to Tuseday.	1595775	1471970325419	1471970325500	o	79
3175	33478	I will need to get you set up in their system prior to Tuesday.	I will need to get you set up in their system prior to Tuseday.	1595793	1471970325467	1471970325555	 	32
3175	33478	I will need to get you set up in their system prior to Tuesday.	I will need to get you set up in their system prior to Tuseday.	1595796	1471970325587	1471970325659	g	71
3175	33478	I will need to get you set up in their system prior to Tuesday.	I will need to get you set up in their system prior to Tuseday.	1595798	1471970325707	1471970325795	e	69
3175	33478	I will need to get you set up in their system prior to Tuesday.	I will need to get you set up in their system prior to Tuseday.	1595800	1471970325827	1471970325907	t	84
3175	33478	I will need to get you set up in their system prior to Tuesday.	I will need to get you set up in their system prior to Tuseday.	1595802	1471970325939	1471970326027	 	32
3175	33478	I will need to get you set up in their system prior to Tuesday.	I will need to get you set up in their system prior to Tuseday.	1595805	1471970326099	1471970326195	y	89
3175	33478	I will need to get you set up in their system prior to Tuesday.	I will need to get you set up in their system prior to Tuseday.	1595818	1471970326211	1471970326315	o	79
3175	33478	I will need to get you set up in their system prior to Tuesday.	I will need to get you set up in their system prior to Tuseday.	1595821	1471970326307	1471970326371	u	85
3175	33478	I will need to get you set up in their system prior to Tuesday.	I will need to get you set up in their system prior to Tuseday.	1595824	1471970326379	1471970326491	 	32
3175	33478	I will need to get you set up in their system prior to Tuesday.	I will need to get you set up in their system prior to Tuseday.	1595827	1471970326531	1471970326659	s	83
3175	33478	I will need to get you set up in their system prior to Tuesday.	I will need to get you set up in their system prior to Tuseday.	1595830	1471970326675	1471970326747	e	69
3175	33478	I will need to get you set up in their system prior to Tuesday.	I will need to get you set up in their system prior to Tuseday.	1595866	1471970326811	1471970326915	t	84
3175	33478	I will need to get you set up in their system prior to Tuesday.	I will need to get you set up in their system prior to Tuseday.	1595869	1471970327067	1471970327155	 	32
3175	33478	I will need to get you set up in their system prior to Tuesday.	I will need to get you set up in their system prior to Tuseday.	1595873	1471970327307	1471970327419	u	85
3175	33478	I will need to get you set up in their system prior to Tuesday.	I will need to get you set up in their system prior to Tuseday.	1595878	1471970327420	1471970327507	p	80
3175	33478	I will need to get you set up in their system prior to Tuesday.	I will need to get you set up in their system prior to Tuseday.	1595880	1471970327555	1471970327643	 	32
3175	33478	I will need to get you set up in their system prior to Tuesday.	I will need to get you set up in their system prior to Tuseday.	1595884	1471970327675	1471970327803	i	73
3175	33478	I will need to get you set up in their system prior to Tuesday.	I will need to get you set up in their system prior to Tuseday.	1595886	1471970327803	1471970327883	n	78
3175	33478	I will need to get you set up in their system prior to Tuesday.	I will need to get you set up in their system prior to Tuseday.	1595889	1471970327867	1471970327946	 	32
3175	33478	I will need to get you set up in their system prior to Tuesday.	I will need to get you set up in their system prior to Tuseday.	1595892	1471970328019	1471970328115	t	84
3175	33478	I will need to get you set up in their system prior to Tuesday.	I will need to get you set up in their system prior to Tuseday.	1595920	1471970328107	1471970328203	h	72
3175	33478	I will need to get you set up in their system prior to Tuesday.	I will need to get you set up in their system prior to Tuseday.	1595924	1471970328204	1471970328291	e	69
3175	33478	I will need to get you set up in their system prior to Tuesday.	I will need to get you set up in their system prior to Tuseday.	1595929	1471970328363	1471970328443	i	73
3175	33478	I will need to get you set up in their system prior to Tuesday.	I will need to get you set up in their system prior to Tuseday.	1595932	1471970328483	1471970328555	r	82
3175	33478	I will need to get you set up in their system prior to Tuesday.	I will need to get you set up in their system prior to Tuseday.	1595935	1471970328667	1471970328739	 	32
3175	33478	I will need to get you set up in their system prior to Tuesday.	I will need to get you set up in their system prior to Tuseday.	1595940	1471970329027	1471970329123	s	83
3175	33478	I will need to get you set up in their system prior to Tuesday.	I will need to get you set up in their system prior to Tuseday.	1595961	1471970329242	1471970329339	y	89
3175	33478	I will need to get you set up in their system prior to Tuesday.	I will need to get you set up in their system prior to Tuseday.	1595965	1471970329379	1471970329459	s	83
3175	33478	I will need to get you set up in their system prior to Tuesday.	I will need to get you set up in their system prior to Tuseday.	1595968	1471970329499	1471970329587	t	84
3175	33478	I will need to get you set up in their system prior to Tuesday.	I will need to get you set up in their system prior to Tuseday.	1595971	1471970329618	1471970329699	e	69
3175	33478	I will need to get you set up in their system prior to Tuesday.	I will need to get you set up in their system prior to Tuseday.	1595977	1471970329731	1471970329827	m	77
3175	33478	I will need to get you set up in their system prior to Tuesday.	I will need to get you set up in their system prior to Tuseday.	1595997	1471970329819	1471970329898	 	32
3175	33478	I will need to get you set up in their system prior to Tuesday.	I will need to get you set up in their system prior to Tuseday.	1596001	1471970329955	1471970330083	p	80
3175	33478	I will need to get you set up in their system prior to Tuesday.	I will need to get you set up in their system prior to Tuseday.	1596004	1471970330091	1471970330186	r	82
3175	33478	I will need to get you set up in their system prior to Tuesday.	I will need to get you set up in their system prior to Tuseday.	1596008	1471970330178	1471970330275	i	73
3175	33478	I will need to get you set up in their system prior to Tuesday.	I will need to get you set up in their system prior to Tuseday.	1596013	1471970330315	1471970330427	o	79
3175	33478	I will need to get you set up in their system prior to Tuesday.	I will need to get you set up in their system prior to Tuseday.	1596017	1471970330451	1471970330531	r	82
3175	33478	I will need to get you set up in their system prior to Tuesday.	I will need to get you set up in their system prior to Tuseday.	1596042	1471970330619	1471970330699	 	32
3175	33478	I will need to get you set up in their system prior to Tuesday.	I will need to get you set up in their system prior to Tuseday.	1596044	1471970330755	1471970330851	t	84
3175	33478	I will need to get you set up in their system prior to Tuesday.	I will need to get you set up in their system prior to Tuseday.	1596047	1471970330875	1471970330971	o	79
3175	33478	I will need to get you set up in their system prior to Tuesday.	I will need to get you set up in their system prior to Tuseday.	1596050	1471970330971	1471970331043	 	32
3175	33478	I will need to get you set up in their system prior to Tuesday.	I will need to get you set up in their system prior to Tuseday.	1596102	1471970331163	1471970331299	T	16
3175	33478	I will need to get you set up in their system prior to Tuesday.	I will need to get you set up in their system prior to Tuseday.	1596106	1471970331323	1471970331411	u	85
3175	33478	I will need to get you set up in their system prior to Tuesday.	I will need to get you set up in their system prior to Tuseday.	1596110	1471970331459	1471970331547	s	83
3175	33478	I will need to get you set up in their system prior to Tuesday.	I will need to get you set up in their system prior to Tuseday.	1596117	1471970331667	1471970331731	e	69
3175	33478	I will need to get you set up in their system prior to Tuesday.	I will need to get you set up in their system prior to Tuseday.	1596120	1471970332179	1471970332259	d	68
3175	33478	I will need to get you set up in their system prior to Tuesday.	I will need to get you set up in their system prior to Tuseday.	1596122	1471970332291	1471970332394	a	65
3175	33478	I will need to get you set up in their system prior to Tuesday.	I will need to get you set up in their system prior to Tuseday.	1596135	1471970332411	1471970332491	y	89
3175	33478	I will need to get you set up in their system prior to Tuesday.	I will need to get you set up in their system prior to Tuseday.	1596136	1471970332611	1471970332722	.	190
3175	33490	Some members of the council refuse to recognize the progress.	Some members of teh council refuse to recognize the progress.	1596235	1471970334867	1471970335035	SHIFT	16
3175	33490	Some members of the council refuse to recognize the progress.	Some members of teh council refuse to recognize the progress.	1596239	1471970334970	1471970335042	S	83
3175	33490	Some members of the council refuse to recognize the progress.	Some members of teh council refuse to recognize the progress.	1596241	1471970335139	1471970335218	o	79
3175	33490	Some members of the council refuse to recognize the progress.	Some members of teh council refuse to recognize the progress.	1596246	1471970335226	1471970335323	m	77
3175	33490	Some members of the council refuse to recognize the progress.	Some members of teh council refuse to recognize the progress.	1596250	1471970335346	1471970335434	e	69
3175	33490	Some members of the council refuse to recognize the progress.	Some members of teh council refuse to recognize the progress.	1596252	1471970335450	1471970335546	 	32
3175	33490	Some members of the council refuse to recognize the progress.	Some members of teh council refuse to recognize the progress.	1596262	1471970335746	1471970335860	m	77
3175	33490	Some members of the council refuse to recognize the progress.	Some members of teh council refuse to recognize the progress.	1596265	1471970335835	1471970335922	e	69
3175	33490	Some members of the council refuse to recognize the progress.	Some members of teh council refuse to recognize the progress.	1596268	1471970335970	1471970336042	m	77
3175	33490	Some members of the council refuse to recognize the progress.	Some members of teh council refuse to recognize the progress.	1596271	1471970336035	1471970336122	b	66
3175	33490	Some members of the council refuse to recognize the progress.	Some members of teh council refuse to recognize the progress.	1596276	1471970336178	1471970336290	e	69
3175	33490	Some members of the council refuse to recognize the progress.	Some members of teh council refuse to recognize the progress.	1596299	1471970336267	1471970336354	r	82
3175	33490	Some members of the council refuse to recognize the progress.	Some members of teh council refuse to recognize the progress.	1596302	1471970336418	1471970336498	s	83
3175	33490	Some members of the council refuse to recognize the progress.	Some members of teh council refuse to recognize the progress.	1596305	1471970336514	1471970336595	 	32
3175	33490	Some members of the council refuse to recognize the progress.	Some members of teh council refuse to recognize the progress.	1596307	1471970336682	1471970336762	o	79
3175	33490	Some members of the council refuse to recognize the progress.	Some members of teh council refuse to recognize the progress.	1596309	1471970336778	1471970336834	f	70
3175	33490	Some members of the council refuse to recognize the progress.	Some members of teh council refuse to recognize the progress.	1596312	1471970336882	1471970336986	 	32
3175	33490	Some members of the council refuse to recognize the progress.	Some members of teh council refuse to recognize the progress.	1596367	1471970337058	1471970337114	t	84
3175	33490	Some members of the council refuse to recognize the progress.	Some members of teh council refuse to recognize the progress.	1596368	1471970337203	1471970337258	e	69
3175	33490	Some members of the council refuse to recognize the progress.	Some members of teh council refuse to recognize the progress.	1596370	1471970337306	1471970337379	h	72
3175	33490	Some members of the council refuse to recognize the progress.	Some members of teh council refuse to recognize the progress.	1596373	1471970337498	1471970337570	 	32
3175	33490	Some members of the council refuse to recognize the progress.	Some members of teh council refuse to recognize the progress.	1596376	1471970337938	1471970338043	c	67
3175	33490	Some members of the council refuse to recognize the progress.	Some members of teh council refuse to recognize the progress.	1596405	1471970338010	1471970338098	o	79
3175	33490	Some members of the council refuse to recognize the progress.	Some members of teh council refuse to recognize the progress.	1596406	1471970338099	1471970338170	u	85
3175	33490	Some members of the council refuse to recognize the progress.	Some members of teh council refuse to recognize the progress.	1596407	1471970338266	1471970338354	n	78
3175	33490	Some members of the council refuse to recognize the progress.	Some members of teh council refuse to recognize the progress.	1596408	1471970338370	1471970338450	c	67
3175	33490	Some members of the council refuse to recognize the progress.	Some members of teh council refuse to recognize the progress.	1596409	1471970338506	1471970338586	i	73
3175	33490	Some members of the council refuse to recognize the progress.	Some members of teh council refuse to recognize the progress.	1596410	1471970338770	1471970338882	l	76
3175	33490	Some members of the council refuse to recognize the progress.	Some members of teh council refuse to recognize the progress.	1596437	1471970338935	1471970339026	 	32
3175	33490	Some members of the council refuse to recognize the progress.	Some members of teh council refuse to recognize the progress.	1596440	1471970339178	1471970339282	r	82
3175	33490	Some members of the council refuse to recognize the progress.	Some members of teh council refuse to recognize the progress.	1596443	1471970339290	1471970339378	e	69
3175	33490	Some members of the council refuse to recognize the progress.	Some members of teh council refuse to recognize the progress.	1596445	1471970339458	1471970339578	f	70
3175	33490	Some members of the council refuse to recognize the progress.	Some members of teh council refuse to recognize the progress.	1596464	1471970339562	1471970339658	u	85
3175	33490	Some members of the council refuse to recognize the progress.	Some members of teh council refuse to recognize the progress.	1596468	1471970339650	1471970339754	s	83
3175	33490	Some members of the council refuse to recognize the progress.	Some members of teh council refuse to recognize the progress.	1596471	1471970339738	1471970339826	e	69
3175	33490	Some members of the council refuse to recognize the progress.	Some members of teh council refuse to recognize the progress.	1596474	1471970339882	1471970339930	 	32
3175	33490	Some members of the council refuse to recognize the progress.	Some members of teh council refuse to recognize the progress.	1596479	1471970340002	1471970340082	t	84
3175	33490	Some members of the council refuse to recognize the progress.	Some members of teh council refuse to recognize the progress.	1596484	1471970340130	1471970340218	o	79
3175	33490	Some members of the council refuse to recognize the progress.	Some members of teh council refuse to recognize the progress.	1596532	1471970340210	1471970340298	 	32
3175	33490	Some members of the council refuse to recognize the progress.	Some members of teh council refuse to recognize the progress.	1596538	1471970340498	1471970340586	r	82
3175	33490	Some members of the council refuse to recognize the progress.	Some members of teh council refuse to recognize the progress.	1596542	1471970340602	1471970340682	e	69
3175	33490	Some members of the council refuse to recognize the progress.	Some members of teh council refuse to recognize the progress.	1596546	1471970340882	1471970340978	c	67
3175	33490	Some members of the council refuse to recognize the progress.	Some members of teh council refuse to recognize the progress.	1596550	1471970341066	1471970341218	o	79
3175	33490	Some members of the council refuse to recognize the progress.	Some members of teh council refuse to recognize the progress.	1596551	1471970341266	1471970341370	g	71
3175	33490	Some members of the council refuse to recognize the progress.	Some members of teh council refuse to recognize the progress.	1596587	1471970341418	1471970341530	n	78
3175	33490	Some members of the council refuse to recognize the progress.	Some members of teh council refuse to recognize the progress.	1596589	1471970341698	1471970341802	i	73
3175	33490	Some members of the council refuse to recognize the progress.	Some members of teh council refuse to recognize the progress.	1596591	1471970341842	1471970341906	z	90
3175	33490	Some members of the council refuse to recognize the progress.	Some members of teh council refuse to recognize the progress.	1596593	1471970342010	1471970342098	e	69
3175	33490	Some members of the council refuse to recognize the progress.	Some members of teh council refuse to recognize the progress.	1596595	1471970342122	1471970342218	 	32
3175	33490	Some members of the council refuse to recognize the progress.	Some members of teh council refuse to recognize the progress.	1596624	1471970342266	1471970342338	t	84
3175	33490	Some members of the council refuse to recognize the progress.	Some members of teh council refuse to recognize the progress.	1596628	1471970342362	1471970342442	h	72
3175	33490	Some members of the council refuse to recognize the progress.	Some members of teh council refuse to recognize the progress.	1596632	1471970342450	1471970342546	e	69
3175	33490	Some members of the council refuse to recognize the progress.	Some members of teh council refuse to recognize the progress.	1596638	1471970342562	1471970342642	 	32
3175	33490	Some members of the council refuse to recognize the progress.	Some members of teh council refuse to recognize the progress.	1596644	1471970342738	1471970342850	p	80
3175	33490	Some members of the council refuse to recognize the progress.	Some members of teh council refuse to recognize the progress.	1596679	1471970342866	1471970342946	r	82
3175	33490	Some members of the council refuse to recognize the progress.	Some members of teh council refuse to recognize the progress.	1596683	1471970343002	1471970343090	o	79
3175	33490	Some members of the council refuse to recognize the progress.	Some members of teh council refuse to recognize the progress.	1596688	1471970343234	1471970343306	g	71
3175	33490	Some members of the council refuse to recognize the progress.	Some members of teh council refuse to recognize the progress.	1596694	1471970343466	1471970343578	r	82
3175	33490	Some members of the council refuse to recognize the progress.	Some members of teh council refuse to recognize the progress.	1596700	1471970343602	1471970343690	e	69
3175	33490	Some members of the council refuse to recognize the progress.	Some members of teh council refuse to recognize the progress.	1596723	1471970343778	1471970343842	s	83
3175	33490	Some members of the council refuse to recognize the progress.	Some members of teh council refuse to recognize the progress.	1596725	1471970343922	1471970344010	s	83
3175	33490	Some members of the council refuse to recognize the progress.	Some members of teh council refuse to recognize the progress.	1596729	1471970344154	1471970344242	.	190
3175	33501	There is substantially no difference between us.	There is substantially no difference between us.	1596877	1471970347530	1471970347674	SHIFT	16
3175	33501	There is substantially no difference between us.	There is substantially no difference between us.	1596880	1471970347618	1471970347706	T	84
3175	33501	There is substantially no difference between us.	There is substantially no difference between us.	1596885	1471970347722	1471970347810	h	72
3175	33501	There is substantially no difference between us.	There is substantially no difference between us.	1596893	1471970347794	1471970347882	e	69
3175	33501	There is substantially no difference between us.	There is substantially no difference between us.	1596897	1471970347890	1471970348042	r	82
3175	33501	There is substantially no difference between us.	There is substantially no difference between us.	1596902	1471970348458	1471970348562	e	69
3175	33501	There is substantially no difference between us.	There is substantially no difference between us.	1596916	1471970348570	1471970348666	 	32
3175	33501	There is substantially no difference between us.	There is substantially no difference between us.	1596918	1471970348762	1471970348850	i	73
3175	33501	There is substantially no difference between us.	There is substantially no difference between us.	1596920	1471970348866	1471970348954	s	83
3175	33501	There is substantially no difference between us.	There is substantially no difference between us.	1596922	1471970348970	1471970349042	 	32
3175	33501	There is substantially no difference between us.	There is substantially no difference between us.	1596924	1471970349098	1471970349194	s	83
3175	33501	There is substantially no difference between us.	There is substantially no difference between us.	1596952	1471970349226	1471970349306	u	85
3175	33501	There is substantially no difference between us.	There is substantially no difference between us.	1596953	1471970349490	1471970349586	b	66
3175	33501	There is substantially no difference between us.	There is substantially no difference between us.	1596956	1471970349682	1471970349786	s	83
3175	33501	There is substantially no difference between us.	There is substantially no difference between us.	1596960	1471970349826	1471970349922	t	84
3175	33501	There is substantially no difference between us.	There is substantially no difference between us.	1596967	1471970349938	1471970350034	a	65
3175	33501	There is substantially no difference between us.	There is substantially no difference between us.	1596988	1471970350114	1471970350218	n	78
3175	33501	There is substantially no difference between us.	There is substantially no difference between us.	1596991	1471970350306	1471970350434	t	84
3175	33501	There is substantially no difference between us.	There is substantially no difference between us.	1596993	1471970350435	1471970350538	i	73
3175	33501	There is substantially no difference between us.	There is substantially no difference between us.	1596996	1471970350570	1471970350650	a	65
3175	33501	There is substantially no difference between us.	There is substantially no difference between us.	1596998	1471970350674	1471970350730	l	76
3175	33501	There is substantially no difference between us.	There is substantially no difference between us.	1597032	1471970350794	1471970350866	l	76
3175	33501	There is substantially no difference between us.	There is substantially no difference between us.	1597034	1471970350970	1471970351050	y	89
3175	33501	There is substantially no difference between us.	There is substantially no difference between us.	1597036	1471970351122	1471970351210	 	32
3175	33501	There is substantially no difference between us.	There is substantially no difference between us.	1597038	1471970351298	1471970351394	n	78
3175	33501	There is substantially no difference between us.	There is substantially no difference between us.	1597040	1471970351426	1471970351514	o	79
3175	33501	There is substantially no difference between us.	There is substantially no difference between us.	1597057	1471970351522	1471970351602	 	32
3175	33501	There is substantially no difference between us.	There is substantially no difference between us.	1597061	1471970351682	1471970351770	d	68
3175	33501	There is substantially no difference between us.	There is substantially no difference between us.	1597066	1471970351778	1471970351850	i	73
3175	33501	There is substantially no difference between us.	There is substantially no difference between us.	1597070	1471970351930	1471970351986	f	70
3175	33501	There is substantially no difference between us.	There is substantially no difference between us.	1597074	1471970352090	1471970352170	f	70
3175	33501	There is substantially no difference between us.	There is substantially no difference between us.	1597109	1471970352258	1471970352338	e	69
3175	33501	There is substantially no difference between us.	There is substantially no difference between us.	1597112	1471970352362	1471970352490	r	82
3175	33501	There is substantially no difference between us.	There is substantially no difference between us.	1597116	1471970352498	1471970352586	e	69
3175	33501	There is substantially no difference between us.	There is substantially no difference between us.	1597119	1471970352666	1471970352754	n	78
3175	33501	There is substantially no difference between us.	There is substantially no difference between us.	1597121	1471970352842	1471970352914	c	67
3175	33501	There is substantially no difference between us.	There is substantially no difference between us.	1597154	1471970353042	1471970353114	e	69
3175	33501	There is substantially no difference between us.	There is substantially no difference between us.	1597158	1471970353138	1471970353226	 	32
3175	33501	There is substantially no difference between us.	There is substantially no difference between us.	1597163	1471970353298	1471970353386	b	66
3175	33501	There is substantially no difference between us.	There is substantially no difference between us.	1597166	1471970353554	1471970353674	e	69
3175	33501	There is substantially no difference between us.	There is substantially no difference between us.	1597168	1471970353826	1471970353922	t	84
3175	33501	There is substantially no difference between us.	There is substantially no difference between us.	1597182	1471970354138	1471970354242	w	87
3175	33501	There is substantially no difference between us.	There is substantially no difference between us.	1597184	1471970354330	1471970354418	e	69
3175	33501	There is substantially no difference between us.	There is substantially no difference between us.	1597187	1471970354498	1471970354586	e	69
3175	33501	There is substantially no difference between us.	There is substantially no difference between us.	1597190	1471970354650	1471970354754	n	78
3175	33501	There is substantially no difference between us.	There is substantially no difference between us.	1597212	1471970354746	1471970354834	 	32
3175	33501	There is substantially no difference between us.	There is substantially no difference between us.	1597214	1471970354906	1471970354986	u	85
3175	33501	There is substantially no difference between us.	There is substantially no difference between us.	1597216	1471970355010	1471970355098	s	83
3175	33501	There is substantially no difference between us.	There is substantially no difference between us.	1597218	1471970355138	1471970355226	.	190
3175	33515	I will if I want to.	I willif i want to.	1597362	1471970357442	1471970357570	SHIFT	16
3175	33515	I will if I want to.	I willif i want to.	1597363	1471970357530	1471970357617	I	73
3175	33515	I will if I want to.	I willif i want to.	1597367	1471970357618	1471970357730	 	32
3175	33515	I will if I want to.	I willif i want to.	1597372	1471970357753	1471970357850	w	87
3175	33515	I will if I want to.	I willif i want to.	1597377	1471970357866	1471970357945	i	73
3175	33515	I will if I want to.	I willif i want to.	1597383	1471970358041	1471970358098	l	76
3175	33515	I will if I want to.	I willif i want to.	1597422	1471970358138	1471970358234	l	76
3175	33515	I will if I want to.	I willif i want to.	1597423	1471970358564	1471970358618	i	73
3175	33515	I will if I want to.	I willif i want to.	1597424	1471970359178	1471970359274	f	70
3175	33515	I will if I want to.	I willif i want to.	1597425	1471970359297	1471970359378	 	32
3175	33515	I will if I want to.	I willif i want to.	1597427	1471970359457	1471970359537	i	73
3175	33515	I will if I want to.	I willif i want to.	1597462	1471970359530	1471970359626	 	32
3175	33515	I will if I want to.	I willif i want to.	1597467	1471970359682	1471970359778	w	87
3175	33515	I will if I want to.	I willif i want to.	1597472	1471970359825	1471970359938	a	65
3175	33515	I will if I want to.	I willif i want to.	1597476	1471970359929	1471970360033	n	78
3175	33515	I will if I want to.	I willif i want to.	1597482	1471970360026	1471970360146	t	84
3175	33515	I will if I want to.	I willif i want to.	1597490	1471970360169	1471970360257	 	32
3175	33515	I will if I want to.	I willif i want to.	1597522	1471970360314	1471970360402	t	84
3175	33515	I will if I want to.	I willif i want to.	1597524	1471970360441	1471970360537	o	79
3175	33515	I will if I want to.	I willif i want to.	1597526	1471970360658	1471970360730	.	190
