PARTICIPANT_ID	TEST_SECTION_ID	SENTENCE	USER_INPUT	KEYSTROKE_ID	PRESS_TIME	RELEASE_TIME	LETTER	KEYCODE
3220	33963	Have a good evening.	Have a good evening.	1619597	1471970700910	1471970701021	CAPS_LOCK	20
3220	33963	Have a good evening.	Have a good evening.	1619601	1471970700973	1471970701085	H	72
3220	33963	Have a good evening.	Have a good evening.	1619604	1471970701109	1471970701261	CAPS_LOCK	20
3220	33963	Have a good evening.	Have a good evening.	1619607	1471970701605	1471970701685	a	65
3220	33963	Have a good evening.	Have a good evening.	1619612	1471970702293	1471970702389	c	67
3220	33963	Have a good evening.	Have a good evening.	1619616	1471970702749	1471970702877	BKSP	8
3220	33963	Have a good evening.	Have a good evening.	1619620	1471970702925	1471970703045	v	86
3220	33963	Have a good evening.	Have a good evening.	1619623	1471970703229	1471970703349	e	69
3220	33963	Have a good evening.	Have a good evening.	1619672	1471970703333	1471970703517	 	32
3220	33963	Have a good evening.	Have a good evening.	1619674	1471970703501	1471970703693	a	65
3220	33963	Have a good evening.	Have a good evening.	1619676	1471970703637	1471970703773	 	32
3220	33963	Have a good evening.	Have a good evening.	1619680	1471970704365	1471970704445	g	71
3220	33963	Have a good evening.	Have a good evening.	1619683	1471970704461	1471970704549	o	79
3220	33963	Have a good evening.	Have a good evening.	1619685	1471970704653	1471970704749	o	79
3220	33963	Have a good evening.	Have a good evening.	1619774	1471970704885	1471970705013	d	68
3220	33963	Have a good evening.	Have a good evening.	1619778	1471970705149	1471970705293	 	32
3220	33963	Have a good evening.	Have a good evening.	1619783	1471970705685	1471970705805	e	69
3220	33963	Have a good evening.	Have a good evening.	1619786	1471970705941	1471970706021	v	86
3220	33963	Have a good evening.	Have a good evening.	1619789	1471970706101	1471970706261	e	69
3220	33963	Have a good evening.	Have a good evening.	1619837	1471970706325	1471970706453	n	78
3220	33963	Have a good evening.	Have a good evening.	1619842	1471970706661	1471970706893	i	73
3220	33963	Have a good evening.	Have a good evening.	1619849	1471970706821	1471970706965	n	78
3220	33963	Have a good evening.	Have a good evening.	1619856	1471970707013	1471970707125	g	71
3220	33963	Have a good evening.	Have a good evening.	1619865	1471970707325	1471970707477	.	190
3220	33974	I know my way around the hospital better than I do the stadium.	I know my way around the hospital better than I do the stadium.	1620166	1471970711429	1471970711533	i	73
3220	33974	I know my way around the hospital better than I do the stadium.	I know my way around the hospital better than I do the stadium.	1620169	1471970711565	1471970711733	CAPS_LOCK	20
3220	33974	I know my way around the hospital better than I do the stadium.	I know my way around the hospital better than I do the stadium.	1620172	1471970712277	1471970712437	BKSP	8
3220	33974	I know my way around the hospital better than I do the stadium.	I know my way around the hospital better than I do the stadium.	1620175	1471970712709	1471970712869	I	73
3220	33974	I know my way around the hospital better than I do the stadium.	I know my way around the hospital better than I do the stadium.	1620179	1471970712965	1471970713132	CAPS_LOCK	20
3220	33974	I know my way around the hospital better than I do the stadium.	I know my way around the hospital better than I do the stadium.	1620183	1471970713117	1471970713269	 	32
3220	33974	I know my way around the hospital better than I do the stadium.	I know my way around the hospital better than I do the stadium.	1620188	1471970713765	1471970713934	k	75
3220	33974	I know my way around the hospital better than I do the stadium.	I know my way around the hospital better than I do the stadium.	1620255	1471970713901	1471970714165	n	78
3220	33974	I know my way around the hospital better than I do the stadium.	I know my way around the hospital better than I do the stadium.	1620258	1471970714118	1471970714261	o	79
3220	33974	I know my way around the hospital better than I do the stadium.	I know my way around the hospital better than I do the stadium.	1620262	1471970714389	1471970714533	w	87
3220	33974	I know my way around the hospital better than I do the stadium.	I know my way around the hospital better than I do the stadium.	1620264	1471970714540	1471970714701	 	32
3220	33974	I know my way around the hospital better than I do the stadium.	I know my way around the hospital better than I do the stadium.	1620265	1471970715477	1471970715565	m	77
3220	33974	I know my way around the hospital better than I do the stadium.	I know my way around the hospital better than I do the stadium.	1620266	1471970715821	1471970715997	y	89
3220	33974	I know my way around the hospital better than I do the stadium.	I know my way around the hospital better than I do the stadium.	1620302	1471970716021	1471970716221	 	32
3220	33974	I know my way around the hospital better than I do the stadium.	I know my way around the hospital better than I do the stadium.	1620308	1471970716236	1471970716333	w	87
3220	33974	I know my way around the hospital better than I do the stadium.	I know my way around the hospital better than I do the stadium.	1620315	1471970716420	1471970716573	a	65
3220	33974	I know my way around the hospital better than I do the stadium.	I know my way around the hospital better than I do the stadium.	1620321	1471970716620	1471970716797	y	89
3220	33974	I know my way around the hospital better than I do the stadium.	I know my way around the hospital better than I do the stadium.	1620425	1471970716725	1471970716877	 	32
3220	33974	I know my way around the hospital better than I do the stadium.	I know my way around the hospital better than I do the stadium.	1620427	1471970717317	1471970717389	a	65
3220	33974	I know my way around the hospital better than I do the stadium.	I know my way around the hospital better than I do the stadium.	1620428	1471970718205	1471970718309	r	82
3220	33974	I know my way around the hospital better than I do the stadium.	I know my way around the hospital better than I do the stadium.	1620429	1471970718261	1471970718445	o	79
3220	33974	I know my way around the hospital better than I do the stadium.	I know my way around the hospital better than I do the stadium.	1620430	1471970718500	1471970718637	u	85
3220	33974	I know my way around the hospital better than I do the stadium.	I know my way around the hospital better than I do the stadium.	1620431	1471970718780	1471970718925	n	78
3220	33974	I know my way around the hospital better than I do the stadium.	I know my way around the hospital better than I do the stadium.	1620493	1471970719037	1471970719173	d	68
3220	33974	I know my way around the hospital better than I do the stadium.	I know my way around the hospital better than I do the stadium.	1620497	1471970719260	1471970719445	 	32
3220	33974	I know my way around the hospital better than I do the stadium.	I know my way around the hospital better than I do the stadium.	1620501	1471970719748	1471970719861	t	84
3220	33974	I know my way around the hospital better than I do the stadium.	I know my way around the hospital better than I do the stadium.	1620503	1471970719805	1471970719932	h	72
3220	33974	I know my way around the hospital better than I do the stadium.	I know my way around the hospital better than I do the stadium.	1620505	1471970720021	1471970720164	e	69
3220	33974	I know my way around the hospital better than I do the stadium.	I know my way around the hospital better than I do the stadium.	1620569	1471970720133	1471970720221	 	32
3220	33974	I know my way around the hospital better than I do the stadium.	I know my way around the hospital better than I do the stadium.	1620573	1471970720349	1471970720477	h	72
3220	33974	I know my way around the hospital better than I do the stadium.	I know my way around the hospital better than I do the stadium.	1620578	1471970720580	1471970720685	o	79
3220	33974	I know my way around the hospital better than I do the stadium.	I know my way around the hospital better than I do the stadium.	1620582	1471970720700	1471970720869	s	83
3220	33974	I know my way around the hospital better than I do the stadium.	I know my way around the hospital better than I do the stadium.	1620585	1471970721013	1471970721189	p	80
3220	33974	I know my way around the hospital better than I do the stadium.	I know my way around the hospital better than I do the stadium.	1620590	1471970721661	1471970721829	i	73
3220	33974	I know my way around the hospital better than I do the stadium.	I know my way around the hospital better than I do the stadium.	1620692	1471970722461	1471970722573	t	84
3220	33974	I know my way around the hospital better than I do the stadium.	I know my way around the hospital better than I do the stadium.	1620694	1471970722756	1471970722901	a	65
3220	33974	I know my way around the hospital better than I do the stadium.	I know my way around the hospital better than I do the stadium.	1620699	1471970723525	1471970723700	l	76
3220	33974	I know my way around the hospital better than I do the stadium.	I know my way around the hospital better than I do the stadium.	1620702	1471970723613	1471970723804	 	32
3220	33974	I know my way around the hospital better than I do the stadium.	I know my way around the hospital better than I do the stadium.	1620706	1471970724053	1471970724157	b	66
3220	33974	I know my way around the hospital better than I do the stadium.	I know my way around the hospital better than I do the stadium.	1620731	1471970724229	1471970724357	e	69
3220	33974	I know my way around the hospital better than I do the stadium.	I know my way around the hospital better than I do the stadium.	1620734	1471970724485	1471970724565	t	84
3220	33974	I know my way around the hospital better than I do the stadium.	I know my way around the hospital better than I do the stadium.	1620738	1471970724652	1471970724733	t	84
3220	33974	I know my way around the hospital better than I do the stadium.	I know my way around the hospital better than I do the stadium.	1620743	1471970724844	1471970725013	e	69
3220	33974	I know my way around the hospital better than I do the stadium.	I know my way around the hospital better than I do the stadium.	1620836	1471970724973	1471970725116	r	82
3220	33974	I know my way around the hospital better than I do the stadium.	I know my way around the hospital better than I do the stadium.	1620837	1471970725053	1471970725236	 	32
3220	33974	I know my way around the hospital better than I do the stadium.	I know my way around the hospital better than I do the stadium.	1620839	1471970725533	1471970725605	t	84
3220	33974	I know my way around the hospital better than I do the stadium.	I know my way around the hospital better than I do the stadium.	1620842	1471970725558	1471970725692	h	72
3220	33974	I know my way around the hospital better than I do the stadium.	I know my way around the hospital better than I do the stadium.	1620844	1471970726285	1471970726477	a	65
3220	33974	I know my way around the hospital better than I do the stadium.	I know my way around the hospital better than I do the stadium.	1620846	1471970727101	1471970727332	n	78
3220	33974	I know my way around the hospital better than I do the stadium.	I know my way around the hospital better than I do the stadium.	1620905	1471970727261	1471970727469	 	32
3220	33974	I know my way around the hospital better than I do the stadium.	I know my way around the hospital better than I do the stadium.	1620908	1471970727620	1471970727724	CAPS_LOCK	20
3220	33974	I know my way around the hospital better than I do the stadium.	I know my way around the hospital better than I do the stadium.	1620911	1471970727708	1471970727788	I	73
3220	33974	I know my way around the hospital better than I do the stadium.	I know my way around the hospital better than I do the stadium.	1620914	1471970727836	1471970727965	CAPS_LOCK	20
3220	33974	I know my way around the hospital better than I do the stadium.	I know my way around the hospital better than I do the stadium.	1620915	1471970727924	1471970728084	 	32
3220	33974	I know my way around the hospital better than I do the stadium.	I know my way around the hospital better than I do the stadium.	1620917	1471970728212	1471970728333	d	68
3220	33974	I know my way around the hospital better than I do the stadium.	I know my way around the hospital better than I do the stadium.	1620919	1471970728348	1471970728533	o	79
3220	33974	I know my way around the hospital better than I do the stadium.	I know my way around the hospital better than I do the stadium.	1620964	1471970728429	1471970728652	 	32
3220	33974	I know my way around the hospital better than I do the stadium.	I know my way around the hospital better than I do the stadium.	1620969	1471970729157	1471970729301	t	84
3220	33974	I know my way around the hospital better than I do the stadium.	I know my way around the hospital better than I do the stadium.	1620975	1471970729229	1471970729364	h	72
3220	33974	I know my way around the hospital better than I do the stadium.	I know my way around the hospital better than I do the stadium.	1620984	1471970729372	1471970729516	e	69
3220	33974	I know my way around the hospital better than I do the stadium.	I know my way around the hospital better than I do the stadium.	1620987	1471970729477	1471970729612	 	32
3220	33974	I know my way around the hospital better than I do the stadium.	I know my way around the hospital better than I do the stadium.	1620993	1471970729685	1471970729798	s	83
3220	33974	I know my way around the hospital better than I do the stadium.	I know my way around the hospital better than I do the stadium.	1621262	1471970729901	1471970730005	t	84
3220	33974	I know my way around the hospital better than I do the stadium.	I know my way around the hospital better than I do the stadium.	1621265	1471970730789	1471970730965	a	65
3220	33974	I know my way around the hospital better than I do the stadium.	I know my way around the hospital better than I do the stadium.	1621271	1471970731645	1471970731805	d	68
3220	33974	I know my way around the hospital better than I do the stadium.	I know my way around the hospital better than I do the stadium.	1621277	1471970732044	1471970732205	i	73
3220	33974	I know my way around the hospital better than I do the stadium.	I know my way around the hospital better than I do the stadium.	1621281	1471970734093	1471970734189	u	85
3220	33974	I know my way around the hospital better than I do the stadium.	I know my way around the hospital better than I do the stadium.	1621426	1471970734373	1471970734469	m	77
3220	33974	I know my way around the hospital better than I do the stadium.	I know my way around the hospital better than I do the stadium.	1621428	1471970734597	1471970734661	.	190
3220	34009	Thanks for sending this.	Thanks for sending this.	1621603	1471970738013	1471970738148	CAPS_LOCK	20
3220	34009	Thanks for sending this.	Thanks for sending this.	1621606	1471970738268	1471970738332	T	84
3220	34009	Thanks for sending this.	Thanks for sending this.	1621609	1471970738445	1471970738556	CAPS_LOCK	20
3220	34009	Thanks for sending this.	Thanks for sending this.	1621613	1471970738564	1471970738668	h	72
3220	34009	Thanks for sending this.	Thanks for sending this.	1621619	1471970738716	1471970738860	a	65
3220	34009	Thanks for sending this.	Thanks for sending this.	1621625	1471970738828	1471970739028	n	78
3220	34009	Thanks for sending this.	Thanks for sending this.	1621630	1471970739940	1471970740060	k	75
3220	34009	Thanks for sending this.	Thanks for sending this.	1621672	1471970740132	1471970740316	s	83
3220	34009	Thanks for sending this.	Thanks for sending this.	1621676	1471970740221	1471970740396	 	32
3220	34009	Thanks for sending this.	Thanks for sending this.	1621682	1471970740508	1471970740596	f	70
3220	34009	Thanks for sending this.	Thanks for sending this.	1621684	1471970740604	1471970740692	o	79
3220	34009	Thanks for sending this.	Thanks for sending this.	1621688	1471970740732	1471970740852	r	82
3220	34009	Thanks for sending this.	Thanks for sending this.	1621794	1471970740884	1471970741052	 	32
3220	34009	Thanks for sending this.	Thanks for sending this.	1621796	1471970741813	1471970742028	s	83
3220	34009	Thanks for sending this.	Thanks for sending this.	1621798	1471970742196	1471970742300	e	69
3220	34009	Thanks for sending this.	Thanks for sending this.	1621802	1471970742444	1471970742580	n	78
3220	34009	Thanks for sending this.	Thanks for sending this.	1621804	1471970742660	1471970742780	d	68
3220	34009	Thanks for sending this.	Thanks for sending this.	1621876	1471970742804	1471970742996	i	73
3220	34009	Thanks for sending this.	Thanks for sending this.	1621879	1471970743012	1471970743124	n	78
3220	34009	Thanks for sending this.	Thanks for sending this.	1621887	1471970743156	1471970743284	g	71
3220	34009	Thanks for sending this.	Thanks for sending this.	1621890	1471970743404	1471970743524	 	32
3220	34009	Thanks for sending this.	Thanks for sending this.	1621893	1471970744133	1471970744204	t	84
3220	34009	Thanks for sending this.	Thanks for sending this.	1622023	1471970744188	1471970744380	h	72
3220	34009	Thanks for sending this.	Thanks for sending this.	1622027	1471970744292	1471970744444	i	73
3220	34009	Thanks for sending this.	Thanks for sending this.	1622036	1471970744572	1471970744724	s	83
3220	34009	Thanks for sending this.	Thanks for sending this.	1622042	1471970744852	1471970744956	.	190
3220	34022	I like Nick and Everett.	I like Nick and Everett.	1622411	1471970750349	1471970750452	CAPS_LOCK	20
3220	34022	I like Nick and Everett.	I like Nick and Everett.	1622415	1471970750404	1471970750484	I	73
3220	34022	I like Nick and Everett.	I like Nick and Everett.	1622418	1471970750556	1471970750676	CAPS_LOCK	20
3220	34022	I like Nick and Everett.	I like Nick and Everett.	1622424	1471970750620	1471970750716	 	32
3220	34022	I like Nick and Everett.	I like Nick and Everett.	1622429	1471970751364	1471970751484	l	76
3220	34022	I like Nick and Everett.	I like Nick and Everett.	1622436	1471970752212	1471970752292	i	73
3220	34022	I like Nick and Everett.	I like Nick and Everett.	1622440	1471970752572	1471970752692	k	75
3220	34022	I like Nick and Everett.	I like Nick and Everett.	1622469	1471970752772	1471970752900	e	69
3220	34022	I like Nick and Everett.	I like Nick and Everett.	1622472	1471970752860	1471970752980	 	32
3220	34022	I like Nick and Everett.	I like Nick and Everett.	1622475	1471970753036	1471970753156	CAPS_LOCK	20
3220	34022	I like Nick and Everett.	I like Nick and Everett.	1622474	1471970753060	1471970753148	N	78
3220	34022	I like Nick and Everett.	I like Nick and Everett.	1622477	1471970753228	1471970753340	CAPS_LOCK	20
3220	34022	I like Nick and Everett.	I like Nick and Everett.	1622480	1471970753268	1471970753380	i	73
3220	34022	I like Nick and Everett.	I like Nick and Everett.	1622483	1471970753548	1471970753660	c	67
3220	34022	I like Nick and Everett.	I like Nick and Everett.	1622529	1471970753804	1471970753956	k	75
3220	34022	I like Nick and Everett.	I like Nick and Everett.	1622534	1471970753932	1471970754036	 	32
3220	34022	I like Nick and Everett.	I like Nick and Everett.	1622539	1471970754300	1471970754476	a	65
3220	34022	I like Nick and Everett.	I like Nick and Everett.	1622545	1471970754444	1471970754588	n	78
3220	34022	I like Nick and Everett.	I like Nick and Everett.	1622547	1471970754644	1471970754844	d	68
3220	34022	I like Nick and Everett.	I like Nick and Everett.	1622683	1471970755180	1471970755340	 	32
3220	34022	I like Nick and Everett.	I like Nick and Everett.	1622687	1471970755412	1471970755484	CAPS_LOCK	20
3220	34022	I like Nick and Everett.	I like Nick and Everett.	1622688	1471970755588	1471970755668	E	69
3220	34022	I like Nick and Everett.	I like Nick and Everett.	1622690	1471970755756	1471970755804	CAPS_LOCK	20
3220	34022	I like Nick and Everett.	I like Nick and Everett.	1622692	1471970755932	1471970756028	v	86
3220	34022	I like Nick and Everett.	I like Nick and Everett.	1622694	1471970756196	1471970756460	e	69
3220	34022	I like Nick and Everett.	I like Nick and Everett.	1622695	1471970757412	1471970757548	r	82
3220	34022	I like Nick and Everett.	I like Nick and Everett.	1622878	1471970757660	1471970757772	e	69
3220	34022	I like Nick and Everett.	I like Nick and Everett.	1622881	1471970757860	1471970757932	t	84
3220	34022	I like Nick and Everett.	I like Nick and Everett.	1622883	1471970757996	1471970758084	t	84
3220	34022	I like Nick and Everett.	I like Nick and Everett.	1622886	1471970759204	1471970759300	.	110
3220	34038	I have a request.	I have a request.	1623108	1471970762492	1471970762612	CAPS_LOCK	20
3220	34038	I have a request.	I have a request.	1623111	1471970762548	1471970762652	I	73
3220	34038	I have a request.	I have a request.	1623115	1471970762708	1471970762860	CAPS_LOCK	20
3220	34038	I have a request.	I have a request.	1623117	1471970762812	1471970762932	 	32
3220	34038	I have a request.	I have a request.	1623119	1471970763748	1471970763860	h	72
3220	34038	I have a request.	I have a request.	1623121	1471970763820	1471970763940	a	65
3220	34038	I have a request.	I have a request.	1623125	1471970764148	1471970764316	e	69
3220	34038	I have a request.	I have a request.	1623227	1471970764484	1471970764628	 	32
3220	34038	I have a request.	I have a request.	1623230	1471970765196	1471970765292	BKSP	8
3220	34038	I have a request.	I have a request.	1623235	1471970765364	1471970765452	BKSP	8
3220	34038	I have a request.	I have a request.	1623243	1471970765940	1471970766020	v	86
3220	34038	I have a request.	I have a request.	1623247	1471970766100	1471970766236	e	69
3220	34038	I have a request.	I have a request.	1623252	1471970766300	1471970766444	 	32
3220	34038	I have a request.	I have a request.	1623256	1471970766468	1471970766612	a	65
3220	34038	I have a request.	I have a request.	1623304	1471970766660	1471970766772	 	32
3220	34038	I have a request.	I have a request.	1623307	1471970767452	1471970767548	r	82
3220	34038	I have a request.	I have a request.	1623310	1471970767500	1471970767636	e	69
3220	34038	I have a request.	I have a request.	1623312	1471970767780	1471970767932	q	81
3220	34038	I have a request.	I have a request.	1623313	1471970767948	1471970768136	u	85
3220	34038	I have a request.	I have a request.	1623518	1471970768268	1471970768356	e	69
3220	34038	I have a request.	I have a request.	1623522	1471970768516	1471970768676	s	83
3220	34038	I have a request.	I have a request.	1623525	1471970769836	1471970769916	t	84
3220	34038	I have a request.	I have a request.	1623531	1471970770212	1471970770276	.	190
3220	34054	Opposition leaders have urged him to call off the visit.	Opposition leaders have urged him to call off the visit.	1623922	1471970775812	1471970775932	CAPS_LOCK	20
3220	34054	Opposition leaders have urged him to call off the visit.	Opposition leaders have urged him to call off the visit.	1623928	1471970775892	1471970776004	O	79
3220	34054	Opposition leaders have urged him to call off the visit.	Opposition leaders have urged him to call off the visit.	1623932	1471970776052	1471970776172	CAPS_LOCK	20
3220	34054	Opposition leaders have urged him to call off the visit.	Opposition leaders have urged him to call off the visit.	1623936	1471970777092	1471970777244	p	80
3220	34054	Opposition leaders have urged him to call off the visit.	Opposition leaders have urged him to call off the visit.	1623941	1471970777708	1471970777820	p	80
3220	34054	Opposition leaders have urged him to call off the visit.	Opposition leaders have urged him to call off the visit.	1623947	1471970778324	1471970778452	o	79
3220	34054	Opposition leaders have urged him to call off the visit.	Opposition leaders have urged him to call off the visit.	1623951	1471970778492	1471970778692	s	83
3220	34054	Opposition leaders have urged him to call off the visit.	Opposition leaders have urged him to call off the visit.	1623986	1471970778732	1471970778836	i	73
3220	34054	Opposition leaders have urged him to call off the visit.	Opposition leaders have urged him to call off the visit.	1623991	1471970778988	1471970779060	t	84
3220	34054	Opposition leaders have urged him to call off the visit.	Opposition leaders have urged him to call off the visit.	1623994	1471970779028	1471970779196	i	73
3220	34054	Opposition leaders have urged him to call off the visit.	Opposition leaders have urged him to call off the visit.	1623999	1471970779156	1471970779260	o	79
3220	34054	Opposition leaders have urged him to call off the visit.	Opposition leaders have urged him to call off the visit.	1624006	1471970779372	1471970779500	n	78
3220	34054	Opposition leaders have urged him to call off the visit.	Opposition leaders have urged him to call off the visit.	1624059	1471970779948	1471970780108	 	32
3220	34054	Opposition leaders have urged him to call off the visit.	Opposition leaders have urged him to call off the visit.	1624061	1471970780356	1471970780492	l	76
3220	34054	Opposition leaders have urged him to call off the visit.	Opposition leaders have urged him to call off the visit.	1624064	1471970780508	1471970780588	e	69
3220	34054	Opposition leaders have urged him to call off the visit.	Opposition leaders have urged him to call off the visit.	1624067	1471970780660	1471970780852	a	65
3220	34054	Opposition leaders have urged him to call off the visit.	Opposition leaders have urged him to call off the visit.	1624071	1471970780996	1471970781100	d	68
3220	34054	Opposition leaders have urged him to call off the visit.	Opposition leaders have urged him to call off the visit.	1624143	1471970781172	1471970781324	e	69
3220	34054	Opposition leaders have urged him to call off the visit.	Opposition leaders have urged him to call off the visit.	1624145	1471970781476	1471970781564	s	83
3220	34054	Opposition leaders have urged him to call off the visit.	Opposition leaders have urged him to call off the visit.	1624148	1471970782212	1471970782388	BKSP	8
3220	34054	Opposition leaders have urged him to call off the visit.	Opposition leaders have urged him to call off the visit.	1624151	1471970782460	1471970782644	r	82
3220	34054	Opposition leaders have urged him to call off the visit.	Opposition leaders have urged him to call off the visit.	1624153	1471970783132	1471970783300	s	83
3220	34054	Opposition leaders have urged him to call off the visit.	Opposition leaders have urged him to call off the visit.	1624219	1471970783284	1471970783444	 	32
3220	34054	Opposition leaders have urged him to call off the visit.	Opposition leaders have urged him to call off the visit.	1624224	1471970784052	1471970784172	h	72
3220	34054	Opposition leaders have urged him to call off the visit.	Opposition leaders have urged him to call off the visit.	1624229	1471970784124	1471970784236	a	65
3220	34054	Opposition leaders have urged him to call off the visit.	Opposition leaders have urged him to call off the visit.	1624234	1471970784340	1471970784436	v	86
3220	34054	Opposition leaders have urged him to call off the visit.	Opposition leaders have urged him to call off the visit.	1624239	1471970784540	1471970784684	e	69
3220	34054	Opposition leaders have urged him to call off the visit.	Opposition leaders have urged him to call off the visit.	1624243	1471970784748	1471970784900	 	32
3220	34054	Opposition leaders have urged him to call off the visit.	Opposition leaders have urged him to call off the visit.	1624455	1471970785652	1471970785812	u	85
3220	34054	Opposition leaders have urged him to call off the visit.	Opposition leaders have urged him to call off the visit.	1624462	1471970785844	1471970785924	r	82
3220	34054	Opposition leaders have urged him to call off the visit.	Opposition leaders have urged him to call off the visit.	1624471	1471970786060	1471970786164	g	71
3220	34054	Opposition leaders have urged him to call off the visit.	Opposition leaders have urged him to call off the visit.	1624478	1471970788804	1471970788900	e	69
3220	34054	Opposition leaders have urged him to call off the visit.	Opposition leaders have urged him to call off the visit.	1624485	1471970789036	1471970789196	d	68
3220	34054	Opposition leaders have urged him to call off the visit.	Opposition leaders have urged him to call off the visit.	1624625	1471970789252	1471970789428	 	32
3220	34054	Opposition leaders have urged him to call off the visit.	Opposition leaders have urged him to call off the visit.	1624627	1471970789828	1471970789964	h	72
3220	34054	Opposition leaders have urged him to call off the visit.	Opposition leaders have urged him to call off the visit.	1624629	1471970789972	1471970790092	i	73
3220	34054	Opposition leaders have urged him to call off the visit.	Opposition leaders have urged him to call off the visit.	1624632	1471970790332	1471970790428	m	77
3220	34054	Opposition leaders have urged him to call off the visit.	Opposition leaders have urged him to call off the visit.	1624636	1471970791372	1471970791532	 	32
3220	34054	Opposition leaders have urged him to call off the visit.	Opposition leaders have urged him to call off the visit.	1624680	1471970791652	1471970791764	t	84
3220	34054	Opposition leaders have urged him to call off the visit.	Opposition leaders have urged him to call off the visit.	1624685	1471970791892	1471970792036	o	79
3220	34054	Opposition leaders have urged him to call off the visit.	Opposition leaders have urged him to call off the visit.	1624691	1471970791980	1471970792148	 	32
3220	34054	Opposition leaders have urged him to call off the visit.	Opposition leaders have urged him to call off the visit.	1624696	1471970792228	1471970792428	c	67
3220	34054	Opposition leaders have urged him to call off the visit.	Opposition leaders have urged him to call off the visit.	1624783	1471970792340	1471970792476	a	65
3220	34054	Opposition leaders have urged him to call off the visit.	Opposition leaders have urged him to call off the visit.	1624786	1471970792500	1471970792604	l	76
3220	34054	Opposition leaders have urged him to call off the visit.	Opposition leaders have urged him to call off the visit.	1624790	1471970792732	1471970792876	l	76
3220	34054	Opposition leaders have urged him to call off the visit.	Opposition leaders have urged him to call off the visit.	1624793	1471970793028	1471970793196	 	32
3220	34054	Opposition leaders have urged him to call off the visit.	Opposition leaders have urged him to call off the visit.	1624799	1471970793804	1471970793940	o	79
3220	34054	Opposition leaders have urged him to call off the visit.	Opposition leaders have urged him to call off the visit.	1624801	1471970793980	1471970794052	f	70
3220	34054	Opposition leaders have urged him to call off the visit.	Opposition leaders have urged him to call off the visit.	1624857	1471970794132	1471970794244	f	70
3220	34054	Opposition leaders have urged him to call off the visit.	Opposition leaders have urged him to call off the visit.	1624863	1471970794252	1471970794412	 	32
3220	34054	Opposition leaders have urged him to call off the visit.	Opposition leaders have urged him to call off the visit.	1624869	1471970795084	1471970795180	t	84
3220	34054	Opposition leaders have urged him to call off the visit.	Opposition leaders have urged him to call off the visit.	1624873	1471970795124	1471970795236	h	72
3220	34054	Opposition leaders have urged him to call off the visit.	Opposition leaders have urged him to call off the visit.	1624878	1471970795284	1471970795404	e	69
3220	34054	Opposition leaders have urged him to call off the visit.	Opposition leaders have urged him to call off the visit.	1624914	1471970795380	1471970795524	 	32
3220	34054	Opposition leaders have urged him to call off the visit.	Opposition leaders have urged him to call off the visit.	1624917	1471970795636	1471970795732	v	86
3220	34054	Opposition leaders have urged him to call off the visit.	Opposition leaders have urged him to call off the visit.	1624920	1471970795748	1471970795860	i	73
3220	34054	Opposition leaders have urged him to call off the visit.	Opposition leaders have urged him to call off the visit.	1624925	1471970795916	1471970796052	s	83
3220	34054	Opposition leaders have urged him to call off the visit.	Opposition leaders have urged him to call off the visit.	1624926	1471970796036	1471970796188	i	73
3220	34054	Opposition leaders have urged him to call off the visit.	Opposition leaders have urged him to call off the visit.	1624929	1471970796228	1471970796316	t	84
3220	34054	Opposition leaders have urged him to call off the visit.	Opposition leaders have urged him to call off the visit.	1625056	1471970797604	1471970797700	.	110
3220	34081	John, please send this to Shelly.	John, please send this to Shelly.	1625265	1471970801388	1471970801508	CAPS_LOCK	20
3220	34081	John, please send this to Shelly.	John, please send this to Shelly.	1625268	1471970801468	1471970801604	J	74
3220	34081	John, please send this to Shelly.	John, please send this to Shelly.	1625273	1471970801588	1471970801732	CAPS_LOCK	20
3220	34081	John, please send this to Shelly.	John, please send this to Shelly.	1625276	1471970801996	1471970802148	o	79
3220	34081	John, please send this to Shelly.	John, please send this to Shelly.	1625279	1471970802644	1471970802740	h	72
3220	34081	John, please send this to Shelly.	John, please send this to Shelly.	1625282	1471970803004	1471970803188	n	78
3220	34081	John, please send this to Shelly.	John, please send this to Shelly.	1625287	1471970803924	1471970804100	,	188
3220	34081	John, please send this to Shelly.	John, please send this to Shelly.	1625384	1471970804004	1471970804196	 	32
3220	34081	John, please send this to Shelly.	John, please send this to Shelly.	1625386	1471970805924	1471970806116	p	80
3220	34081	John, please send this to Shelly.	John, please send this to Shelly.	1625389	1471970806028	1471970806204	l	76
3220	34081	John, please send this to Shelly.	John, please send this to Shelly.	1625391	1471970806180	1471970806268	e	69
3220	34081	John, please send this to Shelly.	John, please send this to Shelly.	1625393	1471970806356	1471970806532	a	65
3220	34081	John, please send this to Shelly.	John, please send this to Shelly.	1625465	1471970806476	1471970806684	s	83
3220	34081	John, please send this to Shelly.	John, please send this to Shelly.	1625471	1471970806668	1471970806828	e	69
3220	34081	John, please send this to Shelly.	John, please send this to Shelly.	1625478	1471970806772	1471970806948	 	32
3220	34081	John, please send this to Shelly.	John, please send this to Shelly.	1625483	1471970807140	1471970807324	s	83
3220	34081	John, please send this to Shelly.	John, please send this to Shelly.	1625485	1471970807276	1471970807412	e	69
3220	34081	John, please send this to Shelly.	John, please send this to Shelly.	1625489	1471970807444	1471970807564	n	78
3220	34081	John, please send this to Shelly.	John, please send this to Shelly.	1625510	1471970807668	1471970807796	d	68
3220	34081	John, please send this to Shelly.	John, please send this to Shelly.	1625515	1471970807788	1471970807900	 	32
3220	34081	John, please send this to Shelly.	John, please send this to Shelly.	1625518	1471970807956	1471970808052	t	84
3220	34081	John, please send this to Shelly.	John, please send this to Shelly.	1625522	1471970808044	1471970808204	h	72
3220	34081	John, please send this to Shelly.	John, please send this to Shelly.	1625549	1471970808132	1471970808247	i	73
3220	34081	John, please send this to Shelly.	John, please send this to Shelly.	1625550	1471970808268	1471970808420	s	83
3220	34081	John, please send this to Shelly.	John, please send this to Shelly.	1625551	1471970808356	1471970808492	 	32
3220	34081	John, please send this to Shelly.	John, please send this to Shelly.	1625552	1471970808604	1471970808684	t	84
3220	34081	John, please send this to Shelly.	John, please send this to Shelly.	1625553	1471970808716	1471970808844	o	79
3220	34081	John, please send this to Shelly.	John, please send this to Shelly.	1625616	1471970808788	1471970808956	 	32
3220	34081	John, please send this to Shelly.	John, please send this to Shelly.	1625620	1471970809068	1471970809236	s	83
3220	34081	John, please send this to Shelly.	John, please send this to Shelly.	1625625	1471970809268	1471970809388	CAPS_LOCK	20
3220	34081	John, please send this to Shelly.	John, please send this to Shelly.	1625628	1471970809516	1471970809628	H	72
3220	34081	John, please send this to Shelly.	John, please send this to Shelly.	1625631	1471970809676	1471970809764	E	69
3220	34081	John, please send this to Shelly.	John, please send this to Shelly.	1625634	1471970809908	1471970809996	L	76
3220	34081	John, please send this to Shelly.	John, please send this to Shelly.	1625637	1471970810076	1471970810172	L	76
3220	34081	John, please send this to Shelly.	John, please send this to Shelly.	1625782	1471970810300	1471970810364	Y	89
3220	34081	John, please send this to Shelly.	John, please send this to Shelly.	1625787	1471970810708	1471970810828	.	190
3220	34081	John, please send this to Shelly.	John, please send this to Shelly.	1625791	1471970811724	1471970811836	BKSP	8
3220	34081	John, please send this to Shelly.	John, please send this to Shelly.	1625795	1471970811908	1471970811972	BKSP	8
3220	34081	John, please send this to Shelly.	John, please send this to Shelly.	1625800	1471970812116	1471970812180	BKSP	8
3220	34081	John, please send this to Shelly.	John, please send this to Shelly.	1625805	1471970812236	1471970812284	BKSP	8
3220	34081	John, please send this to Shelly.	John, please send this to Shelly.	1625809	1471970812348	1471970812396	BKSP	8
3220	34081	John, please send this to Shelly.	John, please send this to Shelly.	1625813	1471970812740	1471970812836	BKSP	8
3220	34081	John, please send this to Shelly.	John, please send this to Shelly.	1625817	1471970813300	1471970813420	BKSP	8
3220	34081	John, please send this to Shelly.	John, please send this to Shelly.	1625819	1471970813460	1471970813588	S	83
3220	34081	John, please send this to Shelly.	John, please send this to Shelly.	1625824	1471970813676	1471970813764	CAPS_LOCK	20
3220	34081	John, please send this to Shelly.	John, please send this to Shelly.	1625827	1471970813844	1471970813940	h	72
3220	34081	John, please send this to Shelly.	John, please send this to Shelly.	1625916	1471970813924	1471970814020	e	69
3220	34081	John, please send this to Shelly.	John, please send this to Shelly.	1625917	1471970814164	1471970814252	l	76
3220	34081	John, please send this to Shelly.	John, please send this to Shelly.	1625918	1471970814324	1471970814428	l	76
3220	34081	John, please send this to Shelly.	John, please send this to Shelly.	1625919	1471970814564	1471970814644	y	89
3220	34081	John, please send this to Shelly.	John, please send this to Shelly.	1625921	1471970814964	1471970815044	.	190
3220	34100	They are still burning.	They are still burning.	1626028	1471970818796	1471970818900	CAPS_LOCK	20
3220	34100	They are still burning.	They are still burning.	1626033	1471970819068	1471970819140	T	84
3220	34100	They are still burning.	They are still burning.	1626036	1471970819244	1471970819356	CAPS_LOCK	20
3220	34100	They are still burning.	They are still burning.	1626040	1471970819428	1471970819516	h	72
3220	34100	They are still burning.	They are still burning.	1626043	1471970819508	1471970819604	e	69
3220	34100	They are still burning.	They are still burning.	1626045	1471970819644	1471970819844	y	89
3220	34100	They are still burning.	They are still burning.	1626047	1471970819852	1471970819972	 	32
3220	34100	They are still burning.	They are still burning.	1626096	1471970820724	1471970820868	a	65
3220	34100	They are still burning.	They are still burning.	1626098	1471970820940	1471970821044	r	82
3220	34100	They are still burning.	They are still burning.	1626100	1471970820988	1471970821124	e	69
3220	34100	They are still burning.	They are still burning.	1626101	1471970821108	1471970821252	 	32
3220	34100	They are still burning.	They are still burning.	1626102	1471970821388	1471970821516	s	83
3220	34100	They are still burning.	They are still burning.	1626133	1471970821620	1471970821716	t	84
3220	34100	They are still burning.	They are still burning.	1626135	1471970821852	1471970821948	i	73
3220	34100	They are still burning.	They are still burning.	1626140	1471970822076	1471970822148	l	76
3220	34100	They are still burning.	They are still burning.	1626144	1471970822244	1471970822380	l	76
3220	34100	They are still burning.	They are still burning.	1626210	1471970822300	1471970822436	 	32
3220	34100	They are still burning.	They are still burning.	1626214	1471970822580	1471970822796	b	66
3220	34100	They are still burning.	They are still burning.	1626217	1471970822684	1471970822860	u	85
3220	34100	They are still burning.	They are still burning.	1626219	1471970822924	1471970823036	r	82
3220	34100	They are still burning.	They are still burning.	1626222	1471970823108	1471970823204	n	78
3220	34100	They are still burning.	They are still burning.	1626224	1471970823300	1471970823500	i	73
3220	34100	They are still burning.	They are still burning.	1626415	1471970823436	1471970823564	n	78
3220	34100	They are still burning.	They are still burning.	1626417	1471970823524	1471970823620	g	71
3220	34100	They are still burning.	They are still burning.	1626418	1471970824948	1471970825036	.	190
3220	34108	You're down by 5 and need to score in 4 plays or less.	You're down by 5 and need to score in 4 plays or less.	1626718	1471970829284	1471970829364	CAPS_LOCK	20
3220	34108	You're down by 5 and need to score in 4 plays or less.	You're down by 5 and need to score in 4 plays or less.	1626720	1471970829580	1471970829668	CAPS_LOCK	20
3220	34108	You're down by 5 and need to score in 4 plays or less.	You're down by 5 and need to score in 4 plays or less.	1626724	1471970829932	1471970830084	CAPS_LOCK	20
3220	34108	You're down by 5 and need to score in 4 plays or less.	You're down by 5 and need to score in 4 plays or less.	1626726	1471970830060	1471970830172	Y	89
3220	34108	You're down by 5 and need to score in 4 plays or less.	You're down by 5 and need to score in 4 plays or less.	1626728	1471970830244	1471970830340	CAPS_LOCK	20
3220	34108	You're down by 5 and need to score in 4 plays or less.	You're down by 5 and need to score in 4 plays or less.	1626730	1471970832980	1471970833140	o	79
3220	34108	You're down by 5 and need to score in 4 plays or less.	You're down by 5 and need to score in 4 plays or less.	1626734	1471970833124	1471970833228	u	85
3220	34108	You're down by 5 and need to score in 4 plays or less.	You're down by 5 and need to score in 4 plays or less.	1626739	1471970833756	1471970833852	'	222
3220	34108	You're down by 5 and need to score in 4 plays or less.	You're down by 5 and need to score in 4 plays or less.	1626746	1471970834020	1471970834148	r	82
3220	34108	You're down by 5 and need to score in 4 plays or less.	You're down by 5 and need to score in 4 plays or less.	1626800	1471970834100	1471970834244	e	69
3220	34108	You're down by 5 and need to score in 4 plays or less.	You're down by 5 and need to score in 4 plays or less.	1626803	1471970834300	1471970834436	 	32
3220	34108	You're down by 5 and need to score in 4 plays or less.	You're down by 5 and need to score in 4 plays or less.	1626806	1471970834956	1471970835092	d	68
3220	34108	You're down by 5 and need to score in 4 plays or less.	You're down by 5 and need to score in 4 plays or less.	1626812	1471970835052	1471970835204	o	79
3220	34108	You're down by 5 and need to score in 4 plays or less.	You're down by 5 and need to score in 4 plays or less.	1626817	1471970835252	1471970835372	w	87
3220	34108	You're down by 5 and need to score in 4 plays or less.	You're down by 5 and need to score in 4 plays or less.	1626822	1471970835468	1471970835620	n	78
3220	34108	You're down by 5 and need to score in 4 plays or less.	You're down by 5 and need to score in 4 plays or less.	1626904	1471970835588	1471970835724	 	32
3220	34108	You're down by 5 and need to score in 4 plays or less.	You're down by 5 and need to score in 4 plays or less.	1626906	1471970835900	1471970836020	b	66
3220	34108	You're down by 5 and need to score in 4 plays or less.	You're down by 5 and need to score in 4 plays or less.	1626909	1471970836164	1471970836292	y	89
3220	34108	You're down by 5 and need to score in 4 plays or less.	You're down by 5 and need to score in 4 plays or less.	1626913	1471970836252	1471970836380	 	32
3220	34108	You're down by 5 and need to score in 4 plays or less.	You're down by 5 and need to score in 4 plays or less.	1626917	1471970836804	1471970836892	5	101
3220	34108	You're down by 5 and need to score in 4 plays or less.	You're down by 5 and need to score in 4 plays or less.	1626922	1471970837236	1471970837340	 	32
3220	34108	You're down by 5 and need to score in 4 plays or less.	You're down by 5 and need to score in 4 plays or less.	1626971	1471970837348	1471970837492	a	65
3220	34108	You're down by 5 and need to score in 4 plays or less.	You're down by 5 and need to score in 4 plays or less.	1626973	1471970837428	1471970837532	n	78
3220	34108	You're down by 5 and need to score in 4 plays or less.	You're down by 5 and need to score in 4 plays or less.	1626975	1471970837612	1471970837748	d	68
3220	34108	You're down by 5 and need to score in 4 plays or less.	You're down by 5 and need to score in 4 plays or less.	1626979	1471970837716	1471970837844	 	32
3220	34108	You're down by 5 and need to score in 4 plays or less.	You're down by 5 and need to score in 4 plays or less.	1626980	1471970838708	1471970838812	n	78
3220	34108	You're down by 5 and need to score in 4 plays or less.	You're down by 5 and need to score in 4 plays or less.	1627022	1471970838844	1471970838948	e	69
3220	34108	You're down by 5 and need to score in 4 plays or less.	You're down by 5 and need to score in 4 plays or less.	1627027	1471970839020	1471970839108	e	69
3220	34108	You're down by 5 and need to score in 4 plays or less.	You're down by 5 and need to score in 4 plays or less.	1627030	1471970839228	1471970839348	d	68
3220	34108	You're down by 5 and need to score in 4 plays or less.	You're down by 5 and need to score in 4 plays or less.	1627032	1471970839316	1471970839444	 	32
3220	34108	You're down by 5 and need to score in 4 plays or less.	You're down by 5 and need to score in 4 plays or less.	1627115	1471970839852	1471970840052	t	79
3220	34108	You're down by 5 and need to score in 4 plays or less.	You're down by 5 and need to score in 4 plays or less.	1627117	1471970840044	1471970840196	 	32
3220	34108	You're down by 5 and need to score in 4 plays or less.	You're down by 5 and need to score in 4 plays or less.	1627121	1471970840348	1471970840428	BKSP	8
3220	34108	You're down by 5 and need to score in 4 plays or less.	You're down by 5 and need to score in 4 plays or less.	1627127	1471970840508	1471970840596	BKSP	8
3220	34108	You're down by 5 and need to score in 4 plays or less.	You're down by 5 and need to score in 4 plays or less.	1627131	1471970840668	1471970840732	BKSP	8
3220	34108	You're down by 5 and need to score in 4 plays or less.	You're down by 5 and need to score in 4 plays or less.	1627135	1471970841292	1471970841364	t	84
3220	34108	You're down by 5 and need to score in 4 plays or less.	You're down by 5 and need to score in 4 plays or less.	1627139	1471970841356	1471970841508	o	79
3220	34108	You're down by 5 and need to score in 4 plays or less.	You're down by 5 and need to score in 4 plays or less.	1627142	1471970841460	1471970841564	 	32
3220	34108	You're down by 5 and need to score in 4 plays or less.	You're down by 5 and need to score in 4 plays or less.	1627147	1471970841684	1471970841812	s	83
3220	34108	You're down by 5 and need to score in 4 plays or less.	You're down by 5 and need to score in 4 plays or less.	1627170	1471970841884	1471970842004	c	67
3220	34108	You're down by 5 and need to score in 4 plays or less.	You're down by 5 and need to score in 4 plays or less.	1627172	1471970841996	1471970842116	o	79
3220	34108	You're down by 5 and need to score in 4 plays or less.	You're down by 5 and need to score in 4 plays or less.	1627175	1471970842220	1471970842364	r	82
3220	34108	You're down by 5 and need to score in 4 plays or less.	You're down by 5 and need to score in 4 plays or less.	1627177	1471970842292	1471970842468	e	69
3220	34108	You're down by 5 and need to score in 4 plays or less.	You're down by 5 and need to score in 4 plays or less.	1627347	1471970842452	1471970842607	 	32
3220	34108	You're down by 5 and need to score in 4 plays or less.	You're down by 5 and need to score in 4 plays or less.	1627349	1471970843268	1471970843356	i	73
3220	34108	You're down by 5 and need to score in 4 plays or less.	You're down by 5 and need to score in 4 plays or less.	1627353	1471970843484	1471970843660	n	78
3220	34108	You're down by 5 and need to score in 4 plays or less.	You're down by 5 and need to score in 4 plays or less.	1627356	1471970843572	1471970843724	 	32
3220	34108	You're down by 5 and need to score in 4 plays or less.	You're down by 5 and need to score in 4 plays or less.	1627358	1471970844796	1471970844892	4	100
3220	34108	You're down by 5 and need to score in 4 plays or less.	You're down by 5 and need to score in 4 plays or less.	1627360	1471970845156	1471970845276	 	32
3220	34108	You're down by 5 and need to score in 4 plays or less.	You're down by 5 and need to score in 4 plays or less.	1627390	1471970845340	1471970845444	p	80
3220	34108	You're down by 5 and need to score in 4 plays or less.	You're down by 5 and need to score in 4 plays or less.	1627393	1471970845532	1471970845620	l	76
3220	34108	You're down by 5 and need to score in 4 plays or less.	You're down by 5 and need to score in 4 plays or less.	1627396	1471970845604	1471970845772	a	65
3220	34108	You're down by 5 and need to score in 4 plays or less.	You're down by 5 and need to score in 4 plays or less.	1627399	1471970845868	1471970845948	y	89
3220	34108	You're down by 5 and need to score in 4 plays or less.	You're down by 5 and need to score in 4 plays or less.	1627402	1471970846004	1471970846180	s	83
3220	34108	You're down by 5 and need to score in 4 plays or less.	You're down by 5 and need to score in 4 plays or less.	1627464	1471970846228	1471970846380	 	32
3220	34108	You're down by 5 and need to score in 4 plays or less.	You're down by 5 and need to score in 4 plays or less.	1627468	1471970847092	1471970847196	o	79
3220	34108	You're down by 5 and need to score in 4 plays or less.	You're down by 5 and need to score in 4 plays or less.	1627475	1471970847244	1471970847356	r	82
3220	34108	You're down by 5 and need to score in 4 plays or less.	You're down by 5 and need to score in 4 plays or less.	1627480	1471970847332	1471970847444	 	32
3220	34108	You're down by 5 and need to score in 4 plays or less.	You're down by 5 and need to score in 4 plays or less.	1627485	1471970847476	1471970847596	l	76
3220	34108	You're down by 5 and need to score in 4 plays or less.	You're down by 5 and need to score in 4 plays or less.	1627579	1471970847612	1471970847716	e	69
3220	34108	You're down by 5 and need to score in 4 plays or less.	You're down by 5 and need to score in 4 plays or less.	1627581	1471970847900	1471970847988	s	83
3220	34108	You're down by 5 and need to score in 4 plays or less.	You're down by 5 and need to score in 4 plays or less.	1627583	1471970848052	1471970848180	s	83
3220	34108	You're down by 5 and need to score in 4 plays or less.	You're down by 5 and need to score in 4 plays or less.	1627585	1471970848820	1471970848924	.	110
3220	34133	Mixed signals from APS today.	Mixed signals from APS today.	1627761	1471970852460	1471970852580	m	77
3220	34133	Mixed signals from APS today.	Mixed signals from APS today.	1627763	1471970852572	1471970852716	CAPS_LOCK	20
3220	34133	Mixed signals from APS today.	Mixed signals from APS today.	1627766	1471970854060	1471970854156	BKSP	8
3220	34133	Mixed signals from APS today.	Mixed signals from APS today.	1627769	1471970854364	1471970854492	M	77
3220	34133	Mixed signals from APS today.	Mixed signals from APS today.	1627772	1471970854500	1471970854652	CAPS_LOCK	20
3220	34133	Mixed signals from APS today.	Mixed signals from APS today.	1627775	1471970854596	1471970854716	i	73
3220	34133	Mixed signals from APS today.	Mixed signals from APS today.	1627777	1471970854876	1471970854972	x	88
3220	34133	Mixed signals from APS today.	Mixed signals from APS today.	1627778	1471970855116	1471970855180	e	69
3220	34133	Mixed signals from APS today.	Mixed signals from APS today.	1627807	1471970855284	1471970855420	d	68
3220	34133	Mixed signals from APS today.	Mixed signals from APS today.	1627810	1471970855388	1471970855548	 	32
3220	34133	Mixed signals from APS today.	Mixed signals from APS today.	1627814	1471970855564	1471970855740	s	83
3220	34133	Mixed signals from APS today.	Mixed signals from APS today.	1627816	1471970855684	1471970855828	i	73
3220	34133	Mixed signals from APS today.	Mixed signals from APS today.	1627818	1471970856036	1471970856124	g	71
3220	34133	Mixed signals from APS today.	Mixed signals from APS today.	1627866	1471970856308	1471970856412	n	78
3220	34133	Mixed signals from APS today.	Mixed signals from APS today.	1627871	1471970856396	1471970856548	a	65
3220	34133	Mixed signals from APS today.	Mixed signals from APS today.	1627874	1471970856556	1471970856708	l	76
3220	34133	Mixed signals from APS today.	Mixed signals from APS today.	1627877	1471970856756	1471970856940	s	83
3220	34133	Mixed signals from APS today.	Mixed signals from APS today.	1627880	1471970857404	1471970857532	 	32
3220	34133	Mixed signals from APS today.	Mixed signals from APS today.	1627923	1471970857916	1471970858012	f	70
3220	34133	Mixed signals from APS today.	Mixed signals from APS today.	1627926	1471970858084	1471970858180	r	82
3220	34133	Mixed signals from APS today.	Mixed signals from APS today.	1627931	1471970858188	1471970858284	o	79
3220	34133	Mixed signals from APS today.	Mixed signals from APS today.	1627935	1471970858388	1471970858508	m	77
3220	34133	Mixed signals from APS today.	Mixed signals from APS today.	1628052	1471970858476	1471970858548	 	32
3220	34133	Mixed signals from APS today.	Mixed signals from APS today.	1628055	1471970858596	1471970858716	CAPS_LOCK	20
3220	34133	Mixed signals from APS today.	Mixed signals from APS today.	1628059	1471970858884	1471970859020	A	65
3220	34133	Mixed signals from APS today.	Mixed signals from APS today.	1628062	1471970860060	1471970860180	P	80
3220	34133	Mixed signals from APS today.	Mixed signals from APS today.	1628063	1471970860308	1471970860452	S	83
3220	34133	Mixed signals from APS today.	Mixed signals from APS today.	1628064	1471970860852	1471970860988	.	190
3220	34133	Mixed signals from APS today.	Mixed signals from APS today.	1628124	1471970860940	1471970861060	 	32
3220	34133	Mixed signals from APS today.	Mixed signals from APS today.	1628128	1471970861020	1471970861132	CAPS_LOCK	20
3220	34133	Mixed signals from APS today.	Mixed signals from APS today.	1628133	1471970861892	1471970861972	t	84
3220	34133	Mixed signals from APS today.	Mixed signals from APS today.	1628137	1471970861988	1471970862124	o	79
3220	34133	Mixed signals from APS today.	Mixed signals from APS today.	1628139	1471970862316	1471970862484	d	68
3220	34133	Mixed signals from APS today.	Mixed signals from APS today.	1628144	1471970862412	1471970862564	a	65
3220	34133	Mixed signals from APS today.	Mixed signals from APS today.	1628566	1471970862492	1471970862580	y	89
3220	34133	Mixed signals from APS today.	Mixed signals from APS today.	1628568	1471970862940	1471970863020	.	190
3220	34133	Mixed signals from APS today.	Mixed signals from APS today.	1628569	1471970867212	1471970867308	BKSP	8
3220	34133	Mixed signals from APS today.	Mixed signals from APS today.	1628570	1471970868476	1471970868620	BKSP	8
3220	34133	Mixed signals from APS today.	Mixed signals from APS today.	1628572	1471970870132	1471970870260	CAPS_LOCK	20
3220	34133	Mixed signals from APS today.	Mixed signals from APS today.	1628574	1471970870260	1471970870372	S	83
3220	34157	Andy Fastow will be on a leave of absence from the company.	Andy Fastow will be on a leave of absence from the company.	1628751	1471970874332	1471970874460	CAPS_LOCK	20
3220	34157	Andy Fastow will be on a leave of absence from the company.	Andy Fastow will be on a leave of absence from the company.	1628752	1471970874531	1471970874644	a	65
3220	34157	Andy Fastow will be on a leave of absence from the company.	Andy Fastow will be on a leave of absence from the company.	1628753	1471970874707	1471970874852	CAPS_LOCK	20
3220	34157	Andy Fastow will be on a leave of absence from the company.	Andy Fastow will be on a leave of absence from the company.	1628755	1471970874964	1471970875060	N	78
3220	34157	Andy Fastow will be on a leave of absence from the company.	Andy Fastow will be on a leave of absence from the company.	1628759	1471970875324	1471970875444	D	68
3220	34157	Andy Fastow will be on a leave of absence from the company.	Andy Fastow will be on a leave of absence from the company.	1628763	1471970875396	1471970875563	Y	89
3220	34157	Andy Fastow will be on a leave of absence from the company.	Andy Fastow will be on a leave of absence from the company.	1628769	1471970875579	1471970875692	 	32
3220	34157	Andy Fastow will be on a leave of absence from the company.	Andy Fastow will be on a leave of absence from the company.	1628954	1471970876132	1471970876220	CAPS_LOCK	20
3220	34157	Andy Fastow will be on a leave of absence from the company.	Andy Fastow will be on a leave of absence from the company.	1628961	1471970876436	1471970876508	f	70
3220	34157	Andy Fastow will be on a leave of absence from the company.	Andy Fastow will be on a leave of absence from the company.	1628965	1471970876596	1471970876691	CAPS_LOCK	20
3220	34157	Andy Fastow will be on a leave of absence from the company.	Andy Fastow will be on a leave of absence from the company.	1628971	1471970876875	1471970876996	A	65
3220	34157	Andy Fastow will be on a leave of absence from the company.	Andy Fastow will be on a leave of absence from the company.	1628974	1471970877083	1471970877180	S	83
3220	34157	Andy Fastow will be on a leave of absence from the company.	Andy Fastow will be on a leave of absence from the company.	1628976	1471970877340	1471970877420	T	84
3220	34157	Andy Fastow will be on a leave of absence from the company.	Andy Fastow will be on a leave of absence from the company.	1628980	1471970878172	1471970878228	BKSP	8
3220	34157	Andy Fastow will be on a leave of absence from the company.	Andy Fastow will be on a leave of absence from the company.	1628984	1471970878291	1471970878356	BKSP	8
3220	34157	Andy Fastow will be on a leave of absence from the company.	Andy Fastow will be on a leave of absence from the company.	1628988	1471970878427	1471970878476	BKSP	8
3220	34157	Andy Fastow will be on a leave of absence from the company.	Andy Fastow will be on a leave of absence from the company.	1628993	1471970878516	1471970878572	BKSP	8
3220	34157	Andy Fastow will be on a leave of absence from the company.	Andy Fastow will be on a leave of absence from the company.	1628999	1471970878636	1471970878692	BKSP	8
3220	34157	Andy Fastow will be on a leave of absence from the company.	Andy Fastow will be on a leave of absence from the company.	1629006	1471970878755	1471970878804	BKSP	8
3220	34157	Andy Fastow will be on a leave of absence from the company.	Andy Fastow will be on a leave of absence from the company.	1629015	1471970878875	1471970878924	BKSP	8
3220	34157	Andy Fastow will be on a leave of absence from the company.	Andy Fastow will be on a leave of absence from the company.	1629021	1471970878995	1471970879052	BKSP	8
3220	34157	Andy Fastow will be on a leave of absence from the company.	Andy Fastow will be on a leave of absence from the company.	1629027	1471970879115	1471970879172	BKSP	8
3220	34157	Andy Fastow will be on a leave of absence from the company.	Andy Fastow will be on a leave of absence from the company.	1629033	1471970879676	1471970879796	A	65
3220	34157	Andy Fastow will be on a leave of absence from the company.	Andy Fastow will be on a leave of absence from the company.	1629115	1471970879924	1471970880003	CAPS_LOCK	20
3220	34157	Andy Fastow will be on a leave of absence from the company.	Andy Fastow will be on a leave of absence from the company.	1629118	1471970880099	1471970880220	n	78
3220	34157	Andy Fastow will be on a leave of absence from the company.	Andy Fastow will be on a leave of absence from the company.	1629123	1471970880404	1471970880508	d	68
3220	34157	Andy Fastow will be on a leave of absence from the company.	Andy Fastow will be on a leave of absence from the company.	1629127	1471970880636	1471970880819	 	89
3220	34157	Andy Fastow will be on a leave of absence from the company.	Andy Fastow will be on a leave of absence from the company.	1629131	1471970881572	1471970881667	CAPS_LOCK	20
3220	34157	Andy Fastow will be on a leave of absence from the company.	Andy Fastow will be on a leave of absence from the company.	1629136	1471970881844	1471970881924	F	70
3220	34157	Andy Fastow will be on a leave of absence from the company.	Andy Fastow will be on a leave of absence from the company.	1629278	1471970882004	1471970882107	CAPS_LOCK	20
3220	34157	Andy Fastow will be on a leave of absence from the company.	Andy Fastow will be on a leave of absence from the company.	1629279	1471970882243	1471970882411	a	65
3220	34157	Andy Fastow will be on a leave of absence from the company.	Andy Fastow will be on a leave of absence from the company.	1629280	1471970882396	1471970882516	s	83
3220	34157	Andy Fastow will be on a leave of absence from the company.	Andy Fastow will be on a leave of absence from the company.	1629282	1471970882724	1471970882820	t	84
3220	34157	Andy Fastow will be on a leave of absence from the company.	Andy Fastow will be on a leave of absence from the company.	1629284	1471970883740	1471970883860	o	79
3220	34157	Andy Fastow will be on a leave of absence from the company.	Andy Fastow will be on a leave of absence from the company.	1629287	1471970884436	1471970884572	w	87
3220	34157	Andy Fastow will be on a leave of absence from the company.	Andy Fastow will be on a leave of absence from the company.	1629396	1471970884548	1471970884675	 	32
3220	34157	Andy Fastow will be on a leave of absence from the company.	Andy Fastow will be on a leave of absence from the company.	1629400	1471970885996	1471970886107	w	87
3220	34157	Andy Fastow will be on a leave of absence from the company.	Andy Fastow will be on a leave of absence from the company.	1629405	1471970886076	1471970886163	i	73
3220	34157	Andy Fastow will be on a leave of absence from the company.	Andy Fastow will be on a leave of absence from the company.	1629410	1471970886291	1471970886364	l	76
3220	34157	Andy Fastow will be on a leave of absence from the company.	Andy Fastow will be on a leave of absence from the company.	1629416	1471970886443	1471970886564	l	76
3220	34157	Andy Fastow will be on a leave of absence from the company.	Andy Fastow will be on a leave of absence from the company.	1629485	1471970886516	1471970886599	 	32
3220	34157	Andy Fastow will be on a leave of absence from the company.	Andy Fastow will be on a leave of absence from the company.	1629490	1471970886708	1471970886804	b	66
3220	34157	Andy Fastow will be on a leave of absence from the company.	Andy Fastow will be on a leave of absence from the company.	1629494	1471970886859	1471970886971	e	69
3220	34157	Andy Fastow will be on a leave of absence from the company.	Andy Fastow will be on a leave of absence from the company.	1629498	1471970886964	1471970887126	 	32
3220	34157	Andy Fastow will be on a leave of absence from the company.	Andy Fastow will be on a leave of absence from the company.	1629501	1471970887099	1471970887187	o	79
3220	34157	Andy Fastow will be on a leave of absence from the company.	Andy Fastow will be on a leave of absence from the company.	1629503	1471970887443	1471970887660	n	78
3220	34157	Andy Fastow will be on a leave of absence from the company.	Andy Fastow will be on a leave of absence from the company.	1629605	1471970887596	1471970887788	 	32
3220	34157	Andy Fastow will be on a leave of absence from the company.	Andy Fastow will be on a leave of absence from the company.	1629608	1471970888164	1471970888340	a	65
3220	34157	Andy Fastow will be on a leave of absence from the company.	Andy Fastow will be on a leave of absence from the company.	1629611	1471970888300	1471970888443	 	32
3220	34157	Andy Fastow will be on a leave of absence from the company.	Andy Fastow will be on a leave of absence from the company.	1629614	1471970888780	1471970888907	l	76
3220	34157	Andy Fastow will be on a leave of absence from the company.	Andy Fastow will be on a leave of absence from the company.	1629619	1471970889035	1471970889172	e	69
3220	34157	Andy Fastow will be on a leave of absence from the company.	Andy Fastow will be on a leave of absence from the company.	1629623	1471970889372	1471970889508	a	65
3220	34157	Andy Fastow will be on a leave of absence from the company.	Andy Fastow will be on a leave of absence from the company.	1629699	1471970889595	1471970889660	v	86
3220	34157	Andy Fastow will be on a leave of absence from the company.	Andy Fastow will be on a leave of absence from the company.	1629703	1471970889755	1471970889851	e	69
3220	34157	Andy Fastow will be on a leave of absence from the company.	Andy Fastow will be on a leave of absence from the company.	1629709	1471970889939	1471970890083	 	32
3220	34157	Andy Fastow will be on a leave of absence from the company.	Andy Fastow will be on a leave of absence from the company.	1629711	1471970890828	1471970890923	o	79
3220	34157	Andy Fastow will be on a leave of absence from the company.	Andy Fastow will be on a leave of absence from the company.	1629715	1471970891043	1471970891164	d	68
3220	34157	Andy Fastow will be on a leave of absence from the company.	Andy Fastow will be on a leave of absence from the company.	1629801	1471970891563	1471970891660	BKSP	8
3220	34157	Andy Fastow will be on a leave of absence from the company.	Andy Fastow will be on a leave of absence from the company.	1629804	1471970891699	1471970891790	f	70
3220	34157	Andy Fastow will be on a leave of absence from the company.	Andy Fastow will be on a leave of absence from the company.	1629806	1471970891764	1471970891923	 	32
3220	34157	Andy Fastow will be on a leave of absence from the company.	Andy Fastow will be on a leave of absence from the company.	1629808	1471970891979	1471970892131	a	65
3220	34157	Andy Fastow will be on a leave of absence from the company.	Andy Fastow will be on a leave of absence from the company.	1629810	1471970892331	1471970892427	b	66
3220	34157	Andy Fastow will be on a leave of absence from the company.	Andy Fastow will be on a leave of absence from the company.	1629812	1471970892692	1471970892923	s	83
3220	34157	Andy Fastow will be on a leave of absence from the company.	Andy Fastow will be on a leave of absence from the company.	1629874	1471970892884	1471970893019	e	69
3220	34157	Andy Fastow will be on a leave of absence from the company.	Andy Fastow will be on a leave of absence from the company.	1629879	1471970892948	1471970893075	n	78
3220	34157	Andy Fastow will be on a leave of absence from the company.	Andy Fastow will be on a leave of absence from the company.	1629883	1471970893187	1471970893275	c	67
3220	34157	Andy Fastow will be on a leave of absence from the company.	Andy Fastow will be on a leave of absence from the company.	1629885	1471970893331	1471970893467	e	69
3220	34157	Andy Fastow will be on a leave of absence from the company.	Andy Fastow will be on a leave of absence from the company.	1629889	1471970893499	1471970893627	 	32
3220	34157	Andy Fastow will be on a leave of absence from the company.	Andy Fastow will be on a leave of absence from the company.	1629893	1471970894460	1471970894643	f	70
3220	34157	Andy Fastow will be on a leave of absence from the company.	Andy Fastow will be on a leave of absence from the company.	1629904	1471970894596	1471970894756	r	82
3220	34157	Andy Fastow will be on a leave of absence from the company.	Andy Fastow will be on a leave of absence from the company.	1629907	1471970894732	1471970894835	o	79
3220	34157	Andy Fastow will be on a leave of absence from the company.	Andy Fastow will be on a leave of absence from the company.	1629910	1471970894963	1471970895051	m	77
3220	34157	Andy Fastow will be on a leave of absence from the company.	Andy Fastow will be on a leave of absence from the company.	1629913	1471970895027	1471970895107	 	32
3220	34157	Andy Fastow will be on a leave of absence from the company.	Andy Fastow will be on a leave of absence from the company.	1629917	1471970895131	1471970895243	t	84
3220	34157	Andy Fastow will be on a leave of absence from the company.	Andy Fastow will be on a leave of absence from the company.	1629941	1471970895228	1471970895339	h	72
3220	34157	Andy Fastow will be on a leave of absence from the company.	Andy Fastow will be on a leave of absence from the company.	1629945	1471970895316	1471970895428	e	69
3220	34157	Andy Fastow will be on a leave of absence from the company.	Andy Fastow will be on a leave of absence from the company.	1629950	1471970895428	1471970895539	 	32
3220	34157	Andy Fastow will be on a leave of absence from the company.	Andy Fastow will be on a leave of absence from the company.	1629955	1471970895603	1471970895731	c	67
3220	34157	Andy Fastow will be on a leave of absence from the company.	Andy Fastow will be on a leave of absence from the company.	1629959	1471970895683	1471970895779	o	79
3220	34157	Andy Fastow will be on a leave of absence from the company.	Andy Fastow will be on a leave of absence from the company.	1629962	1471970895851	1471970895948	m	77
3220	34157	Andy Fastow will be on a leave of absence from the company.	Andy Fastow will be on a leave of absence from the company.	1630040	1471970896091	1471970896291	p	80
3220	34157	Andy Fastow will be on a leave of absence from the company.	Andy Fastow will be on a leave of absence from the company.	1630044	1471970896299	1471970896491	a	65
3220	34157	Andy Fastow will be on a leave of absence from the company.	Andy Fastow will be on a leave of absence from the company.	1630048	1471970896547	1471970896667	n	78
3220	34157	Andy Fastow will be on a leave of absence from the company.	Andy Fastow will be on a leave of absence from the company.	1630052	1471970896820	1471970896907	y	89
3220	34157	Andy Fastow will be on a leave of absence from the company.	Andy Fastow will be on a leave of absence from the company.	1630055	1471970897900	1471970897963	.	110
3220	34190	You can't destroy us, and you can't stop us.	You can't destroy us, and you can't stop us.	1630502	1471970903988	1471970904099	CAPS_LOCK	20
3220	34190	You can't destroy us, and you can't stop us.	You can't destroy us, and you can't stop us.	1630504	1471970904043	1471970904131	U	85
3220	34190	You can't destroy us, and you can't stop us.	You can't destroy us, and you can't stop us.	1630505	1471970904555	1471970904691	BKSP	8
3220	34190	You can't destroy us, and you can't stop us.	You can't destroy us, and you can't stop us.	1630507	1471970905204	1471970905371	CAPS_LOCK	20
3220	34190	You can't destroy us, and you can't stop us.	You can't destroy us, and you can't stop us.	1630508	1471970905339	1471970905459	y	89
3220	34190	You can't destroy us, and you can't stop us.	You can't destroy us, and you can't stop us.	1630509	1471970905779	1471970905907	CAPS_LOCK	20
3220	34190	You can't destroy us, and you can't stop us.	You can't destroy us, and you can't stop us.	1630510	1471970906203	1471970906291	BKSP	8
3220	34190	You can't destroy us, and you can't stop us.	You can't destroy us, and you can't stop us.	1630511	1471970906555	1471970906627	T	84
3220	34190	You can't destroy us, and you can't stop us.	You can't destroy us, and you can't stop us.	1630512	1471970906691	1471970906843	CAPS_LOCK	20
3220	34190	You can't destroy us, and you can't stop us.	You can't destroy us, and you can't stop us.	1630514	1471970907044	1471970907219	CAPS_LOCK	20
3220	34190	You can't destroy us, and you can't stop us.	You can't destroy us, and you can't stop us.	1630516	1471970908051	1471970908203	BKSP	8
3220	34190	You can't destroy us, and you can't stop us.	You can't destroy us, and you can't stop us.	1630520	1471970908723	1471970908811	Y	89
3220	34190	You can't destroy us, and you can't stop us.	You can't destroy us, and you can't stop us.	1630525	1471970908883	1471970909035	CAPS_LOCK	20
3220	34190	You can't destroy us, and you can't stop us.	You can't destroy us, and you can't stop us.	1630528	1471970909059	1471970909203	o	79
3220	34190	You can't destroy us, and you can't stop us.	You can't destroy us, and you can't stop us.	1630596	1471970909171	1471970909363	u	85
3220	34190	You can't destroy us, and you can't stop us.	You can't destroy us, and you can't stop us.	1630599	1471970909355	1471970909451	 	32
3220	34190	You can't destroy us, and you can't stop us.	You can't destroy us, and you can't stop us.	1630602	1471970910323	1471970910491	c	67
3220	34190	You can't destroy us, and you can't stop us.	You can't destroy us, and you can't stop us.	1630606	1471970910387	1471970910524	a	65
3220	34190	You can't destroy us, and you can't stop us.	You can't destroy us, and you can't stop us.	1630609	1471970910483	1471970910603	n	78
3220	34190	You can't destroy us, and you can't stop us.	You can't destroy us, and you can't stop us.	1630614	1471970910979	1471970911083	'	222
3220	34190	You can't destroy us, and you can't stop us.	You can't destroy us, and you can't stop us.	1630706	1471970911211	1471970911307	t	84
3220	34190	You can't destroy us, and you can't stop us.	You can't destroy us, and you can't stop us.	1630708	1471970911331	1471970911451	 	32
3220	34190	You can't destroy us, and you can't stop us.	You can't destroy us, and you can't stop us.	1630709	1471970912363	1471970912579	d	68
3220	34190	You can't destroy us, and you can't stop us.	You can't destroy us, and you can't stop us.	1630712	1471970912475	1471970912595	e	69
3220	34190	You can't destroy us, and you can't stop us.	You can't destroy us, and you can't stop us.	1630717	1471970912707	1471970912835	s	83
3220	34190	You can't destroy us, and you can't stop us.	You can't destroy us, and you can't stop us.	1630770	1471970912996	1471970913059	t	84
3220	34190	You can't destroy us, and you can't stop us.	You can't destroy us, and you can't stop us.	1630776	1471970913171	1471970913283	r	82
3220	34190	You can't destroy us, and you can't stop us.	You can't destroy us, and you can't stop us.	1630779	1471970913427	1471970913547	o	79
3220	34190	You can't destroy us, and you can't stop us.	You can't destroy us, and you can't stop us.	1630782	1471970913763	1471970913955	y	89
3220	34190	You can't destroy us, and you can't stop us.	You can't destroy us, and you can't stop us.	1630862	1471970913899	1471970914107	 	32
3220	34190	You can't destroy us, and you can't stop us.	You can't destroy us, and you can't stop us.	1630864	1471970914171	1471970914315	u	85
3220	34190	You can't destroy us, and you can't stop us.	You can't destroy us, and you can't stop us.	1630867	1471970914331	1471970914515	s	83
3220	34190	You can't destroy us, and you can't stop us.	You can't destroy us, and you can't stop us.	1630870	1471970914451	1471970914595	 	32
3220	34190	You can't destroy us, and you can't stop us.	You can't destroy us, and you can't stop us.	1630873	1471970915139	1471970915211	BKSP	8
3220	34190	You can't destroy us, and you can't stop us.	You can't destroy us, and you can't stop us.	1630875	1471970915771	1471970915891	,	188
3220	34190	You can't destroy us, and you can't stop us.	You can't destroy us, and you can't stop us.	1630936	1471970915859	1471970915971	 	32
3220	34190	You can't destroy us, and you can't stop us.	You can't destroy us, and you can't stop us.	1630942	1471970915939	1471970916099	a	65
3220	34190	You can't destroy us, and you can't stop us.	You can't destroy us, and you can't stop us.	1630948	1471970916107	1471970916219	n	78
3220	34190	You can't destroy us, and you can't stop us.	You can't destroy us, and you can't stop us.	1630953	1471970916363	1471970916507	d	68
3220	34190	You can't destroy us, and you can't stop us.	You can't destroy us, and you can't stop us.	1630957	1471970916435	1471970916603	 	32
3220	34190	You can't destroy us, and you can't stop us.	You can't destroy us, and you can't stop us.	1630961	1471970917235	1471970917331	y	89
3220	34190	You can't destroy us, and you can't stop us.	You can't destroy us, and you can't stop us.	1631019	1471970917731	1471970917939	o	79
3220	34190	You can't destroy us, and you can't stop us.	You can't destroy us, and you can't stop us.	1631021	1471970917867	1471970918019	u	85
3220	34190	You can't destroy us, and you can't stop us.	You can't destroy us, and you can't stop us.	1631022	1471970918027	1471970918155	 	32
3220	34190	You can't destroy us, and you can't stop us.	You can't destroy us, and you can't stop us.	1631023	1471970918675	1471970918835	c	67
3220	34190	You can't destroy us, and you can't stop us.	You can't destroy us, and you can't stop us.	1631089	1471970918747	1471970918907	a	65
3220	34190	You can't destroy us, and you can't stop us.	You can't destroy us, and you can't stop us.	1631091	1471970918915	1471970918995	n	78
3220	34190	You can't destroy us, and you can't stop us.	You can't destroy us, and you can't stop us.	1631093	1471970919347	1471970919467	'	222
3220	34190	You can't destroy us, and you can't stop us.	You can't destroy us, and you can't stop us.	1631095	1471970919603	1471970919683	t	84
3220	34190	You can't destroy us, and you can't stop us.	You can't destroy us, and you can't stop us.	1631097	1471970919779	1471970919915	 	32
3220	34190	You can't destroy us, and you can't stop us.	You can't destroy us, and you can't stop us.	1631099	1471970920483	1471970920675	s	83
3220	34190	You can't destroy us, and you can't stop us.	You can't destroy us, and you can't stop us.	1631144	1471970921051	1471970921139	t	84
3220	34190	You can't destroy us, and you can't stop us.	You can't destroy us, and you can't stop us.	1631146	1471970921179	1471970921355	o	79
3220	34190	You can't destroy us, and you can't stop us.	You can't destroy us, and you can't stop us.	1631149	1471970921299	1471970921467	p	80
3220	34190	You can't destroy us, and you can't stop us.	You can't destroy us, and you can't stop us.	1631151	1471970921491	1471970921627	 	32
3220	34190	You can't destroy us, and you can't stop us.	You can't destroy us, and you can't stop us.	1631154	1471970921755	1471970921843	u	85
3220	34190	You can't destroy us, and you can't stop us.	You can't destroy us, and you can't stop us.	1631258	1471970921883	1471970922059	s	83
3220	34190	You can't destroy us, and you can't stop us.	You can't destroy us, and you can't stop us.	1631260	1471970922187	1471970922283	.	190
3220	34213	I am all over it.	I am all over it.	1631438	1471970927387	1471970927523	CAPS_LOCK	20
3220	34213	I am all over it.	I am all over it.	1631439	1471970927459	1471970927563	I	73
3220	34213	I am all over it.	I am all over it.	1631441	1471970927611	1471970927699	CAPS_LOCK	20
3220	34213	I am all over it.	I am all over it.	1631443	1471970927691	1471970927843	 	32
3220	34213	I am all over it.	I am all over it.	1631445	1471970928171	1471970928347	a	65
3220	34213	I am all over it.	I am all over it.	1631447	1471970928348	1471970928499	m	77
3220	34213	I am all over it.	I am all over it.	1631481	1471970928443	1471970928563	 	32
3220	34213	I am all over it.	I am all over it.	1631484	1471970928819	1471970928995	a	65
3220	34213	I am all over it.	I am all over it.	1631491	1471970929115	1471970929195	l	76
3220	34213	I am all over it.	I am all over it.	1631496	1471970929275	1471970929427	l	76
3220	34213	I am all over it.	I am all over it.	1631501	1471970929347	1471970929531	 	32
3220	34213	I am all over it.	I am all over it.	1631505	1471970929563	1471970929715	o	79
3220	34213	I am all over it.	I am all over it.	1631521	1471970929771	1471970929835	v	86
3220	34213	I am all over it.	I am all over it.	1631525	1471970929955	1471970930091	e	69
3220	34213	I am all over it.	I am all over it.	1631528	1471970930067	1471970930163	r	82
3220	34213	I am all over it.	I am all over it.	1631531	1471970930091	1471970930275	 	32
3220	34213	I am all over it.	I am all over it.	1631676	1471970930259	1471970930363	i	73
3220	34213	I am all over it.	I am all over it.	1631680	1471970930467	1471970930539	t	84
3220	34213	I am all over it.	I am all over it.	1631682	1471970930699	1471970930779	.	190
3220	34219	The contract is a bit complicated.	The contract is a bit complicated.	1631929	1471970937603	1471970937763	CAPS_LOCK	20
3220	34219	The contract is a bit complicated.	The contract is a bit complicated.	1631933	1471970937955	1471970938011	T	84
3220	34219	The contract is a bit complicated.	The contract is a bit complicated.	1631936	1471970938099	1471970938203	CAPS_LOCK	20
3220	34219	The contract is a bit complicated.	The contract is a bit complicated.	1631941	1471970938235	1471970938347	h	72
3220	34219	The contract is a bit complicated.	The contract is a bit complicated.	1631943	1471970938331	1471970938446	e	69
3220	34219	The contract is a bit complicated.	The contract is a bit complicated.	1631946	1471970938451	1471970938627	 	32
3220	34219	The contract is a bit complicated.	The contract is a bit complicated.	1631949	1471970938883	1471970939003	c	67
3220	34219	The contract is a bit complicated.	The contract is a bit complicated.	1631981	1471970939091	1471970939187	o	79
3220	34219	The contract is a bit complicated.	The contract is a bit complicated.	1631984	1471970939267	1471970939371	n	78
3220	34219	The contract is a bit complicated.	The contract is a bit complicated.	1631989	1471970939531	1471970939611	t	84
3220	34219	The contract is a bit complicated.	The contract is a bit complicated.	1631994	1471970939875	1471970940019	r	82
3220	34219	The contract is a bit complicated.	The contract is a bit complicated.	1631998	1471970940099	1471970940227	a	65
3220	34219	The contract is a bit complicated.	The contract is a bit complicated.	1632012	1471970940291	1471970940379	c	67
3220	34219	The contract is a bit complicated.	The contract is a bit complicated.	1632014	1471970940507	1471970940595	t	84
3220	34219	The contract is a bit complicated.	The contract is a bit complicated.	1632015	1471970940587	1471970940723	 	32
3220	34219	The contract is a bit complicated.	The contract is a bit complicated.	1632016	1471970940707	1471970940795	i	73
3220	34219	The contract is a bit complicated.	The contract is a bit complicated.	1632017	1471970940796	1471970940931	s	83
3220	34219	The contract is a bit complicated.	The contract is a bit complicated.	1632052	1471970940923	1471970941043	 	32
3220	34219	The contract is a bit complicated.	The contract is a bit complicated.	1632054	1471970941107	1471970941235	s	83
3220	34219	The contract is a bit complicated.	The contract is a bit complicated.	1632058	1471970941579	1471970941691	BKSP	8
3220	34219	The contract is a bit complicated.	The contract is a bit complicated.	1632064	1471970941699	1471970941875	a	65
3220	34219	The contract is a bit complicated.	The contract is a bit complicated.	1632070	1471970941827	1471970941971	 	32
3220	34219	The contract is a bit complicated.	The contract is a bit complicated.	1632077	1471970942507	1471970942683	b	66
3220	34219	The contract is a bit complicated.	The contract is a bit complicated.	1632100	1471970942579	1471970942731	i	73
3220	34219	The contract is a bit complicated.	The contract is a bit complicated.	1632101	1471970942819	1471970942891	t	84
3220	34219	The contract is a bit complicated.	The contract is a bit complicated.	1632104	1471970942907	1471970943035	 	32
3220	34219	The contract is a bit complicated.	The contract is a bit complicated.	1632107	1471970943147	1471970943267	c	67
3220	34219	The contract is a bit complicated.	The contract is a bit complicated.	1632110	1471970943219	1471970943355	o	79
3220	34219	The contract is a bit complicated.	The contract is a bit complicated.	1632112	1471970943387	1471970943459	m	77
3220	34219	The contract is a bit complicated.	The contract is a bit complicated.	1632200	1471970944595	1471970944755	p	80
3220	34219	The contract is a bit complicated.	The contract is a bit complicated.	1632203	1471970944683	1471970944819	l	76
3220	34219	The contract is a bit complicated.	The contract is a bit complicated.	1632206	1471970944915	1471970945019	i	73
3220	34219	The contract is a bit complicated.	The contract is a bit complicated.	1632208	1471970945107	1471970945235	c	67
3220	34219	The contract is a bit complicated.	The contract is a bit complicated.	1632317	1471970945179	1471970945307	a	65
3220	34219	The contract is a bit complicated.	The contract is a bit complicated.	1632318	1471970945419	1471970945531	t	84
3220	34219	The contract is a bit complicated.	The contract is a bit complicated.	1632319	1471970945475	1471970945603	e	69
3220	34219	The contract is a bit complicated.	The contract is a bit complicated.	1632321	1471970945699	1471970945811	d	68
3220	34219	The contract is a bit complicated.	The contract is a bit complicated.	1632326	1471970946011	1471970946091	.	190
3220	34233	Now I really feel I'm alive, not like before.	Now I really feel I'm alive, not like before.	1632675	1471970951603	1471970951726	CAPS_LOCK	20
3220	34233	Now I really feel I'm alive, not like before.	Now I really feel I'm alive, not like before.	1632677	1471970951699	1471970951787	I	73
3220	34233	Now I really feel I'm alive, not like before.	Now I really feel I'm alive, not like before.	1632679	1471970951803	1471970951907	CAPS_LOCK	20
3220	34233	Now I really feel I'm alive, not like before.	Now I really feel I'm alive, not like before.	1632681	1471970952019	1471970952131	 	32
3220	34233	Now I really feel I'm alive, not like before.	Now I really feel I'm alive, not like before.	1632685	1471970953563	1471970953635	BKSP	8
3220	34233	Now I really feel I'm alive, not like before.	Now I really feel I'm alive, not like before.	1632687	1471970953699	1471970953803	BKSP	8
3220	34233	Now I really feel I'm alive, not like before.	Now I really feel I'm alive, not like before.	1632691	1471970954387	1471970954523	CAPS_LOCK	20
3220	34233	Now I really feel I'm alive, not like before.	Now I really feel I'm alive, not like before.	1632696	1471970954467	1471970954571	N	78
3220	34233	Now I really feel I'm alive, not like before.	Now I really feel I'm alive, not like before.	1632703	1471970954635	1471970954739	CAPS_LOCK	20
3220	34233	Now I really feel I'm alive, not like before.	Now I really feel I'm alive, not like before.	1632708	1471970955235	1471970955347	o	79
3220	34233	Now I really feel I'm alive, not like before.	Now I really feel I'm alive, not like before.	1632712	1471970955603	1471970955715	w	87
3220	34233	Now I really feel I'm alive, not like before.	Now I really feel I'm alive, not like before.	1632755	1471970955707	1471970955811	 	32
3220	34233	Now I really feel I'm alive, not like before.	Now I really feel I'm alive, not like before.	1632759	1471970955851	1471970955931	I	20
3220	34233	Now I really feel I'm alive, not like before.	Now I really feel I'm alive, not like before.	1632762	1471970956075	1471970956171	CAPS_LOCK	20
3220	34233	Now I really feel I'm alive, not like before.	Now I really feel I'm alive, not like before.	1632765	1471970956139	1471970956267	 	32
3220	34233	Now I really feel I'm alive, not like before.	Now I really feel I'm alive, not like before.	1632768	1471970956467	1471970956587	r	82
3220	34233	Now I really feel I'm alive, not like before.	Now I really feel I'm alive, not like before.	1632771	1471970956523	1471970956643	e	69
3220	34233	Now I really feel I'm alive, not like before.	Now I really feel I'm alive, not like before.	1632774	1471970956739	1471970956867	a	65
3220	34233	Now I really feel I'm alive, not like before.	Now I really feel I'm alive, not like before.	1632844	1471970956795	1471970956899	l	76
3220	34233	Now I really feel I'm alive, not like before.	Now I really feel I'm alive, not like before.	1632849	1471970956979	1471970957075	l	76
3220	34233	Now I really feel I'm alive, not like before.	Now I really feel I'm alive, not like before.	1632851	1471970957203	1471970957291	y	89
3220	34233	Now I really feel I'm alive, not like before.	Now I really feel I'm alive, not like before.	1632856	1471970957851	1471970958019	 	32
3220	34233	Now I really feel I'm alive, not like before.	Now I really feel I'm alive, not like before.	1632861	1471970958243	1471970958435	f	70
3220	34233	Now I really feel I'm alive, not like before.	Now I really feel I'm alive, not like before.	1632969	1471970958363	1471970958502	e	69
3220	34233	Now I really feel I'm alive, not like before.	Now I really feel I'm alive, not like before.	1632972	1471970958588	1471970958691	e	69
3220	34233	Now I really feel I'm alive, not like before.	Now I really feel I'm alive, not like before.	1632976	1471970958707	1471970958939	l	76
3220	34233	Now I really feel I'm alive, not like before.	Now I really feel I'm alive, not like before.	1632981	1471970958835	1471970959043	 	32
3220	34233	Now I really feel I'm alive, not like before.	Now I really feel I'm alive, not like before.	1632984	1471970959987	1471970960131	CAPS_LOCK	20
3220	34233	Now I really feel I'm alive, not like before.	Now I really feel I'm alive, not like before.	1632987	1471970960131	1471970960227	I	73
3220	34233	Now I really feel I'm alive, not like before.	Now I really feel I'm alive, not like before.	1632992	1471970960235	1471970960347	CAPS_LOCK	20
3220	34233	Now I really feel I'm alive, not like before.	Now I really feel I'm alive, not like before.	1632996	1471970960587	1471970960659	'	222
3220	34233	Now I really feel I'm alive, not like before.	Now I really feel I'm alive, not like before.	1633107	1471970961747	1471970961987	m	77
3220	34233	Now I really feel I'm alive, not like before.	Now I really feel I'm alive, not like before.	1633111	1471970961883	1471970962139	 	32
3220	34233	Now I really feel I'm alive, not like before.	Now I really feel I'm alive, not like before.	1633115	1471970962435	1471970962619	a	65
3220	34233	Now I really feel I'm alive, not like before.	Now I really feel I'm alive, not like before.	1633119	1471970963059	1471970963139	l	76
3220	34233	Now I really feel I'm alive, not like before.	Now I really feel I'm alive, not like before.	1633124	1471970963251	1471970963379	i	73
3220	34233	Now I really feel I'm alive, not like before.	Now I really feel I'm alive, not like before.	1633195	1471970963403	1471970963491	v	86
3220	34233	Now I really feel I'm alive, not like before.	Now I really feel I'm alive, not like before.	1633201	1471970963579	1471970963707	e	69
3220	34233	Now I really feel I'm alive, not like before.	Now I really feel I'm alive, not like before.	1633207	1471970963939	1471970964099	,	188
3220	34233	Now I really feel I'm alive, not like before.	Now I really feel I'm alive, not like before.	1633210	1471970964035	1471970964139	 	32
3220	34233	Now I really feel I'm alive, not like before.	Now I really feel I'm alive, not like before.	1633216	1471970964875	1471970964987	n	78
3220	34233	Now I really feel I'm alive, not like before.	Now I really feel I'm alive, not like before.	1633281	1471970965123	1471970965267	o	79
3220	34233	Now I really feel I'm alive, not like before.	Now I really feel I'm alive, not like before.	1633285	1471970965763	1471970965843	t	84
3220	34233	Now I really feel I'm alive, not like before.	Now I really feel I'm alive, not like before.	1633286	1471970965859	1471970965979	 	32
3220	34233	Now I really feel I'm alive, not like before.	Now I really feel I'm alive, not like before.	1633290	1471970966131	1471970966227	l	76
3220	34233	Now I really feel I'm alive, not like before.	Now I really feel I'm alive, not like before.	1633291	1471970966347	1471970966427	i	73
3220	34233	Now I really feel I'm alive, not like before.	Now I really feel I'm alive, not like before.	1633349	1471970966531	1471970966651	k	75
3220	34233	Now I really feel I'm alive, not like before.	Now I really feel I'm alive, not like before.	1633351	1471970966715	1471970966859	e	69
3220	34233	Now I really feel I'm alive, not like before.	Now I really feel I'm alive, not like before.	1633353	1471970966811	1471970966963	 	32
3220	34233	Now I really feel I'm alive, not like before.	Now I really feel I'm alive, not like before.	1633355	1471970967851	1471970967979	b	66
3220	34233	Now I really feel I'm alive, not like before.	Now I really feel I'm alive, not like before.	1633413	1471970967966	1471970968083	e	69
3220	34233	Now I really feel I'm alive, not like before.	Now I really feel I'm alive, not like before.	1633415	1471970968467	1471970968571	f	70
3220	34233	Now I really feel I'm alive, not like before.	Now I really feel I'm alive, not like before.	1633419	1471970968531	1471970968659	o	79
3220	34233	Now I really feel I'm alive, not like before.	Now I really feel I'm alive, not like before.	1633425	1471970968683	1471970968803	r	82
3220	34233	Now I really feel I'm alive, not like before.	Now I really feel I'm alive, not like before.	1633430	1471970968747	1471970968891	e	69
3220	34233	Now I really feel I'm alive, not like before.	Now I really feel I'm alive, not like before.	1633434	1471970968971	1471970969051	.	190
