PARTICIPANT_ID	TEST_SECTION_ID	SENTENCE	USER_INPUT	KEYSTROKE_ID	PRESS_TIME	RELEASE_TIME	LETTER	KEYCODE
3223	33981	Reconfigure the disk layout.	Reconfigure the disk layout.	1620395	1471970716154	1471970716523	SHIFT	16
3223	33981	Reconfigure the disk layout.	Reconfigure the disk layout.	1620393	1471970716376	1471970716486	T	84
3223	33981	Reconfigure the disk layout.	Reconfigure the disk layout.	1620397	1471970716834	1471970717005	BKSP	8
3223	33981	Reconfigure the disk layout.	Reconfigure the disk layout.	1620399	1471970717018	1471970717319	SHIFT	16
3223	33981	Reconfigure the disk layout.	Reconfigure the disk layout.	1620402	1471970717173	1471970717345	R	82
3223	33981	Reconfigure the disk layout.	Reconfigure the disk layout.	1620407	1471970717448	1471970717594	e	69
3223	33981	Reconfigure the disk layout.	Reconfigure the disk layout.	1620411	1471970717735	1471970717900	c	67
3223	33981	Reconfigure the disk layout.	Reconfigure the disk layout.	1620415	1471970717905	1471970718034	o	79
3223	33981	Reconfigure the disk layout.	Reconfigure the disk layout.	1620438	1471970718093	1471970718239	n	78
3223	33981	Reconfigure the disk layout.	Reconfigure the disk layout.	1620443	1471970718276	1471970718423	f	70
3223	33981	Reconfigure the disk layout.	Reconfigure the disk layout.	1620448	1471970718398	1471970718534	i	73
3223	33981	Reconfigure the disk layout.	Reconfigure the disk layout.	1620453	1471970718563	1471970718700	g	71
3223	33981	Reconfigure the disk layout.	Reconfigure the disk layout.	1620456	1471970718914	1471970719059	u	85
3223	33981	Reconfigure the disk layout.	Reconfigure the disk layout.	1620487	1471970719174	1471970719352	r	82
3223	33981	Reconfigure the disk layout.	Reconfigure the disk layout.	1620490	1471970719426	1471970719572	e	69
3223	33981	Reconfigure the disk layout.	Reconfigure the disk layout.	1620494	1471970719585	1471970719689	 	32
3223	33981	Reconfigure the disk layout.	Reconfigure the disk layout.	1620500	1471970719743	1471970719857	t	84
3223	33981	Reconfigure the disk layout.	Reconfigure the disk layout.	1620524	1471970719832	1471970719951	h	72
3223	33981	Reconfigure the disk layout.	Reconfigure the disk layout.	1620525	1471970719949	1471970720075	e	69
3223	33981	Reconfigure the disk layout.	Reconfigure the disk layout.	1620527	1471970720055	1471970720161	 	32
3223	33981	Reconfigure the disk layout.	Reconfigure the disk layout.	1620531	1471970720488	1471970720616	d	68
3223	33981	Reconfigure the disk layout.	Reconfigure the disk layout.	1620534	1471970720610	1471970720744	i	73
3223	33981	Reconfigure the disk layout.	Reconfigure the disk layout.	1620568	1471970720738	1471970720859	s	83
3223	33981	Reconfigure the disk layout.	Reconfigure the disk layout.	1620574	1471970720851	1471970721002	k	75
3223	33981	Reconfigure the disk layout.	Reconfigure the disk layout.	1620580	1471970720995	1471970721107	 	32
3223	33981	Reconfigure the disk layout.	Reconfigure the disk layout.	1620583	1471970721159	1471970721292	l	76
3223	33981	Reconfigure the disk layout.	Reconfigure the disk layout.	1620586	1471970721238	1471970721378	a	65
3223	33981	Reconfigure the disk layout.	Reconfigure the disk layout.	1620591	1471970721450	1471970721603	y	89
3223	33981	Reconfigure the disk layout.	Reconfigure the disk layout.	1620639	1471970721725	1471970721856	o	79
3223	33981	Reconfigure the disk layout.	Reconfigure the disk layout.	1620641	1471970721893	1471970722026	u	85
3223	33981	Reconfigure the disk layout.	Reconfigure the disk layout.	1620644	1471970722015	1471970722138	t	84
3223	33981	Reconfigure the disk layout.	Reconfigure the disk layout.	1620647	1471970722416	1471970722582	.	190
3223	33991	Do you and George have a thing going?	Do you and George have a thing going?	1620815	1471970724023	1471970724560	SHIFT	16
3223	33991	Do you and George have a thing going?	Do you and George have a thing going?	1620817	1471970725105	1471970725398	SHIFT	16
3223	33991	Do you and George have a thing going?	Do you and George have a thing going?	1620819	1471970725377	1471970725495	D	68
3223	33991	Do you and George have a thing going?	Do you and George have a thing going?	1620821	1471970725461	1471970725596	o	79
3223	33991	Do you and George have a thing going?	Do you and George have a thing going?	1620823	1471970725609	1471970725725	 	32
3223	33991	Do you and George have a thing going?	Do you and George have a thing going?	1620827	1471970725807	1471970725890	u	85
3223	33991	Do you and George have a thing going?	Do you and George have a thing going?	1620831	1471970726308	1471970726449	BKSP	8
3223	33991	Do you and George have a thing going?	Do you and George have a thing going?	1620833	1471970726448	1471970726688	SHIFT	16
3223	33991	Do you and George have a thing going?	Do you and George have a thing going?	1620932	1471970726594	1471970726701	Y	89
3223	33991	Do you and George have a thing going?	Do you and George have a thing going?	1620934	1471970727011	1471970727164	BKSP	8
3223	33991	Do you and George have a thing going?	Do you and George have a thing going?	1620937	1471970727290	1471970727418	u	85
3223	33991	Do you and George have a thing going?	Do you and George have a thing going?	1620941	1471970727647	1471970727800	BKSP	8
3223	33991	Do you and George have a thing going?	Do you and George have a thing going?	1620944	1471970727870	1471970727976	u	85
3223	33991	Do you and George have a thing going?	Do you and George have a thing going?	1620948	1471970728074	1471970728234	o	79
3223	33991	Do you and George have a thing going?	Do you and George have a thing going?	1620951	1471970728373	1471970728465	BKSP	8
3223	33991	Do you and George have a thing going?	Do you and George have a thing going?	1620954	1471970728522	1471970728676	BKSP	8
3223	33991	Do you and George have a thing going?	Do you and George have a thing going?	1620956	1471970728763	1471970728912	y	89
3223	33991	Do you and George have a thing going?	Do you and George have a thing going?	1620963	1471970728897	1471970729005	o	79
3223	33991	Do you and George have a thing going?	Do you and George have a thing going?	1620967	1471970729096	1471970729210	u	85
3223	33991	Do you and George have a thing going?	Do you and George have a thing going?	1620973	1471970729167	1471970729287	 	32
3223	33991	Do you and George have a thing going?	Do you and George have a thing going?	1620979	1471970729329	1471970729467	a	65
3223	33991	Do you and George have a thing going?	Do you and George have a thing going?	1620985	1471970729434	1471970729553	n	78
3223	33991	Do you and George have a thing going?	Do you and George have a thing going?	1621036	1471970729546	1471970729669	d	68
3223	33991	Do you and George have a thing going?	Do you and George have a thing going?	1621038	1471970729638	1471970729754	 	32
3223	33991	Do you and George have a thing going?	Do you and George have a thing going?	1621042	1471970729851	1471970730042	SHIFT	16
3223	33991	Do you and George have a thing going?	Do you and George have a thing going?	1621045	1471970729969	1471970730107	G	71
3223	33991	Do you and George have a thing going?	Do you and George have a thing going?	1621049	1471970730126	1471970730254	e	69
3223	33991	Do you and George have a thing going?	Do you and George have a thing going?	1621052	1471970730506	1471970730625	o	79
3223	33991	Do you and George have a thing going?	Do you and George have a thing going?	1621056	1471970730646	1471970730795	r	82
3223	33991	Do you and George have a thing going?	Do you and George have a thing going?	1621099	1471970730919	1471970731054	d	68
3223	33991	Do you and George have a thing going?	Do you and George have a thing going?	1621103	1471970731221	1471970731385	BKSP	8
3223	33991	Do you and George have a thing going?	Do you and George have a thing going?	1621110	1471970731290	1471970731462	g	71
3223	33991	Do you and George have a thing going?	Do you and George have a thing going?	1621120	1471970731556	1471970731672	e	69
3223	33991	Do you and George have a thing going?	Do you and George have a thing going?	1621126	1471970731730	1471970731851	 	32
3223	33991	Do you and George have a thing going?	Do you and George have a thing going?	1621132	1471970731963	1471970732080	a	65
3223	33991	Do you and George have a thing going?	Do you and George have a thing going?	1621175	1471970732226	1471970732354	BKSP	8
3223	33991	Do you and George have a thing going?	Do you and George have a thing going?	1621180	1471970732441	1471970732569	h	72
3223	33991	Do you and George have a thing going?	Do you and George have a thing going?	1621187	1471970732541	1471970732659	a	65
3223	33991	Do you and George have a thing going?	Do you and George have a thing going?	1621196	1471970732690	1471970732806	v	86
3223	33991	Do you and George have a thing going?	Do you and George have a thing going?	1621205	1471970732780	1471970732906	e	69
3223	33991	Do you and George have a thing going?	Do you and George have a thing going?	1621239	1471970732898	1471970733004	 	32
3223	33991	Do you and George have a thing going?	Do you and George have a thing going?	1621241	1471970732994	1471970733122	a	65
3223	33991	Do you and George have a thing going?	Do you and George have a thing going?	1621245	1471970733090	1471970733182	 	32
3223	33991	Do you and George have a thing going?	Do you and George have a thing going?	1621249	1471970733226	1471970733346	t	84
3223	33991	Do you and George have a thing going?	Do you and George have a thing going?	1621252	1471970733305	1471970733424	h	72
3223	33991	Do you and George have a thing going?	Do you and George have a thing going?	1621254	1471970733465	1471970733577	i	73
3223	33991	Do you and George have a thing going?	Do you and George have a thing going?	1621309	1471970733640	1471970733749	n	78
3223	33991	Do you and George have a thing going?	Do you and George have a thing going?	1621313	1471970733689	1471970733835	g	71
3223	33991	Do you and George have a thing going?	Do you and George have a thing going?	1621321	1471970733828	1471970733935	 	32
3223	33991	Do you and George have a thing going?	Do you and George have a thing going?	1621327	1471970734429	1471970734600	g	71
3223	33991	Do you and George have a thing going?	Do you and George have a thing going?	1621398	1471970734598	1471970734726	o	79
3223	33991	Do you and George have a thing going?	Do you and George have a thing going?	1621401	1471970734750	1471970734871	i	73
3223	33991	Do you and George have a thing going?	Do you and George have a thing going?	1621406	1471970734960	1471970735080	n	78
3223	33991	Do you and George have a thing going?	Do you and George have a thing going?	1621411	1471970735060	1471970735162	g	71
3223	33991	Do you and George have a thing going?	Do you and George have a thing going?	1621416	1471970735258	1471970735507	SHIFT	16
3223	33991	Do you and George have a thing going?	Do you and George have a thing going?	1621414	1471970735328	1471970735481	?	191
3223	34010	These factors dictate clear limits to the concept of safe areas.	These factors dictate clear limits to the concept of safe areas.	1621566	1471970737854	1471970738144	SHIFT	16
3223	34010	These factors dictate clear limits to the concept of safe areas.	These factors dictate clear limits to the concept of safe areas.	1621568	1471970738059	1471970738205	T	84
3223	34010	These factors dictate clear limits to the concept of safe areas.	These factors dictate clear limits to the concept of safe areas.	1621571	1471970738195	1471970738302	h	72
3223	34010	These factors dictate clear limits to the concept of safe areas.	These factors dictate clear limits to the concept of safe areas.	1621572	1471970738290	1471970738407	e	69
3223	34010	These factors dictate clear limits to the concept of safe areas.	These factors dictate clear limits to the concept of safe areas.	1621575	1471970738544	1471970738681	s	83
3223	34010	These factors dictate clear limits to the concept of safe areas.	These factors dictate clear limits to the concept of safe areas.	1621576	1471970738749	1471970738868	e	69
3223	34010	These factors dictate clear limits to the concept of safe areas.	These factors dictate clear limits to the concept of safe areas.	1621624	1471970738888	1471970739009	 	32
3223	34010	These factors dictate clear limits to the concept of safe areas.	These factors dictate clear limits to the concept of safe areas.	1621627	1471970739072	1471970739229	d	68
3223	34010	These factors dictate clear limits to the concept of safe areas.	These factors dictate clear limits to the concept of safe areas.	1621632	1471970739226	1471970739352	a	65
3223	34010	These factors dictate clear limits to the concept of safe areas.	These factors dictate clear limits to the concept of safe areas.	1621637	1471970739400	1471970739494	c	67
3223	34010	These factors dictate clear limits to the concept of safe areas.	These factors dictate clear limits to the concept of safe areas.	1621643	1471970739625	1471970739707	BKSP	8
3223	34010	These factors dictate clear limits to the concept of safe areas.	These factors dictate clear limits to the concept of safe areas.	1621649	1471970739764	1471970739841	BKSP	8
3223	34010	These factors dictate clear limits to the concept of safe areas.	These factors dictate clear limits to the concept of safe areas.	1621654	1471970739882	1471970739983	BKSP	8
3223	34010	These factors dictate clear limits to the concept of safe areas.	These factors dictate clear limits to the concept of safe areas.	1621657	1471970739990	1471970740144	f	70
3223	34010	These factors dictate clear limits to the concept of safe areas.	These factors dictate clear limits to the concept of safe areas.	1621697	1471970740153	1471970740293	a	65
3223	34010	These factors dictate clear limits to the concept of safe areas.	These factors dictate clear limits to the concept of safe areas.	1621699	1471970740341	1471970740459	c	67
3223	34010	These factors dictate clear limits to the concept of safe areas.	These factors dictate clear limits to the concept of safe areas.	1621702	1471970740708	1471970740867	r	82
3223	34010	These factors dictate clear limits to the concept of safe areas.	These factors dictate clear limits to the concept of safe areas.	1621706	1471970740865	1471970740999	o	79
3223	34010	These factors dictate clear limits to the concept of safe areas.	These factors dictate clear limits to the concept of safe areas.	1621711	1471970741013	1471970741161	s	83
3223	34010	These factors dictate clear limits to the concept of safe areas.	These factors dictate clear limits to the concept of safe areas.	1621806	1471970741219	1471970741332	 	32
3223	34010	These factors dictate clear limits to the concept of safe areas.	These factors dictate clear limits to the concept of safe areas.	1621809	1471970741683	1471970741780	BKSP	8
3223	34010	These factors dictate clear limits to the concept of safe areas.	These factors dictate clear limits to the concept of safe areas.	1621812	1471970741839	1471970741917	BKSP	8
3223	34010	These factors dictate clear limits to the concept of safe areas.	These factors dictate clear limits to the concept of safe areas.	1621815	1471970741968	1471970742057	BKSP	8
3223	34010	These factors dictate clear limits to the concept of safe areas.	These factors dictate clear limits to the concept of safe areas.	1621817	1471970742102	1471970742259	BKSP	8
3223	34010	These factors dictate clear limits to the concept of safe areas.	These factors dictate clear limits to the concept of safe areas.	1621822	1471970742189	1471970742326	t	84
3223	34010	These factors dictate clear limits to the concept of safe areas.	These factors dictate clear limits to the concept of safe areas.	1621827	1471970742335	1471970742503	o	79
3223	34010	These factors dictate clear limits to the concept of safe areas.	These factors dictate clear limits to the concept of safe areas.	1621832	1471970742466	1471970742619	s	83
3223	34010	These factors dictate clear limits to the concept of safe areas.	These factors dictate clear limits to the concept of safe areas.	1621838	1471970742652	1471970742764	 	32
3223	34010	These factors dictate clear limits to the concept of safe areas.	These factors dictate clear limits to the concept of safe areas.	1621902	1471970742914	1471970742978	BKSP	8
3223	34010	These factors dictate clear limits to the concept of safe areas.	These factors dictate clear limits to the concept of safe areas.	1621907	1471970743039	1471970743127	BKSP	8
3223	34010	These factors dictate clear limits to the concept of safe areas.	These factors dictate clear limits to the concept of safe areas.	1621911	1471970743261	1471970743440	r	82
3223	34010	These factors dictate clear limits to the concept of safe areas.	These factors dictate clear limits to the concept of safe areas.	1621916	1471970743598	1471970743762	s	83
3223	34010	These factors dictate clear limits to the concept of safe areas.	These factors dictate clear limits to the concept of safe areas.	1621920	1471970743810	1471970743941	 	32
3223	34010	These factors dictate clear limits to the concept of safe areas.	These factors dictate clear limits to the concept of safe areas.	1621923	1471970744144	1471970744256	d	68
3223	34010	These factors dictate clear limits to the concept of safe areas.	These factors dictate clear limits to the concept of safe areas.	1621927	1471970744320	1471970744492	i	73
3223	34010	These factors dictate clear limits to the concept of safe areas.	These factors dictate clear limits to the concept of safe areas.	1622022	1471970744489	1471970744626	c	67
3223	34010	These factors dictate clear limits to the concept of safe areas.	These factors dictate clear limits to the concept of safe areas.	1622026	1471970744622	1471970744757	a	65
3223	34010	These factors dictate clear limits to the concept of safe areas.	These factors dictate clear limits to the concept of safe areas.	1622033	1471970744910	1471970745057	BKSP	8
3223	34010	These factors dictate clear limits to the concept of safe areas.	These factors dictate clear limits to the concept of safe areas.	1622040	1471970744991	1471970745182	r	82
3223	34010	These factors dictate clear limits to the concept of safe areas.	These factors dictate clear limits to the concept of safe areas.	1622046	1471970745180	1471970745346	a	65
3223	34010	These factors dictate clear limits to the concept of safe areas.	These factors dictate clear limits to the concept of safe areas.	1622052	1471970745470	1471970745576	BKSP	8
3223	34010	These factors dictate clear limits to the concept of safe areas.	These factors dictate clear limits to the concept of safe areas.	1622058	1471970745626	1471970745706	BKSP	8
3223	34010	These factors dictate clear limits to the concept of safe areas.	These factors dictate clear limits to the concept of safe areas.	1622063	1471970745771	1471970745820	BKSP	8
3223	34010	These factors dictate clear limits to the concept of safe areas.	These factors dictate clear limits to the concept of safe areas.	1622067	1471970745851	1471970746000	t	84
3223	34010	These factors dictate clear limits to the concept of safe areas.	These factors dictate clear limits to the concept of safe areas.	1622070	1471970746411	1471970746556	BKSP	8
3223	34010	These factors dictate clear limits to the concept of safe areas.	These factors dictate clear limits to the concept of safe areas.	1622093	1471970746553	1471970746678	c	67
3223	34010	These factors dictate clear limits to the concept of safe areas.	These factors dictate clear limits to the concept of safe areas.	1622099	1471970746797	1471970746900	t	84
3223	34010	These factors dictate clear limits to the concept of safe areas.	These factors dictate clear limits to the concept of safe areas.	1622102	1471970746917	1471970747083	a	65
3223	34010	These factors dictate clear limits to the concept of safe areas.	These factors dictate clear limits to the concept of safe areas.	1622108	1471970747109	1471970747219	t	84
3223	34010	These factors dictate clear limits to the concept of safe areas.	These factors dictate clear limits to the concept of safe areas.	1622116	1471970747226	1471970747376	e	69
3223	34010	These factors dictate clear limits to the concept of safe areas.	These factors dictate clear limits to the concept of safe areas.	1622122	1471970747383	1471970747507	 	32
3223	34010	These factors dictate clear limits to the concept of safe areas.	These factors dictate clear limits to the concept of safe areas.	1622180	1471970747653	1471970747792	c	67
3223	34010	These factors dictate clear limits to the concept of safe areas.	These factors dictate clear limits to the concept of safe areas.	1622183	1471970747754	1471970747909	l	76
3223	34010	These factors dictate clear limits to the concept of safe areas.	These factors dictate clear limits to the concept of safe areas.	1622185	1471970747852	1471970747978	e	69
3223	34010	These factors dictate clear limits to the concept of safe areas.	These factors dictate clear limits to the concept of safe areas.	1622188	1471970747994	1471970748115	a	65
3223	34010	These factors dictate clear limits to the concept of safe areas.	These factors dictate clear limits to the concept of safe areas.	1622191	1471970748150	1471970748316	r	82
3223	34010	These factors dictate clear limits to the concept of safe areas.	These factors dictate clear limits to the concept of safe areas.	1622241	1471970748342	1471970748470	 	32
3223	34010	These factors dictate clear limits to the concept of safe areas.	These factors dictate clear limits to the concept of safe areas.	1622242	1471970748702	1471970748833	l	76
3223	34010	These factors dictate clear limits to the concept of safe areas.	These factors dictate clear limits to the concept of safe areas.	1622244	1471970748908	1471970749015	i	73
3223	34010	These factors dictate clear limits to the concept of safe areas.	These factors dictate clear limits to the concept of safe areas.	1622247	1471970749101	1471970749222	m	77
3223	34010	These factors dictate clear limits to the concept of safe areas.	These factors dictate clear limits to the concept of safe areas.	1622254	1471970749263	1471970749382	i	73
3223	34010	These factors dictate clear limits to the concept of safe areas.	These factors dictate clear limits to the concept of safe areas.	1622297	1471970749391	1471970749519	t	84
3223	34010	These factors dictate clear limits to the concept of safe areas.	These factors dictate clear limits to the concept of safe areas.	1622299	1471970749680	1471970749835	s	83
3223	34010	These factors dictate clear limits to the concept of safe areas.	These factors dictate clear limits to the concept of safe areas.	1622301	1471970749918	1471970750030	 	32
3223	34010	These factors dictate clear limits to the concept of safe areas.	These factors dictate clear limits to the concept of safe areas.	1622309	1471970750153	1471970750303	t	84
3223	34010	These factors dictate clear limits to the concept of safe areas.	These factors dictate clear limits to the concept of safe areas.	1622343	1471970750270	1471970750404	o	79
3223	34010	These factors dictate clear limits to the concept of safe areas.	These factors dictate clear limits to the concept of safe areas.	1622346	1471970750422	1471970750494	 	32
3223	34010	These factors dictate clear limits to the concept of safe areas.	These factors dictate clear limits to the concept of safe areas.	1622348	1471970750546	1471970750677	t	84
3223	34010	These factors dictate clear limits to the concept of safe areas.	These factors dictate clear limits to the concept of safe areas.	1622350	1471970750614	1471970750760	h	72
3223	34010	These factors dictate clear limits to the concept of safe areas.	These factors dictate clear limits to the concept of safe areas.	1622351	1471970750758	1471970750875	e	69
3223	34010	These factors dictate clear limits to the concept of safe areas.	These factors dictate clear limits to the concept of safe areas.	1622352	1471970750880	1471970750945	 	32
3223	34010	These factors dictate clear limits to the concept of safe areas.	These factors dictate clear limits to the concept of safe areas.	1622384	1471970751102	1471970751218	c	67
3223	34010	These factors dictate clear limits to the concept of safe areas.	These factors dictate clear limits to the concept of safe areas.	1622387	1471970751196	1471970751333	o	79
3223	34010	These factors dictate clear limits to the concept of safe areas.	These factors dictate clear limits to the concept of safe areas.	1622391	1471970751377	1471970751501	n	78
3223	34010	These factors dictate clear limits to the concept of safe areas.	These factors dictate clear limits to the concept of safe areas.	1622395	1471970751733	1471970751838	c	67
3223	34010	These factors dictate clear limits to the concept of safe areas.	These factors dictate clear limits to the concept of safe areas.	1622399	1471970751900	1471970752038	e	69
3223	34010	These factors dictate clear limits to the concept of safe areas.	These factors dictate clear limits to the concept of safe areas.	1622445	1471970752026	1471970752188	p	80
3223	34010	These factors dictate clear limits to the concept of safe areas.	These factors dictate clear limits to the concept of safe areas.	1622447	1471970752165	1471970752311	t	84
3223	34010	These factors dictate clear limits to the concept of safe areas.	These factors dictate clear limits to the concept of safe areas.	1622450	1471970752370	1471970752486	 	32
3223	34010	These factors dictate clear limits to the concept of safe areas.	These factors dictate clear limits to the concept of safe areas.	1622452	1471970752575	1471970752710	o	79
3223	34010	These factors dictate clear limits to the concept of safe areas.	These factors dictate clear limits to the concept of safe areas.	1622454	1471970752675	1471970752804	f	70
3223	34010	These factors dictate clear limits to the concept of safe areas.	These factors dictate clear limits to the concept of safe areas.	1622455	1471970752815	1471970752920	 	32
3223	34010	These factors dictate clear limits to the concept of safe areas.	These factors dictate clear limits to the concept of safe areas.	1622478	1471970753009	1471970753145	s	83
3223	34010	These factors dictate clear limits to the concept of safe areas.	These factors dictate clear limits to the concept of safe areas.	1622481	1471970753170	1471970753324	a	65
3223	34010	These factors dictate clear limits to the concept of safe areas.	These factors dictate clear limits to the concept of safe areas.	1622484	1471970753356	1471970753512	f	70
3223	34010	These factors dictate clear limits to the concept of safe areas.	These factors dictate clear limits to the concept of safe areas.	1622485	1471970753509	1471970753659	e	69
3223	34010	These factors dictate clear limits to the concept of safe areas.	These factors dictate clear limits to the concept of safe areas.	1622517	1471970753625	1471970753770	 	32
3223	34010	These factors dictate clear limits to the concept of safe areas.	These factors dictate clear limits to the concept of safe areas.	1622523	1471970753751	1471970753882	a	65
3223	34010	These factors dictate clear limits to the concept of safe areas.	These factors dictate clear limits to the concept of safe areas.	1622528	1471970753935	1471970754087	r	82
3223	34010	These factors dictate clear limits to the concept of safe areas.	These factors dictate clear limits to the concept of safe areas.	1622533	1471970754078	1471970754211	e	69
3223	34010	These factors dictate clear limits to the concept of safe areas.	These factors dictate clear limits to the concept of safe areas.	1622538	1471970754224	1471970754373	a	65
3223	34010	These factors dictate clear limits to the concept of safe areas.	These factors dictate clear limits to the concept of safe areas.	1622543	1471970754427	1471970754520	d	68
3223	34010	These factors dictate clear limits to the concept of safe areas.	These factors dictate clear limits to the concept of safe areas.	1622617	1471970754700	1471970754839	BKSP	8
3223	34010	These factors dictate clear limits to the concept of safe areas.	These factors dictate clear limits to the concept of safe areas.	1622623	1471970754872	1471970755096	a	83
3223	34010	These factors dictate clear limits to the concept of safe areas.	These factors dictate clear limits to the concept of safe areas.	1622632	1471970755368	1471970755416	BKSP	8
3223	34010	These factors dictate clear limits to the concept of safe areas.	These factors dictate clear limits to the concept of safe areas.	1622637	1471970755814	1471970756000	.	190
3223	34036	Paris had ruled out participation in such an invasion force.	Paris had ruled out participation in such an invasion force.	1622786	1471970757914	1471970758215	SHIFT	16
3223	34036	Paris had ruled out participation in such an invasion force.	Paris had ruled out participation in such an invasion force.	1622791	1471970758149	1471970758314	P	80
3223	34036	Paris had ruled out participation in such an invasion force.	Paris had ruled out participation in such an invasion force.	1622797	1471970758343	1471970758474	a	65
3223	34036	Paris had ruled out participation in such an invasion force.	Paris had ruled out participation in such an invasion force.	1622803	1471970758569	1471970758731	r	82
3223	34036	Paris had ruled out participation in such an invasion force.	Paris had ruled out participation in such an invasion force.	1622810	1471970758797	1471970758938	i	73
3223	34036	Paris had ruled out participation in such an invasion force.	Paris had ruled out participation in such an invasion force.	1622813	1471970758947	1471970759071	s	83
3223	34036	Paris had ruled out participation in such an invasion force.	Paris had ruled out participation in such an invasion force.	1622846	1471970759094	1471970759218	 	32
3223	34036	Paris had ruled out participation in such an invasion force.	Paris had ruled out participation in such an invasion force.	1622850	1471970759242	1471970759328	a	65
3223	34036	Paris had ruled out participation in such an invasion force.	Paris had ruled out participation in such an invasion force.	1622856	1471970759476	1471970759591	BKSP	8
3223	34036	Paris had ruled out participation in such an invasion force.	Paris had ruled out participation in such an invasion force.	1622860	1471970759729	1471970759836	h	72
3223	34036	Paris had ruled out participation in such an invasion force.	Paris had ruled out participation in such an invasion force.	1622868	1471970759824	1471970759951	a	65
3223	34036	Paris had ruled out participation in such an invasion force.	Paris had ruled out participation in such an invasion force.	1622874	1471970759958	1471970760089	d	68
3223	34036	Paris had ruled out participation in such an invasion force.	Paris had ruled out participation in such an invasion force.	1622912	1471970760064	1471970760190	 	32
3223	34036	Paris had ruled out participation in such an invasion force.	Paris had ruled out participation in such an invasion force.	1622915	1471970760255	1471970760396	r	82
3223	34036	Paris had ruled out participation in such an invasion force.	Paris had ruled out participation in such an invasion force.	1622920	1471970760389	1471970760516	u	85
3223	34036	Paris had ruled out participation in such an invasion force.	Paris had ruled out participation in such an invasion force.	1622926	1471970760648	1471970760795	l	76
3223	34036	Paris had ruled out participation in such an invasion force.	Paris had ruled out participation in such an invasion force.	1622931	1471970760780	1471970760876	e	69
3223	34036	Paris had ruled out participation in such an invasion force.	Paris had ruled out participation in such an invasion force.	1622936	1471970760952	1471970761081	d	68
3223	34036	Paris had ruled out participation in such an invasion force.	Paris had ruled out participation in such an invasion force.	1622981	1471970761069	1471970761182	 	32
3223	34036	Paris had ruled out participation in such an invasion force.	Paris had ruled out participation in such an invasion force.	1622984	1471970761286	1471970761433	o	79
3223	34036	Paris had ruled out participation in such an invasion force.	Paris had ruled out participation in such an invasion force.	1622990	1471970761489	1471970761614	u	85
3223	34036	Paris had ruled out participation in such an invasion force.	Paris had ruled out participation in such an invasion force.	1622996	1471970761593	1471970761719	t	84
3223	34036	Paris had ruled out participation in such an invasion force.	Paris had ruled out participation in such an invasion force.	1623002	1471970761728	1471970761827	 	32
3223	34036	Paris had ruled out participation in such an invasion force.	Paris had ruled out participation in such an invasion force.	1623007	1471970761949	1471970762094	p	80
3223	34036	Paris had ruled out participation in such an invasion force.	Paris had ruled out participation in such an invasion force.	1623087	1471970762051	1471970762183	a	65
3223	34036	Paris had ruled out participation in such an invasion force.	Paris had ruled out participation in such an invasion force.	1623092	1471970762224	1471970762379	r	82
3223	34036	Paris had ruled out participation in such an invasion force.	Paris had ruled out participation in such an invasion force.	1623097	1471970762506	1471970762629	t	84
3223	34036	Paris had ruled out participation in such an invasion force.	Paris had ruled out participation in such an invasion force.	1623100	1471970762943	1471970763111	i	73
3223	34036	Paris had ruled out participation in such an invasion force.	Paris had ruled out participation in such an invasion force.	1623102	1471970763167	1471970763314	c	67
3223	34036	Paris had ruled out participation in such an invasion force.	Paris had ruled out participation in such an invasion force.	1623103	1471970763435	1471970763567	i	73
3223	34036	Paris had ruled out participation in such an invasion force.	Paris had ruled out participation in such an invasion force.	1623138	1471970763662	1471970763812	p	80
3223	34036	Paris had ruled out participation in such an invasion force.	Paris had ruled out participation in such an invasion force.	1623140	1471970763841	1471970763959	a	65
3223	34036	Paris had ruled out participation in such an invasion force.	Paris had ruled out participation in such an invasion force.	1623143	1471970764090	1471970764186	r	82
3223	34036	Paris had ruled out participation in such an invasion force.	Paris had ruled out participation in such an invasion force.	1623146	1471970764148	1471970764230	i	73
3223	34036	Paris had ruled out participation in such an invasion force.	Paris had ruled out participation in such an invasion force.	1623151	1471970764466	1471970764539	BKSP	8
3223	34036	Paris had ruled out participation in such an invasion force.	Paris had ruled out participation in such an invasion force.	1623154	1471970764599	1471970764699	BKSP	8
3223	34036	Paris had ruled out participation in such an invasion force.	Paris had ruled out participation in such an invasion force.	1623200	1471970764681	1471970764798	t	84
3223	34036	Paris had ruled out participation in such an invasion force.	Paris had ruled out participation in such an invasion force.	1623205	1471970764826	1471970764947	i	73
3223	34036	Paris had ruled out participation in such an invasion force.	Paris had ruled out participation in such an invasion force.	1623211	1471970765263	1471970765408	o	79
3223	34036	Paris had ruled out participation in such an invasion force.	Paris had ruled out participation in such an invasion force.	1623215	1471970765531	1471970765663	n	78
3223	34036	Paris had ruled out participation in such an invasion force.	Paris had ruled out participation in such an invasion force.	1623218	1471970765734	1471970765851	 	32
3223	34036	Paris had ruled out participation in such an invasion force.	Paris had ruled out participation in such an invasion force.	1623221	1471970765895	1471970766025	i	73
3223	34036	Paris had ruled out participation in such an invasion force.	Paris had ruled out participation in such an invasion force.	1623234	1471970766082	1471970766190	n	78
3223	34036	Paris had ruled out participation in such an invasion force.	Paris had ruled out participation in such an invasion force.	1623237	1471970766134	1471970766259	 	32
3223	34036	Paris had ruled out participation in such an invasion force.	Paris had ruled out participation in such an invasion force.	1623241	1471970766288	1471970766407	s	83
3223	34036	Paris had ruled out participation in such an invasion force.	Paris had ruled out participation in such an invasion force.	1623248	1471970766360	1471970766503	u	85
3223	34036	Paris had ruled out participation in such an invasion force.	Paris had ruled out participation in such an invasion force.	1623280	1471970766498	1471970766640	c	67
3223	34036	Paris had ruled out participation in such an invasion force.	Paris had ruled out participation in such an invasion force.	1623282	1471970766591	1471970766724	h	72
3223	34036	Paris had ruled out participation in such an invasion force.	Paris had ruled out participation in such an invasion force.	1623284	1471970766803	1471970766936	 	32
3223	34036	Paris had ruled out participation in such an invasion force.	Paris had ruled out participation in such an invasion force.	1623286	1471970766986	1471970767136	a	65
3223	34036	Paris had ruled out participation in such an invasion force.	Paris had ruled out participation in such an invasion force.	1623288	1471970767161	1471970767300	n	78
3223	34036	Paris had ruled out participation in such an invasion force.	Paris had ruled out participation in such an invasion force.	1623291	1471970767318	1471970767443	 	32
3223	34036	Paris had ruled out participation in such an invasion force.	Paris had ruled out participation in such an invasion force.	1623366	1471970767475	1471970767608	i	73
3223	34036	Paris had ruled out participation in such an invasion force.	Paris had ruled out participation in such an invasion force.	1623367	1471970767650	1471970767792	n	78
3223	34036	Paris had ruled out participation in such an invasion force.	Paris had ruled out participation in such an invasion force.	1623369	1471970768142	1471970768178	BKSP	8
3223	34036	Paris had ruled out participation in such an invasion force.	Paris had ruled out participation in such an invasion force.	1623372	1471970768175	1471970768305	v	86
3223	34036	Paris had ruled out participation in such an invasion force.	Paris had ruled out participation in such an invasion force.	1623375	1471970768794	1471970768898	BKSP	8
3223	34036	Paris had ruled out participation in such an invasion force.	Paris had ruled out participation in such an invasion force.	1623378	1471970769004	1471970769124	n	78
3223	34036	Paris had ruled out participation in such an invasion force.	Paris had ruled out participation in such an invasion force.	1623381	1471970769135	1471970769212	v	86
3223	34036	Paris had ruled out participation in such an invasion force.	Paris had ruled out participation in such an invasion force.	1623420	1471970769303	1471970769461	a	65
3223	34036	Paris had ruled out participation in such an invasion force.	Paris had ruled out participation in such an invasion force.	1623423	1471970769539	1471970769674	s	83
3223	34036	Paris had ruled out participation in such an invasion force.	Paris had ruled out participation in such an invasion force.	1623428	1471970769683	1471970769793	i	73
3223	34036	Paris had ruled out participation in such an invasion force.	Paris had ruled out participation in such an invasion force.	1623432	1471970769874	1471970769987	o	79
3223	34036	Paris had ruled out participation in such an invasion force.	Paris had ruled out participation in such an invasion force.	1623435	1471970770079	1471970770204	n	78
3223	34036	Paris had ruled out participation in such an invasion force.	Paris had ruled out participation in such an invasion force.	1623471	1471970770158	1471970770272	 	32
3223	34036	Paris had ruled out participation in such an invasion force.	Paris had ruled out participation in such an invasion force.	1623472	1471970770357	1471970770475	f	70
3223	34036	Paris had ruled out participation in such an invasion force.	Paris had ruled out participation in such an invasion force.	1623475	1471970770445	1471970770599	o	79
3223	34036	Paris had ruled out participation in such an invasion force.	Paris had ruled out participation in such an invasion force.	1623480	1471970770582	1471970770717	r	82
3223	34036	Paris had ruled out participation in such an invasion force.	Paris had ruled out participation in such an invasion force.	1623484	1471970770747	1471970770890	e	69
3223	34036	Paris had ruled out participation in such an invasion force.	Paris had ruled out participation in such an invasion force.	1623489	1471970771008	1471970771166	BKSP	8
3223	34036	Paris had ruled out participation in such an invasion force.	Paris had ruled out participation in such an invasion force.	1623526	1471970771123	1471970771241	c	67
3223	34036	Paris had ruled out participation in such an invasion force.	Paris had ruled out participation in such an invasion force.	1623530	1471970771287	1471970771409	e	69
3223	34036	Paris had ruled out participation in such an invasion force.	Paris had ruled out participation in such an invasion force.	1623536	1471970771511	1471970771647	.	190
3223	34055	He is suffering from a strained left shoulder.	He is suffering from a strained left shoulder.	1623687	1471970773974	1471970774171	SHIFT	16
3223	34055	He is suffering from a strained left shoulder.	He is suffering from a strained left shoulder.	1623690	1471970774129	1471970774245	H	72
3223	34055	He is suffering from a strained left shoulder.	He is suffering from a strained left shoulder.	1623694	1471970774268	1471970774393	e	69
3223	34055	He is suffering from a strained left shoulder.	He is suffering from a strained left shoulder.	1623698	1471970774368	1471970774477	 	32
3223	34055	He is suffering from a strained left shoulder.	He is suffering from a strained left shoulder.	1623702	1471970774547	1471970774663	i	73
3223	34055	He is suffering from a strained left shoulder.	He is suffering from a strained left shoulder.	1623753	1471970774638	1471970774782	s	83
3223	34055	He is suffering from a strained left shoulder.	He is suffering from a strained left shoulder.	1623758	1471970774772	1471970774883	 	32
3223	34055	He is suffering from a strained left shoulder.	He is suffering from a strained left shoulder.	1623761	1471970774918	1471970775059	s	83
3223	34055	He is suffering from a strained left shoulder.	He is suffering from a strained left shoulder.	1623764	1471970775032	1471970775164	u	85
3223	34055	He is suffering from a strained left shoulder.	He is suffering from a strained left shoulder.	1623767	1471970775324	1471970775412	f	70
3223	34055	He is suffering from a strained left shoulder.	He is suffering from a strained left shoulder.	1623769	1471970775581	1471970775740	e	69
3223	34055	He is suffering from a strained left shoulder.	He is suffering from a strained left shoulder.	1623851	1471970775850	1471970776000	r	82
3223	34055	He is suffering from a strained left shoulder.	He is suffering from a strained left shoulder.	1623856	1471970776055	1471970776200	i	73
3223	34055	He is suffering from a strained left shoulder.	He is suffering from a strained left shoulder.	1623860	1471970776268	1471970776386	n	78
3223	34055	He is suffering from a strained left shoulder.	He is suffering from a strained left shoulder.	1623861	1471970776384	1471970776491	g	71
3223	34055	He is suffering from a strained left shoulder.	He is suffering from a strained left shoulder.	1623863	1471970776641	1471970776706	BKSP	8
3223	34055	He is suffering from a strained left shoulder.	He is suffering from a strained left shoulder.	1623865	1471970776778	1471970776848	BKSP	8
3223	34055	He is suffering from a strained left shoulder.	He is suffering from a strained left shoulder.	1623868	1471970776906	1471970776980	BKSP	8
3223	34055	He is suffering from a strained left shoulder.	He is suffering from a strained left shoulder.	1623873	1471970777038	1471970777121	BKSP	8
3223	34055	He is suffering from a strained left shoulder.	He is suffering from a strained left shoulder.	1623878	1471970777179	1471970777295	BKSP	8
3223	34055	He is suffering from a strained left shoulder.	He is suffering from a strained left shoulder.	1623883	1471970777356	1471970777470	f	70
3223	34055	He is suffering from a strained left shoulder.	He is suffering from a strained left shoulder.	1623899	1471970777574	1471970777693	e	69
3223	34055	He is suffering from a strained left shoulder.	He is suffering from a strained left shoulder.	1623903	1471970777706	1471970777824	r	82
3223	34055	He is suffering from a strained left shoulder.	He is suffering from a strained left shoulder.	1623907	1471970777814	1471970777962	i	73
3223	34055	He is suffering from a strained left shoulder.	He is suffering from a strained left shoulder.	1623910	1471970778057	1471970778197	n	78
3223	34055	He is suffering from a strained left shoulder.	He is suffering from a strained left shoulder.	1623981	1471970778176	1471970778317	g	71
3223	34055	He is suffering from a strained left shoulder.	He is suffering from a strained left shoulder.	1623985	1471970778313	1471970778430	 	32
3223	34055	He is suffering from a strained left shoulder.	He is suffering from a strained left shoulder.	1623990	1471970778514	1471970778639	f	70
3223	34055	He is suffering from a strained left shoulder.	He is suffering from a strained left shoulder.	1623996	1471970778730	1471970778928	r	82
3223	34055	He is suffering from a strained left shoulder.	He is suffering from a strained left shoulder.	1624000	1471970778884	1471970779005	o	79
3223	34055	He is suffering from a strained left shoulder.	He is suffering from a strained left shoulder.	1624007	1471970779099	1471970779238	m	77
3223	34055	He is suffering from a strained left shoulder.	He is suffering from a strained left shoulder.	1624033	1471970779171	1471970779302	 	32
3223	34055	He is suffering from a strained left shoulder.	He is suffering from a strained left shoulder.	1624036	1471970779300	1471970779456	a	65
3223	34055	He is suffering from a strained left shoulder.	He is suffering from a strained left shoulder.	1624041	1471970779438	1471970779558	 	32
3223	34055	He is suffering from a strained left shoulder.	He is suffering from a strained left shoulder.	1624044	1471970779605	1471970779749	s	83
3223	34055	He is suffering from a strained left shoulder.	He is suffering from a strained left shoulder.	1624047	1471970779813	1471970779952	t	84
3223	34055	He is suffering from a strained left shoulder.	He is suffering from a strained left shoulder.	1624051	1471970779989	1471970780146	a	65
3223	34055	He is suffering from a strained left shoulder.	He is suffering from a strained left shoulder.	1624094	1471970780851	1471970781003	BKSP	8
3223	34055	He is suffering from a strained left shoulder.	He is suffering from a strained left shoulder.	1624096	1471970780963	1471970781102	r	82
3223	34055	He is suffering from a strained left shoulder.	He is suffering from a strained left shoulder.	1624097	1471970781092	1471970781232	a	65
3223	34055	He is suffering from a strained left shoulder.	He is suffering from a strained left shoulder.	1624098	1471970781217	1471970781348	i	73
3223	34055	He is suffering from a strained left shoulder.	He is suffering from a strained left shoulder.	1624099	1471970781472	1471970781616	n	78
3223	34055	He is suffering from a strained left shoulder.	He is suffering from a strained left shoulder.	1624100	1471970781642	1471970781778	e	69
3223	34055	He is suffering from a strained left shoulder.	He is suffering from a strained left shoulder.	1624123	1471970781820	1471970781965	d	68
3223	34055	He is suffering from a strained left shoulder.	He is suffering from a strained left shoulder.	1624126	1471970781899	1471970781999	 	32
3223	34055	He is suffering from a strained left shoulder.	He is suffering from a strained left shoulder.	1624128	1471970782091	1471970782261	l	76
3223	34055	He is suffering from a strained left shoulder.	He is suffering from a strained left shoulder.	1624129	1471970782250	1471970782388	e	69
3223	34055	He is suffering from a strained left shoulder.	He is suffering from a strained left shoulder.	1624130	1471970782425	1471970782549	f	70
3223	34055	He is suffering from a strained left shoulder.	He is suffering from a strained left shoulder.	1624156	1471970782621	1471970782744	t	84
3223	34055	He is suffering from a strained left shoulder.	He is suffering from a strained left shoulder.	1624157	1471970782730	1471970782863	 	32
3223	34055	He is suffering from a strained left shoulder.	He is suffering from a strained left shoulder.	1624158	1471970782861	1471970782996	s	83
3223	34055	He is suffering from a strained left shoulder.	He is suffering from a strained left shoulder.	1624159	1471970783075	1471970783191	h	72
3223	34055	He is suffering from a strained left shoulder.	He is suffering from a strained left shoulder.	1624161	1471970783263	1471970783390	o	79
3223	34055	He is suffering from a strained left shoulder.	He is suffering from a strained left shoulder.	1624194	1471970783414	1471970783538	u	85
3223	34055	He is suffering from a strained left shoulder.	He is suffering from a strained left shoulder.	1624196	1471970783646	1471970783788	l	76
3223	34055	He is suffering from a strained left shoulder.	He is suffering from a strained left shoulder.	1624198	1471970783776	1471970783877	d	68
3223	34055	He is suffering from a strained left shoulder.	He is suffering from a strained left shoulder.	1624202	1471970783950	1471970784086	e	69
3223	34055	He is suffering from a strained left shoulder.	He is suffering from a strained left shoulder.	1624206	1471970784090	1471970784232	r	82
3223	34055	He is suffering from a strained left shoulder.	He is suffering from a strained left shoulder.	1624221	1471970784323	1471970784537	.	190
3223	34068	Apparently, BP is using the correct pricing.	Apparently, BP is using the correct pricing.	1624396	1471970786331	1471970786647	SHIFT	16
3223	34068	Apparently, BP is using the correct pricing.	Apparently, BP is using the correct pricing.	1624399	1471970786644	1471970786747	A	65
3223	34068	Apparently, BP is using the correct pricing.	Apparently, BP is using the correct pricing.	1624402	1471970786807	1471970786916	p	80
3223	34068	Apparently, BP is using the correct pricing.	Apparently, BP is using the correct pricing.	1624408	1471970786977	1471970787091	p	80
3223	34068	Apparently, BP is using the correct pricing.	Apparently, BP is using the correct pricing.	1624415	1471970787119	1471970787226	e	69
3223	34068	Apparently, BP is using the correct pricing.	Apparently, BP is using the correct pricing.	1624420	1471970787757	1471970787908	BKSP	8
3223	34068	Apparently, BP is using the correct pricing.	Apparently, BP is using the correct pricing.	1624456	1471970787837	1471970787983	a	65
3223	34068	Apparently, BP is using the correct pricing.	Apparently, BP is using the correct pricing.	1624461	1471970788031	1471970788169	r	82
3223	34068	Apparently, BP is using the correct pricing.	Apparently, BP is using the correct pricing.	1624468	1471970788318	1471970788464	e	69
3223	34068	Apparently, BP is using the correct pricing.	Apparently, BP is using the correct pricing.	1624479	1471970788456	1471970788588	n	78
3223	34068	Apparently, BP is using the correct pricing.	Apparently, BP is using the correct pricing.	1624487	1471970788631	1471970788769	t	84
3223	34068	Apparently, BP is using the correct pricing.	Apparently, BP is using the correct pricing.	1624492	1471970788837	1471970788995	l	76
3223	34068	Apparently, BP is using the correct pricing.	Apparently, BP is using the correct pricing.	1624614	1471970789059	1471970789216	y	89
3223	34068	Apparently, BP is using the correct pricing.	Apparently, BP is using the correct pricing.	1624617	1471970789816	1471970789984	,	188
3223	34068	Apparently, BP is using the correct pricing.	Apparently, BP is using the correct pricing.	1624619	1471970790041	1471970790183	 	32
3223	34068	Apparently, BP is using the correct pricing.	Apparently, BP is using the correct pricing.	1624743	1471970790337	1471970791268	SHIFT	16
3223	34068	Apparently, BP is using the correct pricing.	Apparently, BP is using the correct pricing.	1624622	1471970790674	1471970790820	B	66
3223	34068	Apparently, BP is using the correct pricing.	Apparently, BP is using the correct pricing.	1624624	1471970790915	1471970791092	P	80
3223	34068	Apparently, BP is using the correct pricing.	Apparently, BP is using the correct pricing.	1624749	1471970791410	1471970791535	 	32
3223	34068	Apparently, BP is using the correct pricing.	Apparently, BP is using the correct pricing.	1624752	1471970791990	1471970792123	i	73
3223	34068	Apparently, BP is using the correct pricing.	Apparently, BP is using the correct pricing.	1624754	1471970792416	1471970792564	s	83
3223	34068	Apparently, BP is using the correct pricing.	Apparently, BP is using the correct pricing.	1624755	1471970792614	1471970792800	 	32
3223	34068	Apparently, BP is using the correct pricing.	Apparently, BP is using the correct pricing.	1624756	1471970792864	1471970793003	u	85
3223	34068	Apparently, BP is using the correct pricing.	Apparently, BP is using the correct pricing.	1624764	1471970793011	1471970793153	s	83
3223	34068	Apparently, BP is using the correct pricing.	Apparently, BP is using the correct pricing.	1624767	1471970793128	1471970793250	i	73
3223	34068	Apparently, BP is using the correct pricing.	Apparently, BP is using the correct pricing.	1624771	1471970793317	1471970793434	n	78
3223	34068	Apparently, BP is using the correct pricing.	Apparently, BP is using the correct pricing.	1624776	1471970793413	1471970793546	g	71
3223	34068	Apparently, BP is using the correct pricing.	Apparently, BP is using the correct pricing.	1624813	1471970793540	1471970793654	 	32
3223	34068	Apparently, BP is using the correct pricing.	Apparently, BP is using the correct pricing.	1624814	1471970793651	1471970793781	t	84
3223	34068	Apparently, BP is using the correct pricing.	Apparently, BP is using the correct pricing.	1624817	1471970793764	1471970793864	h	72
3223	34068	Apparently, BP is using the correct pricing.	Apparently, BP is using the correct pricing.	1624822	1471970793827	1471970793970	e	69
3223	34068	Apparently, BP is using the correct pricing.	Apparently, BP is using the correct pricing.	1624825	1471970793998	1471970794102	 	32
3223	34068	Apparently, BP is using the correct pricing.	Apparently, BP is using the correct pricing.	1624828	1471970794156	1471970794267	c	67
3223	34068	Apparently, BP is using the correct pricing.	Apparently, BP is using the correct pricing.	1624861	1471970794285	1471970794426	o	79
3223	34068	Apparently, BP is using the correct pricing.	Apparently, BP is using the correct pricing.	1624864	1471970794421	1471970794522	r	82
3223	34068	Apparently, BP is using the correct pricing.	Apparently, BP is using the correct pricing.	1624870	1471970794606	1471970794714	r	82
3223	34068	Apparently, BP is using the correct pricing.	Apparently, BP is using the correct pricing.	1624874	1471970794799	1471970794938	e	69
3223	34068	Apparently, BP is using the correct pricing.	Apparently, BP is using the correct pricing.	1624879	1471970795001	1471970795143	c	67
3223	34068	Apparently, BP is using the correct pricing.	Apparently, BP is using the correct pricing.	1624968	1471970795248	1471970795378	t	84
3223	34068	Apparently, BP is using the correct pricing.	Apparently, BP is using the correct pricing.	1624971	1471970795420	1471970795535	i	73
3223	34068	Apparently, BP is using the correct pricing.	Apparently, BP is using the correct pricing.	1624975	1471970796056	1471970796212	BKSP	8
3223	34068	Apparently, BP is using the correct pricing.	Apparently, BP is using the correct pricing.	1624979	1471970796384	1471970796517	 	32
3223	34068	Apparently, BP is using the correct pricing.	Apparently, BP is using the correct pricing.	1624982	1471970796620	1471970796764	p	80
3223	34068	Apparently, BP is using the correct pricing.	Apparently, BP is using the correct pricing.	1624984	1471970796904	1471970797053	BKSP	8
3223	34068	Apparently, BP is using the correct pricing.	Apparently, BP is using the correct pricing.	1624986	1471970797014	1471970797187	SHIFT	16
3223	34068	Apparently, BP is using the correct pricing.	Apparently, BP is using the correct pricing.	1624990	1471970797426	1471970797580	p	80
3223	34068	Apparently, BP is using the correct pricing.	Apparently, BP is using the correct pricing.	1625013	1471970797574	1471970797706	r	82
3223	34068	Apparently, BP is using the correct pricing.	Apparently, BP is using the correct pricing.	1625018	1471970797745	1471970797915	i	73
3223	34068	Apparently, BP is using the correct pricing.	Apparently, BP is using the correct pricing.	1625022	1471970798007	1471970798157	c	67
3223	34068	Apparently, BP is using the correct pricing.	Apparently, BP is using the correct pricing.	1625026	1471970798140	1471970798273	i	73
3223	34068	Apparently, BP is using the correct pricing.	Apparently, BP is using the correct pricing.	1625031	1471970798327	1471970798448	n	78
3223	34068	Apparently, BP is using the correct pricing.	Apparently, BP is using the correct pricing.	1625085	1471970798384	1471970798527	g	71
3223	34068	Apparently, BP is using the correct pricing.	Apparently, BP is using the correct pricing.	1625090	1471970799358	1471970799524	.	190
3223	34083	I left a message.	I left a message.	1625174	1471970801384	1471970801578	SHIFT	16
3223	34083	I left a message.	I left a message.	1625176	1471970801525	1471970801668	I	73
3223	34083	I left a message.	I left a message.	1625179	1471970801660	1471970801783	 	32
3223	34083	I left a message.	I left a message.	1625182	1471970801812	1471970801934	l	76
3223	34083	I left a message.	I left a message.	1625188	1471970801955	1471970802089	e	69
3223	34083	I left a message.	I left a message.	1625192	1471970802145	1471970802240	f	70
3223	34083	I left a message.	I left a message.	1625227	1471970802312	1471970802438	t	84
3223	34083	I left a message.	I left a message.	1625230	1471970802519	1471970802640	 	32
3223	34083	I left a message.	I left a message.	1625233	1471970802616	1471970802751	a	65
3223	34083	I left a message.	I left a message.	1625235	1471970802756	1471970802870	 	32
3223	34083	I left a message.	I left a message.	1625236	1471970802998	1471970803122	m	77
3223	34083	I left a message.	I left a message.	1625262	1471970803072	1471970803182	e	69
3223	34083	I left a message.	I left a message.	1625267	1471970803267	1471970803407	s	83
3223	34083	I left a message.	I left a message.	1625271	1471970803448	1471970803534	s	83
3223	34083	I left a message.	I left a message.	1625275	1471970803578	1471970803718	a	65
3223	34083	I left a message.	I left a message.	1625278	1471970803715	1471970803863	g	71
3223	34083	I left a message.	I left a message.	1625293	1471970803837	1471970803971	e	69
3223	34083	I left a message.	I left a message.	1625296	1471970804076	1471970804246	.	190
3223	34088	Officials said Thursday that visit would take place on May 26 to 29.	Officials said Thursdat that visit would take place on May 26 to 29.	1625411	1471970806104	1471970806268	SHIFT	16
3223	34088	Officials said Thursday that visit would take place on May 26 to 29.	Officials said Thursdat that visit would take place on May 26 to 29.	1625415	1471970806250	1471970806388	O	79
3223	34088	Officials said Thursday that visit would take place on May 26 to 29.	Officials said Thursdat that visit would take place on May 26 to 29.	1625422	1471970806363	1471970806477	f	70
3223	34088	Officials said Thursday that visit would take place on May 26 to 29.	Officials said Thursdat that visit would take place on May 26 to 29.	1625429	1471970806538	1471970806640	f	70
3223	34088	Officials said Thursday that visit would take place on May 26 to 29.	Officials said Thursdat that visit would take place on May 26 to 29.	1625435	1471970806638	1471970806759	i	73
3223	34088	Officials said Thursday that visit would take place on May 26 to 29.	Officials said Thursdat that visit would take place on May 26 to 29.	1625443	1471970806795	1471970806903	a	65
3223	34088	Officials said Thursday that visit would take place on May 26 to 29.	Officials said Thursdat that visit would take place on May 26 to 29.	1625595	1471970807036	1471970807119	BKSP	8
3223	34088	Officials said Thursday that visit would take place on May 26 to 29.	Officials said Thursdat that visit would take place on May 26 to 29.	1625596	1471970807230	1471970807310	BKSP	8
3223	34088	Officials said Thursday that visit would take place on May 26 to 29.	Officials said Thursdat that visit would take place on May 26 to 29.	1625598	1471970807991	1471970808151	i	73
3223	34088	Officials said Thursday that visit would take place on May 26 to 29.	Officials said Thursdat that visit would take place on May 26 to 29.	1625600	1471970808196	1471970808340	c	67
3223	34088	Officials said Thursday that visit would take place on May 26 to 29.	Officials said Thursdat that visit would take place on May 26 to 29.	1625602	1471970808384	1471970808507	i	65
3223	34088	Officials said Thursday that visit would take place on May 26 to 29.	Officials said Thursdat that visit would take place on May 26 to 29.	1625604	1471970808969	1471970809074	BKSP	8
3223	34088	Officials said Thursday that visit would take place on May 26 to 29.	Officials said Thursdat that visit would take place on May 26 to 29.	1625605	1471970809117	1471970809243	BKSP	8
3223	34088	Officials said Thursday that visit would take place on May 26 to 29.	Officials said Thursdat that visit would take place on May 26 to 29.	1625606	1471970809277	1471970809387	i	73
3223	34088	Officials said Thursday that visit would take place on May 26 to 29.	Officials said Thursdat that visit would take place on May 26 to 29.	1625659	1471970809376	1471970809495	a	65
3223	34088	Officials said Thursday that visit would take place on May 26 to 29.	Officials said Thursdat that visit would take place on May 26 to 29.	1625662	1471970809526	1471970809669	l	76
3223	34088	Officials said Thursday that visit would take place on May 26 to 29.	Officials said Thursdat that visit would take place on May 26 to 29.	1625666	1471970809631	1471970809762	s	83
3223	34088	Officials said Thursday that visit would take place on May 26 to 29.	Officials said Thursdat that visit would take place on May 26 to 29.	1625669	1471970809819	1471970809959	 	32
3223	34088	Officials said Thursday that visit would take place on May 26 to 29.	Officials said Thursdat that visit would take place on May 26 to 29.	1625671	1471970810186	1471970810315	s	83
3223	34088	Officials said Thursday that visit would take place on May 26 to 29.	Officials said Thursdat that visit would take place on May 26 to 29.	1625673	1471970810350	1471970810503	a	65
3223	34088	Officials said Thursday that visit would take place on May 26 to 29.	Officials said Thursdat that visit would take place on May 26 to 29.	1625696	1471970810518	1471970810627	i	73
3223	34088	Officials said Thursday that visit would take place on May 26 to 29.	Officials said Thursdat that visit would take place on May 26 to 29.	1625698	1471970810730	1471970810855	d	68
3223	34088	Officials said Thursday that visit would take place on May 26 to 29.	Officials said Thursdat that visit would take place on May 26 to 29.	1625701	1471970810958	1471970811113	 	32
3223	34088	Officials said Thursday that visit would take place on May 26 to 29.	Officials said Thursdat that visit would take place on May 26 to 29.	1625703	1471970811089	1471970811193	t	84
3223	34088	Officials said Thursday that visit would take place on May 26 to 29.	Officials said Thursdat that visit would take place on May 26 to 29.	1625705	1471970811261	1471970811385	h	72
3223	34088	Officials said Thursday that visit would take place on May 26 to 29.	Officials said Thursdat that visit would take place on May 26 to 29.	1625783	1471970811691	1471970811773	BKSP	8
3223	34088	Officials said Thursday that visit would take place on May 26 to 29.	Officials said Thursdat that visit would take place on May 26 to 29.	1625790	1471970811765	1471970812133	SHIFT	16
3223	34088	Officials said Thursday that visit would take place on May 26 to 29.	Officials said Thursdat that visit would take place on May 26 to 29.	1625786	1471970811843	1471970811951	BKSP	8
3223	34088	Officials said Thursday that visit would take place on May 26 to 29.	Officials said Thursdat that visit would take place on May 26 to 29.	1625796	1471970812145	1471970812321	t	84
3223	34088	Officials said Thursday that visit would take place on May 26 to 29.	Officials said Thursdat that visit would take place on May 26 to 29.	1625801	1471970812272	1471970812459	SHIFT	16
3223	34088	Officials said Thursday that visit would take place on May 26 to 29.	Officials said Thursdat that visit would take place on May 26 to 29.	1625806	1471970812751	1471970812919	BKSP	8
3223	34088	Officials said Thursday that visit would take place on May 26 to 29.	Officials said Thursdat that visit would take place on May 26 to 29.	1625814	1471970812796	1471970813208	SHIFT	16
3223	34088	Officials said Thursday that visit would take place on May 26 to 29.	Officials said Thursdat that visit would take place on May 26 to 29.	1625810	1471970813047	1471970813178	T	84
3223	34088	Officials said Thursday that visit would take place on May 26 to 29.	Officials said Thursdat that visit would take place on May 26 to 29.	1625818	1471970813384	1471970813538	h	72
3223	34088	Officials said Thursday that visit would take place on May 26 to 29.	Officials said Thursdat that visit would take place on May 26 to 29.	1625822	1471970813569	1471970813730	u	85
3223	34088	Officials said Thursday that visit would take place on May 26 to 29.	Officials said Thursdat that visit would take place on May 26 to 29.	1625852	1471970813683	1471970813818	r	82
3223	34088	Officials said Thursday that visit would take place on May 26 to 29.	Officials said Thursdat that visit would take place on May 26 to 29.	1625853	1471970813962	1471970814108	d	68
3223	34088	Officials said Thursday that visit would take place on May 26 to 29.	Officials said Thursdat that visit would take place on May 26 to 29.	1625854	1471970814220	1471970814349	BKSP	8
3223	34088	Officials said Thursday that visit would take place on May 26 to 29.	Officials said Thursdat that visit would take place on May 26 to 29.	1625855	1471970814326	1471970814452	s	83
3223	34088	Officials said Thursday that visit would take place on May 26 to 29.	Officials said Thursdat that visit would take place on May 26 to 29.	1625856	1471970814472	1471970814592	d	68
3223	34088	Officials said Thursday that visit would take place on May 26 to 29.	Officials said Thursdat that visit would take place on May 26 to 29.	1625857	1471970814619	1471970814781	a	65
3223	34088	Officials said Thursday that visit would take place on May 26 to 29.	Officials said Thursdat that visit would take place on May 26 to 29.	1625858	1471970814867	1471970815036	t	84
3223	34088	Officials said Thursday that visit would take place on May 26 to 29.	Officials said Thursdat that visit would take place on May 26 to 29.	1625897	1471970815055	1471970815178	 	32
3223	34088	Officials said Thursday that visit would take place on May 26 to 29.	Officials said Thursdat that visit would take place on May 26 to 29.	1625899	1471970815422	1471970815568	t	84
3223	34088	Officials said Thursday that visit would take place on May 26 to 29.	Officials said Thursdat that visit would take place on May 26 to 29.	1625902	1471970815701	1471970815840	h	72
3223	34088	Officials said Thursday that visit would take place on May 26 to 29.	Officials said Thursdat that visit would take place on May 26 to 29.	1625907	1471970815874	1471970816012	a	65
3223	34088	Officials said Thursday that visit would take place on May 26 to 29.	Officials said Thursdat that visit would take place on May 26 to 29.	1625909	1471970816030	1471970816184	t	84
3223	34088	Officials said Thursday that visit would take place on May 26 to 29.	Officials said Thursdat that visit would take place on May 26 to 29.	1625937	1471970816170	1471970816290	 	32
3223	34088	Officials said Thursday that visit would take place on May 26 to 29.	Officials said Thursdat that visit would take place on May 26 to 29.	1625938	1471970816414	1471970816583	v	86
3223	34088	Officials said Thursday that visit would take place on May 26 to 29.	Officials said Thursdat that visit would take place on May 26 to 29.	1625939	1471970816597	1471970816741	i	73
3223	34088	Officials said Thursday that visit would take place on May 26 to 29.	Officials said Thursdat that visit would take place on May 26 to 29.	1625941	1471970816778	1471970816953	s	83
3223	34088	Officials said Thursday that visit would take place on May 26 to 29.	Officials said Thursdat that visit would take place on May 26 to 29.	1625943	1471970816952	1471970817035	i	73
3223	34088	Officials said Thursday that visit would take place on May 26 to 29.	Officials said Thursdat that visit would take place on May 26 to 29.	1625946	1471970817137	1471970817268	t	84
3223	34088	Officials said Thursday that visit would take place on May 26 to 29.	Officials said Thursdat that visit would take place on May 26 to 29.	1625968	1471970817303	1471970817413	 	32
3223	34088	Officials said Thursday that visit would take place on May 26 to 29.	Officials said Thursdat that visit would take place on May 26 to 29.	1625971	1471970817472	1471970817614	w	87
3223	34088	Officials said Thursday that visit would take place on May 26 to 29.	Officials said Thursdat that visit would take place on May 26 to 29.	1625972	1471970817601	1471970817720	o	79
3223	34088	Officials said Thursday that visit would take place on May 26 to 29.	Officials said Thursdat that visit would take place on May 26 to 29.	1625973	1471970817778	1471970817907	u	85
3223	34088	Officials said Thursday that visit would take place on May 26 to 29.	Officials said Thursdat that visit would take place on May 26 to 29.	1625975	1471970818002	1471970818134	l	76
3223	34088	Officials said Thursday that visit would take place on May 26 to 29.	Officials said Thursdat that visit would take place on May 26 to 29.	1626005	1471970818131	1471970818278	d	68
3223	34088	Officials said Thursday that visit would take place on May 26 to 29.	Officials said Thursdat that visit would take place on May 26 to 29.	1626007	1471970818246	1471970818373	 	32
3223	34088	Officials said Thursday that visit would take place on May 26 to 29.	Officials said Thursdat that visit would take place on May 26 to 29.	1626009	1471970818383	1471970818521	t	84
3223	34088	Officials said Thursday that visit would take place on May 26 to 29.	Officials said Thursdat that visit would take place on May 26 to 29.	1626010	1471970818598	1471970818743	a	65
3223	34088	Officials said Thursday that visit would take place on May 26 to 29.	Officials said Thursdat that visit would take place on May 26 to 29.	1626011	1471970818708	1471970818854	k	75
3223	34088	Officials said Thursday that visit would take place on May 26 to 29.	Officials said Thursdat that visit would take place on May 26 to 29.	1626012	1471970818897	1471970819024	e	69
3223	34088	Officials said Thursday that visit would take place on May 26 to 29.	Officials said Thursdat that visit would take place on May 26 to 29.	1626078	1471970818984	1471970819102	 	32
3223	34088	Officials said Thursday that visit would take place on May 26 to 29.	Officials said Thursdat that visit would take place on May 26 to 29.	1626080	1471970819423	1471970819567	p	80
3223	34088	Officials said Thursday that visit would take place on May 26 to 29.	Officials said Thursdat that visit would take place on May 26 to 29.	1626083	1471970819618	1471970819744	l	76
3223	34088	Officials said Thursday that visit would take place on May 26 to 29.	Officials said Thursdat that visit would take place on May 26 to 29.	1626086	1471970819725	1471970819858	a	65
3223	34088	Officials said Thursday that visit would take place on May 26 to 29.	Officials said Thursdat that visit would take place on May 26 to 29.	1626088	1471970819899	1471970820076	y	89
3223	34088	Officials said Thursday that visit would take place on May 26 to 29.	Officials said Thursdat that visit would take place on May 26 to 29.	1626091	1471970820806	1471970820985	BKSP	8
3223	34088	Officials said Thursday that visit would take place on May 26 to 29.	Officials said Thursdat that visit would take place on May 26 to 29.	1626115	1471970820897	1471970821019	c	67
3223	34088	Officials said Thursday that visit would take place on May 26 to 29.	Officials said Thursdat that visit would take place on May 26 to 29.	1626117	1471970821071	1471970821192	e	69
3223	34088	Officials said Thursday that visit would take place on May 26 to 29.	Officials said Thursdat that visit would take place on May 26 to 29.	1626119	1471970821198	1471970821317	 	32
3223	34088	Officials said Thursday that visit would take place on May 26 to 29.	Officials said Thursdat that visit would take place on May 26 to 29.	1626121	1471970821413	1471970821544	o	79
3223	34088	Officials said Thursday that visit would take place on May 26 to 29.	Officials said Thursdat that visit would take place on May 26 to 29.	1626123	1471970821637	1471970821751	n	78
3223	34088	Officials said Thursday that visit would take place on May 26 to 29.	Officials said Thursdat that visit would take place on May 26 to 29.	1626126	1471970821758	1471970821885	 	32
3223	34088	Officials said Thursday that visit would take place on May 26 to 29.	Officials said Thursdat that visit would take place on May 26 to 29.	1626225	1471970821935	1471970822121	SHIFT	16
3223	34088	Officials said Thursday that visit would take place on May 26 to 29.	Officials said Thursdat that visit would take place on May 26 to 29.	1626227	1471970822043	1471970822173	M	77
3223	34088	Officials said Thursday that visit would take place on May 26 to 29.	Officials said Thursdat that visit would take place on May 26 to 29.	1626231	1471970822189	1471970822326	a	65
3223	34088	Officials said Thursday that visit would take place on May 26 to 29.	Officials said Thursdat that visit would take place on May 26 to 29.	1626234	1471970822845	1471970823035	t	84
3223	34088	Officials said Thursday that visit would take place on May 26 to 29.	Officials said Thursdat that visit would take place on May 26 to 29.	1626237	1471970823164	1471970823240	 	32
3223	34088	Officials said Thursday that visit would take place on May 26 to 29.	Officials said Thursdat that visit would take place on May 26 to 29.	1626244	1471970823358	1471970823452	BKSP	8
3223	34088	Officials said Thursday that visit would take place on May 26 to 29.	Officials said Thursdat that visit would take place on May 26 to 29.	1626247	1471970823493	1471970823588	BKSP	8
3223	34088	Officials said Thursday that visit would take place on May 26 to 29.	Officials said Thursdat that visit would take place on May 26 to 29.	1626360	1471970823555	1471970823665	y	89
3223	34088	Officials said Thursday that visit would take place on May 26 to 29.	Officials said Thursdat that visit would take place on May 26 to 29.	1626362	1471970823759	1471970823890	 	32
3223	34088	Officials said Thursday that visit would take place on May 26 to 29.	Officials said Thursdat that visit would take place on May 26 to 29.	1626365	1471970824631	1471970824758	2	50
3223	34088	Officials said Thursday that visit would take place on May 26 to 29.	Officials said Thursdat that visit would take place on May 26 to 29.	1626369	1471970825069	1471970825231	6	54
3223	34088	Officials said Thursday that visit would take place on May 26 to 29.	Officials said Thursdat that visit would take place on May 26 to 29.	1626373	1471970825703	1471970825815	 	32
3223	34088	Officials said Thursday that visit would take place on May 26 to 29.	Officials said Thursdat that visit would take place on May 26 to 29.	1626380	1471970825900	1471970826039	t	84
3223	34088	Officials said Thursday that visit would take place on May 26 to 29.	Officials said Thursdat that visit would take place on May 26 to 29.	1626511	1471970825997	1471970826134	o	79
3223	34088	Officials said Thursday that visit would take place on May 26 to 29.	Officials said Thursdat that visit would take place on May 26 to 29.	1626514	1471970826144	1471970826238	 	32
3223	34088	Officials said Thursday that visit would take place on May 26 to 29.	Officials said Thursdat that visit would take place on May 26 to 29.	1626520	1471970826869	1471970826926	2	50
3223	34088	Officials said Thursday that visit would take place on May 26 to 29.	Officials said Thursdat that visit would take place on May 26 to 29.	1626524	1471970827631	1471970827708	0	48
3223	34088	Officials said Thursday that visit would take place on May 26 to 29.	Officials said Thursdat that visit would take place on May 26 to 29.	1626527	1471970828372	1471970828550	BKSP	8
3223	34088	Officials said Thursday that visit would take place on May 26 to 29.	Officials said Thursdat that visit would take place on May 26 to 29.	1626530	1471970829082	1471970829176	9	57
3223	34088	Officials said Thursday that visit would take place on May 26 to 29.	Officials said Thursdat that visit would take place on May 26 to 29.	1626537	1471970829319	1471970829500	/	191
3223	34088	Officials said Thursday that visit would take place on May 26 to 29.	Officials said Thursdat that visit would take place on May 26 to 29.	1626566	1471970829894	1471970830085	BKSP	8
3223	34088	Officials said Thursday that visit would take place on May 26 to 29.	Officials said Thursdat that visit would take place on May 26 to 29.	1626569	1471970830363	1471970830494	.	190
3223	34114	Will call later to explain.	Will call later to explain.	1626688	1471970831864	1471970832551	SHIFT	16
3223	34114	Will call later to explain.	Will call later to explain.	1626690	1471970832579	1471970832855	SHIFT	16
3223	34114	Will call later to explain.	Will call later to explain.	1626694	1471970832765	1471970832918	W	87
3223	34114	Will call later to explain.	Will call later to explain.	1626698	1471970832902	1471970833020	i	73
3223	34114	Will call later to explain.	Will call later to explain.	1626701	1471970833105	1471970833219	l	76
3223	34114	Will call later to explain.	Will call later to explain.	1626705	1471970833280	1471970833384	l	76
3223	34114	Will call later to explain.	Will call later to explain.	1626761	1471970833352	1471970833468	 	32
3223	34114	Will call later to explain.	Will call later to explain.	1626765	1471970833537	1471970833668	c	67
3223	34114	Will call later to explain.	Will call later to explain.	1626769	1471970833733	1471970833879	a	65
3223	34114	Will call later to explain.	Will call later to explain.	1626767	1471970833764	1471970833837	l	76
3223	34114	Will call later to explain.	Will call later to explain.	1626771	1471970833953	1471970834065	l	76
3223	34114	Will call later to explain.	Will call later to explain.	1626772	1471970834317	1471970834457	 	32
3223	34114	Will call later to explain.	Will call later to explain.	1626789	1471970834505	1471970834660	l	76
3223	34114	Will call later to explain.	Will call later to explain.	1626793	1471970834603	1471970834744	a	65
3223	34114	Will call later to explain.	Will call later to explain.	1626796	1471970834841	1471970834987	t	84
3223	34114	Will call later to explain.	Will call later to explain.	1626798	1471970835007	1471970835183	e	69
3223	34114	Will call later to explain.	Will call later to explain.	1626832	1471970835162	1471970835293	r	82
3223	34114	Will call later to explain.	Will call later to explain.	1626836	1471970835256	1471970835369	 	32
3223	34114	Will call later to explain.	Will call later to explain.	1626841	1471970835388	1471970835513	t	84
3223	34114	Will call later to explain.	Will call later to explain.	1626845	1471970835502	1471970835637	o	79
3223	34114	Will call later to explain.	Will call later to explain.	1626848	1471970835634	1471970835748	 	32
3223	34114	Will call later to explain.	Will call later to explain.	1626854	1471970835779	1471970835925	e	69
3223	34114	Will call later to explain.	Will call later to explain.	1626880	1471970836025	1471970836180	x	88
3223	34114	Will call later to explain.	Will call later to explain.	1626885	1471970836193	1471970836316	p	80
3223	34114	Will call later to explain.	Will call later to explain.	1626887	1471970836349	1471970836476	l	76
3223	34114	Will call later to explain.	Will call later to explain.	1626891	1471970836473	1471970836584	a	65
3223	34114	Will call later to explain.	Will call later to explain.	1626912	1471970836582	1471970836695	i	73
3223	34114	Will call later to explain.	Will call later to explain.	1626916	1471970836797	1471970836907	n	78
3223	34114	Will call later to explain.	Will call later to explain.	1626920	1471970837067	1471970837210	.	190
3223	34120	His abilities will be limited if he does play Sunday.	His abilities will be limited if he does play Sunday.	1627082	1471970839061	1471970839804	SHIFT	16
3223	34120	His abilities will be limited if he does play Sunday.	His abilities will be limited if he does play Sunday.	1627085	1471970839709	1471970839828	H	72
3223	34120	His abilities will be limited if he does play Sunday.	His abilities will be limited if he does play Sunday.	1627089	1471970839883	1471970839994	i	73
3223	34120	His abilities will be limited if he does play Sunday.	His abilities will be limited if he does play Sunday.	1627092	1471970839979	1471970840105	s	83
3223	34120	His abilities will be limited if he does play Sunday.	His abilities will be limited if he does play Sunday.	1627094	1471970840134	1471970840237	 	32
3223	34120	His abilities will be limited if he does play Sunday.	His abilities will be limited if he does play Sunday.	1627096	1471970840747	1471970840916	a	65
3223	34120	His abilities will be limited if he does play Sunday.	His abilities will be limited if he does play Sunday.	1627141	1471970840923	1471970841067	b	66
3223	34120	His abilities will be limited if he does play Sunday.	His abilities will be limited if he does play Sunday.	1627149	1471970841145	1471970841285	i	73
3223	34120	His abilities will be limited if he does play Sunday.	His abilities will be limited if he does play Sunday.	1627155	1471970841420	1471970841555	l	76
3223	34120	His abilities will be limited if he does play Sunday.	His abilities will be limited if he does play Sunday.	1627161	1471970841627	1471970841750	i	73
3223	34120	His abilities will be limited if he does play Sunday.	His abilities will be limited if he does play Sunday.	1627165	1471970841800	1471970841955	t	84
3223	34120	His abilities will be limited if he does play Sunday.	His abilities will be limited if he does play Sunday.	1627189	1471970841969	1471970842088	i	73
3223	34120	His abilities will be limited if he does play Sunday.	His abilities will be limited if he does play Sunday.	1627192	1471970842086	1471970842202	e	69
3223	34120	His abilities will be limited if he does play Sunday.	His abilities will be limited if he does play Sunday.	1627197	1471970842272	1471970842406	s	83
3223	34120	His abilities will be limited if he does play Sunday.	His abilities will be limited if he does play Sunday.	1627202	1471970842360	1471970842468	 	32
3223	34120	His abilities will be limited if he does play Sunday.	His abilities will be limited if he does play Sunday.	1627205	1471970842535	1471970842662	w	87
3223	34120	His abilities will be limited if he does play Sunday.	His abilities will be limited if he does play Sunday.	1627228	1471970842641	1471970842755	i	73
3223	34120	His abilities will be limited if he does play Sunday.	His abilities will be limited if he does play Sunday.	1627231	1471970842834	1471970842930	l	76
3223	34120	His abilities will be limited if he does play Sunday.	His abilities will be limited if he does play Sunday.	1627234	1471970842975	1471970843074	l	76
3223	34120	His abilities will be limited if he does play Sunday.	His abilities will be limited if he does play Sunday.	1627236	1471970843081	1471970843187	 	32
3223	34120	His abilities will be limited if he does play Sunday.	His abilities will be limited if he does play Sunday.	1627238	1471970843204	1471970843300	b	66
3223	34120	His abilities will be limited if he does play Sunday.	His abilities will be limited if he does play Sunday.	1627293	1471970843293	1471970843424	e	69
3223	34120	His abilities will be limited if he does play Sunday.	His abilities will be limited if he does play Sunday.	1627298	1471970843385	1471970843484	 	32
3223	34120	His abilities will be limited if he does play Sunday.	His abilities will be limited if he does play Sunday.	1627301	1471970843608	1471970843743	l	76
3223	34120	His abilities will be limited if he does play Sunday.	His abilities will be limited if he does play Sunday.	1627303	1471970843809	1471970843929	i	73
3223	34120	His abilities will be limited if he does play Sunday.	His abilities will be limited if he does play Sunday.	1627308	1471970843988	1471970844108	m	77
3223	34120	His abilities will be limited if he does play Sunday.	His abilities will be limited if he does play Sunday.	1627314	1471970844143	1471970844274	i	73
3223	34120	His abilities will be limited if he does play Sunday.	His abilities will be limited if he does play Sunday.	1627381	1471970844305	1471970844431	t	84
3223	34120	His abilities will be limited if he does play Sunday.	His abilities will be limited if he does play Sunday.	1627383	1471970845015	1471970845137	e	69
3223	34120	His abilities will be limited if he does play Sunday.	His abilities will be limited if he does play Sunday.	1627384	1471970845209	1471970845340	d	68
3223	34120	His abilities will be limited if he does play Sunday.	His abilities will be limited if he does play Sunday.	1627385	1471970845337	1471970845456	 	32
3223	34120	His abilities will be limited if he does play Sunday.	His abilities will be limited if he does play Sunday.	1627386	1471970845621	1471970845756	i	73
3223	34120	His abilities will be limited if he does play Sunday.	His abilities will be limited if he does play Sunday.	1627459	1471970845722	1471970845864	f	70
3223	34120	His abilities will be limited if he does play Sunday.	His abilities will be limited if he does play Sunday.	1627462	1471970845868	1471970845973	 	32
3223	34120	His abilities will be limited if he does play Sunday.	His abilities will be limited if he does play Sunday.	1627465	1471970846196	1471970846317	d	68
3223	34120	His abilities will be limited if he does play Sunday.	His abilities will be limited if he does play Sunday.	1627470	1471970846767	1471970846890	BKSP	8
3223	34120	His abilities will be limited if he does play Sunday.	His abilities will be limited if he does play Sunday.	1627473	1471970846990	1471970847115	h	72
3223	34120	His abilities will be limited if he does play Sunday.	His abilities will be limited if he does play Sunday.	1627481	1471970847106	1471970847207	e	69
3223	34120	His abilities will be limited if he does play Sunday.	His abilities will be limited if he does play Sunday.	1627487	1471970847227	1471970847330	 	32
3223	34120	His abilities will be limited if he does play Sunday.	His abilities will be limited if he does play Sunday.	1627498	1471970847358	1471970847475	d	68
3223	34120	His abilities will be limited if he does play Sunday.	His abilities will be limited if he does play Sunday.	1627501	1471970847431	1471970847581	o	79
3223	34120	His abilities will be limited if he does play Sunday.	His abilities will be limited if he does play Sunday.	1627503	1471970847572	1471970847669	e	69
3223	34120	His abilities will be limited if he does play Sunday.	His abilities will be limited if he does play Sunday.	1627505	1471970847763	1471970847926	s	83
3223	34120	His abilities will be limited if he does play Sunday.	His abilities will be limited if he does play Sunday.	1627534	1471970847871	1471970847994	 	32
3223	34120	His abilities will be limited if he does play Sunday.	His abilities will be limited if he does play Sunday.	1627536	1471970848506	1471970848645	p	80
3223	34120	His abilities will be limited if he does play Sunday.	His abilities will be limited if he does play Sunday.	1627539	1471970848696	1471970848813	l	76
3223	34120	His abilities will be limited if he does play Sunday.	His abilities will be limited if he does play Sunday.	1627543	1471970848810	1471970848948	a	65
3223	34120	His abilities will be limited if he does play Sunday.	His abilities will be limited if he does play Sunday.	1627546	1471970849066	1471970849194	y	89
3223	34120	His abilities will be limited if he does play Sunday.	His abilities will be limited if he does play Sunday.	1627596	1471970849191	1471970849313	 	32
3223	34120	His abilities will be limited if he does play Sunday.	His abilities will be limited if he does play Sunday.	1627600	1471970849406	1471970849532	s	83
3223	34120	His abilities will be limited if he does play Sunday.	His abilities will be limited if he does play Sunday.	1627606	1471970849608	1471970849738	u	85
3223	34120	His abilities will be limited if he does play Sunday.	His abilities will be limited if he does play Sunday.	1627610	1471970849971	1471970850044	BKSP	8
3223	34120	His abilities will be limited if he does play Sunday.	His abilities will be limited if he does play Sunday.	1627613	1471970850100	1471970850212	BKSP	8
3223	34120	His abilities will be limited if he does play Sunday.	His abilities will be limited if he does play Sunday.	1627615	1471970850110	1471970850313	SHIFT	16
3223	34120	His abilities will be limited if he does play Sunday.	His abilities will be limited if he does play Sunday.	1627616	1471970850246	1471970850369	S	83
3223	34120	His abilities will be limited if he does play Sunday.	His abilities will be limited if he does play Sunday.	1627617	1471970850344	1471970850468	u	85
3223	34120	His abilities will be limited if he does play Sunday.	His abilities will be limited if he does play Sunday.	1627620	1471970850533	1471970850651	n	78
3223	34120	His abilities will be limited if he does play Sunday.	His abilities will be limited if he does play Sunday.	1627656	1471970850646	1471970850779	d	68
3223	34120	His abilities will be limited if he does play Sunday.	His abilities will be limited if he does play Sunday.	1627658	1471970850776	1471970850916	a	65
3223	34120	His abilities will be limited if he does play Sunday.	His abilities will be limited if he does play Sunday.	1627661	1471970850986	1471970851138	y	89
3223	34120	His abilities will be limited if he does play Sunday.	His abilities will be limited if he does play Sunday.	1627663	1471970851533	1471970851701	.	190
3223	34137	He should still be able to play in the team's next game.	He should still be able to play in the team? next game.	1627744	1471970853875	1471970854306	SHIFT	16
3223	34137	He should still be able to play in the team's next game.	He should still be able to play in the team? next game.	1627749	1471970854236	1471970854376	H	72
3223	34137	He should still be able to play in the team's next game.	He should still be able to play in the team? next game.	1627753	1471970854360	1471970854495	e	69
3223	34137	He should still be able to play in the team's next game.	He should still be able to play in the team? next game.	1627758	1471970854483	1471970854597	 	32
3223	34137	He should still be able to play in the team's next game.	He should still be able to play in the team? next game.	1627760	1471970854619	1471970854736	s	83
3223	34137	He should still be able to play in the team's next game.	He should still be able to play in the team? next game.	1627779	1471970854718	1471970854836	h	72
3223	34137	He should still be able to play in the team's next game.	He should still be able to play in the team? next game.	1627780	1471970854884	1471970855004	o	79
3223	34137	He should still be able to play in the team's next game.	He should still be able to play in the team? next game.	1627782	1471970855039	1471970855154	u	85
3223	34137	He should still be able to play in the team's next game.	He should still be able to play in the team? next game.	1627785	1471970855269	1471970855410	l	76
3223	34137	He should still be able to play in the team's next game.	He should still be able to play in the team? next game.	1627789	1471970855423	1471970855532	d	68
3223	34137	He should still be able to play in the team's next game.	He should still be able to play in the team? next game.	1627829	1471970855519	1471970855629	 	32
3223	34137	He should still be able to play in the team's next game.	He should still be able to play in the team? next game.	1627832	1471970855649	1471970855771	s	83
3223	34137	He should still be able to play in the team's next game.	He should still be able to play in the team? next game.	1627836	1471970855852	1471970856004	t	84
3223	34137	He should still be able to play in the team's next game.	He should still be able to play in the team? next game.	1627838	1471970856043	1471970856190	i	73
3223	34137	He should still be able to play in the team's next game.	He should still be able to play in the team? next game.	1627840	1471970856333	1471970856426	l	76
3223	34137	He should still be able to play in the team's next game.	He should still be able to play in the team? next game.	1627842	1471970856493	1471970856598	l	76
3223	34137	He should still be able to play in the team's next game.	He should still be able to play in the team? next game.	1627868	1471970856605	1471970856754	 	32
3223	34137	He should still be able to play in the team's next game.	He should still be able to play in the team? next game.	1627872	1471970856763	1471970856883	b	66
3223	34137	He should still be able to play in the team's next game.	He should still be able to play in the team? next game.	1627875	1471970856898	1471970857019	e	69
3223	34137	He should still be able to play in the team's next game.	He should still be able to play in the team? next game.	1627878	1471970857003	1471970857141	 	32
3223	34137	He should still be able to play in the team's next game.	He should still be able to play in the team? next game.	1627882	1471970857226	1471970857366	a	65
3223	34137	He should still be able to play in the team's next game.	He should still be able to play in the team? next game.	1627912	1471970857325	1471970857434	b	66
3223	34137	He should still be able to play in the team's next game.	He should still be able to play in the team? next game.	1627916	1471970857534	1471970857683	l	76
3223	34137	He should still be able to play in the team's next game.	He should still be able to play in the team? next game.	1627919	1471970857673	1471970857829	e	69
3223	34137	He should still be able to play in the team's next game.	He should still be able to play in the team? next game.	1627925	1471970857795	1471970857917	 	32
3223	34137	He should still be able to play in the team's next game.	He should still be able to play in the team? next game.	1627930	1471970857914	1471970858025	t	84
3223	34137	He should still be able to play in the team's next game.	He should still be able to play in the team? next game.	1627933	1471970858035	1471970858170	o	79
3223	34137	He should still be able to play in the team's next game.	He should still be able to play in the team? next game.	1627954	1471970858140	1471970858270	 	32
3223	34137	He should still be able to play in the team's next game.	He should still be able to play in the team? next game.	1627959	1471970858267	1471970858370	p	80
3223	34137	He should still be able to play in the team's next game.	He should still be able to play in the team? next game.	1627964	1471970858423	1471970858562	l	76
3223	34137	He should still be able to play in the team's next game.	He should still be able to play in the team? next game.	1627969	1471970858515	1471970858653	a	65
3223	34137	He should still be able to play in the team's next game.	He should still be able to play in the team? next game.	1627974	1471970858657	1471970858796	i	73
3223	34137	He should still be able to play in the team's next game.	He should still be able to play in the team? next game.	1627981	1471970858841	1471970858972	n	78
3223	34137	He should still be able to play in the team's next game.	He should still be able to play in the team? next game.	1628082	1471970858927	1471970859037	 	32
3223	34137	He should still be able to play in the team's next game.	He should still be able to play in the team? next game.	1628085	1471970859122	1471970859244	t	84
3223	34137	He should still be able to play in the team's next game.	He should still be able to play in the team? next game.	1628088	1471970859225	1471970859360	h	72
3223	34137	He should still be able to play in the team's next game.	He should still be able to play in the team? next game.	1628091	1471970859807	1471970859889	BKSP	8
3223	34137	He should still be able to play in the team's next game.	He should still be able to play in the team? next game.	1628094	1471970859957	1471970860094	BKSP	8
3223	34137	He should still be able to play in the team's next game.	He should still be able to play in the team? next game.	1628096	1471970860274	1471970860382	BKSP	8
3223	34137	He should still be able to play in the team's next game.	He should still be able to play in the team? next game.	1628100	1471970860447	1471970860540	BKSP	8
3223	34137	He should still be able to play in the team's next game.	He should still be able to play in the team? next game.	1628103	1471970860595	1471970860698	BKSP	8
3223	34137	He should still be able to play in the team's next game.	He should still be able to play in the team? next game.	1628107	1471970861406	1471970861550	y	89
3223	34137	He should still be able to play in the team's next game.	He should still be able to play in the team? next game.	1628109	1471970861547	1471970861655	 	32
3223	34137	He should still be able to play in the team's next game.	He should still be able to play in the team? next game.	1628118	1471970861652	1471970861783	i	73
3223	34137	He should still be able to play in the team's next game.	He should still be able to play in the team? next game.	1628121	1471970861825	1471970861950	n	78
3223	34137	He should still be able to play in the team's next game.	He should still be able to play in the team? next game.	1628126	1471970861877	1471970861982	 	32
3223	34137	He should still be able to play in the team's next game.	He should still be able to play in the team? next game.	1628130	1471970862050	1471970862181	t	84
3223	34137	He should still be able to play in the team's next game.	He should still be able to play in the team? next game.	1628136	1471970862146	1471970862271	h	72
3223	34137	He should still be able to play in the team's next game.	He should still be able to play in the team? next game.	1628213	1471970862244	1471970862388	e	69
3223	34137	He should still be able to play in the team's next game.	He should still be able to play in the team? next game.	1628215	1471970862379	1471970862510	 	32
3223	34137	He should still be able to play in the team's next game.	He should still be able to play in the team? next game.	1628218	1471970862517	1471970862844	SHIFT	16
3223	34137	He should still be able to play in the team's next game.	He should still be able to play in the team? next game.	1628220	1471970862757	1471970862913	T	84
3223	34137	He should still be able to play in the team's next game.	He should still be able to play in the team? next game.	1628222	1471970863133	1471970863253	BKSP	8
3223	34137	He should still be able to play in the team's next game.	He should still be able to play in the team? next game.	1628223	1471970863233	1471970863384	t	84
3223	34137	He should still be able to play in the team's next game.	He should still be able to play in the team? next game.	1628225	1471970863409	1471970863525	e	69
3223	34137	He should still be able to play in the team's next game.	He should still be able to play in the team? next game.	1628227	1471970863557	1471970863727	a	65
3223	34137	He should still be able to play in the team's next game.	He should still be able to play in the team? next game.	1628335	1471970863719	1471970863852	m	77
3223	34137	He should still be able to play in the team's next game.	He should still be able to play in the team? next game.	1628337	1471970864050	1471970864224	;	186
3223	34137	He should still be able to play in the team's next game.	He should still be able to play in the team? next game.	1628341	1471970864298	1471970864438	s	83
3223	34137	He should still be able to play in the team's next game.	He should still be able to play in the team? next game.	1628344	1471970864501	1471970864578	BKSP	8
3223	34137	He should still be able to play in the team's next game.	He should still be able to play in the team? next game.	1628347	1471970864641	1471970864791	BKSP	8
3223	34137	He should still be able to play in the team's next game.	He should still be able to play in the team? next game.	1628350	1471970865061	1471970865214	?	83
3223	34137	He should still be able to play in the team's next game.	He should still be able to play in the team? next game.	1628351	1471970865992	1471970866125	 	32
3223	34137	He should still be able to play in the team's next game.	He should still be able to play in the team? next game.	1628352	1471970866484	1471970866582	n	69
3223	34137	He should still be able to play in the team's next game.	He should still be able to play in the team? next game.	1628417	1471970866917	1471970867014	BKSP	8
3223	34137	He should still be able to play in the team's next game.	He should still be able to play in the team? next game.	1628421	1471970867069	1471970867174	BKSP	8
3223	34137	He should still be able to play in the team's next game.	He should still be able to play in the team? next game.	1628424	1471970867257	1471970867399	n	78
3223	34137	He should still be able to play in the team's next game.	He should still be able to play in the team? next game.	1628428	1471970867350	1471970867483	e	69
3223	34137	He should still be able to play in the team's next game.	He should still be able to play in the team? next game.	1628431	1471970867565	1471970867757	c	67
3223	34137	He should still be able to play in the team's next game.	He should still be able to play in the team? next game.	1628433	1471970867890	1471970868048	t	84
3223	34137	He should still be able to play in the team's next game.	He should still be able to play in the team? next game.	1628434	1471970868146	1471970868243	 	32
3223	34137	He should still be able to play in the team's next game.	He should still be able to play in the team? next game.	1628503	1471970868495	1471970868570	BKSP	8
3223	34137	He should still be able to play in the team's next game.	He should still be able to play in the team? next game.	1628505	1471970868637	1471970868723	BKSP	8
3223	34137	He should still be able to play in the team's next game.	He should still be able to play in the team? next game.	1628507	1471970868778	1471970868907	BKSP	8
3223	34137	He should still be able to play in the team's next game.	He should still be able to play in the team? next game.	1628509	1471970868844	1471970868980	x	88
3223	34137	He should still be able to play in the team's next game.	He should still be able to play in the team? next game.	1628511	1471970869070	1471970869206	t	84
3223	34137	He should still be able to play in the team's next game.	He should still be able to play in the team? next game.	1628513	1471970869419	1471970869557	 	32
3223	34137	He should still be able to play in the team's next game.	He should still be able to play in the team? next game.	1628514	1471970869729	1471970869886	g	71
3223	34137	He should still be able to play in the team's next game.	He should still be able to play in the team? next game.	1628515	1471970869912	1471970870055	a	65
3223	34137	He should still be able to play in the team's next game.	He should still be able to play in the team? next game.	1628526	1471970870002	1471970870140	m	77
3223	34137	He should still be able to play in the team's next game.	He should still be able to play in the team? next game.	1628528	1471970870129	1471970870260	e	69
3223	34137	He should still be able to play in the team's next game.	He should still be able to play in the team? next game.	1628532	1471970870327	1471970870478	.	190
3223	34155	The Azerbaijani enclave Nagorno was torn by further fighting.	The Azerbaijani enclave Nagorno was torn by further fighting.	1628663	1471970872516	1471970872927	SHIFT	16
3223	34155	The Azerbaijani enclave Nagorno was torn by further fighting.	The Azerbaijani enclave Nagorno was torn by further fighting.	1628667	1471970872773	1471970872931	T	84
3223	34155	The Azerbaijani enclave Nagorno was torn by further fighting.	The Azerbaijani enclave Nagorno was torn by further fighting.	1628669	1471970872935	1471970873047	h	72
3223	34155	The Azerbaijani enclave Nagorno was torn by further fighting.	The Azerbaijani enclave Nagorno was torn by further fighting.	1628671	1471970873035	1471970873162	e	69
3223	34155	The Azerbaijani enclave Nagorno was torn by further fighting.	The Azerbaijani enclave Nagorno was torn by further fighting.	1628675	1471970873245	1471970873337	 	32
3223	34155	The Azerbaijani enclave Nagorno was torn by further fighting.	The Azerbaijani enclave Nagorno was torn by further fighting.	1628678	1471970873451	1471970873634	SHIFT	16
3223	34155	The Azerbaijani enclave Nagorno was torn by further fighting.	The Azerbaijani enclave Nagorno was torn by further fighting.	1628741	1471970873568	1471970873716	A	65
3223	34155	The Azerbaijani enclave Nagorno was torn by further fighting.	The Azerbaijani enclave Nagorno was torn by further fighting.	1628745	1471970873851	1471970873995	z	90
3223	34155	The Azerbaijani enclave Nagorno was torn by further fighting.	The Azerbaijani enclave Nagorno was torn by further fighting.	1628747	1471970874089	1471970874245	e	69
3223	34155	The Azerbaijani enclave Nagorno was torn by further fighting.	The Azerbaijani enclave Nagorno was torn by further fighting.	1628748	1471970874655	1471970874810	r	82
3223	34155	The Azerbaijani enclave Nagorno was torn by further fighting.	The Azerbaijani enclave Nagorno was torn by further fighting.	1628749	1471970874921	1471970875069	b	66
3223	34155	The Azerbaijani enclave Nagorno was torn by further fighting.	The Azerbaijani enclave Nagorno was torn by further fighting.	1628750	1471970875136	1471970875261	a	65
3223	34155	The Azerbaijani enclave Nagorno was torn by further fighting.	The Azerbaijani enclave Nagorno was torn by further fighting.	1628830	1471970875454	1471970875594	BKSP	8
3223	34155	The Azerbaijani enclave Nagorno was torn by further fighting.	The Azerbaijani enclave Nagorno was torn by further fighting.	1628834	1471970875770	1471970875903	a	65
3223	34155	The Azerbaijani enclave Nagorno was torn by further fighting.	The Azerbaijani enclave Nagorno was torn by further fighting.	1628840	1471970875932	1471970876080	i	73
3223	34155	The Azerbaijani enclave Nagorno was torn by further fighting.	The Azerbaijani enclave Nagorno was torn by further fighting.	1628845	1471970876571	1471970876731	h	72
3223	34155	The Azerbaijani enclave Nagorno was torn by further fighting.	The Azerbaijani enclave Nagorno was torn by further fighting.	1628854	1471970876771	1471970876897	a	65
3223	34155	The Azerbaijani enclave Nagorno was torn by further fighting.	The Azerbaijani enclave Nagorno was torn by further fighting.	1628953	1471970876889	1471970877057	n	78
3223	34155	The Azerbaijani enclave Nagorno was torn by further fighting.	The Azerbaijani enclave Nagorno was torn by further fighting.	1628960	1471970877181	1471970877269	BKSP	8
3223	34155	The Azerbaijani enclave Nagorno was torn by further fighting.	The Azerbaijani enclave Nagorno was torn by further fighting.	1628966	1471970877320	1471970877429	BKSP	8
3223	34155	The Azerbaijani enclave Nagorno was torn by further fighting.	The Azerbaijani enclave Nagorno was torn by further fighting.	1628970	1471970877826	1471970877938	j	74
3223	34155	The Azerbaijani enclave Nagorno was torn by further fighting.	The Azerbaijani enclave Nagorno was torn by further fighting.	1628975	1471970877977	1471970878105	a	65
3223	34155	The Azerbaijani enclave Nagorno was torn by further fighting.	The Azerbaijani enclave Nagorno was torn by further fighting.	1628977	1471970878045	1471970878191	n	78
3223	34155	The Azerbaijani enclave Nagorno was torn by further fighting.	The Azerbaijani enclave Nagorno was torn by further fighting.	1628982	1471970878254	1471970878397	i	73
3223	34155	The Azerbaijani enclave Nagorno was torn by further fighting.	The Azerbaijani enclave Nagorno was torn by further fighting.	1628987	1471970878620	1471970878704	BKSP	8
3223	34155	The Azerbaijani enclave Nagorno was torn by further fighting.	The Azerbaijani enclave Nagorno was torn by further fighting.	1628990	1471970878776	1471970878851	BKSP	8
3223	34155	The Azerbaijani enclave Nagorno was torn by further fighting.	The Azerbaijani enclave Nagorno was torn by further fighting.	1628995	1471970878928	1471970878987	BKSP	8
3223	34155	The Azerbaijani enclave Nagorno was torn by further fighting.	The Azerbaijani enclave Nagorno was torn by further fighting.	1629003	1471970879064	1471970879132	BKSP	8
3223	34155	The Azerbaijani enclave Nagorno was torn by further fighting.	The Azerbaijani enclave Nagorno was torn by further fighting.	1629010	1471970879201	1471970879335	BKSP	8
3223	34155	The Azerbaijani enclave Nagorno was torn by further fighting.	The Azerbaijani enclave Nagorno was torn by further fighting.	1629018	1471970879420	1471970879581	j	74
3223	34155	The Azerbaijani enclave Nagorno was torn by further fighting.	The Azerbaijani enclave Nagorno was torn by further fighting.	1629044	1471970879578	1471970879708	a	65
3223	34155	The Azerbaijani enclave Nagorno was torn by further fighting.	The Azerbaijani enclave Nagorno was torn by further fighting.	1629048	1471970879699	1471970879808	n	78
3223	34155	The Azerbaijani enclave Nagorno was torn by further fighting.	The Azerbaijani enclave Nagorno was torn by further fighting.	1629052	1471970879831	1471970879984	i	73
3223	34155	The Azerbaijani enclave Nagorno was torn by further fighting.	The Azerbaijani enclave Nagorno was torn by further fighting.	1629054	1471970880006	1471970880127	 	32
3223	34155	The Azerbaijani enclave Nagorno was torn by further fighting.	The Azerbaijani enclave Nagorno was torn by further fighting.	1629061	1471970880330	1471970880458	e	69
3223	34155	The Azerbaijani enclave Nagorno was torn by further fighting.	The Azerbaijani enclave Nagorno was torn by further fighting.	1629132	1471970880455	1471970880582	n	78
3223	34155	The Azerbaijani enclave Nagorno was torn by further fighting.	The Azerbaijani enclave Nagorno was torn by further fighting.	1629135	1471970880676	1471970880818	c	67
3223	34155	The Azerbaijani enclave Nagorno was torn by further fighting.	The Azerbaijani enclave Nagorno was torn by further fighting.	1629140	1471970880801	1471970880918	l	76
3223	34155	The Azerbaijani enclave Nagorno was torn by further fighting.	The Azerbaijani enclave Nagorno was torn by further fighting.	1629148	1471970880922	1471970881046	a	65
3223	34155	The Azerbaijani enclave Nagorno was torn by further fighting.	The Azerbaijani enclave Nagorno was torn by further fighting.	1629156	1471970881149	1471970881289	c	67
3223	34155	The Azerbaijani enclave Nagorno was torn by further fighting.	The Azerbaijani enclave Nagorno was torn by further fighting.	1629163	1471970881699	1471970881774	BKSP	8
3223	34155	The Azerbaijani enclave Nagorno was torn by further fighting.	The Azerbaijani enclave Nagorno was torn by further fighting.	1629167	1471970881909	1471970881999	v	86
3223	34155	The Azerbaijani enclave Nagorno was torn by further fighting.	The Azerbaijani enclave Nagorno was torn by further fighting.	1629242	1471970882082	1471970882223	e	69
3223	34155	The Azerbaijani enclave Nagorno was torn by further fighting.	The Azerbaijani enclave Nagorno was torn by further fighting.	1629244	1471970882236	1471970882373	 	32
3223	34155	The Azerbaijani enclave Nagorno was torn by further fighting.	The Azerbaijani enclave Nagorno was torn by further fighting.	1629245	1471970882550	1471970882720	SHIFT	16
3223	34155	The Azerbaijani enclave Nagorno was torn by further fighting.	The Azerbaijani enclave Nagorno was torn by further fighting.	1629247	1471970882714	1471970882859	N	78
3223	34155	The Azerbaijani enclave Nagorno was torn by further fighting.	The Azerbaijani enclave Nagorno was torn by further fighting.	1629250	1471970882842	1471970882974	a	65
3223	34155	The Azerbaijani enclave Nagorno was torn by further fighting.	The Azerbaijani enclave Nagorno was torn by further fighting.	1629253	1471970883256	1471970883421	g	71
3223	34155	The Azerbaijani enclave Nagorno was torn by further fighting.	The Azerbaijani enclave Nagorno was torn by further fighting.	1629311	1471970883419	1471970883547	a	65
3223	34155	The Azerbaijani enclave Nagorno was torn by further fighting.	The Azerbaijani enclave Nagorno was torn by further fighting.	1629314	1471970883809	1471970883938	BKSP	8
3223	34155	The Azerbaijani enclave Nagorno was torn by further fighting.	The Azerbaijani enclave Nagorno was torn by further fighting.	1629316	1471970883997	1471970884146	o	79
3223	34155	The Azerbaijani enclave Nagorno was torn by further fighting.	The Azerbaijani enclave Nagorno was torn by further fighting.	1629318	1471970884113	1471970884247	r	82
3223	34155	The Azerbaijani enclave Nagorno was torn by further fighting.	The Azerbaijani enclave Nagorno was torn by further fighting.	1629320	1471970884460	1471970884578	n	78
3223	34155	The Azerbaijani enclave Nagorno was torn by further fighting.	The Azerbaijani enclave Nagorno was torn by further fighting.	1629322	1471970884625	1471970884779	o	79
3223	34155	The Azerbaijani enclave Nagorno was torn by further fighting.	The Azerbaijani enclave Nagorno was torn by further fighting.	1629324	1471970884801	1471970884925	 	32
3223	34155	The Azerbaijani enclave Nagorno was torn by further fighting.	The Azerbaijani enclave Nagorno was torn by further fighting.	1629388	1471970885089	1471970885243	w	87
3223	34155	The Azerbaijani enclave Nagorno was torn by further fighting.	The Azerbaijani enclave Nagorno was torn by further fighting.	1629390	1471970885350	1471970885510	a	65
3223	34155	The Azerbaijani enclave Nagorno was torn by further fighting.	The Azerbaijani enclave Nagorno was torn by further fighting.	1629393	1471970885508	1471970885651	s	83
3223	34155	The Azerbaijani enclave Nagorno was torn by further fighting.	The Azerbaijani enclave Nagorno was torn by further fighting.	1629398	1471970885675	1471970885796	 	32
3223	34155	The Azerbaijani enclave Nagorno was torn by further fighting.	The Azerbaijani enclave Nagorno was torn by further fighting.	1629404	1471970886067	1471970886217	t	84
3223	34155	The Azerbaijani enclave Nagorno was torn by further fighting.	The Azerbaijani enclave Nagorno was torn by further fighting.	1629459	1471970886204	1471970886347	o	79
3223	34155	The Azerbaijani enclave Nagorno was torn by further fighting.	The Azerbaijani enclave Nagorno was torn by further fighting.	1629466	1471970886483	1471970886618	r	82
3223	34155	The Azerbaijani enclave Nagorno was torn by further fighting.	The Azerbaijani enclave Nagorno was torn by further fighting.	1629470	1471970886564	1471970886716	n	78
3223	34155	The Azerbaijani enclave Nagorno was torn by further fighting.	The Azerbaijani enclave Nagorno was torn by further fighting.	1629476	1471970886797	1471970886888	 	32
3223	34155	The Azerbaijani enclave Nagorno was torn by further fighting.	The Azerbaijani enclave Nagorno was torn by further fighting.	1629482	1471970886866	1471970886988	b	66
3223	34155	The Azerbaijani enclave Nagorno was torn by further fighting.	The Azerbaijani enclave Nagorno was torn by further fighting.	1629488	1471970887051	1471970887232	y	89
3223	34155	The Azerbaijani enclave Nagorno was torn by further fighting.	The Azerbaijani enclave Nagorno was torn by further fighting.	1629584	1471970887215	1471970887354	 	32
3223	34155	The Azerbaijani enclave Nagorno was torn by further fighting.	The Azerbaijani enclave Nagorno was torn by further fighting.	1629588	1471970887661	1471970887834	f	70
3223	34155	The Azerbaijani enclave Nagorno was torn by further fighting.	The Azerbaijani enclave Nagorno was torn by further fighting.	1629593	1471970887850	1471970888014	u	85
3223	34155	The Azerbaijani enclave Nagorno was torn by further fighting.	The Azerbaijani enclave Nagorno was torn by further fighting.	1629597	1471970888002	1471970888160	r	82
3223	34155	The Azerbaijani enclave Nagorno was torn by further fighting.	The Azerbaijani enclave Nagorno was torn by further fighting.	1629601	1471970888894	1471970889017	t	84
3223	34155	The Azerbaijani enclave Nagorno was torn by further fighting.	The Azerbaijani enclave Nagorno was torn by further fighting.	1629679	1471970889009	1471970889155	h	72
3223	34155	The Azerbaijani enclave Nagorno was torn by further fighting.	The Azerbaijani enclave Nagorno was torn by further fighting.	1629682	1471970889149	1471970889325	e	69
3223	34155	The Azerbaijani enclave Nagorno was torn by further fighting.	The Azerbaijani enclave Nagorno was torn by further fighting.	1629684	1471970889356	1471970889478	r	82
3223	34155	The Azerbaijani enclave Nagorno was torn by further fighting.	The Azerbaijani enclave Nagorno was torn by further fighting.	1629687	1471970889633	1471970889755	 	32
3223	34155	The Azerbaijani enclave Nagorno was torn by further fighting.	The Azerbaijani enclave Nagorno was torn by further fighting.	1629690	1471970890139	1471970890255	f	70
3223	34155	The Azerbaijani enclave Nagorno was torn by further fighting.	The Azerbaijani enclave Nagorno was torn by further fighting.	1629694	1471970890438	1471970890579	i	73
3223	34155	The Azerbaijani enclave Nagorno was torn by further fighting.	The Azerbaijani enclave Nagorno was torn by further fighting.	1629753	1471970890560	1471970890672	g	71
3223	34155	The Azerbaijani enclave Nagorno was torn by further fighting.	The Azerbaijani enclave Nagorno was torn by further fighting.	1629760	1471970890663	1471970890791	h	72
3223	34155	The Azerbaijani enclave Nagorno was torn by further fighting.	The Azerbaijani enclave Nagorno was torn by further fighting.	1629765	1471970890825	1471970890971	i	73
3223	34155	The Azerbaijani enclave Nagorno was torn by further fighting.	The Azerbaijani enclave Nagorno was torn by further fighting.	1629768	1471970890896	1471970891000	t	84
3223	34155	The Azerbaijani enclave Nagorno was torn by further fighting.	The Azerbaijani enclave Nagorno was torn by further fighting.	1629770	1471970891419	1471970891535	BKSP	8
3223	34155	The Azerbaijani enclave Nagorno was torn by further fighting.	The Azerbaijani enclave Nagorno was torn by further fighting.	1629771	1471970891586	1471970891726	BKSP	8
3223	34155	The Azerbaijani enclave Nagorno was torn by further fighting.	The Azerbaijani enclave Nagorno was torn by further fighting.	1629772	1471970891722	1471970891825	t	84
3223	34155	The Azerbaijani enclave Nagorno was torn by further fighting.	The Azerbaijani enclave Nagorno was torn by further fighting.	1629845	1471970891814	1471970891930	i	73
3223	34155	The Azerbaijani enclave Nagorno was torn by further fighting.	The Azerbaijani enclave Nagorno was torn by further fighting.	1629850	1471970891984	1471970892115	n	78
3223	34155	The Azerbaijani enclave Nagorno was torn by further fighting.	The Azerbaijani enclave Nagorno was torn by further fighting.	1629854	1471970892120	1471970892240	h	72
3223	34155	The Azerbaijani enclave Nagorno was torn by further fighting.	The Azerbaijani enclave Nagorno was torn by further fighting.	1629860	1471970892304	1471970892487	.	190
3223	34155	The Azerbaijani enclave Nagorno was torn by further fighting.	The Azerbaijani enclave Nagorno was torn by further fighting.	1629862	1471970892848	1471970892972	BKSP	8
3223	34155	The Azerbaijani enclave Nagorno was torn by further fighting.	The Azerbaijani enclave Nagorno was torn by further fighting.	1629866	1471970893025	1471970893189	BKSP	8
3223	34155	The Azerbaijani enclave Nagorno was torn by further fighting.	The Azerbaijani enclave Nagorno was torn by further fighting.	1629872	1471970893097	1471970893272	h	72
3223	34155	The Azerbaijani enclave Nagorno was torn by further fighting.	The Azerbaijani enclave Nagorno was torn by further fighting.	1629876	1471970893658	1471970893819	BKSP	8
3223	34155	The Azerbaijani enclave Nagorno was torn by further fighting.	The Azerbaijani enclave Nagorno was torn by further fighting.	1629880	1471970893878	1471970894037	h	72
3223	34155	The Azerbaijani enclave Nagorno was torn by further fighting.	The Azerbaijani enclave Nagorno was torn by further fighting.	1630009	1471970894336	1471970894492	BKSP	8
3223	34155	The Azerbaijani enclave Nagorno was torn by further fighting.	The Azerbaijani enclave Nagorno was torn by further fighting.	1630012	1471970894531	1471970894743	f	70
3223	34155	The Azerbaijani enclave Nagorno was torn by further fighting.	The Azerbaijani enclave Nagorno was torn by further fighting.	1630014	1471970894907	1471970895034	BKSP	8
3223	34155	The Azerbaijani enclave Nagorno was torn by further fighting.	The Azerbaijani enclave Nagorno was torn by further fighting.	1630017	1471970895231	1471970895343	h	72
3223	34155	The Azerbaijani enclave Nagorno was torn by further fighting.	The Azerbaijani enclave Nagorno was torn by further fighting.	1630019	1471970895476	1471970895633	BKSP	8
3223	34155	The Azerbaijani enclave Nagorno was torn by further fighting.	The Azerbaijani enclave Nagorno was torn by further fighting.	1630022	1471970895630	1471970895803	g	71
3223	34155	The Azerbaijani enclave Nagorno was torn by further fighting.	The Azerbaijani enclave Nagorno was torn by further fighting.	1630024	1471970896345	1471970896548	.	190
3223	34187	Thank you for your support.	Thank you for your support.	1630135	1471970896912	1471970899483	SHIFT	16
3223	34187	Thank you for your support.	Thank you for your support.	1630136	1471970899376	1471970899531	T	84
3223	34187	Thank you for your support.	Thank you for your support.	1630137	1471970899586	1471970899736	j	74
3223	34187	Thank you for your support.	Thank you for your support.	1630138	1471970899834	1471970899952	a	65
3223	34187	Thank you for your support.	Thank you for your support.	1630139	1471970900097	1471970900157	BKSP	8
3223	34187	Thank you for your support.	Thank you for your support.	1630140	1471970900209	1471970900294	BKSP	8
3223	34187	Thank you for your support.	Thank you for your support.	1630142	1471970900413	1471970900533	h	72
3223	34187	Thank you for your support.	Thank you for your support.	1630157	1471970900530	1471970900649	a	65
3223	34187	Thank you for your support.	Thank you for your support.	1630159	1471970900624	1471970900738	n	78
3223	34187	Thank you for your support.	Thank you for your support.	1630161	1471970900799	1471970900936	k	75
3223	34187	Thank you for your support.	Thank you for your support.	1630163	1471970900896	1471970900988	 	32
3223	34187	Thank you for your support.	Thank you for your support.	1630166	1471970901110	1471970901208	y	89
3223	34187	Thank you for your support.	Thank you for your support.	1630175	1471970901161	1471970901288	o	79
3223	34187	Thank you for your support.	Thank you for your support.	1630177	1471970901321	1471970901445	u	85
3223	34187	Thank you for your support.	Thank you for your support.	1630179	1471970901408	1471970901512	 	32
3223	34187	Thank you for your support.	Thank you for your support.	1630181	1471970901592	1471970901719	f	70
3223	34187	Thank you for your support.	Thank you for your support.	1630184	1471970901677	1471970901802	o	79
3223	34187	Thank you for your support.	Thank you for your support.	1630216	1471970901794	1471970901924	r	82
3223	34187	Thank you for your support.	Thank you for your support.	1630219	1471970901940	1471970902045	 	32
3223	34187	Thank you for your support.	Thank you for your support.	1630220	1471970902158	1471970902279	y	89
3223	34187	Thank you for your support.	Thank you for your support.	1630223	1471970902299	1471970902425	o	79
3223	34187	Thank you for your support.	Thank you for your support.	1630228	1471970902521	1471970902618	u	85
3223	34187	Thank you for your support.	Thank you for your support.	1630231	1471970902665	1471970902794	r	82
3223	34187	Thank you for your support.	Thank you for your support.	1630253	1471970902899	1471970903043	 	32
3223	34187	Thank you for your support.	Thank you for your support.	1630256	1471970903076	1471970903208	s	83
3223	34187	Thank you for your support.	Thank you for your support.	1630259	1471970903175	1471970903280	u	85
3223	34187	Thank you for your support.	Thank you for your support.	1630262	1471970903400	1471970903492	p	80
3223	34187	Thank you for your support.	Thank you for your support.	1630265	1471970903564	1471970903636	p	80
3223	34187	Thank you for your support.	Thank you for your support.	1630314	1471970903712	1471970903822	o	79
3223	34187	Thank you for your support.	Thank you for your support.	1630318	1471970903817	1471970903932	r	82
3223	34187	Thank you for your support.	Thank you for your support.	1630321	1471970904032	1471970904128	t	84
3223	34187	Thank you for your support.	Thank you for your support.	1630324	1471970904525	1471970904641	.	190
3223	34195	On appeal they were finally placed in Division Two.	On appeal they were finally placed in Division Two.	1630471	1471970906815	1471970907071	SHIFT	16
3223	34195	On appeal they were finally placed in Division Two.	On appeal they were finally placed in Division Two.	1630474	1471970907000	1471970907153	O	79
3223	34195	On appeal they were finally placed in Division Two.	On appeal they were finally placed in Division Two.	1630476	1471970907234	1471970907324	n	78
3223	34195	On appeal they were finally placed in Division Two.	On appeal they were finally placed in Division Two.	1630478	1471970907294	1471970907434	 	32
3223	34195	On appeal they were finally placed in Division Two.	On appeal they were finally placed in Division Two.	1630482	1471970907548	1471970907791	SHIFT	16
3223	34195	On appeal they were finally placed in Division Two.	On appeal they were finally placed in Division Two.	1630484	1471970907741	1471970907853	P	80
3223	34195	On appeal they were finally placed in Division Two.	On appeal they were finally placed in Division Two.	1630487	1471970908111	1471970908250	BKSP	8
3223	34195	On appeal they were finally placed in Division Two.	On appeal they were finally placed in Division Two.	1630491	1471970908257	1471970908382	a	65
3223	34195	On appeal they were finally placed in Division Two.	On appeal they were finally placed in Division Two.	1630513	1471970908442	1471970908569	p	80
3223	34195	On appeal they were finally placed in Division Two.	On appeal they were finally placed in Division Two.	1630515	1471970908639	1471970908758	p	80
3223	34195	On appeal they were finally placed in Division Two.	On appeal they were finally placed in Division Two.	1630518	1471970908918	1471970909036	e	69
3223	34195	On appeal they were finally placed in Division Two.	On appeal they were finally placed in Division Two.	1630523	1471970909102	1471970909234	a	65
3223	34195	On appeal they were finally placed in Division Two.	On appeal they were finally placed in Division Two.	1630556	1471970909226	1471970909358	l	76
3223	34195	On appeal they were finally placed in Division Two.	On appeal they were finally placed in Division Two.	1630559	1471970909363	1471970909429	 	32
3223	34195	On appeal they were finally placed in Division Two.	On appeal they were finally placed in Division Two.	1630565	1471970909596	1471970909701	t	84
3223	34195	On appeal they were finally placed in Division Two.	On appeal they were finally placed in Division Two.	1630572	1471970909714	1471970909846	h	72
3223	34195	On appeal they were finally placed in Division Two.	On appeal they were finally placed in Division Two.	1630579	1471970909803	1471970909970	e	69
3223	34195	On appeal they were finally placed in Division Two.	On appeal they were finally placed in Division Two.	1630583	1471970910026	1471970910208	y	89
3223	34195	On appeal they were finally placed in Division Two.	On appeal they were finally placed in Division Two.	1630612	1471970910154	1471970910272	 	32
3223	34195	On appeal they were finally placed in Division Two.	On appeal they were finally placed in Division Two.	1630617	1471970910426	1471970910563	w	87
3223	34195	On appeal they were finally placed in Division Two.	On appeal they were finally placed in Division Two.	1630620	1471970910575	1471970910708	e	69
3223	34195	On appeal they were finally placed in Division Two.	On appeal they were finally placed in Division Two.	1630623	1471970910797	1471970910951	r	82
3223	34195	On appeal they were finally placed in Division Two.	On appeal they were finally placed in Division Two.	1630627	1471970910948	1471970911111	e	69
3223	34195	On appeal they were finally placed in Division Two.	On appeal they were finally placed in Division Two.	1630692	1471970911103	1471970911217	 	32
3223	34195	On appeal they were finally placed in Division Two.	On appeal they were finally placed in Division Two.	1630695	1471970911378	1471970911522	f	70
3223	34195	On appeal they were finally placed in Division Two.	On appeal they were finally placed in Division Two.	1630699	1471970911559	1471970911690	i	73
3223	34195	On appeal they were finally placed in Division Two.	On appeal they were finally placed in Division Two.	1630702	1471970911742	1471970911841	a	65
3223	34195	On appeal they were finally placed in Division Two.	On appeal they were finally placed in Division Two.	1630705	1471970912095	1471970912189	BKSP	8
3223	34195	On appeal they were finally placed in Division Two.	On appeal they were finally placed in Division Two.	1630707	1471970912301	1471970912415	n	78
3223	34195	On appeal they were finally placed in Division Two.	On appeal they were finally placed in Division Two.	1630736	1471970912372	1471970912512	a	65
3223	34195	On appeal they were finally placed in Division Two.	On appeal they were finally placed in Division Two.	1630740	1471970912538	1471970912616	l	76
3223	34195	On appeal they were finally placed in Division Two.	On appeal they were finally placed in Division Two.	1630744	1471970912685	1471970912776	l	76
3223	34195	On appeal they were finally placed in Division Two.	On appeal they were finally placed in Division Two.	1630746	1471970912760	1471970912883	y	89
3223	34195	On appeal they were finally placed in Division Two.	On appeal they were finally placed in Division Two.	1630748	1471970912897	1471970912997	 	32
3223	34195	On appeal they were finally placed in Division Two.	On appeal they were finally placed in Division Two.	1630751	1471970913106	1471970913241	p	80
3223	34195	On appeal they were finally placed in Division Two.	On appeal they were finally placed in Division Two.	1630787	1471970913263	1471970913394	l	76
3223	34195	On appeal they were finally placed in Division Two.	On appeal they were finally placed in Division Two.	1630789	1471970913343	1471970913446	a	65
3223	34195	On appeal they were finally placed in Division Two.	On appeal they were finally placed in Division Two.	1630791	1471970913503	1471970913634	c	67
3223	34195	On appeal they were finally placed in Division Two.	On appeal they were finally placed in Division Two.	1630793	1471970913690	1471970913804	e	69
3223	34195	On appeal they were finally placed in Division Two.	On appeal they were finally placed in Division Two.	1630795	1471970913867	1471970914009	d	68
3223	34195	On appeal they were finally placed in Division Two.	On appeal they were finally placed in Division Two.	1630839	1471970914049	1471970914176	 	32
3223	34195	On appeal they were finally placed in Division Two.	On appeal they were finally placed in Division Two.	1630841	1471970914481	1471970914612	i	73
3223	34195	On appeal they were finally placed in Division Two.	On appeal they were finally placed in Division Two.	1630846	1471970914643	1471970914769	n	78
3223	34195	On appeal they were finally placed in Division Two.	On appeal they were finally placed in Division Two.	1630850	1471970914717	1471970914811	 	32
3223	34195	On appeal they were finally placed in Division Two.	On appeal they were finally placed in Division Two.	1630853	1471970914880	1471970915080	SHIFT	16
3223	34195	On appeal they were finally placed in Division Two.	On appeal they were finally placed in Division Two.	1630883	1471970915035	1471970915189	D	68
3223	34195	On appeal they were finally placed in Division Two.	On appeal they were finally placed in Division Two.	1630885	1471970915224	1471970915379	i	73
3223	34195	On appeal they were finally placed in Division Two.	On appeal they were finally placed in Division Two.	1630892	1471970915399	1471970915562	v	86
3223	34195	On appeal they were finally placed in Division Two.	On appeal they were finally placed in Division Two.	1630897	1471970915554	1471970915709	i	73
3223	34195	On appeal they were finally placed in Division Two.	On appeal they were finally placed in Division Two.	1630901	1471970916018	1471970916163	s	83
3223	34195	On appeal they were finally placed in Division Two.	On appeal they were finally placed in Division Two.	1630971	1471970916154	1471970916264	i	73
3223	34195	On appeal they were finally placed in Division Two.	On appeal they were finally placed in Division Two.	1630973	1471970916357	1471970916466	i	73
3223	34195	On appeal they were finally placed in Division Two.	On appeal they were finally placed in Division Two.	1630976	1471970916515	1471970916684	o	79
3223	34195	On appeal they were finally placed in Division Two.	On appeal they were finally placed in Division Two.	1630980	1471970917044	1471970917173	BKSP	8
3223	34195	On appeal they were finally placed in Division Two.	On appeal they were finally placed in Division Two.	1630982	1471970917234	1471970917342	BKSP	8
3223	34195	On appeal they were finally placed in Division Two.	On appeal they were finally placed in Division Two.	1630984	1471970917416	1471970917553	o	79
3223	34195	On appeal they were finally placed in Division Two.	On appeal they were finally placed in Division Two.	1630987	1471970917617	1471970917752	n	78
3223	34195	On appeal they were finally placed in Division Two.	On appeal they were finally placed in Division Two.	1631079	1471970917687	1471970917828	 	32
3223	34195	On appeal they were finally placed in Division Two.	On appeal they were finally placed in Division Two.	1631081	1471970917926	1471970918122	SHIFT	16
3223	34195	On appeal they were finally placed in Division Two.	On appeal they were finally placed in Division Two.	1631084	1471970918363	1471970918498	t	84
3223	34195	On appeal they were finally placed in Division Two.	On appeal they were finally placed in Division Two.	1631094	1471970918530	1471970919343	SHIFT	16
3223	34195	On appeal they were finally placed in Division Two.	On appeal they were finally placed in Division Two.	1631087	1471970918886	1471970919041	BKSP	8
3223	34195	On appeal they were finally placed in Division Two.	On appeal they were finally placed in Division Two.	1631090	1471970919154	1471970919309	T	84
3223	34195	On appeal they were finally placed in Division Two.	On appeal they were finally placed in Division Two.	1631098	1471970919617	1471970919728	w	87
3223	34195	On appeal they were finally placed in Division Two.	On appeal they were finally placed in Division Two.	1631101	1471970919801	1471970919947	o	79
3223	34195	On appeal they were finally placed in Division Two.	On appeal they were finally placed in Division Two.	1631102	1471970920096	1471970920290	.	190
3223	34210	I will add this to the folder and let you know when we get into it.	I Will add this to the fold and let you know when we get into it.	1631287	1471970922055	1471970922411	SHIFT	16
3223	34210	I will add this to the folder and let you know when we get into it.	I Will add this to the fold and let you know when we get into it.	1631284	1471970922276	1471970922361	W	87
3223	34210	I will add this to the folder and let you know when we get into it.	I Will add this to the fold and let you know when we get into it.	1631290	1471970922502	1471970922649	 	32
3223	34210	I will add this to the folder and let you know when we get into it.	I Will add this to the fold and let you know when we get into it.	1631294	1471970922780	1471970923030	SHIFT	16
3223	34210	I will add this to the folder and let you know when we get into it.	I Will add this to the fold and let you know when we get into it.	1631298	1471970922931	1471970923039	W	87
3223	34210	I will add this to the folder and let you know when we get into it.	I Will add this to the fold and let you know when we get into it.	1631303	1471970923162	1471970923245	BKSP	8
3223	34210	I will add this to the folder and let you know when we get into it.	I Will add this to the fold and let you know when we get into it.	1631309	1471970923312	1471970923385	BKSP	8
3223	34210	I will add this to the folder and let you know when we get into it.	I Will add this to the fold and let you know when we get into it.	1631314	1471970923436	1471970923538	BKSP	8
3223	34210	I will add this to the folder and let you know when we get into it.	I Will add this to the fold and let you know when we get into it.	1631317	1471970923617	1471970923712	BKSP	8
3223	34210	I will add this to the folder and let you know when we get into it.	I Will add this to the fold and let you know when we get into it.	1631320	1471970923727	1471970923824	i	73
3223	34210	I will add this to the folder and let you know when we get into it.	I Will add this to the fold and let you know when we get into it.	1631377	1471970923913	1471970924521	SHIFT	16
3223	34210	I will add this to the folder and let you know when we get into it.	I Will add this to the fold and let you know when we get into it.	1631323	1471970924129	1471970924277	BKSP	8
3223	34210	I will add this to the folder and let you know when we get into it.	I Will add this to the fold and let you know when we get into it.	1631324	1471970924362	1471970924478	I	73
3223	34210	I will add this to the folder and let you know when we get into it.	I Will add this to the fold and let you know when we get into it.	1631378	1471970924501	1471970924625	 	32
3223	34210	I will add this to the folder and let you know when we get into it.	I Will add this to the fold and let you know when we get into it.	1631379	1471970924837	1471970925103	SHIFT	16
3223	34210	I will add this to the folder and let you know when we get into it.	I Will add this to the fold and let you know when we get into it.	1631380	1471970925006	1471970925112	I	87
3223	34210	I will add this to the folder and let you know when we get into it.	I Will add this to the fold and let you know when we get into it.	1631382	1471970925509	1471970925640	BKSP	8
3223	34210	I will add this to the folder and let you know when we get into it.	I Will add this to the fold and let you know when we get into it.	1631384	1471970925942	1471970926060	i	73
3223	34210	I will add this to the folder and let you know when we get into it.	I Will add this to the fold and let you know when we get into it.	1631387	1471970926158	1471970926259	l	76
3223	34210	I will add this to the folder and let you know when we get into it.	I Will add this to the fold and let you know when we get into it.	1631414	1471970926307	1471970926403	l	76
3223	34210	I will add this to the folder and let you know when we get into it.	I Will add this to the fold and let you know when we get into it.	1631417	1471970926401	1471970926496	s	83
3223	34210	I will add this to the folder and let you know when we get into it.	I Will add this to the fold and let you know when we get into it.	1631419	1471970926737	1471970926908	BKSP	8
3223	34210	I will add this to the folder and let you know when we get into it.	I Will add this to the fold and let you know when we get into it.	1631421	1471970926885	1471970927024	 	32
3223	34210	I will add this to the folder and let you know when we get into it.	I Will add this to the fold and let you know when we get into it.	1631423	1471970927078	1471970927229	a	65
3223	34210	I will add this to the folder and let you know when we get into it.	I Will add this to the fold and let you know when we get into it.	1631425	1471970927312	1471970927417	d	68
3223	34210	I will add this to the folder and let you know when we get into it.	I Will add this to the fold and let you know when we get into it.	1631455	1471970927476	1471970927598	d	68
3223	34210	I will add this to the folder and let you know when we get into it.	I Will add this to the fold and let you know when we get into it.	1631456	1471970927589	1471970927685	 	32
3223	34210	I will add this to the folder and let you know when we get into it.	I Will add this to the fold and let you know when we get into it.	1631457	1471970927704	1471970927847	t	84
3223	34210	I will add this to the folder and let you know when we get into it.	I Will add this to the fold and let you know when we get into it.	1631459	1471970928518	1471970928651	h	72
3223	34210	I will add this to the folder and let you know when we get into it.	I Will add this to the fold and let you know when we get into it.	1631461	1471970928715	1471970928820	i	73
3223	34210	I will add this to the folder and let you know when we get into it.	I Will add this to the fold and let you know when we get into it.	1631511	1471970928815	1471970928955	s	83
3223	34210	I will add this to the folder and let you know when we get into it.	I Will add this to the fold and let you know when we get into it.	1631514	1471970928995	1471970929122	 	32
3223	34210	I will add this to the folder and let you know when we get into it.	I Will add this to the fold and let you know when we get into it.	1631517	1471970929166	1471970929292	t	84
3223	34210	I will add this to the folder and let you know when we get into it.	I Will add this to the fold and let you know when we get into it.	1631519	1471970929297	1471970929457	o	79
3223	34210	I will add this to the folder and let you know when we get into it.	I Will add this to the fold and let you know when we get into it.	1631523	1471970929491	1471970929623	 	32
3223	34210	I will add this to the folder and let you know when we get into it.	I Will add this to the fold and let you know when we get into it.	1631526	1471970929764	1471970929903	t	84
3223	34210	I will add this to the folder and let you know when we get into it.	I Will add this to the fold and let you know when we get into it.	1631614	1471970929900	1471970930022	h	72
3223	34210	I will add this to the folder and let you know when we get into it.	I Will add this to the fold and let you know when we get into it.	1631616	1471970929968	1471970930121	e	69
3223	34210	I will add this to the folder and let you know when we get into it.	I Will add this to the fold and let you know when we get into it.	1631618	1471970930137	1471970930225	 	32
3223	34210	I will add this to the folder and let you know when we get into it.	I Will add this to the fold and let you know when we get into it.	1631620	1471970930439	1471970930590	g	71
3223	34210	I will add this to the folder and let you know when we get into it.	I Will add this to the fold and let you know when we get into it.	1631623	1471970930613	1471970930761	o	79
3223	34210	I will add this to the folder and let you know when we get into it.	I Will add this to the fold and let you know when we get into it.	1631625	1471970930904	1471970931020	BKSP	8
3223	34210	I will add this to the folder and let you know when we get into it.	I Will add this to the fold and let you know when we get into it.	1631627	1471970931040	1471970931156	BKSP	8
3223	34210	I will add this to the folder and let you know when we get into it.	I Will add this to the fold and let you know when we get into it.	1631631	1471970931675	1471970931796	f	70
3223	34210	I will add this to the folder and let you know when we get into it.	I Will add this to the fold and let you know when we get into it.	1631672	1471970931866	1471970931983	o	79
3223	34210	I will add this to the folder and let you know when we get into it.	I Will add this to the fold and let you know when we get into it.	1631673	1471970932047	1471970932195	l	76
3223	34210	I will add this to the folder and let you know when we get into it.	I Will add this to the fold and let you know when we get into it.	1631674	1471970932161	1471970932287	d	68
3223	34210	I will add this to the folder and let you know when we get into it.	I Will add this to the fold and let you know when we get into it.	1631675	1471970932361	1471970932486	 	32
3223	34210	I will add this to the folder and let you know when we get into it.	I Will add this to the fold and let you know when we get into it.	1631678	1471970932690	1471970932853	a	65
3223	34210	I will add this to the folder and let you know when we get into it.	I Will add this to the fold and let you know when we get into it.	1631763	1471970932827	1471970932956	n	78
3223	34210	I will add this to the folder and let you know when we get into it.	I Will add this to the fold and let you know when we get into it.	1631765	1471970932953	1471970933099	d	68
3223	34210	I will add this to the folder and let you know when we get into it.	I Will add this to the fold and let you know when we get into it.	1631766	1471970934460	1471970934579	 	32
3223	34210	I will add this to the folder and let you know when we get into it.	I Will add this to the fold and let you know when we get into it.	1631767	1471970934752	1471970934882	l	76
3223	34210	I will add this to the folder and let you know when we get into it.	I Will add this to the fold and let you know when we get into it.	1631768	1471970934889	1471970935030	e	69
3223	34210	I will add this to the folder and let you know when we get into it.	I Will add this to the fold and let you know when we get into it.	1631769	1471970935059	1471970935211	t	84
3223	34210	I will add this to the folder and let you know when we get into it.	I Will add this to the fold and let you know when we get into it.	1631785	1471970935219	1471970935332	 	32
3223	34210	I will add this to the folder and let you know when we get into it.	I Will add this to the fold and let you know when we get into it.	1631788	1471970935413	1471970935543	y	89
3223	34210	I will add this to the folder and let you know when we get into it.	I Will add this to the fold and let you know when we get into it.	1631792	1471970935507	1471970935651	o	79
3223	34210	I will add this to the folder and let you know when we get into it.	I Will add this to the fold and let you know when we get into it.	1631797	1471970935695	1471970935844	u	85
3223	34210	I will add this to the folder and let you know when we get into it.	I Will add this to the fold and let you know when we get into it.	1631824	1471970935826	1471970935971	 	32
3223	34210	I will add this to the folder and let you know when we get into it.	I Will add this to the fold and let you know when we get into it.	1631825	1471970935942	1471970936061	k	75
3223	34210	I will add this to the folder and let you know when we get into it.	I Will add this to the fold and let you know when we get into it.	1631827	1471970936112	1471970936226	n	78
3223	34210	I will add this to the folder and let you know when we get into it.	I Will add this to the fold and let you know when we get into it.	1631831	1471970936255	1471970936355	o	79
3223	34210	I will add this to the folder and let you know when we get into it.	I Will add this to the fold and let you know when we get into it.	1631834	1471970936360	1471970936472	w	87
3223	34210	I will add this to the folder and let you know when we get into it.	I Will add this to the fold and let you know when we get into it.	1631838	1471970936481	1471970936577	 	32
3223	34210	I will add this to the folder and let you know when we get into it.	I Will add this to the fold and let you know when we get into it.	1631847	1471970936606	1471970936743	w	87
3223	34210	I will add this to the folder and let you know when we get into it.	I Will add this to the fold and let you know when we get into it.	1631848	1471970936679	1471970936795	h	72
3223	34210	I will add this to the folder and let you know when we get into it.	I Will add this to the fold and let you know when we get into it.	1631849	1471970936840	1471970936965	e	69
3223	34210	I will add this to the folder and let you know when we get into it.	I Will add this to the fold and let you know when we get into it.	1631850	1471970936921	1471970937032	n	78
3223	34210	I will add this to the folder and let you know when we get into it.	I Will add this to the fold and let you know when we get into it.	1631878	1471970937030	1471970937146	 	32
3223	34210	I will add this to the folder and let you know when we get into it.	I Will add this to the fold and let you know when we get into it.	1631880	1471970937240	1471970937382	w	87
3223	34210	I will add this to the folder and let you know when we get into it.	I Will add this to the fold and let you know when we get into it.	1631882	1471970937358	1471970937506	e	69
3223	34210	I will add this to the folder and let you know when we get into it.	I Will add this to the fold and let you know when we get into it.	1631885	1471970937513	1471970937618	 	32
3223	34210	I will add this to the folder and let you know when we get into it.	I Will add this to the fold and let you know when we get into it.	1631889	1471970937716	1471970937845	g	71
3223	34210	I will add this to the folder and let you know when we get into it.	I Will add this to the fold and let you know when we get into it.	1631892	1471970937890	1471970938028	e	69
3223	34210	I will add this to the folder and let you know when we get into it.	I Will add this to the fold and let you know when we get into it.	1631925	1471970938104	1471970938249	t	84
3223	34210	I will add this to the folder and let you know when we get into it.	I Will add this to the fold and let you know when we get into it.	1631928	1471970938275	1471970938424	 	32
3223	34210	I will add this to the folder and let you know when we get into it.	I Will add this to the fold and let you know when we get into it.	1631932	1471970938491	1471970938546	i	73
3223	34210	I will add this to the folder and let you know when we get into it.	I Will add this to the fold and let you know when we get into it.	1631938	1471970938606	1471970938741	n	78
3223	34210	I will add this to the folder and let you know when we get into it.	I Will add this to the fold and let you know when we get into it.	1631966	1471970938737	1471970938870	t	84
3223	34210	I will add this to the folder and let you know when we get into it.	I Will add this to the fold and let you know when we get into it.	1631967	1471970938815	1471970938962	o	79
3223	34210	I will add this to the folder and let you know when we get into it.	I Will add this to the fold and let you know when we get into it.	1631968	1471970938959	1471970939079	 	32
3223	34210	I will add this to the folder and let you know when we get into it.	I Will add this to the fold and let you know when we get into it.	1631969	1471970939077	1471970939226	i	73
3223	34210	I will add this to the folder and let you know when we get into it.	I Will add this to the fold and let you know when we get into it.	1631971	1471970939242	1471970939392	t	84
3223	34210	I will add this to the folder and let you know when we get into it.	I Will add this to the fold and let you know when we get into it.	1631974	1471970939633	1471970939754	.	190
