PARTICIPANT_ID	TEST_SECTION_ID	SENTENCE	USER_INPUT	KEYSTROKE_ID	PRESS_TIME	RELEASE_TIME	LETTER	KEYCODE
3270	34419	Binoche welcomed the movie industry to the French riviera.	binoche welcomed the movie industry to the french riviera.	1641287	1471971105846	1471971105929	b	66
3270	34419	Binoche welcomed the movie industry to the French riviera.	binoche welcomed the movie industry to the french riviera.	1641289	1471971106036	1471971106120	i	73
3270	34419	Binoche welcomed the movie industry to the French riviera.	binoche welcomed the movie industry to the french riviera.	1641291	1471971108810	1471971108952	n	78
3270	34419	Binoche welcomed the movie industry to the French riviera.	binoche welcomed the movie industry to the french riviera.	1641297	1471971109237	1471971109343	o	79
3270	34419	Binoche welcomed the movie industry to the French riviera.	binoche welcomed the movie industry to the french riviera.	1641300	1471971110174	1471971110273	c	67
3270	34419	Binoche welcomed the movie industry to the French riviera.	binoche welcomed the movie industry to the french riviera.	1641358	1471971110286	1471971110416	h	72
3270	34419	Binoche welcomed the movie industry to the French riviera.	binoche welcomed the movie industry to the french riviera.	1641361	1471971110466	1471971110563	e	69
3270	34419	Binoche welcomed the movie industry to the French riviera.	binoche welcomed the movie industry to the french riviera.	1641364	1471971110608	1471971110749	 	32
3270	34419	Binoche welcomed the movie industry to the French riviera.	binoche welcomed the movie industry to the french riviera.	1641367	1471971111177	1471971111262	w	87
3270	34419	Binoche welcomed the movie industry to the French riviera.	binoche welcomed the movie industry to the french riviera.	1641369	1471971111418	1471971111488	e	69
3270	34419	Binoche welcomed the movie industry to the French riviera.	binoche welcomed the movie industry to the french riviera.	1641396	1471971111587	1471971111725	l	76
3270	34419	Binoche welcomed the movie industry to the French riviera.	binoche welcomed the movie industry to the french riviera.	1641398	1471971111847	1471971111914	c	67
3270	34419	Binoche welcomed the movie industry to the French riviera.	binoche welcomed the movie industry to the french riviera.	1641400	1471971111932	1471971112024	o	79
3270	34419	Binoche welcomed the movie industry to the French riviera.	binoche welcomed the movie industry to the french riviera.	1641403	1471971112127	1471971112236	m	77
3270	34419	Binoche welcomed the movie industry to the French riviera.	binoche welcomed the movie industry to the french riviera.	1641405	1471971112267	1471971112332	e	69
3270	34419	Binoche welcomed the movie industry to the French riviera.	binoche welcomed the movie industry to the french riviera.	1641435	1471971112432	1471971112529	d	68
3270	34419	Binoche welcomed the movie industry to the French riviera.	binoche welcomed the movie industry to the french riviera.	1641437	1471971112583	1471971112704	 	32
3270	34419	Binoche welcomed the movie industry to the French riviera.	binoche welcomed the movie industry to the french riviera.	1641441	1471971113121	1471971113198	t	84
3270	34419	Binoche welcomed the movie industry to the French riviera.	binoche welcomed the movie industry to the french riviera.	1641445	1471971113219	1471971113306	h	72
3270	34419	Binoche welcomed the movie industry to the French riviera.	binoche welcomed the movie industry to the french riviera.	1641450	1471971113341	1471971113407	e	69
3270	34419	Binoche welcomed the movie industry to the French riviera.	binoche welcomed the movie industry to the french riviera.	1641509	1471971113439	1471971113548	 	32
3270	34419	Binoche welcomed the movie industry to the French riviera.	binoche welcomed the movie industry to the french riviera.	1641514	1471971113707	1471971113790	m	77
3270	34419	Binoche welcomed the movie industry to the French riviera.	binoche welcomed the movie industry to the french riviera.	1641518	1471971114064	1471971114159	o	79
3270	34419	Binoche welcomed the movie industry to the French riviera.	binoche welcomed the movie industry to the french riviera.	1641524	1471971114311	1471971114387	v	86
3270	34419	Binoche welcomed the movie industry to the French riviera.	binoche welcomed the movie industry to the french riviera.	1641530	1471971114396	1471971114518	i	73
3270	34419	Binoche welcomed the movie industry to the French riviera.	binoche welcomed the movie industry to the french riviera.	1641586	1471971114558	1471971114640	e	69
3270	34419	Binoche welcomed the movie industry to the French riviera.	binoche welcomed the movie industry to the french riviera.	1641589	1471971114708	1471971114846	 	32
3270	34419	Binoche welcomed the movie industry to the French riviera.	binoche welcomed the movie industry to the french riviera.	1641592	1471971115324	1471971115405	i	73
3270	34419	Binoche welcomed the movie industry to the French riviera.	binoche welcomed the movie industry to the french riviera.	1641595	1471971115511	1471971115607	n	78
3270	34419	Binoche welcomed the movie industry to the French riviera.	binoche welcomed the movie industry to the french riviera.	1641597	1471971115729	1471971115805	d	68
3270	34419	Binoche welcomed the movie industry to the French riviera.	binoche welcomed the movie industry to the french riviera.	1641644	1471971116023	1471971116127	u	85
3270	34419	Binoche welcomed the movie industry to the French riviera.	binoche welcomed the movie industry to the french riviera.	1641648	1471971116244	1471971116333	s	83
3270	34419	Binoche welcomed the movie industry to the French riviera.	binoche welcomed the movie industry to the french riviera.	1641651	1471971116504	1471971116574	t	84
3270	34419	Binoche welcomed the movie industry to the French riviera.	binoche welcomed the movie industry to the french riviera.	1641655	1471971116665	1471971116739	r	82
3270	34419	Binoche welcomed the movie industry to the French riviera.	binoche welcomed the movie industry to the french riviera.	1641657	1471971116842	1471971116920	y	89
3270	34419	Binoche welcomed the movie industry to the French riviera.	binoche welcomed the movie industry to the french riviera.	1641695	1471971116987	1471971117122	 	32
3270	34419	Binoche welcomed the movie industry to the French riviera.	binoche welcomed the movie industry to the french riviera.	1641696	1471971117408	1471971117503	t	84
3270	34419	Binoche welcomed the movie industry to the French riviera.	binoche welcomed the movie industry to the french riviera.	1641697	1471971117507	1471971117590	h	72
3270	34419	Binoche welcomed the movie industry to the French riviera.	binoche welcomed the movie industry to the french riviera.	1641698	1471971117665	1471971117770	 	32
3270	34419	Binoche welcomed the movie industry to the French riviera.	binoche welcomed the movie industry to the french riviera.	1641699	1471971117840	1471971117896	o	84
3270	34419	Binoche welcomed the movie industry to the French riviera.	binoche welcomed the movie industry to the french riviera.	1641780	1471971118084	1471971118167	h	72
3270	34419	Binoche welcomed the movie industry to the French riviera.	binoche welcomed the movie industry to the french riviera.	1641783	1471971118513	1471971118592	BKSP	8
3270	34419	Binoche welcomed the movie industry to the French riviera.	binoche welcomed the movie industry to the french riviera.	1641788	1471971118681	1471971118774	BKSP	8
3270	34419	Binoche welcomed the movie industry to the French riviera.	binoche welcomed the movie industry to the french riviera.	1641792	1471971118966	1471971119043	BKSP	8
3270	34419	Binoche welcomed the movie industry to the French riviera.	binoche welcomed the movie industry to the french riviera.	1641796	1471971119111	1471971119198	BKSP	8
3270	34419	Binoche welcomed the movie industry to the French riviera.	binoche welcomed the movie industry to the french riviera.	1641800	1471971119281	1471971119393	BKSP	8
3270	34419	Binoche welcomed the movie industry to the French riviera.	binoche welcomed the movie industry to the french riviera.	1641802	1471971119689	1471971119792	o	79
3270	34419	Binoche welcomed the movie industry to the French riviera.	binoche welcomed the movie industry to the french riviera.	1641804	1471971119815	1471971119910	 	32
3270	34419	Binoche welcomed the movie industry to the French riviera.	binoche welcomed the movie industry to the french riviera.	1641806	1471971119977	1471971120034	t	84
3270	34419	Binoche welcomed the movie industry to the French riviera.	binoche welcomed the movie industry to the french riviera.	1641809	1471971120074	1471971120145	h	72
3270	34419	Binoche welcomed the movie industry to the French riviera.	binoche welcomed the movie industry to the french riviera.	1641838	1471971120165	1471971120244	e	69
3270	34419	Binoche welcomed the movie industry to the French riviera.	binoche welcomed the movie industry to the french riviera.	1641840	1471971120274	1471971120398	 	32
3270	34419	Binoche welcomed the movie industry to the French riviera.	binoche welcomed the movie industry to the french riviera.	1641844	1471971121204	1471971121275	f	70
3270	34419	Binoche welcomed the movie industry to the French riviera.	binoche welcomed the movie industry to the french riviera.	1641848	1471971121367	1471971121429	r	82
3270	34419	Binoche welcomed the movie industry to the French riviera.	binoche welcomed the movie industry to the french riviera.	1641851	1471971121537	1471971121624	e	69
3270	34419	Binoche welcomed the movie industry to the French riviera.	binoche welcomed the movie industry to the french riviera.	1641875	1471971121641	1471971121729	n	78
3270	34419	Binoche welcomed the movie industry to the French riviera.	binoche welcomed the movie industry to the french riviera.	1641877	1471971121805	1471971121871	c	67
3270	34419	Binoche welcomed the movie industry to the French riviera.	binoche welcomed the movie industry to the french riviera.	1641881	1471971121920	1471971122002	h	72
3270	34419	Binoche welcomed the movie industry to the French riviera.	binoche welcomed the movie industry to the french riviera.	1641885	1471971122081	1471971122189	 	32
3270	34419	Binoche welcomed the movie industry to the French riviera.	binoche welcomed the movie industry to the french riviera.	1641889	1471971122856	1471971122935	r	82
3270	34419	Binoche welcomed the movie industry to the French riviera.	binoche welcomed the movie industry to the french riviera.	1641969	1471971123044	1471971123158	i	73
3270	34419	Binoche welcomed the movie industry to the French riviera.	binoche welcomed the movie industry to the french riviera.	1641971	1471971125245	1471971125313	v	86
3270	34419	Binoche welcomed the movie industry to the French riviera.	binoche welcomed the movie industry to the french riviera.	1641973	1471971125366	1471971125479	i	73
3270	34419	Binoche welcomed the movie industry to the French riviera.	binoche welcomed the movie industry to the french riviera.	1641975	1471971125733	1471971125824	e	69
3270	34419	Binoche welcomed the movie industry to the French riviera.	binoche welcomed the movie industry to the french riviera.	1641977	1471971125936	1471971126013	r	82
3270	34419	Binoche welcomed the movie industry to the French riviera.	binoche welcomed the movie industry to the french riviera.	1642123	1471971126061	1471971126170	i	73
3270	34419	Binoche welcomed the movie industry to the French riviera.	binoche welcomed the movie industry to the french riviera.	1642126	1471971126277	1471971126389	a	65
3270	34419	Binoche welcomed the movie industry to the French riviera.	binoche welcomed the movie industry to the french riviera.	1642128	1471971126646	1471971126751	BKSP	8
3270	34419	Binoche welcomed the movie industry to the French riviera.	binoche welcomed the movie industry to the french riviera.	1642130	1471971126829	1471971126921	BKSP	8
3270	34419	Binoche welcomed the movie industry to the French riviera.	binoche welcomed the movie industry to the french riviera.	1642132	1471971127422	1471971127502	a	65
3270	34419	Binoche welcomed the movie industry to the French riviera.	binoche welcomed the movie industry to the french riviera.	1642136	1471971128283	1471971128356	.	190
3270	34419	Binoche welcomed the movie industry to the French riviera.	binoche welcomed the movie industry to the french riviera.	1642141	1471971129033	1471971129163	HOME	36
3270	34438	Liverpool always had a knack of bringing people down to earth.	liverpool always had a knack of bringing people down to earth.	1642229	1471971132182	1471971132263	l	76
3270	34438	Liverpool always had a knack of bringing people down to earth.	liverpool always had a knack of bringing people down to earth.	1642231	1471971132358	1471971132434	i	73
3270	34438	Liverpool always had a knack of bringing people down to earth.	liverpool always had a knack of bringing people down to earth.	1642233	1471971132554	1471971132668	c	67
3270	34438	Liverpool always had a knack of bringing people down to earth.	liverpool always had a knack of bringing people down to earth.	1642235	1471971132782	1471971132924	BKSP	8
3270	34438	Liverpool always had a knack of bringing people down to earth.	liverpool always had a knack of bringing people down to earth.	1642236	1471971132949	1471971133009	v	86
3270	34438	Liverpool always had a knack of bringing people down to earth.	liverpool always had a knack of bringing people down to earth.	1642238	1471971133140	1471971133213	e	69
3270	34438	Liverpool always had a knack of bringing people down to earth.	liverpool always had a knack of bringing people down to earth.	1642301	1471971133577	1471971133653	r	82
3270	34438	Liverpool always had a knack of bringing people down to earth.	liverpool always had a knack of bringing people down to earth.	1642303	1471971133801	1471971133888	p	80
3270	34438	Liverpool always had a knack of bringing people down to earth.	liverpool always had a knack of bringing people down to earth.	1642306	1471971134012	1471971134124	a	65
3270	34438	Liverpool always had a knack of bringing people down to earth.	liverpool always had a knack of bringing people down to earth.	1642307	1471971134582	1471971134717	BKSP	8
3270	34438	Liverpool always had a knack of bringing people down to earth.	liverpool always had a knack of bringing people down to earth.	1642308	1471971134836	1471971134910	o	79
3270	34438	Liverpool always had a knack of bringing people down to earth.	liverpool always had a knack of bringing people down to earth.	1642310	1471971135029	1471971135080	o	79
3270	34438	Liverpool always had a knack of bringing people down to earth.	liverpool always had a knack of bringing people down to earth.	1642343	1471971135191	1471971135299	l	76
3270	34438	Liverpool always had a knack of bringing people down to earth.	liverpool always had a knack of bringing people down to earth.	1642346	1471971135394	1471971135549	 	32
3270	34438	Liverpool always had a knack of bringing people down to earth.	liverpool always had a knack of bringing people down to earth.	1642349	1471971135822	1471971135886	a	65
3270	34438	Liverpool always had a knack of bringing people down to earth.	liverpool always had a knack of bringing people down to earth.	1642351	1471971135904	1471971136012	l	76
3270	34438	Liverpool always had a knack of bringing people down to earth.	liverpool always had a knack of bringing people down to earth.	1642353	1471971136062	1471971136112	w	87
3270	34438	Liverpool always had a knack of bringing people down to earth.	liverpool always had a knack of bringing people down to earth.	1642392	1471971136222	1471971136310	a	65
3270	34438	Liverpool always had a knack of bringing people down to earth.	liverpool always had a knack of bringing people down to earth.	1642394	1471971136312	1471971136421	y	89
3270	34438	Liverpool always had a knack of bringing people down to earth.	liverpool always had a knack of bringing people down to earth.	1642395	1471971136426	1471971136488	s	83
3270	34438	Liverpool always had a knack of bringing people down to earth.	liverpool always had a knack of bringing people down to earth.	1642397	1471971136496	1471971136631	 	32
3270	34438	Liverpool always had a knack of bringing people down to earth.	liverpool always had a knack of bringing people down to earth.	1642398	1471971137428	1471971137550	h	72
3270	34438	Liverpool always had a knack of bringing people down to earth.	liverpool always had a knack of bringing people down to earth.	1642430	1471971137540	1471971137626	a	65
3270	34438	Liverpool always had a knack of bringing people down to earth.	liverpool always had a knack of bringing people down to earth.	1642431	1471971137744	1471971137815	d	68
3270	34438	Liverpool always had a knack of bringing people down to earth.	liverpool always had a knack of bringing people down to earth.	1642432	1471971137860	1471971137986	 	32
3270	34438	Liverpool always had a knack of bringing people down to earth.	liverpool always had a knack of bringing people down to earth.	1642433	1471971138027	1471971138118	a	65
3270	34438	Liverpool always had a knack of bringing people down to earth.	liverpool always had a knack of bringing people down to earth.	1642434	1471971138170	1471971138303	 	32
3270	34438	Liverpool always had a knack of bringing people down to earth.	liverpool always had a knack of bringing people down to earth.	1642435	1471971138728	1471971138822	k	75
3270	34438	Liverpool always had a knack of bringing people down to earth.	liverpool always had a knack of bringing people down to earth.	1642466	1471971138927	1471971139020	n	78
3270	34438	Liverpool always had a knack of bringing people down to earth.	liverpool always had a knack of bringing people down to earth.	1642467	1471971139083	1471971139157	a	65
3270	34438	Liverpool always had a knack of bringing people down to earth.	liverpool always had a knack of bringing people down to earth.	1642468	1471971139315	1471971139350	c	67
3270	34438	Liverpool always had a knack of bringing people down to earth.	liverpool always had a knack of bringing people down to earth.	1642469	1471971139540	1471971139585	c	67
3270	34438	Liverpool always had a knack of bringing people down to earth.	liverpool always had a knack of bringing people down to earth.	1642470	1471971140190	1471971140299	=	187
3270	34438	Liverpool always had a knack of bringing people down to earth.	liverpool always had a knack of bringing people down to earth.	1642539	1471971140409	1471971140535	k	75
3270	34438	Liverpool always had a knack of bringing people down to earth.	liverpool always had a knack of bringing people down to earth.	1642540	1471971140625	1471971140747	 	32
3270	34438	Liverpool always had a knack of bringing people down to earth.	liverpool always had a knack of bringing people down to earth.	1642544	1471971140836	1471971140915	BKSP	8
3270	34438	Liverpool always had a knack of bringing people down to earth.	liverpool always had a knack of bringing people down to earth.	1642547	1471971140988	1471971141063	BKSP	8
3270	34438	Liverpool always had a knack of bringing people down to earth.	liverpool always had a knack of bringing people down to earth.	1642550	1471971141138	1471971141219	BKSP	8
3270	34438	Liverpool always had a knack of bringing people down to earth.	liverpool always had a knack of bringing people down to earth.	1642554	1471971141300	1471971141428	BKSP	8
3270	34438	Liverpool always had a knack of bringing people down to earth.	liverpool always had a knack of bringing people down to earth.	1642558	1471971141787	1471971141905	k	75
3270	34438	Liverpool always had a knack of bringing people down to earth.	liverpool always had a knack of bringing people down to earth.	1642560	1471971141942	1471971142079	 	32
3270	34438	Liverpool always had a knack of bringing people down to earth.	liverpool always had a knack of bringing people down to earth.	1642564	1471971142595	1471971142680	o	79
3270	34438	Liverpool always had a knack of bringing people down to earth.	liverpool always had a knack of bringing people down to earth.	1642592	1471971142751	1471971142825	f	70
3270	34438	Liverpool always had a knack of bringing people down to earth.	liverpool always had a knack of bringing people down to earth.	1642593	1471971142840	1471971142972	 	32
3270	34438	Liverpool always had a knack of bringing people down to earth.	liverpool always had a knack of bringing people down to earth.	1642594	1471971143084	1471971143130	b	66
3270	34438	Liverpool always had a knack of bringing people down to earth.	liverpool always had a knack of bringing people down to earth.	1642595	1471971143462	1471971143551	r	82
3270	34438	Liverpool always had a knack of bringing people down to earth.	liverpool always had a knack of bringing people down to earth.	1642596	1471971143629	1471971143753	i	73
3270	34438	Liverpool always had a knack of bringing people down to earth.	liverpool always had a knack of bringing people down to earth.	1642631	1471971144288	1471971144370	n	78
3270	34438	Liverpool always had a knack of bringing people down to earth.	liverpool always had a knack of bringing people down to earth.	1642633	1471971144417	1471971144506	i	73
3270	34438	Liverpool always had a knack of bringing people down to earth.	liverpool always had a knack of bringing people down to earth.	1642635	1471971144521	1471971144593	g	71
3270	34438	Liverpool always had a knack of bringing people down to earth.	liverpool always had a knack of bringing people down to earth.	1642637	1471971144637	1471971144712	i	73
3270	34438	Liverpool always had a knack of bringing people down to earth.	liverpool always had a knack of bringing people down to earth.	1642638	1471971144719	1471971144786	n	78
3270	34438	Liverpool always had a knack of bringing people down to earth.	liverpool always had a knack of bringing people down to earth.	1642826	1471971144873	1471971144951	 	32
3270	34438	Liverpool always had a knack of bringing people down to earth.	liverpool always had a knack of bringing people down to earth.	1642828	1471971144917	1471971144977	g	71
3270	34438	Liverpool always had a knack of bringing people down to earth.	liverpool always had a knack of bringing people down to earth.	1642831	1471971145359	1471971145418	BKSP	8
3270	34438	Liverpool always had a knack of bringing people down to earth.	liverpool always had a knack of bringing people down to earth.	1642833	1471971145503	1471971145591	BKSP	8
3270	34438	Liverpool always had a knack of bringing people down to earth.	liverpool always had a knack of bringing people down to earth.	1642836	1471971145812	1471971145905	g	71
3270	34438	Liverpool always had a knack of bringing people down to earth.	liverpool always had a knack of bringing people down to earth.	1642839	1471971145947	1471971146096	 	32
3270	34438	Liverpool always had a knack of bringing people down to earth.	liverpool always had a knack of bringing people down to earth.	1642841	1471971146747	1471971146840	BKSP	8
3270	34438	Liverpool always had a knack of bringing people down to earth.	liverpool always had a knack of bringing people down to earth.	1642843	1471971146923	1471971147008	BKSP	8
3270	34438	Liverpool always had a knack of bringing people down to earth.	liverpool always had a knack of bringing people down to earth.	1642849	1471971148296	1471971148382	BKSP	8
3270	34438	Liverpool always had a knack of bringing people down to earth.	liverpool always had a knack of bringing people down to earth.	1642853	1471971148472	1471971148546	BKSP	8
3270	34438	Liverpool always had a knack of bringing people down to earth.	liverpool always had a knack of bringing people down to earth.	1642859	1471971148638	1471971148688	BKSP	8
3270	34438	Liverpool always had a knack of bringing people down to earth.	liverpool always had a knack of bringing people down to earth.	1642865	1471971148787	1471971148877	BKSP	8
3270	34438	Liverpool always had a knack of bringing people down to earth.	liverpool always had a knack of bringing people down to earth.	1642867	1471971149858	1471971149944	g	71
3270	34438	Liverpool always had a knack of bringing people down to earth.	liverpool always had a knack of bringing people down to earth.	1642917	1471971150217	1471971150325	i	73
3270	34438	Liverpool always had a knack of bringing people down to earth.	liverpool always had a knack of bringing people down to earth.	1642918	1471971150403	1471971150492	n	78
3270	34438	Liverpool always had a knack of bringing people down to earth.	liverpool always had a knack of bringing people down to earth.	1642919	1471971150611	1471971150694	g	71
3270	34438	Liverpool always had a knack of bringing people down to earth.	liverpool always had a knack of bringing people down to earth.	1642920	1471971150781	1471971150899	 	32
3270	34438	Liverpool always had a knack of bringing people down to earth.	liverpool always had a knack of bringing people down to earth.	1642921	1471971151730	1471971151827	p	80
3270	34438	Liverpool always had a knack of bringing people down to earth.	liverpool always had a knack of bringing people down to earth.	1642970	1471971152003	1471971152046	r	82
3270	34438	Liverpool always had a knack of bringing people down to earth.	liverpool always had a knack of bringing people down to earth.	1642972	1471971152342	1471971152482	BKSP	8
3270	34438	Liverpool always had a knack of bringing people down to earth.	liverpool always had a knack of bringing people down to earth.	1642975	1471971152502	1471971152587	e	69
3270	34438	Liverpool always had a knack of bringing people down to earth.	liverpool always had a knack of bringing people down to earth.	1642979	1471971152628	1471971152732	o	79
3270	34438	Liverpool always had a knack of bringing people down to earth.	liverpool always had a knack of bringing people down to earth.	1642984	1471971152808	1471971152923	p	80
3270	34438	Liverpool always had a knack of bringing people down to earth.	liverpool always had a knack of bringing people down to earth.	1642990	1471971153017	1471971153139	l	76
3270	34438	Liverpool always had a knack of bringing people down to earth.	liverpool always had a knack of bringing people down to earth.	1643033	1471971153230	1471971153290	e	69
3270	34438	Liverpool always had a knack of bringing people down to earth.	liverpool always had a knack of bringing people down to earth.	1643034	1471971153751	1471971153882	 	32
3270	34438	Liverpool always had a knack of bringing people down to earth.	liverpool always had a knack of bringing people down to earth.	1643036	1471971154366	1471971154450	d	68
3270	34438	Liverpool always had a knack of bringing people down to earth.	liverpool always had a knack of bringing people down to earth.	1643038	1471971154455	1471971154555	o	79
3270	34438	Liverpool always had a knack of bringing people down to earth.	liverpool always had a knack of bringing people down to earth.	1643040	1471971154620	1471971154665	w	87
3270	34438	Liverpool always had a knack of bringing people down to earth.	liverpool always had a knack of bringing people down to earth.	1643124	1471971154720	1471971154851	n	78
3270	34438	Liverpool always had a knack of bringing people down to earth.	liverpool always had a knack of bringing people down to earth.	1643126	1471971154945	1471971155057	 	32
3270	34438	Liverpool always had a knack of bringing people down to earth.	liverpool always had a knack of bringing people down to earth.	1643128	1471971155707	1471971155788	t	84
3270	34438	Liverpool always had a knack of bringing people down to earth.	liverpool always had a knack of bringing people down to earth.	1643131	1471971155790	1471971155897	h	72
3270	34438	Liverpool always had a knack of bringing people down to earth.	liverpool always had a knack of bringing people down to earth.	1643134	1471971156453	1471971156579	BKSP	8
3270	34438	Liverpool always had a knack of bringing people down to earth.	liverpool always had a knack of bringing people down to earth.	1643136	1471971157038	1471971157181	o	79
3270	34438	Liverpool always had a knack of bringing people down to earth.	liverpool always had a knack of bringing people down to earth.	1643161	1471971157262	1471971157399	 	32
3270	34438	Liverpool always had a knack of bringing people down to earth.	liverpool always had a knack of bringing people down to earth.	1643163	1471971157777	1471971157840	e	69
3270	34438	Liverpool always had a knack of bringing people down to earth.	liverpool always had a knack of bringing people down to earth.	1643166	1471971157964	1471971158034	a	65
3270	34438	Liverpool always had a knack of bringing people down to earth.	liverpool always had a knack of bringing people down to earth.	1643167	1471971158166	1471971158227	r	82
3270	34438	Liverpool always had a knack of bringing people down to earth.	liverpool always had a knack of bringing people down to earth.	1643168	1471971158328	1471971158384	t	84
3270	34438	Liverpool always had a knack of bringing people down to earth.	liverpool always had a knack of bringing people down to earth.	1643210	1471971158439	1471971158553	h	72
3270	34438	Liverpool always had a knack of bringing people down to earth.	liverpool always had a knack of bringing people down to earth.	1643212	1471971159556	1471971159616	.	190
3270	34459	We are having fun.	we are having fun.	1643324	1471971162010	1471971162069	w	87
3270	34459	We are having fun.	we are having fun.	1643328	1471971162168	1471971162236	e	69
3270	34459	We are having fun.	we are having fun.	1643332	1471971162292	1471971162406	 	32
3270	34459	We are having fun.	we are having fun.	1643334	1471971162574	1471971162622	a	65
3270	34459	We are having fun.	we are having fun.	1643337	1471971162821	1471971162861	e	69
3270	34459	We are having fun.	we are having fun.	1643384	1471971163468	1471971163621	BKSP	8
3270	34459	We are having fun.	we are having fun.	1643386	1471971163681	1471971163743	r	82
3270	34459	We are having fun.	we are having fun.	1643388	1471971163820	1471971163918	e	69
3270	34459	We are having fun.	we are having fun.	1643391	1471971163934	1471971164083	 	32
3270	34459	We are having fun.	we are having fun.	1643392	1471971164457	1471971164555	h	72
3270	34459	We are having fun.	we are having fun.	1643395	1471971164593	1471971164668	a	65
3270	34459	We are having fun.	we are having fun.	1643432	1471971164981	1471971165052	v	86
3270	34459	We are having fun.	we are having fun.	1643436	1471971165108	1471971165202	i	73
3270	34459	We are having fun.	we are having fun.	1643440	1471971165238	1471971165289	n	78
3270	34459	We are having fun.	we are having fun.	1643443	1471971165405	1471971165467	g	71
3270	34459	We are having fun.	we are having fun.	1643448	1471971165497	1471971165626	 	32
3270	34459	We are having fun.	we are having fun.	1643531	1471971166278	1471971166361	f	70
3270	34459	We are having fun.	we are having fun.	1643534	1471971166363	1471971166451	u	85
3270	34459	We are having fun.	we are having fun.	1643538	1471971166571	1471971166703	n	78
3270	34459	We are having fun.	we are having fun.	1643541	1471971167373	1471971167479	.	190
3270	34470	They launched a counter attack and retook positions they had lost.	they launched a counter attack and retook positions they had lost.	1643693	1471971169863	1471971169903	r	82
3270	34470	They launched a counter attack and retook positions they had lost.	they launched a counter attack and retook positions they had lost.	1643694	1471971170150	1471971170306	BKSP	8
3270	34470	They launched a counter attack and retook positions they had lost.	they launched a counter attack and retook positions they had lost.	1643695	1471971170387	1471971170465	t	84
3270	34470	They launched a counter attack and retook positions they had lost.	they launched a counter attack and retook positions they had lost.	1643696	1471971170556	1471971170689	h	72
3270	34470	They launched a counter attack and retook positions they had lost.	they launched a counter attack and retook positions they had lost.	1643699	1471971171184	1471971171262	e	69
3270	34470	They launched a counter attack and retook positions they had lost.	they launched a counter attack and retook positions they had lost.	1643703	1471971171448	1471971171524	y	89
3270	34470	They launched a counter attack and retook positions they had lost.	they launched a counter attack and retook positions they had lost.	1643776	1471971171605	1471971171724	 	32
3270	34470	They launched a counter attack and retook positions they had lost.	they launched a counter attack and retook positions they had lost.	1643780	1471971172243	1471971172362	l	76
3270	34470	They launched a counter attack and retook positions they had lost.	they launched a counter attack and retook positions they had lost.	1643782	1471971172545	1471971172654	a	65
3270	34470	They launched a counter attack and retook positions they had lost.	they launched a counter attack and retook positions they had lost.	1643785	1471971172722	1471971172809	u	85
3270	34470	They launched a counter attack and retook positions they had lost.	they launched a counter attack and retook positions they had lost.	1643787	1471971172931	1471971173049	n	78
3270	34470	They launched a counter attack and retook positions they had lost.	they launched a counter attack and retook positions they had lost.	1643809	1471971173146	1471971173210	c	67
3270	34470	They launched a counter attack and retook positions they had lost.	they launched a counter attack and retook positions they had lost.	1643810	1471971173264	1471971173375	h	72
3270	34470	They launched a counter attack and retook positions they had lost.	they launched a counter attack and retook positions they had lost.	1643811	1471971173412	1471971173479	e	69
3270	34470	They launched a counter attack and retook positions they had lost.	they launched a counter attack and retook positions they had lost.	1643812	1471971173607	1471971173687	d	68
3270	34470	They launched a counter attack and retook positions they had lost.	they launched a counter attack and retook positions they had lost.	1643813	1471971173723	1471971173850	 	32
3270	34470	They launched a counter attack and retook positions they had lost.	they launched a counter attack and retook positions they had lost.	1643870	1471971174563	1471971174664	a	65
3270	34470	They launched a counter attack and retook positions they had lost.	they launched a counter attack and retook positions they had lost.	1643873	1471971174692	1471971174835	 	32
3270	34470	They launched a counter attack and retook positions they had lost.	they launched a counter attack and retook positions they had lost.	1643875	1471971174848	1471971174942	c	67
3270	34470	They launched a counter attack and retook positions they had lost.	they launched a counter attack and retook positions they had lost.	1643878	1471971174963	1471971175072	o	79
3270	34470	They launched a counter attack and retook positions they had lost.	they launched a counter attack and retook positions they had lost.	1643880	1471971175174	1471971175254	u	85
3270	34470	They launched a counter attack and retook positions they had lost.	they launched a counter attack and retook positions they had lost.	1643907	1471971175354	1471971175493	n	78
3270	34470	They launched a counter attack and retook positions they had lost.	they launched a counter attack and retook positions they had lost.	1643914	1471971175495	1471971175560	t	84
3270	34470	They launched a counter attack and retook positions they had lost.	they launched a counter attack and retook positions they had lost.	1643924	1471971175679	1471971175753	e	69
3270	34470	They launched a counter attack and retook positions they had lost.	they launched a counter attack and retook positions they had lost.	1643932	1471971175832	1471971175902	r	82
3270	34470	They launched a counter attack and retook positions they had lost.	they launched a counter attack and retook positions they had lost.	1643939	1471971175952	1471971176082	 	32
3270	34470	They launched a counter attack and retook positions they had lost.	they launched a counter attack and retook positions they had lost.	1643973	1471971176399	1471971176492	a	65
3270	34470	They launched a counter attack and retook positions they had lost.	they launched a counter attack and retook positions they had lost.	1643976	1471971176665	1471971176722	t	84
3270	34470	They launched a counter attack and retook positions they had lost.	they launched a counter attack and retook positions they had lost.	1643979	1471971176802	1471971176862	t	84
3270	34470	They launched a counter attack and retook positions they had lost.	they launched a counter attack and retook positions they had lost.	1643982	1471971177051	1471971177115	a	65
3270	34470	They launched a counter attack and retook positions they had lost.	they launched a counter attack and retook positions they had lost.	1643984	1471971177283	1471971177344	c	67
3270	34470	They launched a counter attack and retook positions they had lost.	they launched a counter attack and retook positions they had lost.	1644012	1471971177428	1471971177576	k	75
3270	34470	They launched a counter attack and retook positions they had lost.	they launched a counter attack and retook positions they had lost.	1644017	1471971177590	1471971177739	 	32
3270	34470	They launched a counter attack and retook positions they had lost.	they launched a counter attack and retook positions they had lost.	1644021	1471971178130	1471971178205	a	65
3270	34470	They launched a counter attack and retook positions they had lost.	they launched a counter attack and retook positions they had lost.	1644025	1471971178245	1471971178353	n	78
3270	34470	They launched a counter attack and retook positions they had lost.	they launched a counter attack and retook positions they had lost.	1644033	1471971178388	1471971178446	d	68
3270	34470	They launched a counter attack and retook positions they had lost.	they launched a counter attack and retook positions they had lost.	1644059	1471971178488	1471971178599	 	32
3270	34470	They launched a counter attack and retook positions they had lost.	they launched a counter attack and retook positions they had lost.	1644060	1471971178654	1471971178715	r	82
3270	34470	They launched a counter attack and retook positions they had lost.	they launched a counter attack and retook positions they had lost.	1644062	1471971178844	1471971178907	e	69
3270	34470	They launched a counter attack and retook positions they had lost.	they launched a counter attack and retook positions they had lost.	1644065	1471971179076	1471971179142	t	84
3270	34470	They launched a counter attack and retook positions they had lost.	they launched a counter attack and retook positions they had lost.	1644070	1471971179244	1471971179312	o	79
3270	34470	They launched a counter attack and retook positions they had lost.	they launched a counter attack and retook positions they had lost.	1644130	1471971179389	1471971179447	o	79
3270	34470	They launched a counter attack and retook positions they had lost.	they launched a counter attack and retook positions they had lost.	1644131	1471971179540	1471971179646	k	75
3270	34470	They launched a counter attack and retook positions they had lost.	they launched a counter attack and retook positions they had lost.	1644132	1471971179677	1471971179802	 	32
3270	34470	They launched a counter attack and retook positions they had lost.	they launched a counter attack and retook positions they had lost.	1644134	1471971180458	1471971180538	p	80
3270	34470	They launched a counter attack and retook positions they had lost.	they launched a counter attack and retook positions they had lost.	1644136	1471971180623	1471971180717	o	79
3270	34470	They launched a counter attack and retook positions they had lost.	they launched a counter attack and retook positions they had lost.	1644177	1471971180853	1471971180938	s	83
3270	34470	They launched a counter attack and retook positions they had lost.	they launched a counter attack and retook positions they had lost.	1644179	1471971181041	1471971181132	i	73
3270	34470	They launched a counter attack and retook positions they had lost.	they launched a counter attack and retook positions they had lost.	1644183	1471971181268	1471971181349	t	84
3270	34470	They launched a counter attack and retook positions they had lost.	they launched a counter attack and retook positions they had lost.	1644186	1471971181401	1471971181474	i	73
3270	34470	They launched a counter attack and retook positions they had lost.	they launched a counter attack and retook positions they had lost.	1644189	1471971181545	1471971181651	o	79
3270	34470	They launched a counter attack and retook positions they had lost.	they launched a counter attack and retook positions they had lost.	1644247	1471971181766	1471971181844	n	78
3270	34470	They launched a counter attack and retook positions they had lost.	they launched a counter attack and retook positions they had lost.	1644250	1471971181972	1471971182049	s	83
3270	34470	They launched a counter attack and retook positions they had lost.	they launched a counter attack and retook positions they had lost.	1644256	1471971182104	1471971182219	 	32
3270	34470	They launched a counter attack and retook positions they had lost.	they launched a counter attack and retook positions they had lost.	1644258	1471971182731	1471971182810	t	84
3270	34470	They launched a counter attack and retook positions they had lost.	they launched a counter attack and retook positions they had lost.	1644259	1471971182823	1471971182920	h	72
3270	34470	They launched a counter attack and retook positions they had lost.	they launched a counter attack and retook positions they had lost.	1644314	1471971182927	1471971182998	e	69
3270	34470	They launched a counter attack and retook positions they had lost.	they launched a counter attack and retook positions they had lost.	1644316	1471971183131	1471971183192	y	89
3270	34470	They launched a counter attack and retook positions they had lost.	they launched a counter attack and retook positions they had lost.	1644320	1471971183217	1471971183322	 	32
3270	34470	They launched a counter attack and retook positions they had lost.	they launched a counter attack and retook positions they had lost.	1644326	1471971183667	1471971183775	h	72
3270	34470	They launched a counter attack and retook positions they had lost.	they launched a counter attack and retook positions they had lost.	1644330	1471971183860	1471971183944	a	65
3270	34470	They launched a counter attack and retook positions they had lost.	they launched a counter attack and retook positions they had lost.	1644368	1471971184063	1471971184135	d	68
3270	34470	They launched a counter attack and retook positions they had lost.	they launched a counter attack and retook positions they had lost.	1644370	1471971184137	1471971184254	 	32
3270	34470	They launched a counter attack and retook positions they had lost.	they launched a counter attack and retook positions they had lost.	1644372	1471971184425	1471971184502	l	76
3270	34470	They launched a counter attack and retook positions they had lost.	they launched a counter attack and retook positions they had lost.	1644374	1471971184585	1471971184670	o	79
3270	34470	They launched a counter attack and retook positions they had lost.	they launched a counter attack and retook positions they had lost.	1644377	1471971184726	1471971184796	s	83
3270	34470	They launched a counter attack and retook positions they had lost.	they launched a counter attack and retook positions they had lost.	1644480	1471971184962	1471971185016	t	84
3270	34470	They launched a counter attack and retook positions they had lost.	they launched a counter attack and retook positions they had lost.	1644482	1471971185040	1471971185107	 	32
3270	34470	They launched a counter attack and retook positions they had lost.	they launched a counter attack and retook positions they had lost.	1644490	1471971185770	1471971185877	BKSP	8
3270	34470	They launched a counter attack and retook positions they had lost.	they launched a counter attack and retook positions they had lost.	1644495	1471971186448	1471971186518	.	190
3270	34492	Milly is a seller.	milly is a seller.	1644625	1471971189603	1471971189719	m	77
3270	34492	Milly is a seller.	milly is a seller.	1644627	1471971189814	1471971189882	i	73
3270	34492	Milly is a seller.	milly is a seller.	1644630	1471971190006	1471971190087	l	76
3270	34492	Milly is a seller.	milly is a seller.	1644636	1471971190154	1471971190250	l	76
3270	34492	Milly is a seller.	milly is a seller.	1644641	1471971190280	1471971190361	y	89
3270	34492	Milly is a seller.	milly is a seller.	1644681	1471971190484	1471971190635	 	32
3270	34492	Milly is a seller.	milly is a seller.	1644683	1471971190915	1471971191054	i	73
3270	34492	Milly is a seller.	milly is a seller.	1644685	1471971191063	1471971191187	s	83
3270	34492	Milly is a seller.	milly is a seller.	1644688	1471971191240	1471971191355	 	32
3270	34492	Milly is a seller.	milly is a seller.	1644691	1471971191493	1471971191583	a	65
3270	34492	Milly is a seller.	milly is a seller.	1644742	1471971191647	1471971191748	 	32
3270	34492	Milly is a seller.	milly is a seller.	1644744	1471971192079	1471971192155	s	83
3270	34492	Milly is a seller.	milly is a seller.	1644746	1471971192269	1471971192326	e	69
3270	34492	Milly is a seller.	milly is a seller.	1644749	1471971192506	1471971192582	l	76
3270	34492	Milly is a seller.	milly is a seller.	1644752	1471971192683	1471971192765	l	76
3270	34492	Milly is a seller.	milly is a seller.	1644798	1471971192841	1471971192913	e	69
3270	34492	Milly is a seller.	milly is a seller.	1644800	1471971193035	1471971193110	r	82
3270	34492	Milly is a seller.	milly is a seller.	1644803	1471971193631	1471971193684	.	190
3270	34502	Please pass along my thanks, though.	please pass along my thanks, though.	1644934	1471971195984	1471971196059	p	80
3270	34502	Please pass along my thanks, though.	please pass along my thanks, though.	1644938	1471971196162	1471971196256	l	76
3270	34502	Please pass along my thanks, though.	please pass along my thanks, though.	1644941	1471971196336	1471971196396	e	69
3270	34502	Please pass along my thanks, though.	please pass along my thanks, though.	1644945	1471971196510	1471971196580	a	65
3270	34502	Please pass along my thanks, though.	please pass along my thanks, though.	1644949	1471971196664	1471971196723	s	83
3270	34502	Please pass along my thanks, though.	please pass along my thanks, though.	1645006	1471971196817	1471971196884	e	69
3270	34502	Please pass along my thanks, though.	please pass along my thanks, though.	1645009	1471971196939	1471971197069	 	32
3270	34502	Please pass along my thanks, though.	please pass along my thanks, though.	1645011	1471971197519	1471971197574	p	80
3270	34502	Please pass along my thanks, though.	please pass along my thanks, though.	1645012	1471971197849	1471971197921	a	65
3270	34502	Please pass along my thanks, though.	please pass along my thanks, though.	1645014	1471971198043	1471971198098	s	83
3270	34502	Please pass along my thanks, though.	please pass along my thanks, though.	1645046	1471971198203	1471971198257	s	83
3270	34502	Please pass along my thanks, though.	please pass along my thanks, though.	1645048	1471971198343	1471971198473	 	32
3270	34502	Please pass along my thanks, though.	please pass along my thanks, though.	1645050	1471971198610	1471971198693	a	65
3270	34502	Please pass along my thanks, though.	please pass along my thanks, though.	1645053	1471971198695	1471971198785	l	76
3270	34502	Please pass along my thanks, though.	please pass along my thanks, though.	1645055	1471971198880	1471971198926	o	79
3270	34502	Please pass along my thanks, though.	please pass along my thanks, though.	1645108	1471971199089	1471971199150	n	78
3270	34502	Please pass along my thanks, though.	please pass along my thanks, though.	1645111	1471971199275	1471971199346	g	71
3270	34502	Please pass along my thanks, though.	please pass along my thanks, though.	1645116	1471971199396	1471971199513	 	32
3270	34502	Please pass along my thanks, though.	please pass along my thanks, though.	1645119	1471971199975	1471971200088	m	77
3270	34502	Please pass along my thanks, though.	please pass along my thanks, though.	1645123	1471971200318	1471971200383	y	89
3270	34502	Please pass along my thanks, though.	please pass along my thanks, though.	1645134	1471971200408	1471971200527	 	32
3270	34502	Please pass along my thanks, though.	please pass along my thanks, though.	1645137	1471971200556	1471971200614	t	84
3270	34502	Please pass along my thanks, though.	please pass along my thanks, though.	1645140	1471971200646	1471971200709	h	72
3270	34502	Please pass along my thanks, though.	please pass along my thanks, though.	1645143	1471971200791	1471971200839	a	65
3270	34502	Please pass along my thanks, though.	please pass along my thanks, though.	1645145	1471971200841	1471971200910	n	78
3270	34502	Please pass along my thanks, though.	please pass along my thanks, though.	1645242	1471971200998	1471971201086	k	75
3270	34502	Please pass along my thanks, though.	please pass along my thanks, though.	1645244	1471971201097	1471971201157	s	83
3270	34502	Please pass along my thanks, though.	please pass along my thanks, though.	1645248	1471971202088	1471971202224	,	188
3270	34502	Please pass along my thanks, though.	please pass along my thanks, though.	1645250	1471971202545	1471971202704	 	32
3270	34502	Please pass along my thanks, though.	please pass along my thanks, though.	1645252	1471971202907	1471971202975	t	84
3270	34502	Please pass along my thanks, though.	please pass along my thanks, though.	1645276	1471971203040	1471971203110	h	72
3270	34502	Please pass along my thanks, though.	please pass along my thanks, though.	1645278	1471971203200	1471971203301	i	73
3270	34502	Please pass along my thanks, though.	please pass along my thanks, though.	1645280	1471971203443	1471971203526	u	85
3270	34502	Please pass along my thanks, though.	please pass along my thanks, though.	1645282	1471971203643	1471971203720	g	71
3270	34502	Please pass along my thanks, though.	please pass along my thanks, though.	1645286	1471971203813	1471971203877	h	72
3270	34502	Please pass along my thanks, though.	please pass along my thanks, though.	1645419	1471971204206	1471971204276	BKSP	8
3270	34502	Please pass along my thanks, though.	please pass along my thanks, though.	1645424	1471971204400	1471971204447	BKSP	8
3270	34502	Please pass along my thanks, though.	please pass along my thanks, though.	1645430	1471971204535	1471971204615	BKSP	8
3270	34502	Please pass along my thanks, though.	please pass along my thanks, though.	1645437	1471971204756	1471971204819	BKSP	8
3270	34502	Please pass along my thanks, though.	please pass along my thanks, though.	1645442	1471971205353	1471971205441	o	79
3270	34502	Please pass along my thanks, though.	please pass along my thanks, though.	1645446	1471971205698	1471971205788	u	85
3270	34502	Please pass along my thanks, though.	please pass along my thanks, though.	1645451	1471971205903	1471971205978	g	71
3270	34502	Please pass along my thanks, though.	please pass along my thanks, though.	1645455	1471971206052	1471971206125	h	72
3270	34502	Please pass along my thanks, though.	please pass along my thanks, though.	1645460	1471971206640	1471971206696	.	190
3270	34517	Not at this time.	not at this time.	1645561	1471971208576	1471971208638	n	78
3270	34517	Not at this time.	not at this time.	1645562	1471971208680	1471971208761	o	79
3270	34517	Not at this time.	not at this time.	1645565	1471971208818	1471971208891	t	84
3270	34517	Not at this time.	not at this time.	1645570	1471971208966	1471971209076	 	32
3270	34517	Not at this time.	not at this time.	1645573	1471971209483	1471971209564	a	65
3270	34517	Not at this time.	not at this time.	1645601	1471971209780	1471971209839	t	84
3270	34517	Not at this time.	not at this time.	1645602	1471971209880	1471971209989	 	32
3270	34517	Not at this time.	not at this time.	1645604	1471971210049	1471971210111	t	84
3270	34517	Not at this time.	not at this time.	1645606	1471971210120	1471971210176	h	72
3270	34517	Not at this time.	not at this time.	1645608	1471971210276	1471971210409	i	73
3270	34517	Not at this time.	not at this time.	1645638	1471971210483	1471971210547	s	83
3270	34517	Not at this time.	not at this time.	1645640	1471971210561	1471971210679	 	32
3270	34517	Not at this time.	not at this time.	1645643	1471971210778	1471971210839	t	84
3270	34517	Not at this time.	not at this time.	1645646	1471971210882	1471971210968	i	73
3270	34517	Not at this time.	not at this time.	1645649	1471971211066	1471971211186	m	77
3270	34517	Not at this time.	not at this time.	1645708	1471971211202	1471971211266	e	69
3270	34517	Not at this time.	not at this time.	1645711	1471971211874	1471971211950	.	190
3270	34523	The spokesman said its role would be to supervise the organisation.	the spokesman said its role would be t supervise the organisation.	1645916	1471971214339	1471971214406	t	84
3270	34523	The spokesman said its role would be to supervise the organisation.	the spokesman said its role would be t supervise the organisation.	1645917	1471971214422	1471971214519	h	72
3270	34523	The spokesman said its role would be to supervise the organisation.	the spokesman said its role would be t supervise the organisation.	1645919	1471971214556	1471971214604	e	69
3270	34523	The spokesman said its role would be to supervise the organisation.	the spokesman said its role would be t supervise the organisation.	1645921	1471971214638	1471971214766	 	32
3270	34523	The spokesman said its role would be to supervise the organisation.	the spokesman said its role would be t supervise the organisation.	1645923	1471971215589	1471971215681	s	83
3270	34523	The spokesman said its role would be to supervise the organisation.	the spokesman said its role would be t supervise the organisation.	1645994	1471971215968	1471971216080	p	80
3270	34523	The spokesman said its role would be to supervise the organisation.	the spokesman said its role would be t supervise the organisation.	1645999	1471971216156	1471971216222	o	79
3270	34523	The spokesman said its role would be to supervise the organisation.	the spokesman said its role would be t supervise the organisation.	1646002	1471971216347	1471971216434	k	75
3270	34523	The spokesman said its role would be to supervise the organisation.	the spokesman said its role would be t supervise the organisation.	1646005	1471971216797	1471971216857	e	69
3270	34523	The spokesman said its role would be to supervise the organisation.	the spokesman said its role would be t supervise the organisation.	1646008	1471971216999	1471971217081	s	83
3270	34523	The spokesman said its role would be to supervise the organisation.	the spokesman said its role would be t supervise the organisation.	1646055	1471971217466	1471971217603	m	77
3270	34523	The spokesman said its role would be to supervise the organisation.	the spokesman said its role would be t supervise the organisation.	1646061	1471971217718	1471971217794	a	65
3270	34523	The spokesman said its role would be to supervise the organisation.	the spokesman said its role would be t supervise the organisation.	1646066	1471971217850	1471971217970	n	78
3270	34523	The spokesman said its role would be to supervise the organisation.	the spokesman said its role would be t supervise the organisation.	1646071	1471971218015	1471971218161	 	32
3270	34523	The spokesman said its role would be to supervise the organisation.	the spokesman said its role would be t supervise the organisation.	1646078	1471971218576	1471971218636	s	83
3270	34523	The spokesman said its role would be to supervise the organisation.	the spokesman said its role would be t supervise the organisation.	1646101	1471971218728	1471971218806	a	65
3270	34523	The spokesman said its role would be to supervise the organisation.	the spokesman said its role would be t supervise the organisation.	1646103	1471971218813	1471971218914	i	73
3270	34523	The spokesman said its role would be to supervise the organisation.	the spokesman said its role would be t supervise the organisation.	1646105	1471971218975	1471971219045	d	68
3270	34523	The spokesman said its role would be to supervise the organisation.	the spokesman said its role would be t supervise the organisation.	1646109	1471971219088	1471971219210	 	32
3270	34523	The spokesman said its role would be to supervise the organisation.	the spokesman said its role would be t supervise the organisation.	1646114	1471971219855	1471971219962	i	73
3270	34523	The spokesman said its role would be to supervise the organisation.	the spokesman said its role would be t supervise the organisation.	1646164	1471971220007	1471971220078	t	84
3270	34523	The spokesman said its role would be to supervise the organisation.	the spokesman said its role would be t supervise the organisation.	1646166	1471971220305	1471971220378	s	83
3270	34523	The spokesman said its role would be to supervise the organisation.	the spokesman said its role would be t supervise the organisation.	1646168	1471971220420	1471971220539	 	32
3270	34523	The spokesman said its role would be to supervise the organisation.	the spokesman said its role would be t supervise the organisation.	1646171	1471971220782	1471971220863	r	82
3270	34523	The spokesman said its role would be to supervise the organisation.	the spokesman said its role would be t supervise the organisation.	1646174	1471971220900	1471971220971	o	79
3270	34523	The spokesman said its role would be to supervise the organisation.	the spokesman said its role would be t supervise the organisation.	1646196	1471971221069	1471971221187	l	76
3270	34523	The spokesman said its role would be to supervise the organisation.	the spokesman said its role would be t supervise the organisation.	1646199	1471971221232	1471971221295	e	69
3270	34523	The spokesman said its role would be to supervise the organisation.	the spokesman said its role would be t supervise the organisation.	1646203	1471971221350	1471971221474	 	32
3270	34523	The spokesman said its role would be to supervise the organisation.	the spokesman said its role would be t supervise the organisation.	1646208	1471971221872	1471971221897	w	87
3270	34523	The spokesman said its role would be to supervise the organisation.	the spokesman said its role would be t supervise the organisation.	1646213	1471971221957	1471971222046	o	79
3270	34523	The spokesman said its role would be to supervise the organisation.	the spokesman said its role would be t supervise the organisation.	1646295	1471971222879	1471971222937	u	85
3270	34523	The spokesman said its role would be to supervise the organisation.	the spokesman said its role would be t supervise the organisation.	1646297	1471971223097	1471971223244	l	76
3270	34523	The spokesman said its role would be to supervise the organisation.	the spokesman said its role would be t supervise the organisation.	1646298	1471971223317	1471971223378	d	68
3270	34523	The spokesman said its role would be to supervise the organisation.	the spokesman said its role would be t supervise the organisation.	1646300	1471971223446	1471971223604	 	32
3270	34523	The spokesman said its role would be to supervise the organisation.	the spokesman said its role would be t supervise the organisation.	1646303	1471971223944	1471971224099	b	66
3270	34523	The spokesman said its role would be to supervise the organisation.	the spokesman said its role would be t supervise the organisation.	1646357	1471971224202	1471971224333	e	69
3270	34523	The spokesman said its role would be to supervise the organisation.	the spokesman said its role would be t supervise the organisation.	1646360	1471971224468	1471971224615	 	32
3270	34523	The spokesman said its role would be to supervise the organisation.	the spokesman said its role would be t supervise the organisation.	1646364	1471971225113	1471971225203	t	84
3270	34523	The spokesman said its role would be to supervise the organisation.	the spokesman said its role would be t supervise the organisation.	1646367	1471971225337	1471971225470	 	32
3270	34523	The spokesman said its role would be to supervise the organisation.	the spokesman said its role would be t supervise the organisation.	1646372	1471971225642	1471971225706	s	83
3270	34523	The spokesman said its role would be to supervise the organisation.	the spokesman said its role would be t supervise the organisation.	1646480	1471971225847	1471971225926	u	85
3270	34523	The spokesman said its role would be to supervise the organisation.	the spokesman said its role would be t supervise the organisation.	1646482	1471971226091	1471971226222	o	79
3270	34523	The spokesman said its role would be to supervise the organisation.	the spokesman said its role would be t supervise the organisation.	1646483	1471971226637	1471971226819	BKSP	8
3270	34523	The spokesman said its role would be to supervise the organisation.	the spokesman said its role would be t supervise the organisation.	1646484	1471971227510	1471971227617	p	80
3270	34523	The spokesman said its role would be to supervise the organisation.	the spokesman said its role would be t supervise the organisation.	1646486	1471971227888	1471971227967	e	69
3270	34523	The spokesman said its role would be to supervise the organisation.	the spokesman said its role would be t supervise the organisation.	1646488	1471971228061	1471971228124	r	82
3270	34523	The spokesman said its role would be to supervise the organisation.	the spokesman said its role would be t supervise the organisation.	1646513	1471971228340	1471971228423	v	86
3270	34523	The spokesman said its role would be to supervise the organisation.	the spokesman said its role would be t supervise the organisation.	1646517	1471971228446	1471971228563	i	73
3270	34523	The spokesman said its role would be to supervise the organisation.	the spokesman said its role would be t supervise the organisation.	1646521	1471971228633	1471971228693	s	83
3270	34523	The spokesman said its role would be to supervise the organisation.	the spokesman said its role would be t supervise the organisation.	1646523	1471971228829	1471971228891	e	69
3270	34523	The spokesman said its role would be to supervise the organisation.	the spokesman said its role would be t supervise the organisation.	1646528	1471971229028	1471971229156	 	32
3270	34523	The spokesman said its role would be to supervise the organisation.	the spokesman said its role would be t supervise the organisation.	1646579	1471971229712	1471971229784	t	84
3270	34523	The spokesman said its role would be to supervise the organisation.	the spokesman said its role would be t supervise the organisation.	1646580	1471971229791	1471971229894	h	72
3270	34523	The spokesman said its role would be to supervise the organisation.	the spokesman said its role would be t supervise the organisation.	1646581	1471971229920	1471971229985	e	69
3270	34523	The spokesman said its role would be to supervise the organisation.	the spokesman said its role would be t supervise the organisation.	1646583	1471971230001	1471971230126	 	32
3270	34523	The spokesman said its role would be to supervise the organisation.	the spokesman said its role would be t supervise the organisation.	1646585	1471971230449	1471971230561	o	79
3270	34523	The spokesman said its role would be to supervise the organisation.	the spokesman said its role would be t supervise the organisation.	1646666	1471971230679	1471971230738	r	82
3270	34523	The spokesman said its role would be to supervise the organisation.	the spokesman said its role would be t supervise the organisation.	1646671	1471971231320	1471971231435	g	71
3270	34523	The spokesman said its role would be to supervise the organisation.	the spokesman said its role would be t supervise the organisation.	1646676	1471971231489	1471971231571	a	65
3270	34523	The spokesman said its role would be to supervise the organisation.	the spokesman said its role would be t supervise the organisation.	1646683	1471971232458	1471971232551	n	78
3270	34523	The spokesman said its role would be to supervise the organisation.	the spokesman said its role would be t supervise the organisation.	1646689	1471971232652	1471971232768	i	73
3270	34523	The spokesman said its role would be to supervise the organisation.	the spokesman said its role would be t supervise the organisation.	1646729	1471971232912	1471971232973	s	83
3270	34523	The spokesman said its role would be to supervise the organisation.	the spokesman said its role would be t supervise the organisation.	1646731	1471971233073	1471971233139	a	65
3270	34523	The spokesman said its role would be to supervise the organisation.	the spokesman said its role would be t supervise the organisation.	1646734	1471971233321	1471971233395	t	84
3270	34523	The spokesman said its role would be to supervise the organisation.	the spokesman said its role would be t supervise the organisation.	1646736	1471971233437	1471971233529	i	73
3270	34523	The spokesman said its role would be to supervise the organisation.	the spokesman said its role would be t supervise the organisation.	1646738	1471971233650	1471971233730	o	79
3270	34523	The spokesman said its role would be to supervise the organisation.	the spokesman said its role would be t supervise the organisation.	1646791	1471971233851	1471971233959	n	78
3270	34523	The spokesman said its role would be to supervise the organisation.	the spokesman said its role would be t supervise the organisation.	1646793	1471971234463	1471971234532	.	190
3270	34542	The phones should be on now.	the phones should be on now.	1646890	1471971236586	1471971236663	t	84
3270	34542	The phones should be on now.	the phones should be on now.	1646893	1471971236680	1471971236764	h	72
3270	34542	The phones should be on now.	the phones should be on now.	1646896	1471971236806	1471971236871	e	69
3270	34542	The phones should be on now.	the phones should be on now.	1646900	1471971236910	1471971237023	 	32
3270	34542	The phones should be on now.	the phones should be on now.	1646907	1471971237109	1471971237224	p	80
3270	34542	The phones should be on now.	the phones should be on now.	1646935	1471971237390	1471971237460	h	72
3270	34542	The phones should be on now.	the phones should be on now.	1646938	1471971237466	1471971237539	o	79
3270	34542	The phones should be on now.	the phones should be on now.	1646940	1471971237653	1471971237729	n	78
3270	34542	The phones should be on now.	the phones should be on now.	1646943	1471971237754	1471971237815	e	69
3270	34542	The phones should be on now.	the phones should be on now.	1646945	1471971237964	1471971238022	s	83
3270	34542	The phones should be on now.	the phones should be on now.	1647010	1471971238081	1471971238201	 	32
3270	34542	The phones should be on now.	the phones should be on now.	1647013	1471971238832	1471971238912	s	83
3270	34542	The phones should be on now.	the phones should be on now.	1647015	1471971238928	1471971239027	h	72
3270	34542	The phones should be on now.	the phones should be on now.	1647018	1471971239175	1471971239272	o	79
3270	34542	The phones should be on now.	the phones should be on now.	1647020	1471971239400	1471971239467	u	85
3270	34542	The phones should be on now.	the phones should be on now.	1647086	1471971239611	1471971239717	l	76
3270	34542	The phones should be on now.	the phones should be on now.	1647089	1471971239815	1471971239888	d	68
3270	34542	The phones should be on now.	the phones should be on now.	1647090	1471971239912	1471971240050	 	32
3270	34542	The phones should be on now.	the phones should be on now.	1647093	1471971240749	1471971240797	b	66
3270	34542	The phones should be on now.	the phones should be on now.	1647098	1471971240953	1471971241012	e	69
3270	34542	The phones should be on now.	the phones should be on now.	1647135	1471971241093	1471971241231	 	32
3270	34542	The phones should be on now.	the phones should be on now.	1647137	1471971241319	1471971241444	o	79
3270	34542	The phones should be on now.	the phones should be on now.	1647145	1471971241588	1471971241652	n	78
3270	34542	The phones should be on now.	the phones should be on now.	1647151	1471971241800	1471971241916	 	32
3270	34542	The phones should be on now.	the phones should be on now.	1647156	1471971242140	1471971242211	n	78
3270	34542	The phones should be on now.	the phones should be on now.	1647209	1471971242223	1471971242326	o	79
3270	34542	The phones should be on now.	the phones should be on now.	1647212	1471971242453	1471971242511	w	87
3270	34542	The phones should be on now.	the phones should be on now.	1647217	1471971242995	1471971243053	.	190
3270	34552	We could do it at my house.	we could do it at my house.	1647296	1471971244914	1471971244999	w	87
3270	34552	We could do it at my house.	we could do it at my house.	1647298	1471971245075	1471971245144	e	69
3270	34552	We could do it at my house.	we could do it at my house.	1647300	1471971245158	1471971245256	 	32
3270	34552	We could do it at my house.	we could do it at my house.	1647302	1471971245326	1471971245387	c	67
3270	34552	We could do it at my house.	we could do it at my house.	1647304	1471971245389	1471971245474	o	79
3270	34552	We could do it at my house.	we could do it at my house.	1647364	1471971245570	1471971245661	u	85
3270	34552	We could do it at my house.	we could do it at my house.	1647368	1471971245776	1471971245902	l	76
3270	34552	We could do it at my house.	we could do it at my house.	1647371	1471971245998	1471971246118	d	68
3270	34552	We could do it at my house.	we could do it at my house.	1647374	1471971246257	1471971246388	 	32
3270	34552	We could do it at my house.	we could do it at my house.	1647379	1471971246779	1471971246863	d	68
3270	34552	We could do it at my house.	we could do it at my house.	1647406	1471971246875	1471971246978	o	79
3270	34552	We could do it at my house.	we could do it at my house.	1647408	1471971247003	1471971247149	 	32
3270	34552	We could do it at my house.	we could do it at my house.	1647410	1471971247174	1471971247259	i	73
3270	34552	We could do it at my house.	we could do it at my house.	1647412	1471971247365	1471971247441	t	84
3270	34552	We could do it at my house.	we could do it at my house.	1647414	1471971247507	1471971247635	 	32
3270	34552	We could do it at my house.	we could do it at my house.	1647477	1471971248414	1471971248514	a	65
3270	34552	We could do it at my house.	we could do it at my house.	1647482	1471971248693	1471971248771	t	84
3270	34552	We could do it at my house.	we could do it at my house.	1647487	1471971248808	1471971248911	 	32
3270	34552	We could do it at my house.	we could do it at my house.	1647491	1471971248959	1471971249082	m	77
3270	34552	We could do it at my house.	we could do it at my house.	1647493	1471971249098	1471971249183	y	89
3270	34552	We could do it at my house.	we could do it at my house.	1647519	1471971249251	1471971249360	 	32
3270	34552	We could do it at my house.	we could do it at my house.	1647521	1471971249868	1471971249953	h	72
3270	34552	We could do it at my house.	we could do it at my house.	1647523	1471971249939	1471971250033	o	79
3270	34552	We could do it at my house.	we could do it at my house.	1647525	1471971250139	1471971250149	j	74
3270	34552	We could do it at my house.	we could do it at my house.	1647526	1471971250161	1471971250194	u	85
3270	34552	We could do it at my house.	we could do it at my house.	1647626	1471971250283	1471971250386	s	83
3270	34552	We could do it at my house.	we could do it at my house.	1647627	1471971250496	1471971250565	e	69
3270	34552	We could do it at my house.	we could do it at my house.	1647630	1471971250971	1471971251053	BKSP	8
3270	34552	We could do it at my house.	we could do it at my house.	1647631	1471971251359	1471971251447	BKSP	8
3270	34552	We could do it at my house.	we could do it at my house.	1647634	1471971251530	1471971251602	BKSP	8
3270	34552	We could do it at my house.	we could do it at my house.	1647636	1471971251692	1471971251779	BKSP	8
3270	34552	We could do it at my house.	we could do it at my house.	1647640	1471971252309	1471971252425	u	85
3270	34552	We could do it at my house.	we could do it at my house.	1647645	1471971252496	1471971252574	s	83
3270	34552	We could do it at my house.	we could do it at my house.	1647650	1471971252662	1471971252734	e	69
3270	34552	We could do it at my house.	we could do it at my house.	1647657	1471971252914	1471971252985	.	190
3270	34561	Just in case we haven't invited any of them.	just in case we haven't invited any of them.	1647733	1471971254858	1471971254939	j	74
3270	34561	Just in case we haven't invited any of them.	just in case we haven't invited any of them.	1647735	1471971255042	1471971255118	u	85
3270	34561	Just in case we haven't invited any of them.	just in case we haven't invited any of them.	1647737	1471971255141	1471971255226	s	83
3270	34561	Just in case we haven't invited any of them.	just in case we haven't invited any of them.	1647742	1471971255380	1471971255443	t	84
3270	34561	Just in case we haven't invited any of them.	just in case we haven't invited any of them.	1647744	1471971255512	1471971255652	 	32
3270	34561	Just in case we haven't invited any of them.	just in case we haven't invited any of them.	1647824	1471971256016	1471971256133	i	73
3270	34561	Just in case we haven't invited any of them.	just in case we haven't invited any of them.	1647827	1471971256156	1471971256229	n	78
3270	34561	Just in case we haven't invited any of them.	just in case we haven't invited any of them.	1647830	1471971256250	1471971256368	 	32
3270	34561	Just in case we haven't invited any of them.	just in case we haven't invited any of them.	1647833	1471971257115	1471971257195	c	67
3270	34561	Just in case we haven't invited any of them.	just in case we haven't invited any of them.	1647834	1471971257389	1471971257463	a	65
3270	34561	Just in case we haven't invited any of them.	just in case we haven't invited any of them.	1647870	1471971257645	1471971257713	s	83
3270	34561	Just in case we haven't invited any of them.	just in case we haven't invited any of them.	1647872	1471971257841	1471971257887	e	69
3270	34561	Just in case we haven't invited any of them.	just in case we haven't invited any of them.	1647876	1471971258069	1471971258207	 	32
3270	34561	Just in case we haven't invited any of them.	just in case we haven't invited any of them.	1647879	1471971258777	1471971258873	w	87
3270	34561	Just in case we haven't invited any of them.	just in case we haven't invited any of them.	1647882	1471971258944	1471971259022	e	69
3270	34561	Just in case we haven't invited any of them.	just in case we haven't invited any of them.	1647924	1471971259041	1471971259163	 	32
3270	34561	Just in case we haven't invited any of them.	just in case we haven't invited any of them.	1647926	1471971259361	1471971259482	h	72
3270	34561	Just in case we haven't invited any of them.	just in case we haven't invited any of them.	1647929	1471971259486	1471971259583	a	65
3270	34561	Just in case we haven't invited any of them.	just in case we haven't invited any of them.	1647933	1471971259754	1471971259818	v	86
3270	34561	Just in case we haven't invited any of them.	just in case we haven't invited any of them.	1647937	1471971259959	1471971260019	e	69
3270	34561	Just in case we haven't invited any of them.	just in case we haven't invited any of them.	1648029	1471971260073	1471971260175	n	78
3270	34561	Just in case we haven't invited any of them.	just in case we haven't invited any of them.	1648033	1471971260230	1471971260278	t	84
3270	34561	Just in case we haven't invited any of them.	just in case we haven't invited any of them.	1648040	1471971260842	1471971260948	BKSP	8
3270	34561	Just in case we haven't invited any of them.	just in case we haven't invited any of them.	1648044	1471971261728	1471971261816	'	192
3270	34561	Just in case we haven't invited any of them.	just in case we haven't invited any of them.	1648048	1471971261854	1471971261932	t	84
3270	34561	Just in case we haven't invited any of them.	just in case we haven't invited any of them.	1648053	1471971262146	1471971262278	 	32
3270	34561	Just in case we haven't invited any of them.	just in case we haven't invited any of them.	1648096	1471971262741	1471971262824	i	73
3270	34561	Just in case we haven't invited any of them.	just in case we haven't invited any of them.	1648097	1471971262942	1471971263039	n	78
3270	34561	Just in case we haven't invited any of them.	just in case we haven't invited any of them.	1648098	1471971263287	1471971263355	v	86
3270	34561	Just in case we haven't invited any of them.	just in case we haven't invited any of them.	1648099	1471971263420	1471971263534	i	73
3270	34561	Just in case we haven't invited any of them.	just in case we haven't invited any of them.	1648101	1471971263641	1471971263715	t	84
3270	34561	Just in case we haven't invited any of them.	just in case we haven't invited any of them.	1648256	1471971263846	1471971263908	e	69
3270	34561	Just in case we haven't invited any of them.	just in case we haven't invited any of them.	1648259	1471971264034	1471971264108	d	68
3270	34561	Just in case we haven't invited any of them.	just in case we haven't invited any of them.	1648261	1471971264170	1471971264297	 	32
3270	34561	Just in case we haven't invited any of them.	just in case we haven't invited any of them.	1648263	1471971264994	1471971265128	n	78
3270	34561	Just in case we haven't invited any of them.	just in case we haven't invited any of them.	1648266	1471971266253	1471971266385	BKSP	8
3270	34561	Just in case we haven't invited any of them.	just in case we haven't invited any of them.	1648270	1471971266572	1471971266696	a	65
3270	34561	Just in case we haven't invited any of them.	just in case we haven't invited any of them.	1648366	1471971266758	1471971266891	n	78
3270	34561	Just in case we haven't invited any of them.	just in case we haven't invited any of them.	1648369	1471971266979	1471971267062	y	89
3270	34561	Just in case we haven't invited any of them.	just in case we haven't invited any of them.	1648373	1471971267093	1471971267233	 	32
3270	34561	Just in case we haven't invited any of them.	just in case we haven't invited any of them.	1648377	1471971268208	1471971268353	o	79
3270	34561	Just in case we haven't invited any of them.	just in case we haven't invited any of them.	1648380	1471971268442	1471971268511	f	70
3270	34561	Just in case we haven't invited any of them.	just in case we haven't invited any of them.	1648450	1471971268523	1471971268641	 	32
3270	34561	Just in case we haven't invited any of them.	just in case we haven't invited any of them.	1648454	1471971268697	1471971268760	t	84
3270	34561	Just in case we haven't invited any of them.	just in case we haven't invited any of them.	1648457	1471971268790	1471971268896	h	72
3270	34561	Just in case we haven't invited any of them.	just in case we haven't invited any of them.	1648460	1471971268997	1471971269106	e	69
3270	34561	Just in case we haven't invited any of them.	just in case we haven't invited any of them.	1648463	1471971269260	1471971269378	m	77
3270	34561	Just in case we haven't invited any of them.	just in case we haven't invited any of them.	1648490	1471971269789	1471971269836	.	190
3270	34581	I have a request.	i have a request.	1648586	1471971271679	1471971271802	i	73
3270	34581	I have a request.	i have a request.	1648591	1471971271848	1471971271942	 	32
3270	34581	I have a request.	i have a request.	1648594	1471971272029	1471971272112	h	72
3270	34581	I have a request.	i have a request.	1648598	1471971272195	1471971272242	CAPS_LOCK	20
3270	34581	I have a request.	i have a request.	1648603	1471971272226	1471971272246	A	65
3270	34581	I have a request.	i have a request.	1648607	1471971272448	1471971272511	V	86
3270	34581	I have a request.	i have a request.	1648770	1471971272677	1471971272734	E	69
3270	34581	I have a request.	i have a request.	1648772	1471971272994	1471971273083	=	187
3270	34581	I have a request.	i have a request.	1648777	1471971273327	1471971273411	BKSP	8
3270	34581	I have a request.	i have a request.	1648781	1471971273609	1471971273672	BKSP	8
3270	34581	I have a request.	i have a request.	1648784	1471971273758	1471971273826	BKSP	8
3270	34581	I have a request.	i have a request.	1648790	1471971273912	1471971273984	BKSP	8
3270	34581	I have a request.	i have a request.	1648793	1471971274051	1471971274160	BKSP	8
3270	34581	I have a request.	i have a request.	1648796	1471971274550	1471971274688	CAPS_LOCK	20
3270	34581	I have a request.	i have a request.	1648802	1471971274945	1471971275039	h	72
3270	34581	I have a request.	i have a request.	1648805	1471971275088	1471971275135	CAPS_LOCK	20
3270	34581	I have a request.	i have a request.	1648810	1471971275115	1471971275140	A	65
3270	34581	I have a request.	i have a request.	1648814	1471971275340	1471971275402	V	86
3270	34581	I have a request.	i have a request.	1648941	1471971275577	1471971275637	E	69
3270	34581	I have a request.	i have a request.	1648943	1471971275966	1471971276045	BKSP	8
3270	34581	I have a request.	i have a request.	1648945	1471971276109	1471971276189	BKSP	8
3270	34581	I have a request.	i have a request.	1648950	1471971276264	1471971276341	BKSP	8
3270	34581	I have a request.	i have a request.	1648954	1471971276408	1471971276507	BKSP	8
3270	34581	I have a request.	i have a request.	1648959	1471971276731	1471971276860	CAPS_LOCK	20
3270	34581	I have a request.	i have a request.	1648965	1471971277217	1471971277318	h	72
3270	34581	I have a request.	i have a request.	1648972	1471971277381	1471971277454	a	65
3270	34581	I have a request.	i have a request.	1648977	1471971277640	1471971277689	v	86
3270	34581	I have a request.	i have a request.	1648981	1471971277841	1471971277901	e	69
3270	34581	I have a request.	i have a request.	1649070	1471971278004	1471971278141	 	32
3270	34581	I have a request.	i have a request.	1649073	1471971278532	1471971278591	a	65
3270	34581	I have a request.	i have a request.	1649076	1471971278747	1471971278876	 	32
3270	34581	I have a request.	i have a request.	1649078	1471971279523	1471971279592	r	82
3270	34581	I have a request.	i have a request.	1649083	1471971279675	1471971279754	e	69
3270	34581	I have a request.	i have a request.	1649139	1471971279877	1471971279974	q	81
3270	34581	I have a request.	i have a request.	1649143	1471971280119	1471971280226	u	85
3270	34581	I have a request.	i have a request.	1649149	1471971280288	1471971280364	e	69
3270	34581	I have a request.	i have a request.	1649151	1471971280449	1471971280529	s	83
3270	34581	I have a request.	i have a request.	1649156	1471971280660	1471971280720	t	84
3270	34581	I have a request.	i have a request.	1649184	1471971280945	1471971281016	.	190
3270	34592	We don't recommend McNair this week as a result.	we dont't recommend mcnair this week as a result.	1649294	1471971282789	1471971282883	w	87
3270	34592	We don't recommend McNair this week as a result.	we dont't recommend mcnair this week as a result.	1649295	1471971282958	1471971283041	e	69
3270	34592	We don't recommend McNair this week as a result.	we dont't recommend mcnair this week as a result.	1649297	1471971283052	1471971283174	 	32
3270	34592	We don't recommend McNair this week as a result.	we dont't recommend mcnair this week as a result.	1649300	1471971283214	1471971283286	d	68
3270	34592	We don't recommend McNair this week as a result.	we dont't recommend mcnair this week as a result.	1649304	1471971283292	1471971283393	o	79
3270	34592	We don't recommend McNair this week as a result.	we dont't recommend mcnair this week as a result.	1649363	1471971283491	1471971283598	n	78
3270	34592	We don't recommend McNair this week as a result.	we dont't recommend mcnair this week as a result.	1649368	1471971283624	1471971283706	t	84
3270	34592	We don't recommend McNair this week as a result.	we dont't recommend mcnair this week as a result.	1649373	1471971284204	1471971284290	'	192
3270	34592	We don't recommend McNair this week as a result.	we dont't recommend mcnair this week as a result.	1649380	1471971284444	1471971284534	t	84
3270	34592	We don't recommend McNair this week as a result.	we dont't recommend mcnair this week as a result.	1649384	1471971284590	1471971284715	 	32
3270	34592	We don't recommend McNair this week as a result.	we dont't recommend mcnair this week as a result.	1649428	1471971284779	1471971284845	r	82
3270	34592	We don't recommend McNair this week as a result.	we dont't recommend mcnair this week as a result.	1649430	1471971284926	1471971285000	e	69
3270	34592	We don't recommend McNair this week as a result.	we dont't recommend mcnair this week as a result.	1649431	1471971285145	1471971285231	c	67
3270	34592	We don't recommend McNair this week as a result.	we dont't recommend mcnair this week as a result.	1649432	1471971285282	1471971285370	o	79
3270	34592	We don't recommend McNair this week as a result.	we dont't recommend mcnair this week as a result.	1649433	1471971285495	1471971285574	m	77
3270	34592	We don't recommend McNair this week as a result.	we dont't recommend mcnair this week as a result.	1649458	1471971285648	1471971285740	m	77
3270	34592	We don't recommend McNair this week as a result.	we dont't recommend mcnair this week as a result.	1649460	1471971285817	1471971285877	e	69
3270	34592	We don't recommend McNair this week as a result.	we dont't recommend mcnair this week as a result.	1649462	1471971285903	1471971285981	n	78
3270	34592	We don't recommend McNair this week as a result.	we dont't recommend mcnair this week as a result.	1649464	1471971286063	1471971286118	c	67
3270	34592	We don't recommend McNair this week as a result.	we dont't recommend mcnair this week as a result.	1649467	1471971286362	1471971286478	 	32
3270	34592	We don't recommend McNair this week as a result.	we dont't recommend mcnair this week as a result.	1649610	1471971286622	1471971286688	BKSP	8
3270	34592	We don't recommend McNair this week as a result.	we dont't recommend mcnair this week as a result.	1649614	1471971286774	1471971286848	BKSP	8
3270	34592	We don't recommend McNair this week as a result.	we dont't recommend mcnair this week as a result.	1649621	1471971286969	1471971287056	d	68
3270	34592	We don't recommend McNair this week as a result.	we dont't recommend mcnair this week as a result.	1649627	1471971287183	1471971287331	 	32
3270	34592	We don't recommend McNair this week as a result.	we dont't recommend mcnair this week as a result.	1649633	1471971288384	1471971288506	m	77
3270	34592	We don't recommend McNair this week as a result.	we dont't recommend mcnair this week as a result.	1649638	1471971288608	1471971288681	c	67
3270	34592	We don't recommend McNair this week as a result.	we dont't recommend mcnair this week as a result.	1649642	1471971289073	1471971289201	n	78
3270	34592	We don't recommend McNair this week as a result.	we dont't recommend mcnair this week as a result.	1649695	1471971289286	1471971289417	a	65
3270	34592	We don't recommend McNair this week as a result.	we dont't recommend mcnair this week as a result.	1649697	1471971289562	1471971289707	i	73
3270	34592	We don't recommend McNair this week as a result.	we dont't recommend mcnair this week as a result.	1649701	1471971289751	1471971289827	r	82
3270	34592	We don't recommend McNair this week as a result.	we dont't recommend mcnair this week as a result.	1649705	1471971289950	1471971290079	 	32
3270	34592	We don't recommend McNair this week as a result.	we dont't recommend mcnair this week as a result.	1649708	1471971290598	1471971290702	t	84
3270	34592	We don't recommend McNair this week as a result.	we dont't recommend mcnair this week as a result.	1649775	1471971290688	1471971290791	h	72
3270	34592	We don't recommend McNair this week as a result.	we dont't recommend mcnair this week as a result.	1649778	1471971290906	1471971291031	i	73
3270	34592	We don't recommend McNair this week as a result.	we dont't recommend mcnair this week as a result.	1649784	1471971291117	1471971291225	s	83
3270	34592	We don't recommend McNair this week as a result.	we dont't recommend mcnair this week as a result.	1649787	1471971291293	1471971291418	 	32
3270	34592	We don't recommend McNair this week as a result.	we dont't recommend mcnair this week as a result.	1649790	1471971291634	1471971291721	w	87
3270	34592	We don't recommend McNair this week as a result.	we dont't recommend mcnair this week as a result.	1649794	1471971292018	1471971292109	e	69
3270	34592	We don't recommend McNair this week as a result.	we dont't recommend mcnair this week as a result.	1649822	1471971292202	1471971292271	e	69
3270	34592	We don't recommend McNair this week as a result.	we dont't recommend mcnair this week as a result.	1649824	1471971292365	1471971292520	k	75
3270	34592	We don't recommend McNair this week as a result.	we dont't recommend mcnair this week as a result.	1649827	1471971292583	1471971292698	 	32
3270	34592	We don't recommend McNair this week as a result.	we dont't recommend mcnair this week as a result.	1649829	1471971292751	1471971292842	a	65
3270	34592	We don't recommend McNair this week as a result.	we dont't recommend mcnair this week as a result.	1649833	1471971292969	1471971293026	d	68
3270	34592	We don't recommend McNair this week as a result.	we dont't recommend mcnair this week as a result.	1649960	1471971293464	1471971293590	BKSP	8
3270	34592	We don't recommend McNair this week as a result.	we dont't recommend mcnair this week as a result.	1649964	1471971293778	1471971293794	s	83
3270	34592	We don't recommend McNair this week as a result.	we dont't recommend mcnair this week as a result.	1649972	1471971294179	1471971294297	 	32
3270	34592	We don't recommend McNair this week as a result.	we dont't recommend mcnair this week as a result.	1649977	1471971294362	1471971294462	a	65
3270	34592	We don't recommend McNair this week as a result.	we dont't recommend mcnair this week as a result.	1649982	1471971294557	1471971294687	 	32
3270	34592	We don't recommend McNair this week as a result.	we dont't recommend mcnair this week as a result.	1649986	1471971295185	1471971295247	r	82
3270	34592	We don't recommend McNair this week as a result.	we dont't recommend mcnair this week as a result.	1650022	1471971295342	1471971295402	e	69
3270	34592	We don't recommend McNair this week as a result.	we dont't recommend mcnair this week as a result.	1650024	1471971295528	1471971295614	s	83
3270	34592	We don't recommend McNair this week as a result.	we dont't recommend mcnair this week as a result.	1650026	1471971295735	1471971295812	u	85
3270	34592	We don't recommend McNair this week as a result.	we dont't recommend mcnair this week as a result.	1650030	1471971295941	1471971296083	l	76
3270	34592	We don't recommend McNair this week as a result.	we dont't recommend mcnair this week as a result.	1650038	1471971296086	1471971296178	t	84
3270	34592	We don't recommend McNair this week as a result.	we dont't recommend mcnair this week as a result.	1650122	1471971296597	1471971296663	/	191
3270	34592	We don't recommend McNair this week as a result.	we dont't recommend mcnair this week as a result.	1650129	1471971297454	1471971297563	BKSP	8
3270	34592	We don't recommend McNair this week as a result.	we dont't recommend mcnair this week as a result.	1650134	1471971298016	1471971298087	.	190
3270	34610	Have you talked to Somerholder?	have you talked to somerholder?	1650273	1471971300198	1471971300323	h	72
3270	34610	Have you talked to Somerholder?	have you talked to somerholder?	1650275	1471971300363	1471971300480	a	65
3270	34610	Have you talked to Somerholder?	have you talked to somerholder?	1650277	1471971300516	1471971300629	v	86
3270	34610	Have you talked to Somerholder?	have you talked to somerholder?	1650279	1471971300689	1471971300718	e	69
3270	34610	Have you talked to Somerholder?	have you talked to somerholder?	1650283	1471971301031	1471971301164	 	32
3270	34610	Have you talked to Somerholder?	have you talked to somerholder?	1650315	1471971301669	1471971301762	y	89
3270	34610	Have you talked to Somerholder?	have you talked to somerholder?	1650316	1471971301801	1471971301905	o	79
3270	34610	Have you talked to Somerholder?	have you talked to somerholder?	1650317	1471971301881	1471971301954	u	85
3270	34610	Have you talked to Somerholder?	have you talked to somerholder?	1650318	1471971301979	1471971302110	 	32
3270	34610	Have you talked to Somerholder?	have you talked to somerholder?	1650319	1471971302117	1471971302185	t	84
3270	34610	Have you talked to Somerholder?	have you talked to somerholder?	1650466	1471971302361	1471971302420	s	83
3270	34610	Have you talked to Somerholder?	have you talked to somerholder?	1650468	1471971302456	1471971302568	l	76
3270	34610	Have you talked to Somerholder?	have you talked to somerholder?	1650472	1471971303463	1471971303542	BKSP	8
3270	34610	Have you talked to Somerholder?	have you talked to somerholder?	1650475	1471971303609	1471971303692	BKSP	8
3270	34610	Have you talked to Somerholder?	have you talked to somerholder?	1650476	1471971304135	1471971304240	a	65
3270	34610	Have you talked to Somerholder?	have you talked to somerholder?	1650478	1471971304481	1471971304567	l	76
3270	34610	Have you talked to Somerholder?	have you talked to somerholder?	1650482	1471971304653	1471971304746	k	75
3270	34610	Have you talked to Somerholder?	have you talked to somerholder?	1650539	1471971304782	1471971304857	e	69
3270	34610	Have you talked to Somerholder?	have you talked to somerholder?	1650543	1471971304953	1471971305043	d	68
3270	34610	Have you talked to Somerholder?	have you talked to somerholder?	1650544	1471971305186	1471971305356	 	32
3270	34610	Have you talked to Somerholder?	have you talked to somerholder?	1650547	1471971305749	1471971305839	t	84
3270	34610	Have you talked to Somerholder?	have you talked to somerholder?	1650548	1471971305850	1471971305972	o	79
3270	34610	Have you talked to Somerholder?	have you talked to somerholder?	1650560	1471971305991	1471971306116	 	32
3270	34610	Have you talked to Somerholder?	have you talked to somerholder?	1650566	1471971306448	1471971306551	s	83
3270	34610	Have you talked to Somerholder?	have you talked to somerholder?	1650576	1471971306556	1471971306648	o	79
3270	34610	Have you talked to Somerholder?	have you talked to somerholder?	1650586	1471971306785	1471971306891	m	77
3270	34610	Have you talked to Somerholder?	have you talked to somerholder?	1650591	1471971306911	1471971307037	e	69
3270	34610	Have you talked to Somerholder?	have you talked to somerholder?	1650644	1471971307126	1471971307213	r	82
3270	34610	Have you talked to Somerholder?	have you talked to somerholder?	1650650	1471971307802	1471971307879	h	72
3270	34610	Have you talked to Somerholder?	have you talked to somerholder?	1650655	1471971307904	1471971307983	o	79
3270	34610	Have you talked to Somerholder?	have you talked to somerholder?	1650663	1471971308090	1471971308190	l	76
3270	34610	Have you talked to Somerholder?	have you talked to somerholder?	1650666	1471971308589	1471971308669	d	68
3270	34610	Have you talked to Somerholder?	have you talked to somerholder?	1650787	1471971308786	1471971308872	e	69
3270	34610	Have you talked to Somerholder?	have you talked to somerholder?	1650792	1471971309036	1471971309109	r	82
3270	34610	Have you talked to Somerholder?	have you talked to somerholder?	1650800	1471971310491	1471971310800	SHIFT	16
3270	34610	Have you talked to Somerholder?	have you talked to somerholder?	1650809	1471971310710	1471971310806	?	191
3270	34622	I think I played three different courses.	i think i played three different courses.	1650951	1471971313889	1471971314003	i	73
3270	34622	I think I played three different courses.	i think i played three different courses.	1650954	1471971314037	1471971314164	 	32
3270	34622	I think I played three different courses.	i think i played three different courses.	1650956	1471971314260	1471971314319	t	84
3270	34622	I think I played three different courses.	i think i played three different courses.	1650958	1471971314422	1471971314505	h	72
3270	34622	I think I played three different courses.	i think i played three different courses.	1650960	1471971314538	1471971314614	i	73
3270	34622	I think I played three different courses.	i think i played three different courses.	1650974	1471971314704	1471971314767	n	78
3270	34622	I think I played three different courses.	i think i played three different courses.	1650977	1471971314771	1471971314896	k	75
3270	34622	I think I played three different courses.	i think i played three different courses.	1650980	1471971314949	1471971315081	 	32
3270	34622	I think I played three different courses.	i think i played three different courses.	1650985	1471971315318	1471971315454	i	73
3270	34622	I think I played three different courses.	i think i played three different courses.	1650989	1471971315494	1471971315615	 	32
3270	34622	I think I played three different courses.	i think i played three different courses.	1651016	1471971315818	1471971315905	p	80
3270	34622	I think I played three different courses.	i think i played three different courses.	1651022	1471971316000	1471971316104	l	76
3270	34622	I think I played three different courses.	i think i played three different courses.	1651028	1471971316210	1471971316276	a	65
3270	34622	I think I played three different courses.	i think i played three different courses.	1651034	1471971316384	1471971316486	y	89
3270	34622	I think I played three different courses.	i think i played three different courses.	1651037	1471971316576	1471971316632	e	69
3270	34622	I think I played three different courses.	i think i played three different courses.	1651077	1471971316743	1471971316829	d	68
3270	34622	I think I played three different courses.	i think i played three different courses.	1651081	1471971316857	1471971317005	 	32
3270	34622	I think I played three different courses.	i think i played three different courses.	1651086	1471971317379	1471971317449	t	84
3270	34622	I think I played three different courses.	i think i played three different courses.	1651090	1471971317476	1471971317584	h	72
3270	34622	I think I played three different courses.	i think i played three different courses.	1651097	1471971317594	1471971317660	r	82
3270	34622	I think I played three different courses.	i think i played three different courses.	1651186	1471971317759	1471971317839	e	69
3270	34622	I think I played three different courses.	i think i played three different courses.	1651191	1471971317966	1471971318027	e	69
3270	34622	I think I played three different courses.	i think i played three different courses.	1651196	1471971318175	1471971318285	 	32
3270	34622	I think I played three different courses.	i think i played three different courses.	1651198	1471971318906	1471971318997	d	68
3270	34622	I think I played three different courses.	i think i played three different courses.	1651201	1471971319065	1471971319165	i	73
3270	34622	I think I played three different courses.	i think i played three different courses.	1651236	1471971319262	1471971319308	f	70
3270	34622	I think I played three different courses.	i think i played three different courses.	1651241	1471971319409	1471971319472	f	70
3270	34622	I think I played three different courses.	i think i played three different courses.	1651248	1471971319568	1471971319633	e	69
3270	34622	I think I played three different courses.	i think i played three different courses.	1651254	1471971319704	1471971319768	r	82
3270	34622	I think I played three different courses.	i think i played three different courses.	1651261	1471971319848	1471971319926	e	69
3270	34622	I think I played three different courses.	i think i played three different courses.	1651310	1471971319948	1471971320050	n	78
3270	34622	I think I played three different courses.	i think i played three different courses.	1651311	1471971320033	1471971320096	t	84
3270	34622	I think I played three different courses.	i think i played three different courses.	1651312	1471971320223	1471971320357	 	32
3270	34622	I think I played three different courses.	i think i played three different courses.	1651315	1471971321057	1471971321125	c	67
3270	34622	I think I played three different courses.	i think i played three different courses.	1651319	1471971321167	1471971321259	o	79
3270	34622	I think I played three different courses.	i think i played three different courses.	1651428	1471971321370	1471971321465	u	85
3270	34622	I think I played three different courses.	i think i played three different courses.	1651430	1471971322678	1471971322745	r	82
3270	34622	I think I played three different courses.	i think i played three different courses.	1651433	1471971323110	1471971323170	s	83
3270	34622	I think I played three different courses.	i think i played three different courses.	1651436	1471971323311	1471971323364	e	69
3270	34622	I think I played three different courses.	i think i played three different courses.	1651439	1471971323470	1471971323537	s	83
3270	34622	I think I played three different courses.	i think i played three different courses.	1651485	1471971324016	1471971324092	.	190
