PARTICIPANT_ID	TEST_SECTION_ID	SENTENCE	USER_INPUT	KEYSTROKE_ID	PRESS_TIME	RELEASE_TIME	LETTER	KEYCODE
3273	34465	A bit behind on my emails.	A bit behind on my emails.	1644047	1471971175563	1471971176190	SHIFT	16
3273	34465	A bit behind on my emails.	A bit behind on my emails.	1644050	1471971176174	1471971176350		65
3273	34465	A bit behind on my emails.	A bit behind on my emails.	1644052	1471971177070	1471971177206		32
3273	34465	A bit behind on my emails.	A bit behind on my emails.	1644054	1471971177462	1471971177629		86
3273	34465	A bit behind on my emails.	A bit behind on my emails.	1644056	1471971177646	1471971177789		73
3273	34465	A bit behind on my emails.	A bit behind on my emails.	1644103	1471971177870	1471971177989		84
3273	34465	A bit behind on my emails.	A bit behind on my emails.	1644105	1471971178254	1471971178334		8
3273	34465	A bit behind on my emails.	A bit behind on my emails.	1644109	1471971178414	1471971178494		8
3273	34465	A bit behind on my emails.	A bit behind on my emails.	1644112	1471971178574	1471971178629		8
3273	34465	A bit behind on my emails.	A bit behind on my emails.	1644118	1471971178688	1471971178773		8
3273	34465	A bit behind on my emails.	A bit behind on my emails.	1644122	1471971179086	1471971179230		66
3273	34465	A bit behind on my emails.	A bit behind on my emails.	1644190	1471971179462	1471971179611		73
3273	34465	A bit behind on my emails.	A bit behind on my emails.	1644192	1471971179617	1471971179790		84
3273	34465	A bit behind on my emails.	A bit behind on my emails.	1644194	1471971179774	1471971179901		32
3273	34465	A bit behind on my emails.	A bit behind on my emails.	1644199	1471971180311	1471971180430		66
3273	34465	A bit behind on my emails.	A bit behind on my emails.	1644203	1471971180694	1471971180854		69
3273	34465	A bit behind on my emails.	A bit behind on my emails.	1644226	1471971181007	1471971181134		72
3273	34465	A bit behind on my emails.	A bit behind on my emails.	1644230	1471971181198	1471971181325		73
3273	34465	A bit behind on my emails.	A bit behind on my emails.	1644236	1471971181406	1471971181550		78
3273	34465	A bit behind on my emails.	A bit behind on my emails.	1644240	1471971181517	1471971181710		68
3273	34465	A bit behind on my emails.	A bit behind on my emails.	1644344	1471971181686	1471971181821		32
3273	34465	A bit behind on my emails.	A bit behind on my emails.	1644350	1471971182406	1471971182510		79
3273	34465	A bit behind on my emails.	A bit behind on my emails.	1644354	1471971182574	1471971182726		78
3273	34465	A bit behind on my emails.	A bit behind on my emails.	1644358	1471971182710	1471971182845		32
3273	34465	A bit behind on my emails.	A bit behind on my emails.	1644362	1471971183104	1471971183206		77
3273	34465	A bit behind on my emails.	A bit behind on my emails.	1644364	1471971183366	1471971183438		89
3273	34465	A bit behind on my emails.	A bit behind on my emails.	1644425	1471971183878	1471971184013		32
3273	34465	A bit behind on my emails.	A bit behind on my emails.	1644427	1471971184470	1471971184646		69
3273	34465	A bit behind on my emails.	A bit behind on my emails.	1644430	1471971184654	1471971184814		77
3273	34465	A bit behind on my emails.	A bit behind on my emails.	1644435	1471971184798	1471971185013		65
3273	34465	A bit behind on my emails.	A bit behind on my emails.	1644535	1471971184998	1471971185125		73
3273	34465	A bit behind on my emails.	A bit behind on my emails.	1644538	1471971185702	1471971185830		76
3273	34465	A bit behind on my emails.	A bit behind on my emails.	1644539	1471971185997	1471971186174		83
3273	34465	A bit behind on my emails.	A bit behind on my emails.	1644540	1471971186574	1471971186702		190
3273	34496	I will get the gathering to Gloria tomorrow.	I will get the gathering to Gloria tomorrow.	1645351	1471971202326	1471971202605	SHIFT	16
3273	34496	I will get the gathering to Gloria tomorrow.	I will get the gathering to Gloria tomorrow.	1645355	1471971202582	1471971202726		73
3273	34496	I will get the gathering to Gloria tomorrow.	I will get the gathering to Gloria tomorrow.	1645359	1471971202806	1471971202950		32
3273	34496	I will get the gathering to Gloria tomorrow.	I will get the gathering to Gloria tomorrow.	1645364	1471971203238	1471971203414		87
3273	34496	I will get the gathering to Gloria tomorrow.	I will get the gathering to Gloria tomorrow.	1645370	1471971204191	1471971204310		73
3273	34496	I will get the gathering to Gloria tomorrow.	I will get the gathering to Gloria tomorrow.	1645374	1471971204406	1471971204486		76
3273	34496	I will get the gathering to Gloria tomorrow.	I will get the gathering to Gloria tomorrow.	1645413	1471971204574	1471971204654		76
3273	34496	I will get the gathering to Gloria tomorrow.	I will get the gathering to Gloria tomorrow.	1645416	1471971204694	1471971204846		32
3273	34496	I will get the gathering to Gloria tomorrow.	I will get the gathering to Gloria tomorrow.	1645427	1471971204926	1471971205110		84
3273	34496	I will get the gathering to Gloria tomorrow.	I will get the gathering to Gloria tomorrow.	1645420	1471971204958	1471971205102		72
3273	34496	I will get the gathering to Gloria tomorrow.	I will get the gathering to Gloria tomorrow.	1645432	1471971205566	1471971205622		8
3273	34496	I will get the gathering to Gloria tomorrow.	I will get the gathering to Gloria tomorrow.	1645508	1471971205742	1471971205766		8
3273	34496	I will get the gathering to Gloria tomorrow.	I will get the gathering to Gloria tomorrow.	1645509	1471971205838	1471971205901		8
3273	34496	I will get the gathering to Gloria tomorrow.	I will get the gathering to Gloria tomorrow.	1645511	1471971206046	1471971206174		71
3273	34496	I will get the gathering to Gloria tomorrow.	I will get the gathering to Gloria tomorrow.	1645513	1471971206918	1471971207038		32
3273	34496	I will get the gathering to Gloria tomorrow.	I will get the gathering to Gloria tomorrow.	1645514	1471971207366	1471971207438		8
3273	34496	I will get the gathering to Gloria tomorrow.	I will get the gathering to Gloria tomorrow.	1645571	1471971207518	1471971207590		8
3273	34496	I will get the gathering to Gloria tomorrow.	I will get the gathering to Gloria tomorrow.	1645572	1471971207679	1471971207694		8
3273	34496	I will get the gathering to Gloria tomorrow.	I will get the gathering to Gloria tomorrow.	1645576	1471971207821	1471971207981		32
3273	34496	I will get the gathering to Gloria tomorrow.	I will get the gathering to Gloria tomorrow.	1645577	1471971208518	1471971208550		76
3273	34496	I will get the gathering to Gloria tomorrow.	I will get the gathering to Gloria tomorrow.	1645578	1471971208750	1471971208822		8
3273	34496	I will get the gathering to Gloria tomorrow.	I will get the gathering to Gloria tomorrow.	1645656	1471971208910	1471971208982		8
3273	34496	I will get the gathering to Gloria tomorrow.	I will get the gathering to Gloria tomorrow.	1645660	1471971209294	1471971209430		76
3273	34496	I will get the gathering to Gloria tomorrow.	I will get the gathering to Gloria tomorrow.	1645665	1471971209526	1471971209654		32
3273	34496	I will get the gathering to Gloria tomorrow.	I will get the gathering to Gloria tomorrow.	1645670	1471971210150	1471971210253		71
3273	34496	I will get the gathering to Gloria tomorrow.	I will get the gathering to Gloria tomorrow.	1645672	1471971210342	1471971210470		69
3273	34496	I will get the gathering to Gloria tomorrow.	I will get the gathering to Gloria tomorrow.	1645729	1471971210541	1471971210630		82
3273	34496	I will get the gathering to Gloria tomorrow.	I will get the gathering to Gloria tomorrow.	1645735	1471971210645	1471971210806		32
3273	34496	I will get the gathering to Gloria tomorrow.	I will get the gathering to Gloria tomorrow.	1645741	1471971211198	1471971211254		8
3273	34496	I will get the gathering to Gloria tomorrow.	I will get the gathering to Gloria tomorrow.	1645746	1471971211454	1471971211542		8
3273	34496	I will get the gathering to Gloria tomorrow.	I will get the gathering to Gloria tomorrow.	1645751	1471971211614	1471971211798		84
3273	34496	I will get the gathering to Gloria tomorrow.	I will get the gathering to Gloria tomorrow.	1645820	1471971211750	1471971211902		32
3273	34496	I will get the gathering to Gloria tomorrow.	I will get the gathering to Gloria tomorrow.	1645827	1471971212214	1471971212366		84
3273	34496	I will get the gathering to Gloria tomorrow.	I will get the gathering to Gloria tomorrow.	1645831	1471971212294	1471971212382		72
3273	34496	I will get the gathering to Gloria tomorrow.	I will get the gathering to Gloria tomorrow.	1645837	1471971212390	1471971212558		69
3273	34496	I will get the gathering to Gloria tomorrow.	I will get the gathering to Gloria tomorrow.	1645841	1471971212477	1471971212654		32
3273	34496	I will get the gathering to Gloria tomorrow.	I will get the gathering to Gloria tomorrow.	1645845	1471971213046	1471971213174		71
3273	34496	I will get the gathering to Gloria tomorrow.	I will get the gathering to Gloria tomorrow.	1645941	1471971213646	1471971213790		65
3273	34496	I will get the gathering to Gloria tomorrow.	I will get the gathering to Gloria tomorrow.	1645945	1471971214023	1471971214278		84
3273	34496	I will get the gathering to Gloria tomorrow.	I will get the gathering to Gloria tomorrow.	1645950	1471971214254	1471971214405		72
3273	34496	I will get the gathering to Gloria tomorrow.	I will get the gathering to Gloria tomorrow.	1645956	1471971214534	1471971214718		69
3273	34496	I will get the gathering to Gloria tomorrow.	I will get the gathering to Gloria tomorrow.	1645959	1471971215038	1471971215198		82
3273	34496	I will get the gathering to Gloria tomorrow.	I will get the gathering to Gloria tomorrow.	1646009	1471971215182	1471971215318		73
3273	34496	I will get the gathering to Gloria tomorrow.	I will get the gathering to Gloria tomorrow.	1646012	1471971215374	1471971215517		78
3273	34496	I will get the gathering to Gloria tomorrow.	I will get the gathering to Gloria tomorrow.	1646014	1471971215550	1471971215733		71
3273	34496	I will get the gathering to Gloria tomorrow.	I will get the gathering to Gloria tomorrow.	1646017	1471971215702	1471971215853		32
3273	34496	I will get the gathering to Gloria tomorrow.	I will get the gathering to Gloria tomorrow.	1646021	1471971216110	1471971216287		84
3273	34496	I will get the gathering to Gloria tomorrow.	I will get the gathering to Gloria tomorrow.	1646130	1471971216269	1471971216414		79
3273	34496	I will get the gathering to Gloria tomorrow.	I will get the gathering to Gloria tomorrow.	1646134	1471971216422	1471971216598		32
3273	34496	I will get the gathering to Gloria tomorrow.	I will get the gathering to Gloria tomorrow.	1646139	1471971217318	1471971217950	SHIFT	16
3273	34496	I will get the gathering to Gloria tomorrow.	I will get the gathering to Gloria tomorrow.	1646141	1471971217822	1471971217982		71
3273	34496	I will get the gathering to Gloria tomorrow.	I will get the gathering to Gloria tomorrow.	1646143	1471971218566	1471971218629		76
3273	34496	I will get the gathering to Gloria tomorrow.	I will get the gathering to Gloria tomorrow.	1646148	1471971218742	1471971218886		79
3273	34496	I will get the gathering to Gloria tomorrow.	I will get the gathering to Gloria tomorrow.	1646151	1471971219182	1471971219358		82
3273	34496	I will get the gathering to Gloria tomorrow.	I will get the gathering to Gloria tomorrow.	1646195	1471971219334	1471971219478		73
3273	34496	I will get the gathering to Gloria tomorrow.	I will get the gathering to Gloria tomorrow.	1646200	1471971219566	1471971219710		83
3273	34496	I will get the gathering to Gloria tomorrow.	I will get the gathering to Gloria tomorrow.	1646204	1471971219997	1471971220125		8
3273	34496	I will get the gathering to Gloria tomorrow.	I will get the gathering to Gloria tomorrow.	1646207	1471971220110	1471971220293		65
3273	34496	I will get the gathering to Gloria tomorrow.	I will get the gathering to Gloria tomorrow.	1646212	1471971220286	1471971220454		32
3273	34496	I will get the gathering to Gloria tomorrow.	I will get the gathering to Gloria tomorrow.	1646217	1471971220854	1471971221030		84
3273	34496	I will get the gathering to Gloria tomorrow.	I will get the gathering to Gloria tomorrow.	1646278	1471971221044	1471971221165		79
3273	34496	I will get the gathering to Gloria tomorrow.	I will get the gathering to Gloria tomorrow.	1646280	1471971221366	1471971221502		77
3273	34496	I will get the gathering to Gloria tomorrow.	I will get the gathering to Gloria tomorrow.	1646281	1471971221733	1471971221853		79
3273	34496	I will get the gathering to Gloria tomorrow.	I will get the gathering to Gloria tomorrow.	1646283	1471971222190	1471971222302		82
3273	34496	I will get the gathering to Gloria tomorrow.	I will get the gathering to Gloria tomorrow.	1646285	1471971222390	1471971222542		82
3273	34496	I will get the gathering to Gloria tomorrow.	I will get the gathering to Gloria tomorrow.	1646321	1471971222574	1471971222725		79
3273	34496	I will get the gathering to Gloria tomorrow.	I will get the gathering to Gloria tomorrow.	1646323	1471971222766	1471971222941		87
3273	34496	I will get the gathering to Gloria tomorrow.	I will get the gathering to Gloria tomorrow.	1646325	1471971223254	1471971223358		190
3273	34534	It's a shame to have to miss one or the other.	It's a shame to have to miss one or the other.	1646976	1471971234848	1471971236790	SHIFT	16
3273	34534	It's a shame to have to miss one or the other.	It's a shame to have to miss one or the other.	1646977	1471971236758	1471971236926		73
3273	34534	It's a shame to have to miss one or the other.	It's a shame to have to miss one or the other.	1646978	1471971236838	1471971237062		84
3273	34534	It's a shame to have to miss one or the other.	It's a shame to have to miss one or the other.	1646980	1471971237438	1471971237606		222
3273	34534	It's a shame to have to miss one or the other.	It's a shame to have to miss one or the other.	1646984	1471971237841	1471971237981		83
3273	34534	It's a shame to have to miss one or the other.	It's a shame to have to miss one or the other.	1647077	1471971237958	1471971238118		32
3273	34534	It's a shame to have to miss one or the other.	It's a shame to have to miss one or the other.	1647078	1471971238422	1471971238581		65
3273	34534	It's a shame to have to miss one or the other.	It's a shame to have to miss one or the other.	1647079	1471971238613	1471971238775		32
3273	34534	It's a shame to have to miss one or the other.	It's a shame to have to miss one or the other.	1647080	1471971239046	1471971239199		83
3273	34534	It's a shame to have to miss one or the other.	It's a shame to have to miss one or the other.	1647081	1471971239454	1471971239606		72
3273	34534	It's a shame to have to miss one or the other.	It's a shame to have to miss one or the other.	1647083	1471971239622	1471971239782		65
3273	34534	It's a shame to have to miss one or the other.	It's a shame to have to miss one or the other.	1647128	1471971240222	1471971240342		77
3273	34534	It's a shame to have to miss one or the other.	It's a shame to have to miss one or the other.	1647131	1471971240326	1471971240510		69
3273	34534	It's a shame to have to miss one or the other.	It's a shame to have to miss one or the other.	1647134	1471971240445	1471971240606		32
3273	34534	It's a shame to have to miss one or the other.	It's a shame to have to miss one or the other.	1647139	1471971240862	1471971241045		84
3273	34534	It's a shame to have to miss one or the other.	It's a shame to have to miss one or the other.	1647194	1471971240968	1471971241118		79
3273	34534	It's a shame to have to miss one or the other.	It's a shame to have to miss one or the other.	1647196	1471971241134	1471971241246		32
3273	34534	It's a shame to have to miss one or the other.	It's a shame to have to miss one or the other.	1647199	1471971241358	1471971241494		72
3273	34534	It's a shame to have to miss one or the other.	It's a shame to have to miss one or the other.	1647201	1471971241446	1471971241614		65
3273	34534	It's a shame to have to miss one or the other.	It's a shame to have to miss one or the other.	1647203	1471971241685	1471971241822		86
3273	34534	It's a shame to have to miss one or the other.	It's a shame to have to miss one or the other.	1647205	1471971241894	1471971242102		69
3273	34534	It's a shame to have to miss one or the other.	It's a shame to have to miss one or the other.	1647267	1471971242046	1471971242198		32
3273	34534	It's a shame to have to miss one or the other.	It's a shame to have to miss one or the other.	1647272	1471971242310	1471971242486		84
3273	34534	It's a shame to have to miss one or the other.	It's a shame to have to miss one or the other.	1647274	1471971242382	1471971242533		79
3273	34534	It's a shame to have to miss one or the other.	It's a shame to have to miss one or the other.	1647277	1471971242566	1471971242717		32
3273	34534	It's a shame to have to miss one or the other.	It's a shame to have to miss one or the other.	1647280	1471971243366	1471971243486		77
3273	34534	It's a shame to have to miss one or the other.	It's a shame to have to miss one or the other.	1647282	1471971243558	1471971243710		73
3273	34534	It's a shame to have to miss one or the other.	It's a shame to have to miss one or the other.	1647322	1471971243702	1471971243838		83
3273	34534	It's a shame to have to miss one or the other.	It's a shame to have to miss one or the other.	1647325	1471971243910	1471971244078		83
3273	34534	It's a shame to have to miss one or the other.	It's a shame to have to miss one or the other.	1647326	1471971244070	1471971244198		32
3273	34534	It's a shame to have to miss one or the other.	It's a shame to have to miss one or the other.	1647328	1471971244230	1471971244414		79
3273	34534	It's a shame to have to miss one or the other.	It's a shame to have to miss one or the other.	1647329	1471971244678	1471971244814		78
3273	34534	It's a shame to have to miss one or the other.	It's a shame to have to miss one or the other.	1647331	1471971244838	1471971245078		69
3273	34534	It's a shame to have to miss one or the other.	It's a shame to have to miss one or the other.	1647401	1471971244982	1471971245142		32
3273	34534	It's a shame to have to miss one or the other.	It's a shame to have to miss one or the other.	1647403	1471971245670	1471971245822		79
3273	34534	It's a shame to have to miss one or the other.	It's a shame to have to miss one or the other.	1647404	1471971245830	1471971246030		82
3273	34534	It's a shame to have to miss one or the other.	It's a shame to have to miss one or the other.	1647405	1471971246016	1471971246141		32
3273	34534	It's a shame to have to miss one or the other.	It's a shame to have to miss one or the other.	1647475	1471971246294	1471971246494		84
3273	34534	It's a shame to have to miss one or the other.	It's a shame to have to miss one or the other.	1647407	1471971246334	1471971246462		72
3273	34534	It's a shame to have to miss one or the other.	It's a shame to have to miss one or the other.	1647479	1471971246534	1471971246782		69
3273	34534	It's a shame to have to miss one or the other.	It's a shame to have to miss one or the other.	1647484	1471971246686	1471971246845		32
3273	34534	It's a shame to have to miss one or the other.	It's a shame to have to miss one or the other.	1647488	1471971247734	1471971247894		79
3273	34534	It's a shame to have to miss one or the other.	It's a shame to have to miss one or the other.	1647492	1471971247998	1471971248169		84
3273	34534	It's a shame to have to miss one or the other.	It's a shame to have to miss one or the other.	1647571	1471971248158	1471971248454		69
3273	34534	It's a shame to have to miss one or the other.	It's a shame to have to miss one or the other.	1647572	1471971248950	1471971249054		8
3273	34534	It's a shame to have to miss one or the other.	It's a shame to have to miss one or the other.	1647573	1471971249214	1471971249358		72
3273	34534	It's a shame to have to miss one or the other.	It's a shame to have to miss one or the other.	1647575	1471971249430	1471971249614		69
3273	34534	It's a shame to have to miss one or the other.	It's a shame to have to miss one or the other.	1647578	1471971249590	1471971249765		82
3273	34534	It's a shame to have to miss one or the other.	It's a shame to have to miss one or the other.	1647580	1471971250326	1471971250437		190
3273	34558	He has developed a good on-field relationship with QB Brad Johnson.	He has developed a good on-field relationship with QB Brad johnson.	1648061	1471971259182	1471971259918	SHIFT	16
3273	34558	He has developed a good on-field relationship with QB Brad Johnson.	He has developed a good on-field relationship with QB Brad johnson.	1648062	1471971259872	1471971259958		72
3273	34558	He has developed a good on-field relationship with QB Brad Johnson.	He has developed a good on-field relationship with QB Brad johnson.	1648063	1471971259919	1471971260110		69
3273	34558	He has developed a good on-field relationship with QB Brad Johnson.	He has developed a good on-field relationship with QB Brad johnson.	1648064	1471971260086	1471971260254		32
3273	34558	He has developed a good on-field relationship with QB Brad Johnson.	He has developed a good on-field relationship with QB Brad johnson.	1648066	1471971261486	1471971261606		72
3273	34558	He has developed a good on-field relationship with QB Brad Johnson.	He has developed a good on-field relationship with QB Brad johnson.	1648067	1471971261646	1471971261846		65
3273	34558	He has developed a good on-field relationship with QB Brad Johnson.	He has developed a good on-field relationship with QB Brad johnson.	1648133	1471971261814	1471971262046		83
3273	34558	He has developed a good on-field relationship with QB Brad Johnson.	He has developed a good on-field relationship with QB Brad johnson.	1648136	1471971261990	1471971262150		32
3273	34558	He has developed a good on-field relationship with QB Brad Johnson.	He has developed a good on-field relationship with QB Brad johnson.	1648138	1471971262430	1471971262526		68
3273	34558	He has developed a good on-field relationship with QB Brad Johnson.	He has developed a good on-field relationship with QB Brad johnson.	1648142	1471971262630	1471971262790		69
3273	34558	He has developed a good on-field relationship with QB Brad Johnson.	He has developed a good on-field relationship with QB Brad johnson.	1648147	1471971263078	1471971263222		86
3273	34558	He has developed a good on-field relationship with QB Brad Johnson.	He has developed a good on-field relationship with QB Brad johnson.	1648151	1471971263318	1471971263494		69
3273	34558	He has developed a good on-field relationship with QB Brad Johnson.	He has developed a good on-field relationship with QB Brad johnson.	1648265	1471971263518	1471971263606		76
3273	34558	He has developed a good on-field relationship with QB Brad Johnson.	He has developed a good on-field relationship with QB Brad johnson.	1648268	1471971263726	1471971263894		79
3273	34558	He has developed a good on-field relationship with QB Brad Johnson.	He has developed a good on-field relationship with QB Brad johnson.	1648273	1471971264662	1471971264813		80
3273	34558	He has developed a good on-field relationship with QB Brad Johnson.	He has developed a good on-field relationship with QB Brad johnson.	1648275	1471971264838	1471971264958		69
3273	34558	He has developed a good on-field relationship with QB Brad Johnson.	He has developed a good on-field relationship with QB Brad johnson.	1648277	1471971265070	1471971265222		68
3273	34558	He has developed a good on-field relationship with QB Brad Johnson.	He has developed a good on-field relationship with QB Brad johnson.	1648302	1471971265198	1471971265359		32
3273	34558	He has developed a good on-field relationship with QB Brad Johnson.	He has developed a good on-field relationship with QB Brad johnson.	1648306	1471971265430	1471971265606		65
3273	34558	He has developed a good on-field relationship with QB Brad Johnson.	He has developed a good on-field relationship with QB Brad johnson.	1648311	1471971265590	1471971265742		32
3273	34558	He has developed a good on-field relationship with QB Brad Johnson.	He has developed a good on-field relationship with QB Brad johnson.	1648316	1471971266038	1471971266222		71
3273	34558	He has developed a good on-field relationship with QB Brad Johnson.	He has developed a good on-field relationship with QB Brad johnson.	1648321	1471971266214	1471971266342		79
3273	34558	He has developed a good on-field relationship with QB Brad Johnson.	He has developed a good on-field relationship with QB Brad johnson.	1648328	1471971266422	1471971266550		79
3273	34558	He has developed a good on-field relationship with QB Brad Johnson.	He has developed a good on-field relationship with QB Brad johnson.	1648379	1471971266654	1471971266846		68
3273	34558	He has developed a good on-field relationship with QB Brad Johnson.	He has developed a good on-field relationship with QB Brad johnson.	1648384	1471971266822	1471971266990		32
3273	34558	He has developed a good on-field relationship with QB Brad Johnson.	He has developed a good on-field relationship with QB Brad johnson.	1648386	1471971267118	1471971267278		79
3273	34558	He has developed a good on-field relationship with QB Brad Johnson.	He has developed a good on-field relationship with QB Brad johnson.	1648390	1471971267414	1471971267518		78
3273	34558	He has developed a good on-field relationship with QB Brad Johnson.	He has developed a good on-field relationship with QB Brad johnson.	1648394	1471971267670	1471971267750		78
3273	34558	He has developed a good on-field relationship with QB Brad Johnson.	He has developed a good on-field relationship with QB Brad johnson.	1648535	1471971268086	1471971268213		8
3273	34558	He has developed a good on-field relationship with QB Brad Johnson.	He has developed a good on-field relationship with QB Brad johnson.	1648541	1471971268734	1471971268797		173
3273	34558	He has developed a good on-field relationship with QB Brad Johnson.	He has developed a good on-field relationship with QB Brad johnson.	1648548	1471971269806	1471971269926		32
3273	34558	He has developed a good on-field relationship with QB Brad Johnson.	He has developed a good on-field relationship with QB Brad johnson.	1648554	1471971270206	1471971270270		8
3273	34558	He has developed a good on-field relationship with QB Brad Johnson.	He has developed a good on-field relationship with QB Brad johnson.	1648657	1471971270366	1471971270438		8
3273	34558	He has developed a good on-field relationship with QB Brad Johnson.	He has developed a good on-field relationship with QB Brad johnson.	1648659	1471971271614	1471971271758		70
3273	34558	He has developed a good on-field relationship with QB Brad Johnson.	He has developed a good on-field relationship with QB Brad johnson.	1648664	1471971272038	1471971272198		73
3273	34558	He has developed a good on-field relationship with QB Brad Johnson.	He has developed a good on-field relationship with QB Brad johnson.	1648667	1471971272262	1471971272406		69
3273	34558	He has developed a good on-field relationship with QB Brad Johnson.	He has developed a good on-field relationship with QB Brad johnson.	1648671	1471971272574	1471971272710		76
3273	34558	He has developed a good on-field relationship with QB Brad Johnson.	He has developed a good on-field relationship with QB Brad johnson.	1648720	1471971272782	1471971272952		68
3273	34558	He has developed a good on-field relationship with QB Brad Johnson.	He has developed a good on-field relationship with QB Brad johnson.	1648723	1471971272934	1471971273046		32
3273	34558	He has developed a good on-field relationship with QB Brad Johnson.	He has developed a good on-field relationship with QB Brad johnson.	1648727	1471971273318	1471971273462		82
3273	34558	He has developed a good on-field relationship with QB Brad Johnson.	He has developed a good on-field relationship with QB Brad johnson.	1648732	1471971273486	1471971273654		69
3273	34558	He has developed a good on-field relationship with QB Brad Johnson.	He has developed a good on-field relationship with QB Brad johnson.	1648738	1471971273758	1471971273885		76
3273	34558	He has developed a good on-field relationship with QB Brad Johnson.	He has developed a good on-field relationship with QB Brad johnson.	1648875	1471971273878	1471971274046		65
3273	34558	He has developed a good on-field relationship with QB Brad Johnson.	He has developed a good on-field relationship with QB Brad johnson.	1648878	1471971274525	1471971274726		84
3273	34558	He has developed a good on-field relationship with QB Brad Johnson.	He has developed a good on-field relationship with QB Brad johnson.	1648881	1471971274694	1471971274838		73
3273	34558	He has developed a good on-field relationship with QB Brad Johnson.	He has developed a good on-field relationship with QB Brad johnson.	1648886	1471971274846	1471971275022		79
3273	34558	He has developed a good on-field relationship with QB Brad Johnson.	He has developed a good on-field relationship with QB Brad johnson.	1648890	1471971275190	1471971275294		78
3273	34558	He has developed a good on-field relationship with QB Brad Johnson.	He has developed a good on-field relationship with QB Brad johnson.	1648895	1471971275758	1471971275934		83
3273	34558	He has developed a good on-field relationship with QB Brad Johnson.	He has developed a good on-field relationship with QB Brad johnson.	1648995	1471971275871	1471971276030		72
3273	34558	He has developed a good on-field relationship with QB Brad Johnson.	He has developed a good on-field relationship with QB Brad johnson.	1648997	1471971276102	1471971276262		73
3273	34558	He has developed a good on-field relationship with QB Brad Johnson.	He has developed a good on-field relationship with QB Brad johnson.	1648999	1471971276478	1471971276613		80
3273	34558	He has developed a good on-field relationship with QB Brad Johnson.	He has developed a good on-field relationship with QB Brad johnson.	1649002	1471971276677	1471971276814		32
3273	34558	He has developed a good on-field relationship with QB Brad Johnson.	He has developed a good on-field relationship with QB Brad johnson.	1649004	1471971277142	1471971277350		87
3273	34558	He has developed a good on-field relationship with QB Brad Johnson.	He has developed a good on-field relationship with QB Brad johnson.	1649006	1471971277518	1471971277662		73
3273	34558	He has developed a good on-field relationship with QB Brad Johnson.	He has developed a good on-field relationship with QB Brad johnson.	1649205	1471971277694	1471971277878		84
3273	34558	He has developed a good on-field relationship with QB Brad Johnson.	He has developed a good on-field relationship with QB Brad johnson.	1649209	1471971277870	1471971277974		72
3273	34558	He has developed a good on-field relationship with QB Brad Johnson.	He has developed a good on-field relationship with QB Brad johnson.	1649215	1471971278030	1471971278198		32
3273	34558	He has developed a good on-field relationship with QB Brad Johnson.	He has developed a good on-field relationship with QB Brad johnson.	1649230	1471971278710	1471971279486	SHIFT	16
3273	34558	He has developed a good on-field relationship with QB Brad Johnson.	He has developed a good on-field relationship with QB Brad johnson.	1649223	1471971279286	1471971279430		81
3273	34558	He has developed a good on-field relationship with QB Brad Johnson.	He has developed a good on-field relationship with QB Brad johnson.	1649353	1471971280398	1471971280862	SHIFT	16
3273	34558	He has developed a good on-field relationship with QB Brad Johnson.	He has developed a good on-field relationship with QB Brad johnson.	1649236	1471971280686	1471971280782		66
3273	34558	He has developed a good on-field relationship with QB Brad Johnson.	He has developed a good on-field relationship with QB Brad johnson.	1649356	1471971281198	1471971281366		32
3273	34558	He has developed a good on-field relationship with QB Brad Johnson.	He has developed a good on-field relationship with QB Brad johnson.	1649358	1471971281758	1471971281855		66
3273	34558	He has developed a good on-field relationship with QB Brad Johnson.	He has developed a good on-field relationship with QB Brad johnson.	1649361	1471971282222	1471971282333		8
3273	34558	He has developed a good on-field relationship with QB Brad Johnson.	He has developed a good on-field relationship with QB Brad johnson.	1649372	1471971282342	1471971282725	SHIFT	16
3273	34558	He has developed a good on-field relationship with QB Brad Johnson.	He has developed a good on-field relationship with QB Brad johnson.	1649367	1471971282550	1471971282710		66
3273	34558	He has developed a good on-field relationship with QB Brad Johnson.	He has developed a good on-field relationship with QB Brad johnson.	1649378	1471971283494	1471971283638		82
3273	34558	He has developed a good on-field relationship with QB Brad Johnson.	He has developed a good on-field relationship with QB Brad johnson.	1649491	1471971283718	1471971283894		65
3273	34558	He has developed a good on-field relationship with QB Brad Johnson.	He has developed a good on-field relationship with QB Brad johnson.	1649495	1471971284046	1471971284182		68
3273	34558	He has developed a good on-field relationship with QB Brad Johnson.	He has developed a good on-field relationship with QB Brad johnson.	1649499	1471971284198	1471971284334		32
3273	34558	He has developed a good on-field relationship with QB Brad Johnson.	He has developed a good on-field relationship with QB Brad johnson.	1649502	1471971285438	1471971285566		72
3273	34558	He has developed a good on-field relationship with QB Brad Johnson.	He has developed a good on-field relationship with QB Brad johnson.	1649504	1471971285830	1471971285990		79
3273	34558	He has developed a good on-field relationship with QB Brad Johnson.	He has developed a good on-field relationship with QB Brad johnson.	1649625	1471971286086	1471971286238		83
3273	34558	He has developed a good on-field relationship with QB Brad Johnson.	He has developed a good on-field relationship with QB Brad johnson.	1649630	1471971286446	1471971286598		72
3273	34558	He has developed a good on-field relationship with QB Brad Johnson.	He has developed a good on-field relationship with QB Brad johnson.	1649635	1471971287302	1471971287382		61
3273	34558	He has developed a good on-field relationship with QB Brad Johnson.	He has developed a good on-field relationship with QB Brad johnson.	1649639	1471971287454	1471971287510		61
3273	34558	He has developed a good on-field relationship with QB Brad Johnson.	He has developed a good on-field relationship with QB Brad johnson.	1649643	1471971287590	1471971287669		61
3273	34558	He has developed a good on-field relationship with QB Brad Johnson.	He has developed a good on-field relationship with QB Brad johnson.	1649641	1471971287886	1471971287966		8
3273	34558	He has developed a good on-field relationship with QB Brad Johnson.	He has developed a good on-field relationship with QB Brad johnson.	1649644	1471971288054	1471971288126		8
3273	34558	He has developed a good on-field relationship with QB Brad Johnson.	He has developed a good on-field relationship with QB Brad johnson.	1649645	1471971288198	1471971288254		8
3273	34558	He has developed a good on-field relationship with QB Brad Johnson.	He has developed a good on-field relationship with QB Brad johnson.	1649646	1471971288326	1471971288374		8
3273	34558	He has developed a good on-field relationship with QB Brad Johnson.	He has developed a good on-field relationship with QB Brad johnson.	1649648	1471971288446	1471971288510		8
3273	34558	He has developed a good on-field relationship with QB Brad Johnson.	He has developed a good on-field relationship with QB Brad johnson.	1649819	1471971288574	1471971288646		8
3273	34558	He has developed a good on-field relationship with QB Brad Johnson.	He has developed a good on-field relationship with QB Brad johnson.	1649820	1471971288862	1471971288957		8
3273	34558	He has developed a good on-field relationship with QB Brad Johnson.	He has developed a good on-field relationship with QB Brad johnson.	1649821	1471971290486	1471971290678		74
3273	34558	He has developed a good on-field relationship with QB Brad Johnson.	He has developed a good on-field relationship with QB Brad johnson.	1649823	1471971290686	1471971290830		79
3273	34558	He has developed a good on-field relationship with QB Brad Johnson.	He has developed a good on-field relationship with QB Brad johnson.	1649825	1471971291870	1471971291966		72
3273	34558	He has developed a good on-field relationship with QB Brad Johnson.	He has developed a good on-field relationship with QB Brad johnson.	1649937	1471971292142	1471971292294		78
3273	34558	He has developed a good on-field relationship with QB Brad Johnson.	He has developed a good on-field relationship with QB Brad johnson.	1649940	1471971292438	1471971292614		83
3273	34558	He has developed a good on-field relationship with QB Brad Johnson.	He has developed a good on-field relationship with QB Brad johnson.	1649942	1471971292646	1471971292790		79
3273	34558	He has developed a good on-field relationship with QB Brad Johnson.	He has developed a good on-field relationship with QB Brad johnson.	1649946	1471971292998	1471971293134		78
3273	34558	He has developed a good on-field relationship with QB Brad Johnson.	He has developed a good on-field relationship with QB Brad johnson.	1649952	1471971293798	1471971293902		190
3273	34606	The Jets will try to control the ball and the clock against the Rams.	The Jets will try to control the ball and the clock against the Rams.	1650685	1471971305416	1471971305798	SHIFT	16
3273	34606	The Jets will try to control the ball and the clock against the Rams.	The Jets will try to control the ball and the clock against the Rams.	1650688	1471971305751	1471971305926		84
3273	34606	The Jets will try to control the ball and the clock against the Rams.	The Jets will try to control the ball and the clock against the Rams.	1650693	1471971305862	1471971305967		72
3273	34606	The Jets will try to control the ball and the clock against the Rams.	The Jets will try to control the ball and the clock against the Rams.	1650698	1471971305950	1471971306166		69
3273	34606	The Jets will try to control the ball and the clock against the Rams.	The Jets will try to control the ball and the clock against the Rams.	1650703	1471971306103	1471971306254		32
3273	34606	The Jets will try to control the ball and the clock against the Rams.	The Jets will try to control the ball and the clock against the Rams.	1650705	1471971307950	1471971308086		74
3273	34606	The Jets will try to control the ball and the clock against the Rams.	The Jets will try to control the ball and the clock against the Rams.	1650726	1471971308014	1471971308294		69
3273	34606	The Jets will try to control the ball and the clock against the Rams.	The Jets will try to control the ball and the clock against the Rams.	1650729	1471971308358	1471971308510		84
3273	34606	The Jets will try to control the ball and the clock against the Rams.	The Jets will try to control the ball and the clock against the Rams.	1650732	1471971308662	1471971308889		83
3273	34606	The Jets will try to control the ball and the clock against the Rams.	The Jets will try to control the ball and the clock against the Rams.	1650737	1471971308890	1471971309029		32
3273	34606	The Jets will try to control the ball and the clock against the Rams.	The Jets will try to control the ball and the clock against the Rams.	1650740	1471971309238	1471971309438		87
3273	34606	The Jets will try to control the ball and the clock against the Rams.	The Jets will try to control the ball and the clock against the Rams.	1650742	1471971309525	1471971309670		73
3273	34606	The Jets will try to control the ball and the clock against the Rams.	The Jets will try to control the ball and the clock against the Rams.	1650796	1471971309765	1471971309822		76
3273	34606	The Jets will try to control the ball and the clock against the Rams.	The Jets will try to control the ball and the clock against the Rams.	1650804	1471971309917	1471971309989		76
3273	34606	The Jets will try to control the ball and the clock against the Rams.	The Jets will try to control the ball and the clock against the Rams.	1650812	1471971310110	1471971310174		32
3273	34606	The Jets will try to control the ball and the clock against the Rams.	The Jets will try to control the ball and the clock against the Rams.	1650818	1471971310238	1471971310437		84
3273	34606	The Jets will try to control the ball and the clock against the Rams.	The Jets will try to control the ball and the clock against the Rams.	1650825	1471971310886	1471971311054		69
3273	34606	The Jets will try to control the ball and the clock against the Rams.	The Jets will try to control the ball and the clock against the Rams.	1650924	1471971311534	1471971311662		8
3273	34606	The Jets will try to control the ball and the clock against the Rams.	The Jets will try to control the ball and the clock against the Rams.	1650927	1471971311750	1471971311958		82
3273	34606	The Jets will try to control the ball and the clock against the Rams.	The Jets will try to control the ball and the clock against the Rams.	1650929	1471971311910	1471971312022		89
3273	34606	The Jets will try to control the ball and the clock against the Rams.	The Jets will try to control the ball and the clock against the Rams.	1650932	1471971312366	1471971312510		32
3273	34606	The Jets will try to control the ball and the clock against the Rams.	The Jets will try to control the ball and the clock against the Rams.	1650936	1471971313086	1471971313254		84
3273	34606	The Jets will try to control the ball and the clock against the Rams.	The Jets will try to control the ball and the clock against the Rams.	1650982	1471971313238	1471971313302		79
3273	34606	The Jets will try to control the ball and the clock against the Rams.	The Jets will try to control the ball and the clock against the Rams.	1650988	1471971313286	1471971313469		32
3273	34606	The Jets will try to control the ball and the clock against the Rams.	The Jets will try to control the ball and the clock against the Rams.	1650991	1471971313646	1471971313814		67
3273	34606	The Jets will try to control the ball and the clock against the Rams.	The Jets will try to control the ball and the clock against the Rams.	1650993	1471971313742	1471971313870		79
3273	34606	The Jets will try to control the ball and the clock against the Rams.	The Jets will try to control the ball and the clock against the Rams.	1650995	1471971313958	1471971314118		78
3273	34606	The Jets will try to control the ball and the clock against the Rams.	The Jets will try to control the ball and the clock against the Rams.	1650997	1471971314582	1471971314742		82
3273	34606	The Jets will try to control the ball and the clock against the Rams.	The Jets will try to control the ball and the clock against the Rams.	1651075	1471971315054	1471971315198		69
3273	34606	The Jets will try to control the ball and the clock against the Rams.	The Jets will try to control the ball and the clock against the Rams.	1651082	1471971315934	1471971316030		8
3273	34606	The Jets will try to control the ball and the clock against the Rams.	The Jets will try to control the ball and the clock against the Rams.	1651087	1471971316046	1471971316198		82
3273	34606	The Jets will try to control the ball and the clock against the Rams.	The Jets will try to control the ball and the clock against the Rams.	1651092	1471971316214	1471971316350		79
3273	34606	The Jets will try to control the ball and the clock against the Rams.	The Jets will try to control the ball and the clock against the Rams.	1651096	1471971316494	1471971316638		76
3273	34606	The Jets will try to control the ball and the clock against the Rams.	The Jets will try to control the ball and the clock against the Rams.	1651135	1471971316774	1471971316910		32
3273	34606	The Jets will try to control the ball and the clock against the Rams.	The Jets will try to control the ball and the clock against the Rams.	1651141	1471971317126	1471971317293		84
3273	34606	The Jets will try to control the ball and the clock against the Rams.	The Jets will try to control the ball and the clock against the Rams.	1651146	1471971317206	1471971317333		72
3273	34606	The Jets will try to control the ball and the clock against the Rams.	The Jets will try to control the ball and the clock against the Rams.	1651152	1471971317317	1471971317518		69
3273	34606	The Jets will try to control the ball and the clock against the Rams.	The Jets will try to control the ball and the clock against the Rams.	1651226	1471971317438	1471971317598		32
3273	34606	The Jets will try to control the ball and the clock against the Rams.	The Jets will try to control the ball and the clock against the Rams.	1651229	1471971317998	1471971318150		66
3273	34606	The Jets will try to control the ball and the clock against the Rams.	The Jets will try to control the ball and the clock against the Rams.	1651234	1471971318246	1471971318406		65
3273	34606	The Jets will try to control the ball and the clock against the Rams.	The Jets will try to control the ball and the clock against the Rams.	1651240	1471971318350	1471971318438		76
3273	34606	The Jets will try to control the ball and the clock against the Rams.	The Jets will try to control the ball and the clock against the Rams.	1651247	1471971318551	1471971318622		76
3273	34606	The Jets will try to control the ball and the clock against the Rams.	The Jets will try to control the ball and the clock against the Rams.	1651253	1471971318670	1471971318806		32
3273	34606	The Jets will try to control the ball and the clock against the Rams.	The Jets will try to control the ball and the clock against the Rams.	1651324	1471971318934	1471971319134		65
3273	34606	The Jets will try to control the ball and the clock against the Rams.	The Jets will try to control the ball and the clock against the Rams.	1651326	1471971319094	1471971319233		78
3273	34606	The Jets will try to control the ball and the clock against the Rams.	The Jets will try to control the ball and the clock against the Rams.	1651328	1471971319214	1471971319390		68
3273	34606	The Jets will try to control the ball and the clock against the Rams.	The Jets will try to control the ball and the clock against the Rams.	1651332	1471971319326	1471971319485		32
3273	34606	The Jets will try to control the ball and the clock against the Rams.	The Jets will try to control the ball and the clock against the Rams.	1651335	1471971320382	1471971320542		84
3273	34606	The Jets will try to control the ball and the clock against the Rams.	The Jets will try to control the ball and the clock against the Rams.	1651374	1471971320606	1471971320790		69
3273	34606	The Jets will try to control the ball and the clock against the Rams.	The Jets will try to control the ball and the clock against the Rams.	1651379	1471971320814	1471971320902		72
3273	34606	The Jets will try to control the ball and the clock against the Rams.	The Jets will try to control the ball and the clock against the Rams.	1651383	1471971321134	1471971321254		8
3273	34606	The Jets will try to control the ball and the clock against the Rams.	The Jets will try to control the ball and the clock against the Rams.	1651389	1471971321358	1471971321454		8
3273	34606	The Jets will try to control the ball and the clock against the Rams.	The Jets will try to control the ball and the clock against the Rams.	1651393	1471971321606	1471971321734		72
3273	34606	The Jets will try to control the ball and the clock against the Rams.	The Jets will try to control the ball and the clock against the Rams.	1651470	1471971321686	1471971321886		69
3273	34606	The Jets will try to control the ball and the clock against the Rams.	The Jets will try to control the ball and the clock against the Rams.	1651472	1471971321782	1471971321942		32
3273	34606	The Jets will try to control the ball and the clock against the Rams.	The Jets will try to control the ball and the clock against the Rams.	1651474	1471971322270	1471971322446		67
3273	34606	The Jets will try to control the ball and the clock against the Rams.	The Jets will try to control the ball and the clock against the Rams.	1651476	1471971322486	1471971322582		76
3273	34606	The Jets will try to control the ball and the clock against the Rams.	The Jets will try to control the ball and the clock against the Rams.	1651478	1471971322718	1471971322854		79
3273	34606	The Jets will try to control the ball and the clock against the Rams.	The Jets will try to control the ball and the clock against the Rams.	1651482	1471971323006	1471971323190		67
3273	34606	The Jets will try to control the ball and the clock against the Rams.	The Jets will try to control the ball and the clock against the Rams.	1651564	1471971323766	1471971323870		75
3273	34606	The Jets will try to control the ball and the clock against the Rams.	The Jets will try to control the ball and the clock against the Rams.	1651572	1471971323893	1471971324062		32
3273	34606	The Jets will try to control the ball and the clock against the Rams.	The Jets will try to control the ball and the clock against the Rams.	1651580	1471971324342	1471971324478		65
3273	34606	The Jets will try to control the ball and the clock against the Rams.	The Jets will try to control the ball and the clock against the Rams.	1651593	1471971324654	1471971324790		71
3273	34606	The Jets will try to control the ball and the clock against the Rams.	The Jets will try to control the ball and the clock against the Rams.	1651600	1471971324870	1471971325022		65
3273	34606	The Jets will try to control the ball and the clock against the Rams.	The Jets will try to control the ball and the clock against the Rams.	1651664	1471971325830	1471971325942		73
3273	34606	The Jets will try to control the ball and the clock against the Rams.	The Jets will try to control the ball and the clock against the Rams.	1651671	1471971326046	1471971326195		78
3273	34606	The Jets will try to control the ball and the clock against the Rams.	The Jets will try to control the ball and the clock against the Rams.	1651675	1471971326446	1471971326574		83
3273	34606	The Jets will try to control the ball and the clock against the Rams.	The Jets will try to control the ball and the clock against the Rams.	1651681	1471971326662	1471971326830		84
3273	34606	The Jets will try to control the ball and the clock against the Rams.	The Jets will try to control the ball and the clock against the Rams.	1651685	1471971326878	1471971327030		32
3273	34606	The Jets will try to control the ball and the clock against the Rams.	The Jets will try to control the ball and the clock against the Rams.	1651773	1471971327134	1471971327334		84
3273	34606	The Jets will try to control the ball and the clock against the Rams.	The Jets will try to control the ball and the clock against the Rams.	1651768	1471971327214	1471971327318		72
3273	34606	The Jets will try to control the ball and the clock against the Rams.	The Jets will try to control the ball and the clock against the Rams.	1651778	1471971327390	1471971327590		69
3273	34606	The Jets will try to control the ball and the clock against the Rams.	The Jets will try to control the ball and the clock against the Rams.	1651782	1471971328414	1471971328710	SHIFT	16
3273	34606	The Jets will try to control the ball and the clock against the Rams.	The Jets will try to control the ball and the clock against the Rams.	1651856	1471971329134	1471971329598	SHIFT	16
3273	34606	The Jets will try to control the ball and the clock against the Rams.	The Jets will try to control the ball and the clock against the Rams.	1651785	1471971329438	1471971329518		84
3273	34606	The Jets will try to control the ball and the clock against the Rams.	The Jets will try to control the ball and the clock against the Rams.	1651859	1471971330134	1471971330286		8
3273	34606	The Jets will try to control the ball and the clock against the Rams.	The Jets will try to control the ball and the clock against the Rams.	1651865	1471971330278	1471971330606	SHIFT	16
3273	34606	The Jets will try to control the ball and the clock against the Rams.	The Jets will try to control the ball and the clock against the Rams.	1651862	1471971330474	1471971330581		82
3273	34606	The Jets will try to control the ball and the clock against the Rams.	The Jets will try to control the ball and the clock against the Rams.	1651868	1471971330838	1471971331078		65
3273	34606	The Jets will try to control the ball and the clock against the Rams.	The Jets will try to control the ball and the clock against the Rams.	1651871	1471971331134	1471971331254		78
3273	34606	The Jets will try to control the ball and the clock against the Rams.	The Jets will try to control the ball and the clock against the Rams.	1651873	1471971331598	1471971331766		83
3273	34606	The Jets will try to control the ball and the clock against the Rams.	The Jets will try to control the ball and the clock against the Rams.	1651922	1471971332102	1471971332166		8
3273	34606	The Jets will try to control the ball and the clock against the Rams.	The Jets will try to control the ball and the clock against the Rams.	1651926	1471971332262	1471971332350		8
3273	34606	The Jets will try to control the ball and the clock against the Rams.	The Jets will try to control the ball and the clock against the Rams.	1651931	1471971332502	1471971332655		77
3273	34606	The Jets will try to control the ball and the clock against the Rams.	The Jets will try to control the ball and the clock against the Rams.	1651938	1471971332655	1471971332806		83
3273	34606	The Jets will try to control the ball and the clock against the Rams.	The Jets will try to control the ball and the clock against the Rams.	1651943	1471971333174	1471971333262		190
3273	34606	The Jets will try to control the ball and the clock against the Rams.	The Jets will try to control the ball and the clock against the Rams.	1652935	1471971350953	1471971353159	SHIFT	16
3273	34606	The Jets will try to control the ball and the clock against the Rams.	The Jets will try to control the ball and the clock against the Rams.	1652939	1471971354791	1471971355527	SHIFT	16
3273	34606	The Jets will try to control the ball and the clock against the Rams.	The Jets will try to control the ball and the clock against the Rams.	1652941	1471971355470	1471971355654		84
3273	34606	The Jets will try to control the ball and the clock against the Rams.	The Jets will try to control the ball and the clock against the Rams.	1652943	1471971355647	1471971355870		69
3273	34606	The Jets will try to control the ball and the clock against the Rams.	The Jets will try to control the ball and the clock against the Rams.	1652944	1471971355806	1471971355982		32
3273	34606	The Jets will try to control the ball and the clock against the Rams.	The Jets will try to control the ball and the clock against the Rams.	1652945	1471971356374	1471971356470		8
3273	34606	The Jets will try to control the ball and the clock against the Rams.	The Jets will try to control the ball and the clock against the Rams.	1652984	1471971356558	1471971356647		8
3273	34606	The Jets will try to control the ball and the clock against the Rams.	The Jets will try to control the ball and the clock against the Rams.	1652986	1471971356678	1471971356821		8
3273	34606	The Jets will try to control the ball and the clock against the Rams.	The Jets will try to control the ball and the clock against the Rams.	1652991	1471971357446	1471971357566		72
3273	34606	The Jets will try to control the ball and the clock against the Rams.	The Jets will try to control the ball and the clock against the Rams.	1652994	1471971357558	1471971357758		69
3273	34606	The Jets will try to control the ball and the clock against the Rams.	The Jets will try to control the ball and the clock against the Rams.	1653129	1471971357694	1471971357854		32
3273	34606	The Jets will try to control the ball and the clock against the Rams.	The Jets will try to control the ball and the clock against the Rams.	1653136	1471971358782	1471971358998	SHIFT	16
3273	34606	The Jets will try to control the ball and the clock against the Rams.	The Jets will try to control the ball and the clock against the Rams.	1653132	1471971358790	1471971358990	WIN	91
3273	34606	The Jets will try to control the ball and the clock against the Rams.	The Jets will try to control the ball and the clock against the Rams.	1653148	1471971359134	1471971359598	SHIFT	16
3273	34606	The Jets will try to control the ball and the clock against the Rams.	The Jets will try to control the ball and the clock against the Rams.	1653141	1471971359494	1471971359582		74
3273	34606	The Jets will try to control the ball and the clock against the Rams.	The Jets will try to control the ball and the clock against the Rams.	1653154	1471971360038	1471971360198		69
3273	34606	The Jets will try to control the ball and the clock against the Rams.	The Jets will try to control the ball and the clock against the Rams.	1653156	1471971360814	1471971360982		84
3273	34606	The Jets will try to control the ball and the clock against the Rams.	The Jets will try to control the ball and the clock against the Rams.	1653158	1471971361126	1471971361334		83
3273	34606	The Jets will try to control the ball and the clock against the Rams.	The Jets will try to control the ball and the clock against the Rams.	1653217	1471971361327	1471971361486		32
3273	34606	The Jets will try to control the ball and the clock against the Rams.	The Jets will try to control the ball and the clock against the Rams.	1653221	1471971361742	1471971361926		87
3273	34606	The Jets will try to control the ball and the clock against the Rams.	The Jets will try to control the ball and the clock against the Rams.	1653224	1471971361958	1471971362054		73
3273	34606	The Jets will try to control the ball and the clock against the Rams.	The Jets will try to control the ball and the clock against the Rams.	1653226	1471971362174	1471971362262		76
3273	34606	The Jets will try to control the ball and the clock against the Rams.	The Jets will try to control the ball and the clock against the Rams.	1653228	1471971362350	1471971362430		76
3273	34606	The Jets will try to control the ball and the clock against the Rams.	The Jets will try to control the ball and the clock against the Rams.	1653230	1471971362470	1471971362598		32
3273	34606	The Jets will try to control the ball and the clock against the Rams.	The Jets will try to control the ball and the clock against the Rams.	1653277	1471971362630	1471971362846		84
3273	34606	The Jets will try to control the ball and the clock against the Rams.	The Jets will try to control the ball and the clock against the Rams.	1653279	1471971363294	1471971363430		82
3273	34606	The Jets will try to control the ball and the clock against the Rams.	The Jets will try to control the ball and the clock against the Rams.	1653281	1471971363734	1471971363854		85
3273	34606	The Jets will try to control the ball and the clock against the Rams.	The Jets will try to control the ball and the clock against the Rams.	1653283	1471971363886	1471971364062		32
3273	34606	The Jets will try to control the ball and the clock against the Rams.	The Jets will try to control the ball and the clock against the Rams.	1653336	1471971364294	1471971364389		8
3273	34606	The Jets will try to control the ball and the clock against the Rams.	The Jets will try to control the ball and the clock against the Rams.	1653340	1471971364678	1471971364742		89
3273	34606	The Jets will try to control the ball and the clock against the Rams.	The Jets will try to control the ball and the clock against the Rams.	1653347	1471971364950	1471971365030		8
3273	34606	The Jets will try to control the ball and the clock against the Rams.	The Jets will try to control the ball and the clock against the Rams.	1653351	1471971365109	1471971365182		8
3273	34606	The Jets will try to control the ball and the clock against the Rams.	The Jets will try to control the ball and the clock against the Rams.	1653353	1471971365270	1471971365294		8
3273	34606	The Jets will try to control the ball and the clock against the Rams.	The Jets will try to control the ball and the clock against the Rams.	1653356	1471971365638	1471971365742		89
3273	34606	The Jets will try to control the ball and the clock against the Rams.	The Jets will try to control the ball and the clock against the Rams.	1653432	1471971365934	1471971366038		32
3273	34606	The Jets will try to control the ball and the clock against the Rams.	The Jets will try to control the ball and the clock against the Rams.	1653435	1471971366398	1471971366566		84
3273	34606	The Jets will try to control the ball and the clock against the Rams.	The Jets will try to control the ball and the clock against the Rams.	1653440	1471971366510	1471971366582		79
3273	34606	The Jets will try to control the ball and the clock against the Rams.	The Jets will try to control the ball and the clock against the Rams.	1653446	1471971366606	1471971366774		32
3273	34606	The Jets will try to control the ball and the clock against the Rams.	The Jets will try to control the ball and the clock against the Rams.	1653450	1471971366990	1471971367158		67
3273	34606	The Jets will try to control the ball and the clock against the Rams.	The Jets will try to control the ball and the clock against the Rams.	1653537	1471971367078	1471971367174		79
3273	34606	The Jets will try to control the ball and the clock against the Rams.	The Jets will try to control the ball and the clock against the Rams.	1653538	1471971367278	1471971367422		78
3273	34606	The Jets will try to control the ball and the clock against the Rams.	The Jets will try to control the ball and the clock against the Rams.	1653539	1471971367974	1471971368102		84
3273	34606	The Jets will try to control the ball and the clock against the Rams.	The Jets will try to control the ball and the clock against the Rams.	1653540	1471971368230	1471971368430		82
3273	34606	The Jets will try to control the ball and the clock against the Rams.	The Jets will try to control the ball and the clock against the Rams.	1653541	1471971368918	1471971369006		79
3273	34606	The Jets will try to control the ball and the clock against the Rams.	The Jets will try to control the ball and the clock against the Rams.	1653543	1471971369118	1471971369254		76
3273	34606	The Jets will try to control the ball and the clock against the Rams.	The Jets will try to control the ball and the clock against the Rams.	1653570	1471971369294	1471971369406		32
3273	34606	The Jets will try to control the ball and the clock against the Rams.	The Jets will try to control the ball and the clock against the Rams.	1653574	1471971369446	1471971369622		84
3273	34606	The Jets will try to control the ball and the clock against the Rams.	The Jets will try to control the ball and the clock against the Rams.	1653577	1471971369518	1471971369664		72
3273	34606	The Jets will try to control the ball and the clock against the Rams.	The Jets will try to control the ball and the clock against the Rams.	1653580	1471971369654	1471971369846		69
3273	34606	The Jets will try to control the ball and the clock against the Rams.	The Jets will try to control the ball and the clock against the Rams.	1653661	1471971369710	1471971369857		32
3273	34606	The Jets will try to control the ball and the clock against the Rams.	The Jets will try to control the ball and the clock against the Rams.	1653664	1471971370158	1471971370294		66
3273	34606	The Jets will try to control the ball and the clock against the Rams.	The Jets will try to control the ball and the clock against the Rams.	1653668	1471971370630	1471971370710		8
3273	34606	The Jets will try to control the ball and the clock against the Rams.	The Jets will try to control the ball and the clock against the Rams.	1653671	1471971371294	1471971371430		66
3273	34606	The Jets will try to control the ball and the clock against the Rams.	The Jets will try to control the ball and the clock against the Rams.	1653674	1471971371470	1471971371638		65
3273	34606	The Jets will try to control the ball and the clock against the Rams.	The Jets will try to control the ball and the clock against the Rams.	1653711	1471971371622	1471971371734		76
3273	34606	The Jets will try to control the ball and the clock against the Rams.	The Jets will try to control the ball and the clock against the Rams.	1653714	1471971371798	1471971371902		76
3273	34606	The Jets will try to control the ball and the clock against the Rams.	The Jets will try to control the ball and the clock against the Rams.	1653719	1471971371950	1471971372094		32
3273	34606	The Jets will try to control the ball and the clock against the Rams.	The Jets will try to control the ball and the clock against the Rams.	1653726	1471971372318	1471971372486		65
3273	34606	The Jets will try to control the ball and the clock against the Rams.	The Jets will try to control the ball and the clock against the Rams.	1653730	1471971372542	1471971372638		78
3273	34606	The Jets will try to control the ball and the clock against the Rams.	The Jets will try to control the ball and the clock against the Rams.	1653774	1471971372606	1471971372766		68
3273	34606	The Jets will try to control the ball and the clock against the Rams.	The Jets will try to control the ball and the clock against the Rams.	1653778	1471971372758	1471971372886		32
3273	34606	The Jets will try to control the ball and the clock against the Rams.	The Jets will try to control the ball and the clock against the Rams.	1653779	1471971373422	1471971373518		84
3273	34606	The Jets will try to control the ball and the clock against the Rams.	The Jets will try to control the ball and the clock against the Rams.	1653781	1471971373558	1471971373630		72
3273	34606	The Jets will try to control the ball and the clock against the Rams.	The Jets will try to control the ball and the clock against the Rams.	1653828	1471971373694	1471971373830		32
3273	34606	The Jets will try to control the ball and the clock against the Rams.	The Jets will try to control the ball and the clock against the Rams.	1653830	1471971374376	1471971374550		67
3273	34606	The Jets will try to control the ball and the clock against the Rams.	The Jets will try to control the ball and the clock against the Rams.	1653832	1471971374542	1471971374638		76
3273	34606	The Jets will try to control the ball and the clock against the Rams.	The Jets will try to control the ball and the clock against the Rams.	1653834	1471971374758	1471971374862		79
3273	34606	The Jets will try to control the ball and the clock against the Rams.	The Jets will try to control the ball and the clock against the Rams.	1653838	1471971375014	1471971375206		67
3273	34606	The Jets will try to control the ball and the clock against the Rams.	The Jets will try to control the ball and the clock against the Rams.	1653845	1471971375246	1471971375326		75
3273	34606	The Jets will try to control the ball and the clock against the Rams.	The Jets will try to control the ball and the clock against the Rams.	1653912	1471971375494	1471971375606		32
3273	34606	The Jets will try to control the ball and the clock against the Rams.	The Jets will try to control the ball and the clock against the Rams.	1653915	1471971375774	1471971375902		65
3273	34606	The Jets will try to control the ball and the clock against the Rams.	The Jets will try to control the ball and the clock against the Rams.	1653919	1471971375998	1471971376126		71
3273	34606	The Jets will try to control the ball and the clock against the Rams.	The Jets will try to control the ball and the clock against the Rams.	1653925	1471971376166	1471971376366		65
3273	34606	The Jets will try to control the ball and the clock against the Rams.	The Jets will try to control the ball and the clock against the Rams.	1653930	1471971376822	1471971376942		73
3273	34606	The Jets will try to control the ball and the clock against the Rams.	The Jets will try to control the ball and the clock against the Rams.	1653986	1471971377022	1471971377158		78
3273	34606	The Jets will try to control the ball and the clock against the Rams.	The Jets will try to control the ball and the clock against the Rams.	1653988	1471971377159	1471971377318		71
3273	34606	The Jets will try to control the ball and the clock against the Rams.	The Jets will try to control the ball and the clock against the Rams.	1653989	1471971377486	1471971377678		83
3273	34606	The Jets will try to control the ball and the clock against the Rams.	The Jets will try to control the ball and the clock against the Rams.	1653991	1471971378078	1471971378174		8
3273	34606	The Jets will try to control the ball and the clock against the Rams.	The Jets will try to control the ball and the clock against the Rams.	1654019	1471971378150	1471971378342		83
3273	34606	The Jets will try to control the ball and the clock against the Rams.	The Jets will try to control the ball and the clock against the Rams.	1654024	1471971378414	1471971378526		84
3273	34606	The Jets will try to control the ball and the clock against the Rams.	The Jets will try to control the ball and the clock against the Rams.	1654030	1471971378662	1471971378750		8
3273	34606	The Jets will try to control the ball and the clock against the Rams.	The Jets will try to control the ball and the clock against the Rams.	1654034	1471971378830	1471971378886		8
3273	34606	The Jets will try to control the ball and the clock against the Rams.	The Jets will try to control the ball and the clock against the Rams.	1654037	1471971378959	1471971379022		8
3273	34606	The Jets will try to control the ball and the clock against the Rams.	The Jets will try to control the ball and the clock against the Rams.	1654043	1471971379030	1471971379230		83
3273	34606	The Jets will try to control the ball and the clock against the Rams.	The Jets will try to control the ball and the clock against the Rams.	1654078	1471971379214	1471971379414		84
3273	34606	The Jets will try to control the ball and the clock against the Rams.	The Jets will try to control the ball and the clock against the Rams.	1654081	1471971379590	1471971379710		32
3273	34606	The Jets will try to control the ball and the clock against the Rams.	The Jets will try to control the ball and the clock against the Rams.	1654083	1471971380070	1471971380222		84
3273	34606	The Jets will try to control the ball and the clock against the Rams.	The Jets will try to control the ball and the clock against the Rams.	1654086	1471971380142	1471971380254		72
3273	34606	The Jets will try to control the ball and the clock against the Rams.	The Jets will try to control the ball and the clock against the Rams.	1654088	1471971380246	1471971380414		69
3273	34606	The Jets will try to control the ball and the clock against the Rams.	The Jets will try to control the ball and the clock against the Rams.	1654161	1471971380350	1471971380502		32
3273	34606	The Jets will try to control the ball and the clock against the Rams.	The Jets will try to control the ball and the clock against the Rams.	1654165	1471971380966	1471971381310	SHIFT	16
3273	34606	The Jets will try to control the ball and the clock against the Rams.	The Jets will try to control the ball and the clock against the Rams.	1654167	1471971381182	1471971381342		82
3273	34606	The Jets will try to control the ball and the clock against the Rams.	The Jets will try to control the ball and the clock against the Rams.	1654170	1471971381382	1471971381550	SHIFT	16
3273	34606	The Jets will try to control the ball and the clock against the Rams.	The Jets will try to control the ball and the clock against the Rams.	1654176	1471971381886	1471971382014		77
3273	34606	The Jets will try to control the ball and the clock against the Rams.	The Jets will try to control the ball and the clock against the Rams.	1654180	1471971382478	1471971382598		8
3273	34606	The Jets will try to control the ball and the clock against the Rams.	The Jets will try to control the ball and the clock against the Rams.	1654183	1471971382614	1471971382814		65
3273	34606	The Jets will try to control the ball and the clock against the Rams.	The Jets will try to control the ball and the clock against the Rams.	1654226	1471971382798	1471971382910		77
3273	34606	The Jets will try to control the ball and the clock against the Rams.	The Jets will try to control the ball and the clock against the Rams.	1654228	1471971382958	1471971383134		83
3273	34606	The Jets will try to control the ball and the clock against the Rams.	The Jets will try to control the ball and the clock against the Rams.	1654230	1471971383878	1471971383998		190
3273	34693	I do not want to repeat.	I don not want to repeat.	1654506	1471971388638	1471971389254	SHIFT	16
3273	34693	I do not want to repeat.	I don not want to repeat.	1654504	1471971389118	1471971389222		73
3273	34693	I do not want to repeat.	I don not want to repeat.	1654507	1471971389286	1471971389438		32
3273	34693	I do not want to repeat.	I don not want to repeat.	1654508	1471971389750	1471971389998		83
3273	34693	I do not want to repeat.	I don not want to repeat.	1654509	1471971389958	1471971390086		73
3273	34693	I do not want to repeat.	I don not want to repeat.	1654510	1471971390422	1471971390478		8
3273	34693	I do not want to repeat.	I don not want to repeat.	1654534	1471971390558	1471971390646		8
3273	34693	I do not want to repeat.	I don not want to repeat.	1654537	1471971390773	1471971390966		68
3273	34693	I do not want to repeat.	I don not want to repeat.	1654543	1471971390926	1471971391006		79
3273	34693	I do not want to repeat.	I don not want to repeat.	1654546	1471971391126	1471971391270		78
3273	34693	I do not want to repeat.	I don not want to repeat.	1654584	1471971391254	1471971391390		32
3273	34693	I do not want to repeat.	I don not want to repeat.	1654585	1471971391502	1471971391614		78
3273	34693	I do not want to repeat.	I don not want to repeat.	1654586	1471971391622	1471971391758		79
3273	34693	I do not want to repeat.	I don not want to repeat.	1654587	1471971391782	1471971391966		84
3273	34693	I do not want to repeat.	I don not want to repeat.	1654589	1471971391926	1471971392102		32
3273	34693	I do not want to repeat.	I don not want to repeat.	1654591	1471971392358	1471971392486		87
3273	34693	I do not want to repeat.	I don not want to repeat.	1654637	1471971392646	1471971392846		65
3273	34693	I do not want to repeat.	I don not want to repeat.	1654639	1471971392999	1471971393126		78
3273	34693	I do not want to repeat.	I don not want to repeat.	1654641	1471971393086	1471971393270		84
3273	34693	I do not want to repeat.	I don not want to repeat.	1654642	1471971393302	1471971393422		32
3273	34693	I do not want to repeat.	I don not want to repeat.	1654643	1471971393894	1471971394062		84
3273	34693	I do not want to repeat.	I don not want to repeat.	1654700	1471971394030	1471971394102		79
3273	34693	I do not want to repeat.	I don not want to repeat.	1654703	1471971394118	1471971394246		32
3273	34693	I do not want to repeat.	I don not want to repeat.	1654708	1471971394294	1471971394454		82
3273	34693	I do not want to repeat.	I don not want to repeat.	1654712	1471971394582	1471971394750		69
3273	34693	I do not want to repeat.	I don not want to repeat.	1654716	1471971394838	1471971395006		65
3273	34693	I do not want to repeat.	I don not want to repeat.	1654718	1471971395413	1471971395510		8
3273	34693	I do not want to repeat.	I don not want to repeat.	1654900	1471971395962	1471971396118		80
3273	34693	I do not want to repeat.	I don not want to repeat.	1654902	1471971396222	1471971396406		69
3273	34693	I do not want to repeat.	I don not want to repeat.	1654906	1471971396822	1471971396966		84
3273	34693	I do not want to repeat.	I don not want to repeat.	1654909	1471971398678	1471971398790		8
3273	34693	I do not want to repeat.	I don not want to repeat.	1654913	1471971398814	1471971398982		65
3273	34693	I do not want to repeat.	I don not want to repeat.	1654958	1471971399046	1471971399198		84
3273	34693	I do not want to repeat.	I don not want to repeat.	1654960	1471971399486	1471971399622		190
3273	34707	I think Citation should be good now.	I think Citaton should be good now.	1655436	1471971408279	1471971408638	SHIFT	16
3273	34707	I think Citation should be good now.	I think Citaton should be good now.	1655439	1471971408598	1471971408694		73
3273	34707	I think Citation should be good now.	I think Citaton should be good now.	1655443	1471971408758	1471971408918		32
3273	34707	I think Citation should be good now.	I think Citaton should be good now.	1655447	1471971409103	1471971409294		84
3273	34707	I think Citation should be good now.	I think Citaton should be good now.	1655451	1471971409174	1471971409343		72
3273	34707	I think Citation should be good now.	I think Citaton should be good now.	1655454	1471971409343	1471971409453		73
3273	34707	I think Citation should be good now.	I think Citaton should be good now.	1655487	1471971409518	1471971409669		78
3273	34707	I think Citation should be good now.	I think Citaton should be good now.	1655490	1471971409693	1471971409870		68
3273	34707	I think Citation should be good now.	I think Citaton should be good now.	1655495	1471971409918	1471971410021		75
3273	34707	I think Citation should be good now.	I think Citaton should be good now.	1655501	1471971410294	1471971410382		8
3273	34707	I think Citation should be good now.	I think Citaton should be good now.	1655505	1471971410438	1471971410518		8
3273	34707	I think Citation should be good now.	I think Citaton should be good now.	1655593	1471971410662	1471971410822		75
3273	34707	I think Citation should be good now.	I think Citaton should be good now.	1655597	1471971410830	1471971410982		32
3273	34707	I think Citation should be good now.	I think Citaton should be good now.	1655601	1471971411686	1471971412046	SHIFT	16
3273	34707	I think Citation should be good now.	I think Citaton should be good now.	1655606	1471971411988	1471971412149		67
3273	34707	I think Citation should be good now.	I think Citaton should be good now.	1655609	1471971412718	1471971412862		73
3273	34707	I think Citation should be good now.	I think Citaton should be good now.	1655613	1471971413007	1471971413150		84
3273	34707	I think Citation should be good now.	I think Citaton should be good now.	1655642	1471971413198	1471971413374		65
3273	34707	I think Citation should be good now.	I think Citaton should be good now.	1655646	1471971413462	1471971413579		82
3273	34707	I think Citation should be good now.	I think Citaton should be good now.	1655648	1471971413558	1471971413726		73
3273	34707	I think Citation should be good now.	I think Citaton should be good now.	1655651	1471971414016	1471971414079		8
3273	34707	I think Citation should be good now.	I think Citaton should be good now.	1655761	1471971414158	1471971414230		8
3273	34707	I think Citation should be good now.	I think Citaton should be good now.	1655764	1471971414342	1471971414588		84
3273	34707	I think Citation should be good now.	I think Citaton should be good now.	1655767	1471971414710	1471971414798		8
3273	34707	I think Citation should be good now.	I think Citaton should be good now.	1655770	1471971414870	1471971414974		8
3273	34707	I think Citation should be good now.	I think Citaton should be good now.	1655772	1471971416358	1471971416582		84
3273	34707	I think Citation should be good now.	I think Citaton should be good now.	1655823	1471971416502	1471971416670		79
3273	34707	I think Citation should be good now.	I think Citaton should be good now.	1655826	1471971416774	1471971416918		80
3273	34707	I think Citation should be good now.	I think Citaton should be good now.	1655829	1471971417150	1471971417222		78
3273	34707	I think Citation should be good now.	I think Citaton should be good now.	1655832	1471971417462	1471971417510		8
3273	34707	I think Citation should be good now.	I think Citaton should be good now.	1655837	1471971417582	1471971417678		8
3273	34707	I think Citation should be good now.	I think Citaton should be good now.	1655840	1471971418238	1471971418294		79
3273	34707	I think Citation should be good now.	I think Citaton should be good now.	1655935	1471971418734	1471971418798		8
3273	34707	I think Citation should be good now.	I think Citaton should be good now.	1655937	1471971418862	1471971418902		8
3273	34707	I think Citation should be good now.	I think Citaton should be good now.	1655939	1471971419161	1471971419264		78
3273	34707	I think Citation should be good now.	I think Citaton should be good now.	1655941	1471971419902	1471971420006		8
3273	34707	I think Citation should be good now.	I think Citaton should be good now.	1655943	1471971421013	1471971421101		79
3273	34707	I think Citation should be good now.	I think Citaton should be good now.	1655987	1471971421174	1471971421326		78
3273	34707	I think Citation should be good now.	I think Citaton should be good now.	1655989	1471971421342	1471971421478		32
3273	34707	I think Citation should be good now.	I think Citaton should be good now.	1655990	1471971422086	1471971422302		83
3273	34707	I think Citation should be good now.	I think Citaton should be good now.	1655992	1471971422222	1471971422374		72
3273	34707	I think Citation should be good now.	I think Citaton should be good now.	1655994	1471971422382	1471971422542		79
3273	34707	I think Citation should be good now.	I think Citaton should be good now.	1656062	1471971423254	1471971423334		85
3273	34707	I think Citation should be good now.	I think Citaton should be good now.	1656064	1471971423478	1471971423598		76
3273	34707	I think Citation should be good now.	I think Citaton should be good now.	1656066	1471971423758	1471971423958		68
3273	34707	I think Citation should be good now.	I think Citaton should be good now.	1656068	1471971423990	1471971424142		32
3273	34707	I think Citation should be good now.	I think Citaton should be good now.	1656069	1471971424582	1471971424710		66
3273	34707	I think Citation should be good now.	I think Citaton should be good now.	1656096	1471971424806	1471971424998		69
3273	34707	I think Citation should be good now.	I think Citaton should be good now.	1656097	1471971424982	1471971425134		32
3273	34707	I think Citation should be good now.	I think Citaton should be good now.	1656099	1471971425542	1471971425694		71
3273	34707	I think Citation should be good now.	I think Citaton should be good now.	1656101	1471971425702	1471971425790		79
3273	34707	I think Citation should be good now.	I think Citaton should be good now.	1656105	1471971425870	1471971425966		79
3273	34707	I think Citation should be good now.	I think Citaton should be good now.	1656130	1471971426110	1471971426318		68
3273	34707	I think Citation should be good now.	I think Citaton should be good now.	1656135	1471971426278	1471971426398		32
3273	34707	I think Citation should be good now.	I think Citaton should be good now.	1656140	1471971426478	1471971426630		78
3273	34707	I think Citation should be good now.	I think Citaton should be good now.	1656144	1471971426647	1471971426782		79
3273	34707	I think Citation should be good now.	I think Citaton should be good now.	1656171	1471971426734	1471971426918		87
3273	34707	I think Citation should be good now.	I think Citaton should be good now.	1656174	1471971427414	1471971427518		190
3273	34735	Look for this trend to continue when he faces the San Diego.	Look for this trend to continue when he faces the san Diego.	1657273	1471971451151	1471971451678	SHIFT	16
3273	34735	Look for this trend to continue when he faces the San Diego.	Look for this trend to continue when he faces the san Diego.	1657268	1471971451462	1471971451582		76
3273	34735	Look for this trend to continue when he faces the San Diego.	Look for this trend to continue when he faces the san Diego.	1657277	1471971451942	1471971452222		73
3273	34735	Look for this trend to continue when he faces the San Diego.	Look for this trend to continue when he faces the san Diego.	1657283	1471971453118	1471971453222		8
3273	34735	Look for this trend to continue when he faces the San Diego.	Look for this trend to continue when he faces the san Diego.	1657286	1471971453806	1471971453886		79
3273	34735	Look for this trend to continue when he faces the San Diego.	Look for this trend to continue when he faces the san Diego.	1657290	1471971453958	1471971454054		79
3273	34735	Look for this trend to continue when he faces the San Diego.	Look for this trend to continue when he faces the san Diego.	1657331	1471971454670	1471971454782		75
3273	34735	Look for this trend to continue when he faces the San Diego.	Look for this trend to continue when he faces the san Diego.	1657335	1471971454862	1471971454990		32
3273	34735	Look for this trend to continue when he faces the San Diego.	Look for this trend to continue when he faces the san Diego.	1657339	1471971455334	1471971455502		70
3273	34735	Look for this trend to continue when he faces the San Diego.	Look for this trend to continue when he faces the san Diego.	1657344	1471971455486	1471971455614		79
3273	34735	Look for this trend to continue when he faces the San Diego.	Look for this trend to continue when he faces the san Diego.	1657389	1471971455598	1471971455814		82
3273	34735	Look for this trend to continue when he faces the San Diego.	Look for this trend to continue when he faces the san Diego.	1657391	1471971455766	1471971455894		32
3273	34735	Look for this trend to continue when he faces the San Diego.	Look for this trend to continue when he faces the san Diego.	1657395	1471971456382	1471971456558		84
3273	34735	Look for this trend to continue when he faces the San Diego.	Look for this trend to continue when he faces the san Diego.	1657398	1471971456502	1471971456614		72
3273	34735	Look for this trend to continue when he faces the San Diego.	Look for this trend to continue when he faces the san Diego.	1657400	1471971456662	1471971456822		73
3273	34735	Look for this trend to continue when he faces the San Diego.	Look for this trend to continue when he faces the san Diego.	1657403	1471971456830	1471971457006		83
3273	34735	Look for this trend to continue when he faces the San Diego.	Look for this trend to continue when he faces the san Diego.	1657477	1471971456942	1471971457118		32
3273	34735	Look for this trend to continue when he faces the San Diego.	Look for this trend to continue when he faces the san Diego.	1657481	1471971457494	1471971457646		84
3273	34735	Look for this trend to continue when he faces the San Diego.	Look for this trend to continue when he faces the san Diego.	1657485	1471971457782	1471971457942		82
3273	34735	Look for this trend to continue when he faces the San Diego.	Look for this trend to continue when he faces the san Diego.	1657490	1471971458382	1471971458534		69
3273	34735	Look for this trend to continue when he faces the San Diego.	Look for this trend to continue when he faces the san Diego.	1657495	1471971458598	1471971458710		78
3273	34735	Look for this trend to continue when he faces the San Diego.	Look for this trend to continue when he faces the san Diego.	1657498	1471971458830	1471971458993		68
3273	34735	Look for this trend to continue when he faces the San Diego.	Look for this trend to continue when he faces the san Diego.	1657537	1471971458982	1471971459158		32
3273	34735	Look for this trend to continue when he faces the San Diego.	Look for this trend to continue when he faces the san Diego.	1657541	1471971459310	1471971459518		84
3273	34735	Look for this trend to continue when he faces the San Diego.	Look for this trend to continue when he faces the san Diego.	1657545	1471971459478	1471971459614		79
3273	34735	Look for this trend to continue when he faces the San Diego.	Look for this trend to continue when he faces the san Diego.	1657548	1471971459694	1471971459854		32
3273	34735	Look for this trend to continue when he faces the San Diego.	Look for this trend to continue when he faces the san Diego.	1657552	1471971460382	1471971460606		67
3273	34735	Look for this trend to continue when he faces the San Diego.	Look for this trend to continue when he faces the san Diego.	1657621	1471971460582	1471971460750		79
3273	34735	Look for this trend to continue when he faces the San Diego.	Look for this trend to continue when he faces the san Diego.	1657623	1471971460854	1471971461006		78
3273	34735	Look for this trend to continue when he faces the San Diego.	Look for this trend to continue when he faces the san Diego.	1657625	1471971461030	1471971461238		84
3273	34735	Look for this trend to continue when he faces the San Diego.	Look for this trend to continue when he faces the san Diego.	1657627	1471971461230	1471971461358		85
3273	34735	Look for this trend to continue when he faces the San Diego.	Look for this trend to continue when he faces the san Diego.	1657628	1471971461974	1471971462086		8
3273	34735	Look for this trend to continue when he faces the San Diego.	Look for this trend to continue when he faces the san Diego.	1657629	1471971462286	1471971462406		73
3273	34735	Look for this trend to continue when he faces the San Diego.	Look for this trend to continue when he faces the san Diego.	1657756	1471971462541	1471971462678		78
3273	34735	Look for this trend to continue when he faces the San Diego.	Look for this trend to continue when he faces the san Diego.	1657759	1471971463086	1471971463182		85
3273	34735	Look for this trend to continue when he faces the San Diego.	Look for this trend to continue when he faces the san Diego.	1657761	1471971463214	1471971463406		69
3273	34735	Look for this trend to continue when he faces the San Diego.	Look for this trend to continue when he faces the san Diego.	1657764	1471971463366	1471971463478		32
3273	34735	Look for this trend to continue when he faces the San Diego.	Look for this trend to continue when he faces the san Diego.	1657767	1471971464694	1471971464837		87
3273	34735	Look for this trend to continue when he faces the San Diego.	Look for this trend to continue when he faces the san Diego.	1657812	1471971464805	1471971464941		72
3273	34735	Look for this trend to continue when he faces the San Diego.	Look for this trend to continue when he faces the san Diego.	1657814	1471971465117	1471971465293		69
3273	34735	Look for this trend to continue when he faces the San Diego.	Look for this trend to continue when he faces the san Diego.	1657817	1471971465358	1471971465550		78
3273	34735	Look for this trend to continue when he faces the San Diego.	Look for this trend to continue when he faces the san Diego.	1657821	1471971465534	1471971465694		32
3273	34735	Look for this trend to continue when he faces the San Diego.	Look for this trend to continue when he faces the san Diego.	1657825	1471971465845	1471971465998		72
3273	34735	Look for this trend to continue when he faces the San Diego.	Look for this trend to continue when he faces the san Diego.	1657829	1471971466014	1471971466182		69
3273	34735	Look for this trend to continue when he faces the San Diego.	Look for this trend to continue when he faces the san Diego.	1657910	1471971466126	1471971466278		32
3273	34735	Look for this trend to continue when he faces the San Diego.	Look for this trend to continue when he faces the san Diego.	1657913	1471971467102	1471971467222		70
3273	34735	Look for this trend to continue when he faces the San Diego.	Look for this trend to continue when he faces the san Diego.	1657915	1471971467278	1471971467374		65
3273	34735	Look for this trend to continue when he faces the San Diego.	Look for this trend to continue when he faces the san Diego.	1657920	1471971467814	1471971467902		67
3273	34735	Look for this trend to continue when he faces the San Diego.	Look for this trend to continue when he faces the san Diego.	1657923	1471971468030	1471971468182		69
3273	34735	Look for this trend to continue when he faces the San Diego.	Look for this trend to continue when he faces the san Diego.	1657925	1471971468262	1471971468429		83
3273	34735	Look for this trend to continue when he faces the San Diego.	Look for this trend to continue when he faces the san Diego.	1657933	1471971468433	1471971468550		32
3273	34735	Look for this trend to continue when he faces the San Diego.	Look for this trend to continue when he faces the san Diego.	1657935	1471971468622	1471971468792		84
3273	34735	Look for this trend to continue when he faces the San Diego.	Look for this trend to continue when he faces the san Diego.	1657937	1471971468686	1471971468826		72
3273	34735	Look for this trend to continue when he faces the San Diego.	Look for this trend to continue when he faces the san Diego.	1657939	1471971468814	1471971468998		69
3273	34735	Look for this trend to continue when he faces the San Diego.	Look for this trend to continue when he faces the san Diego.	1657999	1471971468894	1471971469062		32
3273	34735	Look for this trend to continue when he faces the San Diego.	Look for this trend to continue when he faces the san Diego.	1658000	1471971469342	1471971469518		83
3273	34735	Look for this trend to continue when he faces the San Diego.	Look for this trend to continue when he faces the san Diego.	1658002	1471971469534	1471971469726		65
3273	34735	Look for this trend to continue when he faces the San Diego.	Look for this trend to continue when he faces the san Diego.	1658004	1471971469693	1471971469862		78
3273	34735	Look for this trend to continue when he faces the San Diego.	Look for this trend to continue when he faces the san Diego.	1658006	1471971469894	1471971469998		32
3273	34735	Look for this trend to continue when he faces the San Diego.	Look for this trend to continue when he faces the san Diego.	1658008	1471971470614	1471971470950	SHIFT	16
3273	34735	Look for this trend to continue when he faces the San Diego.	Look for this trend to continue when he faces the san Diego.	1658105	1471971470814	1471971470982		68
3273	34735	Look for this trend to continue when he faces the San Diego.	Look for this trend to continue when he faces the san Diego.	1658106	1471971471342	1471971471478		73
3273	34735	Look for this trend to continue when he faces the San Diego.	Look for this trend to continue when he faces the san Diego.	1658108	1471971471526	1471971471630		69
3273	34735	Look for this trend to continue when he faces the San Diego.	Look for this trend to continue when he faces the san Diego.	1658110	1471971472190	1471971472334		71
3273	34735	Look for this trend to continue when he faces the San Diego.	Look for this trend to continue when he faces the san Diego.	1658113	1471971472390	1471971472502		79
3273	34735	Look for this trend to continue when he faces the San Diego.	Look for this trend to continue when he faces the san Diego.	1658117	1471971473366	1471971473470		188
3273	34735	Look for this trend to continue when he faces the San Diego.	Look for this trend to continue when he faces the san Diego.	1658243	1471971473766	1471971473889		220
3273	34735	Look for this trend to continue when he faces the San Diego.	Look for this trend to continue when he faces the san Diego.	1658247	1471971474455	1471971474534		8
3273	34735	Look for this trend to continue when he faces the San Diego.	Look for this trend to continue when he faces the san Diego.	1658249	1471971474630	1471971474694		8
3273	34735	Look for this trend to continue when he faces the San Diego.	Look for this trend to continue when he faces the san Diego.	1658253	1471971475238	1471971475350		190
3273	34777	We need a process to deal with this.	We need a process to deal with this.	1658647	1471971484408	1471971485766	SHIFT	16
3273	34777	We need a process to deal with this.	We need a process to deal with this.	1658645	1471971485526	1471971485702		87
3273	34777	We need a process to deal with this.	We need a process to deal with this.	1658649	1471971485718	1471971486086		69
3273	34777	We need a process to deal with this.	We need a process to deal with this.	1658654	1471971486278	1471971486398		8
3273	34777	We need a process to deal with this.	We need a process to deal with this.	1658695	1471971486382	1471971486566		69
3273	34777	We need a process to deal with this.	We need a process to deal with this.	1658698	1471971486534	1471971486718		32
3273	34777	We need a process to deal with this.	We need a process to deal with this.	1658700	1471971487046	1471971487142		8
3273	34777	We need a process to deal with this.	We need a process to deal with this.	1658702	1471971487214	1471971487286		8
3273	34777	We need a process to deal with this.	We need a process to deal with this.	1658704	1471971487358	1471971487392		8
3273	34777	We need a process to deal with this.	We need a process to deal with this.	1658773	1471971487934	1471971488094		32
3273	34777	We need a process to deal with this.	We need a process to deal with this.	1658774	1471971488430	1471971488566		78
3273	34777	We need a process to deal with this.	We need a process to deal with this.	1658776	1471971488582	1471971488710		69
3273	34777	We need a process to deal with this.	We need a process to deal with this.	1658778	1471971488774	1471971488878		69
3273	34777	We need a process to deal with this.	We need a process to deal with this.	1658780	1471971488982	1471971489174		68
3273	34777	We need a process to deal with this.	We need a process to deal with this.	1658852	1471971489126	1471971489303		32
3273	34777	We need a process to deal with this.	We need a process to deal with this.	1658857	1471971489478	1471971489646		65
3273	34777	We need a process to deal with this.	We need a process to deal with this.	1658866	1471971489726	1471971489934		32
3273	34777	We need a process to deal with this.	We need a process to deal with this.	1658871	1471971490542	1471971490678		80
3273	34777	We need a process to deal with this.	We need a process to deal with this.	1658875	1471971490686	1471971490902		82
3273	34777	We need a process to deal with this.	We need a process to deal with this.	1658880	1471971491246	1471971491414		79
3273	34777	We need a process to deal with this.	We need a process to deal with this.	1658926	1471971491614	1471971491710		67
3273	34777	We need a process to deal with this.	We need a process to deal with this.	1658930	1471971491838	1471971491982		69
3273	34777	We need a process to deal with this.	We need a process to deal with this.	1658931	1471971492086	1471971492224		83
3273	34777	We need a process to deal with this.	We need a process to deal with this.	1658932	1471971492294	1471971492438		83
3273	34777	We need a process to deal with this.	We need a process to deal with this.	1658933	1471971492455	1471971492622		32
3273	34777	We need a process to deal with this.	We need a process to deal with this.	1658965	1471971492806	1471971492998		84
3273	34777	We need a process to deal with this.	We need a process to deal with this.	1658967	1471971492934	1471971493075		79
3273	34777	We need a process to deal with this.	We need a process to deal with this.	1658969	1471971493062	1471971493238		32
3273	34777	We need a process to deal with this.	We need a process to deal with this.	1658974	1471971493294	1471971493390		68
3273	34777	We need a process to deal with this.	We need a process to deal with this.	1658977	1471971493510	1471971493670		69
3273	34777	We need a process to deal with this.	We need a process to deal with this.	1659021	1471971493702	1471971493894		65
3273	34777	We need a process to deal with this.	We need a process to deal with this.	1659024	1471971493934	1471971494086		76
3273	34777	We need a process to deal with this.	We need a process to deal with this.	1659026	1471971494150	1471971494302		32
3273	34777	We need a process to deal with this.	We need a process to deal with this.	1659030	1471971494590	1471971494774		87
3273	34777	We need a process to deal with this.	We need a process to deal with this.	1659070	1471971494726	1471971494870		73
3273	34777	We need a process to deal with this.	We need a process to deal with this.	1659072	1471971494958	1471971495134		84
3273	34777	We need a process to deal with this.	We need a process to deal with this.	1659074	1471971495086	1471971495198		72
3273	34777	We need a process to deal with this.	We need a process to deal with this.	1659076	1471971495246	1471971495446		32
3273	34777	We need a process to deal with this.	We need a process to deal with this.	1659078	1471971495670	1471971495878		84
3273	34777	We need a process to deal with this.	We need a process to deal with this.	1659120	1471971495766	1471971495918		72
3273	34777	We need a process to deal with this.	We need a process to deal with this.	1659123	1471971495950	1471971496078		73
3273	34777	We need a process to deal with this.	We need a process to deal with this.	1659125	1471971496062	1471971496230		83
3273	34777	We need a process to deal with this.	We need a process to deal with this.	1659127	1471971496518	1471971496622		190
3273	34777	We need a process to deal with this.	We need a process to deal with this.	1659129	1471971496854	1471971496974		220
3273	34777	We need a process to deal with this.	We need a process to deal with this.	1659131	1471971497398	1471971497494		8
3273	34798	He started Sunday's game and had two catches for 70 yards.	He started sunday's gaem and had two catches for 70 yards.	1659715	1471971507303	1471971508798	SHIFT	16
3273	34798	He started Sunday's game and had two catches for 70 yards.	He started sunday's gaem and had two catches for 70 yards.	1659718	1471971508758	1471971508846		72
3273	34798	He started Sunday's game and had two catches for 70 yards.	He started sunday's gaem and had two catches for 70 yards.	1659719	1471971508918	1471971509070		69
3273	34798	He started Sunday's game and had two catches for 70 yards.	He started sunday's gaem and had two catches for 70 yards.	1659720	1471971509014	1471971509197		32
3273	34798	He started Sunday's game and had two catches for 70 yards.	He started sunday's gaem and had two catches for 70 yards.	1659721	1471971510358	1471971510462		83
3273	34798	He started Sunday's game and had two catches for 70 yards.	He started sunday's gaem and had two catches for 70 yards.	1659722	1471971510622	1471971510806		84
3273	34798	He started Sunday's game and had two catches for 70 yards.	He started sunday's gaem and had two catches for 70 yards.	1659788	1471971510934	1471971511118		65
3273	34798	He started Sunday's game and had two catches for 70 yards.	He started sunday's gaem and had two catches for 70 yards.	1659789	1471971511502	1471971511622		82
3273	34798	He started Sunday's game and had two catches for 70 yards.	He started sunday's gaem and had two catches for 70 yards.	1659790	1471971511846	1471971511965		84
3273	34798	He started Sunday's game and had two catches for 70 yards.	He started sunday's gaem and had two catches for 70 yards.	1659791	1471971512054	1471971512166		69
3273	34798	He started Sunday's game and had two catches for 70 yards.	He started sunday's gaem and had two catches for 70 yards.	1659792	1471971512326	1471971512518		68
3273	34798	He started Sunday's game and had two catches for 70 yards.	He started sunday's gaem and had two catches for 70 yards.	1659893	1471971512534	1471971512670		32
3273	34798	He started Sunday's game and had two catches for 70 yards.	He started sunday's gaem and had two catches for 70 yards.	1659896	1471971513062	1471971513307		83
3273	34798	He started Sunday's game and had two catches for 70 yards.	He started sunday's gaem and had two catches for 70 yards.	1659898	1471971513294	1471971513406		85
3273	34798	He started Sunday's game and had two catches for 70 yards.	He started sunday's gaem and had two catches for 70 yards.	1659899	1471971513846	1471971514030		78
3273	34798	He started Sunday's game and had two catches for 70 yards.	He started sunday's gaem and had two catches for 70 yards.	1659900	1471971514038	1471971514214		68
3273	34798	He started Sunday's game and had two catches for 70 yards.	He started sunday's gaem and had two catches for 70 yards.	1660001	1471971514254	1471971514430		65
3273	34798	He started Sunday's game and had two catches for 70 yards.	He started sunday's gaem and had two catches for 70 yards.	1660004	1471971515470	1471971515566		89
3273	34798	He started Sunday's game and had two catches for 70 yards.	He started sunday's gaem and had two catches for 70 yards.	1660007	1471971516222	1471971516366		222
3273	34798	He started Sunday's game and had two catches for 70 yards.	He started sunday's gaem and had two catches for 70 yards.	1660012	1471971516438	1471971516662		83
3273	34798	He started Sunday's game and had two catches for 70 yards.	He started sunday's gaem and had two catches for 70 yards.	1660114	1471971516614	1471971516758		32
3273	34798	He started Sunday's game and had two catches for 70 yards.	He started sunday's gaem and had two catches for 70 yards.	1660117	1471971517734	1471971517854		71
3273	34798	He started Sunday's game and had two catches for 70 yards.	He started sunday's gaem and had two catches for 70 yards.	1660120	1471971517990	1471971518198		65
3273	34798	He started Sunday's game and had two catches for 70 yards.	He started sunday's gaem and had two catches for 70 yards.	1660125	1471971518270	1471971518422		69
3273	34798	He started Sunday's game and had two catches for 70 yards.	He started sunday's gaem and had two catches for 70 yards.	1660129	1471971518342	1471971518495		77
3273	34798	He started Sunday's game and had two catches for 70 yards.	He started sunday's gaem and had two catches for 70 yards.	1660132	1471971518502	1471971518638		32
3273	34798	He started Sunday's game and had two catches for 70 yards.	He started sunday's gaem and had two catches for 70 yards.	1660195	1471971519030	1471971519223		65
3273	34798	He started Sunday's game and had two catches for 70 yards.	He started sunday's gaem and had two catches for 70 yards.	1660198	1471971519206	1471971519318		78
3273	34798	He started Sunday's game and had two catches for 70 yards.	He started sunday's gaem and had two catches for 70 yards.	1660204	1471971519270	1471971519430		68
3273	34798	He started Sunday's game and had two catches for 70 yards.	He started sunday's gaem and had two catches for 70 yards.	1660208	1471971519438	1471971519582		32
3273	34798	He started Sunday's game and had two catches for 70 yards.	He started sunday's gaem and had two catches for 70 yards.	1660213	1471971519702	1471971519846		72
3273	34798	He started Sunday's game and had two catches for 70 yards.	He started sunday's gaem and had two catches for 70 yards.	1660353	1471971519830	1471971520054		65
3273	34798	He started Sunday's game and had two catches for 70 yards.	He started sunday's gaem and had two catches for 70 yards.	1660361	1471971520062	1471971520198		68
3273	34798	He started Sunday's game and had two catches for 70 yards.	He started sunday's gaem and had two catches for 70 yards.	1660369	1471971520742	1471971520910		32
3273	34798	He started Sunday's game and had two catches for 70 yards.	He started sunday's gaem and had two catches for 70 yards.	1660375	1471971521662	1471971521814		84
3273	34798	He started Sunday's game and had two catches for 70 yards.	He started sunday's gaem and had two catches for 70 yards.	1660381	1471971521886	1471971522110		87
3273	34798	He started Sunday's game and had two catches for 70 yards.	He started sunday's gaem and had two catches for 70 yards.	1660476	1471971522070	1471971522198		79
3273	34798	He started Sunday's game and had two catches for 70 yards.	He started sunday's gaem and had two catches for 70 yards.	1660477	1471971522222	1471971522414		32
3273	34798	He started Sunday's game and had two catches for 70 yards.	He started sunday's gaem and had two catches for 70 yards.	1660478	1471971522759	1471971522894		67
3273	34798	He started Sunday's game and had two catches for 70 yards.	He started sunday's gaem and had two catches for 70 yards.	1660480	1471971522934	1471971523094		65
3273	34798	He started Sunday's game and had two catches for 70 yards.	He started sunday's gaem and had two catches for 70 yards.	1660482	1471971523262	1471971523406		84
3273	34798	He started Sunday's game and had two catches for 70 yards.	He started sunday's gaem and had two catches for 70 yards.	1660485	1471971523734	1471971523926		67
3273	34798	He started Sunday's game and had two catches for 70 yards.	He started sunday's gaem and had two catches for 70 yards.	1660552	1471971523878	1471971524014		72
3273	34798	He started Sunday's game and had two catches for 70 yards.	He started sunday's gaem and had two catches for 70 yards.	1660554	1471971524142	1471971524238		69
3273	34798	He started Sunday's game and had two catches for 70 yards.	He started sunday's gaem and had two catches for 70 yards.	1660556	1471971524334	1471971524486		83
3273	34798	He started Sunday's game and had two catches for 70 yards.	He started sunday's gaem and had two catches for 70 yards.	1660558	1471971524518	1471971524662		32
3273	34798	He started Sunday's game and had two catches for 70 yards.	He started sunday's gaem and had two catches for 70 yards.	1660560	1471971524966	1471971525107		70
3273	34798	He started Sunday's game and had two catches for 70 yards.	He started sunday's gaem and had two catches for 70 yards.	1660694	1471971525094	1471971525238		79
3273	34798	He started Sunday's game and had two catches for 70 yards.	He started sunday's gaem and had two catches for 70 yards.	1660699	1471971525206	1471971525366		82
3273	34798	He started Sunday's game and had two catches for 70 yards.	He started sunday's gaem and had two catches for 70 yards.	1660705	1471971525326	1471971525494		32
3273	34798	He started Sunday's game and had two catches for 70 yards.	He started sunday's gaem and had two catches for 70 yards.	1660709	1471971527287	1471971527422		55
3273	34798	He started Sunday's game and had two catches for 70 yards.	He started sunday's gaem and had two catches for 70 yards.	1660713	1471971527398	1471971527534		48
3273	34798	He started Sunday's game and had two catches for 70 yards.	He started sunday's gaem and had two catches for 70 yards.	1660716	1471971527558	1471971527734		32
3273	34798	He started Sunday's game and had two catches for 70 yards.	He started sunday's gaem and had two catches for 70 yards.	1660804	1471971528198	1471971528358		89
3273	34798	He started Sunday's game and had two catches for 70 yards.	He started sunday's gaem and had two catches for 70 yards.	1660808	1471971528558	1471971528702		65
3273	34798	He started Sunday's game and had two catches for 70 yards.	He started sunday's gaem and had two catches for 70 yards.	1660813	1471971529174	1471971529326		82
3273	34798	He started Sunday's game and had two catches for 70 yards.	He started sunday's gaem and had two catches for 70 yards.	1660820	1471971529438	1471971529574		68
3273	34798	He started Sunday's game and had two catches for 70 yards.	He started sunday's gaem and had two catches for 70 yards.	1660827	1471971529710	1471971529838		83
3273	34798	He started Sunday's game and had two catches for 70 yards.	He started sunday's gaem and had two catches for 70 yards.	1660861	1471971530174	1471971530302		190
3273	34836	I would be glad to participate.	I would be glad to participate.	1661266	1471971536048	1471971536272	SHIFT	16
3273	34836	I would be glad to participate.	I would be glad to participate.	1661272	1471971536278	1471971536374		73
3273	34836	I would be glad to participate.	I would be glad to participate.	1661277	1471971536350	1471971536494		32
3273	34836	I would be glad to participate.	I would be glad to participate.	1661284	1471971536878	1471971537094		87
3273	34836	I would be glad to participate.	I would be glad to participate.	1661290	1471971537318	1471971537390		8
3273	34836	I would be glad to participate.	I would be glad to participate.	1661296	1471971537470	1471971537551		8
3273	34836	I would be glad to participate.	I would be glad to participate.	1661405	1471971537614	1471971537694		8
3273	34836	I would be glad to participate.	I would be glad to participate.	1661409	1471971537806	1471971538150	SHIFT	16
3273	34836	I would be glad to participate.	I would be glad to participate.	1661407	1471971537934	1471971538102		79
3273	34836	I would be glad to participate.	I would be glad to participate.	1661411	1471971538535	1471971538654		8
3273	34836	I would be glad to participate.	I would be glad to participate.	1661555	1471971538678	1471971539929	SHIFT	16
3273	34836	I would be glad to participate.	I would be glad to participate.	1661414	1471971538862	1471971538950		79
3273	34836	I would be glad to participate.	I would be glad to participate.	1661422	1471971539272	1471971539382		8
3273	34836	I would be glad to participate.	I would be glad to participate.	1661552	1471971539550	1471971539630		73
3273	34836	I would be glad to participate.	I would be glad to participate.	1661558	1471971539854	1471971540086		32
3273	34836	I would be glad to participate.	I would be glad to participate.	1661560	1471971540638	1471971540830		87
3273	34836	I would be glad to participate.	I would be glad to participate.	1661561	1471971540766	1471971540934		79
3273	34836	I would be glad to participate.	I would be glad to participate.	1661564	1471971541494	1471971541622		85
3273	34836	I would be glad to participate.	I would be glad to participate.	1661605	1471971541718	1471971541854		76
3273	34836	I would be glad to participate.	I would be glad to participate.	1661606	1471971541904	1471971542086		68
3273	34836	I would be glad to participate.	I would be glad to participate.	1661607	1471971542046	1471971542190		32
3273	34836	I would be glad to participate.	I would be glad to participate.	1661608	1471971542486	1471971542574		66
3273	34836	I would be glad to participate.	I would be glad to participate.	1661610	1471971542678	1471971542864		69
3273	34836	I would be glad to participate.	I would be glad to participate.	1661817	1471971542798	1471971542958		32
3273	34836	I would be glad to participate.	I would be glad to participate.	1661821	1471971544558	1471971544694		71
3273	34836	I would be glad to participate.	I would be glad to participate.	1661825	1471971545398	1471971545510		76
3273	34836	I would be glad to participate.	I would be glad to participate.	1661828	1471971545502	1471971545694		65
3273	34836	I would be glad to participate.	I would be glad to participate.	1661832	1471971545942	1471971546139		68
3273	34836	I would be glad to participate.	I would be glad to participate.	1661968	1471971546118	1471971546278		32
3273	34836	I would be glad to participate.	I would be glad to participate.	1661978	1471971546406	1471971546622		84
3273	34836	I would be glad to participate.	I would be glad to participate.	1661984	1471971546542	1471971546710		79
3273	34836	I would be glad to participate.	I would be glad to participate.	1661990	1471971546758	1471971546934		32
3273	34836	I would be glad to participate.	I would be glad to participate.	1661994	1471971547390	1471971547646		80
3273	34836	I would be glad to participate.	I would be glad to participate.	1661997	1471971547766	1471971547926		65
3273	34836	I would be glad to participate.	I would be glad to participate.	1662112	1471971547958	1471971548134		82
3273	34836	I would be glad to participate.	I would be glad to participate.	1662116	1471971548886	1471971549054		84
3273	34836	I would be glad to participate.	I would be glad to participate.	1662120	1471971549062	1471971549206		73
3273	34836	I would be glad to participate.	I would be glad to participate.	1662125	1471971549342	1471971549502		67
3273	34836	I would be glad to participate.	I would be glad to participate.	1662129	1471971549550	1471971549678		73
3273	34836	I would be glad to participate.	I would be glad to participate.	1662314	1471971550062	1471971550214		80
3273	34836	I would be glad to participate.	I would be glad to participate.	1662317	1471971550238	1471971550390		65
3273	34836	I would be glad to participate.	I would be glad to participate.	1662320	1471971550830	1471971550934		84
3273	34836	I would be glad to participate.	I would be glad to participate.	1662324	1471971551126	1471971551246		69
3273	34836	I would be glad to participate.	I would be glad to participate.	1662328	1471971551774	1471971551870		190
3273	34869	Coal switching to NG and power guys stimulating demand.	Coal switching to NG and power guys stimulating demand.	1662927	1471971563216	1471971563968	SHIFT	16
3273	34869	Coal switching to NG and power guys stimulating demand.	Coal switching to NG and power guys stimulating demand.	1662929	1471971563942	1471971564158		67
3273	34869	Coal switching to NG and power guys stimulating demand.	Coal switching to NG and power guys stimulating demand.	1662934	1471971564166	1471971564254		79
3273	34869	Coal switching to NG and power guys stimulating demand.	Coal switching to NG and power guys stimulating demand.	1662943	1471971564511	1471971564702		65
3273	34869	Coal switching to NG and power guys stimulating demand.	Coal switching to NG and power guys stimulating demand.	1662948	1471971564670	1471971564782		76
3273	34869	Coal switching to NG and power guys stimulating demand.	Coal switching to NG and power guys stimulating demand.	1662952	1471971564846	1471971564998		32
3273	34869	Coal switching to NG and power guys stimulating demand.	Coal switching to NG and power guys stimulating demand.	1663121	1471971565718	1471971565854		83
3273	34869	Coal switching to NG and power guys stimulating demand.	Coal switching to NG and power guys stimulating demand.	1663124	1471971566278	1471971566430		87
3273	34869	Coal switching to NG and power guys stimulating demand.	Coal switching to NG and power guys stimulating demand.	1663127	1471971566510	1471971566646		73
3273	34869	Coal switching to NG and power guys stimulating demand.	Coal switching to NG and power guys stimulating demand.	1663131	1471971566758	1471971566926		84
3273	34869	Coal switching to NG and power guys stimulating demand.	Coal switching to NG and power guys stimulating demand.	1663135	1471971567214	1471971567454		67
3273	34869	Coal switching to NG and power guys stimulating demand.	Coal switching to NG and power guys stimulating demand.	1663204	1471971567366	1471971567550		72
3273	34869	Coal switching to NG and power guys stimulating demand.	Coal switching to NG and power guys stimulating demand.	1663207	1471971567567	1471971567702		73
3273	34869	Coal switching to NG and power guys stimulating demand.	Coal switching to NG and power guys stimulating demand.	1663209	1471971567774	1471971567934		78
3273	34869	Coal switching to NG and power guys stimulating demand.	Coal switching to NG and power guys stimulating demand.	1663210	1471971567990	1471971568166		71
3273	34869	Coal switching to NG and power guys stimulating demand.	Coal switching to NG and power guys stimulating demand.	1663212	1471971568111	1471971568270		32
3273	34869	Coal switching to NG and power guys stimulating demand.	Coal switching to NG and power guys stimulating demand.	1663215	1471971568438	1471971568654		84
3273	34869	Coal switching to NG and power guys stimulating demand.	Coal switching to NG and power guys stimulating demand.	1663330	1471971568566	1471971568710		79
3273	34869	Coal switching to NG and power guys stimulating demand.	Coal switching to NG and power guys stimulating demand.	1663331	1471971568726	1471971568918		32
3273	34869	Coal switching to NG and power guys stimulating demand.	Coal switching to NG and power guys stimulating demand.	1663333	1471971569286	1471971570126	SHIFT	16
3273	34869	Coal switching to NG and power guys stimulating demand.	Coal switching to NG and power guys stimulating demand.	1663332	1471971569550	1471971569702		78
3273	34869	Coal switching to NG and power guys stimulating demand.	Coal switching to NG and power guys stimulating demand.	1663334	1471971570022	1471971570150		71
3273	34869	Coal switching to NG and power guys stimulating demand.	Coal switching to NG and power guys stimulating demand.	1663336	1471971570318	1471971570478		32
3273	34869	Coal switching to NG and power guys stimulating demand.	Coal switching to NG and power guys stimulating demand.	1663342	1471971570870	1471971571094		65
3273	34869	Coal switching to NG and power guys stimulating demand.	Coal switching to NG and power guys stimulating demand.	1663399	1471971571070	1471971571214		78
3273	34869	Coal switching to NG and power guys stimulating demand.	Coal switching to NG and power guys stimulating demand.	1663401	1471971571134	1471971571321		68
3273	34869	Coal switching to NG and power guys stimulating demand.	Coal switching to NG and power guys stimulating demand.	1663403	1471971571302	1471971571446		32
3273	34869	Coal switching to NG and power guys stimulating demand.	Coal switching to NG and power guys stimulating demand.	1663406	1471971571958	1471971572070		80
3273	34869	Coal switching to NG and power guys stimulating demand.	Coal switching to NG and power guys stimulating demand.	1663408	1471971572167	1471971572366		79
3273	34869	Coal switching to NG and power guys stimulating demand.	Coal switching to NG and power guys stimulating demand.	1663410	1471971572382	1471971572494		82
3273	34869	Coal switching to NG and power guys stimulating demand.	Coal switching to NG and power guys stimulating demand.	1663470	1471971572830	1471971572942		8
3273	34869	Coal switching to NG and power guys stimulating demand.	Coal switching to NG and power guys stimulating demand.	1663473	1471971572934	1471971573166		87
3273	34869	Coal switching to NG and power guys stimulating demand.	Coal switching to NG and power guys stimulating demand.	1663478	1471971573158	1471971573355		69
3273	34869	Coal switching to NG and power guys stimulating demand.	Coal switching to NG and power guys stimulating demand.	1663482	1471971573334	1471971573534		82
3273	34869	Coal switching to NG and power guys stimulating demand.	Coal switching to NG and power guys stimulating demand.	1663485	1471971573606	1471971573806		32
3273	34869	Coal switching to NG and power guys stimulating demand.	Coal switching to NG and power guys stimulating demand.	1663610	1471971574350	1471971574526		71
3273	34869	Coal switching to NG and power guys stimulating demand.	Coal switching to NG and power guys stimulating demand.	1663616	1471971575366	1471971575494		85
3273	34869	Coal switching to NG and power guys stimulating demand.	Coal switching to NG and power guys stimulating demand.	1663622	1471971575646	1471971575742		89
3273	34869	Coal switching to NG and power guys stimulating demand.	Coal switching to NG and power guys stimulating demand.	1663627	1471971576262	1471971576430		83
3273	34869	Coal switching to NG and power guys stimulating demand.	Coal switching to NG and power guys stimulating demand.	1663765	1471971576422	1471971576558		32
3273	34869	Coal switching to NG and power guys stimulating demand.	Coal switching to NG and power guys stimulating demand.	1663768	1471971576958	1471971577110		83
3273	34869	Coal switching to NG and power guys stimulating demand.	Coal switching to NG and power guys stimulating demand.	1663771	1471971577334	1471971577574		84
3273	34869	Coal switching to NG and power guys stimulating demand.	Coal switching to NG and power guys stimulating demand.	1663773	1471971577606	1471971577758		73
3273	34869	Coal switching to NG and power guys stimulating demand.	Coal switching to NG and power guys stimulating demand.	1663777	1471971578030	1471971578166		77
3273	34869	Coal switching to NG and power guys stimulating demand.	Coal switching to NG and power guys stimulating demand.	1663781	1471971578358	1471971578542		85
3273	34869	Coal switching to NG and power guys stimulating demand.	Coal switching to NG and power guys stimulating demand.	1663829	1471971578782	1471971578918		76
3273	34869	Coal switching to NG and power guys stimulating demand.	Coal switching to NG and power guys stimulating demand.	1663832	1471971578942	1471971579062		65
3273	34869	Coal switching to NG and power guys stimulating demand.	Coal switching to NG and power guys stimulating demand.	1663838	1471971579142	1471971579342		84
3273	34869	Coal switching to NG and power guys stimulating demand.	Coal switching to NG and power guys stimulating demand.	1663845	1471971579278	1471971579494		73
3273	34869	Coal switching to NG and power guys stimulating demand.	Coal switching to NG and power guys stimulating demand.	1663854	1471971579518	1471971579686		79
3273	34869	Coal switching to NG and power guys stimulating demand.	Coal switching to NG and power guys stimulating demand.	1663907	1471971579838	1471971579950		78
3273	34869	Coal switching to NG and power guys stimulating demand.	Coal switching to NG and power guys stimulating demand.	1663909	1471971580334	1471971580430		8
3273	34869	Coal switching to NG and power guys stimulating demand.	Coal switching to NG and power guys stimulating demand.	1663911	1471971580550	1471971580662		8
3273	34869	Coal switching to NG and power guys stimulating demand.	Coal switching to NG and power guys stimulating demand.	1663916	1471971580974	1471971581102		8
3273	34869	Coal switching to NG and power guys stimulating demand.	Coal switching to NG and power guys stimulating demand.	1663986	1471971581254	1471971581382		78
3273	34869	Coal switching to NG and power guys stimulating demand.	Coal switching to NG and power guys stimulating demand.	1663990	1471971581398	1471971581538		71
3273	34869	Coal switching to NG and power guys stimulating demand.	Coal switching to NG and power guys stimulating demand.	1663996	1471971581518	1471971581678		32
3273	34869	Coal switching to NG and power guys stimulating demand.	Coal switching to NG and power guys stimulating demand.	1664000	1471971582238	1471971582302		68
3273	34869	Coal switching to NG and power guys stimulating demand.	Coal switching to NG and power guys stimulating demand.	1664002	1471971582454	1471971582574		69
3273	34869	Coal switching to NG and power guys stimulating demand.	Coal switching to NG and power guys stimulating demand.	1664069	1471971582718	1471971582886		77
3273	34869	Coal switching to NG and power guys stimulating demand.	Coal switching to NG and power guys stimulating demand.	1664073	1471971582862	1471971583062		65
3273	34869	Coal switching to NG and power guys stimulating demand.	Coal switching to NG and power guys stimulating demand.	1664075	1471971583446	1471971583598		78
3273	34869	Coal switching to NG and power guys stimulating demand.	Coal switching to NG and power guys stimulating demand.	1664079	1471971583614	1471971583734		68
3273	34869	Coal switching to NG and power guys stimulating demand.	Coal switching to NG and power guys stimulating demand.	1664081	1471971583926	1471971584030		83
3273	34869	Coal switching to NG and power guys stimulating demand.	Coal switching to NG and power guys stimulating demand.	1664187	1471971584294	1471971584406		8
3273	34869	Coal switching to NG and power guys stimulating demand.	Coal switching to NG and power guys stimulating demand.	1664190	1471971585454	1471971585550		190
3273	34904	But both reports were denied by the southern leadership.	But both reports were denied by the southern leadership.	1664730	1471971592798	1471971593366	SHIFT	16
3273	34904	But both reports were denied by the southern leadership.	But both reports were denied by the southern leadership.	1664734	1471971593294	1471971593438		66
3273	34904	But both reports were denied by the southern leadership.	But both reports were denied by the southern leadership.	1664735	1471971593806	1471971593918		85
3273	34904	But both reports were denied by the southern leadership.	But both reports were denied by the southern leadership.	1664737	1471971593999	1471971594318		84
3273	34904	But both reports were denied by the southern leadership.	But both reports were denied by the southern leadership.	1664739	1471971594438	1471971594614		32
3273	34904	But both reports were denied by the southern leadership.	But both reports were denied by the southern leadership.	1664741	1471971594862	1471971595022		66
3273	34904	But both reports were denied by the southern leadership.	But both reports were denied by the southern leadership.	1664812	1471971595006	1471971595166		79
3273	34904	But both reports were denied by the southern leadership.	But both reports were denied by the southern leadership.	1664816	1471971595199	1471971595406		84
3273	34904	But both reports were denied by the southern leadership.	But both reports were denied by the southern leadership.	1664819	1471971595326	1471971595462		72
3273	34904	But both reports were denied by the southern leadership.	But both reports were denied by the southern leadership.	1664822	1471971595510	1471971595670		32
3273	34904	But both reports were denied by the southern leadership.	But both reports were denied by the southern leadership.	1664827	1471971595918	1471971596030		82
3273	34904	But both reports were denied by the southern leadership.	But both reports were denied by the southern leadership.	1664833	1471971596070	1471971596230		69
3273	34904	But both reports were denied by the southern leadership.	But both reports were denied by the southern leadership.	1664968	1471971596646	1471971596774		80
3273	34904	But both reports were denied by the southern leadership.	But both reports were denied by the southern leadership.	1664974	1471971597086	1471971597230		79
3273	34904	But both reports were denied by the southern leadership.	But both reports were denied by the southern leadership.	1664980	1471971597758	1471971597838		82
3273	34904	But both reports were denied by the southern leadership.	But both reports were denied by the southern leadership.	1664986	1471971597958	1471971598086		84
3273	34904	But both reports were denied by the southern leadership.	But both reports were denied by the southern leadership.	1664993	1471971598278	1471971598454		83
3273	34904	But both reports were denied by the southern leadership.	But both reports were denied by the southern leadership.	1665017	1471971598438	1471971598606		32
3273	34904	But both reports were denied by the southern leadership.	But both reports were denied by the southern leadership.	1665019	1471971598918	1471971599078		87
3273	34904	But both reports were denied by the southern leadership.	But both reports were denied by the southern leadership.	1665021	1471971599158	1471971599326		69
3273	34904	But both reports were denied by the southern leadership.	But both reports were denied by the southern leadership.	1665025	1471971599422	1471971599590		87
3273	34904	But both reports were denied by the southern leadership.	But both reports were denied by the southern leadership.	1665028	1471971600046	1471971600174		8
3273	34904	But both reports were denied by the southern leadership.	But both reports were denied by the southern leadership.	1665032	1471971600542	1471971600662		82
3273	34904	But both reports were denied by the southern leadership.	But both reports were denied by the southern leadership.	1665100	1471971600702	1471971600854		69
3273	34904	But both reports were denied by the southern leadership.	But both reports were denied by the southern leadership.	1665106	1471971600822	1471971600990		32
3273	34904	But both reports were denied by the southern leadership.	But both reports were denied by the southern leadership.	1665112	1471971601359	1471971601438		68
3273	34904	But both reports were denied by the southern leadership.	But both reports were denied by the southern leadership.	1665114	1471971601558	1471971601718		69
3273	34904	But both reports were denied by the southern leadership.	But both reports were denied by the southern leadership.	1665117	1471971601822	1471971601950		78
3273	34904	But both reports were denied by the southern leadership.	But both reports were denied by the southern leadership.	1665179	1471971602062	1471971602222		73
3273	34904	But both reports were denied by the southern leadership.	But both reports were denied by the southern leadership.	1665185	1471971602430	1471971602534		69
3273	34904	But both reports were denied by the southern leadership.	But both reports were denied by the southern leadership.	1665195	1471971602646	1471971602814		68
3273	34904	But both reports were denied by the southern leadership.	But both reports were denied by the southern leadership.	1665200	1471971602766	1471971602926		32
3273	34904	But both reports were denied by the southern leadership.	But both reports were denied by the southern leadership.	1665202	1471971603022	1471971603182		66
3273	34904	But both reports were denied by the southern leadership.	But both reports were denied by the southern leadership.	1665260	1471971603214	1471971603342		89
3273	34904	But both reports were denied by the southern leadership.	But both reports were denied by the southern leadership.	1665262	1471971603470	1471971603646		32
3273	34904	But both reports were denied by the southern leadership.	But both reports were denied by the southern leadership.	1665268	1471971603910	1471971604070		84
3273	34904	But both reports were denied by the southern leadership.	But both reports were denied by the southern leadership.	1665276	1471971604014	1471971604134		72
3273	34904	But both reports were denied by the southern leadership.	But both reports were denied by the southern leadership.	1665283	1471971604166	1471971604382		32
3273	34904	But both reports were denied by the southern leadership.	But both reports were denied by the southern leadership.	1665356	1471971604438	1471971604646		69
3273	34904	But both reports were denied by the southern leadership.	But both reports were denied by the southern leadership.	1665359	1471971605070	1471971605102		8
3273	34904	But both reports were denied by the southern leadership.	But both reports were denied by the southern leadership.	1665362	1471971605198	1471971605373		69
3273	34904	But both reports were denied by the southern leadership.	But both reports were denied by the southern leadership.	1665365	1471971605534	1471971605550		32
3273	34904	But both reports were denied by the southern leadership.	But both reports were denied by the southern leadership.	1665367	1471971605670	1471971605750		8
3273	34904	But both reports were denied by the southern leadership.	But both reports were denied by the southern leadership.	1665435	1471971605822	1471971605942		8
3273	34904	But both reports were denied by the southern leadership.	But both reports were denied by the southern leadership.	1665439	1471971606046	1471971606118		8
3273	34904	But both reports were denied by the southern leadership.	But both reports were denied by the southern leadership.	1665446	1471971606174	1471971606334		69
3273	34904	But both reports were denied by the southern leadership.	But both reports were denied by the southern leadership.	1665449	1471971606350	1471971606495		32
3273	34904	But both reports were denied by the southern leadership.	But both reports were denied by the southern leadership.	1665457	1471971606990	1471971607222		83
3273	34904	But both reports were denied by the southern leadership.	But both reports were denied by the southern leadership.	1665513	1471971607166	1471971607366		79
3273	34904	But both reports were denied by the southern leadership.	But both reports were denied by the southern leadership.	1665515	1471971607406	1471971607534		85
3273	34904	But both reports were denied by the southern leadership.	But both reports were denied by the southern leadership.	1665519	1471971607758	1471971607918		84
3273	34904	But both reports were denied by the southern leadership.	But both reports were denied by the southern leadership.	1665520	1471971607830	1471971607974		72
3273	34904	But both reports were denied by the southern leadership.	But both reports were denied by the southern leadership.	1665522	1471971608206	1471971608342		69
3273	34904	But both reports were denied by the southern leadership.	But both reports were denied by the southern leadership.	1665525	1471971608406	1471971608542		82
3273	34904	But both reports were denied by the southern leadership.	But both reports were denied by the southern leadership.	1665634	1471971608710	1471971608854		78
3273	34904	But both reports were denied by the southern leadership.	But both reports were denied by the southern leadership.	1665636	1471971608902	1471971609030		32
3273	34904	But both reports were denied by the southern leadership.	But both reports were denied by the southern leadership.	1665638	1471971609318	1471971609526		76
3273	34904	But both reports were denied by the southern leadership.	But both reports were denied by the southern leadership.	1665639	1471971609734	1471971609918		69
3273	34904	But both reports were denied by the southern leadership.	But both reports were denied by the southern leadership.	1665641	1471971610198	1471971610358		65
3273	34904	But both reports were denied by the southern leadership.	But both reports were denied by the southern leadership.	1665693	1471971610782	1471971610838		68
3273	34904	But both reports were denied by the southern leadership.	But both reports were denied by the southern leadership.	1665697	1471971610950	1471971611150		82
3273	34904	But both reports were denied by the southern leadership.	But both reports were denied by the southern leadership.	1665700	1471971611174	1471971611382		69
3273	34904	But both reports were denied by the southern leadership.	But both reports were denied by the southern leadership.	1665703	1471971612078	1471971612174		8
3273	34904	But both reports were denied by the southern leadership.	But both reports were denied by the southern leadership.	1665707	1471971612238	1471971612366		8
3273	34904	But both reports were denied by the southern leadership.	But both reports were denied by the southern leadership.	1665772	1471971612456	1471971612614		69
3273	34904	But both reports were denied by the southern leadership.	But both reports were denied by the southern leadership.	1665776	1471971612838	1471971612982		82
3273	34904	But both reports were denied by the southern leadership.	But both reports were denied by the southern leadership.	1665781	1471971613238	1471971613438		83
3273	34904	But both reports were denied by the southern leadership.	But both reports were denied by the southern leadership.	1665789	1471971613350	1471971613486		72
3273	34904	But both reports were denied by the southern leadership.	But both reports were denied by the southern leadership.	1665793	1471971613542	1471971613670		73
3273	34904	But both reports were denied by the southern leadership.	But both reports were denied by the southern leadership.	1665843	1471971614046	1471971614182		80
3273	34904	But both reports were denied by the southern leadership.	But both reports were denied by the southern leadership.	1665847	1471971614686	1471971614934		190
3273	34937	Washington was not moving toward a unilateral lifting of the embargo.	Washington was not moving toward a unilateral lifting of the emrargo.	1666672	1471971633976	1471971634622	SHIFT	16
3273	34937	Washington was not moving toward a unilateral lifting of the embargo.	Washington was not moving toward a unilateral lifting of the emrargo.	1666673	1471971634503	1471971634702		87
3273	34937	Washington was not moving toward a unilateral lifting of the embargo.	Washington was not moving toward a unilateral lifting of the emrargo.	1666674	1471971634878	1471971635070		65
3273	34937	Washington was not moving toward a unilateral lifting of the embargo.	Washington was not moving toward a unilateral lifting of the emrargo.	1666675	1471971635398	1471971635606		83
3273	34937	Washington was not moving toward a unilateral lifting of the embargo.	Washington was not moving toward a unilateral lifting of the emrargo.	1666676	1471971635526	1471971635718		72
3273	34937	Washington was not moving toward a unilateral lifting of the embargo.	Washington was not moving toward a unilateral lifting of the emrargo.	1666744	1471971635710	1471971635854		73
3273	34937	Washington was not moving toward a unilateral lifting of the embargo.	Washington was not moving toward a unilateral lifting of the emrargo.	1666745	1471971635958	1471971636142		78
3273	34937	Washington was not moving toward a unilateral lifting of the embargo.	Washington was not moving toward a unilateral lifting of the emrargo.	1666746	1471971636110	1471971636302		71
3273	34937	Washington was not moving toward a unilateral lifting of the embargo.	Washington was not moving toward a unilateral lifting of the emrargo.	1666748	1471971636648	1471971636854		84
3273	34937	Washington was not moving toward a unilateral lifting of the embargo.	Washington was not moving toward a unilateral lifting of the emrargo.	1666750	1471971636775	1471971636934		79
3273	34937	Washington was not moving toward a unilateral lifting of the embargo.	Washington was not moving toward a unilateral lifting of the emrargo.	1666754	1471971637006	1471971637190		78
3273	34937	Washington was not moving toward a unilateral lifting of the embargo.	Washington was not moving toward a unilateral lifting of the emrargo.	1666784	1471971637174	1471971637318		32
3273	34937	Washington was not moving toward a unilateral lifting of the embargo.	Washington was not moving toward a unilateral lifting of the emrargo.	1666788	1471971637470	1471971637647		87
3273	34937	Washington was not moving toward a unilateral lifting of the embargo.	Washington was not moving toward a unilateral lifting of the emrargo.	1666791	1471971637654	1471971637854		69
3273	34937	Washington was not moving toward a unilateral lifting of the embargo.	Washington was not moving toward a unilateral lifting of the emrargo.	1666796	1471971638358	1471971638510		8
3273	34937	Washington was not moving toward a unilateral lifting of the embargo.	Washington was not moving toward a unilateral lifting of the emrargo.	1666804	1471971638526	1471971638758		65
3273	34937	Washington was not moving toward a unilateral lifting of the embargo.	Washington was not moving toward a unilateral lifting of the emrargo.	1666837	1471971638654	1471971638863		83
3273	34937	Washington was not moving toward a unilateral lifting of the embargo.	Washington was not moving toward a unilateral lifting of the emrargo.	1666842	1471971638887	1471971639038		32
3273	34937	Washington was not moving toward a unilateral lifting of the embargo.	Washington was not moving toward a unilateral lifting of the emrargo.	1666846	1471971639222	1471971639368		78
3273	34937	Washington was not moving toward a unilateral lifting of the embargo.	Washington was not moving toward a unilateral lifting of the emrargo.	1666850	1471971639350	1471971639486		79
3273	34937	Washington was not moving toward a unilateral lifting of the embargo.	Washington was not moving toward a unilateral lifting of the emrargo.	1666943	1471971639518	1471971639686		84
3273	34937	Washington was not moving toward a unilateral lifting of the embargo.	Washington was not moving toward a unilateral lifting of the emrargo.	1666945	1471971640086	1471971640182		8
3273	34937	Washington was not moving toward a unilateral lifting of the embargo.	Washington was not moving toward a unilateral lifting of the emrargo.	1666947	1471971640342	1471971640510		32
3273	34937	Washington was not moving toward a unilateral lifting of the embargo.	Washington was not moving toward a unilateral lifting of the emrargo.	1666950	1471971641062	1471971641182		77
3273	34937	Washington was not moving toward a unilateral lifting of the embargo.	Washington was not moving toward a unilateral lifting of the emrargo.	1666954	1471971641206	1471971641374		79
3273	34937	Washington was not moving toward a unilateral lifting of the embargo.	Washington was not moving toward a unilateral lifting of the emrargo.	1666958	1471971641774	1471971641926		86
3273	34937	Washington was not moving toward a unilateral lifting of the embargo.	Washington was not moving toward a unilateral lifting of the emrargo.	1666991	1471971641943	1471971642047		73
3273	34937	Washington was not moving toward a unilateral lifting of the embargo.	Washington was not moving toward a unilateral lifting of the emrargo.	1666994	1471971642158	1471971642310		78
3273	34937	Washington was not moving toward a unilateral lifting of the embargo.	Washington was not moving toward a unilateral lifting of the emrargo.	1666997	1471971642326	1471971642486		71
3273	34937	Washington was not moving toward a unilateral lifting of the embargo.	Washington was not moving toward a unilateral lifting of the emrargo.	1667000	1471971642494	1471971642654		32
3273	34937	Washington was not moving toward a unilateral lifting of the embargo.	Washington was not moving toward a unilateral lifting of the emrargo.	1667003	1471971642974	1471971643166		84
3273	34937	Washington was not moving toward a unilateral lifting of the embargo.	Washington was not moving toward a unilateral lifting of the emrargo.	1667098	1471971643127	1471971643262		79
3273	34937	Washington was not moving toward a unilateral lifting of the embargo.	Washington was not moving toward a unilateral lifting of the emrargo.	1667100	1471971643782	1471971643934		87
3273	34937	Washington was not moving toward a unilateral lifting of the embargo.	Washington was not moving toward a unilateral lifting of the emrargo.	1667102	1471971644102	1471971644350		65
3273	34937	Washington was not moving toward a unilateral lifting of the embargo.	Washington was not moving toward a unilateral lifting of the emrargo.	1667104	1471971645006	1471971645134		82
3273	34937	Washington was not moving toward a unilateral lifting of the embargo.	Washington was not moving toward a unilateral lifting of the emrargo.	1667106	1471971645238	1471971645447		68
3273	34937	Washington was not moving toward a unilateral lifting of the embargo.	Washington was not moving toward a unilateral lifting of the emrargo.	1667235	1471971645438	1471971645590		32
3273	34937	Washington was not moving toward a unilateral lifting of the embargo.	Washington was not moving toward a unilateral lifting of the emrargo.	1667236	1471971645717	1471971645902		65
3273	34937	Washington was not moving toward a unilateral lifting of the embargo.	Washington was not moving toward a unilateral lifting of the emrargo.	1667242	1471971645894	1471971646046		32
3273	34937	Washington was not moving toward a unilateral lifting of the embargo.	Washington was not moving toward a unilateral lifting of the emrargo.	1667249	1471971646238	1471971646366		78
3273	34937	Washington was not moving toward a unilateral lifting of the embargo.	Washington was not moving toward a unilateral lifting of the emrargo.	1667255	1471971646438	1471971646615		73
3273	34937	Washington was not moving toward a unilateral lifting of the embargo.	Washington was not moving toward a unilateral lifting of the emrargo.	1667260	1471971647566	1471971647662		8
3273	34937	Washington was not moving toward a unilateral lifting of the embargo.	Washington was not moving toward a unilateral lifting of the emrargo.	1667313	1471971647742	1471971647862		8
3273	34937	Washington was not moving toward a unilateral lifting of the embargo.	Washington was not moving toward a unilateral lifting of the emrargo.	1667316	1471971648070	1471971648174		85
3273	34937	Washington was not moving toward a unilateral lifting of the embargo.	Washington was not moving toward a unilateral lifting of the emrargo.	1667320	1471971648430	1471971648566		78
3273	34937	Washington was not moving toward a unilateral lifting of the embargo.	Washington was not moving toward a unilateral lifting of the emrargo.	1667325	1471971648702	1471971648894		73
3273	34937	Washington was not moving toward a unilateral lifting of the embargo.	Washington was not moving toward a unilateral lifting of the emrargo.	1667329	1471971649030	1471971649094		32
3273	34937	Washington was not moving toward a unilateral lifting of the embargo.	Washington was not moving toward a unilateral lifting of the emrargo.	1667452	1471971649494	1471971649606		8
3273	34937	Washington was not moving toward a unilateral lifting of the embargo.	Washington was not moving toward a unilateral lifting of the emrargo.	1667458	1471971649862	1471971650054		76
3273	34937	Washington was not moving toward a unilateral lifting of the embargo.	Washington was not moving toward a unilateral lifting of the emrargo.	1667462	1471971650206	1471971650398		65
3273	34937	Washington was not moving toward a unilateral lifting of the embargo.	Washington was not moving toward a unilateral lifting of the emrargo.	1667466	1471971650726	1471971650838		84
3273	34937	Washington was not moving toward a unilateral lifting of the embargo.	Washington was not moving toward a unilateral lifting of the emrargo.	1667470	1471971650894	1471971651078		69
3273	34937	Washington was not moving toward a unilateral lifting of the embargo.	Washington was not moving toward a unilateral lifting of the emrargo.	1667539	1471971651190	1471971651334		82
3273	34937	Washington was not moving toward a unilateral lifting of the embargo.	Washington was not moving toward a unilateral lifting of the emrargo.	1667544	1471971651622	1471971651790		65
3273	34937	Washington was not moving toward a unilateral lifting of the embargo.	Washington was not moving toward a unilateral lifting of the emrargo.	1667548	1471971651830	1471971651974		76
3273	34937	Washington was not moving toward a unilateral lifting of the embargo.	Washington was not moving toward a unilateral lifting of the emrargo.	1667552	1471971652062	1471971652166		32
3273	34937	Washington was not moving toward a unilateral lifting of the embargo.	Washington was not moving toward a unilateral lifting of the emrargo.	1667559	1471971652470	1471971652590		76
3273	34937	Washington was not moving toward a unilateral lifting of the embargo.	Washington was not moving toward a unilateral lifting of the emrargo.	1667690	1471971652822	1471971652934		73
3273	34937	Washington was not moving toward a unilateral lifting of the embargo.	Washington was not moving toward a unilateral lifting of the emrargo.	1667694	1471971653510	1471971653614		70
3273	34937	Washington was not moving toward a unilateral lifting of the embargo.	Washington was not moving toward a unilateral lifting of the emrargo.	1667697	1471971653966	1471971654158		84
3273	34937	Washington was not moving toward a unilateral lifting of the embargo.	Washington was not moving toward a unilateral lifting of the emrargo.	1667699	1471971654118	1471971654263		73
3273	34937	Washington was not moving toward a unilateral lifting of the embargo.	Washington was not moving toward a unilateral lifting of the emrargo.	1667702	1471971654342	1471971654502		78
3273	34937	Washington was not moving toward a unilateral lifting of the embargo.	Washington was not moving toward a unilateral lifting of the emrargo.	1667704	1471971654519	1471971654694		71
3273	34937	Washington was not moving toward a unilateral lifting of the embargo.	Washington was not moving toward a unilateral lifting of the emrargo.	1667705	1471971654654	1471971654822		32
3273	34937	Washington was not moving toward a unilateral lifting of the embargo.	Washington was not moving toward a unilateral lifting of the emrargo.	1667707	1471971655022	1471971655151		79
3273	34937	Washington was not moving toward a unilateral lifting of the embargo.	Washington was not moving toward a unilateral lifting of the emrargo.	1667709	1471971655142	1471971655286		70
3273	34937	Washington was not moving toward a unilateral lifting of the embargo.	Washington was not moving toward a unilateral lifting of the emrargo.	1667710	1471971655302	1471971655446		32
3273	34937	Washington was not moving toward a unilateral lifting of the embargo.	Washington was not moving toward a unilateral lifting of the emrargo.	1667749	1471971655526	1471971655702		84
3273	34937	Washington was not moving toward a unilateral lifting of the embargo.	Washington was not moving toward a unilateral lifting of the emrargo.	1667746	1471971655558	1471971655686		72
3273	34937	Washington was not moving toward a unilateral lifting of the embargo.	Washington was not moving toward a unilateral lifting of the emrargo.	1667752	1471971655694	1471971655902		69
3273	34937	Washington was not moving toward a unilateral lifting of the embargo.	Washington was not moving toward a unilateral lifting of the emrargo.	1667756	1471971655814	1471971655990		32
3273	34937	Washington was not moving toward a unilateral lifting of the embargo.	Washington was not moving toward a unilateral lifting of the emrargo.	1667759	1471971656406	1471971656582		69
3273	34937	Washington was not moving toward a unilateral lifting of the embargo.	Washington was not moving toward a unilateral lifting of the emrargo.	1667880	1471971657086	1471971657263		77
3273	34937	Washington was not moving toward a unilateral lifting of the embargo.	Washington was not moving toward a unilateral lifting of the emrargo.	1667883	1471971657486	1471971657654		82
3273	34937	Washington was not moving toward a unilateral lifting of the embargo.	Washington was not moving toward a unilateral lifting of the emrargo.	1667887	1471971657766	1471971657934		65
3273	34937	Washington was not moving toward a unilateral lifting of the embargo.	Washington was not moving toward a unilateral lifting of the emrargo.	1667889	1471971658494	1471971658606		82
3273	34937	Washington was not moving toward a unilateral lifting of the embargo.	Washington was not moving toward a unilateral lifting of the emrargo.	1667893	1471971658822	1471971658966		71
3273	34937	Washington was not moving toward a unilateral lifting of the embargo.	Washington was not moving toward a unilateral lifting of the emrargo.	1667970	1471971658982	1471971659094		79
3273	34937	Washington was not moving toward a unilateral lifting of the embargo.	Washington was not moving toward a unilateral lifting of the emrargo.	1667976	1471971660094	1471971660230		190
3273	34983	I will bring the pillow back tomorrow and get with you then.	I will bring the pillow back tomorrow and get with you then.	1668552	1471971669751	1471971670046	SHIFT	16
3273	34983	I will bring the pillow back tomorrow and get with you then.	I will bring the pillow back tomorrow and get with you then.	1668554	1471971669966	1471971670110		73
3273	34983	I will bring the pillow back tomorrow and get with you then.	I will bring the pillow back tomorrow and get with you then.	1668557	1471971670142	1471971670254		32
3273	34983	I will bring the pillow back tomorrow and get with you then.	I will bring the pillow back tomorrow and get with you then.	1668563	1471971670606	1471971670806		87
3273	34983	I will bring the pillow back tomorrow and get with you then.	I will bring the pillow back tomorrow and get with you then.	1668567	1471971671086	1471971671206		73
3273	34983	I will bring the pillow back tomorrow and get with you then.	I will bring the pillow back tomorrow and get with you then.	1668569	1471971671294	1471971671374		76
3273	34983	I will bring the pillow back tomorrow and get with you then.	I will bring the pillow back tomorrow and get with you then.	1668603	1471971671462	1471971671542		76
3273	34983	I will bring the pillow back tomorrow and get with you then.	I will bring the pillow back tomorrow and get with you then.	1668605	1471971671566	1471971671694		32
3273	34983	I will bring the pillow back tomorrow and get with you then.	I will bring the pillow back tomorrow and get with you then.	1668608	1471971671830	1471971671974		66
3273	34983	I will bring the pillow back tomorrow and get with you then.	I will bring the pillow back tomorrow and get with you then.	1668610	1471971672230	1471971672446		82
3273	34983	I will bring the pillow back tomorrow and get with you then.	I will bring the pillow back tomorrow and get with you then.	1668618	1471971672462	1471971672574		73
3273	34983	I will bring the pillow back tomorrow and get with you then.	I will bring the pillow back tomorrow and get with you then.	1668644	1471971672702	1471971672830		78
3273	34983	I will bring the pillow back tomorrow and get with you then.	I will bring the pillow back tomorrow and get with you then.	1668647	1471971672879	1471971673046		71
3273	34983	I will bring the pillow back tomorrow and get with you then.	I will bring the pillow back tomorrow and get with you then.	1668651	1471971673014	1471971673166		32
3273	34983	I will bring the pillow back tomorrow and get with you then.	I will bring the pillow back tomorrow and get with you then.	1668656	1471971673294	1471971673494		84
3273	34983	I will bring the pillow back tomorrow and get with you then.	I will bring the pillow back tomorrow and get with you then.	1668723	1471971673446	1471971673566		72
3273	34983	I will bring the pillow back tomorrow and get with you then.	I will bring the pillow back tomorrow and get with you then.	1668727	1471971673598	1471971673790		69
3273	34983	I will bring the pillow back tomorrow and get with you then.	I will bring the pillow back tomorrow and get with you then.	1668732	1471971673782	1471971673926		32
3273	34983	I will bring the pillow back tomorrow and get with you then.	I will bring the pillow back tomorrow and get with you then.	1668737	1471971674462	1471971674574		80
3273	34983	I will bring the pillow back tomorrow and get with you then.	I will bring the pillow back tomorrow and get with you then.	1668742	1471971674654	1471971674798		73
3273	34983	I will bring the pillow back tomorrow and get with you then.	I will bring the pillow back tomorrow and get with you then.	1668745	1471971674926	1471971675006		76
3273	34983	I will bring the pillow back tomorrow and get with you then.	I will bring the pillow back tomorrow and get with you then.	1668826	1471971675086	1471971675150		76
3273	34983	I will bring the pillow back tomorrow and get with you then.	I will bring the pillow back tomorrow and get with you then.	1668830	1471971675286	1471971675422		79
3273	34983	I will bring the pillow back tomorrow and get with you then.	I will bring the pillow back tomorrow and get with you then.	1668836	1471971675390	1471971675616		87
3273	34983	I will bring the pillow back tomorrow and get with you then.	I will bring the pillow back tomorrow and get with you then.	1668842	1471971675598	1471971675734		32
3273	34983	I will bring the pillow back tomorrow and get with you then.	I will bring the pillow back tomorrow and get with you then.	1668846	1471971676174	1471971676310		66
3273	34983	I will bring the pillow back tomorrow and get with you then.	I will bring the pillow back tomorrow and get with you then.	1668867	1471971676374	1471971676550		65
3273	34983	I will bring the pillow back tomorrow and get with you then.	I will bring the pillow back tomorrow and get with you then.	1668868	1471971676870	1471971677062		67
3273	34983	I will bring the pillow back tomorrow and get with you then.	I will bring the pillow back tomorrow and get with you then.	1668870	1471971676990	1471971677118		75
3273	34983	I will bring the pillow back tomorrow and get with you then.	I will bring the pillow back tomorrow and get with you then.	1668872	1471971677134	1471971677286		32
3273	34983	I will bring the pillow back tomorrow and get with you then.	I will bring the pillow back tomorrow and get with you then.	1668874	1471971677502	1471971677742		84
3273	34983	I will bring the pillow back tomorrow and get with you then.	I will bring the pillow back tomorrow and get with you then.	1668941	1471971677958	1471971678079		79
3273	34983	I will bring the pillow back tomorrow and get with you then.	I will bring the pillow back tomorrow and get with you then.	1668945	1471971678246	1471971678382		77
3273	34983	I will bring the pillow back tomorrow and get with you then.	I will bring the pillow back tomorrow and get with you then.	1668948	1471971678510	1471971678670		79
3273	34983	I will bring the pillow back tomorrow and get with you then.	I will bring the pillow back tomorrow and get with you then.	1668955	1471971678830	1471971678942		82
3273	34983	I will bring the pillow back tomorrow and get with you then.	I will bring the pillow back tomorrow and get with you then.	1668961	1471971679038	1471971679190		82
3273	34983	I will bring the pillow back tomorrow and get with you then.	I will bring the pillow back tomorrow and get with you then.	1668994	1471971679262	1471971679382		79
3273	34983	I will bring the pillow back tomorrow and get with you then.	I will bring the pillow back tomorrow and get with you then.	1668995	1471971679422	1471971679590		87
3273	34983	I will bring the pillow back tomorrow and get with you then.	I will bring the pillow back tomorrow and get with you then.	1668997	1471971679606	1471971679758		32
3273	34983	I will bring the pillow back tomorrow and get with you then.	I will bring the pillow back tomorrow and get with you then.	1668999	1471971680135	1471971680302		65
3273	34983	I will bring the pillow back tomorrow and get with you then.	I will bring the pillow back tomorrow and get with you then.	1669040	1471971680262	1471971680406		78
3273	34983	I will bring the pillow back tomorrow and get with you then.	I will bring the pillow back tomorrow and get with you then.	1669042	1471971680382	1471971680574		68
3273	34983	I will bring the pillow back tomorrow and get with you then.	I will bring the pillow back tomorrow and get with you then.	1669045	1471971680526	1471971680662		32
3273	34983	I will bring the pillow back tomorrow and get with you then.	I will bring the pillow back tomorrow and get with you then.	1669050	1471971681040	1471971681166		71
3273	34983	I will bring the pillow back tomorrow and get with you then.	I will bring the pillow back tomorrow and get with you then.	1669054	1471971681206	1471971681390		69
3273	34983	I will bring the pillow back tomorrow and get with you then.	I will bring the pillow back tomorrow and get with you then.	1669103	1471971681422	1471971681521		82
3273	34983	I will bring the pillow back tomorrow and get with you then.	I will bring the pillow back tomorrow and get with you then.	1669105	1471971681662	1471971681798		32
3273	34983	I will bring the pillow back tomorrow and get with you then.	I will bring the pillow back tomorrow and get with you then.	1669107	1471971682222	1471971682254		8
3273	34983	I will bring the pillow back tomorrow and get with you then.	I will bring the pillow back tomorrow and get with you then.	1669109	1471971682494	1471971682606		8
3273	34983	I will bring the pillow back tomorrow and get with you then.	I will bring the pillow back tomorrow and get with you then.	1669110	1471971682622	1471971682734		8
3273	34983	I will bring the pillow back tomorrow and get with you then.	I will bring the pillow back tomorrow and get with you then.	1669180	1471971682686	1471971682786		84
3273	34983	I will bring the pillow back tomorrow and get with you then.	I will bring the pillow back tomorrow and get with you then.	1669184	1471971683286	1471971683430		32
3273	34983	I will bring the pillow back tomorrow and get with you then.	I will bring the pillow back tomorrow and get with you then.	1669192	1471971683710	1471971683926		87
3273	34983	I will bring the pillow back tomorrow and get with you then.	I will bring the pillow back tomorrow and get with you then.	1669196	1471971683878	1471971684006		73
3273	34983	I will bring the pillow back tomorrow and get with you then.	I will bring the pillow back tomorrow and get with you then.	1669198	1471971684135	1471971684318		84
3273	34983	I will bring the pillow back tomorrow and get with you then.	I will bring the pillow back tomorrow and get with you then.	1669202	1471971684486	1471971684614		72
3273	34983	I will bring the pillow back tomorrow and get with you then.	I will bring the pillow back tomorrow and get with you then.	1669247	1471971684734	1471971684862		32
3273	34983	I will bring the pillow back tomorrow and get with you then.	I will bring the pillow back tomorrow and get with you then.	1669251	1471971685254	1471971685414		89
3273	34983	I will bring the pillow back tomorrow and get with you then.	I will bring the pillow back tomorrow and get with you then.	1669254	1471971685470	1471971685638		79
3273	34983	I will bring the pillow back tomorrow and get with you then.	I will bring the pillow back tomorrow and get with you then.	1669259	1471971685630	1471971685774		85
3273	34983	I will bring the pillow back tomorrow and get with you then.	I will bring the pillow back tomorrow and get with you then.	1669265	1471971685790	1471971685958		32
3273	34983	I will bring the pillow back tomorrow and get with you then.	I will bring the pillow back tomorrow and get with you then.	1669327	1471971686246	1471971686430		84
3273	34983	I will bring the pillow back tomorrow and get with you then.	I will bring the pillow back tomorrow and get with you then.	1669329	1471971686390	1471971686478		72
3273	34983	I will bring the pillow back tomorrow and get with you then.	I will bring the pillow back tomorrow and get with you then.	1669336	1471971686486	1471971686678		69
3273	34983	I will bring the pillow back tomorrow and get with you then.	I will bring the pillow back tomorrow and get with you then.	1669342	1471971686830	1471971686966		78
3273	34983	I will bring the pillow back tomorrow and get with you then.	I will bring the pillow back tomorrow and get with you then.	1669351	1471971687198	1471971687326		190
