PARTICIPANT_ID	TEST_SECTION_ID	SENTENCE	USER_INPUT	KEYSTROKE_ID	PRESS_TIME	RELEASE_TIME	LETTER	KEYCODE
3292	34662	Team Chick hasn't been in the SuperBowl every year for no reason.	Team Chick hasn't been in the SuperBowl every year for no reason.	1652947	1471971359575	1471971359989	SHIFT	16
3292	34662	Team Chick hasn't been in the SuperBowl every year for no reason.	Team Chick hasn't been in the SuperBowl every year for no reason.	1652948	1471971359943	1471971360004	T	84
3292	34662	Team Chick hasn't been in the SuperBowl every year for no reason.	Team Chick hasn't been in the SuperBowl every year for no reason.	1652949	1471971360101	1471971360245	e	69
3292	34662	Team Chick hasn't been in the SuperBowl every year for no reason.	Team Chick hasn't been in the SuperBowl every year for no reason.	1652952	1471971360198	1471971360325	a	65
3292	34662	Team Chick hasn't been in the SuperBowl every year for no reason.	Team Chick hasn't been in the SuperBowl every year for no reason.	1652959	1471971361190	1471971361328	m	77
3292	34662	Team Chick hasn't been in the SuperBowl every year for no reason.	Team Chick hasn't been in the SuperBowl every year for no reason.	1653034	1471971361285	1471971361396	 	32
3292	34662	Team Chick hasn't been in the SuperBowl every year for no reason.	Team Chick hasn't been in the SuperBowl every year for no reason.	1653036	1471971361670	1471971361829	c	67
3292	34662	Team Chick hasn't been in the SuperBowl every year for no reason.	Team Chick hasn't been in the SuperBowl every year for no reason.	1653038	1471971361829	1471971361989	h	72
3292	34662	Team Chick hasn't been in the SuperBowl every year for no reason.	Team Chick hasn't been in the SuperBowl every year for no reason.	1653042	1471971362261	1471971362341	BKSP	8
3292	34662	Team Chick hasn't been in the SuperBowl every year for no reason.	Team Chick hasn't been in the SuperBowl every year for no reason.	1653044	1471971362406	1471971362485	BKSP	8
3292	34662	Team Chick hasn't been in the SuperBowl every year for no reason.	Team Chick hasn't been in the SuperBowl every year for no reason.	1653046	1471971362549	1471971363205	SHIFT	16
3292	34662	Team Chick hasn't been in the SuperBowl every year for no reason.	Team Chick hasn't been in the SuperBowl every year for no reason.	1653048	1471971363172	1471971363253	C	67
3292	34662	Team Chick hasn't been in the SuperBowl every year for no reason.	Team Chick hasn't been in the SuperBowl every year for no reason.	1653050	1471971363461	1471971363508	h	72
3292	34662	Team Chick hasn't been in the SuperBowl every year for no reason.	Team Chick hasn't been in the SuperBowl every year for no reason.	1653054	1471971363622	1471971363700	i	73
3292	34662	Team Chick hasn't been in the SuperBowl every year for no reason.	Team Chick hasn't been in the SuperBowl every year for no reason.	1653111	1471971364005	1471971364086	c	67
3292	34662	Team Chick hasn't been in the SuperBowl every year for no reason.	Team Chick hasn't been in the SuperBowl every year for no reason.	1653114	1471971364118	1471971364213	k	75
3292	34662	Team Chick hasn't been in the SuperBowl every year for no reason.	Team Chick hasn't been in the SuperBowl every year for no reason.	1653116	1471971364213	1471971364325	 	32
3292	34662	Team Chick hasn't been in the SuperBowl every year for no reason.	Team Chick hasn't been in the SuperBowl every year for no reason.	1653119	1471971365350	1471971365430	h	72
3292	34662	Team Chick hasn't been in the SuperBowl every year for no reason.	Team Chick hasn't been in the SuperBowl every year for no reason.	1653121	1471971365430	1471971365541	a	65
3292	34662	Team Chick hasn't been in the SuperBowl every year for no reason.	Team Chick hasn't been in the SuperBowl every year for no reason.	1653331	1471971365512	1471971365622	s	83
3292	34662	Team Chick hasn't been in the SuperBowl every year for no reason.	Team Chick hasn't been in the SuperBowl every year for no reason.	1653333	1471971366277	1471971366358	n	78
3292	34662	Team Chick hasn't been in the SuperBowl every year for no reason.	Team Chick hasn't been in the SuperBowl every year for no reason.	1653337	1471971368341	1471971368388	'	222
3292	34662	Team Chick hasn't been in the SuperBowl every year for no reason.	Team Chick hasn't been in the SuperBowl every year for no reason.	1653338	1471971368628	1471971368692	t	84
3292	34662	Team Chick hasn't been in the SuperBowl every year for no reason.	Team Chick hasn't been in the SuperBowl every year for no reason.	1653343	1471971369511	1471971369573	 	32
3292	34662	Team Chick hasn't been in the SuperBowl every year for no reason.	Team Chick hasn't been in the SuperBowl every year for no reason.	1653349	1471971370077	1471971370164	b	66
3292	34662	Team Chick hasn't been in the SuperBowl every year for no reason.	Team Chick hasn't been in the SuperBowl every year for no reason.	1653360	1471971370212	1471971370277	e	69
3292	34662	Team Chick hasn't been in the SuperBowl every year for no reason.	Team Chick hasn't been in the SuperBowl every year for no reason.	1653363	1471971370373	1471971370453	e	69
3292	34662	Team Chick hasn't been in the SuperBowl every year for no reason.	Team Chick hasn't been in the SuperBowl every year for no reason.	1653366	1471971370486	1471971370580	n	78
3292	34662	Team Chick hasn't been in the SuperBowl every year for no reason.	Team Chick hasn't been in the SuperBowl every year for no reason.	1653369	1471971370565	1471971370644	 	32
3292	34662	Team Chick hasn't been in the SuperBowl every year for no reason.	Team Chick hasn't been in the SuperBowl every year for no reason.	1653371	1471971370694	1471971370791	i	73
3292	34662	Team Chick hasn't been in the SuperBowl every year for no reason.	Team Chick hasn't been in the SuperBowl every year for no reason.	1653397	1471971370869	1471971370948	n	78
3292	34662	Team Chick hasn't been in the SuperBowl every year for no reason.	Team Chick hasn't been in the SuperBowl every year for no reason.	1653398	1471971370917	1471971370996	 	32
3292	34662	Team Chick hasn't been in the SuperBowl every year for no reason.	Team Chick hasn't been in the SuperBowl every year for no reason.	1653399	1471971371110	1471971371157	t	84
3292	34662	Team Chick hasn't been in the SuperBowl every year for no reason.	Team Chick hasn't been in the SuperBowl every year for no reason.	1653400	1471971371301	1471971371366	h	72
3292	34662	Team Chick hasn't been in the SuperBowl every year for no reason.	Team Chick hasn't been in the SuperBowl every year for no reason.	1653401	1471971371413	1471971371477	e	69
3292	34662	Team Chick hasn't been in the SuperBowl every year for no reason.	Team Chick hasn't been in the SuperBowl every year for no reason.	1653623	1471971371493	1471971371605	 	32
3292	34662	Team Chick hasn't been in the SuperBowl every year for no reason.	Team Chick hasn't been in the SuperBowl every year for no reason.	1653628	1471971372101	1471971372164	s	83
3292	34662	Team Chick hasn't been in the SuperBowl every year for no reason.	Team Chick hasn't been in the SuperBowl every year for no reason.	1653633	1471971372645	1471971372725	BKSP	8
3292	34662	Team Chick hasn't been in the SuperBowl every year for no reason.	Team Chick hasn't been in the SuperBowl every year for no reason.	1653637	1471971372789	1471971373204	SHIFT	16
3292	34662	Team Chick hasn't been in the SuperBowl every year for no reason.	Team Chick hasn't been in the SuperBowl every year for no reason.	1653641	1471971373157	1471971373204	U	85
3292	34662	Team Chick hasn't been in the SuperBowl every year for no reason.	Team Chick hasn't been in the SuperBowl every year for no reason.	1653643	1471971373941	1471971374021	BKSP	8
3292	34662	Team Chick hasn't been in the SuperBowl every year for no reason.	Team Chick hasn't been in the SuperBowl every year for no reason.	1653645	1471971374343	1471971374805	SHIFT	16
3292	34662	Team Chick hasn't been in the SuperBowl every year for no reason.	Team Chick hasn't been in the SuperBowl every year for no reason.	1653646	1471971374757	1471971374836	S	83
3292	34662	Team Chick hasn't been in the SuperBowl every year for no reason.	Team Chick hasn't been in the SuperBowl every year for no reason.	1653647	1471971375157	1471971375221	u	85
3292	34662	Team Chick hasn't been in the SuperBowl every year for no reason.	Team Chick hasn't been in the SuperBowl every year for no reason.	1653766	1471971375654	1471971375717	p	80
3292	34662	Team Chick hasn't been in the SuperBowl every year for no reason.	Team Chick hasn't been in the SuperBowl every year for no reason.	1653769	1471971376069	1471971376181	e	69
3292	34662	Team Chick hasn't been in the SuperBowl every year for no reason.	Team Chick hasn't been in the SuperBowl every year for no reason.	1653772	1471971376148	1471971376261	r	82
3292	34662	Team Chick hasn't been in the SuperBowl every year for no reason.	Team Chick hasn't been in the SuperBowl every year for no reason.	1653777	1471971377365	1471971377685	SHIFT	16
3292	34662	Team Chick hasn't been in the SuperBowl every year for no reason.	Team Chick hasn't been in the SuperBowl every year for no reason.	1653775	1471971377590	1471971377669	B	66
3292	34662	Team Chick hasn't been in the SuperBowl every year for no reason.	Team Chick hasn't been in the SuperBowl every year for no reason.	1653780	1471971378005	1471971378100	o	79
3292	34662	Team Chick hasn't been in the SuperBowl every year for no reason.	Team Chick hasn't been in the SuperBowl every year for no reason.	1653879	1471971378486	1471971378581	w	87
3292	34662	Team Chick hasn't been in the SuperBowl every year for no reason.	Team Chick hasn't been in the SuperBowl every year for no reason.	1653880	1471971378549	1471971378644	l	76
3292	34662	Team Chick hasn't been in the SuperBowl every year for no reason.	Team Chick hasn't been in the SuperBowl every year for no reason.	1653883	1471971379461	1471971379541	 	32
3292	34662	Team Chick hasn't been in the SuperBowl every year for no reason.	Team Chick hasn't been in the SuperBowl every year for no reason.	1653887	1471971380293	1471971380356	e	69
3292	34662	Team Chick hasn't been in the SuperBowl every year for no reason.	Team Chick hasn't been in the SuperBowl every year for no reason.	1653890	1471971380533	1471971380597	v	86
3292	34662	Team Chick hasn't been in the SuperBowl every year for no reason.	Team Chick hasn't been in the SuperBowl every year for no reason.	1653942	1471971380613	1471971380677	e	69
3292	34662	Team Chick hasn't been in the SuperBowl every year for no reason.	Team Chick hasn't been in the SuperBowl every year for no reason.	1653946	1471971380821	1471971380900	r	82
3292	34662	Team Chick hasn't been in the SuperBowl every year for no reason.	Team Chick hasn't been in the SuperBowl every year for no reason.	1653949	1471971380998	1471971381061	y	89
3292	34662	Team Chick hasn't been in the SuperBowl every year for no reason.	Team Chick hasn't been in the SuperBowl every year for no reason.	1653952	1471971381559	1471971381621	 	32
3292	34662	Team Chick hasn't been in the SuperBowl every year for no reason.	Team Chick hasn't been in the SuperBowl every year for no reason.	1653955	1471971381749	1471971381829	y	89
3292	34662	Team Chick hasn't been in the SuperBowl every year for no reason.	Team Chick hasn't been in the SuperBowl every year for no reason.	1654009	1471971381989	1471971382117	e	69
3292	34662	Team Chick hasn't been in the SuperBowl every year for no reason.	Team Chick hasn't been in the SuperBowl every year for no reason.	1654011	1471971382070	1471971382229	a	65
3292	34662	Team Chick hasn't been in the SuperBowl every year for no reason.	Team Chick hasn't been in the SuperBowl every year for no reason.	1654015	1471971382182	1471971382293	r	82
3292	34662	Team Chick hasn't been in the SuperBowl every year for no reason.	Team Chick hasn't been in the SuperBowl every year for no reason.	1654021	1471971382341	1471971382454	 	32
3292	34662	Team Chick hasn't been in the SuperBowl every year for no reason.	Team Chick hasn't been in the SuperBowl every year for no reason.	1654027	1471971383416	1471971383493	f	70
3292	34662	Team Chick hasn't been in the SuperBowl every year for no reason.	Team Chick hasn't been in the SuperBowl every year for no reason.	1654059	1471971383495	1471971383572	o	79
3292	34662	Team Chick hasn't been in the SuperBowl every year for no reason.	Team Chick hasn't been in the SuperBowl every year for no reason.	1654061	1471971383653	1471971383717	r	82
3292	34662	Team Chick hasn't been in the SuperBowl every year for no reason.	Team Chick hasn't been in the SuperBowl every year for no reason.	1654063	1471971384023	1471971384150	 	32
3292	34662	Team Chick hasn't been in the SuperBowl every year for no reason.	Team Chick hasn't been in the SuperBowl every year for no reason.	1654065	1471971384244	1471971384373	n	78
3292	34662	Team Chick hasn't been in the SuperBowl every year for no reason.	Team Chick hasn't been in the SuperBowl every year for no reason.	1654142	1471971384326	1471971384453	o	79
3292	34662	Team Chick hasn't been in the SuperBowl every year for no reason.	Team Chick hasn't been in the SuperBowl every year for no reason.	1654144	1471971384454	1471971384629	 	32
3292	34662	Team Chick hasn't been in the SuperBowl every year for no reason.	Team Chick hasn't been in the SuperBowl every year for no reason.	1654147	1471971385430	1471971385558	r	82
3292	34662	Team Chick hasn't been in the SuperBowl every year for no reason.	Team Chick hasn't been in the SuperBowl every year for no reason.	1654148	1471971385492	1471971385669	e	69
3292	34662	Team Chick hasn't been in the SuperBowl every year for no reason.	Team Chick hasn't been in the SuperBowl every year for no reason.	1654149	1471971385621	1471971385862	a	65
3292	34662	Team Chick hasn't been in the SuperBowl every year for no reason.	Team Chick hasn't been in the SuperBowl every year for no reason.	1654151	1471971386085	1471971386132	BKSP	8
3292	34662	Team Chick hasn't been in the SuperBowl every year for no reason.	Team Chick hasn't been in the SuperBowl every year for no reason.	1654153	1471971386212	1471971386293	BKSP	8
3292	34662	Team Chick hasn't been in the SuperBowl every year for no reason.	Team Chick hasn't been in the SuperBowl every year for no reason.	1654155	1471971386340	1471971386437	s	83
3292	34662	Team Chick hasn't been in the SuperBowl every year for no reason.	Team Chick hasn't been in the SuperBowl every year for no reason.	1654234	1471971386823	1471971386900	BKSP	8
3292	34662	Team Chick hasn't been in the SuperBowl every year for no reason.	Team Chick hasn't been in the SuperBowl every year for no reason.	1654237	1471971386981	1471971387077	a	65
3292	34662	Team Chick hasn't been in the SuperBowl every year for no reason.	Team Chick hasn't been in the SuperBowl every year for no reason.	1654240	1471971387317	1471971387398	BKSP	8
3292	34662	Team Chick hasn't been in the SuperBowl every year for no reason.	Team Chick hasn't been in the SuperBowl every year for no reason.	1654243	1471971387493	1471971387668	e	69
3292	34662	Team Chick hasn't been in the SuperBowl every year for no reason.	Team Chick hasn't been in the SuperBowl every year for no reason.	1654245	1471971387621	1471971387748	s	83
3292	34662	Team Chick hasn't been in the SuperBowl every year for no reason.	Team Chick hasn't been in the SuperBowl every year for no reason.	1654247	1471971388358	1471971388421	BKSP	8
3292	34662	Team Chick hasn't been in the SuperBowl every year for no reason.	Team Chick hasn't been in the SuperBowl every year for no reason.	1654249	1471971388518	1471971388629	a	65
3292	34662	Team Chick hasn't been in the SuperBowl every year for no reason.	Team Chick hasn't been in the SuperBowl every year for no reason.	1654251	1471971388887	1471971388965	s	83
3292	34662	Team Chick hasn't been in the SuperBowl every year for no reason.	Team Chick hasn't been in the SuperBowl every year for no reason.	1654328	1471971389046	1471971389109	o	79
3292	34662	Team Chick hasn't been in the SuperBowl every year for no reason.	Team Chick hasn't been in the SuperBowl every year for no reason.	1654331	1471971389222	1471971389301	n	78
3292	34662	Team Chick hasn't been in the SuperBowl every year for no reason.	Team Chick hasn't been in the SuperBowl every year for no reason.	1654335	1471971390358	1471971390421	.	190
3292	34696	The Hawks led from late in the first quarter.	The Hawks led from late in the first quater.	1654656	1471971396677	1471971397430	SHIFT	16
3292	34696	The Hawks led from late in the first quarter.	The Hawks led from late in the first quater.	1654650	1471971397094	1471971397156	T	84
3292	34696	The Hawks led from late in the first quarter.	The Hawks led from late in the first quater.	1654652	1471971397269	1471971397332	H	72
3292	34696	The Hawks led from late in the first quarter.	The Hawks led from late in the first quater.	1654659	1471971397431	1471971397492	e	69
3292	34696	The Hawks led from late in the first quarter.	The Hawks led from late in the first quater.	1654662	1471971397590	1471971397668	 	32
3292	34696	The Hawks led from late in the first quarter.	The Hawks led from late in the first quater.	1654664	1471971397862	1471971397908	BKSP	8
3292	34696	The Hawks led from late in the first quarter.	The Hawks led from late in the first quater.	1654667	1471971397990	1471971398069	BKSP	8
3292	34696	The Hawks led from late in the first quarter.	The Hawks led from late in the first quater.	1654670	1471971398135	1471971398228	BKSP	8
3292	34696	The Hawks led from late in the first quarter.	The Hawks led from late in the first quater.	1654673	1471971398724	1471971398772	h	72
3292	34696	The Hawks led from late in the first quarter.	The Hawks led from late in the first quater.	1654715	1471971398805	1471971398885	e	69
3292	34696	The Hawks led from late in the first quarter.	The Hawks led from late in the first quater.	1654720	1471971398885	1471971398966	 	32
3292	34696	The Hawks led from late in the first quarter.	The Hawks led from late in the first quater.	1654726	1471971399078	1471971399476	SHIFT	16
3292	34696	The Hawks led from late in the first quarter.	The Hawks led from late in the first quater.	1654732	1471971399414	1471971399476	H	72
3292	34696	The Hawks led from late in the first quarter.	The Hawks led from late in the first quater.	1654736	1471971399781	1471971399862	a	65
3292	34696	The Hawks led from late in the first quarter.	The Hawks led from late in the first quater.	1654742	1471971400038	1471971400118	w	87
3292	34696	The Hawks led from late in the first quarter.	The Hawks led from late in the first quater.	1654859	1471971400517	1471971400580	k	75
3292	34696	The Hawks led from late in the first quarter.	The Hawks led from late in the first quater.	1654862	1471971400613	1471971400692	s	83
3292	34696	The Hawks led from late in the first quarter.	The Hawks led from late in the first quater.	1654865	1471971400709	1471971400804	 	32
3292	34696	The Hawks led from late in the first quarter.	The Hawks led from late in the first quater.	1654868	1471971401463	1471971401557	l	76
3292	34696	The Hawks led from late in the first quarter.	The Hawks led from late in the first quater.	1654871	1471971402197	1471971402277	e	69
3292	34696	The Hawks led from late in the first quarter.	The Hawks led from late in the first quater.	1654942	1471971402406	1471971402485	d	68
3292	34696	The Hawks led from late in the first quarter.	The Hawks led from late in the first quater.	1654946	1471971402517	1471971402596	 	32
3292	34696	The Hawks led from late in the first quarter.	The Hawks led from late in the first quater.	1654951	1471971403622	1471971403701	f	70
3292	34696	The Hawks led from late in the first quarter.	The Hawks led from late in the first quater.	1654953	1471971403829	1471971403909	r	82
3292	34696	The Hawks led from late in the first quarter.	The Hawks led from late in the first quater.	1654955	1471971403989	1471971404085	o	79
3292	34696	The Hawks led from late in the first quarter.	The Hawks led from late in the first quater.	1655047	1471971404213	1471971404292	m	77
3292	34696	The Hawks led from late in the first quarter.	The Hawks led from late in the first quater.	1655049	1471971404406	1471971404517	 	32
3292	34696	The Hawks led from late in the first quarter.	The Hawks led from late in the first quater.	1655052	1471971404886	1471971404981	l	76
3292	34696	The Hawks led from late in the first quarter.	The Hawks led from late in the first quater.	1655056	1471971404982	1471971405076	a	65
3292	34696	The Hawks led from late in the first quarter.	The Hawks led from late in the first quater.	1655057	1471971405334	1471971405397	t	84
3292	34696	The Hawks led from late in the first quarter.	The Hawks led from late in the first quater.	1655082	1471971405445	1471971405527	e	69
3292	34696	The Hawks led from late in the first quarter.	The Hawks led from late in the first quater.	1655084	1471971405531	1471971405605	 	32
3292	34696	The Hawks led from late in the first quarter.	The Hawks led from late in the first quater.	1655086	1471971405814	1471971405876	i	73
3292	34696	The Hawks led from late in the first quarter.	The Hawks led from late in the first quater.	1655088	1471971405957	1471971406052	n	78
3292	34696	The Hawks led from late in the first quarter.	The Hawks led from late in the first quater.	1655134	1471971406021	1471971406116	 	32
3292	34696	The Hawks led from late in the first quarter.	The Hawks led from late in the first quater.	1655137	1471971406229	1471971406276	t	84
3292	34696	The Hawks led from late in the first quarter.	The Hawks led from late in the first quater.	1655142	1471971406374	1471971406452	h	72
3292	34696	The Hawks led from late in the first quarter.	The Hawks led from late in the first quater.	1655146	1471971406486	1471971406549	e	69
3292	34696	The Hawks led from late in the first quarter.	The Hawks led from late in the first quater.	1655154	1471971406565	1471971406629	 	32
3292	34696	The Hawks led from late in the first quarter.	The Hawks led from late in the first quater.	1655160	1471971406774	1471971406853	f	70
3292	34696	The Hawks led from late in the first quarter.	The Hawks led from late in the first quater.	1655231	1471971407062	1471971407125	i	73
3292	34696	The Hawks led from late in the first quarter.	The Hawks led from late in the first quater.	1655233	1471971407878	1471971407940	r	82
3292	34696	The Hawks led from late in the first quarter.	The Hawks led from late in the first quater.	1655234	1471971408645	1471971408709	s	83
3292	34696	The Hawks led from late in the first quarter.	The Hawks led from late in the first quater.	1655235	1471971408725	1471971408820	t	84
3292	34696	The Hawks led from late in the first quarter.	The Hawks led from late in the first quater.	1655237	1471971408821	1471971408902	 	32
3292	34696	The Hawks led from late in the first quarter.	The Hawks led from late in the first quater.	1655334	1471971409258	1471971409830	SHIFT	16
3292	34696	The Hawks led from late in the first quarter.	The Hawks led from late in the first quater.	1655335	1471971410055	1471971410132	q	81
3292	34696	The Hawks led from late in the first quarter.	The Hawks led from late in the first quater.	1655336	1471971410693	1471971410773	u	85
3292	34696	The Hawks led from late in the first quarter.	The Hawks led from late in the first quater.	1655339	1471971410854	1471971410981	a	65
3292	34696	The Hawks led from late in the first quarter.	The Hawks led from late in the first quater.	1655341	1471971411670	1471971411782	t	84
3292	34696	The Hawks led from late in the first quarter.	The Hawks led from late in the first quater.	1655441	1471971411766	1471971411925	e	69
3292	34696	The Hawks led from late in the first quarter.	The Hawks led from late in the first quater.	1655444	1471971411909	1471971412006	r	82
3292	34696	The Hawks led from late in the first quarter.	The Hawks led from late in the first quater.	1655448	1471971413222	1471971413285	.	190
3292	34717	Ava please put it on my calendar.	Ava please put in on my calender.	1655659	1471971417174	1471971418004	SHIFT	16
3292	34717	Ava please put it on my calendar.	Ava please put in on my calender.	1655661	1471971417958	1471971418052	A	65
3292	34717	Ava please put it on my calendar.	Ava please put in on my calender.	1655663	1471971418485	1471971418549	v	86
3292	34717	Ava please put it on my calendar.	Ava please put in on my calender.	1655664	1471971418581	1471971418662	a	65
3292	34717	Ava please put it on my calendar.	Ava please put in on my calender.	1655665	1471971418679	1471971418741	 	32
3292	34717	Ava please put it on my calendar.	Ava please put in on my calender.	1655666	1471971419028	1471971419092	p	80
3292	34717	Ava please put it on my calendar.	Ava please put in on my calender.	1655685	1471971419206	1471971419269	l	76
3292	34717	Ava please put it on my calendar.	Ava please put in on my calender.	1655688	1471971419382	1471971419492	e	69
3292	34717	Ava please put it on my calendar.	Ava please put in on my calender.	1655692	1471971419461	1471971419589	a	65
3292	34717	Ava please put it on my calendar.	Ava please put in on my calender.	1655696	1471971419717	1471971419829	s	83
3292	34717	Ava please put it on my calendar.	Ava please put in on my calender.	1655806	1471971419797	1471971419909	e	69
3292	34717	Ava please put it on my calendar.	Ava please put in on my calender.	1655808	1471971419956	1471971420053	 	32
3292	34717	Ava please put it on my calendar.	Ava please put in on my calender.	1655810	1471971421174	1471971421253	p	80
3292	34717	Ava please put it on my calendar.	Ava please put in on my calender.	1655814	1471971421670	1471971421732	u	85
3292	34717	Ava please put it on my calendar.	Ava please put in on my calender.	1655817	1471971421846	1471971421909	t	84
3292	34717	Ava please put it on my calendar.	Ava please put in on my calender.	1655820	1471971422244	1471971422356	 	32
3292	34717	Ava please put it on my calendar.	Ava please put in on my calender.	1655874	1471971422388	1471971422500	i	73
3292	34717	Ava please put it on my calendar.	Ava please put in on my calender.	1655877	1471971422580	1471971422708	n	78
3292	34717	Ava please put it on my calendar.	Ava please put in on my calender.	1655882	1471971422676	1471971422772	 	32
3292	34717	Ava please put it on my calendar.	Ava please put in on my calender.	1655887	1471971423204	1471971423284	o	79
3292	34717	Ava please put it on my calendar.	Ava please put in on my calender.	1655890	1471971423380	1471971423460	n	78
3292	34717	Ava please put it on my calendar.	Ava please put in on my calender.	1655916	1471971423444	1471971423541	 	32
3292	34717	Ava please put it on my calendar.	Ava please put in on my calender.	1655918	1471971423685	1471971423749	m	77
3292	34717	Ava please put it on my calendar.	Ava please put in on my calender.	1655921	1471971423893	1471971423989	y	89
3292	34717	Ava please put it on my calendar.	Ava please put in on my calender.	1655924	1471971423989	1471971424085	 	32
3292	34717	Ava please put it on my calendar.	Ava please put in on my calender.	1655928	1471971424886	1471971424981	c	67
3292	34717	Ava please put it on my calendar.	Ava please put in on my calender.	1655948	1471971424949	1471971425045	a	65
3292	34717	Ava please put it on my calendar.	Ava please put in on my calender.	1655951	1471971425127	1471971425189	l	76
3292	34717	Ava please put it on my calendar.	Ava please put in on my calender.	1655955	1471971425365	1471971425445	e	69
3292	34717	Ava please put it on my calendar.	Ava please put in on my calender.	1655958	1471971425606	1471971425685	n	78
3292	34717	Ava please put it on my calendar.	Ava please put in on my calender.	1655964	1471971425830	1471971425894	d	68
3292	34717	Ava please put it on my calendar.	Ava please put in on my calender.	1655968	1471971426005	1471971426069	e	69
3292	34717	Ava please put it on my calendar.	Ava please put in on my calender.	1656010	1471971426182	1471971426244	r	82
3292	34717	Ava please put it on my calendar.	Ava please put in on my calender.	1656014	1471971427158	1471971427221	.	190
3292	34728	It's all about making the whole story public.	It's all about making the whole story public.	1656272	1471971432150	1471971432773	SHIFT	16
3292	34728	It's all about making the whole story public.	It's all about making the whole story public.	1656277	1471971433045	1471971433284	SHIFT	16
3292	34728	It's all about making the whole story public.	It's all about making the whole story public.	1656283	1471971433254	1471971433333	I	73
3292	34728	It's all about making the whole story public.	It's all about making the whole story public.	1656288	1471971434215	1471971434293	t	84
3292	34728	It's all about making the whole story public.	It's all about making the whole story public.	1656292	1471971434760	1471971434820	'	222
3292	34728	It's all about making the whole story public.	It's all about making the whole story public.	1656295	1471971434919	1471971434997	s	83
3292	34728	It's all about making the whole story public.	It's all about making the whole story public.	1656297	1471971435077	1471971435141	 	32
3292	34728	It's all about making the whole story public.	It's all about making the whole story public.	1656336	1471971436070	1471971436181	a	65
3292	34728	It's all about making the whole story public.	It's all about making the whole story public.	1656337	1471971436213	1471971436260	l	76
3292	34728	It's all about making the whole story public.	It's all about making the whole story public.	1656338	1471971436341	1471971436452	l	76
3292	34728	It's all about making the whole story public.	It's all about making the whole story public.	1656341	1471971436453	1471971436532	 	32
3292	34728	It's all about making the whole story public.	It's all about making the whole story public.	1656344	1471971436629	1471971436710	a	65
3292	34728	It's all about making the whole story public.	It's all about making the whole story public.	1656378	1471971436742	1471971436821	b	66
3292	34728	It's all about making the whole story public.	It's all about making the whole story public.	1656381	1471971436901	1471971436997	o	79
3292	34728	It's all about making the whole story public.	It's all about making the whole story public.	1656384	1471971437111	1471971437172	u	85
3292	34728	It's all about making the whole story public.	It's all about making the whole story public.	1656390	1471971437285	1471971437365	t	84
3292	34728	It's all about making the whole story public.	It's all about making the whole story public.	1656393	1471971437381	1471971437444	 	32
3292	34728	It's all about making the whole story public.	It's all about making the whole story public.	1656414	1471971437750	1471971437829	m	77
3292	34728	It's all about making the whole story public.	It's all about making the whole story public.	1656418	1471971437846	1471971437925	a	65
3292	34728	It's all about making the whole story public.	It's all about making the whole story public.	1656423	1471971437957	1471971438037	k	75
3292	34728	It's all about making the whole story public.	It's all about making the whole story public.	1656431	1471971438118	1471971438181	i	73
3292	34728	It's all about making the whole story public.	It's all about making the whole story public.	1656437	1471971438278	1471971438341	n	78
3292	34728	It's all about making the whole story public.	It's all about making the whole story public.	1656458	1471971438421	1471971438484	g	71
3292	34728	It's all about making the whole story public.	It's all about making the whole story public.	1656460	1471971438484	1471971438566	 	32
3292	34728	It's all about making the whole story public.	It's all about making the whole story public.	1656466	1471971438711	1471971438756	t	84
3292	34728	It's all about making the whole story public.	It's all about making the whole story public.	1656473	1471971438854	1471971438917	h	72
3292	34728	It's all about making the whole story public.	It's all about making the whole story public.	1656478	1471971438933	1471971439013	e	69
3292	34728	It's all about making the whole story public.	It's all about making the whole story public.	1656555	1471971439029	1471971439125	 	32
3292	34728	It's all about making the whole story public.	It's all about making the whole story public.	1656557	1471971440245	1471971440309	w	87
3292	34728	It's all about making the whole story public.	It's all about making the whole story public.	1656559	1471971440437	1471971440502	h	72
3292	34728	It's all about making the whole story public.	It's all about making the whole story public.	1656561	1471971442038	1471971442071	p	79
3292	34728	It's all about making the whole story public.	It's all about making the whole story public.	1656698	1471971442774	1471971442837	BKSP	8
3292	34728	It's all about making the whole story public.	It's all about making the whole story public.	1656700	1471971443655	1471971443717	l	76
3292	34728	It's all about making the whole story public.	It's all about making the whole story public.	1656702	1471971443878	1471971443957	e	69
3292	34728	It's all about making the whole story public.	It's all about making the whole story public.	1656704	1471971443957	1471971444053	 	32
3292	34728	It's all about making the whole story public.	It's all about making the whole story public.	1656705	1471971444613	1471971444678	s	83
3292	34728	It's all about making the whole story public.	It's all about making the whole story public.	1656706	1471971445270	1471971445333	t	84
3292	34728	It's all about making the whole story public.	It's all about making the whole story public.	1656754	1471971445381	1471971445461	o	79
3292	34728	It's all about making the whole story public.	It's all about making the whole story public.	1656756	1471971445525	1471971445588	r	82
3292	34728	It's all about making the whole story public.	It's all about making the whole story public.	1656757	1471971445717	1471971445796	y	89
3292	34728	It's all about making the whole story public.	It's all about making the whole story public.	1656758	1471971445797	1471971445926	 	32
3292	34728	It's all about making the whole story public.	It's all about making the whole story public.	1656759	1471971446485	1471971446565	p	80
3292	34728	It's all about making the whole story public.	It's all about making the whole story public.	1656822	1471971447269	1471971447333	u	85
3292	34728	It's all about making the whole story public.	It's all about making the whole story public.	1656823	1471971447526	1471971447605	b	66
3292	34728	It's all about making the whole story public.	It's all about making the whole story public.	1656824	1471971447750	1471971447813	l	76
3292	34728	It's all about making the whole story public.	It's all about making the whole story public.	1656825	1471971447942	1471971448005	i	73
3292	34728	It's all about making the whole story public.	It's all about making the whole story public.	1656826	1471971448135	1471971448213	c	67
3292	34728	It's all about making the whole story public.	It's all about making the whole story public.	1656902	1471971449733	1471971449797	.	190
3292	34749	Spanish football reaches boiling point this weekend.	Spanish football reaches boiling point this weekend	1657125	1471971454341	1471971454916	SHIFT	16
3292	34749	Spanish football reaches boiling point this weekend.	Spanish football reaches boiling point this weekend	1657127	1471971454870	1471971454981	S	83
3292	34749	Spanish football reaches boiling point this weekend.	Spanish football reaches boiling point this weekend	1657129	1471971455205	1471971455285	p	80
3292	34749	Spanish football reaches boiling point this weekend.	Spanish football reaches boiling point this weekend	1657132	1471971455318	1471971455412	a	65
3292	34749	Spanish football reaches boiling point this weekend.	Spanish football reaches boiling point this weekend	1657134	1471971455621	1471971455684	n	78
3292	34749	Spanish football reaches boiling point this weekend.	Spanish football reaches boiling point this weekend	1657137	1471971455781	1471971455861	i	73
3292	34749	Spanish football reaches boiling point this weekend.	Spanish football reaches boiling point this weekend	1657198	1471971455925	1471971455989	s	83
3292	34749	Spanish football reaches boiling point this weekend.	Spanish football reaches boiling point this weekend	1657204	1471971456086	1471971456149	h	72
3292	34749	Spanish football reaches boiling point this weekend.	Spanish football reaches boiling point this weekend	1657208	1471971456213	1471971456308	 	32
3292	34749	Spanish football reaches boiling point this weekend.	Spanish football reaches boiling point this weekend	1657213	1471971456694	1471971456772	f	70
3292	34749	Spanish football reaches boiling point this weekend.	Spanish football reaches boiling point this weekend	1657218	1471971457158	1471971457205	o	79
3292	34749	Spanish football reaches boiling point this weekend.	Spanish football reaches boiling point this weekend	1657242	1471971457284	1471971457366	o	79
3292	34749	Spanish football reaches boiling point this weekend.	Spanish football reaches boiling point this weekend	1657244	1471971457382	1471971457445	t	84
3292	34749	Spanish football reaches boiling point this weekend.	Spanish football reaches boiling point this weekend	1657246	1471971457670	1471971457748	b	66
3292	34749	Spanish football reaches boiling point this weekend.	Spanish football reaches boiling point this weekend	1657250	1471971457765	1471971457862	a	65
3292	34749	Spanish football reaches boiling point this weekend.	Spanish football reaches boiling point this weekend	1657253	1471971457910	1471971457973	l	76
3292	34749	Spanish football reaches boiling point this weekend.	Spanish football reaches boiling point this weekend	1657318	1471971458053	1471971458133	l	76
3292	34749	Spanish football reaches boiling point this weekend.	Spanish football reaches boiling point this weekend	1657321	1471971458213	1471971458358	 	32
3292	34749	Spanish football reaches boiling point this weekend.	Spanish football reaches boiling point this weekend	1657323	1471971459236	1471971459333	r	82
3292	34749	Spanish football reaches boiling point this weekend.	Spanish football reaches boiling point this weekend	1657325	1471971459300	1471971459462	e	69
3292	34749	Spanish football reaches boiling point this weekend.	Spanish football reaches boiling point this weekend	1657356	1471971459430	1471971459590	a	65
3292	34749	Spanish football reaches boiling point this weekend.	Spanish football reaches boiling point this weekend	1657359	1471971459782	1471971459860	c	67
3292	34749	Spanish football reaches boiling point this weekend.	Spanish football reaches boiling point this weekend	1657363	1471971459973	1471971460037	h	72
3292	34749	Spanish football reaches boiling point this weekend.	Spanish football reaches boiling point this weekend	1657367	1471971460117	1471971460197	e	69
3292	34749	Spanish football reaches boiling point this weekend.	Spanish football reaches boiling point this weekend	1657370	1471971460356	1471971460454	s	83
3292	34749	Spanish football reaches boiling point this weekend.	Spanish football reaches boiling point this weekend	1657373	1471971460470	1471971460549	 	32
3292	34749	Spanish football reaches boiling point this weekend.	Spanish football reaches boiling point this weekend	1657527	1471971463111	1471971463236	b	66
3292	34749	Spanish football reaches boiling point this weekend.	Spanish football reaches boiling point this weekend	1657529	1471971463350	1471971463461	o	79
3292	34749	Spanish football reaches boiling point this weekend.	Spanish football reaches boiling point this weekend	1657531	1471971464405	1471971464452	i	73
3292	34749	Spanish football reaches boiling point this weekend.	Spanish football reaches boiling point this weekend	1657533	1471971464581	1471971464661	l	76
3292	34749	Spanish football reaches boiling point this weekend.	Spanish football reaches boiling point this weekend	1657540	1471971464774	1471971464837	i	73
3292	34749	Spanish football reaches boiling point this weekend.	Spanish football reaches boiling point this weekend	1657592	1471971464966	1471971465029	n	78
3292	34749	Spanish football reaches boiling point this weekend.	Spanish football reaches boiling point this weekend	1657594	1471971465125	1471971465222	g	71
3292	34749	Spanish football reaches boiling point this weekend.	Spanish football reaches boiling point this weekend	1657596	1471971465189	1471971465285	 	32
3292	34749	Spanish football reaches boiling point this weekend.	Spanish football reaches boiling point this weekend	1657599	1471971466086	1471971466197	p	80
3292	34749	Spanish football reaches boiling point this weekend.	Spanish football reaches boiling point this weekend	1657603	1471971466260	1471971466357	o	79
3292	34749	Spanish football reaches boiling point this weekend.	Spanish football reaches boiling point this weekend	1657667	1471971466758	1471971466821	i	73
3292	34749	Spanish football reaches boiling point this weekend.	Spanish football reaches boiling point this weekend	1657669	1471971466950	1471971467029	n	78
3292	34749	Spanish football reaches boiling point this weekend.	Spanish football reaches boiling point this weekend	1657672	1471971467094	1471971467190	t	84
3292	34749	Spanish football reaches boiling point this weekend.	Spanish football reaches boiling point this weekend	1657675	1471971467191	1471971467285	 	32
3292	34749	Spanish football reaches boiling point this weekend.	Spanish football reaches boiling point this weekend	1657680	1471971467991	1471971468054	t	84
3292	34749	Spanish football reaches boiling point this weekend.	Spanish football reaches boiling point this weekend	1657730	1471971468165	1471971468229	h	72
3292	34749	Spanish football reaches boiling point this weekend.	Spanish football reaches boiling point this weekend	1657736	1471971468325	1471971468389	i	73
3292	34749	Spanish football reaches boiling point this weekend.	Spanish football reaches boiling point this weekend	1657742	1471971468438	1471971468501	s	83
3292	34749	Spanish football reaches boiling point this weekend.	Spanish football reaches boiling point this weekend	1657747	1471971468517	1471971468581	 	32
3292	34749	Spanish football reaches boiling point this weekend.	Spanish football reaches boiling point this weekend	1657752	1471971468887	1471971468981	w	87
3292	34749	Spanish football reaches boiling point this weekend.	Spanish football reaches boiling point this weekend	1657841	1471971468948	1471971469045	e	69
3292	34749	Spanish football reaches boiling point this weekend.	Spanish football reaches boiling point this weekend	1657846	1471971469237	1471971469333	e	69
3292	34749	Spanish football reaches boiling point this weekend.	Spanish football reaches boiling point this weekend	1657851	1471971470229	1471971470293	k	75
3292	34749	Spanish football reaches boiling point this weekend.	Spanish football reaches boiling point this weekend	1657853	1471971470341	1471971470420	e	69
3292	34749	Spanish football reaches boiling point this weekend.	Spanish football reaches boiling point this weekend	1657858	1471971470519	1471971470597	n	78
3292	34749	Spanish football reaches boiling point this weekend.	Spanish football reaches boiling point this weekend	1657863	1471971470918	1471971470997	d	68
3292	34768	And leave my school alone.	And leave my school alone.	1658042	1471971475220	1471971475733	SHIFT	16
3292	34768	And leave my school alone.	And leave my school alone.	1658045	1471971475670	1471971475764	A	65
3292	34768	And leave my school alone.	And leave my school alone.	1658048	1471971475926	1471971475988	n	78
3292	34768	And leave my school alone.	And leave my school alone.	1658051	1471971476021	1471971476101	d	68
3292	34768	And leave my school alone.	And leave my school alone.	1658054	1471971476134	1471971476197	 	32
3292	34768	And leave my school alone.	And leave my school alone.	1658056	1471971476646	1471971476724	l	76
3292	34768	And leave my school alone.	And leave my school alone.	1658078	1471971476772	1471971476917	e	69
3292	34768	And leave my school alone.	And leave my school alone.	1658081	1471971476870	1471971477013	a	65
3292	34768	And leave my school alone.	And leave my school alone.	1658083	1471971477094	1471971477158	v	86
3292	34768	And leave my school alone.	And leave my school alone.	1658086	1471971477205	1471971477285	e	69
3292	34768	And leave my school alone.	And leave my school alone.	1658088	1471971477286	1471971477349	 	32
3292	34768	And leave my school alone.	And leave my school alone.	1658144	1471971477527	1471971477590	m	77
3292	34768	And leave my school alone.	And leave my school alone.	1658146	1471971477764	1471971477828	y	89
3292	34768	And leave my school alone.	And leave my school alone.	1658148	1471971477845	1471971477926	 	32
3292	34768	And leave my school alone.	And leave my school alone.	1658150	1471971478262	1471971478324	s	83
3292	34768	And leave my school alone.	And leave my school alone.	1658152	1471971478471	1471971478533	c	67
3292	34768	And leave my school alone.	And leave my school alone.	1658185	1471971478805	1471971478853	h	72
3292	34768	And leave my school alone.	And leave my school alone.	1658188	1471971479077	1471971479125	o	79
3292	34768	And leave my school alone.	And leave my school alone.	1658192	1471971479221	1471971479284	o	79
3292	34768	And leave my school alone.	And leave my school alone.	1658196	1471971479381	1471971479478	l	76
3292	34768	And leave my school alone.	And leave my school alone.	1658257	1471971479446	1471971479589	 	32
3292	34768	And leave my school alone.	And leave my school alone.	1658258	1471971480215	1471971480309	a	65
3292	34768	And leave my school alone.	And leave my school alone.	1658259	1471971480293	1471971480357	l	76
3292	34768	And leave my school alone.	And leave my school alone.	1658261	1471971480453	1471971480517	o	79
3292	34768	And leave my school alone.	And leave my school alone.	1658263	1471971480614	1471971480677	n	78
3292	34768	And leave my school alone.	And leave my school alone.	1658265	1471971480823	1471971480901	e	69
3292	34768	And leave my school alone.	And leave my school alone.	1658306	1471971481126	1471971481190	,	188
3292	34768	And leave my school alone.	And leave my school alone.	1658307	1471971481574	1471971481636	BKSP	8
3292	34768	And leave my school alone.	And leave my school alone.	1658308	1471971481781	1471971481845	.	190
3292	34781	We only have the power of persuasion.	We only have the power of persuation.	1658608	1471971482246	1471971488053	SHIFT	16
3292	34781	We only have the power of persuasion.	We only have the power of persuation.	1658606	1471971487846	1471971487924	W	87
3292	34781	We only have the power of persuasion.	We only have the power of persuation.	1658610	1471971488022	1471971488084	E	69
3292	34781	We only have the power of persuasion.	We only have the power of persuation.	1658613	1471971488485	1471971488580	BKSP	8
3292	34781	We only have the power of persuasion.	We only have the power of persuation.	1658616	1471971489109	1471971489142	e	69
3292	34781	We only have the power of persuasion.	We only have the power of persuation.	1658620	1471971489188	1471971489252	 	32
3292	34781	We only have the power of persuasion.	We only have the power of persuation.	1658623	1471971489925	1471971489972	o	79
3292	34781	We only have the power of persuasion.	We only have the power of persuation.	1658679	1471971490100	1471971490164	n	78
3292	34781	We only have the power of persuasion.	We only have the power of persuation.	1658681	1471971490276	1471971490339	l	76
3292	34781	We only have the power of persuasion.	We only have the power of persuation.	1658685	1471971490468	1471971490547	y	89
3292	34781	We only have the power of persuasion.	We only have the power of persuation.	1658688	1471971490580	1471971490723	 	32
3292	34781	We only have the power of persuasion.	We only have the power of persuation.	1658689	1471971491380	1471971491467	h	72
3292	34781	We only have the power of persuasion.	We only have the power of persuation.	1658754	1471971491469	1471971491540	a	65
3292	34781	We only have the power of persuasion.	We only have the power of persuation.	1658755	1471971491589	1471971491653	v	86
3292	34781	We only have the power of persuasion.	We only have the power of persuation.	1658756	1471971491686	1471971491780	e	69
3292	34781	We only have the power of persuasion.	We only have the power of persuation.	1658757	1471971491780	1471971491843	 	32
3292	34781	We only have the power of persuasion.	We only have the power of persuation.	1658759	1471971493091	1471971493155	t	84
3292	34781	We only have the power of persuasion.	We only have the power of persuation.	1658790	1471971493268	1471971493333	h	72
3292	34781	We only have the power of persuasion.	We only have the power of persuation.	1658792	1471971493381	1471971493459	e	69
3292	34781	We only have the power of persuasion.	We only have the power of persuation.	1658795	1471971493444	1471971493524	 	32
3292	34781	We only have the power of persuasion.	We only have the power of persuation.	1658799	1471971493781	1471971493845	p	80
3292	34781	We only have the power of persuasion.	We only have the power of persuation.	1658805	1471971493925	1471971494004	o	79
3292	34781	We only have the power of persuasion.	We only have the power of persuation.	1658846	1471971494148	1471971494293	w	87
3292	34781	We only have the power of persuasion.	We only have the power of persuation.	1658847	1471971494259	1471971494341	e	69
3292	34781	We only have the power of persuasion.	We only have the power of persuation.	1658849	1471971494453	1471971494532	r	82
3292	34781	We only have the power of persuasion.	We only have the power of persuation.	1658854	1471971495141	1471971495204	 	32
3292	34781	We only have the power of persuasion.	We only have the power of persuation.	1658861	1471971495620	1471971495699	o	79
3292	34781	We only have the power of persuasion.	We only have the power of persuation.	1658934	1471971495875	1471971495955	f	70
3292	34781	We only have the power of persuasion.	We only have the power of persuation.	1658935	1471971495956	1471971496036	 	32
3292	34781	We only have the power of persuasion.	We only have the power of persuation.	1658936	1471971496789	1471971496884	p	80
3292	34781	We only have the power of persuasion.	We only have the power of persuation.	1658938	1471971497061	1471971497188	e	69
3292	34781	We only have the power of persuasion.	We only have the power of persuation.	1658972	1471971497124	1471971497252	r	82
3292	34781	We only have the power of persuasion.	We only have the power of persuation.	1658976	1471971497381	1471971497508	s	83
3292	34781	We only have the power of persuasion.	We only have the power of persuation.	1658979	1471971497588	1471971497652	u	85
3292	34781	We only have the power of persuasion.	We only have the power of persuation.	1658981	1471971497684	1471971497780	a	65
3292	34781	We only have the power of persuasion.	We only have the power of persuation.	1658983	1471971497958	1471971498036	t	84
3292	34781	We only have the power of persuasion.	We only have the power of persuation.	1658985	1471971498052	1471971498213	i	73
3292	34781	We only have the power of persuasion.	We only have the power of persuation.	1659051	1471971498133	1471971498261	o	79
3292	34781	We only have the power of persuasion.	We only have the power of persuation.	1659052	1471971498308	1471971498404	n	78
3292	34781	We only have the power of persuasion.	We only have the power of persuation.	1659054	1471971499621	1471971499683	.	190
3292	34793	I'm glad you liked it.	I'm glad you liked it.	1659316	1471971503541	1471971503829	SHIFT	16
3292	34793	I'm glad you liked it.	I'm glad you liked it.	1659320	1471971503781	1471971503829	I	73
3292	34793	I'm glad you liked it.	I'm glad you liked it.	1659322	1471971504901	1471971504948	'	222
3292	34793	I'm glad you liked it.	I'm glad you liked it.	1659325	1471971505846	1471971505907	m	77
3292	34793	I'm glad you liked it.	I'm glad you liked it.	1659328	1471971505972	1471971506083	 	32
3292	34793	I'm glad you liked it.	I'm glad you liked it.	1659333	1471971506805	1471971506900	g	71
3292	34793	I'm glad you liked it.	I'm glad you liked it.	1659437	1471971506964	1471971507060	l	76
3292	34793	I'm glad you liked it.	I'm glad you liked it.	1659440	1471971507043	1471971507188	a	65
3292	34793	I'm glad you liked it.	I'm glad you liked it.	1659443	1471971507364	1471971507444	d	68
3292	34793	I'm glad you liked it.	I'm glad you liked it.	1659446	1471971507508	1471971507588	 	32
3292	34793	I'm glad you liked it.	I'm glad you liked it.	1659448	1471971509300	1471971509348	y	89
3292	34793	I'm glad you liked it.	I'm glad you liked it.	1659473	1471971509350	1471971509444	o	79
3292	34793	I'm glad you liked it.	I'm glad you liked it.	1659475	1471971509541	1471971509619	u	85
3292	34793	I'm glad you liked it.	I'm glad you liked it.	1659478	1471971509684	1471971509766	 	32
3292	34793	I'm glad you liked it.	I'm glad you liked it.	1659482	1471971509863	1471971509939	l	76
3292	34793	I'm glad you liked it.	I'm glad you liked it.	1659486	1471971510036	1471971510101	i	73
3292	34793	I'm glad you liked it.	I'm glad you liked it.	1659520	1471971510197	1471971510260	k	75
3292	34793	I'm glad you liked it.	I'm glad you liked it.	1659523	1471971510341	1471971510387	e	69
3292	34793	I'm glad you liked it.	I'm glad you liked it.	1659527	1471971510502	1471971510581	d	68
3292	34793	I'm glad you liked it.	I'm glad you liked it.	1659530	1471971510596	1471971510675	 	32
3292	34793	I'm glad you liked it.	I'm glad you liked it.	1659532	1471971510852	1471971510916	i	73
3292	34793	I'm glad you liked it.	I'm glad you liked it.	1659591	1471971510947	1471971511028	t	84
3292	34793	I'm glad you liked it.	I'm glad you liked it.	1659592	1471971511029	1471971511092	 	32
3292	34793	I'm glad you liked it.	I'm glad you liked it.	1659593	1471971511509	1471971511572	BKSP	8
3292	34793	I'm glad you liked it.	I'm glad you liked it.	1659594	1471971512213	1471971512260	.	190
3292	34808	The second deal in question which needs to be resolved asap.	The second deal in question which needs to be resolved asap.	1659901	1471971517892	1471971518132	SHIFT	16
3292	34808	The second deal in question which needs to be resolved asap.	The second deal in question which needs to be resolved asap.	1659902	1471971518101	1471971518148	T	84
3292	34808	The second deal in question which needs to be resolved asap.	The second deal in question which needs to be resolved asap.	1659903	1471971518292	1471971518356	h	72
3292	34808	The second deal in question which needs to be resolved asap.	The second deal in question which needs to be resolved asap.	1659904	1471971518388	1471971518452	e	69
3292	34808	The second deal in question which needs to be resolved asap.	The second deal in question which needs to be resolved asap.	1659906	1471971518467	1471971518549	 	32
3292	34808	The second deal in question which needs to be resolved asap.	The second deal in question which needs to be resolved asap.	1659908	1471971518676	1471971518790	s	83
3292	34808	The second deal in question which needs to be resolved asap.	The second deal in question which needs to be resolved asap.	1659945	1471971518794	1471971518868	e	69
3292	34808	The second deal in question which needs to be resolved asap.	The second deal in question which needs to be resolved asap.	1659947	1471971519060	1471971519124	c	67
3292	34808	The second deal in question which needs to be resolved asap.	The second deal in question which needs to be resolved asap.	1659951	1471971519267	1471971519332	o	79
3292	34808	The second deal in question which needs to be resolved asap.	The second deal in question which needs to be resolved asap.	1659954	1471971519446	1471971519507	n	78
3292	34808	The second deal in question which needs to be resolved asap.	The second deal in question which needs to be resolved asap.	1659957	1471971519588	1471971519668	g	71
3292	34808	The second deal in question which needs to be resolved asap.	The second deal in question which needs to be resolved asap.	1660032	1471971519684	1471971519748	 	32
3292	34808	The second deal in question which needs to be resolved asap.	The second deal in question which needs to be resolved asap.	1660033	1471971520036	1471971520084	BKSP	8
3292	34808	The second deal in question which needs to be resolved asap.	The second deal in question which needs to be resolved asap.	1660036	1471971520164	1471971520244	BKSP	8
3292	34808	The second deal in question which needs to be resolved asap.	The second deal in question which needs to be resolved asap.	1660039	1471971520228	1471971520356	f	70
3292	34808	The second deal in question which needs to be resolved asap.	The second deal in question which needs to be resolved asap.	1660043	1471971520356	1471971520453	 	32
3292	34808	The second deal in question which needs to be resolved asap.	The second deal in question which needs to be resolved asap.	1660047	1471971520758	1471971520804	BKSP	8
3292	34808	The second deal in question which needs to be resolved asap.	The second deal in question which needs to be resolved asap.	1660053	1471971520884	1471971520948	BKSP	8
3292	34808	The second deal in question which needs to be resolved asap.	The second deal in question which needs to be resolved asap.	1660057	1471971521380	1471971521429	d	68
3292	34808	The second deal in question which needs to be resolved asap.	The second deal in question which needs to be resolved asap.	1660060	1471971521461	1471971521539	 	32
3292	34808	The second deal in question which needs to be resolved asap.	The second deal in question which needs to be resolved asap.	1660119	1471971522539	1471971522611	d	68
3292	34808	The second deal in question which needs to be resolved asap.	The second deal in question which needs to be resolved asap.	1660122	1471971522741	1471971522851	e	69
3292	34808	The second deal in question which needs to be resolved asap.	The second deal in question which needs to be resolved asap.	1660126	1471971522820	1471971522949	a	65
3292	34808	The second deal in question which needs to be resolved asap.	The second deal in question which needs to be resolved asap.	1660131	1471971522997	1471971523108	l	76
3292	34808	The second deal in question which needs to be resolved asap.	The second deal in question which needs to be resolved asap.	1660241	1471971523092	1471971523204	 	32
3292	34808	The second deal in question which needs to be resolved asap.	The second deal in question which needs to be resolved asap.	1660245	1471971523924	1471971524036	i	73
3292	34808	The second deal in question which needs to be resolved asap.	The second deal in question which needs to be resolved asap.	1660249	1471971524069	1471971524164	n	78
3292	34808	The second deal in question which needs to be resolved asap.	The second deal in question which needs to be resolved asap.	1660253	1471971524101	1471971524244	 	32
3292	34808	The second deal in question which needs to be resolved asap.	The second deal in question which needs to be resolved asap.	1660258	1471971524838	1471971524915	q	81
3292	34808	The second deal in question which needs to be resolved asap.	The second deal in question which needs to be resolved asap.	1660264	1471971525029	1471971525092	u	85
3292	34808	The second deal in question which needs to be resolved asap.	The second deal in question which needs to be resolved asap.	1660299	1471971525236	1471971525364	e	69
3292	34808	The second deal in question which needs to be resolved asap.	The second deal in question which needs to be resolved asap.	1660304	1471971525333	1471971525428	s	83
3292	34808	The second deal in question which needs to be resolved asap.	The second deal in question which needs to be resolved asap.	1660308	1471971525589	1471971525651	t	84
3292	34808	The second deal in question which needs to be resolved asap.	The second deal in question which needs to be resolved asap.	1660312	1471971525684	1471971525828	i	73
3292	34808	The second deal in question which needs to be resolved asap.	The second deal in question which needs to be resolved asap.	1660418	1471971525764	1471971525892	o	79
3292	34808	The second deal in question which needs to be resolved asap.	The second deal in question which needs to be resolved asap.	1660421	1471971525941	1471971526035	n	78
3292	34808	The second deal in question which needs to be resolved asap.	The second deal in question which needs to be resolved asap.	1660424	1471971526500	1471971526580	 	32
3292	34808	The second deal in question which needs to be resolved asap.	The second deal in question which needs to be resolved asap.	1660426	1471971527062	1471971527155	w	87
3292	34808	The second deal in question which needs to be resolved asap.	The second deal in question which needs to be resolved asap.	1660428	1471971527172	1471971527300	h	72
3292	34808	The second deal in question which needs to be resolved asap.	The second deal in question which needs to be resolved asap.	1660431	1471971527300	1471971527446	i	73
3292	34808	The second deal in question which needs to be resolved asap.	The second deal in question which needs to be resolved asap.	1660530	1471971527588	1471971527685	c	67
3292	34808	The second deal in question which needs to be resolved asap.	The second deal in question which needs to be resolved asap.	1660533	1471971527685	1471971527781	h	72
3292	34808	The second deal in question which needs to be resolved asap.	The second deal in question which needs to be resolved asap.	1660536	1471971527781	1471971527908	 	32
3292	34808	The second deal in question which needs to be resolved asap.	The second deal in question which needs to be resolved asap.	1660538	1471971528805	1471971528884	n	78
3292	34808	The second deal in question which needs to be resolved asap.	The second deal in question which needs to be resolved asap.	1660541	1471971528949	1471971529077	e	69
3292	34808	The second deal in question which needs to be resolved asap.	The second deal in question which needs to be resolved asap.	1660604	1471971529188	1471971529267	s	83
3292	34808	The second deal in question which needs to be resolved asap.	The second deal in question which needs to be resolved asap.	1660607	1471971529557	1471971529636	BKSP	8
3292	34808	The second deal in question which needs to be resolved asap.	The second deal in question which needs to be resolved asap.	1660610	1471971529781	1471971529893	e	69
3292	34808	The second deal in question which needs to be resolved asap.	The second deal in question which needs to be resolved asap.	1660612	1471971530324	1471971530485	d	68
3292	34808	The second deal in question which needs to be resolved asap.	The second deal in question which needs to be resolved asap.	1660618	1471971530420	1471971530565	s	83
3292	34808	The second deal in question which needs to be resolved asap.	The second deal in question which needs to be resolved asap.	1660620	1471971530566	1471971530692	 	32
3292	34808	The second deal in question which needs to be resolved asap.	The second deal in question which needs to be resolved asap.	1660663	1471971531268	1471971531400	t	84
3292	34808	The second deal in question which needs to be resolved asap.	The second deal in question which needs to be resolved asap.	1660668	1471971531381	1471971531459	o	79
3292	34808	The second deal in question which needs to be resolved asap.	The second deal in question which needs to be resolved asap.	1660672	1471971531413	1471971531541	 	32
3292	34808	The second deal in question which needs to be resolved asap.	The second deal in question which needs to be resolved asap.	1660677	1471971531605	1471971531700	b	66
3292	34808	The second deal in question which needs to be resolved asap.	The second deal in question which needs to be resolved asap.	1660680	1471971531700	1471971531799	e	69
3292	34808	The second deal in question which needs to be resolved asap.	The second deal in question which needs to be resolved asap.	1660798	1471971531782	1471971531860	 	32
3292	34808	The second deal in question which needs to be resolved asap.	The second deal in question which needs to be resolved asap.	1660800	1471971532678	1471971532787	r	82
3292	34808	The second deal in question which needs to be resolved asap.	The second deal in question which needs to be resolved asap.	1660805	1471971532724	1471971532835	e	69
3292	34808	The second deal in question which needs to be resolved asap.	The second deal in question which needs to be resolved asap.	1660810	1471971532964	1471971533061	s	83
3292	34808	The second deal in question which needs to be resolved asap.	The second deal in question which needs to be resolved asap.	1660816	1471971533173	1471971533268	o	79
3292	34808	The second deal in question which needs to be resolved asap.	The second deal in question which needs to be resolved asap.	1660824	1471971534085	1471971534148	l	76
3292	34808	The second deal in question which needs to be resolved asap.	The second deal in question which needs to be resolved asap.	1660929	1471971534501	1471971534564	v	86
3292	34808	The second deal in question which needs to be resolved asap.	The second deal in question which needs to be resolved asap.	1660931	1471971534628	1471971534675	e	69
3292	34808	The second deal in question which needs to be resolved asap.	The second deal in question which needs to be resolved asap.	1660934	1471971534820	1471971534883	d	68
3292	34808	The second deal in question which needs to be resolved asap.	The second deal in question which needs to be resolved asap.	1660937	1471971534900	1471971534979	 	32
3292	34808	The second deal in question which needs to be resolved asap.	The second deal in question which needs to be resolved asap.	1660940	1471971536228	1471971536389	a	65
3292	34808	The second deal in question which needs to be resolved asap.	The second deal in question which needs to be resolved asap.	1661022	1471971536394	1471971536500	s	83
3292	34808	The second deal in question which needs to be resolved asap.	The second deal in question which needs to be resolved asap.	1661026	1471971536725	1471971536837	a	65
3292	34808	The second deal in question which needs to be resolved asap.	The second deal in question which needs to be resolved asap.	1661032	1471971536997	1471971537076	p	80
3292	34808	The second deal in question which needs to be resolved asap.	The second deal in question which needs to be resolved asap.	1661036	1471971537476	1471971537540	.	190
3292	34842	Please call me if you see any problems.	Please call me if you see any problems.	1661427	1471971542053	1471971542420	SHIFT	16
3292	34842	Please call me if you see any problems.	Please call me if you see any problems.	1661431	1471971542404	1471971542468	P	80
3292	34842	Please call me if you see any problems.	Please call me if you see any problems.	1661434	1471971542580	1471971542660	l	76
3292	34842	Please call me if you see any problems.	Please call me if you see any problems.	1661436	1471971542804	1471971542997	e	69
3292	34842	Please call me if you see any problems.	Please call me if you see any problems.	1661438	1471971542916	1471971543077	s	83
3292	34842	Please call me if you see any problems.	Please call me if you see any problems.	1661440	1471971543861	1471971543939	BKSP	8
3292	34842	Please call me if you see any problems.	Please call me if you see any problems.	1661444	1471971544052	1471971544163	a	65
3292	34842	Please call me if you see any problems.	Please call me if you see any problems.	1661509	1471971544437	1471971544532	s	83
3292	34842	Please call me if you see any problems.	Please call me if you see any problems.	1661512	1471971544485	1471971544612	e	69
3292	34842	Please call me if you see any problems.	Please call me if you see any problems.	1661515	1471971544740	1471971544836	 	32
3292	34842	Please call me if you see any problems.	Please call me if you see any problems.	1661521	1471971545494	1471971545572	c	67
3292	34842	Please call me if you see any problems.	Please call me if you see any problems.	1661562	1471971545539	1471971545667	a	65
3292	34842	Please call me if you see any problems.	Please call me if you see any problems.	1661563	1471971545716	1471971545763	l	76
3292	34842	Please call me if you see any problems.	Please call me if you see any problems.	1661565	1471971545846	1471971545956	l	76
3292	34842	Please call me if you see any problems.	Please call me if you see any problems.	1661566	1471971545924	1471971546004	 	32
3292	34842	Please call me if you see any problems.	Please call me if you see any problems.	1661567	1471971546067	1471971546148	m	77
3292	34842	Please call me if you see any problems.	Please call me if you see any problems.	1661569	1471971546181	1471971546276	e	69
3292	34842	Please call me if you see any problems.	Please call me if you see any problems.	1661668	1471971546244	1471971546340	 	32
3292	34842	Please call me if you see any problems.	Please call me if you see any problems.	1661673	1471971546821	1471971546899	i	73
3292	34842	Please call me if you see any problems.	Please call me if you see any problems.	1661678	1471971547029	1471971547108	f	70
3292	34842	Please call me if you see any problems.	Please call me if you see any problems.	1661683	1471971547109	1471971547173	 	32
3292	34842	Please call me if you see any problems.	Please call me if you see any problems.	1661686	1471971548339	1471971548403	y	89
3292	34842	Please call me if you see any problems.	Please call me if you see any problems.	1661689	1471971548404	1471971548532	o	79
3292	34842	Please call me if you see any problems.	Please call me if you see any problems.	1661710	1471971548613	1471971548725	u	85
3292	34842	Please call me if you see any problems.	Please call me if you see any problems.	1661714	1471971548726	1471971548820	 	32
3292	34842	Please call me if you see any problems.	Please call me if you see any problems.	1661720	1471971548885	1471971548996	s	83
3292	34842	Please call me if you see any problems.	Please call me if you see any problems.	1661725	1471971548964	1471971549045	e	69
3292	34842	Please call me if you see any problems.	Please call me if you see any problems.	1661728	1471971549142	1471971549236	e	69
3292	34842	Please call me if you see any problems.	Please call me if you see any problems.	1661763	1471971549268	1471971549333	 	32
3292	34842	Please call me if you see any problems.	Please call me if you see any problems.	1661767	1471971549413	1471971549508	a	65
3292	34842	Please call me if you see any problems.	Please call me if you see any problems.	1661771	1471971549524	1471971549603	n	78
3292	34842	Please call me if you see any problems.	Please call me if you see any problems.	1661776	1471971549749	1471971549811	y	89
3292	34842	Please call me if you see any problems.	Please call me if you see any problems.	1661783	1471971549860	1471971549972	 	32
3292	34842	Please call me if you see any problems.	Please call me if you see any problems.	1661948	1471971550742	1471971550836	p	80
3292	34842	Please call me if you see any problems.	Please call me if you see any problems.	1661957	1471971551603	1471971551685	r	82
3292	34842	Please call me if you see any problems.	Please call me if you see any problems.	1661967	1471971551733	1471971551812	o	79
3292	34842	Please call me if you see any problems.	Please call me if you see any problems.	1661976	1471971551956	1471971552021	b	66
3292	34842	Please call me if you see any problems.	Please call me if you see any problems.	1661985	1471971552165	1471971552260	l	76
3292	34842	Please call me if you see any problems.	Please call me if you see any problems.	1662090	1471971552340	1471971552437	e	69
3292	34842	Please call me if you see any problems.	Please call me if you see any problems.	1662093	1471971552580	1471971552659	m	77
3292	34842	Please call me if you see any problems.	Please call me if you see any problems.	1662101	1471971552740	1471971552820	s	83
3292	34842	Please call me if you see any problems.	Please call me if you see any problems.	1662104	1471971553621	1471971553699	.	190
3292	34863	Steve Gilbert is working on this.	Steve Gilbert is working on this.	1662366	1471971556340	1471971557573	SHIFT	16
3292	34863	Steve Gilbert is working on this.	Steve Gilbert is working on this.	1662369	1471971557541	1471971557620	S	83
3292	34863	Steve Gilbert is working on this.	Steve Gilbert is working on this.	1662374	1471971557876	1471971557940	t	84
3292	34863	Steve Gilbert is working on this.	Steve Gilbert is working on this.	1662378	1471971558101	1471971558179	e	69
3292	34863	Steve Gilbert is working on this.	Steve Gilbert is working on this.	1662383	1471971558388	1471971558452	v	86
3292	34863	Steve Gilbert is working on this.	Steve Gilbert is working on this.	1662389	1471971558500	1471971558580	e	69
3292	34863	Steve Gilbert is working on this.	Steve Gilbert is working on this.	1662486	1471971559093	1471971559188	 	32
3292	34863	Steve Gilbert is working on this.	Steve Gilbert is working on this.	1662491	1471971559268	1471971559604	SHIFT	16
3292	34863	Steve Gilbert is working on this.	Steve Gilbert is working on this.	1662496	1471971559525	1471971559620	G	71
3292	34863	Steve Gilbert is working on this.	Steve Gilbert is working on this.	1662499	1471971561077	1471971561140	i	73
3292	34863	Steve Gilbert is working on this.	Steve Gilbert is working on this.	1662504	1471971561266	1471971561332	l	76
3292	34863	Steve Gilbert is working on this.	Steve Gilbert is working on this.	1662509	1471971561524	1471971561605	b	66
3292	34863	Steve Gilbert is working on this.	Steve Gilbert is working on this.	1662559	1471971561653	1471971561747	e	69
3292	34863	Steve Gilbert is working on this.	Steve Gilbert is working on this.	1662563	1471971561877	1471971561956	r	82
3292	34863	Steve Gilbert is working on this.	Steve Gilbert is working on this.	1662567	1471971562052	1471971562115	t	84
3292	34863	Steve Gilbert is working on this.	Steve Gilbert is working on this.	1662570	1471971562613	1471971562708	 	32
3292	34863	Steve Gilbert is working on this.	Steve Gilbert is working on this.	1662573	1471971562997	1471971563059	i	73
3292	34863	Steve Gilbert is working on this.	Steve Gilbert is working on this.	1662586	1471971563092	1471971563172	s	83
3292	34863	Steve Gilbert is working on this.	Steve Gilbert is working on this.	1662588	1471971563173	1471971563251	 	32
3292	34863	Steve Gilbert is working on this.	Steve Gilbert is working on this.	1662590	1471971563332	1471971563427	q	87
3292	34863	Steve Gilbert is working on this.	Steve Gilbert is working on this.	1662592	1471971563478	1471971563572	o	79
3292	34863	Steve Gilbert is working on this.	Steve Gilbert is working on this.	1662637	1471971563973	1471971564052	r	82
3292	34863	Steve Gilbert is working on this.	Steve Gilbert is working on this.	1662638	1471971564084	1471971564165	k	75
3292	34863	Steve Gilbert is working on this.	Steve Gilbert is working on this.	1662639	1471971564245	1471971564308	i	73
3292	34863	Steve Gilbert is working on this.	Steve Gilbert is working on this.	1662640	1471971564389	1471971564468	n	78
3292	34863	Steve Gilbert is working on this.	Steve Gilbert is working on this.	1662642	1471971564468	1471971564548	g	71
3292	34863	Steve Gilbert is working on this.	Steve Gilbert is working on this.	1662776	1471971564564	1471971564661	 	32
3292	34863	Steve Gilbert is working on this.	Steve Gilbert is working on this.	1662782	1471971565028	1471971565076	BKSP	8
3292	34863	Steve Gilbert is working on this.	Steve Gilbert is working on this.	1662786	1471971565172	1471971565220	BKSP	8
3292	34863	Steve Gilbert is working on this.	Steve Gilbert is working on this.	1662788	1471971565316	1471971565381	BKSP	8
3292	34863	Steve Gilbert is working on this.	Steve Gilbert is working on this.	1662791	1471971565462	1471971565524	BKSP	8
3292	34863	Steve Gilbert is working on this.	Steve Gilbert is working on this.	1662795	1471971565604	1471971565668	BKSP	8
3292	34863	Steve Gilbert is working on this.	Steve Gilbert is working on this.	1662802	1471971565765	1471971565811	BKSP	8
3292	34863	Steve Gilbert is working on this.	Steve Gilbert is working on this.	1662809	1471971565909	1471971565956	BKSP	8
3292	34863	Steve Gilbert is working on this.	Steve Gilbert is working on this.	1662815	1471971566068	1471971566116	BKSP	8
3292	34863	Steve Gilbert is working on this.	Steve Gilbert is working on this.	1662823	1471971566660	1471971566755	o	79
3292	34863	Steve Gilbert is working on this.	Steve Gilbert is working on this.	1662828	1471971567124	1471971567204	r	82
3292	34863	Steve Gilbert is working on this.	Steve Gilbert is working on this.	1662832	1471971567428	1471971567460	k	75
3292	34863	Steve Gilbert is working on this.	Steve Gilbert is working on this.	1662836	1471971567556	1471971567638	i	73
3292	34863	Steve Gilbert is working on this.	Steve Gilbert is working on this.	1662883	1471971567765	1471971567828	n	78
3292	34863	Steve Gilbert is working on this.	Steve Gilbert is working on this.	1662884	1471971567844	1471971567925	g	71
3292	34863	Steve Gilbert is working on this.	Steve Gilbert is working on this.	1662886	1471971567941	1471971568019	 	32
3292	34863	Steve Gilbert is working on this.	Steve Gilbert is working on this.	1662889	1471971568755	1471971568820	o	79
3292	34863	Steve Gilbert is working on this.	Steve Gilbert is working on this.	1662893	1471971568934	1471971569012	n	78
3292	34863	Steve Gilbert is working on this.	Steve Gilbert is working on this.	1663013	1471971568996	1471971569091	 	32
3292	34863	Steve Gilbert is working on this.	Steve Gilbert is working on this.	1663016	1471971569428	1471971569524	t	84
3292	34863	Steve Gilbert is working on this.	Steve Gilbert is working on this.	1663021	1471971569507	1471971569603	h	72
3292	34863	Steve Gilbert is working on this.	Steve Gilbert is working on this.	1663025	1471971569670	1471971569781	i	73
3292	34863	Steve Gilbert is working on this.	Steve Gilbert is working on this.	1663030	1471971569813	1471971569908	s	83
3292	34863	Steve Gilbert is working on this.	Steve Gilbert is working on this.	1663037	1471971570453	1471971570516	.	190
3292	34880	But it takes time.	But it takes time.	1663310	1471971573525	1471971574148	SHIFT	16
3292	34880	But it takes time.	But it takes time.	1663312	1471971574117	1471971574196	B	66
3292	34880	But it takes time.	But it takes time.	1663315	1471971574421	1471971574484	u	85
3292	34880	But it takes time.	But it takes time.	1663317	1471971574660	1471971574740	t	84
3292	34880	But it takes time.	But it takes time.	1663319	1471971574724	1471971574804	 	32
3292	34880	But it takes time.	But it takes time.	1663321	1471971574916	1471971574996	i	73
3292	34880	But it takes time.	But it takes time.	1663347	1471971575140	1471971575236	t	84
3292	34880	But it takes time.	But it takes time.	1663351	1471971575220	1471971575299	 	32
3292	34880	But it takes time.	But it takes time.	1663356	1471971575493	1471971575619	t	84
3292	34880	But it takes time.	But it takes time.	1663361	1471971575588	1471971575718	a	65
3292	34880	But it takes time.	But it takes time.	1663365	1471971575719	1471971575811	k	75
3292	34880	But it takes time.	But it takes time.	1663395	1471971575845	1471971576020	e	69
3292	34880	But it takes time.	But it takes time.	1663397	1471971576004	1471971576132	s	83
3292	34880	But it takes time.	But it takes time.	1663398	1471971576181	1471971576275	 	32
3292	34880	But it takes time.	But it takes time.	1663400	1471971576692	1471971576789	t	84
3292	34880	But it takes time.	But it takes time.	1663402	1471971576789	1471971576852	i	73
3292	34880	But it takes time.	But it takes time.	1663452	1471971576964	1471971577043	m	77
3292	34880	But it takes time.	But it takes time.	1663457	1471971577060	1471971577140	e	69
3292	34880	But it takes time.	But it takes time.	1663461	1471971577684	1471971577749	.	190
3292	34888	I think Tim wants to move quickly.	i think tim wants to move quickly	1663775	1471971582181	1471971582469	SHIFT	16
3292	34888	I think Tim wants to move quickly.	i think tim wants to move quickly	1663778	1471971582470	1471971582548	i	73
3292	34888	I think Tim wants to move quickly.	i think tim wants to move quickly	1663784	1471971582645	1471971582739	 	32
3292	34888	I think Tim wants to move quickly.	i think tim wants to move quickly	1663787	1471971582837	1471971582916	t	84
3292	34888	I think Tim wants to move quickly.	i think tim wants to move quickly	1663789	1471971582916	1471971582981	h	72
3292	34888	I think Tim wants to move quickly.	i think tim wants to move quickly	1663791	1471971583061	1471971583141	i	73
3292	34888	I think Tim wants to move quickly.	i think tim wants to move quickly	1663831	1471971583221	1471971583300	n	78
3292	34888	I think Tim wants to move quickly.	i think tim wants to move quickly	1663836	1471971583414	1471971583508	k	75
3292	34888	I think Tim wants to move quickly.	i think tim wants to move quickly	1663842	1471971583525	1471971583636	 	32
3292	34888	I think Tim wants to move quickly.	i think tim wants to move quickly	1663849	1471971583956	1471971584069	t	84
3292	34888	I think Tim wants to move quickly.	i think tim wants to move quickly	1663853	1471971584070	1471971584131	i	73
3292	34888	I think Tim wants to move quickly.	i think tim wants to move quickly	1663872	1471971584245	1471971584324	m	77
3292	34888	I think Tim wants to move quickly.	i think tim wants to move quickly	1663874	1471971584308	1471971584421	 	32
3292	34888	I think Tim wants to move quickly.	i think tim wants to move quickly	1663877	1471971584438	1471971584612	w	87
3292	34888	I think Tim wants to move quickly.	i think tim wants to move quickly	1663879	1471971584564	1471971584677	a	65
3292	34888	I think Tim wants to move quickly.	i think tim wants to move quickly	1663882	1471971584709	1471971584788	n	78
3292	34888	I think Tim wants to move quickly.	i think tim wants to move quickly	1663917	1471971584966	1471971585027	t	84
3292	34888	I think Tim wants to move quickly.	i think tim wants to move quickly	1663919	1471971585077	1471971585156	s	83
3292	34888	I think Tim wants to move quickly.	i think tim wants to move quickly	1663922	1471971585157	1471971585236	 	32
3292	34888	I think Tim wants to move quickly.	i think tim wants to move quickly	1663925	1471971585494	1471971585572	t	84
3292	34888	I think Tim wants to move quickly.	i think tim wants to move quickly	1663929	1471971585573	1471971585652	o	79
3292	34888	I think Tim wants to move quickly.	i think tim wants to move quickly	1663975	1471971585620	1471971585732	 	32
3292	34888	I think Tim wants to move quickly.	i think tim wants to move quickly	1663978	1471971585798	1471971585892	m	77
3292	34888	I think Tim wants to move quickly.	i think tim wants to move quickly	1663983	1471971585939	1471971586037	o	79
3292	34888	I think Tim wants to move quickly.	i think tim wants to move quickly	1663988	1471971586291	1471971586324	b	66
3292	34888	I think Tim wants to move quickly.	i think tim wants to move quickly	1663993	1471971586581	1471971586660	BKSP	8
3292	34888	I think Tim wants to move quickly.	i think tim wants to move quickly	1663998	1471971586691	1471971586836	v	86
3292	34888	I think Tim wants to move quickly.	i think tim wants to move quickly	1664141	1471971586789	1471971586931	e	69
3292	34888	I think Tim wants to move quickly.	i think tim wants to move quickly	1664142	1471971586947	1471971587012	 	32
3292	34888	I think Tim wants to move quickly.	i think tim wants to move quickly	1664144	1471971587941	1471971588197	SHIFT	16
3292	34888	I think Tim wants to move quickly.	i think tim wants to move quickly	1664149	1471971588773	1471971588899	q	81
3292	34888	I think Tim wants to move quickly.	i think tim wants to move quickly	1664154	1471971588964	1471971589027	u	85
3292	34888	I think Tim wants to move quickly.	i think tim wants to move quickly	1664161	1471971589141	1471971589220	i	73
3292	34888	I think Tim wants to move quickly.	i think tim wants to move quickly	1664168	1471971589445	1471971589556	c	67
3292	34888	I think Tim wants to move quickly.	i think tim wants to move quickly	1664199	1471971589686	1471971589748	k	75
3292	34888	I think Tim wants to move quickly.	i think tim wants to move quickly	1664204	1471971589876	1471971589971	l	76
3292	34888	I think Tim wants to move quickly.	i think tim wants to move quickly	1664212	1471971590100	1471971590179	y	89
3292	34905	Need before board meeting.	Need before board meeting.	1664513	1471971593909	1471971594611	SHIFT	16
3292	34905	Need before board meeting.	Need before board meeting.	1664515	1471971594564	1471971594628	N	78
3292	34905	Need before board meeting.	Need before board meeting.	1664516	1471971594804	1471971594867	e	69
3292	34905	Need before board meeting.	Need before board meeting.	1664517	1471971594964	1471971595011	e	69
3292	34905	Need before board meeting.	Need before board meeting.	1664518	1471971595142	1471971595220	d	68
3292	34905	Need before board meeting.	Need before board meeting.	1664519	1471971595236	1471971595316	 	32
3292	34905	Need before board meeting.	Need before board meeting.	1664600	1471971595605	1471971595684	b	66
3292	34905	Need before board meeting.	Need before board meeting.	1664603	1471971595942	1471971596004	e	69
3292	34905	Need before board meeting.	Need before board meeting.	1664606	1471971596213	1471971596324	f	70
3292	34905	Need before board meeting.	Need before board meeting.	1664610	1471971596741	1471971596851	o	79
3292	34905	Need before board meeting.	Need before board meeting.	1664663	1471971596836	1471971596948	r	82
3292	34905	Need before board meeting.	Need before board meeting.	1664667	1471971596900	1471971597012	e	69
3292	34905	Need before board meeting.	Need before board meeting.	1664670	1471971597013	1471971597092	 	32
3292	34905	Need before board meeting.	Need before board meeting.	1664673	1471971597541	1471971597620	b	66
3292	34905	Need before board meeting.	Need before board meeting.	1664677	1471971597637	1471971597732	o	79
3292	34905	Need before board meeting.	Need before board meeting.	1664681	1471971598149	1471971598356	a	65
3292	34905	Need before board meeting.	Need before board meeting.	1664811	1471971599539	1471971599637	BKSP	8
3292	34905	Need before board meeting.	Need before board meeting.	1664814	1471971599717	1471971599779	BKSP	8
3292	34905	Need before board meeting.	Need before board meeting.	1664817	1471971600435	1471971600515	o	79
3292	34905	Need before board meeting.	Need before board meeting.	1664820	1471971600693	1471971600788	a	65
3292	34905	Need before board meeting.	Need before board meeting.	1664824	1471971600932	1471971600995	r	82
3292	34905	Need before board meeting.	Need before board meeting.	1664829	1471971601141	1471971601220	d	68
3292	34905	Need before board meeting.	Need before board meeting.	1664835	1471971601284	1471971601381	 	32
3292	34905	Need before board meeting.	Need before board meeting.	1664893	1471971601669	1471971601748	m	77
3292	34905	Need before board meeting.	Need before board meeting.	1664894	1471971601828	1471971601892	e	69
3292	34905	Need before board meeting.	Need before board meeting.	1664895	1471971602485	1471971602548	e	69
3292	34905	Need before board meeting.	Need before board meeting.	1664896	1471971602740	1471971602837	t	84
3292	34905	Need before board meeting.	Need before board meeting.	1664897	1471971602885	1471971602948	i	73
3292	34905	Need before board meeting.	Need before board meeting.	1664985	1471971603077	1471971603124	n	78
3292	34905	Need before board meeting.	Need before board meeting.	1664991	1471971603252	1471971603336	g	71
3292	34905	Need before board meeting.	Need before board meeting.	1664995	1471971604181	1471971604227	.	190
3292	34923	The meeting came days after the entry into Chernomyrdin's team.	The meeting came days after the entry into Chernomyrdin's team.	1665331	1471971608436	1471971608852	SHIFT	16
3292	34923	The meeting came days after the entry into Chernomyrdin's team.	The meeting came days after the entry into Chernomyrdin's team.	1665333	1471971608789	1471971608852	T	84
3292	34923	The meeting came days after the entry into Chernomyrdin's team.	The meeting came days after the entry into Chernomyrdin's team.	1665337	1471971608996	1471971609060	h	72
3292	34923	The meeting came days after the entry into Chernomyrdin's team.	The meeting came days after the entry into Chernomyrdin's team.	1665341	1471971609140	1471971609219	e	69
3292	34923	The meeting came days after the entry into Chernomyrdin's team.	The meeting came days after the entry into Chernomyrdin's team.	1665345	1471971609221	1471971609284	 	32
3292	34923	The meeting came days after the entry into Chernomyrdin's team.	The meeting came days after the entry into Chernomyrdin's team.	1665348	1471971609620	1471971609700	m	77
3292	34923	The meeting came days after the entry into Chernomyrdin's team.	The meeting came days after the entry into Chernomyrdin's team.	1665373	1471971609796	1471971609844	e	69
3292	34923	The meeting came days after the entry into Chernomyrdin's team.	The meeting came days after the entry into Chernomyrdin's team.	1665379	1471971609940	1471971610005	e	69
3292	34923	The meeting came days after the entry into Chernomyrdin's team.	The meeting came days after the entry into Chernomyrdin's team.	1665385	1471971610037	1471971610099	t	84
3292	34923	The meeting came days after the entry into Chernomyrdin's team.	The meeting came days after the entry into Chernomyrdin's team.	1665390	1471971610277	1471971610356	i	73
3292	34923	The meeting came days after the entry into Chernomyrdin's team.	The meeting came days after the entry into Chernomyrdin's team.	1665393	1471971610484	1471971610564	n	78
3292	34923	The meeting came days after the entry into Chernomyrdin's team.	The meeting came days after the entry into Chernomyrdin's team.	1665438	1471971610596	1471971610676	g	71
3292	34923	The meeting came days after the entry into Chernomyrdin's team.	The meeting came days after the entry into Chernomyrdin's team.	1665442	1471971610692	1471971610756	 	32
3292	34923	The meeting came days after the entry into Chernomyrdin's team.	The meeting came days after the entry into Chernomyrdin's team.	1665447	1471971611333	1471971611443	c	67
3292	34923	The meeting came days after the entry into Chernomyrdin's team.	The meeting came days after the entry into Chernomyrdin's team.	1665448	1471971611395	1471971611523	a	65
3292	34923	The meeting came days after the entry into Chernomyrdin's team.	The meeting came days after the entry into Chernomyrdin's team.	1665453	1471971611588	1471971611652	m	77
3292	34923	The meeting came days after the entry into Chernomyrdin's team.	The meeting came days after the entry into Chernomyrdin's team.	1665490	1471971611747	1471971611828	e	69
3292	34923	The meeting came days after the entry into Chernomyrdin's team.	The meeting came days after the entry into Chernomyrdin's team.	1665493	1471971611845	1471971611925	 	32
3292	34923	The meeting came days after the entry into Chernomyrdin's team.	The meeting came days after the entry into Chernomyrdin's team.	1665497	1471971612118	1471971612228	d	68
3292	34923	The meeting came days after the entry into Chernomyrdin's team.	The meeting came days after the entry into Chernomyrdin's team.	1665501	1471971612180	1471971612291	a	65
3292	34923	The meeting came days after the entry into Chernomyrdin's team.	The meeting came days after the entry into Chernomyrdin's team.	1665504	1471971612390	1471971612436	y	89
3292	34923	The meeting came days after the entry into Chernomyrdin's team.	The meeting came days after the entry into Chernomyrdin's team.	1665539	1471971612485	1471971612564	s	83
3292	34923	The meeting came days after the entry into Chernomyrdin's team.	The meeting came days after the entry into Chernomyrdin's team.	1665543	1471971612580	1471971612644	 	32
3292	34923	The meeting came days after the entry into Chernomyrdin's team.	The meeting came days after the entry into Chernomyrdin's team.	1665547	1471971612949	1471971613027	a	65
3292	34923	The meeting came days after the entry into Chernomyrdin's team.	The meeting came days after the entry into Chernomyrdin's team.	1665551	1471971613140	1471971613204	f	70
3292	34923	The meeting came days after the entry into Chernomyrdin's team.	The meeting came days after the entry into Chernomyrdin's team.	1665557	1471971613365	1471971613427	t	84
3292	34923	The meeting came days after the entry into Chernomyrdin's team.	The meeting came days after the entry into Chernomyrdin's team.	1665608	1471971613476	1471971613604	e	69
3292	34923	The meeting came days after the entry into Chernomyrdin's team.	The meeting came days after the entry into Chernomyrdin's team.	1665612	1471971613572	1471971613667	r	82
3292	34923	The meeting came days after the entry into Chernomyrdin's team.	The meeting came days after the entry into Chernomyrdin's team.	1665615	1471971613716	1471971613797	 	32
3292	34923	The meeting came days after the entry into Chernomyrdin's team.	The meeting came days after the entry into Chernomyrdin's team.	1665619	1471971614405	1471971614454	t	84
3292	34923	The meeting came days after the entry into Chernomyrdin's team.	The meeting came days after the entry into Chernomyrdin's team.	1665622	1471971614549	1471971614628	h	72
3292	34923	The meeting came days after the entry into Chernomyrdin's team.	The meeting came days after the entry into Chernomyrdin's team.	1665640	1471971614660	1471971614724	e	69
3292	34923	The meeting came days after the entry into Chernomyrdin's team.	The meeting came days after the entry into Chernomyrdin's team.	1665643	1471971614740	1471971614820	 	32
3292	34923	The meeting came days after the entry into Chernomyrdin's team.	The meeting came days after the entry into Chernomyrdin's team.	1665645	1471971614949	1471971615012	r	82
3292	34923	The meeting came days after the entry into Chernomyrdin's team.	The meeting came days after the entry into Chernomyrdin's team.	1665647	1471971615252	1471971615347	BKSP	8
3292	34923	The meeting came days after the entry into Chernomyrdin's team.	The meeting came days after the entry into Chernomyrdin's team.	1665650	1471971615397	1471971615476	e	69
3292	34923	The meeting came days after the entry into Chernomyrdin's team.	The meeting came days after the entry into Chernomyrdin's team.	1665653	1471971615540	1471971615620	n	78
3292	34923	The meeting came days after the entry into Chernomyrdin's team.	The meeting came days after the entry into Chernomyrdin's team.	1665728	1471971615878	1471971616020	t	84
3292	34923	The meeting came days after the entry into Chernomyrdin's team.	The meeting came days after the entry into Chernomyrdin's team.	1665730	1471971615989	1471971616118	r	82
3292	34923	The meeting came days after the entry into Chernomyrdin's team.	The meeting came days after the entry into Chernomyrdin's team.	1665735	1471971616149	1471971616228	y	89
3292	34923	The meeting came days after the entry into Chernomyrdin's team.	The meeting came days after the entry into Chernomyrdin's team.	1665740	1471971616276	1471971616372	 	32
3292	34923	The meeting came days after the entry into Chernomyrdin's team.	The meeting came days after the entry into Chernomyrdin's team.	1665743	1471971617221	1471971617299	i	73
3292	34923	The meeting came days after the entry into Chernomyrdin's team.	The meeting came days after the entry into Chernomyrdin's team.	1665890	1471971617364	1471971617462	n	78
3292	34923	The meeting came days after the entry into Chernomyrdin's team.	The meeting came days after the entry into Chernomyrdin's team.	1665891	1471971617526	1471971617588	t	84
3292	34923	The meeting came days after the entry into Chernomyrdin's team.	The meeting came days after the entry into Chernomyrdin's team.	1665894	1471971617572	1471971617684	o	79
3292	34923	The meeting came days after the entry into Chernomyrdin's team.	The meeting came days after the entry into Chernomyrdin's team.	1665897	1471971617732	1471971617829	 	32
3292	34923	The meeting came days after the entry into Chernomyrdin's team.	The meeting came days after the entry into Chernomyrdin's team.	1665900	1471971620531	1471971620790	SHIFT	16
3292	34923	The meeting came days after the entry into Chernomyrdin's team.	The meeting came days after the entry into Chernomyrdin's team.	1665958	1471971620692	1471971620820	C	67
3292	34923	The meeting came days after the entry into Chernomyrdin's team.	The meeting came days after the entry into Chernomyrdin's team.	1665960	1471971620933	1471971621012	h	72
3292	34923	The meeting came days after the entry into Chernomyrdin's team.	The meeting came days after the entry into Chernomyrdin's team.	1665962	1471971621269	1471971621363	e	69
3292	34923	The meeting came days after the entry into Chernomyrdin's team.	The meeting came days after the entry into Chernomyrdin's team.	1665964	1471971621574	1471971621652	r	82
3292	34923	The meeting came days after the entry into Chernomyrdin's team.	The meeting came days after the entry into Chernomyrdin's team.	1665966	1471971622021	1471971622099	n	78
3292	34923	The meeting came days after the entry into Chernomyrdin's team.	The meeting came days after the entry into Chernomyrdin's team.	1665968	1471971622234	1471971622308	o	79
3292	34923	The meeting came days after the entry into Chernomyrdin's team.	The meeting came days after the entry into Chernomyrdin's team.	1666115	1471971623109	1471971623204	m	77
3292	34923	The meeting came days after the entry into Chernomyrdin's team.	The meeting came days after the entry into Chernomyrdin's team.	1666119	1471971624165	1471971624211	y	89
3292	34923	The meeting came days after the entry into Chernomyrdin's team.	The meeting came days after the entry into Chernomyrdin's team.	1666123	1471971624501	1471971624596	r	82
3292	34923	The meeting came days after the entry into Chernomyrdin's team.	The meeting came days after the entry into Chernomyrdin's team.	1666126	1471971625315	1471971625380	d	68
3292	34923	The meeting came days after the entry into Chernomyrdin's team.	The meeting came days after the entry into Chernomyrdin's team.	1666128	1471971625475	1471971625540	i	73
3292	34923	The meeting came days after the entry into Chernomyrdin's team.	The meeting came days after the entry into Chernomyrdin's team.	1666236	1471971625636	1471971625717	n	78
3292	34923	The meeting came days after the entry into Chernomyrdin's team.	The meeting came days after the entry into Chernomyrdin's team.	1666238	1471971626997	1471971627043	'	222
3292	34923	The meeting came days after the entry into Chernomyrdin's team.	The meeting came days after the entry into Chernomyrdin's team.	1666240	1471971627221	1471971627301	s	83
3292	34923	The meeting came days after the entry into Chernomyrdin's team.	The meeting came days after the entry into Chernomyrdin's team.	1666242	1471971628132	1471971628243	 	32
3292	34923	The meeting came days after the entry into Chernomyrdin's team.	The meeting came days after the entry into Chernomyrdin's team.	1666245	1471971628581	1471971628692	t	84
3292	34923	The meeting came days after the entry into Chernomyrdin's team.	The meeting came days after the entry into Chernomyrdin's team.	1666282	1471971628837	1471971628979	e	69
3292	34923	The meeting came days after the entry into Chernomyrdin's team.	The meeting came days after the entry into Chernomyrdin's team.	1666284	1471971628915	1471971629060	a	65
3292	34923	The meeting came days after the entry into Chernomyrdin's team.	The meeting came days after the entry into Chernomyrdin's team.	1666288	1471971629124	1471971629188	m	77
3292	34923	The meeting came days after the entry into Chernomyrdin's team.	The meeting came days after the entry into Chernomyrdin's team.	1666291	1471971629637	1471971629700	.	190
