PARTICIPANT_ID	TEST_SECTION_ID	SENTENCE	USER_INPUT	KEYSTROKE_ID	PRESS_TIME	RELEASE_TIME	LETTER	KEYCODE
3342	35105	Please call me if you have any questions.	Please call me if you have any questions.	1674227	1471971816026	1471971817046	SHIFT	16
3342	35105	Please call me if you have any questions.	Please call me if you have any questions.	1674225	1471971816871	1471971816974		80
3342	35105	Please call me if you have any questions.	Please call me if you have any questions.	1674229	1471971817191	1471971817390		76
3342	35105	Please call me if you have any questions.	Please call me if you have any questions.	1674232	1471971817407	1471971817551		87
3342	35105	Please call me if you have any questions.	Please call me if you have any questions.	1674235	1471971817775	1471971817990		65
3342	35105	Please call me if you have any questions.	Please call me if you have any questions.	1674241	1471971818471	1471971818597		8
3342	35105	Please call me if you have any questions.	Please call me if you have any questions.	1674408	1471971818654	1471971818734		8
3342	35105	Please call me if you have any questions.	Please call me if you have any questions.	1674411	1471971819911	1471971820062		69
3342	35105	Please call me if you have any questions.	Please call me if you have any questions.	1674414	1471971821004	1471971821163		65
3342	35105	Please call me if you have any questions.	Please call me if you have any questions.	1674419	1471971821207	1471971821327		83
3342	35105	Please call me if you have any questions.	Please call me if you have any questions.	1674422	1471971821387	1471971821590		69
3342	35105	Please call me if you have any questions.	Please call me if you have any questions.	1674473	1471971821573	1471971821711		32
3342	35105	Please call me if you have any questions.	Please call me if you have any questions.	1674476	1471971821999	1471971822262		67
3342	35105	Please call me if you have any questions.	Please call me if you have any questions.	1674478	1471971822254	1471971822431		65
3342	35105	Please call me if you have any questions.	Please call me if you have any questions.	1674483	1471971822336	1471971822431		76
3342	35105	Please call me if you have any questions.	Please call me if you have any questions.	1674484	1471971822527	1471971822614		76
3342	35105	Please call me if you have any questions.	Please call me if you have any questions.	1674486	1471971822639	1471971822774		32
3342	35105	Please call me if you have any questions.	Please call me if you have any questions.	1674534	1471971822855	1471971822982		77
3342	35105	Please call me if you have any questions.	Please call me if you have any questions.	1674537	1471971822919	1471971823134		69
3342	35105	Please call me if you have any questions.	Please call me if you have any questions.	1674539	1471971823079	1471971823254		32
3342	35105	Please call me if you have any questions.	Please call me if you have any questions.	1674543	1471971823711	1471971823822		73
3342	35105	Please call me if you have any questions.	Please call me if you have any questions.	1674546	1471971823855	1471971823990		70
3342	35105	Please call me if you have any questions.	Please call me if you have any questions.	1674590	1471971824006	1471971824118		32
3342	35105	Please call me if you have any questions.	Please call me if you have any questions.	1674594	1471971824311	1471971824430		89
3342	35105	Please call me if you have any questions.	Please call me if you have any questions.	1674597	1471971824471	1471971824630		79
3342	35105	Please call me if you have any questions.	Please call me if you have any questions.	1674602	1471971824647	1471971824766		85
3342	35105	Please call me if you have any questions.	Please call me if you have any questions.	1674665	1471971824758	1471971824926		32
3342	35105	Please call me if you have any questions.	Please call me if you have any questions.	1674669	1471971825263	1471971825343		72
3342	35105	Please call me if you have any questions.	Please call me if you have any questions.	1674674	1471971825358	1471971825502		65
3342	35105	Please call me if you have any questions.	Please call me if you have any questions.	1674678	1471971825519	1471971825678		86
3342	35105	Please call me if you have any questions.	Please call me if you have any questions.	1674682	1471971825711	1471971825894		69
3342	35105	Please call me if you have any questions.	Please call me if you have any questions.	1674801	1471971825814	1471971825974		32
3342	35105	Please call me if you have any questions.	Please call me if you have any questions.	1674805	1471971826046	1471971826230		65
3342	35105	Please call me if you have any questions.	Please call me if you have any questions.	1674809	1471971826191	1471971826310		78
3342	35105	Please call me if you have any questions.	Please call me if you have any questions.	1674811	1471971827030	1471971827166		8
3342	35105	Please call me if you have any questions.	Please call me if you have any questions.	1674813	1471971827710	1471971827823		78
3342	35105	Please call me if you have any questions.	Please call me if you have any questions.	1674814	1471971827934	1471971828039		89
3342	35105	Please call me if you have any questions.	Please call me if you have any questions.	1674908	1471971828150	1471971828286		32
3342	35105	Please call me if you have any questions.	Please call me if you have any questions.	1674910	1471971829214	1471971829382		81
3342	35105	Please call me if you have any questions.	Please call me if you have any questions.	1674913	1471971829390	1471971829478		85
3342	35105	Please call me if you have any questions.	Please call me if you have any questions.	1674916	1471971829678	1471971829758		87
3342	35105	Please call me if you have any questions.	Please call me if you have any questions.	1674920	1471971830486	1471971830606		8
3342	35105	Please call me if you have any questions.	Please call me if you have any questions.	1674998	1471971830662	1471971830814		69
3342	35105	Please call me if you have any questions.	Please call me if you have any questions.	1675001	1471971831198	1471971831350		83
3342	35105	Please call me if you have any questions.	Please call me if you have any questions.	1675004	1471971831534	1471971831718		84
3342	35105	Please call me if you have any questions.	Please call me if you have any questions.	1675006	1471971831655	1471971831791		73
3342	35105	Please call me if you have any questions.	Please call me if you have any questions.	1675008	1471971831806	1471971831991		79
3342	35105	Please call me if you have any questions.	Please call me if you have any questions.	1675052	1471971832005	1471971832134		78
3342	35105	Please call me if you have any questions.	Please call me if you have any questions.	1675057	1471971832318	1471971832486		83
3342	35105	Please call me if you have any questions.	Please call me if you have any questions.	1675061	1471971832855	1471971833030		190
3342	35138	He agrees that they are not showing the correct equation.	He agrees that they are not showing the correct equatrion.	1675493	1471971842815	1471971843134	SHIFT	16
3342	35138	He agrees that they are not showing the correct equation.	He agrees that they are not showing the correct equatrion.	1675494	1471971843071	1471971843176		72
3342	35138	He agrees that they are not showing the correct equation.	He agrees that they are not showing the correct equatrion.	1675496	1471971843159	1471971843375		69
3342	35138	He agrees that they are not showing the correct equation.	He agrees that they are not showing the correct equatrion.	1675498	1471971843303	1471971843462		32
3342	35138	He agrees that they are not showing the correct equation.	He agrees that they are not showing the correct equatrion.	1675500	1471971844118	1471971844271		65
3342	35138	He agrees that they are not showing the correct equation.	He agrees that they are not showing the correct equatrion.	1675501	1471971844582	1471971844710		71
3342	35138	He agrees that they are not showing the correct equation.	He agrees that they are not showing the correct equatrion.	1675589	1471971844999	1471971845134		82
3342	35138	He agrees that they are not showing the correct equation.	He agrees that they are not showing the correct equatrion.	1675591	1471971845215	1471971845342		69
3342	35138	He agrees that they are not showing the correct equation.	He agrees that they are not showing the correct equatrion.	1675592	1471971845471	1471971845582		69
3342	35138	He agrees that they are not showing the correct equation.	He agrees that they are not showing the correct equatrion.	1675593	1471971845760	1471971845910		83
3342	35138	He agrees that they are not showing the correct equation.	He agrees that they are not showing the correct equatrion.	1675595	1471971845951	1471971846078		32
3342	35138	He agrees that they are not showing the correct equation.	He agrees that they are not showing the correct equatrion.	1675623	1471971846215	1471971846406		84
3342	35138	He agrees that they are not showing the correct equation.	He agrees that they are not showing the correct equatrion.	1675624	1471971846311	1471971846438		72
3342	35138	He agrees that they are not showing the correct equation.	He agrees that they are not showing the correct equatrion.	1675625	1471971846462	1471971846646		65
3342	35138	He agrees that they are not showing the correct equation.	He agrees that they are not showing the correct equatrion.	1675626	1471971846663	1471971846798		84
3342	35138	He agrees that they are not showing the correct equation.	He agrees that they are not showing the correct equatrion.	1675762	1471971846783	1471971846950		32
3342	35138	He agrees that they are not showing the correct equation.	He agrees that they are not showing the correct equatrion.	1675765	1471971847422	1471971847574		84
3342	35138	He agrees that they are not showing the correct equation.	He agrees that they are not showing the correct equatrion.	1675769	1471971847592	1471971847726		72
3342	35138	He agrees that they are not showing the correct equation.	He agrees that they are not showing the correct equatrion.	1675773	1471971848486	1471971848631		69
3342	35138	He agrees that they are not showing the correct equation.	He agrees that they are not showing the correct equatrion.	1675778	1471971848623	1471971848726		89
3342	35138	He agrees that they are not showing the correct equation.	He agrees that they are not showing the correct equatrion.	1675780	1471971848782	1471971848966		32
3342	35138	He agrees that they are not showing the correct equation.	He agrees that they are not showing the correct equatrion.	1675823	1471971849207	1471971849382		65
3342	35138	He agrees that they are not showing the correct equation.	He agrees that they are not showing the correct equatrion.	1675829	1471971849463	1471971849590		82
3342	35138	He agrees that they are not showing the correct equation.	He agrees that they are not showing the correct equatrion.	1675833	1471971849606	1471971849782		69
3342	35138	He agrees that they are not showing the correct equation.	He agrees that they are not showing the correct equatrion.	1675840	1471971849759	1471971849902		32
3342	35138	He agrees that they are not showing the correct equation.	He agrees that they are not showing the correct equatrion.	1675843	1471971849999	1471971850174		78
3342	35138	He agrees that they are not showing the correct equation.	He agrees that they are not showing the correct equatrion.	1675922	1471971850294	1471971850510		84
3342	35138	He agrees that they are not showing the correct equation.	He agrees that they are not showing the correct equatrion.	1675926	1471971851119	1471971851198		8
3342	35138	He agrees that they are not showing the correct equation.	He agrees that they are not showing the correct equatrion.	1675931	1471971851350	1471971851526		79
3342	35138	He agrees that they are not showing the correct equation.	He agrees that they are not showing the correct equatrion.	1675936	1471971851535	1471971851694		84
3342	35138	He agrees that they are not showing the correct equation.	He agrees that they are not showing the correct equatrion.	1675974	1471971851623	1471971851790		32
3342	35138	He agrees that they are not showing the correct equation.	He agrees that they are not showing the correct equatrion.	1675977	1471971852239	1471971852414		83
3342	35138	He agrees that they are not showing the correct equation.	He agrees that they are not showing the correct equatrion.	1675978	1471971852374	1471971852494		72
3342	35138	He agrees that they are not showing the correct equation.	He agrees that they are not showing the correct equatrion.	1675981	1471971852502	1471971852694		79
3342	35138	He agrees that they are not showing the correct equation.	He agrees that they are not showing the correct equatrion.	1675983	1471971852783	1471971852990		87
3342	35138	He agrees that they are not showing the correct equation.	He agrees that they are not showing the correct equatrion.	1675987	1471971853182	1471971853278		73
3342	35138	He agrees that they are not showing the correct equation.	He agrees that they are not showing the correct equatrion.	1676021	1471971853375	1471971853526		78
3342	35138	He agrees that they are not showing the correct equation.	He agrees that they are not showing the correct equatrion.	1676028	1471971853503	1471971853687		71
3342	35138	He agrees that they are not showing the correct equation.	He agrees that they are not showing the correct equatrion.	1676038	1471971853639	1471971853814		32
3342	35138	He agrees that they are not showing the correct equation.	He agrees that they are not showing the correct equatrion.	1676046	1471971854055	1471971854231		84
3342	35138	He agrees that they are not showing the correct equation.	He agrees that they are not showing the correct equatrion.	1676105	1471971854110	1471971854248		72
3342	35138	He agrees that they are not showing the correct equation.	He agrees that they are not showing the correct equatrion.	1676107	1471971854222	1471971854414		69
3342	35138	He agrees that they are not showing the correct equation.	He agrees that they are not showing the correct equatrion.	1676114	1471971854319	1471971854494		32
3342	35138	He agrees that they are not showing the correct equation.	He agrees that they are not showing the correct equatrion.	1676121	1471971854766	1471971854934		68
3342	35138	He agrees that they are not showing the correct equation.	He agrees that they are not showing the correct equatrion.	1676128	1471971854894	1471971855054		79
3342	35138	He agrees that they are not showing the correct equation.	He agrees that they are not showing the correct equatrion.	1676132	1471971855390	1471971855510		82
3342	35138	He agrees that they are not showing the correct equation.	He agrees that they are not showing the correct equatrion.	1676138	1471971855863	1471971855958		8
3342	35138	He agrees that they are not showing the correct equation.	He agrees that they are not showing the correct equatrion.	1676202	1471971856047	1471971856103		8
3342	35138	He agrees that they are not showing the correct equation.	He agrees that they are not showing the correct equatrion.	1676205	1471971856175	1471971856262		8
3342	35138	He agrees that they are not showing the correct equation.	He agrees that they are not showing the correct equatrion.	1676206	1471971856367	1471971856502		67
3342	35138	He agrees that they are not showing the correct equation.	He agrees that they are not showing the correct equatrion.	1676208	1471971857054	1471971857214		79
3342	35138	He agrees that they are not showing the correct equation.	He agrees that they are not showing the correct equatrion.	1676210	1471971857366	1471971857422		82
3342	35138	He agrees that they are not showing the correct equation.	He agrees that they are not showing the correct equatrion.	1676253	1471971857559	1471971857694		82
3342	35138	He agrees that they are not showing the correct equation.	He agrees that they are not showing the correct equatrion.	1676259	1471971857751	1471971857878		69
3342	35138	He agrees that they are not showing the correct equation.	He agrees that they are not showing the correct equatrion.	1676265	1471971858511	1471971858614		67
3342	35138	He agrees that they are not showing the correct equation.	He agrees that they are not showing the correct equatrion.	1676380	1471971858719	1471971858886		82
3342	35138	He agrees that they are not showing the correct equation.	He agrees that they are not showing the correct equatrion.	1676271	1471971858750	1471971858870		84
3342	35138	He agrees that they are not showing the correct equation.	He agrees that they are not showing the correct equatrion.	1676383	1471971859351	1471971859454		8
3342	35138	He agrees that they are not showing the correct equation.	He agrees that they are not showing the correct equatrion.	1676384	1471971859679	1471971859830		84
3342	35138	He agrees that they are not showing the correct equation.	He agrees that they are not showing the correct equatrion.	1676386	1471971859775	1471971859926		8
3342	35138	He agrees that they are not showing the correct equation.	He agrees that they are not showing the correct equatrion.	1676388	1471971860119	1471971860270		8
3342	35138	He agrees that they are not showing the correct equation.	He agrees that they are not showing the correct equatrion.	1676391	1471971860327	1471971860494		84
3342	35138	He agrees that they are not showing the correct equation.	He agrees that they are not showing the correct equatrion.	1676553	1471971860439	1471971860614		32
3342	35138	He agrees that they are not showing the correct equation.	He agrees that they are not showing the correct equatrion.	1676558	1471971861166	1471971861310		87
3342	35138	He agrees that they are not showing the correct equation.	He agrees that they are not showing the correct equatrion.	1676561	1471971861951	1471971862158		81
3342	35138	He agrees that they are not showing the correct equation.	He agrees that they are not showing the correct equatrion.	1676565	1471971862263	1471971862406		85
3342	35138	He agrees that they are not showing the correct equation.	He agrees that they are not showing the correct equatrion.	1676568	1471971862806	1471971862895		8
3342	35138	He agrees that they are not showing the correct equation.	He agrees that they are not showing the correct equatrion.	1676572	1471971862974	1471971863087		8
3342	35138	He agrees that they are not showing the correct equation.	He agrees that they are not showing the correct equatrion.	1676607	1471971863270	1471971863374		69
3342	35138	He agrees that they are not showing the correct equation.	He agrees that they are not showing the correct equatrion.	1676609	1471971863687	1471971863868		81
3342	35138	He agrees that they are not showing the correct equation.	He agrees that they are not showing the correct equatrion.	1676611	1471971863950	1471971864030		8
3342	35138	He agrees that they are not showing the correct equation.	He agrees that they are not showing the correct equatrion.	1676613	1471971864111	1471971864198		8
3342	35138	He agrees that they are not showing the correct equation.	He agrees that they are not showing the correct equatrion.	1676615	1471971864270	1471971864358		8
3342	35138	He agrees that they are not showing the correct equation.	He agrees that they are not showing the correct equatrion.	1676699	1471971864687	1471971864838		82
3342	35138	He agrees that they are not showing the correct equation.	He agrees that they are not showing the correct equatrion.	1676703	1471971865023	1471971865166		8
3342	35138	He agrees that they are not showing the correct equation.	He agrees that they are not showing the correct equatrion.	1676708	1471971865263	1471971865366		87
3342	35138	He agrees that they are not showing the correct equation.	He agrees that they are not showing the correct equatrion.	1676713	1471971865879	1471971865966		8
3342	35138	He agrees that they are not showing the correct equation.	He agrees that they are not showing the correct equatrion.	1676824	1471971866046	1471971866174		8
3342	35138	He agrees that they are not showing the correct equation.	He agrees that they are not showing the correct equatrion.	1676827	1471971866366	1471971866487		69
3342	35138	He agrees that they are not showing the correct equation.	He agrees that they are not showing the correct equatrion.	1676838	1471971866807	1471971866942		81
3342	35138	He agrees that they are not showing the correct equation.	He agrees that they are not showing the correct equatrion.	1676842	1471971867894	1471971868046		85
3342	35138	He agrees that they are not showing the correct equation.	He agrees that they are not showing the correct equatrion.	1676846	1471971868079	1471971868198		65
3342	35138	He agrees that they are not showing the correct equation.	He agrees that they are not showing the correct equatrion.	1676868	1471971868375	1471971868566		84
3342	35138	He agrees that they are not showing the correct equation.	He agrees that they are not showing the correct equatrion.	1676866	1471971868422	1471971868542		82
3342	35138	He agrees that they are not showing the correct equation.	He agrees that they are not showing the correct equatrion.	1676871	1471971868551	1471971868678		73
3342	35138	He agrees that they are not showing the correct equation.	He agrees that they are not showing the correct equatrion.	1676875	1471971868711	1471971868822		79
3342	35138	He agrees that they are not showing the correct equation.	He agrees that they are not showing the correct equatrion.	1676879	1471971868919	1471971868998		78
3342	35138	He agrees that they are not showing the correct equation.	He agrees that they are not showing the correct equatrion.	1676935	1471971870199	1471971870288		190
3342	35179	I have no personal transactions with any Enron entity.	I have no personal transactions with any Enron entity.	1677531	1471971881816	1471971882104	SHIFT	16
3342	35179	I have no personal transactions with any Enron entity.	I have no personal transactions with any Enron entity.	1677534	1471971882038	1471971882167		73
3342	35179	I have no personal transactions with any Enron entity.	I have no personal transactions with any Enron entity.	1677536	1471971882231	1471971882383		32
3342	35179	I have no personal transactions with any Enron entity.	I have no personal transactions with any Enron entity.	1677538	1471971883215	1471971883327		72
3342	35179	I have no personal transactions with any Enron entity.	I have no personal transactions with any Enron entity.	1677539	1471971883287	1471971883446		65
3342	35179	I have no personal transactions with any Enron entity.	I have no personal transactions with any Enron entity.	1677541	1471971883511	1471971883606		86
3342	35179	I have no personal transactions with any Enron entity.	I have no personal transactions with any Enron entity.	1677540	1471971883679	1471971883886		69
3342	35179	I have no personal transactions with any Enron entity.	I have no personal transactions with any Enron entity.	1677543	1471971883823	1471971883975		32
3342	35179	I have no personal transactions with any Enron entity.	I have no personal transactions with any Enron entity.	1677546	1471971884055	1471971884215		78
3342	35179	I have no personal transactions with any Enron entity.	I have no personal transactions with any Enron entity.	1677550	1471971884191	1471971884342		79
3342	35179	I have no personal transactions with any Enron entity.	I have no personal transactions with any Enron entity.	1677553	1471971884383	1471971884558		32
3342	35179	I have no personal transactions with any Enron entity.	I have no personal transactions with any Enron entity.	1677602	1471971884671	1471971884862		80
3342	35179	I have no personal transactions with any Enron entity.	I have no personal transactions with any Enron entity.	1677605	1471971884839	1471971885040		69
3342	35179	I have no personal transactions with any Enron entity.	I have no personal transactions with any Enron entity.	1677610	1471971885023	1471971885190		82
3342	35179	I have no personal transactions with any Enron entity.	I have no personal transactions with any Enron entity.	1677615	1471971885415	1471971885614		83
3342	35179	I have no personal transactions with any Enron entity.	I have no personal transactions with any Enron entity.	1677679	1471971885519	1471971885719		79
3342	35179	I have no personal transactions with any Enron entity.	I have no personal transactions with any Enron entity.	1677682	1471971885735	1471971885934		78
3342	35179	I have no personal transactions with any Enron entity.	I have no personal transactions with any Enron entity.	1677685	1471971885975	1471971886215		65
3342	35179	I have no personal transactions with any Enron entity.	I have no personal transactions with any Enron entity.	1677689	1471971886103	1471971886262		76
3342	35179	I have no personal transactions with any Enron entity.	I have no personal transactions with any Enron entity.	1677691	1471971886359	1471971886486		32
3342	35179	I have no personal transactions with any Enron entity.	I have no personal transactions with any Enron entity.	1677694	1471971886999	1471971887126		84
3342	35179	I have no personal transactions with any Enron entity.	I have no personal transactions with any Enron entity.	1677761	1471971887295	1471971887446		82
3342	35179	I have no personal transactions with any Enron entity.	I have no personal transactions with any Enron entity.	1677763	1471971887526	1471971887678		65
3342	35179	I have no personal transactions with any Enron entity.	I have no personal transactions with any Enron entity.	1677768	1471971887927	1471971888088		78
3342	35179	I have no personal transactions with any Enron entity.	I have no personal transactions with any Enron entity.	1677775	1471971888311	1471971888446		83
3342	35179	I have no personal transactions with any Enron entity.	I have no personal transactions with any Enron entity.	1677779	1471971888863	1471971889006		65
3342	35179	I have no personal transactions with any Enron entity.	I have no personal transactions with any Enron entity.	1677837	1471971889791	1471971889919		67
3342	35179	I have no personal transactions with any Enron entity.	I have no personal transactions with any Enron entity.	1677840	1471971890103	1471971890294		84
3342	35179	I have no personal transactions with any Enron entity.	I have no personal transactions with any Enron entity.	1677842	1471971890255	1471971890422		73
3342	35179	I have no personal transactions with any Enron entity.	I have no personal transactions with any Enron entity.	1677843	1471971890391	1471971890558		79
3342	35179	I have no personal transactions with any Enron entity.	I have no personal transactions with any Enron entity.	1677845	1471971890599	1471971890750		78
3342	35179	I have no personal transactions with any Enron entity.	I have no personal transactions with any Enron entity.	1677887	1471971890799	1471971890966		83
3342	35179	I have no personal transactions with any Enron entity.	I have no personal transactions with any Enron entity.	1677888	1471971890951	1471971891088		32
3342	35179	I have no personal transactions with any Enron entity.	I have no personal transactions with any Enron entity.	1677889	1471971891511	1471971891655		87
3342	35179	I have no personal transactions with any Enron entity.	I have no personal transactions with any Enron entity.	1677890	1471971891655	1471971891798		73
3342	35179	I have no personal transactions with any Enron entity.	I have no personal transactions with any Enron entity.	1677891	1471971891871	1471971892046		84
3342	35179	I have no personal transactions with any Enron entity.	I have no personal transactions with any Enron entity.	1677950	1471971892031	1471971892174		72
3342	35179	I have no personal transactions with any Enron entity.	I have no personal transactions with any Enron entity.	1677952	1471971892247	1471971892378		32
3342	35179	I have no personal transactions with any Enron entity.	I have no personal transactions with any Enron entity.	1677954	1471971892614	1471971892774		65
3342	35179	I have no personal transactions with any Enron entity.	I have no personal transactions with any Enron entity.	1677956	1471971892854	1471971892966		78
3342	35179	I have no personal transactions with any Enron entity.	I have no personal transactions with any Enron entity.	1677960	1471971893446	1471971893542		89
3342	35179	I have no personal transactions with any Enron entity.	I have no personal transactions with any Enron entity.	1677964	1471971893607	1471971893750		32
3342	35179	I have no personal transactions with any Enron entity.	I have no personal transactions with any Enron entity.	1678041	1471971894583	1471971894974	SHIFT	16
3342	35179	I have no personal transactions with any Enron entity.	I have no personal transactions with any Enron entity.	1678039	1471971894855	1471971894966		69
3342	35179	I have no personal transactions with any Enron entity.	I have no personal transactions with any Enron entity.	1678043	1471971895094	1471971895350		78
3342	35179	I have no personal transactions with any Enron entity.	I have no personal transactions with any Enron entity.	1678045	1471971895632	1471971895814		82
3342	35179	I have no personal transactions with any Enron entity.	I have no personal transactions with any Enron entity.	1678046	1471971895799	1471971895905		79
3342	35179	I have no personal transactions with any Enron entity.	I have no personal transactions with any Enron entity.	1678047	1471971896022	1471971896190		78
3342	35179	I have no personal transactions with any Enron entity.	I have no personal transactions with any Enron entity.	1678093	1471971896202	1471971896326		32
3342	35179	I have no personal transactions with any Enron entity.	I have no personal transactions with any Enron entity.	1678094	1471971896607	1471971896758		69
3342	35179	I have no personal transactions with any Enron entity.	I have no personal transactions with any Enron entity.	1678095	1471971896799	1471971896974		78
3342	35179	I have no personal transactions with any Enron entity.	I have no personal transactions with any Enron entity.	1678096	1471971896983	1471971897198		84
3342	35179	I have no personal transactions with any Enron entity.	I have no personal transactions with any Enron entity.	1678097	1471971897231	1471971897358		73
3342	35179	I have no personal transactions with any Enron entity.	I have no personal transactions with any Enron entity.	1678176	1471971897527	1471971897686		84
3342	35179	I have no personal transactions with any Enron entity.	I have no personal transactions with any Enron entity.	1678179	1471971898039	1471971898126		89
3342	35179	I have no personal transactions with any Enron entity.	I have no personal transactions with any Enron entity.	1678184	1471971898359	1471971898462		190
3342	35207	OK to make changes, change out original.	OK to make changes, change out original.	1678851	1471971908919	1471971909646	SHIFT	16
3342	35207	OK to make changes, change out original.	OK to make changes, change out original.	1678845	1471971909454	1471971909526		79
3342	35207	OK to make changes, change out original.	OK to make changes, change out original.	1678857	1471971909623	1471971909766		75
3342	35207	OK to make changes, change out original.	OK to make changes, change out original.	1678861	1471971909815	1471971909958		32
3342	35207	OK to make changes, change out original.	OK to make changes, change out original.	1678864	1471971910415	1471971910598		84
3342	35207	OK to make changes, change out original.	OK to make changes, change out original.	1678899	1471971910503	1471971910614		79
3342	35207	OK to make changes, change out original.	OK to make changes, change out original.	1678901	1471971910623	1471971910751		32
3342	35207	OK to make changes, change out original.	OK to make changes, change out original.	1678904	1471971910871	1471971910982		77
3342	35207	OK to make changes, change out original.	OK to make changes, change out original.	1678906	1471971910975	1471971911190		65
3342	35207	OK to make changes, change out original.	OK to make changes, change out original.	1678908	1471971911287	1471971911407		75
3342	35207	OK to make changes, change out original.	OK to make changes, change out original.	1678910	1471971911534	1471971911742		69
3342	35207	OK to make changes, change out original.	OK to make changes, change out original.	1679016	1471971911815	1471971911966		32
3342	35207	OK to make changes, change out original.	OK to make changes, change out original.	1679020	1471971912951	1471971913142		67
3342	35207	OK to make changes, change out original.	OK to make changes, change out original.	1679026	1471971913039	1471971913318		72
3342	35207	OK to make changes, change out original.	OK to make changes, change out original.	1679029	1471971913407	1471971913630		65
3342	35207	OK to make changes, change out original.	OK to make changes, change out original.	1679035	1471971913663	1471971913798		78
3342	35207	OK to make changes, change out original.	OK to make changes, change out original.	1679169	1471971915007	1471971915086		8
3342	35207	OK to make changes, change out original.	OK to make changes, change out original.	1679172	1471971916247	1471971916375		78
3342	35207	OK to make changes, change out original.	OK to make changes, change out original.	1679177	1471971916439	1471971916558		71
3342	35207	OK to make changes, change out original.	OK to make changes, change out original.	1679183	1471971916671	1471971916838		69
3342	35207	OK to make changes, change out original.	OK to make changes, change out original.	1679187	1471971917015	1471971917166		83
3342	35207	OK to make changes, change out original.	OK to make changes, change out original.	1679307	1471971917543	1471971917670		188
3342	35207	OK to make changes, change out original.	OK to make changes, change out original.	1679311	1471971918239	1471971918367		32
3342	35207	OK to make changes, change out original.	OK to make changes, change out original.	1679317	1471971918815	1471971919015		67
3342	35207	OK to make changes, change out original.	OK to make changes, change out original.	1679322	1471971918943	1471971919102		72
3342	35207	OK to make changes, change out original.	OK to make changes, change out original.	1679328	1471971919119	1471971919303		65
3342	35207	OK to make changes, change out original.	OK to make changes, change out original.	1679394	1471971919343	1471971919486		78
3342	35207	OK to make changes, change out original.	OK to make changes, change out original.	1679398	1471971919583	1471971919694		71
3342	35207	OK to make changes, change out original.	OK to make changes, change out original.	1679402	1471971919734	1471971919951		69
3342	35207	OK to make changes, change out original.	OK to make changes, change out original.	1679409	1471971920023	1471971920142		32
3342	35207	OK to make changes, change out original.	OK to make changes, change out original.	1679415	1471971920535	1471971920726		79
3342	35207	OK to make changes, change out original.	OK to make changes, change out original.	1679494	1471971920839	1471971920942		85
3342	35207	OK to make changes, change out original.	OK to make changes, change out original.	1679501	1471971921015	1471971921174		84
3342	35207	OK to make changes, change out original.	OK to make changes, change out original.	1679505	1471971921199	1471971921342		32
3342	35207	OK to make changes, change out original.	OK to make changes, change out original.	1679512	1471971921927	1471971922086		79
3342	35207	OK to make changes, change out original.	OK to make changes, change out original.	1679515	1471971922095	1471971922311		82
3342	35207	OK to make changes, change out original.	OK to make changes, change out original.	1679575	1471971922322	1471971922439		73
3342	35207	OK to make changes, change out original.	OK to make changes, change out original.	1679577	1471971922767	1471971922918		71
3342	35207	OK to make changes, change out original.	OK to make changes, change out original.	1679580	1471971922935	1471971923054		73
3342	35207	OK to make changes, change out original.	OK to make changes, change out original.	1679583	1471971923223	1471971923367		78
3342	35207	OK to make changes, change out original.	OK to make changes, change out original.	1679657	1471971923359	1471971923538		65
3342	35207	OK to make changes, change out original.	OK to make changes, change out original.	1679660	1471971923519	1471971923630		76
3342	35207	OK to make changes, change out original.	OK to make changes, change out original.	1679664	1471971923807	1471971923942		190
3342	35207	OK to make changes, change out original.	OK to make changes, change out original.	1679668	1471971924151	1471971924237		220
3342	35207	OK to make changes, change out original.	OK to make changes, change out original.	1679675	1471971924663	1471971924790		8
3342	35241	You have 15 active players.	You have 15 active players.	1680190	1471971931271	1471971931687	SHIFT	16
3342	35241	You have 15 active players.	You have 15 active players.	1680195	1471971931631	1471971931742		89
3342	35241	You have 15 active players.	You have 15 active players.	1680200	1471971931759	1471971931886		79
3342	35241	You have 15 active players.	You have 15 active players.	1680204	1471971931863	1471971932022		85
3342	35241	You have 15 active players.	You have 15 active players.	1680207	1471971932007	1471971932174		32
3342	35241	You have 15 active players.	You have 15 active players.	1680212	1471971932463	1471971932606		72
3342	35241	You have 15 active players.	You have 15 active players.	1680397	1471971932567	1471971932710		65
3342	35241	You have 15 active players.	You have 15 active players.	1680405	1471971932767	1471971932871		86
3342	35241	You have 15 active players.	You have 15 active players.	1680411	1471971932991	1471971933118		69
3342	35241	You have 15 active players.	You have 15 active players.	1680418	1471971933015	1471971933190		32
3342	35241	You have 15 active players.	You have 15 active players.	1680423	1471971934503	1471971934727		49
3342	35241	You have 15 active players.	You have 15 active players.	1680425	1471971935279	1471971935350		53
3342	35241	You have 15 active players.	You have 15 active players.	1680566	1471971935551	1471971935654		32
3342	35241	You have 15 active players.	You have 15 active players.	1680571	1471971936183	1471971936350		65
3342	35241	You have 15 active players.	You have 15 active players.	1680577	1471971936727	1471971936822		67
3342	35241	You have 15 active players.	You have 15 active players.	1680582	1471971936959	1471971937143		84
3342	35241	You have 15 active players.	You have 15 active players.	1680701	1471971937111	1471971937230		73
3342	35241	You have 15 active players.	You have 15 active players.	1680707	1471971937391	1471971937502		66
3342	35241	You have 15 active players.	You have 15 active players.	1680713	1471971937614	1471971937839		69
3342	35241	You have 15 active players.	You have 15 active players.	1680719	1471971937775	1471971937918		32
3342	35241	You have 15 active players.	You have 15 active players.	1680726	1471971938239	1471971938287		8
3342	35241	You have 15 active players.	You have 15 active players.	1680733	1471971938359	1471971938431		8
3342	35241	You have 15 active players.	You have 15 active players.	1680828	1471971938487	1471971938559		8
3342	35241	You have 15 active players.	You have 15 active players.	1680831	1471971938583	1471971938695		86
3342	35241	You have 15 active players.	You have 15 active players.	1680836	1471971938687	1471971938903		69
3342	35241	You have 15 active players.	You have 15 active players.	1680840	1471971938838	1471971939006		32
3342	35241	You have 15 active players.	You have 15 active players.	1680846	1471971939495	1471971939599		80
3342	35241	You have 15 active players.	You have 15 active players.	1680932	1471971939727	1471971939887		76
3342	35241	You have 15 active players.	You have 15 active players.	1680938	1471971939855	1471971940006		65
3342	35241	You have 15 active players.	You have 15 active players.	1680943	1471971940583	1471971940703		89
3342	35241	You have 15 active players.	You have 15 active players.	1680954	1471971940759	1471971940904		69
3342	35241	You have 15 active players.	You have 15 active players.	1681127	1471971940895	1471971941046		82
3342	35241	You have 15 active players.	You have 15 active players.	1681133	1471971941191	1471971941351		83
3342	35241	You have 15 active players.	You have 15 active players.	1681140	1471971941487	1471971941575		76
3342	35241	You have 15 active players.	You have 15 active players.	1681144	1471971942199	1471971942255		61
3342	35241	You have 15 active players.	You have 15 active players.	1681148	1471971942470	1471971942551		8
3342	35241	You have 15 active players.	You have 15 active players.	1681150	1471971942639	1471971942703		8
3342	35241	You have 15 active players.	You have 15 active players.	1681277	1471971944183	1471971944263		190
3342	35284	His current status is day to day.	His current status is day to day.	1682161	1471971952479	1471971952935	SHIFT	16
3342	35284	His current status is day to day.	His current status is day to day.	1682171	1471971952895	1471971953031		72
3342	35284	His current status is day to day.	His current status is day to day.	1682191	1471971953079	1471971953270		83
3342	35284	His current status is day to day.	His current status is day to day.	1682180	1471971953103	1471971953254		73
3342	35284	His current status is day to day.	His current status is day to day.	1682206	1471971953247	1471971953414		32
3342	35284	His current status is day to day.	His current status is day to day.	1682217	1471971953911	1471971953991		8
3342	35284	His current status is day to day.	His current status is day to day.	1682430	1471971954280	1471971954327		8
3342	35284	His current status is day to day.	His current status is day to day.	1682442	1471971954430	1471971954502		8
3342	35284	His current status is day to day.	His current status is day to day.	1682454	1471971954887	1471971954999		73
3342	35284	His current status is day to day.	His current status is day to day.	1682465	1471971954975	1471971955127		83
3342	35284	His current status is day to day.	His current status is day to day.	1682529	1471971955071	1471971955231		32
3342	35284	His current status is day to day.	His current status is day to day.	1682537	1471971955543	1471971955743		67
3342	35284	His current status is day to day.	His current status is day to day.	1682544	1471971955823	1471971955959		85
3342	35284	His current status is day to day.	His current status is day to day.	1682551	1471971956183	1471971956231		82
3342	35284	His current status is day to day.	His current status is day to day.	1682557	1471971956423	1471971956527		82
3342	35284	His current status is day to day.	His current status is day to day.	1682564	1471971956679	1471971956815		69
3342	35284	His current status is day to day.	His current status is day to day.	1683170	1471971956863	1471971957031		78
3342	35284	His current status is day to day.	His current status is day to day.	1683182	1471971957167	1471971957343		84
3342	35284	His current status is day to day.	His current status is day to day.	1683190	1471971957359	1471971957503		32
3342	35284	His current status is day to day.	His current status is day to day.	1683197	1471971957695	1471971957815		83
3342	35284	His current status is day to day.	His current status is day to day.	1683204	1471971958151	1471971958271		84
3342	35284	His current status is day to day.	His current status is day to day.	1683042	1471971958327	1471971958463		65
3342	35284	His current status is day to day.	His current status is day to day.	1683047	1471971959439	1471971959576		84
3342	35284	His current status is day to day.	His current status is day to day.	1683053	1471971960031	1471971960119		85
3342	35284	His current status is day to day.	His current status is day to day.	1683059	1471971960135	1471971960304		83
3342	35284	His current status is day to day.	His current status is day to day.	1683104	1471971960287	1471971960423		32
3342	35284	His current status is day to day.	His current status is day to day.	1683113	1471971960703	1471971960823		73
3342	35284	His current status is day to day.	His current status is day to day.	1683124	1471971960831	1471971960966		83
3342	35284	His current status is day to day.	His current status is day to day.	1683135	1471971960943	1471971961062		32
3342	35284	His current status is day to day.	His current status is day to day.	1683150	1471971961583	1471971961695		68
3342	35284	His current status is day to day.	His current status is day to day.	1683168	1471971961743	1471971961879		65
3342	35284	His current status is day to day.	His current status is day to day.	1683274	1471971961927	1471971962063		89
3342	35284	His current status is day to day.	His current status is day to day.	1683279	1471971962127	1471971962286		32
3342	35284	His current status is day to day.	His current status is day to day.	1683284	1471971962575	1471971962743		84
3342	35284	His current status is day to day.	His current status is day to day.	1683291	1471971962727	1471971962855		79
3342	35284	His current status is day to day.	His current status is day to day.	1683298	1471971962895	1471971963023		32
3342	35284	His current status is day to day.	His current status is day to day.	1683422	1471971963127	1471971963255		72
3342	35284	His current status is day to day.	His current status is day to day.	1683426	1471971963839	1471971963934		8
3342	35284	His current status is day to day.	His current status is day to day.	1683434	1471971963991	1471971964143		68
3342	35284	His current status is day to day.	His current status is day to day.	1683441	1471971964175	1471971964319		65
3342	35284	His current status is day to day.	His current status is day to day.	1683448	1471971964335	1471971964447		89
3342	35284	His current status is day to day.	His current status is day to day.	1683551	1471971964823	1471971964958		190
3342	35332	Do we need to do anything here?	Do we need to do anything here?	1684455	1471971971703	1471971972054	SHIFT	16
3342	35332	Do we need to do anything here?	Do we need to do anything here?	1684461	1471971972039	1471971972183		68
3342	35332	Do we need to do anything here?	Do we need to do anything here?	1684471	1471971972143	1471971972287		79
3342	35332	Do we need to do anything here?	Do we need to do anything here?	1684476	1471971972327	1471971972471		32
3342	35332	Do we need to do anything here?	Do we need to do anything here?	1684481	1471971972991	1471971973119		87
3342	35332	Do we need to do anything here?	Do we need to do anything here?	1684486	1471971973135	1471971973336		69
3342	35332	Do we need to do anything here?	Do we need to do anything here?	1684607	1471971973327	1471971973431		32
3342	35332	Do we need to do anything here?	Do we need to do anything here?	1684616	1471971973535	1471971973686		78
3342	35332	Do we need to do anything here?	Do we need to do anything here?	1684623	1471971973663	1471971973991		69
3342	35332	Do we need to do anything here?	Do we need to do anything here?	1684629	1471971974094	1471971974279		68
3342	35332	Do we need to do anything here?	Do we need to do anything here?	1684637	1471971974695	1471971974831		8
3342	35332	Do we need to do anything here?	Do we need to do anything here?	1684644	1471971974847	1471971974975		69
3342	35332	Do we need to do anything here?	Do we need to do anything here?	1684716	1471971975071	1471971975255		68
3342	35332	Do we need to do anything here?	Do we need to do anything here?	1684721	1471971975183	1471971975335		32
3342	35332	Do we need to do anything here?	Do we need to do anything here?	1684727	1471971975623	1471971975815		84
3342	35332	Do we need to do anything here?	Do we need to do anything here?	1684733	1471971975743	1471971975887		79
3342	35332	Do we need to do anything here?	Do we need to do anything here?	1684878	1471971975863	1471971975975		32
3342	35332	Do we need to do anything here?	Do we need to do anything here?	1684883	1471971976015	1471971976198		68
3342	35332	Do we need to do anything here?	Do we need to do anything here?	1684888	1471971976255	1471971976359		79
3342	35332	Do we need to do anything here?	Do we need to do anything here?	1684894	1471971976759	1471971976903		32
3342	35332	Do we need to do anything here?	Do we need to do anything here?	1684900	1471971977119	1471971977278		65
3342	35332	Do we need to do anything here?	Do we need to do anything here?	1685134	1471971977247	1471971977367		78
3342	35332	Do we need to do anything here?	Do we need to do anything here?	1685138	1471971977871	1471971977975		89
3342	35332	Do we need to do anything here?	Do we need to do anything here?	1685140	1471971978391	1471971978559		84
3342	35332	Do we need to do anything here?	Do we need to do anything here?	1685143	1471971978511	1471971978631		72
3342	35332	Do we need to do anything here?	Do we need to do anything here?	1685148	1471971978671	1471971978775		73
3342	35332	Do we need to do anything here?	Do we need to do anything here?	1685152	1471971978919	1471971979031		78
3342	35332	Do we need to do anything here?	Do we need to do anything here?	1685208	1471971979046	1471971979223		71
3342	35332	Do we need to do anything here?	Do we need to do anything here?	1685212	1471971979199	1471971979342		32
3342	35332	Do we need to do anything here?	Do we need to do anything here?	1685223	1471971979823	1471971979959		72
3342	35332	Do we need to do anything here?	Do we need to do anything here?	1685234	1471971979983	1471971980183		69
3342	35332	Do we need to do anything here?	Do we need to do anything here?	1685242	1471971980207	1471971980351		82
3342	35332	Do we need to do anything here?	Do we need to do anything here?	1685489	1471971980367	1471971980495		69
3342	35332	Do we need to do anything here?	Do we need to do anything here?	1685502	1471971981223	1471971982023	SHIFT	16
3342	35332	Do we need to do anything here?	Do we need to do anything here?	1685496	1471971981511	1471971981639		191
3342	35378	But we should pay them the 4500.	But we should pay them the 4500.	1686718	1471971991295	1471971992191	SHIFT	16
3342	35378	But we should pay them the 4500.	But we should pay them the 4500.	1686722	1471971992127	1471971992271		66
3342	35378	But we should pay them the 4500.	But we should pay them the 4500.	1686728	1471971992255	1471971992367		85
3342	35378	But we should pay them the 4500.	But we should pay them the 4500.	1686736	1471971992423	1471971992598		84
3342	35378	But we should pay them the 4500.	But we should pay them the 4500.	1686744	1471971992575	1471971992719		32
3342	35378	But we should pay them the 4500.	But we should pay them the 4500.	1686752	1471971993399	1471971993566		87
3342	35378	But we should pay them the 4500.	But we should pay them the 4500.	1686899	1471971993535	1471971993719		69
3342	35378	But we should pay them the 4500.	But we should pay them the 4500.	1686905	1471971993727	1471971993863		32
3342	35378	But we should pay them the 4500.	But we should pay them the 4500.	1686915	1471971994191	1471971994391		83
3342	35378	But we should pay them the 4500.	But we should pay them the 4500.	1686924	1471971994335	1471971994518		72
3342	35378	But we should pay them the 4500.	But we should pay them the 4500.	1686926	1471971994559	1471971994759		79
3342	35378	But we should pay them the 4500.	But we should pay them the 4500.	1686933	1471971994775	1471971994911		85
3342	35378	But we should pay them the 4500.	But we should pay them the 4500.	1687080	1471971994967	1471971995103		84
3342	35378	But we should pay them the 4500.	But we should pay them the 4500.	1687088	1471971995751	1471971995855		8
3342	35378	But we should pay them the 4500.	But we should pay them the 4500.	1687099	1471971996055	1471971996215		76
3342	35378	But we should pay them the 4500.	But we should pay them the 4500.	1687112	1471971996239	1471971996391		68
3342	35378	But we should pay them the 4500.	But we should pay them the 4500.	1687127	1471971996399	1471971996527		32
3342	35378	But we should pay them the 4500.	But we should pay them the 4500.	1687344	1471971997055	1471971997207		80
3342	35378	But we should pay them the 4500.	But we should pay them the 4500.	1687353	1471971997215	1471971997423		65
3342	35378	But we should pay them the 4500.	But we should pay them the 4500.	1687359	1471971997543	1471971997599		89
3342	35378	But we should pay them the 4500.	But we should pay them the 4500.	1687366	1471971997951	1471971998071		32
3342	35378	But we should pay them the 4500.	But we should pay them the 4500.	1687369	1471971998255	1471971998431		84
3342	35378	But we should pay them the 4500.	But we should pay them the 4500.	1687514	1471971998383	1471971998502		72
3342	35378	But we should pay them the 4500.	But we should pay them the 4500.	1687522	1471971998575	1471971998759		69
3342	35378	But we should pay them the 4500.	But we should pay them the 4500.	1687530	1471971998929	1471971999031		78
3342	35378	But we should pay them the 4500.	But we should pay them the 4500.	1687540	1471971999479	1471971999591		8
3342	35378	But we should pay them the 4500.	But we should pay them the 4500.	1687549	1471971999726	1471971999871		77
3342	35378	But we should pay them the 4500.	But we should pay them the 4500.	1687557	1471971999903	1471972000047		32
3342	35378	But we should pay them the 4500.	But we should pay them the 4500.	1687757	1471972000167	1471972000327		84
3342	35378	But we should pay them the 4500.	But we should pay them the 4500.	1687761	1471972000247	1471972000368		72
3342	35378	But we should pay them the 4500.	But we should pay them the 4500.	1687769	1471972000351	1471972000519		69
3342	35378	But we should pay them the 4500.	But we should pay them the 4500.	1687776	1471972000487	1471972000567		32
3342	35378	But we should pay them the 4500.	But we should pay them the 4500.	1687785	1471972001687	1471972001822		52
3342	35378	But we should pay them the 4500.	But we should pay them the 4500.	1688119	1471972002399	1471972002487		53
3342	35378	But we should pay them the 4500.	But we should pay them the 4500.	1688123	1471972003223	1471972003295		48
3342	35378	But we should pay them the 4500.	But we should pay them the 4500.	1688129	1471972003375	1471972003455		48
3342	35378	But we should pay them the 4500.	But we should pay them the 4500.	1688134	1471972004359	1471972004423		190
3342	35434	A state supreme court judge is expected to rule on the issue shortly.	A state supreme court judge is expected to rule on the issue shortly.	1689648	1471972014455	1471972014790	SHIFT	16
3342	35434	A state supreme court judge is expected to rule on the issue shortly.	A state supreme court judge is expected to rule on the issue shortly.	1689655	1471972014719	1471972014870		65
3342	35434	A state supreme court judge is expected to rule on the issue shortly.	A state supreme court judge is expected to rule on the issue shortly.	1689662	1471972014967	1471972015135		32
3342	35434	A state supreme court judge is expected to rule on the issue shortly.	A state supreme court judge is expected to rule on the issue shortly.	1689670	1471972015311	1471972015439		83
3342	35434	A state supreme court judge is expected to rule on the issue shortly.	A state supreme court judge is expected to rule on the issue shortly.	1689679	1471972015623	1471972015743		84
3342	35434	A state supreme court judge is expected to rule on the issue shortly.	A state supreme court judge is expected to rule on the issue shortly.	1689689	1471972015791	1471972015999		65
3342	35434	A state supreme court judge is expected to rule on the issue shortly.	A state supreme court judge is expected to rule on the issue shortly.	1689711	1471972016719	1471972016839		84
3342	35434	A state supreme court judge is expected to rule on the issue shortly.	A state supreme court judge is expected to rule on the issue shortly.	1689716	1471972016887	1471972017046		69
3342	35434	A state supreme court judge is expected to rule on the issue shortly.	A state supreme court judge is expected to rule on the issue shortly.	1689722	1471972017079	1471972017215		32
3342	35434	A state supreme court judge is expected to rule on the issue shortly.	A state supreme court judge is expected to rule on the issue shortly.	1689727	1471972017495	1471972017646		83
3342	35434	A state supreme court judge is expected to rule on the issue shortly.	A state supreme court judge is expected to rule on the issue shortly.	1689736	1471972017751	1471972017951		85
3342	35434	A state supreme court judge is expected to rule on the issue shortly.	A state supreme court judge is expected to rule on the issue shortly.	1689954	1471972018463	1471972018646		80
3342	35434	A state supreme court judge is expected to rule on the issue shortly.	A state supreme court judge is expected to rule on the issue shortly.	1689961	1471972018775	1471972018903		82
3342	35434	A state supreme court judge is expected to rule on the issue shortly.	A state supreme court judge is expected to rule on the issue shortly.	1689973	1471972019063	1471972019319		69
3342	35434	A state supreme court judge is expected to rule on the issue shortly.	A state supreme court judge is expected to rule on the issue shortly.	1689984	1471972020079	1471972020198		77
3342	35434	A state supreme court judge is expected to rule on the issue shortly.	A state supreme court judge is expected to rule on the issue shortly.	1690122	1471972020175	1471972020367		69
3342	35434	A state supreme court judge is expected to rule on the issue shortly.	A state supreme court judge is expected to rule on the issue shortly.	1690125	1471972020303	1471972020439		32
3342	35434	A state supreme court judge is expected to rule on the issue shortly.	A state supreme court judge is expected to rule on the issue shortly.	1690129	1471972020623	1471972020798		68
3342	35434	A state supreme court judge is expected to rule on the issue shortly.	A state supreme court judge is expected to rule on the issue shortly.	1690141	1471972020775	1471972020910		79
3342	35434	A state supreme court judge is expected to rule on the issue shortly.	A state supreme court judge is expected to rule on the issue shortly.	1690152	1471972021223	1471972021271		8
3342	35434	A state supreme court judge is expected to rule on the issue shortly.	A state supreme court judge is expected to rule on the issue shortly.	1690165	1471972021367	1471972021447		8
3342	35434	A state supreme court judge is expected to rule on the issue shortly.	A state supreme court judge is expected to rule on the issue shortly.	1690349	1471972021471	1471972021671		67
3342	35434	A state supreme court judge is expected to rule on the issue shortly.	A state supreme court judge is expected to rule on the issue shortly.	1690358	1471972021623	1471972021823		79
3342	35434	A state supreme court judge is expected to rule on the issue shortly.	A state supreme court judge is expected to rule on the issue shortly.	1690366	1471972022375	1471972022495		85
3342	35434	A state supreme court judge is expected to rule on the issue shortly.	A state supreme court judge is expected to rule on the issue shortly.	1690374	1471972022535	1471972022663		84
3342	35434	A state supreme court judge is expected to rule on the issue shortly.	A state supreme court judge is expected to rule on the issue shortly.	1690380	1471972022871	1471972022959		82
3342	35434	A state supreme court judge is expected to rule on the issue shortly.	A state supreme court judge is expected to rule on the issue shortly.	1690589	1471972023743	1471972023871		32
3342	35434	A state supreme court judge is expected to rule on the issue shortly.	A state supreme court judge is expected to rule on the issue shortly.	1690598	1471972024135	1471972024175		8
3342	35434	A state supreme court judge is expected to rule on the issue shortly.	A state supreme court judge is expected to rule on the issue shortly.	1690609	1471972024311	1471972024367		8
3342	35434	A state supreme court judge is expected to rule on the issue shortly.	A state supreme court judge is expected to rule on the issue shortly.	1690621	1471972024471	1471972024591		8
3342	35434	A state supreme court judge is expected to rule on the issue shortly.	A state supreme court judge is expected to rule on the issue shortly.	1690639	1471972024751	1471972024879		82
3342	35434	A state supreme court judge is expected to rule on the issue shortly.	A state supreme court judge is expected to rule on the issue shortly.	1690985	1471972025007	1471972025151		84
3342	35434	A state supreme court judge is expected to rule on the issue shortly.	A state supreme court judge is expected to rule on the issue shortly.	1690993	1471972025191	1471972025359		32
3342	35434	A state supreme court judge is expected to rule on the issue shortly.	A state supreme court judge is expected to rule on the issue shortly.	1691009	1471972026511	1471972026615		74
3342	35434	A state supreme court judge is expected to rule on the issue shortly.	A state supreme court judge is expected to rule on the issue shortly.	1691015	1471972027103	1471972027231		85
3342	35434	A state supreme court judge is expected to rule on the issue shortly.	A state supreme court judge is expected to rule on the issue shortly.	1691022	1471972027647	1471972027759		68
3342	35434	A state supreme court judge is expected to rule on the issue shortly.	A state supreme court judge is expected to rule on the issue shortly.	1691118	1471972027943	1471972028063		71
3342	35434	A state supreme court judge is expected to rule on the issue shortly.	A state supreme court judge is expected to rule on the issue shortly.	1691121	1471972028159	1471972028311		69
3342	35434	A state supreme court judge is expected to rule on the issue shortly.	A state supreme court judge is expected to rule on the issue shortly.	1691131	1471972028367	1471972028479		32
3342	35434	A state supreme court judge is expected to rule on the issue shortly.	A state supreme court judge is expected to rule on the issue shortly.	1691133	1471972028607	1471972028791		73
3342	35434	A state supreme court judge is expected to rule on the issue shortly.	A state supreme court judge is expected to rule on the issue shortly.	1691432	1471972028671	1471972028815		83
3342	35434	A state supreme court judge is expected to rule on the issue shortly.	A state supreme court judge is expected to rule on the issue shortly.	1691440	1471972028855	1471972029047		32
3342	35434	A state supreme court judge is expected to rule on the issue shortly.	A state supreme court judge is expected to rule on the issue shortly.	1691446	1471972029415	1471972029559		69
3342	35434	A state supreme court judge is expected to rule on the issue shortly.	A state supreme court judge is expected to rule on the issue shortly.	1691452	1471972029991	1471972030063		88
3342	35434	A state supreme court judge is expected to rule on the issue shortly.	A state supreme court judge is expected to rule on the issue shortly.	1691458	1471972031343	1471972031439		69
3342	35434	A state supreme court judge is expected to rule on the issue shortly.	A state supreme court judge is expected to rule on the issue shortly.	1691463	1471972031911	1471972031991		8
3342	35434	A state supreme court judge is expected to rule on the issue shortly.	A state supreme court judge is expected to rule on the issue shortly.	1691633	1471972032167	1471972032335		80
3342	35434	A state supreme court judge is expected to rule on the issue shortly.	A state supreme court judge is expected to rule on the issue shortly.	1691641	1471972032351	1471972032462		67
3342	35434	A state supreme court judge is expected to rule on the issue shortly.	A state supreme court judge is expected to rule on the issue shortly.	1691653	1471972032871	1471972032975		8
3342	35434	A state supreme court judge is expected to rule on the issue shortly.	A state supreme court judge is expected to rule on the issue shortly.	1691660	1471972033015	1471972033119		69
3342	35434	A state supreme court judge is expected to rule on the issue shortly.	A state supreme court judge is expected to rule on the issue shortly.	1691668	1471972033351	1471972033479		67
3342	35434	A state supreme court judge is expected to rule on the issue shortly.	A state supreme court judge is expected to rule on the issue shortly.	1691849	1471972033879	1471972033999		84
3342	35434	A state supreme court judge is expected to rule on the issue shortly.	A state supreme court judge is expected to rule on the issue shortly.	1691853	1471972034087	1471972034175		69
3342	35434	A state supreme court judge is expected to rule on the issue shortly.	A state supreme court judge is expected to rule on the issue shortly.	1691862	1471972034351	1471972034495		68
3342	35434	A state supreme court judge is expected to rule on the issue shortly.	A state supreme court judge is expected to rule on the issue shortly.	1691868	1471972034639	1471972034791		32
3342	35434	A state supreme court judge is expected to rule on the issue shortly.	A state supreme court judge is expected to rule on the issue shortly.	1691872	1471972035183	1471972035359		84
3342	35434	A state supreme court judge is expected to rule on the issue shortly.	A state supreme court judge is expected to rule on the issue shortly.	1692060	1471972035303	1471972035455		79
3342	35434	A state supreme court judge is expected to rule on the issue shortly.	A state supreme court judge is expected to rule on the issue shortly.	1692072	1471972035463	1471972035591		32
3342	35434	A state supreme court judge is expected to rule on the issue shortly.	A state supreme court judge is expected to rule on the issue shortly.	1692081	1471972035783	1471972035895		82
3342	35434	A state supreme court judge is expected to rule on the issue shortly.	A state supreme court judge is expected to rule on the issue shortly.	1692091	1471972035983	1471972036151		69
3342	35434	A state supreme court judge is expected to rule on the issue shortly.	A state supreme court judge is expected to rule on the issue shortly.	1692097	1471972036239	1471972036374		76
3342	35434	A state supreme court judge is expected to rule on the issue shortly.	A state supreme court judge is expected to rule on the issue shortly.	1692103	1471972037151	1471972037215		8
3342	35434	A state supreme court judge is expected to rule on the issue shortly.	A state supreme court judge is expected to rule on the issue shortly.	1692164	1471972037295	1471972037423		8
3342	35434	A state supreme court judge is expected to rule on the issue shortly.	A state supreme court judge is expected to rule on the issue shortly.	1692172	1471972037599	1471972037711		85
3342	35434	A state supreme court judge is expected to rule on the issue shortly.	A state supreme court judge is expected to rule on the issue shortly.	1692178	1471972037865	1471972038007		76
3342	35434	A state supreme court judge is expected to rule on the issue shortly.	A state supreme court judge is expected to rule on the issue shortly.	1692184	1471972037967	1471972038119		69
3342	35434	A state supreme court judge is expected to rule on the issue shortly.	A state supreme court judge is expected to rule on the issue shortly.	1692299	1471972038095	1471972038247		32
3342	35434	A state supreme court judge is expected to rule on the issue shortly.	A state supreme court judge is expected to rule on the issue shortly.	1692307	1471972038471	1471972038599		79
3342	35434	A state supreme court judge is expected to rule on the issue shortly.	A state supreme court judge is expected to rule on the issue shortly.	1692313	1471972038695	1471972038863		78
3342	35434	A state supreme court judge is expected to rule on the issue shortly.	A state supreme court judge is expected to rule on the issue shortly.	1692321	1471972038831	1471972038991		32
3342	35434	A state supreme court judge is expected to rule on the issue shortly.	A state supreme court judge is expected to rule on the issue shortly.	1692324	1471972039023	1471972039183		84
3342	35434	A state supreme court judge is expected to rule on the issue shortly.	A state supreme court judge is expected to rule on the issue shortly.	1692434	1471972039143	1471972039271		72
3342	35434	A state supreme court judge is expected to rule on the issue shortly.	A state supreme court judge is expected to rule on the issue shortly.	1692442	1471972039287	1471972039447		69
3342	35434	A state supreme court judge is expected to rule on the issue shortly.	A state supreme court judge is expected to rule on the issue shortly.	1692450	1471972039311	1471972039487		32
3342	35434	A state supreme court judge is expected to rule on the issue shortly.	A state supreme court judge is expected to rule on the issue shortly.	1692458	1471972039784	1471972039888		73
3342	35434	A state supreme court judge is expected to rule on the issue shortly.	A state supreme court judge is expected to rule on the issue shortly.	1692468	1471972039943	1471972040031		83
3342	35434	A state supreme court judge is expected to rule on the issue shortly.	A state supreme court judge is expected to rule on the issue shortly.	1692474	1471972040119	1471972040231		83
3342	35434	A state supreme court judge is expected to rule on the issue shortly.	A state supreme court judge is expected to rule on the issue shortly.	1692578	1471972040455	1471972040527		85
3342	35434	A state supreme court judge is expected to rule on the issue shortly.	A state supreme court judge is expected to rule on the issue shortly.	1692584	1471972040655	1471972040800		69
3342	35434	A state supreme court judge is expected to rule on the issue shortly.	A state supreme court judge is expected to rule on the issue shortly.	1692592	1471972040783	1471972040927		32
3342	35434	A state supreme court judge is expected to rule on the issue shortly.	A state supreme court judge is expected to rule on the issue shortly.	1692602	1471972041207	1471972041383		83
3342	35434	A state supreme court judge is expected to rule on the issue shortly.	A state supreme court judge is expected to rule on the issue shortly.	1692847	1471972041319	1471972041487		72
3342	35434	A state supreme court judge is expected to rule on the issue shortly.	A state supreme court judge is expected to rule on the issue shortly.	1692852	1471972041495	1471972041679		79
3342	35434	A state supreme court judge is expected to rule on the issue shortly.	A state supreme court judge is expected to rule on the issue shortly.	1692866	1471972041911	1471972042015		82
3342	35434	A state supreme court judge is expected to rule on the issue shortly.	A state supreme court judge is expected to rule on the issue shortly.	1692876	1471972042183	1471972042311		84
3342	35434	A state supreme court judge is expected to rule on the issue shortly.	A state supreme court judge is expected to rule on the issue shortly.	1692891	1471972042743	1471972042847		76
3342	35434	A state supreme court judge is expected to rule on the issue shortly.	A state supreme court judge is expected to rule on the issue shortly.	1692902	1471972043207	1471972043295		89
3342	35434	A state supreme court judge is expected to rule on the issue shortly.	A state supreme court judge is expected to rule on the issue shortly.	1692966	1471972043551	1471972043663		190
3342	35525	I'm on a plane.	I'm on a plane.	1693772	1471972047951	1471972048287	SHIFT	16
3342	35525	I'm on a plane.	I'm on a plane.	1693777	1471972048191	1471972048295		73
3342	35525	I'm on a plane.	I'm on a plane.	1693784	1471972048487	1471972048639		59
3342	35525	I'm on a plane.	I'm on a plane.	1693789	1471972049351	1471972049463		8
3342	35525	I'm on a plane.	I'm on a plane.	1693798	1471972049775	1471972049879		222
3342	35525	I'm on a plane.	I'm on a plane.	1693804	1471972050503	1471972050631		78
3342	35525	I'm on a plane.	I'm on a plane.	1693931	1471972050647	1471972050799		32
3342	35525	I'm on a plane.	I'm on a plane.	1693935	1471972051319	1471972051423		8
3342	35525	I'm on a plane.	I'm on a plane.	1693939	1471972051503	1471972051583		8
3342	35525	I'm on a plane.	I'm on a plane.	1693949	1471972051767	1471972051879		188
3342	35525	I'm on a plane.	I'm on a plane.	1693959	1471972051991	1471972052207		32
3342	35525	I'm on a plane.	I'm on a plane.	1694127	1471972052407	1471972052495		8
3342	35525	I'm on a plane.	I'm on a plane.	1694135	1471972052575	1471972052656		8
3342	35525	I'm on a plane.	I'm on a plane.	1694146	1471972053039	1471972053151		77
3342	35525	I'm on a plane.	I'm on a plane.	1694156	1471972053359	1471972053519		32
3342	35525	I'm on a plane.	I'm on a plane.	1694173	1471972053791	1471972053911		79
3342	35525	I'm on a plane.	I'm on a plane.	1694345	1471972053975	1471972054119		78
3342	35525	I'm on a plane.	I'm on a plane.	1694354	1471972054111	1471972054246		32
3342	35525	I'm on a plane.	I'm on a plane.	1694359	1471972054319	1471972054479		65
3342	35525	I'm on a plane.	I'm on a plane.	1694368	1471972054647	1471972054775		32
3342	35525	I'm on a plane.	I'm on a plane.	1694374	1471972055191	1471972055279		80
3342	35525	I'm on a plane.	I'm on a plane.	1694522	1471972055439	1471972055567		76
3342	35525	I'm on a plane.	I'm on a plane.	1694526	1471972055591	1471972055775		65
3342	35525	I'm on a plane.	I'm on a plane.	1694530	1471972056151	1471972056287		78
3342	35525	I'm on a plane.	I'm on a plane.	1694531	1471972056303	1471972056479		69
3342	35525	I'm on a plane.	I'm on a plane.	1694536	1471972056591	1471972056719		190
3342	35569	A letter is being sent today.	A letter is being sent today.	1695284	1471972061279	1471972061914	SHIFT	16
3342	35569	A letter is being sent today.	A letter is being sent today.	1695290	1471972061815	1471972061943		65
3342	35569	A letter is being sent today.	A letter is being sent today.	1695300	1471972062111	1471972062279		32
3342	35569	A letter is being sent today.	A letter is being sent today.	1695309	1471972062655	1471972062791		76
3342	35569	A letter is being sent today.	A letter is being sent today.	1695319	1471972062823	1471972062991		69
3342	35569	A letter is being sent today.	A letter is being sent today.	1695329	1471972063215	1471972063351		84
3342	35569	A letter is being sent today.	A letter is being sent today.	1695444	1471972063463	1471972063567		84
3342	35569	A letter is being sent today.	A letter is being sent today.	1695454	1471972063663	1471972063831		69
3342	35569	A letter is being sent today.	A letter is being sent today.	1695465	1471972063791	1471972063967		82
3342	35569	A letter is being sent today.	A letter is being sent today.	1695474	1471972063999	1471972064159		32
3342	35569	A letter is being sent today.	A letter is being sent today.	1695482	1471972064383	1471972064503		73
3342	35569	A letter is being sent today.	A letter is being sent today.	1695596	1471972064519	1471972064695		83
3342	35569	A letter is being sent today.	A letter is being sent today.	1695604	1471972064655	1471972064799		32
3342	35569	A letter is being sent today.	A letter is being sent today.	1695615	1471972064927	1471972065071		66
3342	35569	A letter is being sent today.	A letter is being sent today.	1695623	1471972065191	1471972065319		73
3342	35569	A letter is being sent today.	A letter is being sent today.	1695629	1471972065575	1471972065687		8
3342	35569	A letter is being sent today.	A letter is being sent today.	1695693	1471972065711	1471972065927		69
3342	35569	A letter is being sent today.	A letter is being sent today.	1695698	1471972065959	1471972066055		73
3342	35569	A letter is being sent today.	A letter is being sent today.	1695702	1471972066143	1471972066295		78
3342	35569	A letter is being sent today.	A letter is being sent today.	1695706	1471972066255	1471972066431		71
3342	35569	A letter is being sent today.	A letter is being sent today.	1695874	1471972066399	1471972066583		32
3342	35569	A letter is being sent today.	A letter is being sent today.	1695879	1471972067311	1471972067431		83
3342	35569	A letter is being sent today.	A letter is being sent today.	1695885	1471972067551	1471972067695		69
3342	35569	A letter is being sent today.	A letter is being sent today.	1695888	1471972067799	1471972067967		78
3342	35569	A letter is being sent today.	A letter is being sent today.	1695891	1471972067943	1471972068127		84
3342	35569	A letter is being sent today.	A letter is being sent today.	1696047	1471972068079	1471972068247		32
3342	35569	A letter is being sent today.	A letter is being sent today.	1696054	1471972068519	1471972068719		84
3342	35569	A letter is being sent today.	A letter is being sent today.	1696065	1471972068655	1471972068807		79
3342	35569	A letter is being sent today.	A letter is being sent today.	1696072	1471972068951	1471972069079		68
3342	35569	A letter is being sent today.	A letter is being sent today.	1696080	1471972069151	1471972069271		65
3342	35569	A letter is being sent today.	A letter is being sent today.	1696088	1471972069375	1471972069479		89
3342	35569	A letter is being sent today.	A letter is being sent today.	1696153	1471972070007	1471972070159		190
3342	35595	On my way back.	On my way back.	1697544	1471972078279	1471972080511	SHIFT	16
3342	35595	On my way back.	On my way back.	1697549	1471972080455	1471972080551		79
3342	35595	On my way back.	On my way back.	1697556	1471972080631	1471972080791		78
3342	35595	On my way back.	On my way back.	1697561	1471972080783	1471972080975		32
3342	35595	On my way back.	On my way back.	1697568	1471972081367	1471972081471		77
3342	35595	On my way back.	On my way back.	1697574	1471972081607	1471972081735		89
3342	35595	On my way back.	On my way back.	1697779	1471972081839	1471972081991		32
3342	35595	On my way back.	On my way back.	1697785	1471972082487	1471972082679		87
3342	35595	On my way back.	On my way back.	1697794	1471972082767	1471972082983		65
3342	35595	On my way back.	On my way back.	1697803	1471972083103	1471972083175		89
3342	35595	On my way back.	On my way back.	1697810	1471972083263	1471972083447		32
3342	35595	On my way back.	On my way back.	1698003	1471972083687	1471972083839		66
3342	35595	On my way back.	On my way back.	1698011	1471972083895	1471972084071		65
3342	35595	On my way back.	On my way back.	1698016	1471972084279	1471972084487		67
3342	35595	On my way back.	On my way back.	1698025	1471972085039	1471972085135		75
3342	35595	On my way back.	On my way back.	1698028	1471972085527	1471972085583		190
3342	35595	On my way back.	On my way back.	1698383	1471972085855	1471972085991		220
3342	35595	On my way back.	On my way back.	1698389	1471972086527	1471972086599		8
3342	35595	On my way back.	On my way back.	1698395	1471972086751	1471972086919		220
3342	35595	On my way back.	On my way back.	1698405	1471972087559	1471972087703		61
3342	35595	On my way back.	On my way back.	1698415	1471972088615	1471972088663		8
3342	35595	On my way back.	On my way back.	1698441	1471972088751	1471972088815		8
3342	35644	Please call me if you see any problems.	Pleade call me if you see any problems.	1699379	1471972093799	1471972095215	SHIFT	16
3342	35644	Please call me if you see any problems.	Pleade call me if you see any problems.	1699372	1471972095039	1471972095159		80
3342	35644	Please call me if you see any problems.	Pleade call me if you see any problems.	1699385	1471972095303	1471972095514		76
3342	35644	Please call me if you see any problems.	Pleade call me if you see any problems.	1699389	1471972095495	1471972095791		87
3342	35644	Please call me if you see any problems.	Pleade call me if you see any problems.	1699394	1471972095983	1471972096131		8
3342	35644	Please call me if you see any problems.	Pleade call me if you see any problems.	1699579	1471972096119	1471972096295		69
3342	35644	Please call me if you see any problems.	Pleade call me if you see any problems.	1699584	1471972096327	1471972096527		65
3342	35644	Please call me if you see any problems.	Pleade call me if you see any problems.	1699592	1471972096759	1471972096871		68
3342	35644	Please call me if you see any problems.	Pleade call me if you see any problems.	1699597	1471972096975	1471972097159		69
3342	35644	Please call me if you see any problems.	Pleade call me if you see any problems.	1699605	1471972097111	1471972097295		32
3342	35644	Please call me if you see any problems.	Pleade call me if you see any problems.	1699612	1471972097752	1471972097927		67
3342	35644	Please call me if you see any problems.	Pleade call me if you see any problems.	1699704	1471972098079	1471972098287		65
3342	35644	Please call me if you see any problems.	Pleade call me if you see any problems.	1699708	1471972098255	1471972098375		76
3342	35644	Please call me if you see any problems.	Pleade call me if you see any problems.	1699713	1471972098471	1471972098567		76
3342	35644	Please call me if you see any problems.	Pleade call me if you see any problems.	1699719	1471972098647	1471972098791		32
3342	35644	Please call me if you see any problems.	Pleade call me if you see any problems.	1699722	1471972098863	1471972098991		77
3342	35644	Please call me if you see any problems.	Pleade call me if you see any problems.	1699876	1471972098943	1471972099191		69
3342	35644	Please call me if you see any problems.	Pleade call me if you see any problems.	1699882	1471972099151	1471972099343		32
3342	35644	Please call me if you see any problems.	Pleade call me if you see any problems.	1699888	1471972099559	1471972099687		73
3342	35644	Please call me if you see any problems.	Pleade call me if you see any problems.	1699896	1471972099671	1471972099831		70
3342	35644	Please call me if you see any problems.	Pleade call me if you see any problems.	1699903	1471972099815	1471972099991		32
3342	35644	Please call me if you see any problems.	Pleade call me if you see any problems.	1699910	1471972100407	1471972100543		89
3342	35644	Please call me if you see any problems.	Pleade call me if you see any problems.	1700038	1471972100590	1471972100751		79
3342	35644	Please call me if you see any problems.	Pleade call me if you see any problems.	1700040	1471972100759	1471972100871		85
3342	35644	Please call me if you see any problems.	Pleade call me if you see any problems.	1700045	1471972100895	1471972101071		32
3342	35644	Please call me if you see any problems.	Pleade call me if you see any problems.	1700048	1471972101367	1471972101479		83
3342	35644	Please call me if you see any problems.	Pleade call me if you see any problems.	1700050	1471972101527	1471972101719		69
3342	35644	Please call me if you see any problems.	Pleade call me if you see any problems.	1700130	1471972101815	1471972101975		69
3342	35644	Please call me if you see any problems.	Pleade call me if you see any problems.	1700134	1471972102039	1471972102183		32
3342	35644	Please call me if you see any problems.	Pleade call me if you see any problems.	1700142	1471972102231	1471972102431		65
3342	35644	Please call me if you see any problems.	Pleade call me if you see any problems.	1700149	1471972102391	1471972102503		78
3342	35644	Please call me if you see any problems.	Pleade call me if you see any problems.	1700159	1471972102647	1471972102775		89
3342	35644	Please call me if you see any problems.	Pleade call me if you see any problems.	1700354	1471972102839	1471972102999		32
3342	35644	Please call me if you see any problems.	Pleade call me if you see any problems.	1700362	1471972103415	1471972103551		80
3342	35644	Please call me if you see any problems.	Pleade call me if you see any problems.	1700370	1471972103647	1471972103887		82
3342	35644	Please call me if you see any problems.	Pleade call me if you see any problems.	1700377	1471972103783	1471972103951		79
3342	35644	Please call me if you see any problems.	Pleade call me if you see any problems.	1700384	1471972104287	1471972104423		66
3342	35644	Please call me if you see any problems.	Pleade call me if you see any problems.	1700549	1471972104519	1471972104671		76
3342	35644	Please call me if you see any problems.	Pleade call me if you see any problems.	1700555	1471972104703	1471972104879		69
3342	35644	Please call me if you see any problems.	Pleade call me if you see any problems.	1700561	1471972105015	1471972105127		77
3342	35644	Please call me if you see any problems.	Pleade call me if you see any problems.	1700567	1471972105287	1471972105447		83
3342	35644	Please call me if you see any problems.	Pleade call me if you see any problems.	1700571	1471972105743	1471972105879		190
3342	35644	Please call me if you see any problems.	Pleade call me if you see any problems.	1700728	1471972106103	1471972106231		220
3342	35644	Please call me if you see any problems.	Pleade call me if you see any problems.	1700738	1471972106647	1471972106767		8
3342	35687	I was planning on calling you after I saw your revisions.	I was planning on calling you after I saw your revisions.	1702026	1471972116783	1471972117031	SHIFT	16
3342	35687	I was planning on calling you after I saw your revisions.	I was planning on calling you after I saw your revisions.	1702034	1471972116903	1471972117055		73
3342	35687	I was planning on calling you after I saw your revisions.	I was planning on calling you after I saw your revisions.	1702042	1471972117039	1471972117167		32
3342	35687	I was planning on calling you after I saw your revisions.	I was planning on calling you after I saw your revisions.	1702056	1471972117439	1471972117591		87
3342	35687	I was planning on calling you after I saw your revisions.	I was planning on calling you after I saw your revisions.	1702068	1471972117615	1471972117879		65
3342	35687	I was planning on calling you after I saw your revisions.	I was planning on calling you after I saw your revisions.	1702248	1471972117863	1471972118071		83
3342	35687	I was planning on calling you after I saw your revisions.	I was planning on calling you after I saw your revisions.	1702263	1471972118063	1471972118231		32
3342	35687	I was planning on calling you after I saw your revisions.	I was planning on calling you after I saw your revisions.	1702276	1471972118655	1471972118759		80
3342	35687	I was planning on calling you after I saw your revisions.	I was planning on calling you after I saw your revisions.	1702287	1471972118903	1471972118975		76
3342	35687	I was planning on calling you after I saw your revisions.	I was planning on calling you after I saw your revisions.	1702296	1471972118991	1471972119191		65
3342	35687	I was planning on calling you after I saw your revisions.	I was planning on calling you after I saw your revisions.	1702301	1471972119383	1471972119471		78
3342	35687	I was planning on calling you after I saw your revisions.	I was planning on calling you after I saw your revisions.	1702322	1471972119567	1471972119655		78
3342	35687	I was planning on calling you after I saw your revisions.	I was planning on calling you after I saw your revisions.	1702325	1471972119743	1471972119879		73
3342	35687	I was planning on calling you after I saw your revisions.	I was planning on calling you after I saw your revisions.	1702329	1471972119935	1471972120087		78
3342	35687	I was planning on calling you after I saw your revisions.	I was planning on calling you after I saw your revisions.	1702334	1471972120055	1471972120247		71
3342	35687	I was planning on calling you after I saw your revisions.	I was planning on calling you after I saw your revisions.	1702498	1471972120199	1471972120351		32
3342	35687	I was planning on calling you after I saw your revisions.	I was planning on calling you after I saw your revisions.	1702504	1471972120615	1471972120687		79
3342	35687	I was planning on calling you after I saw your revisions.	I was planning on calling you after I saw your revisions.	1702511	1471972120759	1471972120947		78
3342	35687	I was planning on calling you after I saw your revisions.	I was planning on calling you after I saw your revisions.	1702520	1471972120935	1471972121071		32
3342	35687	I was planning on calling you after I saw your revisions.	I was planning on calling you after I saw your revisions.	1702528	1471972121415	1471972121591		67
3342	35687	I was planning on calling you after I saw your revisions.	I was planning on calling you after I saw your revisions.	1702538	1471972121615	1471972121807		65
3342	35687	I was planning on calling you after I saw your revisions.	I was planning on calling you after I saw your revisions.	1702604	1471972121743	1471972121823		76
3342	35687	I was planning on calling you after I saw your revisions.	I was planning on calling you after I saw your revisions.	1702613	1471972121903	1471972121999		76
3342	35687	I was planning on calling you after I saw your revisions.	I was planning on calling you after I saw your revisions.	1702622	1471972122063	1471972122199		73
3342	35687	I was planning on calling you after I saw your revisions.	I was planning on calling you after I saw your revisions.	1702629	1471972122263	1471972122415		78
3342	35687	I was planning on calling you after I saw your revisions.	I was planning on calling you after I saw your revisions.	1702634	1471972122375	1471972122551		71
3342	35687	I was planning on calling you after I saw your revisions.	I was planning on calling you after I saw your revisions.	1702755	1471972122487	1471972122671		32
3342	35687	I was planning on calling you after I saw your revisions.	I was planning on calling you after I saw your revisions.	1702763	1471972122991	1471972123127		89
3342	35687	I was planning on calling you after I saw your revisions.	I was planning on calling you after I saw your revisions.	1702768	1471972123175	1471972123280		79
3342	35687	I was planning on calling you after I saw your revisions.	I was planning on calling you after I saw your revisions.	1702772	1471972123271	1471972123375		85
3342	35687	I was planning on calling you after I saw your revisions.	I was planning on calling you after I saw your revisions.	1702780	1471972123431	1471972123543		32
3342	35687	I was planning on calling you after I saw your revisions.	I was planning on calling you after I saw your revisions.	1702786	1471972123631	1471972123799		65
3342	35687	I was planning on calling you after I saw your revisions.	I was planning on calling you after I saw your revisions.	1702937	1471972124047	1471972124151		71
3342	35687	I was planning on calling you after I saw your revisions.	I was planning on calling you after I saw your revisions.	1702940	1471972124327	1471972124503		69
3342	35687	I was planning on calling you after I saw your revisions.	I was planning on calling you after I saw your revisions.	1702944	1471972124495	1471972124671		82
3342	35687	I was planning on calling you after I saw your revisions.	I was planning on calling you after I saw your revisions.	1702942	1471972124527	1471972124615		84
3342	35687	I was planning on calling you after I saw your revisions.	I was planning on calling you after I saw your revisions.	1702946	1471972125271	1471972125351		8
3342	35687	I was planning on calling you after I saw your revisions.	I was planning on calling you after I saw your revisions.	1703165	1471972125559	1471972125631		8
3342	35687	I was planning on calling you after I saw your revisions.	I was planning on calling you after I saw your revisions.	1703170	1471972125703	1471972125767		8
3342	35687	I was planning on calling you after I saw your revisions.	I was planning on calling you after I saw your revisions.	1703177	1471972125823	1471972125895		8
3342	35687	I was planning on calling you after I saw your revisions.	I was planning on calling you after I saw your revisions.	1703184	1471972126167	1471972126271		71
3342	35687	I was planning on calling you after I saw your revisions.	I was planning on calling you after I saw your revisions.	1703191	1471972126871	1471972127015		8
3342	35687	I was planning on calling you after I saw your revisions.	I was planning on calling you after I saw your revisions.	1703357	1471972127025	1471972127127		70
3342	35687	I was planning on calling you after I saw your revisions.	I was planning on calling you after I saw your revisions.	1703361	1471972127247	1471972127463		69
3342	35687	I was planning on calling you after I saw your revisions.	I was planning on calling you after I saw your revisions.	1703366	1471972127471	1471972127599		84
3342	35687	I was planning on calling you after I saw your revisions.	I was planning on calling you after I saw your revisions.	1703374	1471972128023	1471972128111		8
3342	35687	I was planning on calling you after I saw your revisions.	I was planning on calling you after I saw your revisions.	1703523	1471972128975	1471972129127		8
3342	35687	I was planning on calling you after I saw your revisions.	I was planning on calling you after I saw your revisions.	1703527	1471972129247	1471972129351		8
3342	35687	I was planning on calling you after I saw your revisions.	I was planning on calling you after I saw your revisions.	1703535	1471972129607	1471972129735		84
3342	35687	I was planning on calling you after I saw your revisions.	I was planning on calling you after I saw your revisions.	1703540	1471972129823	1471972129943		69
3342	35687	I was planning on calling you after I saw your revisions.	I was planning on calling you after I saw your revisions.	1703735	1471972129911	1471972130063		82
3342	35687	I was planning on calling you after I saw your revisions.	I was planning on calling you after I saw your revisions.	1703743	1471972130127	1471972130271		32
3342	35687	I was planning on calling you after I saw your revisions.	I was planning on calling you after I saw your revisions.	1703751	1471972130839	1471972130903		73
3342	35687	I was planning on calling you after I saw your revisions.	I was planning on calling you after I saw your revisions.	1703756	1471972131247	1471972131343		8
3342	35687	I was planning on calling you after I saw your revisions.	I was planning on calling you after I saw your revisions.	1703775	1471972131391	1471972131743	SHIFT	16
3342	35687	I was planning on calling you after I saw your revisions.	I was planning on calling you after I saw your revisions.	1703768	1471972131535	1471972131663		73
3342	35687	I was planning on calling you after I saw your revisions.	I was planning on calling you after I saw your revisions.	1704003	1471972131711	1471972131887		32
3342	35687	I was planning on calling you after I saw your revisions.	I was planning on calling you after I saw your revisions.	1704010	1471972132143	1471972132287		83
3342	35687	I was planning on calling you after I saw your revisions.	I was planning on calling you after I saw your revisions.	1704018	1471972132295	1471972132487		65
3342	35687	I was planning on calling you after I saw your revisions.	I was planning on calling you after I saw your revisions.	1704025	1471972132735	1471972132879		87
3342	35687	I was planning on calling you after I saw your revisions.	I was planning on calling you after I saw your revisions.	1704034	1471972132911	1471972133063		32
3342	35687	I was planning on calling you after I saw your revisions.	I was planning on calling you after I saw your revisions.	1704041	1471972133479	1471972133599		89
3342	35687	I was planning on calling you after I saw your revisions.	I was planning on calling you after I saw your revisions.	1704156	1471972133623	1471972133767		79
3342	35687	I was planning on calling you after I saw your revisions.	I was planning on calling you after I saw your revisions.	1704163	1471972133815	1471972133919		85
3342	35687	I was planning on calling you after I saw your revisions.	I was planning on calling you after I saw your revisions.	1704170	1471972134111	1471972134303		82
3342	35687	I was planning on calling you after I saw your revisions.	I was planning on calling you after I saw your revisions.	1704176	1471972134311	1471972134463		32
3342	35687	I was planning on calling you after I saw your revisions.	I was planning on calling you after I saw your revisions.	1704183	1471972134815	1471972134951		82
3342	35687	I was planning on calling you after I saw your revisions.	I was planning on calling you after I saw your revisions.	1704270	1471972134999	1471972135167		69
3342	35687	I was planning on calling you after I saw your revisions.	I was planning on calling you after I saw your revisions.	1704276	1471972135518	1471972135687		86
3342	35687	I was planning on calling you after I saw your revisions.	I was planning on calling you after I saw your revisions.	1704288	1471972135719	1471972135855		73
3342	35687	I was planning on calling you after I saw your revisions.	I was planning on calling you after I saw your revisions.	1704296	1471972135903	1471972136087		83
3342	35687	I was planning on calling you after I saw your revisions.	I was planning on calling you after I saw your revisions.	1704502	1471972136063	1471972136183		73
3342	35687	I was planning on calling you after I saw your revisions.	I was planning on calling you after I saw your revisions.	1704512	1471972136527	1471972136639		79
3342	35687	I was planning on calling you after I saw your revisions.	I was planning on calling you after I saw your revisions.	1704520	1471972136759	1471972136887		78
3342	35687	I was planning on calling you after I saw your revisions.	I was planning on calling you after I saw your revisions.	1704529	1471972137055	1471972137159		68
3342	35687	I was planning on calling you after I saw your revisions.	I was planning on calling you after I saw your revisions.	1704643	1471972137495	1471972137551		61
3342	35687	I was planning on calling you after I saw your revisions.	I was planning on calling you after I saw your revisions.	1704534	1471972137503	1471972137535	BKSP	8
3342	35687	I was planning on calling you after I saw your revisions.	I was planning on calling you after I saw your revisions.	1704647	1471972137559	1471972137727		83
3342	35687	I was planning on calling you after I saw your revisions.	I was planning on calling you after I saw your revisions.	1704650	1471972137911	1471972137967		8
3342	35687	I was planning on calling you after I saw your revisions.	I was planning on calling you after I saw your revisions.	1704656	1471972138063	1471972138135		8
3342	35687	I was planning on calling you after I saw your revisions.	I was planning on calling you after I saw your revisions.	1704662	1471972138247	1471972138367		83
3342	35687	I was planning on calling you after I saw your revisions.	I was planning on calling you after I saw your revisions.	1704665	1471972138415	1471972138543		76
3342	35687	I was planning on calling you after I saw your revisions.	I was planning on calling you after I saw your revisions.	1705046	1471972139103	1471972139183		61
3342	35687	I was planning on calling you after I saw your revisions.	I was planning on calling you after I saw your revisions.	1705049	1471972139559	1471972139607		8
3342	35687	I was planning on calling you after I saw your revisions.	I was planning on calling you after I saw your revisions.	1705053	1471972139703	1471972139799		8
3342	35687	I was planning on calling you after I saw your revisions.	I was planning on calling you after I saw your revisions.	1705056	1471972140839	1471972140903		8
3342	35687	I was planning on calling you after I saw your revisions.	I was planning on calling you after I saw your revisions.	1705059	1471972141583	1471972141719		83
3342	35687	I was planning on calling you after I saw your revisions.	I was planning on calling you after I saw your revisions.	1705119	1471972141799	1471972141887		190
3342	35768	Will you come get me?	Will you come get me?	1706170	1471972148151	1471972149711	SHIFT	16
3342	35768	Will you come get me?	Will you come get me?	1706183	1471972149607	1471972149719		87
3342	35768	Will you come get me?	Will you come get me?	1706195	1471972149839	1471972149959		73
3342	35768	Will you come get me?	Will you come get me?	1706203	1471972150047	1471972150135		76
3342	35768	Will you come get me?	Will you come get me?	1706214	1471972150231	1471972150311		76
3342	35768	Will you come get me?	Will you come get me?	1706223	1471972150343	1471972150487		32
3342	35768	Will you come get me?	Will you come get me?	1706327	1471972150630	1471972150751		89
3342	35768	Will you come get me?	Will you come get me?	1706336	1471972150775	1471972150943		79
3342	35768	Will you come get me?	Will you come get me?	1706345	1471972150951	1471972151047		85
3342	35768	Will you come get me?	Will you come get me?	1706354	1471972151135	1471972151247		32
3342	35768	Will you come get me?	Will you come get me?	1706367	1471972151503	1471972151687		67
3342	35768	Will you come get me?	Will you come get me?	1706534	1471972151631	1471972151751		79
3342	35768	Will you come get me?	Will you come get me?	1706539	1471972151879	1471972151991		78
3342	35768	Will you come get me?	Will you come get me?	1706543	1471972151927	1471972152111		69
3342	35768	Will you come get me?	Will you come get me?	1706550	1471972152351	1471972152383		61
3342	35768	Will you come get me?	Will you come get me?	1706555	1471972152471	1471972152639		8
3342	35768	Will you come get me?	Will you come get me?	1706562	1471972152775	1471972152839		8
3342	35768	Will you come get me?	Will you come get me?	1706791	1471972152911	1471972152999		8
3342	35768	Will you come get me?	Will you come get me?	1706799	1471972153159	1471972153279		77
3342	35768	Will you come get me?	Will you come get me?	1706807	1471972153263	1471972153447		69
3342	35768	Will you come get me?	Will you come get me?	1706813	1471972153375	1471972153527		32
3342	35768	Will you come get me?	Will you come get me?	1706821	1471972154599	1471972154711		71
3342	35768	Will you come get me?	Will you come get me?	1706980	1471972154847	1471972155007		69
3342	35768	Will you come get me?	Will you come get me?	1706993	1471972155207	1471972155383		84
3342	35768	Will you come get me?	Will you come get me?	1707006	1471972155847	1471972155975		8
3342	35768	Will you come get me?	Will you come get me?	1707015	1471972156079	1471972156255		32
3342	35768	Will you come get me?	Will you come get me?	1707233	1471972156495	1471972156639		77
3342	35768	Will you come get me?	Will you come get me?	1707242	1471972156567	1471972156759		69
3342	35768	Will you come get me?	Will you come get me?	1707258	1471972157327	1471972157751	SHIFT	16
3342	35768	Will you come get me?	Will you come get me?	1707252	1471972157487	1471972157607		191
