PARTICIPANT_ID	TEST_SECTION_ID	SENTENCE	USER_INPUT	KEYSTROKE_ID	PRESS_TIME	RELEASE_TIME	LETTER	KEYCODE
3403	36106	I'll ask, he just came by.	I'll ask, he just came by.	1723289	1471972341910	1471972342885	SHIFT	16
3403	36106	I'll ask, he just came by.	I'll ask, he just came by.	1723292	1471972342850	1471972343012	I	73
3403	36106	I'll ask, he just came by.	I'll ask, he just came by.	1723298	1471972343342	1471972343436	'	222
3403	36106	I'll ask, he just came by.	I'll ask, he just came by.	1723305	1471972344060	1471972344173	l	76
3403	36106	I'll ask, he just came by.	I'll ask, he just came by.	1723309	1471972344253	1471972344483	l	76
3403	36106	I'll ask, he just came by.	I'll ask, he just came by.	1723316	1471972344533	1471972344700	 	32
3403	36106	I'll ask, he just came by.	I'll ask, he just came by.	1723559	1471972344891	1471972345066	a	65
3403	36106	I'll ask, he just came by.	I'll ask, he just came by.	1723564	1471972345127	1471972345540	s	83
3403	36106	I'll ask, he just came by.	I'll ask, he just came by.	1723571	1471972346686	1471972346826	k	75
3403	36106	I'll ask, he just came by.	I'll ask, he just came by.	1723577	1471972347916	1471972348068	,	188
3403	36106	I'll ask, he just came by.	I'll ask, he just came by.	1723584	1471972348188	1471972348316	 	32
3403	36106	I'll ask, he just came by.	I'll ask, he just came by.	1723848	1471972349173	1471972349309	h	72
3403	36106	I'll ask, he just came by.	I'll ask, he just came by.	1723851	1471972349539	1471972349666	e	69
3403	36106	I'll ask, he just came by.	I'll ask, he just came by.	1723853	1471972349726	1471972349869	 	32
3403	36106	I'll ask, he just came by.	I'll ask, he just came by.	1723857	1471972351119	1471972351229	j	74
3403	36106	I'll ask, he just came by.	I'll ask, he just came by.	1723861	1471972351469	1471972351583	u	85
3403	36106	I'll ask, he just came by.	I'll ask, he just came by.	1724028	1471972351694	1471972351843	s	83
3403	36106	I'll ask, he just came by.	I'll ask, he just came by.	1724031	1471972352133	1471972352246	t	84
3403	36106	I'll ask, he just came by.	I'll ask, he just came by.	1724035	1471972352246	1471972352356	 	32
3403	36106	I'll ask, he just came by.	I'll ask, he just came by.	1724039	1471972352978	1471972353109	c	67
3403	36106	I'll ask, he just came by.	I'll ask, he just came by.	1724043	1471972353229	1471972353379	a	65
3403	36106	I'll ask, he just came by.	I'll ask, he just came by.	1724198	1471972353500	1471972353646	m	77
3403	36106	I'll ask, he just came by.	I'll ask, he just came by.	1724205	1471972353786	1471972353909	e	69
3403	36106	I'll ask, he just came by.	I'll ask, he just came by.	1724212	1471972353959	1471972354093	 	32
3403	36106	I'll ask, he just came by.	I'll ask, he just came by.	1724216	1471972354423	1471972354539	b	66
3403	36106	I'll ask, he just came by.	I'll ask, he just came by.	1724220	1471972354909	1471972355023	y	89
3403	36106	I'll ask, he just came by.	I'll ask, he just came by.	1724360	1471972356128	1471972356209	.	190
3403	36138	Do you know anything?	Do you know anything.	1724892	1471972360682	1471972362005	SHIFT	16
3403	36138	Do you know anything?	Do you know anything.	1724899	1471972361958	1471972362089	D	68
3403	36138	Do you know anything?	Do you know anything.	1724908	1471972362309	1471972362509	o	79
3403	36138	Do you know anything?	Do you know anything.	1724913	1471972362481	1471972362619	 	32
3403	36138	Do you know anything?	Do you know anything.	1724916	1471972362890	1471972362956	y	89
3403	36138	Do you know anything?	Do you know anything.	1724919	1471972363266	1471972363422	o	79
3403	36138	Do you know anything?	Do you know anything.	1725295	1471972363593	1471972363646	i	85
3403	36138	Do you know anything?	Do you know anything.	1725303	1471972364476	1471972364601	=	187
3403	36138	Do you know anything?	Do you know anything.	1725310	1471972365468	1471972365532	BKSP	8
3403	36138	Do you know anything?	Do you know anything.	1725316	1471972365652	1471972365715	BKSP	8
3403	36138	Do you know anything?	Do you know anything.	1725323	1471972366395	1471972366505	 	32
3403	36138	Do you know anything?	Do you know anything.	1725330	1471972367532	1471972367615	k	75
3403	36138	Do you know anything?	Do you know anything.	1725414	1471972367785	1471972367860	n	78
3403	36138	Do you know anything?	Do you know anything.	1725417	1471972368029	1471972368159	o	79
3403	36138	Do you know anything?	Do you know anything.	1725422	1471972368519	1471972368653	w	87
3403	36138	Do you know anything?	Do you know anything.	1725427	1471972368709	1471972368842	 	32
3403	36138	Do you know anything?	Do you know anything.	1725433	1471972368852	1471972369012	a	65
3403	36138	Do you know anything?	Do you know anything.	1725520	1471972369132	1471972369254	n	78
3403	36138	Do you know anything?	Do you know anything.	1725525	1471972369496	1471972369572	y	89
3403	36138	Do you know anything?	Do you know anything.	1725529	1471972369782	1471972369924	t	84
3403	36138	Do you know anything?	Do you know anything.	1725535	1471972369924	1471972370030	h	72
3403	36138	Do you know anything?	Do you know anything.	1725540	1471972370150	1471972370246	i	73
3403	36138	Do you know anything?	Do you know anything.	1725677	1471972370666	1471972370753	n	78
3403	36138	Do you know anything?	Do you know anything.	1725686	1471972371073	1471972371186	g	71
3403	36138	Do you know anything?	Do you know anything.	1725691	1471972371803	1471972371863	.	190
3403	36170	I am out of town until Friday.	I am out of town until Friday.	1726360	1471972378654	1471972379429	SHIFT	16
3403	36170	I am out of town until Friday.	I am out of town until Friday.	1726371	1471972379323	1471972379509	I	73
3403	36170	I am out of town until Friday.	I am out of town until Friday.	1726381	1471972379549	1471972379686	 	32
3403	36170	I am out of town until Friday.	I am out of town until Friday.	1726390	1471972380026	1471972380189	a	65
3403	36170	I am out of town until Friday.	I am out of town until Friday.	1726398	1471972380741	1471972380937	m	77
3403	36170	I am out of town until Friday.	I am out of town until Friday.	1726400	1471972380937	1471972381076	 	32
3403	36170	I am out of town until Friday.	I am out of town until Friday.	1726567	1471972381897	1471972382006	o	79
3403	36170	I am out of town until Friday.	I am out of town until Friday.	1726576	1471972382136	1471972382236	u	85
3403	36170	I am out of town until Friday.	I am out of town until Friday.	1726588	1471972382416	1471972382526	t	84
3403	36170	I am out of town until Friday.	I am out of town until Friday.	1726599	1471972382644	1471972382726	 	32
3403	36170	I am out of town until Friday.	I am out of town until Friday.	1726608	1471972383056	1471972383212	o	79
3403	36170	I am out of town until Friday.	I am out of town until Friday.	1726773	1471972383383	1471972383514	f	70
3403	36170	I am out of town until Friday.	I am out of town until Friday.	1726777	1471972383534	1471972383656	 	32
3403	36170	I am out of town until Friday.	I am out of town until Friday.	1726780	1471972383656	1471972383792	t	84
3403	36170	I am out of town until Friday.	I am out of town until Friday.	1726785	1471972383862	1471972383942	h	72
3403	36170	I am out of town until Friday.	I am out of town until Friday.	1726790	1471972384614	1471972384722	BKSP	8
3403	36170	I am out of town until Friday.	I am out of town until Friday.	1726797	1471972385092	1471972385125	p	80
3403	36170	I am out of town until Friday.	I am out of town until Friday.	1727086	1471972385596	1471972385676	BKSP	8
3403	36170	I am out of town until Friday.	I am out of town until Friday.	1727089	1471972385986	1471972386066	o	79
3403	36170	I am out of town until Friday.	I am out of town until Friday.	1727091	1471972386526	1471972386629	w	87
3403	36170	I am out of town until Friday.	I am out of town until Friday.	1727095	1471972387646	1471972387716	n	78
3403	36170	I am out of town until Friday.	I am out of town until Friday.	1727100	1471972387966	1471972388047	 	32
3403	36170	I am out of town until Friday.	I am out of town until Friday.	1727106	1471972388906	1471972388972	u	85
3403	36170	I am out of town until Friday.	I am out of town until Friday.	1727372	1471972389153	1471972389229	n	78
3403	36170	I am out of town until Friday.	I am out of town until Friday.	1727377	1471972389570	1471972389699	t	84
3403	36170	I am out of town until Friday.	I am out of town until Friday.	1727382	1471972389869	1471972389939	i	73
3403	36170	I am out of town until Friday.	I am out of town until Friday.	1727386	1471972390253	1471972390332	l	76
3403	36170	I am out of town until Friday.	I am out of town until Friday.	1727396	1471972392322	1471972392459	 	32
3403	36170	I am out of town until Friday.	I am out of town until Friday.	1727832	1471972393092	1471972393745	SHIFT	16
3403	36170	I am out of town until Friday.	I am out of town until Friday.	1727828	1471972393619	1471972393693	F	70
3403	36170	I am out of town until Friday.	I am out of town until Friday.	1727842	1471972393825	1471972393889	r	82
3403	36170	I am out of town until Friday.	I am out of town until Friday.	1727850	1471972394460	1471972394542	i	73
3403	36170	I am out of town until Friday.	I am out of town until Friday.	1727853	1471972397935	1471972398005	f	70
3403	36170	I am out of town until Friday.	I am out of town until Friday.	1727858	1471972398102	1471972398242	a	65
3403	36170	I am out of town until Friday.	I am out of town until Friday.	1728679	1471972404135	1471972404195	BKSP	8
3403	36170	I am out of town until Friday.	I am out of town until Friday.	1728684	1471972404319	1471972404389	BKSP	8
3403	36170	I am out of town until Friday.	I am out of town until Friday.	1728690	1471972404880	1471972404958	d	68
3403	36170	I am out of town until Friday.	I am out of town until Friday.	1728694	1471972405118	1471972405278	a	65
3403	36170	I am out of town until Friday.	I am out of town until Friday.	1728696	1471972405952	1471972406021	y	89
3403	36170	I am out of town until Friday.	I am out of town until Friday.	1728701	1471972407201	1471972407271	.	190
3403	36232	his will be hard.	his will be hard.	1729218	1471972411920	1471972412069	h	72
3403	36232	his will be hard.	his will be hard.	1729223	1471972412119	1471972412228	i	73
3403	36232	his will be hard.	his will be hard.	1729228	1471972412588	1471972412757	s	83
3403	36232	his will be hard.	his will be hard.	1729233	1471972412827	1471972412958	 	32
3403	36232	his will be hard.	his will be hard.	1729238	1471972414638	1471972414799	w	87
3403	36232	his will be hard.	his will be hard.	1729380	1471972415384	1471972415494	i	73
3403	36232	his will be hard.	his will be hard.	1729384	1471972415651	1471972415754	l	76
3403	36232	his will be hard.	his will be hard.	1729391	1471972415834	1471972415989	l	76
3403	36232	his will be hard.	his will be hard.	1729402	1471972416029	1471972416168	 	32
3403	36232	his will be hard.	his will be hard.	1729411	1471972416548	1471972416671	b	66
3403	36232	his will be hard.	his will be hard.	1729548	1471972416821	1471972416978	e	69
3403	36232	his will be hard.	his will be hard.	1729554	1471972417008	1471972417159	 	32
3403	36232	his will be hard.	his will be hard.	1729557	1471972417644	1471972417763	h	72
3403	36232	his will be hard.	his will be hard.	1729562	1471972417763	1471972417951	a	65
3403	36232	his will be hard.	his will be hard.	1729564	1471972418251	1471972418381	r	82
3403	36232	his will be hard.	his will be hard.	1729812	1471972419238	1471972419364	d	68
3403	36232	his will be hard.	his will be hard.	1729818	1471972420421	1471972420528	.	190
3403	36251	The Fed has not taken an official position on the issue.	The Fed has not taken an official position on the issue.	1730245	1471972424803	1471972425531	SHIFT	16
3403	36251	The Fed has not taken an official position on the issue.	The Fed has not taken an official position on the issue.	1730251	1471972425461	1471972425591	T	84
3403	36251	The Fed has not taken an official position on the issue.	The Fed has not taken an official position on the issue.	1730256	1471972425571	1471972425717	h	72
3403	36251	The Fed has not taken an official position on the issue.	The Fed has not taken an official position on the issue.	1730260	1471972425787	1471972425964	e	69
3403	36251	The Fed has not taken an official position on the issue.	The Fed has not taken an official position on the issue.	1730265	1471972425974	1471972426094	 	32
3403	36251	The Fed has not taken an official position on the issue.	The Fed has not taken an official position on the issue.	1730271	1471972426997	1471972427344	SHIFT	16
3403	36251	The Fed has not taken an official position on the issue.	The Fed has not taken an official position on the issue.	1730531	1471972427284	1471972427435	F	70
3403	36251	The Fed has not taken an official position on the issue.	The Fed has not taken an official position on the issue.	1730533	1471972427495	1471972427614	e	69
3403	36251	The Fed has not taken an official position on the issue.	The Fed has not taken an official position on the issue.	1730535	1471972429232	1471972429394	d	68
3403	36251	The Fed has not taken an official position on the issue.	The Fed has not taken an official position on the issue.	1730537	1471972429414	1471972429575	 	32
3403	36251	The Fed has not taken an official position on the issue.	The Fed has not taken an official position on the issue.	1730540	1471972430451	1471972430531	h	72
3403	36251	The Fed has not taken an official position on the issue.	The Fed has not taken an official position on the issue.	1730543	1471972430741	1471972430972	a	65
3403	36251	The Fed has not taken an official position on the issue.	The Fed has not taken an official position on the issue.	1730703	1471972431172	1471972431307	s	83
3403	36251	The Fed has not taken an official position on the issue.	The Fed has not taken an official position on the issue.	1730706	1471972431407	1471972431540	 	32
3403	36251	The Fed has not taken an official position on the issue.	The Fed has not taken an official position on the issue.	1730708	1471972431992	1471972432125	n	78
3403	36251	The Fed has not taken an official position on the issue.	The Fed has not taken an official position on the issue.	1730711	1471972432427	1471972432578	o	79
3403	36251	The Fed has not taken an official position on the issue.	The Fed has not taken an official position on the issue.	1730715	1471972433090	1471972433252	t	84
3403	36251	The Fed has not taken an official position on the issue.	The Fed has not taken an official position on the issue.	1730881	1471972433262	1471972433410	 	32
3403	36251	The Fed has not taken an official position on the issue.	The Fed has not taken an official position on the issue.	1730886	1471972433964	1471972434068	t	84
3403	36251	The Fed has not taken an official position on the issue.	The Fed has not taken an official position on the issue.	1730891	1471972434188	1471972434345	a	65
3403	36251	The Fed has not taken an official position on the issue.	The Fed has not taken an official position on the issue.	1730896	1471972434645	1471972434764	k	75
3403	36251	The Fed has not taken an official position on the issue.	The Fed has not taken an official position on the issue.	1730902	1471972435004	1471972435140	e	69
3403	36251	The Fed has not taken an official position on the issue.	The Fed has not taken an official position on the issue.	1731169	1471972435734	1471972435844	n	78
3403	36251	The Fed has not taken an official position on the issue.	The Fed has not taken an official position on the issue.	1731172	1471972435961	1471972436117	 	32
3403	36251	The Fed has not taken an official position on the issue.	The Fed has not taken an official position on the issue.	1731180	1471972436177	1471972436317	a	65
3403	36251	The Fed has not taken an official position on the issue.	The Fed has not taken an official position on the issue.	1731184	1471972436707	1471972436847	m	77
3403	36251	The Fed has not taken an official position on the issue.	The Fed has not taken an official position on the issue.	1731187	1471972437724	1471972437835	BKSP	8
3403	36251	The Fed has not taken an official position on the issue.	The Fed has not taken an official position on the issue.	1731190	1471972438155	1471972438240	n	78
3403	36251	The Fed has not taken an official position on the issue.	The Fed has not taken an official position on the issue.	1731344	1471972438361	1471972438485	 	32
3403	36251	The Fed has not taken an official position on the issue.	The Fed has not taken an official position on the issue.	1731351	1471972438430	1471972438582	a	65
3403	36251	The Fed has not taken an official position on the issue.	The Fed has not taken an official position on the issue.	1731355	1471972439370	1471972439457	o	79
3403	36251	The Fed has not taken an official position on the issue.	The Fed has not taken an official position on the issue.	1731361	1471972439717	1471972439797	f	70
3403	36251	The Fed has not taken an official position on the issue.	The Fed has not taken an official position on the issue.	1731370	1471972439877	1471972439997	f	70
3403	36251	The Fed has not taken an official position on the issue.	The Fed has not taken an official position on the issue.	1731912	1471972440037	1471972440180	i	73
3403	36251	The Fed has not taken an official position on the issue.	The Fed has not taken an official position on the issue.	1731917	1471972440687	1471972440820	c	67
3403	36251	The Fed has not taken an official position on the issue.	The Fed has not taken an official position on the issue.	1731925	1471972441090	1471972441221	i	73
3403	36251	The Fed has not taken an official position on the issue.	The Fed has not taken an official position on the issue.	1731933	1471972441271	1471972441447	a	65
3403	36251	The Fed has not taken an official position on the issue.	The Fed has not taken an official position on the issue.	1731939	1471972443405	1471972443461	BKSP	8
3403	36251	The Fed has not taken an official position on the issue.	The Fed has not taken an official position on the issue.	1731945	1471972443573	1471972443626	BKSP	8
3403	36251	The Fed has not taken an official position on the issue.	The Fed has not taken an official position on the issue.	1731952	1471972443736	1471972443823	BKSP	8
3403	36251	The Fed has not taken an official position on the issue.	The Fed has not taken an official position on the issue.	1731956	1471972443895	1471972443962	BKSP	8
3403	36251	The Fed has not taken an official position on the issue.	The Fed has not taken an official position on the issue.	1731960	1471972444052	1471972444125	BKSP	8
3403	36251	The Fed has not taken an official position on the issue.	The Fed has not taken an official position on the issue.	1731965	1471972444216	1471972444276	BKSP	8
3403	36251	The Fed has not taken an official position on the issue.	The Fed has not taken an official position on the issue.	1731968	1471972444376	1471972444447	BKSP	8
3403	36251	The Fed has not taken an official position on the issue.	The Fed has not taken an official position on the issue.	1731974	1471972444807	1471972444879	BKSP	8
3403	36251	The Fed has not taken an official position on the issue.	The Fed has not taken an official position on the issue.	1731978	1471972446376	1471972446456	o	79
3403	36251	The Fed has not taken an official position on the issue.	The Fed has not taken an official position on the issue.	1732075	1471972446962	1471972447036	f	70
3403	36251	The Fed has not taken an official position on the issue.	The Fed has not taken an official position on the issue.	1732076	1471972447106	1471972447198	f	70
3403	36251	The Fed has not taken an official position on the issue.	The Fed has not taken an official position on the issue.	1732079	1471972447258	1471972447369	i	73
3403	36251	The Fed has not taken an official position on the issue.	The Fed has not taken an official position on the issue.	1732082	1471972447821	1471972447935	c	67
3403	36251	The Fed has not taken an official position on the issue.	The Fed has not taken an official position on the issue.	1732087	1471972448381	1471972448465	i	73
3403	36251	The Fed has not taken an official position on the issue.	The Fed has not taken an official position on the issue.	1732287	1471972448566	1471972448745	a	65
3403	36251	The Fed has not taken an official position on the issue.	The Fed has not taken an official position on the issue.	1732294	1471972450089	1471972450172	l	76
3403	36251	The Fed has not taken an official position on the issue.	The Fed has not taken an official position on the issue.	1732301	1471972450341	1471972450392	 	32
3403	36251	The Fed has not taken an official position on the issue.	The Fed has not taken an official position on the issue.	1732306	1471972450710	1471972450796	p	80
3403	36251	The Fed has not taken an official position on the issue.	The Fed has not taken an official position on the issue.	1732313	1471972450916	1471972450995	o	79
3403	36251	The Fed has not taken an official position on the issue.	The Fed has not taken an official position on the issue.	1732415	1471972451358	1471972451489	s	83
3403	36251	The Fed has not taken an official position on the issue.	The Fed has not taken an official position on the issue.	1732417	1471972451571	1471972451652	i	73
3403	36251	The Fed has not taken an official position on the issue.	The Fed has not taken an official position on the issue.	1732422	1471972451942	1471972452029	t	84
3403	36251	The Fed has not taken an official position on the issue.	The Fed has not taken an official position on the issue.	1732426	1471972452439	1471972452502	i	73
3403	36251	The Fed has not taken an official position on the issue.	The Fed has not taken an official position on the issue.	1732432	1471972452612	1471972452685	o	79
3403	36251	The Fed has not taken an official position on the issue.	The Fed has not taken an official position on the issue.	1732687	1471972453456	1471972453528	n	78
3403	36251	The Fed has not taken an official position on the issue.	The Fed has not taken an official position on the issue.	1732692	1471972453668	1471972453765	 	32
3403	36251	The Fed has not taken an official position on the issue.	The Fed has not taken an official position on the issue.	1732698	1471972455115	1471972455235	o	79
3403	36251	The Fed has not taken an official position on the issue.	The Fed has not taken an official position on the issue.	1732704	1471972455405	1471972455499	n	78
3403	36251	The Fed has not taken an official position on the issue.	The Fed has not taken an official position on the issue.	1732706	1471972455601	1471972455739	 	32
3403	36251	The Fed has not taken an official position on the issue.	The Fed has not taken an official position on the issue.	1732827	1471972455930	1471972456042	t	84
3403	36251	The Fed has not taken an official position on the issue.	The Fed has not taken an official position on the issue.	1732833	1471972456042	1471972456140	h	72
3403	36251	The Fed has not taken an official position on the issue.	The Fed has not taken an official position on the issue.	1732839	1471972456534	1471972456692	e	69
3403	36251	The Fed has not taken an official position on the issue.	The Fed has not taken an official position on the issue.	1732846	1471972456692	1471972456848	 	32
3403	36251	The Fed has not taken an official position on the issue.	The Fed has not taken an official position on the issue.	1732853	1471972457018	1471972457116	i	73
3403	36251	The Fed has not taken an official position on the issue.	The Fed has not taken an official position on the issue.	1733066	1471972457226	1471972457325	s	83
3403	36251	The Fed has not taken an official position on the issue.	The Fed has not taken an official position on the issue.	1733075	1471972457405	1471972457525	s	83
3403	36251	The Fed has not taken an official position on the issue.	The Fed has not taken an official position on the issue.	1733084	1471972457667	1471972457755	u	85
3403	36251	The Fed has not taken an official position on the issue.	The Fed has not taken an official position on the issue.	1733095	1471972458085	1471972458189	e	69
3403	36251	The Fed has not taken an official position on the issue.	The Fed has not taken an official position on the issue.	1733105	1471972459563	1471972459635	.	190
3403	36316	Police and the alleged bank robbers exchanged fire.	Police and the alleged bank robbers exchanged files.	1733761	1471972464366	1471972465406	SHIFT	16
3403	36316	Police and the alleged bank robbers exchanged fire.	Police and the alleged bank robbers exchanged files.	1733758	1471972465229	1471972465326	P	80
3403	36316	Police and the alleged bank robbers exchanged fire.	Police and the alleged bank robbers exchanged files.	1733767	1471972465436	1471972465532	o	79
3403	36316	Police and the alleged bank robbers exchanged fire.	Police and the alleged bank robbers exchanged files.	1733772	1471972465650	1471972465729	l	76
3403	36316	Police and the alleged bank robbers exchanged fire.	Police and the alleged bank robbers exchanged files.	1733776	1471972465879	1471972465961	i	73
3403	36316	Police and the alleged bank robbers exchanged fire.	Police and the alleged bank robbers exchanged files.	1733782	1471972466799	1471972467029	c	67
3403	36316	Police and the alleged bank robbers exchanged fire.	Police and the alleged bank robbers exchanged files.	1733993	1471972467230	1471972467382	e	69
3403	36316	Police and the alleged bank robbers exchanged fire.	Police and the alleged bank robbers exchanged files.	1734001	1471972467462	1471972467589	 	32
3403	36316	Police and the alleged bank robbers exchanged fire.	Police and the alleged bank robbers exchanged files.	1734007	1471972467821	1471972467978	a	65
3403	36316	Police and the alleged bank robbers exchanged fire.	Police and the alleged bank robbers exchanged files.	1734020	1471972468278	1471972468436	n	78
3403	36316	Police and the alleged bank robbers exchanged fire.	Police and the alleged bank robbers exchanged files.	1734028	1471972469741	1471972469845	d	68
3403	36316	Police and the alleged bank robbers exchanged fire.	Police and the alleged bank robbers exchanged files.	1734258	1471972469965	1471972470089	 	32
3403	36316	Police and the alleged bank robbers exchanged fire.	Police and the alleged bank robbers exchanged files.	1734261	1471972470229	1471972470356	h	72
3403	36316	Police and the alleged bank robbers exchanged fire.	Police and the alleged bank robbers exchanged files.	1734267	1471972470456	1471972470609	e	69
3403	36316	Police and the alleged bank robbers exchanged fire.	Police and the alleged bank robbers exchanged files.	1734273	1471972470659	1471972470759	 	32
3403	36316	Police and the alleged bank robbers exchanged fire.	Police and the alleged bank robbers exchanged files.	1734279	1471972471672	1471972471742	BKSP	8
3403	36316	Police and the alleged bank robbers exchanged fire.	Police and the alleged bank robbers exchanged files.	1734287	1471972471852	1471972471919	BKSP	8
3403	36316	Police and the alleged bank robbers exchanged fire.	Police and the alleged bank robbers exchanged files.	1734295	1471972471999	1471972472054	BKSP	8
3403	36316	Police and the alleged bank robbers exchanged fire.	Police and the alleged bank robbers exchanged files.	1734302	1471972472781	1471972472912	t	84
3403	36316	Police and the alleged bank robbers exchanged fire.	Police and the alleged bank robbers exchanged files.	1734365	1471972472912	1471972473035	h	72
3403	36316	Police and the alleged bank robbers exchanged fire.	Police and the alleged bank robbers exchanged files.	1734370	1471972473165	1471972473295	e	69
3403	36316	Police and the alleged bank robbers exchanged fire.	Police and the alleged bank robbers exchanged files.	1734378	1471972473405	1471972473520	 	32
3403	36316	Police and the alleged bank robbers exchanged fire.	Police and the alleged bank robbers exchanged files.	1734384	1471972473660	1471972473853	a	65
3403	36316	Police and the alleged bank robbers exchanged fire.	Police and the alleged bank robbers exchanged files.	1734393	1471972474003	1471972474073	l	76
3403	36316	Police and the alleged bank robbers exchanged fire.	Police and the alleged bank robbers exchanged files.	1734543	1471972474164	1471972474276	l	76
3403	36316	Police and the alleged bank robbers exchanged fire.	Police and the alleged bank robbers exchanged files.	1734548	1471972474366	1471972474476	e	69
3403	36316	Police and the alleged bank robbers exchanged fire.	Police and the alleged bank robbers exchanged files.	1734554	1471972474837	1471972474933	d	68
3403	36316	Police and the alleged bank robbers exchanged fire.	Police and the alleged bank robbers exchanged files.	1734561	1471972476223	1471972476336	g	71
3403	36316	Police and the alleged bank robbers exchanged fire.	Police and the alleged bank robbers exchanged files.	1734567	1471972476376	1471972476496	e	69
3403	36316	Police and the alleged bank robbers exchanged fire.	Police and the alleged bank robbers exchanged files.	1735134	1471972479650	1471972479710	BKSP	8
3403	36316	Police and the alleged bank robbers exchanged fire.	Police and the alleged bank robbers exchanged files.	1735137	1471972479816	1471972479886	BKSP	8
3403	36316	Police and the alleged bank robbers exchanged fire.	Police and the alleged bank robbers exchanged files.	1735144	1471972479976	1471972480046	BKSP	8
3403	36316	Police and the alleged bank robbers exchanged fire.	Police and the alleged bank robbers exchanged files.	1735150	1471972481836	1471972481907	g	71
3403	36316	Police and the alleged bank robbers exchanged fire.	Police and the alleged bank robbers exchanged files.	1735156	1471972482027	1471972482126	e	69
3403	36316	Police and the alleged bank robbers exchanged fire.	Police and the alleged bank robbers exchanged files.	1735160	1471972482346	1471972482473	d	68
3403	36316	Police and the alleged bank robbers exchanged fire.	Police and the alleged bank robbers exchanged files.	1735167	1471972482543	1471972482663	 	32
3403	36316	Police and the alleged bank robbers exchanged fire.	Police and the alleged bank robbers exchanged files.	1735173	1471972483154	1471972483239	b	66
3403	36316	Police and the alleged bank robbers exchanged fire.	Police and the alleged bank robbers exchanged files.	1735296	1471972483329	1471972483501	a	65
3403	36316	Police and the alleged bank robbers exchanged fire.	Police and the alleged bank robbers exchanged files.	1735302	1471972483671	1471972483756	n	78
3403	36316	Police and the alleged bank robbers exchanged fire.	Police and the alleged bank robbers exchanged files.	1735308	1471972483976	1471972484046	k	75
3403	36316	Police and the alleged bank robbers exchanged fire.	Police and the alleged bank robbers exchanged files.	1735314	1471972484206	1471972484319	 	32
3403	36316	Police and the alleged bank robbers exchanged fire.	Police and the alleged bank robbers exchanged files.	1735319	1471972484767	1471972484871	r	82
3403	36316	Police and the alleged bank robbers exchanged fire.	Police and the alleged bank robbers exchanged files.	1735434	1471972485022	1471972485103	o	79
3403	36316	Police and the alleged bank robbers exchanged fire.	Police and the alleged bank robbers exchanged files.	1735437	1471972485550	1471972485629	b	66
3403	36316	Police and the alleged bank robbers exchanged fire.	Police and the alleged bank robbers exchanged files.	1735440	1471972485719	1471972485816	b	66
3403	36316	Police and the alleged bank robbers exchanged fire.	Police and the alleged bank robbers exchanged files.	1735443	1471972485946	1471972486083	e	69
3403	36316	Police and the alleged bank robbers exchanged fire.	Police and the alleged bank robbers exchanged files.	1735447	1471972486323	1471972486476	r	82
3403	36316	Police and the alleged bank robbers exchanged fire.	Police and the alleged bank robbers exchanged files.	1735729	1471972487501	1471972487599	s	83
3403	36316	Police and the alleged bank robbers exchanged fire.	Police and the alleged bank robbers exchanged files.	1735733	1471972487749	1471972487879	 	32
3403	36316	Police and the alleged bank robbers exchanged fire.	Police and the alleged bank robbers exchanged files.	1735738	1471972488239	1471972488321	e	69
3403	36316	Police and the alleged bank robbers exchanged fire.	Police and the alleged bank robbers exchanged files.	1735743	1471972489286	1471972489382	x	88
3403	36316	Police and the alleged bank robbers exchanged fire.	Police and the alleged bank robbers exchanged files.	1735748	1471972489582	1471972489682	c	67
3403	36316	Police and the alleged bank robbers exchanged fire.	Police and the alleged bank robbers exchanged files.	1735883	1471972489955	1471972490039	h	72
3403	36316	Police and the alleged bank robbers exchanged fire.	Police and the alleged bank robbers exchanged files.	1735886	1471972490109	1471972490246	a	65
3403	36316	Police and the alleged bank robbers exchanged fire.	Police and the alleged bank robbers exchanged files.	1735892	1471972490386	1471972490487	n	78
3403	36316	Police and the alleged bank robbers exchanged fire.	Police and the alleged bank robbers exchanged files.	1735900	1471972491046	1471972491127	g	71
3403	36316	Police and the alleged bank robbers exchanged fire.	Police and the alleged bank robbers exchanged files.	1735909	1471972491257	1471972491349	e	69
3403	36316	Police and the alleged bank robbers exchanged fire.	Police and the alleged bank robbers exchanged files.	1736031	1471972491560	1471972491652	d	68
3403	36316	Police and the alleged bank robbers exchanged fire.	Police and the alleged bank robbers exchanged files.	1736039	1471972491792	1471972491914	 	32
3403	36316	Police and the alleged bank robbers exchanged fire.	Police and the alleged bank robbers exchanged files.	1736044	1471972492044	1471972492122	f	70
3403	36316	Police and the alleged bank robbers exchanged fire.	Police and the alleged bank robbers exchanged files.	1736050	1471972492442	1471972492512	i	73
3403	36316	Police and the alleged bank robbers exchanged fire.	Police and the alleged bank robbers exchanged files.	1736056	1471972492634	1471972492702	l	76
3403	36316	Police and the alleged bank robbers exchanged fire.	Police and the alleged bank robbers exchanged files.	1736257	1471972492932	1471972493006	e	69
3403	36316	Police and the alleged bank robbers exchanged fire.	Police and the alleged bank robbers exchanged files.	1736262	1471972493296	1471972493387	s	83
3403	36316	Police and the alleged bank robbers exchanged fire.	Police and the alleged bank robbers exchanged files.	1736269	1471972494519	1471972494576	.	190
3403	36376	When things get speculative the language always gets scary.	When things get speculative the language always gets scary.	1736844	1471972498589	1471972499379	SHIFT	16
3403	36376	When things get speculative the language always gets scary.	When things get speculative the language always gets scary.	1736848	1471972499259	1471972499409	W	87
3403	36376	When things get speculative the language always gets scary.	When things get speculative the language always gets scary.	1736852	1471972499509	1471972499659	h	72
3403	36376	When things get speculative the language always gets scary.	When things get speculative the language always gets scary.	1736856	1471972500400	1471972500519	e	69
3403	36376	When things get speculative the language always gets scary.	When things get speculative the language always gets scary.	1736862	1471972500901	1471972501009	n	78
3403	36376	When things get speculative the language always gets scary.	When things get speculative the language always gets scary.	1736869	1471972501139	1471972501280	 	32
3403	36376	When things get speculative the language always gets scary.	When things get speculative the language always gets scary.	1737011	1471972502093	1471972502238	t	84
3403	36376	When things get speculative the language always gets scary.	When things get speculative the language always gets scary.	1737016	1471972502213	1471972502346	h	72
3403	36376	When things get speculative the language always gets scary.	When things get speculative the language always gets scary.	1737021	1471972502466	1471972502575	i	73
3403	36376	When things get speculative the language always gets scary.	When things get speculative the language always gets scary.	1737027	1471972502702	1471972502871	n	78
3403	36376	When things get speculative the language always gets scary.	When things get speculative the language always gets scary.	1737036	1471972503030	1471972503160	g	71
3403	36376	When things get speculative the language always gets scary.	When things get speculative the language always gets scary.	1737209	1471972503519	1471972503654	s	83
3403	36376	When things get speculative the language always gets scary.	When things get speculative the language always gets scary.	1737213	1471972503739	1471972503840	 	32
3403	36376	When things get speculative the language always gets scary.	When things get speculative the language always gets scary.	1737219	1471972504171	1471972504343	g	71
3403	36376	When things get speculative the language always gets scary.	When things get speculative the language always gets scary.	1737224	1471972504639	1471972504792	e	69
3403	36376	When things get speculative the language always gets scary.	When things get speculative the language always gets scary.	1737230	1471972504862	1471972505009	t	84
3403	36376	When things get speculative the language always gets scary.	When things get speculative the language always gets scary.	1737483	1471972505199	1471972505329	 	32
3403	36376	When things get speculative the language always gets scary.	When things get speculative the language always gets scary.	1737489	1471972506308	1471972506458	s	83
3403	36376	When things get speculative the language always gets scary.	When things get speculative the language always gets scary.	1737495	1471972507110	1471972507278	p	80
3403	36376	When things get speculative the language always gets scary.	When things get speculative the language always gets scary.	1737504	1471972507278	1471972507375	e	69
3403	36376	When things get speculative the language always gets scary.	When things get speculative the language always gets scary.	1737512	1471972507786	1471972507902	c	67
3403	36376	When things get speculative the language always gets scary.	When things get speculative the language always gets scary.	1737918	1471972510692	1471972510772	u	85
3403	36376	When things get speculative the language always gets scary.	When things get speculative the language always gets scary.	1737922	1471972511182	1471972511272	l	76
3403	36376	When things get speculative the language always gets scary.	When things get speculative the language always gets scary.	1737926	1471972511422	1471972511605	a	65
3403	36376	When things get speculative the language always gets scary.	When things get speculative the language always gets scary.	1737933	1471972512048	1471972512158	t	84
3403	36376	When things get speculative the language always gets scary.	When things get speculative the language always gets scary.	1737938	1471972512278	1471972512385	i	73
3403	36376	When things get speculative the language always gets scary.	When things get speculative the language always gets scary.	1738169	1471972512854	1471972512989	v	86
3403	36376	When things get speculative the language always gets scary.	When things get speculative the language always gets scary.	1738172	1471972514005	1471972514158	e	69
3403	36376	When things get speculative the language always gets scary.	When things get speculative the language always gets scary.	1738177	1471972514158	1471972514318	 	32
3403	36376	When things get speculative the language always gets scary.	When things get speculative the language always gets scary.	1738180	1471972514849	1471972514985	t	84
3403	36376	When things get speculative the language always gets scary.	When things get speculative the language always gets scary.	1738405	1471972514958	1471972515095	h	72
3403	36376	When things get speculative the language always gets scary.	When things get speculative the language always gets scary.	1738409	1471972515285	1471972515421	e	69
3403	36376	When things get speculative the language always gets scary.	When things get speculative the language always gets scary.	1738414	1471972515522	1471972515655	 	32
3403	36376	When things get speculative the language always gets scary.	When things get speculative the language always gets scary.	1738419	1471972516614	1471972516774	l	76
3403	36376	When things get speculative the language always gets scary.	When things get speculative the language always gets scary.	1738424	1471972517024	1471972517177	a	65
3403	36376	When things get speculative the language always gets scary.	When things get speculative the language always gets scary.	1738430	1471972517718	1471972517875	n	78
3403	36376	When things get speculative the language always gets scary.	When things get speculative the language always gets scary.	1738711	1471972518310	1471972518428	g	71
3403	36376	When things get speculative the language always gets scary.	When things get speculative the language always gets scary.	1738716	1471972518638	1471972518769	u	85
3403	36376	When things get speculative the language always gets scary.	When things get speculative the language always gets scary.	1738722	1471972519109	1471972519245	a	65
3403	36376	When things get speculative the language always gets scary.	When things get speculative the language always gets scary.	1738728	1471972519865	1471972519984	g	71
3403	36376	When things get speculative the language always gets scary.	When things get speculative the language always gets scary.	1738734	1471972521134	1471972521285	e	69
3403	36376	When things get speculative the language always gets scary.	When things get speculative the language always gets scary.	1738908	1471972521335	1471972521500	 	32
3403	36376	When things get speculative the language always gets scary.	When things get speculative the language always gets scary.	1738911	1471972522312	1471972522424	a	65
3403	36376	When things get speculative the language always gets scary.	When things get speculative the language always gets scary.	1738914	1471972522844	1471972522977	l	76
3403	36376	When things get speculative the language always gets scary.	When things get speculative the language always gets scary.	1738918	1471972523147	1471972523247	w	87
3403	36376	When things get speculative the language always gets scary.	When things get speculative the language always gets scary.	1738920	1471972523407	1471972523527	a	65
3403	36376	When things get speculative the language always gets scary.	When things get speculative the language always gets scary.	1739012	1471972523973	1471972524093	y	89
3403	36376	When things get speculative the language always gets scary.	When things get speculative the language always gets scary.	1739015	1471972524173	1471972524303	s	83
3403	36376	When things get speculative the language always gets scary.	When things get speculative the language always gets scary.	1739017	1471972524353	1471972524517	 	32
3403	36376	When things get speculative the language always gets scary.	When things get speculative the language always gets scary.	1739021	1471972524889	1471972524997	g	71
3403	36376	When things get speculative the language always gets scary.	When things get speculative the language always gets scary.	1739025	1471972525127	1471972525248	e	69
3403	36376	When things get speculative the language always gets scary.	When things get speculative the language always gets scary.	1739149	1471972525459	1471972525597	t	84
3403	36376	When things get speculative the language always gets scary.	When things get speculative the language always gets scary.	1739153	1471972525978	1471972526100	s	83
3403	36376	When things get speculative the language always gets scary.	When things get speculative the language always gets scary.	1739158	1471972526230	1471972526340	 	32
3403	36376	When things get speculative the language always gets scary.	When things get speculative the language always gets scary.	1739162	1471972526500	1471972526597	s	83
3403	36376	When things get speculative the language always gets scary.	When things get speculative the language always gets scary.	1739167	1471972526797	1471972526877	c	67
3403	36376	When things get speculative the language always gets scary.	When things get speculative the language always gets scary.	1739445	1471972527108	1471972527237	a	65
3403	36376	When things get speculative the language always gets scary.	When things get speculative the language always gets scary.	1739448	1471972527538	1471972527630	r	82
3403	36376	When things get speculative the language always gets scary.	When things get speculative the language always gets scary.	1739453	1471972527957	1471972528067	y	89
3403	36376	When things get speculative the language always gets scary.	When things get speculative the language always gets scary.	1739458	1471972529061	1471972529133	.	190
3403	36438	We will get you a copy.	We will get you a copy.	1739941	1471972533668	1471972534353	SHIFT	16
3403	36438	We will get you a copy.	We will get you a copy.	1739945	1471972534271	1471972534483	W	87
3403	36438	We will get you a copy.	We will get you a copy.	1739951	1471972534523	1471972534663	e	69
3403	36438	We will get you a copy.	We will get you a copy.	1739958	1471972534813	1471972534973	 	32
3403	36438	We will get you a copy.	We will get you a copy.	1739964	1471972535460	1471972535576	w	87
3403	36438	We will get you a copy.	We will get you a copy.	1739971	1471972535903	1471972535966	i	73
3403	36438	We will get you a copy.	We will get you a copy.	1740135	1471972536276	1471972536333	l	76
3403	36438	We will get you a copy.	We will get you a copy.	1740137	1471972536413	1471972536573	l	76
3403	36438	We will get you a copy.	We will get you a copy.	1740140	1471972536623	1471972536793	 	32
3403	36438	We will get you a copy.	We will get you a copy.	1740145	1471972537485	1471972537653	g	71
3403	36438	We will get you a copy.	We will get you a copy.	1740149	1471972537781	1471972537933	e	69
3403	36438	We will get you a copy.	We will get you a copy.	1740276	1471972538005	1471972538144	t	84
3403	36438	We will get you a copy.	We will get you a copy.	1740281	1471972538277	1471972538421	 	32
3403	36438	We will get you a copy.	We will get you a copy.	1740285	1471972538620	1471972538711	y	89
3403	36438	We will get you a copy.	We will get you a copy.	1740287	1471972538853	1471972539004	o	79
3403	36438	We will get you a copy.	We will get you a copy.	1740291	1471972539054	1471972539196	u	85
3403	36438	We will get you a copy.	We will get you a copy.	1740390	1471972539247	1471972539386	 	32
3403	36438	We will get you a copy.	We will get you a copy.	1740400	1471972539646	1471972539795	a	65
3403	36438	We will get you a copy.	We will get you a copy.	1740409	1471972539805	1471972539925	 	32
3403	36438	We will get you a copy.	We will get you a copy.	1740417	1471972540075	1471972540222	c	67
3403	36438	We will get you a copy.	We will get you a copy.	1740425	1471972540603	1471972540755	o	79
3403	36438	We will get you a copy.	We will get you a copy.	1740597	1471972540806	1471972540945	p	80
3403	36438	We will get you a copy.	We will get you a copy.	1740604	1471972541175	1471972541287	y	89
3403	36438	We will get you a copy.	We will get you a copy.	1740609	1471972542145	1471972542245	.	190
3403	36458	Need before board meeting.	Need before board meeting.	1740981	1471972545844	1471972545972	SHIFT	16
3403	36458	Need before board meeting.	Need before board meeting.	1740986	1471972546412	1471972546765	SHIFT	16
3403	36458	Need before board meeting.	Need before board meeting.	1740991	1471972546644	1471972546765	N	78
3403	36458	Need before board meeting.	Need before board meeting.	1740997	1471972546959	1471972547071	e	69
3403	36458	Need before board meeting.	Need before board meeting.	1741002	1471972547151	1471972547255	e	69
3403	36458	Need before board meeting.	Need before board meeting.	1741005	1471972547575	1471972547747	s	83
3403	36458	Need before board meeting.	Need before board meeting.	1741011	1471972547847	1471972547976	 	32
3403	36458	Need before board meeting.	Need before board meeting.	1741314	1471972548588	1471972548668	BKSP	8
3403	36458	Need before board meeting.	Need before board meeting.	1741318	1471972548768	1471972548821	BKSP	8
3403	36458	Need before board meeting.	Need before board meeting.	1741322	1471972549755	1471972549865	d	68
3403	36458	Need before board meeting.	Need before board meeting.	1741329	1471972549975	1471972550117	 	32
3403	36458	Need before board meeting.	Need before board meeting.	1741334	1471972551262	1471972551384	b	66
3403	36458	Need before board meeting.	Need before board meeting.	1741338	1471972551845	1471972551936	e	69
3403	36458	Need before board meeting.	Need before board meeting.	1741343	1471972552326	1471972552451	f	70
3403	36458	Need before board meeting.	Need before board meeting.	1741610	1471972552764	1471972552900	o	79
3403	36458	Need before board meeting.	Need before board meeting.	1741615	1471972553109	1471972553245	r	82
3403	36458	Need before board meeting.	Need before board meeting.	1741620	1471972554782	1471972554918	e	69
3403	36458	Need before board meeting.	Need before board meeting.	1741626	1471972554918	1471972555046	 	32
3403	36458	Need before board meeting.	Need before board meeting.	1741632	1471972556024	1471972556125	b	66
3403	36458	Need before board meeting.	Need before board meeting.	1741836	1471972556254	1471972556374	o	79
3403	36458	Need before board meeting.	Need before board meeting.	1741839	1471972556622	1471972556742	a	65
3403	36458	Need before board meeting.	Need before board meeting.	1741845	1471972556957	1471972557060	r	82
3403	36458	Need before board meeting.	Need before board meeting.	1741849	1471972557981	1471972558101	d	68
3403	36458	Need before board meeting.	Need before board meeting.	1741855	1471972558194	1471972558333	 	32
3403	36458	Need before board meeting.	Need before board meeting.	1741967	1471972558662	1471972558753	m	77
3403	36458	Need before board meeting.	Need before board meeting.	1741971	1471972558894	1471972558984	e	69
3403	36458	Need before board meeting.	Need before board meeting.	1741976	1471972559093	1471972559185	e	69
3403	36458	Need before board meeting.	Need before board meeting.	1741979	1471972559404	1471972559503	t	84
3403	36458	Need before board meeting.	Need before board meeting.	1741982	1471972559753	1471972559851	i	73
3403	36458	Need before board meeting.	Need before board meeting.	1742259	1471972560024	1471972560119	n	78
3403	36458	Need before board meeting.	Need before board meeting.	1742264	1471972560306	1471972560433	g	71
3403	36458	Need before board meeting.	Need before board meeting.	1742268	1471972561718	1471972561787	.	190
3403	36495	Jim please confirm to Vince you are happy.	Jim please confirm to Vince you are happy.	1742698	1471972566839	1471972567501	SHIFT	16
3403	36495	Jim please confirm to Vince you are happy.	Jim please confirm to Vince you are happy.	1742703	1471972567403	1471972567548	J	74
3403	36495	Jim please confirm to Vince you are happy.	Jim please confirm to Vince you are happy.	1742710	1471972567626	1471972567766	i	73
3403	36495	Jim please confirm to Vince you are happy.	Jim please confirm to Vince you are happy.	1742714	1471972568315	1471972568544	m	77
3403	36495	Jim please confirm to Vince you are happy.	Jim please confirm to Vince you are happy.	1742719	1471972568559	1471972568684	 	32
3403	36495	Jim please confirm to Vince you are happy.	Jim please confirm to Vince you are happy.	1742721	1471972569126	1471972569250	p	80
3403	36495	Jim please confirm to Vince you are happy.	Jim please confirm to Vince you are happy.	1742877	1471972569562	1471972569718	l	76
3403	36495	Jim please confirm to Vince you are happy.	Jim please confirm to Vince you are happy.	1742880	1471972570133	1471972570250	e	69
3403	36495	Jim please confirm to Vince you are happy.	Jim please confirm to Vince you are happy.	1742887	1471972570343	1471972570482	a	65
3403	36495	Jim please confirm to Vince you are happy.	Jim please confirm to Vince you are happy.	1742894	1471972570670	1471972570784	s	83
3403	36495	Jim please confirm to Vince you are happy.	Jim please confirm to Vince you are happy.	1742901	1471972571004	1471972571119	e	69
3403	36495	Jim please confirm to Vince you are happy.	Jim please confirm to Vince you are happy.	1743038	1471972571244	1471972571381	 	32
3403	36495	Jim please confirm to Vince you are happy.	Jim please confirm to Vince you are happy.	1743042	1471972571978	1471972572132	c	67
3403	36495	Jim please confirm to Vince you are happy.	Jim please confirm to Vince you are happy.	1743046	1471972572272	1471972572368	o	79
3403	36495	Jim please confirm to Vince you are happy.	Jim please confirm to Vince you are happy.	1743051	1471972572555	1471972572683	n	78
3403	36495	Jim please confirm to Vince you are happy.	Jim please confirm to Vince you are happy.	1743059	1471972572917	1471972573078	f	70
3403	36495	Jim please confirm to Vince you are happy.	Jim please confirm to Vince you are happy.	1743247	1471972573219	1471972573286	o	79
3403	36495	Jim please confirm to Vince you are happy.	Jim please confirm to Vince you are happy.	1743249	1471972573914	1471972574002	BKSP	8
3403	36495	Jim please confirm to Vince you are happy.	Jim please confirm to Vince you are happy.	1743252	1471972574252	1471972574365	i	73
3403	36495	Jim please confirm to Vince you are happy.	Jim please confirm to Vince you are happy.	1743255	1471972574521	1471972574664	r	82
3403	36495	Jim please confirm to Vince you are happy.	Jim please confirm to Vince you are happy.	1743259	1471972575260	1471972575351	m	77
3403	36495	Jim please confirm to Vince you are happy.	Jim please confirm to Vince you are happy.	1743263	1471972575507	1471972575648	 	32
3403	36495	Jim please confirm to Vince you are happy.	Jim please confirm to Vince you are happy.	1743576	1471972576605	1471972576763	t	84
3403	36495	Jim please confirm to Vince you are happy.	Jim please confirm to Vince you are happy.	1743584	1471972578254	1471972578445	o	79
3403	36495	Jim please confirm to Vince you are happy.	Jim please confirm to Vince you are happy.	1743591	1471972578445	1471972578567	 	32
3403	36495	Jim please confirm to Vince you are happy.	Jim please confirm to Vince you are happy.	1743597	1471972578692	1471972579600	SHIFT	16
3403	36495	Jim please confirm to Vince you are happy.	Jim please confirm to Vince you are happy.	1743603	1471972579474	1471972579631	V	86
3403	36495	Jim please confirm to Vince you are happy.	Jim please confirm to Vince you are happy.	1743609	1471972579740	1471972579834	i	73
3403	36495	Jim please confirm to Vince you are happy.	Jim please confirm to Vince you are happy.	1743782	1471972579976	1471972580147	n	78
3403	36495	Jim please confirm to Vince you are happy.	Jim please confirm to Vince you are happy.	1743783	1471972580287	1471972580464	c	67
3403	36495	Jim please confirm to Vince you are happy.	Jim please confirm to Vince you are happy.	1743785	1471972580585	1471972580716	e	69
3403	36495	Jim please confirm to Vince you are happy.	Jim please confirm to Vince you are happy.	1743789	1471972580888	1471972581033	 	32
3403	36495	Jim please confirm to Vince you are happy.	Jim please confirm to Vince you are happy.	1743793	1471972582004	1471972582131	y	89
3403	36495	Jim please confirm to Vince you are happy.	Jim please confirm to Vince you are happy.	1743877	1471972582288	1471972582416	o	79
3403	36495	Jim please confirm to Vince you are happy.	Jim please confirm to Vince you are happy.	1743882	1471972582509	1471972582647	u	85
3403	36495	Jim please confirm to Vince you are happy.	Jim please confirm to Vince you are happy.	1743886	1471972582678	1471972582815	 	32
3403	36495	Jim please confirm to Vince you are happy.	Jim please confirm to Vince you are happy.	1743892	1471972582893	1471972583049	a	65
3403	36495	Jim please confirm to Vince you are happy.	Jim please confirm to Vince you are happy.	1743902	1471972583461	1471972583614	r	82
3403	36495	Jim please confirm to Vince you are happy.	Jim please confirm to Vince you are happy.	1743986	1471972583677	1471972583861	e	69
3403	36495	Jim please confirm to Vince you are happy.	Jim please confirm to Vince you are happy.	1743990	1471972583861	1471972584001	 	32
3403	36495	Jim please confirm to Vince you are happy.	Jim please confirm to Vince you are happy.	1743997	1471972584204	1471972584333	h	72
3403	36495	Jim please confirm to Vince you are happy.	Jim please confirm to Vince you are happy.	1744004	1471972584333	1471972584481	a	65
3403	36495	Jim please confirm to Vince you are happy.	Jim please confirm to Vince you are happy.	1744011	1471972584952	1471972585019	p	80
3403	36495	Jim please confirm to Vince you are happy.	Jim please confirm to Vince you are happy.	1744330	1471972585114	1471972585201	p	80
3403	36495	Jim please confirm to Vince you are happy.	Jim please confirm to Vince you are happy.	1744334	1471972585782	1471972585946	y	89
3403	36495	Jim please confirm to Vince you are happy.	Jim please confirm to Vince you are happy.	1744340	1471972587593	1471972587685	.	190
3403	36541	I'm still in FW.	I'm still in FW.	1745135	1471972592947	1471972594402	SHIFT	16
3403	36541	I'm still in FW.	I'm still in FW.	1745147	1471972594311	1471972594402	I	73
3403	36541	I'm still in FW.	I'm still in FW.	1745160	1471972595200	1471972595283	'	222
3403	36541	I'm still in FW.	I'm still in FW.	1745172	1471972596115	1471972596202	m	77
3403	36541	I'm still in FW.	I'm still in FW.	1745182	1471972596327	1471972596449	 	32
3403	36541	I'm still in FW.	I'm still in FW.	1745190	1471972596636	1471972596733	s	83
3403	36541	I'm still in FW.	I'm still in FW.	1745345	1471972596999	1471972597100	t	84
3403	36541	I'm still in FW.	I'm still in FW.	1745352	1471972597319	1471972597387	i	73
3403	36541	I'm still in FW.	I'm still in FW.	1745361	1471972598075	1471972598120	l	76
3403	36541	I'm still in FW.	I'm still in FW.	1745370	1471972598229	1471972598277	l	76
3403	36541	I'm still in FW.	I'm still in FW.	1745379	1471972598427	1471972598548	 	32
3403	36541	I'm still in FW.	I'm still in FW.	1745532	1471972598689	1471972598785	i	73
3403	36541	I'm still in FW.	I'm still in FW.	1745536	1471972598895	1471972598985	n	78
3403	36541	I'm still in FW.	I'm still in FW.	1745542	1471972599079	1471972599231	 	32
3403	36541	I'm still in FW.	I'm still in FW.	1745697	1471972599341	1471972600465	SHIFT	16
3403	36541	I'm still in FW.	I'm still in FW.	1745550	1471972599750	1471972599880	F	70
3403	36541	I'm still in FW.	I'm still in FW.	1745556	1471972600334	1471972600449	W	87
3403	36541	I'm still in FW.	I'm still in FW.	1745699	1471972601501	1471972601568	.	190
3403	36561	Sources said the officers will be part of the coordination office.	Sources said the officers will be part of the coordination office.	1746197	1471972605167	1471972605886	SHIFT	16
3403	36561	Sources said the officers will be part of the coordination office.	Sources said the officers will be part of the coordination office.	1746200	1471972605829	1471972605964	S	83
3403	36561	Sources said the officers will be part of the coordination office.	Sources said the officers will be part of the coordination office.	1746206	1471972606292	1471972606445	o	79
3403	36561	Sources said the officers will be part of the coordination office.	Sources said the officers will be part of the coordination office.	1746212	1471972606523	1471972606664	u	85
3403	36561	Sources said the officers will be part of the coordination office.	Sources said the officers will be part of the coordination office.	1746217	1471972607604	1471972607715	r	82
3403	36561	Sources said the officers will be part of the coordination office.	Sources said the officers will be part of the coordination office.	1746224	1471972608860	1471972609028	c	67
3403	36561	Sources said the officers will be part of the coordination office.	Sources said the officers will be part of the coordination office.	1746339	1471972609874	1471972610013	e	69
3403	36561	Sources said the officers will be part of the coordination office.	Sources said the officers will be part of the coordination office.	1746342	1471972610341	1471972610465	s	83
3403	36561	Sources said the officers will be part of the coordination office.	Sources said the officers will be part of the coordination office.	1746345	1471972610527	1471972610696	 	32
3403	36561	Sources said the officers will be part of the coordination office.	Sources said the officers will be part of the coordination office.	1746347	1471972610774	1471972610882	s	83
3403	36561	Sources said the officers will be part of the coordination office.	Sources said the officers will be part of the coordination office.	1746349	1471972611007	1471972611178	a	65
3403	36561	Sources said the officers will be part of the coordination office.	Sources said the officers will be part of the coordination office.	1746473	1471972611650	1471972611797	i	73
3403	36561	Sources said the officers will be part of the coordination office.	Sources said the officers will be part of the coordination office.	1746478	1471972612109	1471972612231	d	68
3403	36561	Sources said the officers will be part of the coordination office.	Sources said the officers will be part of the coordination office.	1746484	1471972612262	1471972612413	 	32
3403	36561	Sources said the officers will be part of the coordination office.	Sources said the officers will be part of the coordination office.	1746493	1471972613025	1471972613118	t	84
3403	36561	Sources said the officers will be part of the coordination office.	Sources said the officers will be part of the coordination office.	1746500	1471972613446	1471972613518	h	72
3403	36561	Sources said the officers will be part of the coordination office.	Sources said the officers will be part of the coordination office.	1746692	1471972613909	1471972613984	r	82
3403	36561	Sources said the officers will be part of the coordination office.	Sources said the officers will be part of the coordination office.	1746695	1471972614202	1471972614363	 	32
3403	36561	Sources said the officers will be part of the coordination office.	Sources said the officers will be part of the coordination office.	1746699	1471972615160	1471972615251	BKSP	8
3403	36561	Sources said the officers will be part of the coordination office.	Sources said the officers will be part of the coordination office.	1746701	1471972615329	1471972615417	BKSP	8
3403	36561	Sources said the officers will be part of the coordination office.	Sources said the officers will be part of the coordination office.	1746704	1471972616185	1471972616313	e	69
3403	36561	Sources said the officers will be part of the coordination office.	Sources said the officers will be part of the coordination office.	1746712	1471972616344	1471972616481	 	32
3403	36561	Sources said the officers will be part of the coordination office.	Sources said the officers will be part of the coordination office.	1746718	1471972616652	1471972616796	o	79
3403	36561	Sources said the officers will be part of the coordination office.	Sources said the officers will be part of the coordination office.	1746806	1471972616953	1471972617033	f	70
3403	36561	Sources said the officers will be part of the coordination office.	Sources said the officers will be part of the coordination office.	1746808	1471972617111	1471972617248	f	70
3403	36561	Sources said the officers will be part of the coordination office.	Sources said the officers will be part of the coordination office.	1746813	1471972617388	1471972617529	i	73
3403	36561	Sources said the officers will be part of the coordination office.	Sources said the officers will be part of the coordination office.	1746816	1471972617748	1471972617896	c	67
3403	36561	Sources said the officers will be part of the coordination office.	Sources said the officers will be part of the coordination office.	1746818	1471972618083	1471972618229	e	69
3403	36561	Sources said the officers will be part of the coordination office.	Sources said the officers will be part of the coordination office.	1746899	1471972618308	1471972618461	r	82
3403	36561	Sources said the officers will be part of the coordination office.	Sources said the officers will be part of the coordination office.	1746901	1471972618743	1471972618880	s	83
3403	36561	Sources said the officers will be part of the coordination office.	Sources said the officers will be part of the coordination office.	1746904	1471972618958	1471972619112	 	32
3403	36561	Sources said the officers will be part of the coordination office.	Sources said the officers will be part of the coordination office.	1746907	1471972619631	1471972619732	w	87
3403	36561	Sources said the officers will be part of the coordination office.	Sources said the officers will be part of the coordination office.	1746913	1471972619950	1471972620034	i	73
3403	36561	Sources said the officers will be part of the coordination office.	Sources said the officers will be part of the coordination office.	1747123	1471972620191	1471972620299	l	76
3403	36561	Sources said the officers will be part of the coordination office.	Sources said the officers will be part of the coordination office.	1747130	1471972620346	1471972620465	l	76
3403	36561	Sources said the officers will be part of the coordination office.	Sources said the officers will be part of the coordination office.	1747135	1471972620637	1471972620779	 	32
3403	36561	Sources said the officers will be part of the coordination office.	Sources said the officers will be part of the coordination office.	1747138	1471972621266	1471972621397	b	66
3403	36561	Sources said the officers will be part of the coordination office.	Sources said the officers will be part of the coordination office.	1747145	1471972622885	1471972622999	e	69
3403	36561	Sources said the officers will be part of the coordination office.	Sources said the officers will be part of the coordination office.	1747323	1471972623094	1471972623231	 	32
3403	36561	Sources said the officers will be part of the coordination office.	Sources said the officers will be part of the coordination office.	1747325	1471972623872	1471972623967	p	80
3403	36561	Sources said the officers will be part of the coordination office.	Sources said the officers will be part of the coordination office.	1747329	1471972624530	1471972624695	a	65
3403	36561	Sources said the officers will be part of the coordination office.	Sources said the officers will be part of the coordination office.	1747332	1471972625368	1471972625466	r	82
3403	36561	Sources said the officers will be part of the coordination office.	Sources said the officers will be part of the coordination office.	1747334	1471972625591	1471972625715	t	84
3403	36561	Sources said the officers will be part of the coordination office.	Sources said the officers will be part of the coordination office.	1747386	1471972625747	1471972625865	 	32
3403	36561	Sources said the officers will be part of the coordination office.	Sources said the officers will be part of the coordination office.	1747389	1471972626005	1471972626146	o	79
3403	36561	Sources said the officers will be part of the coordination office.	Sources said the officers will be part of the coordination office.	1747392	1471972626286	1471972626384	f	70
3403	36561	Sources said the officers will be part of the coordination office.	Sources said the officers will be part of the coordination office.	1747395	1471972626509	1471972626650	 	32
3403	36561	Sources said the officers will be part of the coordination office.	Sources said the officers will be part of the coordination office.	1747550	1471972626552	1471972626682	t	84
3403	36561	Sources said the officers will be part of the coordination office.	Sources said the officers will be part of the coordination office.	1747554	1471972626791	1471972626946	h	72
3403	36561	Sources said the officers will be part of the coordination office.	Sources said the officers will be part of the coordination office.	1747560	1471972627102	1471972627247	e	69
3403	36561	Sources said the officers will be part of the coordination office.	Sources said the officers will be part of the coordination office.	1747565	1471972627247	1471972627396	 	32
3403	36561	Sources said the officers will be part of the coordination office.	Sources said the officers will be part of the coordination office.	1747576	1471972628304	1471972628400	c	67
3403	36561	Sources said the officers will be part of the coordination office.	Sources said the officers will be part of the coordination office.	1747582	1471972628806	1471972628884	o	79
3403	36561	Sources said the officers will be part of the coordination office.	Sources said the officers will be part of the coordination office.	1747741	1471972628963	1471972629065	o	79
3403	36561	Sources said the officers will be part of the coordination office.	Sources said the officers will be part of the coordination office.	1747745	1471972629206	1471972629331	r	82
3403	36561	Sources said the officers will be part of the coordination office.	Sources said the officers will be part of the coordination office.	1747750	1471972629926	1471972630032	d	68
3403	36561	Sources said the officers will be part of the coordination office.	Sources said the officers will be part of the coordination office.	1747754	1471972630251	1471972630350	i	73
3403	36561	Sources said the officers will be part of the coordination office.	Sources said the officers will be part of the coordination office.	1747759	1471972631369	1471972631483	n	78
3403	36561	Sources said the officers will be part of the coordination office.	Sources said the officers will be part of the coordination office.	1747912	1471972632014	1471972632147	a	65
3403	36561	Sources said the officers will be part of the coordination office.	Sources said the officers will be part of the coordination office.	1747918	1471972632490	1471972632614	t	84
3403	36561	Sources said the officers will be part of the coordination office.	Sources said the officers will be part of the coordination office.	1747923	1471972632739	1471972632848	i	73
3403	36561	Sources said the officers will be part of the coordination office.	Sources said the officers will be part of the coordination office.	1747929	1471972632942	1471972633080	o	79
3403	36561	Sources said the officers will be part of the coordination office.	Sources said the officers will be part of the coordination office.	1747936	1471972634270	1471972634399	n	78
3403	36561	Sources said the officers will be part of the coordination office.	Sources said the officers will be part of the coordination office.	1748018	1471972634524	1471972634664	 	32
3403	36561	Sources said the officers will be part of the coordination office.	Sources said the officers will be part of the coordination office.	1748022	1471972635353	1471972635481	o	79
3403	36561	Sources said the officers will be part of the coordination office.	Sources said the officers will be part of the coordination office.	1748028	1471972635793	1471972635852	f	70
3403	36561	Sources said the officers will be part of the coordination office.	Sources said the officers will be part of the coordination office.	1748033	1471972635946	1471972636049	f	70
3403	36561	Sources said the officers will be part of the coordination office.	Sources said the officers will be part of the coordination office.	1748038	1471972636080	1471972636214	i	73
3403	36561	Sources said the officers will be part of the coordination office.	Sources said the officers will be part of the coordination office.	1748201	1471972636700	1471972636798	c	67
3403	36561	Sources said the officers will be part of the coordination office.	Sources said the officers will be part of the coordination office.	1748205	1471972636985	1471972637114	e	69
3403	36561	Sources said the officers will be part of the coordination office.	Sources said the officers will be part of the coordination office.	1748206	1471972637914	1471972638031	.	190
3403	36612	Don't expect Sanders to play anytime soon.	Don't expect Sanders to plat anytime soon.	1748608	1471972641686	1471972642533	SHIFT	16
3403	36612	Don't expect Sanders to play anytime soon.	Don't expect Sanders to plat anytime soon.	1748611	1471972642473	1471972642611	D	68
3403	36612	Don't expect Sanders to play anytime soon.	Don't expect Sanders to plat anytime soon.	1748616	1471972642813	1471972642869	o	79
3403	36612	Don't expect Sanders to play anytime soon.	Don't expect Sanders to plat anytime soon.	1748620	1471972643227	1471972643378	n	78
3403	36612	Don't expect Sanders to play anytime soon.	Don't expect Sanders to plat anytime soon.	1748623	1471972644006	1471972644114	'	222
3403	36612	Don't expect Sanders to play anytime soon.	Don't expect Sanders to plat anytime soon.	1748626	1471972644567	1471972644681	t	84
3403	36612	Don't expect Sanders to play anytime soon.	Don't expect Sanders to plat anytime soon.	1748832	1471972644713	1471972644800	 	32
3403	36612	Don't expect Sanders to play anytime soon.	Don't expect Sanders to plat anytime soon.	1748839	1471972645505	1471972645600	e	69
3403	36612	Don't expect Sanders to play anytime soon.	Don't expect Sanders to plat anytime soon.	1748848	1471972646650	1471972646780	x	88
3403	36612	Don't expect Sanders to play anytime soon.	Don't expect Sanders to plat anytime soon.	1748851	1471972647328	1471972647493	p	80
3403	36612	Don't expect Sanders to play anytime soon.	Don't expect Sanders to plat anytime soon.	1748856	1471972647634	1471972647749	e	69
3403	36612	Don't expect Sanders to play anytime soon.	Don't expect Sanders to plat anytime soon.	1749115	1471972647999	1471972648098	c	67
3403	36612	Don't expect Sanders to play anytime soon.	Don't expect Sanders to plat anytime soon.	1749123	1471972648709	1471972648861	t	84
3403	36612	Don't expect Sanders to play anytime soon.	Don't expect Sanders to plat anytime soon.	1749132	1471972648923	1471972649047	 	32
3403	36612	Don't expect Sanders to play anytime soon.	Don't expect Sanders to plat anytime soon.	1749140	1471972649437	1471972650229	SHIFT	16
3403	36612	Don't expect Sanders to play anytime soon.	Don't expect Sanders to plat anytime soon.	1749147	1471972650175	1471972650344	S	83
3403	36612	Don't expect Sanders to play anytime soon.	Don't expect Sanders to plat anytime soon.	1749153	1471972650375	1471972650528	a	65
3403	36612	Don't expect Sanders to play anytime soon.	Don't expect Sanders to plat anytime soon.	1749262	1471972650606	1471972650729	n	78
3403	36612	Don't expect Sanders to play anytime soon.	Don't expect Sanders to plat anytime soon.	1749267	1471972651026	1471972651132	d	68
3403	36612	Don't expect Sanders to play anytime soon.	Don't expect Sanders to plat anytime soon.	1749271	1471972651210	1471972651393	e	69
3403	36612	Don't expect Sanders to play anytime soon.	Don't expect Sanders to plat anytime soon.	1749274	1471972651377	1471972651543	r	82
3403	36612	Don't expect Sanders to play anytime soon.	Don't expect Sanders to plat anytime soon.	1749567	1471972651871	1471972652059	s	65
3403	36612	Don't expect Sanders to play anytime soon.	Don't expect Sanders to plat anytime soon.	1749571	1471972652951	1471972653033	BKSP	8
3403	36612	Don't expect Sanders to play anytime soon.	Don't expect Sanders to plat anytime soon.	1749574	1471972653361	1471972653433	BKSP	8
3403	36612	Don't expect Sanders to play anytime soon.	Don't expect Sanders to plat anytime soon.	1749578	1471972654890	1471972655045	s	83
3403	36612	Don't expect Sanders to play anytime soon.	Don't expect Sanders to plat anytime soon.	1749585	1471972655045	1471972655195	 	32
3403	36612	Don't expect Sanders to play anytime soon.	Don't expect Sanders to plat anytime soon.	1749592	1471972656355	1471972656495	t	84
3403	36612	Don't expect Sanders to play anytime soon.	Don't expect Sanders to plat anytime soon.	1749596	1471972656636	1471972656794	o	79
3403	36612	Don't expect Sanders to play anytime soon.	Don't expect Sanders to plat anytime soon.	1749602	1471972656794	1471972656866	 	32
3403	36612	Don't expect Sanders to play anytime soon.	Don't expect Sanders to plat anytime soon.	1749732	1471972656961	1471972657096	p	80
3403	36612	Don't expect Sanders to play anytime soon.	Don't expect Sanders to plat anytime soon.	1749734	1471972657189	1471972657297	a	65
3403	36612	Don't expect Sanders to play anytime soon.	Don't expect Sanders to plat anytime soon.	1749737	1471972657939	1471972658093	BKSP	8
3403	36612	Don't expect Sanders to play anytime soon.	Don't expect Sanders to plat anytime soon.	1749739	1471972658359	1471972658496	l	76
3403	36612	Don't expect Sanders to play anytime soon.	Don't expect Sanders to plat anytime soon.	1749744	1471972658527	1471972658662	a	65
3403	36612	Don't expect Sanders to play anytime soon.	Don't expect Sanders to plat anytime soon.	1749749	1471972659336	1471972659479	t	84
3403	36612	Don't expect Sanders to play anytime soon.	Don't expect Sanders to plat anytime soon.	1749834	1471972659525	1471972659663	 	32
3403	36612	Don't expect Sanders to play anytime soon.	Don't expect Sanders to plat anytime soon.	1749836	1471972659709	1471972659877	a	65
3403	36612	Don't expect Sanders to play anytime soon.	Don't expect Sanders to plat anytime soon.	1749838	1471972659908	1471972660030	n	78
3403	36612	Don't expect Sanders to play anytime soon.	Don't expect Sanders to plat anytime soon.	1749841	1471972660310	1471972660447	y	89
3403	36612	Don't expect Sanders to play anytime soon.	Don't expect Sanders to plat anytime soon.	1749845	1471972660696	1471972660844	t	84
3403	36612	Don't expect Sanders to play anytime soon.	Don't expect Sanders to plat anytime soon.	1749976	1471972660844	1471972660931	h	72
3403	36612	Don't expect Sanders to play anytime soon.	Don't expect Sanders to plat anytime soon.	1749983	1471972661399	1471972661529	BKSP	8
3403	36612	Don't expect Sanders to play anytime soon.	Don't expect Sanders to plat anytime soon.	1749988	1471972661981	1471972662065	i	73
3403	36612	Don't expect Sanders to play anytime soon.	Don't expect Sanders to plat anytime soon.	1749994	1471972662708	1471972662799	m	77
3403	36612	Don't expect Sanders to play anytime soon.	Don't expect Sanders to plat anytime soon.	1750000	1471972662924	1471972663045	e	69
3403	36612	Don't expect Sanders to play anytime soon.	Don't expect Sanders to plat anytime soon.	1750004	1471972663092	1471972663228	 	32
3403	36612	Don't expect Sanders to play anytime soon.	Don't expect Sanders to plat anytime soon.	1750092	1471972663649	1471972663765	s	83
3403	36612	Don't expect Sanders to play anytime soon.	Don't expect Sanders to plat anytime soon.	1750099	1471972663890	1471972663951	o	79
3403	36612	Don't expect Sanders to play anytime soon.	Don't expect Sanders to plat anytime soon.	1750109	1471972664044	1471972664116	o	79
3403	36612	Don't expect Sanders to play anytime soon.	Don't expect Sanders to plat anytime soon.	1750118	1471972664272	1471972664396	n	78
3403	36612	Don't expect Sanders to play anytime soon.	Don't expect Sanders to plat anytime soon.	1750126	1471972665164	1471972665296	.	190
3403	36651	See you next week.	See yiu next week.	1750699	1471972671510	1471972672134	SHIFT	16
3403	36651	See you next week.	See yiu next week.	1750702	1471972672089	1471972672213	S	83
3403	36651	See you next week.	See yiu next week.	1750706	1471972672431	1471972672514	e	69
3403	36651	See you next week.	See yiu next week.	1750709	1471972672608	1471972672714	e	69
3403	36651	See you next week.	See yiu next week.	1750715	1471972672807	1471972672945	 	32
3403	36651	See you next week.	See yiu next week.	1750719	1471972673195	1471972673282	y	89
3403	36651	See you next week.	See yiu next week.	1750781	1471972673440	1471972673563	i	73
3403	36651	See you next week.	See yiu next week.	1750787	1471972673610	1471972673714	u	85
3403	36651	See you next week.	See yiu next week.	1750793	1471972673839	1471972673979	 	32
3403	36651	See you next week.	See yiu next week.	1750798	1471972674167	1471972674265	n	78
3403	36651	See you next week.	See yiu next week.	1750801	1471972674311	1471972674445	e	69
3403	36651	See you next week.	See yiu next week.	1750932	1471972675322	1471972675429	x	88
3403	36651	See you next week.	See yiu next week.	1750934	1471972675694	1471972675797	t	84
3403	36651	See you next week.	See yiu next week.	1750942	1471972676016	1471972676146	 	32
3403	36651	See you next week.	See yiu next week.	1750946	1471972676193	1471972676297	w	87
3403	36651	See you next week.	See yiu next week.	1750951	1471972676422	1471972676482	e	69
3403	36651	See you next week.	See yiu next week.	1751027	1471972676561	1471972676664	e	69
3403	36651	See you next week.	See yiu next week.	1751031	1471972677069	1471972677132	k	75
3403	36651	See you next week.	See yiu next week.	1751037	1471972677553	1471972677617	.	190
3403	36670	Add a Star Trek convention and sports memorabilia show to the mix.	Add a Star Trek convention and sports memorabilia show to the mix.	1751421	1471972681150	1471972681732	SHIFT	16
3403	36670	Add a Star Trek convention and sports memorabilia show to the mix.	Add a Star Trek convention and sports memorabilia show to the mix.	1751423	1471972681653	1471972681794	A	65
3403	36670	Add a Star Trek convention and sports memorabilia show to the mix.	Add a Star Trek convention and sports memorabilia show to the mix.	1751426	1471972682327	1471972682383	d	68
3403	36670	Add a Star Trek convention and sports memorabilia show to the mix.	Add a Star Trek convention and sports memorabilia show to the mix.	1751429	1471972682508	1471972682629	d	68
3403	36670	Add a Star Trek convention and sports memorabilia show to the mix.	Add a Star Trek convention and sports memorabilia show to the mix.	1751432	1471972682707	1471972682844	 	32
3403	36670	Add a Star Trek convention and sports memorabilia show to the mix.	Add a Star Trek convention and sports memorabilia show to the mix.	1751435	1471972683078	1471972683212	a	65
3403	36670	Add a Star Trek convention and sports memorabilia show to the mix.	Add a Star Trek convention and sports memorabilia show to the mix.	1751594	1471972683244	1471972683393	 	32
3403	36670	Add a Star Trek convention and sports memorabilia show to the mix.	Add a Star Trek convention and sports memorabilia show to the mix.	1751595	1471972683455	1471972684926	SHIFT	16
3403	36670	Add a Star Trek convention and sports memorabilia show to the mix.	Add a Star Trek convention and sports memorabilia show to the mix.	1751597	1471972684756	1471972684926	S	83
3403	36670	Add a Star Trek convention and sports memorabilia show to the mix.	Add a Star Trek convention and sports memorabilia show to the mix.	1751599	1471972685222	1471972685377	t	84
3403	36670	Add a Star Trek convention and sports memorabilia show to the mix.	Add a Star Trek convention and sports memorabilia show to the mix.	1751600	1471972685408	1471972685575	a	65
3403	36670	Add a Star Trek convention and sports memorabilia show to the mix.	Add a Star Trek convention and sports memorabilia show to the mix.	1751601	1471972685575	1471972685696	r	82
3403	36670	Add a Star Trek convention and sports memorabilia show to the mix.	Add a Star Trek convention and sports memorabilia show to the mix.	1751766	1471972685930	1471972686107	 	32
3403	36670	Add a Star Trek convention and sports memorabilia show to the mix.	Add a Star Trek convention and sports memorabilia show to the mix.	1751775	1471972686185	1471972687048	SHIFT	16
3403	36670	Add a Star Trek convention and sports memorabilia show to the mix.	Add a Star Trek convention and sports memorabilia show to the mix.	1751770	1471972686953	1471972687016	T	84
3403	36670	Add a Star Trek convention and sports memorabilia show to the mix.	Add a Star Trek convention and sports memorabilia show to the mix.	1751783	1471972687266	1471972687316	r	82
3403	36670	Add a Star Trek convention and sports memorabilia show to the mix.	Add a Star Trek convention and sports memorabilia show to the mix.	1751790	1471972687363	1471972687510	e	69
3403	36670	Add a Star Trek convention and sports memorabilia show to the mix.	Add a Star Trek convention and sports memorabilia show to the mix.	1751796	1471972688090	1471972688243	k	75
3403	36670	Add a Star Trek convention and sports memorabilia show to the mix.	Add a Star Trek convention and sports memorabilia show to the mix.	1751947	1471972688338	1471972688462	 	32
3403	36670	Add a Star Trek convention and sports memorabilia show to the mix.	Add a Star Trek convention and sports memorabilia show to the mix.	1751950	1471972689293	1471972689428	c	67
3403	36670	Add a Star Trek convention and sports memorabilia show to the mix.	Add a Star Trek convention and sports memorabilia show to the mix.	1751954	1471972689646	1471972689745	o	79
3403	36670	Add a Star Trek convention and sports memorabilia show to the mix.	Add a Star Trek convention and sports memorabilia show to the mix.	1751959	1471972689901	1471972690012	n	78
3403	36670	Add a Star Trek convention and sports memorabilia show to the mix.	Add a Star Trek convention and sports memorabilia show to the mix.	1751966	1471972690230	1471972690376	v	86
3403	36670	Add a Star Trek convention and sports memorabilia show to the mix.	Add a Star Trek convention and sports memorabilia show to the mix.	1752073	1471972690501	1471972690644	e	69
3403	36670	Add a Star Trek convention and sports memorabilia show to the mix.	Add a Star Trek convention and sports memorabilia show to the mix.	1752080	1471972690722	1471972690861	n	78
3403	36670	Add a Star Trek convention and sports memorabilia show to the mix.	Add a Star Trek convention and sports memorabilia show to the mix.	1752083	1471972691001	1471972691129	t	84
3403	36670	Add a Star Trek convention and sports memorabilia show to the mix.	Add a Star Trek convention and sports memorabilia show to the mix.	1752086	1471972691378	1471972691526	i	73
3403	36670	Add a Star Trek convention and sports memorabilia show to the mix.	Add a Star Trek convention and sports memorabilia show to the mix.	1752090	1471972691606	1471972691774	o	79
3403	36670	Add a Star Trek convention and sports memorabilia show to the mix.	Add a Star Trek convention and sports memorabilia show to the mix.	1752244	1471972692574	1471972692648	n	78
3403	36670	Add a Star Trek convention and sports memorabilia show to the mix.	Add a Star Trek convention and sports memorabilia show to the mix.	1752248	1471972692788	1471972692926	 	32
3403	36670	Add a Star Trek convention and sports memorabilia show to the mix.	Add a Star Trek convention and sports memorabilia show to the mix.	1752254	1471972692973	1471972693110	a	65
3403	36670	Add a Star Trek convention and sports memorabilia show to the mix.	Add a Star Trek convention and sports memorabilia show to the mix.	1752259	1471972693203	1471972693262	n	78
3403	36670	Add a Star Trek convention and sports memorabilia show to the mix.	Add a Star Trek convention and sports memorabilia show to the mix.	1752264	1471972693719	1471972693875	d	68
3403	36670	Add a Star Trek convention and sports memorabilia show to the mix.	Add a Star Trek convention and sports memorabilia show to the mix.	1752371	1471972693875	1471972694042	 	32
3403	36670	Add a Star Trek convention and sports memorabilia show to the mix.	Add a Star Trek convention and sports memorabilia show to the mix.	1752372	1471972694763	1471972694848	s	83
3403	36670	Add a Star Trek convention and sports memorabilia show to the mix.	Add a Star Trek convention and sports memorabilia show to the mix.	1752373	1471972695098	1471972695227	p	80
3403	36670	Add a Star Trek convention and sports memorabilia show to the mix.	Add a Star Trek convention and sports memorabilia show to the mix.	1752376	1471972695290	1471972695428	o	79
3403	36670	Add a Star Trek convention and sports memorabilia show to the mix.	Add a Star Trek convention and sports memorabilia show to the mix.	1752381	1471972695584	1471972695727	r	82
3403	36670	Add a Star Trek convention and sports memorabilia show to the mix.	Add a Star Trek convention and sports memorabilia show to the mix.	1752594	1471972695883	1471972695996	t	84
3403	36670	Add a Star Trek convention and sports memorabilia show to the mix.	Add a Star Trek convention and sports memorabilia show to the mix.	1752595	1471972697595	1471972697728	s	83
3403	36670	Add a Star Trek convention and sports memorabilia show to the mix.	Add a Star Trek convention and sports memorabilia show to the mix.	1752598	1471972697853	1471972698025	 	32
3403	36670	Add a Star Trek convention and sports memorabilia show to the mix.	Add a Star Trek convention and sports memorabilia show to the mix.	1752603	1471972698527	1471972698645	m	77
3403	36670	Add a Star Trek convention and sports memorabilia show to the mix.	Add a Star Trek convention and sports memorabilia show to the mix.	1752606	1471972698817	1471972698960	e	69
3403	36670	Add a Star Trek convention and sports memorabilia show to the mix.	Add a Star Trek convention and sports memorabilia show to the mix.	1752903	1471972699054	1471972699209	m	77
3403	36670	Add a Star Trek convention and sports memorabilia show to the mix.	Add a Star Trek convention and sports memorabilia show to the mix.	1752906	1471972701090	1471972701197	o	79
3403	36670	Add a Star Trek convention and sports memorabilia show to the mix.	Add a Star Trek convention and sports memorabilia show to the mix.	1752910	1471972701933	1471972702047	r	82
3403	36670	Add a Star Trek convention and sports memorabilia show to the mix.	Add a Star Trek convention and sports memorabilia show to the mix.	1752915	1471972702610	1471972702775	a	65
3403	36670	Add a Star Trek convention and sports memorabilia show to the mix.	Add a Star Trek convention and sports memorabilia show to the mix.	1752921	1471972702962	1471972703093	b	66
3403	36670	Add a Star Trek convention and sports memorabilia show to the mix.	Add a Star Trek convention and sports memorabilia show to the mix.	1753040	1471972703422	1471972703497	i	73
3403	36670	Add a Star Trek convention and sports memorabilia show to the mix.	Add a Star Trek convention and sports memorabilia show to the mix.	1753042	1471972703936	1471972704076	l	76
3403	36670	Add a Star Trek convention and sports memorabilia show to the mix.	Add a Star Trek convention and sports memorabilia show to the mix.	1753045	1471972704294	1471972704444	i	73
3403	36670	Add a Star Trek convention and sports memorabilia show to the mix.	Add a Star Trek convention and sports memorabilia show to the mix.	1753047	1471972704631	1471972704822	a	65
3403	36670	Add a Star Trek convention and sports memorabilia show to the mix.	Add a Star Trek convention and sports memorabilia show to the mix.	1753049	1471972704916	1471972705061	 	32
3403	36670	Add a Star Trek convention and sports memorabilia show to the mix.	Add a Star Trek convention and sports memorabilia show to the mix.	1753204	1471972705577	1471972705711	s	83
3403	36670	Add a Star Trek convention and sports memorabilia show to the mix.	Add a Star Trek convention and sports memorabilia show to the mix.	1753208	1471972705991	1471972706080	h	72
3403	36670	Add a Star Trek convention and sports memorabilia show to the mix.	Add a Star Trek convention and sports memorabilia show to the mix.	1753212	1471972706454	1471972706562	o	79
3403	36670	Add a Star Trek convention and sports memorabilia show to the mix.	Add a Star Trek convention and sports memorabilia show to the mix.	1753216	1471972706936	1471972707045	w	87
3403	36670	Add a Star Trek convention and sports memorabilia show to the mix.	Add a Star Trek convention and sports memorabilia show to the mix.	1753223	1471972707123	1471972707260	 	32
3403	36670	Add a Star Trek convention and sports memorabilia show to the mix.	Add a Star Trek convention and sports memorabilia show to the mix.	1753271	1471972707417	1471972707497	t	84
3403	36670	Add a Star Trek convention and sports memorabilia show to the mix.	Add a Star Trek convention and sports memorabilia show to the mix.	1753274	1471972707637	1471972707776	o	79
3403	36670	Add a Star Trek convention and sports memorabilia show to the mix.	Add a Star Trek convention and sports memorabilia show to the mix.	1753278	1471972707823	1471972707930	 	32
3403	36670	Add a Star Trek convention and sports memorabilia show to the mix.	Add a Star Trek convention and sports memorabilia show to the mix.	1753282	1471972707961	1471972708095	t	84
3403	36670	Add a Star Trek convention and sports memorabilia show to the mix.	Add a Star Trek convention and sports memorabilia show to the mix.	1753286	1471972708157	1471972708262	h	72
3403	36670	Add a Star Trek convention and sports memorabilia show to the mix.	Add a Star Trek convention and sports memorabilia show to the mix.	1753407	1471972708373	1471972708495	e	69
3403	36670	Add a Star Trek convention and sports memorabilia show to the mix.	Add a Star Trek convention and sports memorabilia show to the mix.	1753411	1471972708526	1471972708661	 	32
3403	36670	Add a Star Trek convention and sports memorabilia show to the mix.	Add a Star Trek convention and sports memorabilia show to the mix.	1753419	1471972709019	1471972709112	m	77
3403	36670	Add a Star Trek convention and sports memorabilia show to the mix.	Add a Star Trek convention and sports memorabilia show to the mix.	1753425	1471972709300	1471972709380	i	73
3403	36670	Add a Star Trek convention and sports memorabilia show to the mix.	Add a Star Trek convention and sports memorabilia show to the mix.	1753432	1471972710039	1471972710161	x	88
3403	36670	Add a Star Trek convention and sports memorabilia show to the mix.	Add a Star Trek convention and sports memorabilia show to the mix.	1753512	1471972711117	1471972711183	.	190
