PARTICIPANT_ID	TEST_SECTION_ID	SENTENCE	USER_INPUT	KEYSTROKE_ID	PRESS_TIME	RELEASE_TIME	LETTER	KEYCODE
3482	36854	What period does the max rate assumption cover?	What period does the mas rate assumption cover?	1760374	1471972797888	1471972798179	SHIFT	16
3482	36854	What period does the max rate assumption cover?	What period does the mas rate assumption cover?	1760377	1471972798115	1471972798203	W	87
3482	36854	What period does the max rate assumption cover?	What period does the mas rate assumption cover?	1760381	1471972798281	1471972798366	h	72
3482	36854	What period does the max rate assumption cover?	What period does the mas rate assumption cover?	1760385	1471972798413	1471972798576	a	65
3482	36854	What period does the max rate assumption cover?	What period does the mas rate assumption cover?	1760389	1471972798922	1471972799017	t	84
3482	36854	What period does the max rate assumption cover?	What period does the mas rate assumption cover?	1760392	1471972799110	1471972799201	 	32
3482	36854	What period does the max rate assumption cover?	What period does the mas rate assumption cover?	1760430	1471972799767	1471972799854	p	80
3482	36854	What period does the max rate assumption cover?	What period does the mas rate assumption cover?	1760431	1471972799900	1471972800028	e	69
3482	36854	What period does the max rate assumption cover?	What period does the mas rate assumption cover?	1760435	1471972799985	1471972800130	r	82
3482	36854	What period does the max rate assumption cover?	What period does the mas rate assumption cover?	1760439	1471972800161	1471972800233	i	73
3482	36854	What period does the max rate assumption cover?	What period does the mas rate assumption cover?	1760443	1471972800345	1471972800416	o	79
3482	36854	What period does the max rate assumption cover?	What period does the mas rate assumption cover?	1760515	1471972800488	1471972800552	s	83
3482	36854	What period does the max rate assumption cover?	What period does the mas rate assumption cover?	1760518	1471972800880	1471972800961	BKSP	8
3482	36854	What period does the max rate assumption cover?	What period does the mas rate assumption cover?	1760522	1471972801023	1471972801101	d	68
3482	36854	What period does the max rate assumption cover?	What period does the mas rate assumption cover?	1760525	1471972801164	1471972801265	 	32
3482	36854	What period does the max rate assumption cover?	What period does the mas rate assumption cover?	1760530	1471972801651	1471972801734	d	68
3482	36854	What period does the max rate assumption cover?	What period does the mas rate assumption cover?	1760532	1471972801766	1471972801837	o	79
3482	36854	What period does the max rate assumption cover?	What period does the mas rate assumption cover?	1760637	1471972802004	1471972802054	u	85
3482	36854	What period does the max rate assumption cover?	What period does the mas rate assumption cover?	1760639	1471972802085	1471972802153	e	69
3482	36854	What period does the max rate assumption cover?	What period does the mas rate assumption cover?	1760641	1471972802246	1471972802306	s	83
3482	36854	What period does the max rate assumption cover?	What period does the mas rate assumption cover?	1760643	1471972802369	1471972802437	 	32
3482	36854	What period does the max rate assumption cover?	What period does the mas rate assumption cover?	1760646	1471972803141	1471972803201	BKSP	8
3482	36854	What period does the max rate assumption cover?	What period does the mas rate assumption cover?	1760651	1471972803310	1471972803352	BKSP	8
3482	36854	What period does the max rate assumption cover?	What period does the mas rate assumption cover?	1760654	1471972803383	1471972803422	BKSP	8
3482	36854	What period does the max rate assumption cover?	What period does the mas rate assumption cover?	1760658	1471972803516	1471972803647	BKSP	8
3482	36854	What period does the max rate assumption cover?	What period does the mas rate assumption cover?	1760662	1471972804353	1471972804405	e	69
3482	36854	What period does the max rate assumption cover?	What period does the mas rate assumption cover?	1760706	1471972804509	1471972804586	s	83
3482	36854	What period does the max rate assumption cover?	What period does the mas rate assumption cover?	1760708	1471972804633	1471972804719	 	32
3482	36854	What period does the max rate assumption cover?	What period does the mas rate assumption cover?	1760711	1471972805428	1471972805533	t	84
3482	36854	What period does the max rate assumption cover?	What period does the mas rate assumption cover?	1760714	1471972805564	1471972805651	h	72
3482	36854	What period does the max rate assumption cover?	What period does the mas rate assumption cover?	1760717	1471972805667	1471972805736	e	69
3482	36854	What period does the max rate assumption cover?	What period does the mas rate assumption cover?	1760760	1471972805806	1471972805885	 	32
3482	36854	What period does the max rate assumption cover?	What period does the mas rate assumption cover?	1760762	1471972806386	1471972806452	m	77
3482	36854	What period does the max rate assumption cover?	What period does the mas rate assumption cover?	1760764	1471972806483	1471972806585	a	65
3482	36854	What period does the max rate assumption cover?	What period does the mas rate assumption cover?	1760767	1471972806520	1471972806647	s	83
3482	36854	What period does the max rate assumption cover?	What period does the mas rate assumption cover?	1760771	1471972806694	1471972806786	 	32
3482	36854	What period does the max rate assumption cover?	What period does the mas rate assumption cover?	1760841	1471972807396	1471972807483	r	82
3482	36854	What period does the max rate assumption cover?	What period does the mas rate assumption cover?	1760844	1471972807530	1471972807648	a	65
3482	36854	What period does the max rate assumption cover?	What period does the mas rate assumption cover?	1760847	1471972807726	1471972807834	t	84
3482	36854	What period does the max rate assumption cover?	What period does the mas rate assumption cover?	1760849	1471972807850	1471972807934	e	69
3482	36854	What period does the max rate assumption cover?	What period does the mas rate assumption cover?	1760851	1471972807997	1471972808071	 	32
3482	36854	What period does the max rate assumption cover?	What period does the mas rate assumption cover?	1760949	1471972809465	1471972809566	a	65
3482	36854	What period does the max rate assumption cover?	What period does the mas rate assumption cover?	1760951	1471972809644	1471972809750	s	83
3482	36854	What period does the max rate assumption cover?	What period does the mas rate assumption cover?	1760954	1471972810000	1471972810087	s	83
3482	36854	What period does the max rate assumption cover?	What period does the mas rate assumption cover?	1760956	1471972810228	1471972810317	u	85
3482	36854	What period does the max rate assumption cover?	What period does the mas rate assumption cover?	1760958	1471972810881	1471972810938	m	77
3482	36854	What period does the max rate assumption cover?	What period does the mas rate assumption cover?	1761094	1471972811519	1471972811588	p	80
3482	36854	What period does the max rate assumption cover?	What period does the mas rate assumption cover?	1761097	1471972813295	1471972813370	t	84
3482	36854	What period does the max rate assumption cover?	What period does the mas rate assumption cover?	1761100	1471972813417	1471972813487	i	73
3482	36854	What period does the max rate assumption cover?	What period does the mas rate assumption cover?	1761103	1471972813596	1471972813669	o	79
3482	36854	What period does the max rate assumption cover?	What period does the mas rate assumption cover?	1761106	1471972813747	1471972813820	n	78
3482	36854	What period does the max rate assumption cover?	What period does the mas rate assumption cover?	1761140	1471972813941	1471972814021	 	32
3482	36854	What period does the max rate assumption cover?	What period does the mas rate assumption cover?	1761143	1471972814209	1471972814285	c	67
3482	36854	What period does the max rate assumption cover?	What period does the mas rate assumption cover?	1761146	1471972814318	1471972814418	o	79
3482	36854	What period does the max rate assumption cover?	What period does the mas rate assumption cover?	1761150	1471972814558	1471972814639	v	86
3482	36854	What period does the max rate assumption cover?	What period does the mas rate assumption cover?	1761153	1471972814670	1471972814807	e	69
3482	36854	What period does the max rate assumption cover?	What period does the mas rate assumption cover?	1761245	1471972814738	1471972814885	r	82
3482	36854	What period does the max rate assumption cover?	What period does the mas rate assumption cover?	1761247	1471972815661	1471972816285	SHIFT	16
3482	36854	What period does the max rate assumption cover?	What period does the mas rate assumption cover?	1761246	1471972816108	1471972816207	?	219
3482	36878	Later works dealt with ethical concerns in the modern world.	Later works dealt withethical concerns in the modern world.	1761582	1471972821445	1471972821663	SHIFT	16
3482	36878	Later works dealt with ethical concerns in the modern world.	Later works dealt withethical concerns in the modern world.	1761585	1471972821618	1471972821706	L	76
3482	36878	Later works dealt with ethical concerns in the modern world.	Later works dealt withethical concerns in the modern world.	1761588	1471972821800	1471972821973	a	65
3482	36878	Later works dealt with ethical concerns in the modern world.	Later works dealt withethical concerns in the modern world.	1761591	1471972821953	1471972822071	d	68
3482	36878	Later works dealt with ethical concerns in the modern world.	Later works dealt withethical concerns in the modern world.	1761594	1471972822353	1471972822409	+	187
3482	36878	Later works dealt with ethical concerns in the modern world.	Later works dealt withethical concerns in the modern world.	1761598	1471972822913	1471972822973	BKSP	8
3482	36878	Later works dealt with ethical concerns in the modern world.	Later works dealt withethical concerns in the modern world.	1761602	1471972823083	1471972823124	BKSP	8
3482	36878	Later works dealt with ethical concerns in the modern world.	Later works dealt withethical concerns in the modern world.	1761607	1471972823571	1471972823594	e	69
3482	36878	Later works dealt with ethical concerns in the modern world.	Later works dealt withethical concerns in the modern world.	1761642	1471972823704	1471972823790	t	84
3482	36878	Later works dealt with ethical concerns in the modern world.	Later works dealt withethical concerns in the modern world.	1761644	1471972823993	1471972824056	BKSP	8
3482	36878	Later works dealt with ethical concerns in the modern world.	Later works dealt withethical concerns in the modern world.	1761647	1471972824121	1471972824188	BKSP	8
3482	36878	Later works dealt with ethical concerns in the modern world.	Later works dealt withethical concerns in the modern world.	1761651	1471972824251	1471972824365	t	84
3482	36878	Later works dealt with ethical concerns in the modern world.	Later works dealt withethical concerns in the modern world.	1761654	1471972824380	1471972824540	e	69
3482	36878	Later works dealt with ethical concerns in the modern world.	Later works dealt withethical concerns in the modern world.	1761657	1471972824503	1471972824650	r	82
3482	36878	Later works dealt with ethical concerns in the modern world.	Later works dealt withethical concerns in the modern world.	1761658	1471972824852	1471972824971	 	32
3482	36878	Later works dealt with ethical concerns in the modern world.	Later works dealt withethical concerns in the modern world.	1761700	1471972825181	1471972825287	w	87
3482	36878	Later works dealt with ethical concerns in the modern world.	Later works dealt withethical concerns in the modern world.	1761703	1471972825381	1471972825426	o	79
3482	36878	Later works dealt with ethical concerns in the modern world.	Later works dealt withethical concerns in the modern world.	1761705	1471972825535	1471972825590	r	82
3482	36878	Later works dealt with ethical concerns in the modern world.	Later works dealt withethical concerns in the modern world.	1761708	1471972825918	1471972825989	k	75
3482	36878	Later works dealt with ethical concerns in the modern world.	Later works dealt withethical concerns in the modern world.	1761711	1471972826083	1471972826159	s	83
3482	36878	Later works dealt with ethical concerns in the modern world.	Later works dealt withethical concerns in the modern world.	1761766	1471972826600	1471972826674	 	32
3482	36878	Later works dealt with ethical concerns in the modern world.	Later works dealt withethical concerns in the modern world.	1761769	1471972827172	1471972827270	d	68
3482	36878	Later works dealt with ethical concerns in the modern world.	Later works dealt withethical concerns in the modern world.	1761772	1471972827317	1471972827408	e	69
3482	36878	Later works dealt with ethical concerns in the modern world.	Later works dealt withethical concerns in the modern world.	1761777	1471972827470	1471972827619	a	65
3482	36878	Later works dealt with ethical concerns in the modern world.	Later works dealt withethical concerns in the modern world.	1761782	1471972827650	1471972827723	r	82
3482	36878	Later works dealt with ethical concerns in the modern world.	Later works dealt withethical concerns in the modern world.	1761851	1471972828245	1471972828310	BKSP	8
3482	36878	Later works dealt with ethical concerns in the modern world.	Later works dealt withethical concerns in the modern world.	1761853	1471972828482	1471972828558	l	76
3482	36878	Later works dealt with ethical concerns in the modern world.	Later works dealt withethical concerns in the modern world.	1761855	1471972828620	1471972828691	d	68
3482	36878	Later works dealt with ethical concerns in the modern world.	Later works dealt withethical concerns in the modern world.	1761859	1471972828899	1471972828959	BKSP	8
3482	36878	Later works dealt with ethical concerns in the modern world.	Later works dealt withethical concerns in the modern world.	1761861	1471972829006	1471972829093	t	84
3482	36878	Later works dealt with ethical concerns in the modern world.	Later works dealt withethical concerns in the modern world.	1761866	1471972829202	1471972829275	 	32
3482	36878	Later works dealt with ethical concerns in the modern world.	Later works dealt withethical concerns in the modern world.	1761868	1471972829948	1471972830028	w	87
3482	36878	Later works dealt with ethical concerns in the modern world.	Later works dealt withethical concerns in the modern world.	1761955	1471972830130	1471972830210	i	73
3482	36878	Later works dealt with ethical concerns in the modern world.	Later works dealt withethical concerns in the modern world.	1761958	1471972830319	1471972830407	t	84
3482	36878	Later works dealt with ethical concerns in the modern world.	Later works dealt withethical concerns in the modern world.	1761963	1471972830463	1471972830543	h	72
3482	36878	Later works dealt with ethical concerns in the modern world.	Later works dealt withethical concerns in the modern world.	1761969	1471972830684	1471972830778	 	32
3482	36878	Later works dealt with ethical concerns in the modern world.	Later works dealt withethical concerns in the modern world.	1761974	1471972831635	1471972831709	t	84
3482	36878	Later works dealt with ethical concerns in the modern world.	Later works dealt withethical concerns in the modern world.	1762011	1471972831808	1471972831893	h	72
3482	36878	Later works dealt with ethical concerns in the modern world.	Later works dealt withethical concerns in the modern world.	1762014	1471972831956	1471972832042	i	73
3482	36878	Later works dealt with ethical concerns in the modern world.	Later works dealt withethical concerns in the modern world.	1762017	1471972832169	1471972832289	c	67
3482	36878	Later works dealt with ethical concerns in the modern world.	Later works dealt withethical concerns in the modern world.	1762020	1471972832305	1471972832391	a	65
3482	36878	Later works dealt with ethical concerns in the modern world.	Later works dealt withethical concerns in the modern world.	1762022	1471972832407	1471972832460	l	76
3482	36878	Later works dealt with ethical concerns in the modern world.	Later works dealt withethical concerns in the modern world.	1762183	1471972832944	1471972833011	BKSP	8
3482	36878	Later works dealt with ethical concerns in the modern world.	Later works dealt withethical concerns in the modern world.	1762185	1471972833089	1471972833161	BKSP	8
3482	36878	Later works dealt with ethical concerns in the modern world.	Later works dealt withethical concerns in the modern world.	1762187	1471972833255	1471972833325	BKSP	8
3482	36878	Later works dealt with ethical concerns in the modern world.	Later works dealt withethical concerns in the modern world.	1762190	1471972834296	1471972834362	BKSP	8
3482	36878	Later works dealt with ethical concerns in the modern world.	Later works dealt withethical concerns in the modern world.	1762193	1471972834456	1471972834527	BKSP	8
3482	36878	Later works dealt with ethical concerns in the modern world.	Later works dealt withethical concerns in the modern world.	1762196	1471972834605	1471972834645	BKSP	8
3482	36878	Later works dealt with ethical concerns in the modern world.	Later works dealt withethical concerns in the modern world.	1762198	1471972834724	1471972834773	BKSP	8
3482	36878	Later works dealt with ethical concerns in the modern world.	Later works dealt withethical concerns in the modern world.	1762201	1471972834938	1471972835024	e	69
3482	36878	Later works dealt with ethical concerns in the modern world.	Later works dealt withethical concerns in the modern world.	1762202	1471972835196	1471972835260	t	84
3482	36878	Later works dealt with ethical concerns in the modern world.	Later works dealt withethical concerns in the modern world.	1762204	1471972835416	1471972835523	h	72
3482	36878	Later works dealt with ethical concerns in the modern world.	Later works dealt withethical concerns in the modern world.	1762207	1471972835570	1471972835659	i	73
3482	36878	Later works dealt with ethical concerns in the modern world.	Later works dealt withethical concerns in the modern world.	1762210	1471972835721	1471972835842	c	67
3482	36878	Later works dealt with ethical concerns in the modern world.	Later works dealt withethical concerns in the modern world.	1762280	1471972835852	1471972835928	a	65
3482	36878	Later works dealt with ethical concerns in the modern world.	Later works dealt withethical concerns in the modern world.	1762286	1471972835943	1471972836026	l	76
3482	36878	Later works dealt with ethical concerns in the modern world.	Later works dealt withethical concerns in the modern world.	1762292	1471972836229	1471972836298	 	32
3482	36878	Later works dealt with ethical concerns in the modern world.	Later works dealt withethical concerns in the modern world.	1762298	1471972836985	1471972837063	c	67
3482	36878	Later works dealt with ethical concerns in the modern world.	Later works dealt withethical concerns in the modern world.	1762303	1471972837642	1471972837726	o	79
3482	36878	Later works dealt with ethical concerns in the modern world.	Later works dealt withethical concerns in the modern world.	1762354	1471972837810	1471972837894	n	78
3482	36878	Later works dealt with ethical concerns in the modern world.	Later works dealt withethical concerns in the modern world.	1762358	1471972838508	1471972838641	c	67
3482	36878	Later works dealt with ethical concerns in the modern world.	Later works dealt withethical concerns in the modern world.	1762364	1471972838719	1471972838841	e	69
3482	36878	Later works dealt with ethical concerns in the modern world.	Later works dealt withethical concerns in the modern world.	1762368	1471972838810	1471972838939	r	82
3482	36878	Later works dealt with ethical concerns in the modern world.	Later works dealt withethical concerns in the modern world.	1762371	1471972839147	1471972839245	n	78
3482	36878	Later works dealt with ethical concerns in the modern world.	Later works dealt withethical concerns in the modern world.	1762444	1471972839745	1471972839812	s	83
3482	36878	Later works dealt with ethical concerns in the modern world.	Later works dealt withethical concerns in the modern world.	1762447	1471972840141	1471972840276	 	32
3482	36878	Later works dealt with ethical concerns in the modern world.	Later works dealt withethical concerns in the modern world.	1762450	1471972840464	1471972840561	i	73
3482	36878	Later works dealt with ethical concerns in the modern world.	Later works dealt withethical concerns in the modern world.	1762453	1471972840592	1471972840660	n	78
3482	36878	Later works dealt with ethical concerns in the modern world.	Later works dealt withethical concerns in the modern world.	1762458	1471972840808	1471972840895	 	32
3482	36878	Later works dealt with ethical concerns in the modern world.	Later works dealt withethical concerns in the modern world.	1762553	1471972841085	1471972841179	t	84
3482	36878	Later works dealt with ethical concerns in the modern world.	Later works dealt withethical concerns in the modern world.	1762556	1471972841195	1471972841294	h	72
3482	36878	Later works dealt with ethical concerns in the modern world.	Later works dealt withethical concerns in the modern world.	1762559	1471972841294	1471972841377	e	69
3482	36878	Later works dealt with ethical concerns in the modern world.	Later works dealt withethical concerns in the modern world.	1762562	1471972841455	1471972841560	 	32
3482	36878	Later works dealt with ethical concerns in the modern world.	Later works dealt withethical concerns in the modern world.	1762565	1471972842628	1471972842713	m	77
3482	36878	Later works dealt with ethical concerns in the modern world.	Later works dealt withethical concerns in the modern world.	1762653	1471972842752	1471972842844	o	79
3482	36878	Later works dealt with ethical concerns in the modern world.	Later works dealt withethical concerns in the modern world.	1762657	1471972843533	1471972843673	d	68
3482	36878	Later works dealt with ethical concerns in the modern world.	Later works dealt withethical concerns in the modern world.	1762663	1471972843689	1471972843830	e	69
3482	36878	Later works dealt with ethical concerns in the modern world.	Later works dealt withethical concerns in the modern world.	1762669	1471972843778	1471972843908	r	82
3482	36878	Later works dealt with ethical concerns in the modern world.	Later works dealt withethical concerns in the modern world.	1762672	1471972844033	1471972844127	n	78
3482	36878	Later works dealt with ethical concerns in the modern world.	Later works dealt withethical concerns in the modern world.	1762724	1471972844262	1471972844379	 	32
3482	36878	Later works dealt with ethical concerns in the modern world.	Later works dealt withethical concerns in the modern world.	1762726	1471972845068	1471972845148	w	87
3482	36878	Later works dealt with ethical concerns in the modern world.	Later works dealt withethical concerns in the modern world.	1762732	1471972845179	1471972845280	o	79
3482	36878	Later works dealt with ethical concerns in the modern world.	Later works dealt withethical concerns in the modern world.	1762736	1471972845358	1471972845445	r	82
3482	36878	Later works dealt with ethical concerns in the modern world.	Later works dealt withethical concerns in the modern world.	1762740	1471972845585	1471972845633	l	76
3482	36878	Later works dealt with ethical concerns in the modern world.	Later works dealt withethical concerns in the modern world.	1762778	1471972845884	1471972845946	d	68
3482	36878	Later works dealt with ethical concerns in the modern world.	Later works dealt withethical concerns in the modern world.	1762780	1471972846698	1471972846780	.	190
3482	36906	I hope everything worked out okay with your rent.	I hope everything worked out okay with your rent.	1763145	1471972853490	1471972853684	SHIFT	16
3482	36906	I hope everything worked out okay with your rent.	I hope everything worked out okay with your rent.	1763149	1471972853646	1471972853747	I	73
3482	36906	I hope everything worked out okay with your rent.	I hope everything worked out okay with your rent.	1763154	1471972853934	1471972854031	 	32
3482	36906	I hope everything worked out okay with your rent.	I hope everything worked out okay with your rent.	1763159	1471972854156	1471972854248	h	72
3482	36906	I hope everything worked out okay with your rent.	I hope everything worked out okay with your rent.	1763162	1471972854388	1471972854483	o	79
3482	36906	I hope everything worked out okay with your rent.	I hope everything worked out okay with your rent.	1763166	1471972854608	1471972854681	p	80
3482	36906	I hope everything worked out okay with your rent.	I hope everything worked out okay with your rent.	1763227	1471972854728	1471972854830	e	69
3482	36906	I hope everything worked out okay with your rent.	I hope everything worked out okay with your rent.	1763233	1471972854939	1471972855018	 	32
3482	36906	I hope everything worked out okay with your rent.	I hope everything worked out okay with your rent.	1763240	1471972855501	1471972855568	e	69
3482	36906	I hope everything worked out okay with your rent.	I hope everything worked out okay with your rent.	1763247	1471972855709	1471972855750	v	86
3482	36906	I hope everything worked out okay with your rent.	I hope everything worked out okay with your rent.	1763249	1471972855891	1471972855985	e	69
3482	36906	I hope everything worked out okay with your rent.	I hope everything worked out okay with your rent.	1763329	1471972856191	1471972856266	r	82
3482	36906	I hope everything worked out okay with your rent.	I hope everything worked out okay with your rent.	1763334	1471972856532	1471972856615	y	89
3482	36906	I hope everything worked out okay with your rent.	I hope everything worked out okay with your rent.	1763338	1471972856865	1471972856934	t	84
3482	36906	I hope everything worked out okay with your rent.	I hope everything worked out okay with your rent.	1763344	1471972857048	1471972857147	h	72
3482	36906	I hope everything worked out okay with your rent.	I hope everything worked out okay with your rent.	1763347	1471972857178	1471972857281	i	73
3482	36906	I hope everything worked out okay with your rent.	I hope everything worked out okay with your rent.	1763416	1471972857323	1471972857447	n	78
3482	36906	I hope everything worked out okay with your rent.	I hope everything worked out okay with your rent.	1763419	1471972857478	1471972857549	g	71
3482	36906	I hope everything worked out okay with your rent.	I hope everything worked out okay with your rent.	1763422	1471972857738	1471972857832	 	32
3482	36906	I hope everything worked out okay with your rent.	I hope everything worked out okay with your rent.	1763424	1471972858303	1471972858382	w	87
3482	36906	I hope everything worked out okay with your rent.	I hope everything worked out okay with your rent.	1763427	1471972858492	1471972858568	o	79
3482	36906	I hope everything worked out okay with your rent.	I hope everything worked out okay with your rent.	1763498	1471972858691	1471972858765	r	82
3482	36906	I hope everything worked out okay with your rent.	I hope everything worked out okay with your rent.	1763502	1471972859149	1471972859237	k	75
3482	36906	I hope everything worked out okay with your rent.	I hope everything worked out okay with your rent.	1763506	1471972859754	1471972859846	e	69
3482	36906	I hope everything worked out okay with your rent.	I hope everything worked out okay with your rent.	1763511	1471972859893	1471972859983	d	68
3482	36906	I hope everything worked out okay with your rent.	I hope everything worked out okay with your rent.	1763515	1471972860166	1471972860237	 	32
3482	36906	I hope everything worked out okay with your rent.	I hope everything worked out okay with your rent.	1763600	1471972860605	1471972860683	o	79
3482	36906	I hope everything worked out okay with your rent.	I hope everything worked out okay with your rent.	1763602	1471972860920	1471972861000	u	85
3482	36906	I hope everything worked out okay with your rent.	I hope everything worked out okay with your rent.	1763605	1471972861063	1471972861136	t	84
3482	36906	I hope everything worked out okay with your rent.	I hope everything worked out okay with your rent.	1763611	1471972861308	1471972861403	 	32
3482	36906	I hope everything worked out okay with your rent.	I hope everything worked out okay with your rent.	1763616	1471972862170	1471972862237	o	79
3482	36906	I hope everything worked out okay with your rent.	I hope everything worked out okay with your rent.	1763739	1471972862447	1471972862535	k	75
3482	36906	I hope everything worked out okay with your rent.	I hope everything worked out okay with your rent.	1763744	1471972862581	1471972862655	a	65
3482	36906	I hope everything worked out okay with your rent.	I hope everything worked out okay with your rent.	1763745	1471972862788	1471972862852	y	89
3482	36906	I hope everything worked out okay with your rent.	I hope everything worked out okay with your rent.	1763751	1471972863010	1471972863117	 	32
3482	36906	I hope everything worked out okay with your rent.	I hope everything worked out okay with your rent.	1763753	1471972864629	1471972864704	w	87
3482	36906	I hope everything worked out okay with your rent.	I hope everything worked out okay with your rent.	1763834	1471972864821	1471972864904	i	73
3482	36906	I hope everything worked out okay with your rent.	I hope everything worked out okay with your rent.	1763843	1471972865091	1471972865163	t	84
3482	36906	I hope everything worked out okay with your rent.	I hope everything worked out okay with your rent.	1763849	1471972865210	1471972865300	h	72
3482	36906	I hope everything worked out okay with your rent.	I hope everything worked out okay with your rent.	1763855	1471972865425	1471972865506	 	32
3482	36906	I hope everything worked out okay with your rent.	I hope everything worked out okay with your rent.	1763858	1471972866207	1471972866287	y	89
3482	36906	I hope everything worked out okay with your rent.	I hope everything worked out okay with your rent.	1763900	1471972866365	1471972866451	o	79
3482	36906	I hope everything worked out okay with your rent.	I hope everything worked out okay with your rent.	1763902	1471972866560	1471972866650	u	85
3482	36906	I hope everything worked out okay with your rent.	I hope everything worked out okay with your rent.	1763907	1471972866729	1471972866804	t	84
3482	36906	I hope everything worked out okay with your rent.	I hope everything worked out okay with your rent.	1763912	1471972867134	1471972867205	BKSP	8
3482	36906	I hope everything worked out okay with your rent.	I hope everything worked out okay with your rent.	1763915	1471972867237	1471972867306	r	82
3482	36906	I hope everything worked out okay with your rent.	I hope everything worked out okay with your rent.	1763917	1471972867400	1471972867485	 	32
3482	36906	I hope everything worked out okay with your rent.	I hope everything worked out okay with your rent.	1763981	1471972867948	1471972868051	r	82
3482	36906	I hope everything worked out okay with your rent.	I hope everything worked out okay with your rent.	1763986	1471972868067	1471972868153	e	69
3482	36906	I hope everything worked out okay with your rent.	I hope everything worked out okay with your rent.	1763992	1471972868216	1471972868304	n	78
3482	36906	I hope everything worked out okay with your rent.	I hope everything worked out okay with your rent.	1763998	1471972868351	1471972868435	t	84
3482	36906	I hope everything worked out okay with your rent.	I hope everything worked out okay with your rent.	1764002	1471972868956	1471972869054	.	190
3482	36930	The night promised to be long.	The night proised to be long.	1764151	1471972871685	1471972871983	SHIFT	16
3482	36930	The night promised to be long.	The night proised to be long.	1764149	1471972871842	1471972871921	T	84
3482	36930	The night promised to be long.	The night proised to be long.	1764153	1471972872046	1471972872137	h	72
3482	36930	The night promised to be long.	The night proised to be long.	1764155	1471972872169	1471972872252	e	69
3482	36930	The night promised to be long.	The night proised to be long.	1764157	1471972872596	1471972872690	 	32
3482	36930	The night promised to be long.	The night proised to be long.	1764161	1471972873018	1471972873088	n	78
3482	36930	The night promised to be long.	The night proised to be long.	1764237	1471972873130	1471972873220	i	73
3482	36930	The night promised to be long.	The night proised to be long.	1764241	1471972873376	1471972873422	g	71
3482	36930	The night promised to be long.	The night proised to be long.	1764245	1471972873795	1471972873857	h	72
3482	36930	The night promised to be long.	The night proised to be long.	1764250	1471972874076	1471972874124	y	89
3482	36930	The night promised to be long.	The night proised to be long.	1764253	1471972874438	1471972874505	BKSP	8
3482	36930	The night promised to be long.	The night proised to be long.	1764257	1471972874536	1471972874606	t	84
3482	36930	The night promised to be long.	The night proised to be long.	1764327	1471972874712	1471972874790	 	32
3482	36930	The night promised to be long.	The night proised to be long.	1764330	1471972875205	1471972875286	p	80
3482	36930	The night promised to be long.	The night proised to be long.	1764336	1471972875775	1471972875857	r	82
3482	36930	The night promised to be long.	The night proised to be long.	1764340	1471972875966	1471972876055	o	79
3482	36930	The night promised to be long.	The night proised to be long.	1764345	1471972876477	1471972876555	i	73
3482	36930	The night promised to be long.	The night proised to be long.	1764381	1471972876587	1471972876686	s	83
3482	36930	The night promised to be long.	The night proised to be long.	1764387	1471972876749	1471972876839	e	69
3482	36930	The night promised to be long.	The night proised to be long.	1764394	1471972876917	1471972877006	d	68
3482	36930	The night promised to be long.	The night proised to be long.	1764400	1471972877084	1471972877173	 	32
3482	36930	The night promised to be long.	The night proised to be long.	1764405	1471972877438	1471972877485	t	84
3482	36930	The night promised to be long.	The night proised to be long.	1764426	1471972877670	1471972877756	o	79
3482	36930	The night promised to be long.	The night proised to be long.	1764429	1471972877834	1471972877925	 	32
3482	36930	The night promised to be long.	The night proised to be long.	1764436	1471972878098	1471972878174	b	66
3482	36930	The night promised to be long.	The night proised to be long.	1764442	1471972878190	1471972878240	e	69
3482	36930	The night promised to be long.	The night proised to be long.	1764447	1471972878334	1471972878408	 	32
3482	36930	The night promised to be long.	The night proised to be long.	1764507	1471972878803	1471972878876	l	76
3482	36930	The night promised to be long.	The night proised to be long.	1764509	1471972878985	1471972879043	o	79
3482	36930	The night promised to be long.	The night proised to be long.	1764512	1471972879168	1471972879242	n	78
3482	36930	The night promised to be long.	The night proised to be long.	1764514	1471972879414	1471972879461	g	71
3482	36930	The night promised to be long.	The night proised to be long.	1764516	1471972880134	1471972880192	.	190
3482	36930	The night promised to be long.	The night proised to be long.	1764555	1471972880180	1471972880220	-	189
3482	36930	The night promised to be long.	The night proised to be long.	1764557	1471972880699	1471972880759	BKSP	8
3482	36945	What is up with ENE?	What is up tith ENE?	1764935	1471972887483	1471972887859	SHIFT	16
3482	36945	What is up with ENE?	What is up tith ENE?	1764938	1471972887785	1471972887890	W	87
3482	36945	What is up with ENE?	What is up tith ENE?	1764941	1471972888595	1471972888677	h	72
3482	36945	What is up with ENE?	What is up tith ENE?	1764944	1471972888692	1471972888759	a	65
3482	36945	What is up with ENE?	What is up tith ENE?	1764945	1471972888868	1471972888926	t	84
3482	36945	What is up with ENE?	What is up tith ENE?	1764947	1471972889223	1471972889326	 	32
3482	36945	What is up with ENE?	What is up tith ENE?	1764998	1471972889669	1471972889752	i	73
3482	36945	What is up with ENE?	What is up tith ENE?	1764999	1471972889728	1471972889809	s	83
3482	36945	What is up with ENE?	What is up tith ENE?	1765000	1471972889895	1471972889993	 	32
3482	36945	What is up with ENE?	What is up tith ENE?	1765002	1471972890635	1471972890709	u	85
3482	36945	What is up with ENE?	What is up tith ENE?	1765005	1471972890819	1471972890908	p	80
3482	36945	What is up with ENE?	What is up tith ENE?	1765091	1471972891101	1471972891162	 	32
3482	36945	What is up with ENE?	What is up tith ENE?	1765093	1471972891851	1471972891912	t	84
3482	36945	What is up with ENE?	What is up tith ENE?	1765095	1471972892429	1471972892510	h	72
3482	36945	What is up with ENE?	What is up tith ENE?	1765097	1471972892788	1471972892875	BKSP	8
3482	36945	What is up with ENE?	What is up tith ENE?	1765099	1471972893141	1471972893210	i	73
3482	36945	What is up with ENE?	What is up tith ENE?	1765103	1471972893320	1471972893362	t	84
3482	36945	What is up with ENE?	What is up tith ENE?	1765163	1471972893434	1471972893496	h	72
3482	36945	What is up with ENE?	What is up tith ENE?	1765168	1471972893621	1471972893711	 	32
3482	36945	What is up with ENE?	What is up tith ENE?	1765207	1471972894101	1471972896147	SHIFT	16
3482	36945	What is up with ENE?	What is up tith ENE?	1765174	1471972894482	1471972894594	E	69
3482	36945	What is up with ENE?	What is up tith ENE?	1765180	1471972894781	1471972894860	N	78
3482	36945	What is up with ENE?	What is up tith ENE?	1765184	1471972895266	1471972895359	E	69
3482	36945	What is up with ENE?	What is up tith ENE?	1765209	1471972896102	1471972896257	?	219
3482	36959	England star Paul Gascoigne was one of the recipients of the loans.	England star Paul Gascoigne was one of the recipients of the leans.	1765559	1471972902429	1471972902833	SHIFT	16
3482	36959	England star Paul Gascoigne was one of the recipients of the loans.	England star Paul Gascoigne was one of the recipients of the leans.	1765563	1471972902788	1471972902896	E	69
3482	36959	England star Paul Gascoigne was one of the recipients of the loans.	England star Paul Gascoigne was one of the recipients of the leans.	1765566	1471972903476	1471972903580	n	78
3482	36959	England star Paul Gascoigne was one of the recipients of the loans.	England star Paul Gascoigne was one of the recipients of the leans.	1765568	1471972904128	1471972904212	g	71
3482	36959	England star Paul Gascoigne was one of the recipients of the loans.	England star Paul Gascoigne was one of the recipients of the leans.	1765569	1471972904540	1471972904614	l	76
3482	36959	England star Paul Gascoigne was one of the recipients of the loans.	England star Paul Gascoigne was one of the recipients of the leans.	1765572	1471972904661	1471972904747	a	65
3482	36959	England star Paul Gascoigne was one of the recipients of the loans.	England star Paul Gascoigne was one of the recipients of the leans.	1765675	1471972904779	1471972904864	n	78
3482	36959	England star Paul Gascoigne was one of the recipients of the loans.	England star Paul Gascoigne was one of the recipients of the leans.	1765679	1471972905603	1471972905664	d	68
3482	36959	England star Paul Gascoigne was one of the recipients of the loans.	England star Paul Gascoigne was one of the recipients of the leans.	1765684	1471972906185	1471972906265	 	32
3482	36959	England star Paul Gascoigne was one of the recipients of the loans.	England star Paul Gascoigne was one of the recipients of the leans.	1765688	1471972906985	1471972907094	s	83
3482	36959	England star Paul Gascoigne was one of the recipients of the loans.	England star Paul Gascoigne was one of the recipients of the leans.	1765692	1471972907157	1471972907250	a	65
3482	36959	England star Paul Gascoigne was one of the recipients of the loans.	England star Paul Gascoigne was one of the recipients of the leans.	1765769	1471972907550	1471972907631	BKSP	8
3482	36959	England star Paul Gascoigne was one of the recipients of the loans.	England star Paul Gascoigne was one of the recipients of the leans.	1765771	1471972907662	1471972907793	t	84
3482	36959	England star Paul Gascoigne was one of the recipients of the loans.	England star Paul Gascoigne was one of the recipients of the leans.	1765775	1471972907809	1471972907966	a	65
3482	36959	England star Paul Gascoigne was one of the recipients of the loans.	England star Paul Gascoigne was one of the recipients of the leans.	1765779	1471972907930	1471972908049	r	82
3482	36959	England star Paul Gascoigne was one of the recipients of the loans.	England star Paul Gascoigne was one of the recipients of the leans.	1765782	1471972908386	1471972908512	 	32
3482	36959	England star Paul Gascoigne was one of the recipients of the loans.	England star Paul Gascoigne was one of the recipients of the leans.	1765909	1471972908968	1471972909236	SHIFT	16
3482	36959	England star Paul Gascoigne was one of the recipients of the loans.	England star Paul Gascoigne was one of the recipients of the leans.	1765783	1471972909140	1471972909200	P	80
3482	36959	England star Paul Gascoigne was one of the recipients of the loans.	England star Paul Gascoigne was one of the recipients of the leans.	1765913	1471972909856	1471972909948	a	65
3482	36959	England star Paul Gascoigne was one of the recipients of the loans.	England star Paul Gascoigne was one of the recipients of the leans.	1765915	1471972910292	1471972910351	u	85
3482	36959	England star Paul Gascoigne was one of the recipients of the loans.	England star Paul Gascoigne was one of the recipients of the leans.	1765916	1471972910460	1471972910533	l	76
3482	36959	England star Paul Gascoigne was one of the recipients of the loans.	England star Paul Gascoigne was one of the recipients of the leans.	1765918	1471972910752	1471972910818	 	32
3482	36959	England star Paul Gascoigne was one of the recipients of the loans.	England star Paul Gascoigne was one of the recipients of the leans.	1765986	1471972911163	1471972911802	SHIFT	16
3482	36959	England star Paul Gascoigne was one of the recipients of the loans.	England star Paul Gascoigne was one of the recipients of the leans.	1765920	1471972911696	1471972911767	G	71
3482	36959	England star Paul Gascoigne was one of the recipients of the loans.	England star Paul Gascoigne was one of the recipients of the leans.	1765989	1471972912099	1471972912183	a	65
3482	36959	England star Paul Gascoigne was one of the recipients of the loans.	England star Paul Gascoigne was one of the recipients of the leans.	1765991	1471972912623	1471972912660	s	83
3482	36959	England star Paul Gascoigne was one of the recipients of the loans.	England star Paul Gascoigne was one of the recipients of the leans.	1765994	1471972913106	1471972913200	c	67
3482	36959	England star Paul Gascoigne was one of the recipients of the loans.	England star Paul Gascoigne was one of the recipients of the leans.	1765996	1471972913278	1471972913396	o	79
3482	36959	England star Paul Gascoigne was one of the recipients of the loans.	England star Paul Gascoigne was one of the recipients of the leans.	1765997	1471972913505	1471972913569	i	73
3482	36959	England star Paul Gascoigne was one of the recipients of the loans.	England star Paul Gascoigne was one of the recipients of the leans.	1766085	1471972913667	1471972913769	n	78
3482	36959	England star Paul Gascoigne was one of the recipients of the loans.	England star Paul Gascoigne was one of the recipients of the leans.	1766087	1471972914777	1471972914853	BKSP	8
3482	36959	England star Paul Gascoigne was one of the recipients of the loans.	England star Paul Gascoigne was one of the recipients of the leans.	1766089	1471972915150	1471972915233	g	71
3482	36959	England star Paul Gascoigne was one of the recipients of the loans.	England star Paul Gascoigne was one of the recipients of the leans.	1766091	1471972915284	1471972915352	n	78
3482	36959	England star Paul Gascoigne was one of the recipients of the loans.	England star Paul Gascoigne was one of the recipients of the leans.	1766094	1471972915383	1471972915467	e	69
3482	36959	England star Paul Gascoigne was one of the recipients of the loans.	England star Paul Gascoigne was one of the recipients of the leans.	1766097	1471972915545	1471972915603	 	32
3482	36959	England star Paul Gascoigne was one of the recipients of the loans.	England star Paul Gascoigne was one of the recipients of the leans.	1766139	1471972916433	1471972916549	w	87
3482	36959	England star Paul Gascoigne was one of the recipients of the loans.	England star Paul Gascoigne was one of the recipients of the leans.	1766140	1471972916549	1471972916735	a	65
3482	36959	England star Paul Gascoigne was one of the recipients of the loans.	England star Paul Gascoigne was one of the recipients of the leans.	1766141	1471972916668	1471972916797	s	83
3482	36959	England star Paul Gascoigne was one of the recipients of the loans.	England star Paul Gascoigne was one of the recipients of the leans.	1766142	1471972916938	1471972917036	 	32
3482	36959	England star Paul Gascoigne was one of the recipients of the loans.	England star Paul Gascoigne was one of the recipients of the leans.	1766143	1471972917255	1471972917352	o	79
3482	36959	England star Paul Gascoigne was one of the recipients of the loans.	England star Paul Gascoigne was one of the recipients of the leans.	1766199	1471972917401	1471972917519	e	69
3482	36959	England star Paul Gascoigne was one of the recipients of the loans.	England star Paul Gascoigne was one of the recipients of the leans.	1766198	1471972917459	1471972917487	n	78
3482	36959	England star Paul Gascoigne was one of the recipients of the loans.	England star Paul Gascoigne was one of the recipients of the leans.	1766200	1471972918241	1471972918333	BKSP	8
3482	36959	England star Paul Gascoigne was one of the recipients of the loans.	England star Paul Gascoigne was one of the recipients of the leans.	1766202	1471972918411	1471972918501	BKSP	8
3482	36959	England star Paul Gascoigne was one of the recipients of the loans.	England star Paul Gascoigne was one of the recipients of the leans.	1766205	1471972918844	1471972918918	n	78
3482	36959	England star Paul Gascoigne was one of the recipients of the loans.	England star Paul Gascoigne was one of the recipients of the leans.	1766209	1471972918918	1471972919017	e	69
3482	36959	England star Paul Gascoigne was one of the recipients of the loans.	England star Paul Gascoigne was one of the recipients of the leans.	1766213	1471972919064	1471972919137	 	32
3482	36959	England star Paul Gascoigne was one of the recipients of the loans.	England star Paul Gascoigne was one of the recipients of the leans.	1766253	1471972919297	1471972919400	o	79
3482	36959	England star Paul Gascoigne was one of the recipients of the loans.	England star Paul Gascoigne was one of the recipients of the leans.	1766255	1471972919952	1471972920042	f	70
3482	36959	England star Paul Gascoigne was one of the recipients of the loans.	England star Paul Gascoigne was one of the recipients of the leans.	1766258	1471972920089	1471972920203	 	32
3482	36959	England star Paul Gascoigne was one of the recipients of the loans.	England star Paul Gascoigne was one of the recipients of the leans.	1766261	1471972920281	1471972920367	t	84
3482	36959	England star Paul Gascoigne was one of the recipients of the loans.	England star Paul Gascoigne was one of the recipients of the leans.	1766264	1471972920414	1471972920501	h	72
3482	36959	England star Paul Gascoigne was one of the recipients of the loans.	England star Paul Gascoigne was one of the recipients of the leans.	1766291	1471972920578	1471972920669	e	69
3482	36959	England star Paul Gascoigne was one of the recipients of the loans.	England star Paul Gascoigne was one of the recipients of the leans.	1766293	1471972920809	1471972920888	 	32
3482	36959	England star Paul Gascoigne was one of the recipients of the loans.	England star Paul Gascoigne was one of the recipients of the leans.	1766295	1471972921364	1471972921471	r	82
3482	36959	England star Paul Gascoigne was one of the recipients of the loans.	England star Paul Gascoigne was one of the recipients of the leans.	1766299	1471972921471	1471972921554	e	69
3482	36959	England star Paul Gascoigne was one of the recipients of the loans.	England star Paul Gascoigne was one of the recipients of the leans.	1766302	1471972921663	1471972921769	c	67
3482	36959	England star Paul Gascoigne was one of the recipients of the loans.	England star Paul Gascoigne was one of the recipients of the leans.	1766407	1471972921825	1471972921892	u	85
3482	36959	England star Paul Gascoigne was one of the recipients of the loans.	England star Paul Gascoigne was one of the recipients of the leans.	1766409	1471972922530	1471972922589	BKSP	8
3482	36959	England star Paul Gascoigne was one of the recipients of the loans.	England star Paul Gascoigne was one of the recipients of the leans.	1766413	1471972923083	1471972923155	i	73
3482	36959	England star Paul Gascoigne was one of the recipients of the loans.	England star Paul Gascoigne was one of the recipients of the leans.	1766416	1471972923295	1471972923387	p	80
3482	36959	England star Paul Gascoigne was one of the recipients of the loans.	England star Paul Gascoigne was one of the recipients of the leans.	1766418	1471972923481	1471972923568	i	73
3482	36959	England star Paul Gascoigne was one of the recipients of the loans.	England star Paul Gascoigne was one of the recipients of the leans.	1766423	1471972924243	1471972924321	e	69
3482	36959	England star Paul Gascoigne was one of the recipients of the loans.	England star Paul Gascoigne was one of the recipients of the leans.	1766464	1471972924404	1471972924472	n	78
3482	36959	England star Paul Gascoigne was one of the recipients of the loans.	England star Paul Gascoigne was one of the recipients of the leans.	1766470	1471972924753	1471972924854	t	84
3482	36959	England star Paul Gascoigne was one of the recipients of the loans.	England star Paul Gascoigne was one of the recipients of the leans.	1766472	1471972924947	1471972925038	s	83
3482	36959	England star Paul Gascoigne was one of the recipients of the loans.	England star Paul Gascoigne was one of the recipients of the leans.	1766476	1471972925147	1471972925239	 	32
3482	36959	England star Paul Gascoigne was one of the recipients of the loans.	England star Paul Gascoigne was one of the recipients of the leans.	1766485	1471972925365	1471972925462	o	79
3482	36959	England star Paul Gascoigne was one of the recipients of the loans.	England star Paul Gascoigne was one of the recipients of the leans.	1766506	1471972925585	1471972925723	f	70
3482	36959	England star Paul Gascoigne was one of the recipients of the loans.	England star Paul Gascoigne was one of the recipients of the leans.	1766507	1471972925688	1471972925786	 	32
3482	36959	England star Paul Gascoigne was one of the recipients of the loans.	England star Paul Gascoigne was one of the recipients of the leans.	1766509	1471972925817	1471972925935	t	84
3482	36959	England star Paul Gascoigne was one of the recipients of the loans.	England star Paul Gascoigne was one of the recipients of the leans.	1766512	1471972925935	1471972926021	h	72
3482	36959	England star Paul Gascoigne was one of the recipients of the loans.	England star Paul Gascoigne was one of the recipients of the leans.	1766515	1471972926021	1471972926105	e	69
3482	36959	England star Paul Gascoigne was one of the recipients of the loans.	England star Paul Gascoigne was one of the recipients of the leans.	1766588	1471972926168	1471972926253	 	32
3482	36959	England star Paul Gascoigne was one of the recipients of the loans.	England star Paul Gascoigne was one of the recipients of the leans.	1766592	1471972926430	1471972926522	l	76
3482	36959	England star Paul Gascoigne was one of the recipients of the loans.	England star Paul Gascoigne was one of the recipients of the leans.	1766597	1471972926585	1471972926687	e	69
3482	36959	England star Paul Gascoigne was one of the recipients of the loans.	England star Paul Gascoigne was one of the recipients of the leans.	1766601	1471972926765	1471972926887	a	65
3482	36959	England star Paul Gascoigne was one of the recipients of the loans.	England star Paul Gascoigne was one of the recipients of the leans.	1766604	1471972927685	1471972927772	n	78
3482	36959	England star Paul Gascoigne was one of the recipients of the loans.	England star Paul Gascoigne was one of the recipients of the leans.	1766654	1471972927825	1471972927906	s	83
3482	36959	England star Paul Gascoigne was one of the recipients of the loans.	England star Paul Gascoigne was one of the recipients of the leans.	1766657	1471972928501	1471972928572	.	190
3482	36987	He is listed as probable for Monday's game against Tennessee.	He is listed as probable fot Mondays game against Tennessee.	1766822	1471972932072	1471972932316	SHIFT	16
3482	36987	He is listed as probable for Monday's game against Tennessee.	He is listed as probable fot Mondays game against Tennessee.	1766824	1471972932296	1471972932391	H	72
3482	36987	He is listed as probable for Monday's game against Tennessee.	He is listed as probable fot Mondays game against Tennessee.	1766827	1471972932469	1471972932554	e	69
3482	36987	He is listed as probable for Monday's game against Tennessee.	He is listed as probable fot Mondays game against Tennessee.	1766831	1471972932617	1471972932705	 	32
3482	36987	He is listed as probable for Monday's game against Tennessee.	He is listed as probable fot Mondays game against Tennessee.	1766834	1471972933097	1471972933140	i	73
3482	36987	He is listed as probable for Monday's game against Tennessee.	He is listed as probable fot Mondays game against Tennessee.	1766835	1471972933187	1471972933272	s	83
3482	36987	He is listed as probable for Monday's game against Tennessee.	He is listed as probable fot Mondays game against Tennessee.	1766891	1471972933317	1471972933408	 	32
3482	36987	He is listed as probable for Monday's game against Tennessee.	He is listed as probable fot Mondays game against Tennessee.	1766895	1471972933768	1471972933856	l	76
3482	36987	He is listed as probable for Monday's game against Tennessee.	He is listed as probable fot Mondays game against Tennessee.	1766898	1471972933981	1471972934043	i	73
3482	36987	He is listed as probable for Monday's game against Tennessee.	He is listed as probable fot Mondays game against Tennessee.	1766902	1471972934137	1471972934176	s	83
3482	36987	He is listed as probable for Monday's game against Tennessee.	He is listed as probable fot Mondays game against Tennessee.	1766905	1471972934561	1471972934658	t	84
3482	36987	He is listed as probable for Monday's game against Tennessee.	He is listed as probable fot Mondays game against Tennessee.	1766954	1471972934714	1471972934820	e	69
3482	36987	He is listed as probable for Monday's game against Tennessee.	He is listed as probable fot Mondays game against Tennessee.	1766956	1471972934930	1471972935039	d	68
3482	36987	He is listed as probable for Monday's game against Tennessee.	He is listed as probable fot Mondays game against Tennessee.	1766960	1471972935165	1471972935242	 	32
3482	36987	He is listed as probable for Monday's game against Tennessee.	He is listed as probable fot Mondays game against Tennessee.	1766964	1471972935632	1471972935797	a	65
3482	36987	He is listed as probable for Monday's game against Tennessee.	He is listed as probable fot Mondays game against Tennessee.	1767066	1471972935767	1471972935876	s	83
3482	36987	He is listed as probable for Monday's game against Tennessee.	He is listed as probable fot Mondays game against Tennessee.	1767068	1471972935954	1471972936040	 	32
3482	36987	He is listed as probable for Monday's game against Tennessee.	He is listed as probable fot Mondays game against Tennessee.	1767069	1471972936575	1471972936643	p	80
3482	36987	He is listed as probable for Monday's game against Tennessee.	He is listed as probable fot Mondays game against Tennessee.	1767070	1471972936893	1471972936975	r	82
3482	36987	He is listed as probable for Monday's game against Tennessee.	He is listed as probable fot Mondays game against Tennessee.	1767071	1471972937038	1471972937124	o	79
3482	36987	He is listed as probable for Monday's game against Tennessee.	He is listed as probable fot Mondays game against Tennessee.	1767072	1471972937592	1471972937658	b	66
3482	36987	He is listed as probable for Monday's game against Tennessee.	He is listed as probable fot Mondays game against Tennessee.	1767110	1471972937712	1471972937806	a	65
3482	36987	He is listed as probable for Monday's game against Tennessee.	He is listed as probable fot Mondays game against Tennessee.	1767112	1471972937978	1471972938075	b	66
3482	36987	He is listed as probable for Monday's game against Tennessee.	He is listed as probable fot Mondays game against Tennessee.	1767115	1471972938153	1471972938267	l	76
3482	36987	He is listed as probable for Monday's game against Tennessee.	He is listed as probable fot Mondays game against Tennessee.	1767116	1471972938267	1471972938359	e	69
3482	36987	He is listed as probable for Monday's game against Tennessee.	He is listed as probable fot Mondays game against Tennessee.	1767118	1471972938469	1471972938556	 	32
3482	36987	He is listed as probable for Monday's game against Tennessee.	He is listed as probable fot Mondays game against Tennessee.	1767195	1471972938843	1471972938894	f	70
3482	36987	He is listed as probable for Monday's game against Tennessee.	He is listed as probable fot Mondays game against Tennessee.	1767196	1471972939020	1471972939140	o	79
3482	36987	He is listed as probable for Monday's game against Tennessee.	He is listed as probable fot Mondays game against Tennessee.	1767198	1471972939140	1471972939208	t	84
3482	36987	He is listed as probable for Monday's game against Tennessee.	He is listed as probable fot Mondays game against Tennessee.	1767202	1471972939318	1471972939379	 	32
3482	36987	He is listed as probable for Monday's game against Tennessee.	He is listed as probable fot Mondays game against Tennessee.	1767206	1471972939754	1471972939874	m	77
3482	36987	He is listed as probable for Monday's game against Tennessee.	He is listed as probable fot Mondays game against Tennessee.	1767275	1471972939904	1471972940006	o	79
3482	36987	He is listed as probable for Monday's game against Tennessee.	He is listed as probable fot Mondays game against Tennessee.	1767278	1471972940241	1471972940323	BKSP	8
3482	36987	He is listed as probable for Monday's game against Tennessee.	He is listed as probable fot Mondays game against Tennessee.	1767281	1471972940387	1471972940459	BKSP	8
3482	36987	He is listed as probable for Monday's game against Tennessee.	He is listed as probable fot Mondays game against Tennessee.	1767286	1471972940521	1471972940777	SHIFT	16
3482	36987	He is listed as probable for Monday's game against Tennessee.	He is listed as probable fot Mondays game against Tennessee.	1767290	1471972940724	1471972940808	M	77
3482	36987	He is listed as probable for Monday's game against Tennessee.	He is listed as probable fot Mondays game against Tennessee.	1767295	1471972941040	1471972941124	o	79
3482	36987	He is listed as probable for Monday's game against Tennessee.	He is listed as probable fot Mondays game against Tennessee.	1767300	1471972941187	1471972941293	n	78
3482	36987	He is listed as probable for Monday's game against Tennessee.	He is listed as probable fot Mondays game against Tennessee.	1767305	1471972941621	1471972941708	d	68
3482	36987	He is listed as probable for Monday's game against Tennessee.	He is listed as probable fot Mondays game against Tennessee.	1767346	1471972941763	1471972941859	a	65
3482	36987	He is listed as probable for Monday's game against Tennessee.	He is listed as probable fot Mondays game against Tennessee.	1767350	1471972941937	1471972942008	y	89
3482	36987	He is listed as probable for Monday's game against Tennessee.	He is listed as probable fot Mondays game against Tennessee.	1767352	1471972942670	1471972942744	s	83
3482	36987	He is listed as probable for Monday's game against Tennessee.	He is listed as probable fot Mondays game against Tennessee.	1767355	1471972942916	1471972942994	 	32
3482	36987	He is listed as probable for Monday's game against Tennessee.	He is listed as probable fot Mondays game against Tennessee.	1767397	1471972943541	1471972943629	g	71
3482	36987	He is listed as probable for Monday's game against Tennessee.	He is listed as probable fot Mondays game against Tennessee.	1767399	1471972943691	1471972943792	a	65
3482	36987	He is listed as probable for Monday's game against Tennessee.	He is listed as probable fot Mondays game against Tennessee.	1767403	1471972943886	1471972943996	m	77
3482	36987	He is listed as probable for Monday's game against Tennessee.	He is listed as probable fot Mondays game against Tennessee.	1767409	1471972944004	1471972944092	e	69
3482	36987	He is listed as probable for Monday's game against Tennessee.	He is listed as probable fot Mondays game against Tennessee.	1767414	1471972944185	1471972944262	 	32
3482	36987	He is listed as probable for Monday's game against Tennessee.	He is listed as probable fot Mondays game against Tennessee.	1767446	1471972944369	1471972944486	a	65
3482	36987	He is listed as probable for Monday's game against Tennessee.	He is listed as probable fot Mondays game against Tennessee.	1767450	1471972944890	1471972944977	g	71
3482	36987	He is listed as probable for Monday's game against Tennessee.	He is listed as probable fot Mondays game against Tennessee.	1767453	1471972944993	1471972945078	a	65
3482	36987	He is listed as probable for Monday's game against Tennessee.	He is listed as probable fot Mondays game against Tennessee.	1767456	1471972945219	1471972945313	i	73
3482	36987	He is listed as probable for Monday's game against Tennessee.	He is listed as probable fot Mondays game against Tennessee.	1767458	1471972945375	1471972945458	n	78
3482	36987	He is listed as probable for Monday's game against Tennessee.	He is listed as probable fot Mondays game against Tennessee.	1767504	1471972945513	1471972945593	s	83
3482	36987	He is listed as probable for Monday's game against Tennessee.	He is listed as probable fot Mondays game against Tennessee.	1767507	1471972945765	1471972945844	t	84
3482	36987	He is listed as probable for Monday's game against Tennessee.	He is listed as probable fot Mondays game against Tennessee.	1767511	1471972945961	1471972946044	 	32
3482	36987	He is listed as probable for Monday's game against Tennessee.	He is listed as probable fot Mondays game against Tennessee.	1767515	1471972946341	1471972946812	SHIFT	16
3482	36987	He is listed as probable for Monday's game against Tennessee.	He is listed as probable fot Mondays game against Tennessee.	1767646	1471972946674	1471972946854	>	226
3482	36987	He is listed as probable for Monday's game against Tennessee.	He is listed as probable fot Mondays game against Tennessee.	1767643	1471972946730	1471972946838	T	84
3482	36987	He is listed as probable for Monday's game against Tennessee.	He is listed as probable fot Mondays game against Tennessee.	1767648	1471972947531	1471972947579	BKSP	8
3482	36987	He is listed as probable for Monday's game against Tennessee.	He is listed as probable fot Mondays game against Tennessee.	1767650	1471972947658	1471972947728	BKSP	8
3482	36987	He is listed as probable for Monday's game against Tennessee.	He is listed as probable fot Mondays game against Tennessee.	1767656	1471972947900	1471972948379	SHIFT	16
3482	36987	He is listed as probable for Monday's game against Tennessee.	He is listed as probable fot Mondays game against Tennessee.	1767653	1471972948292	1471972948364	T	84
3482	36987	He is listed as probable for Monday's game against Tennessee.	He is listed as probable fot Mondays game against Tennessee.	1767659	1471972948868	1471972948943	e	69
3482	36987	He is listed as probable for Monday's game against Tennessee.	He is listed as probable fot Mondays game against Tennessee.	1767662	1471972949006	1471972949077	n	78
3482	36987	He is listed as probable for Monday's game against Tennessee.	He is listed as probable fot Mondays game against Tennessee.	1767665	1471972949202	1471972949248	n	78
3482	36987	He is listed as probable for Monday's game against Tennessee.	He is listed as probable fot Mondays game against Tennessee.	1767669	1471972949543	1471972949628	e	69
3482	36987	He is listed as probable for Monday's game against Tennessee.	He is listed as probable fot Mondays game against Tennessee.	1767879	1471972949771	1471972949844	s	83
3482	36987	He is listed as probable for Monday's game against Tennessee.	He is listed as probable fot Mondays game against Tennessee.	1767885	1471972949937	1471972949984	s	83
3482	36987	He is listed as probable for Monday's game against Tennessee.	He is listed as probable fot Mondays game against Tennessee.	1767889	1471972950109	1471972950195	e	69
3482	36987	He is listed as probable for Monday's game against Tennessee.	He is listed as probable fot Mondays game against Tennessee.	1767892	1471972951103	1471972951179	e	69
3482	36987	He is listed as probable for Monday's game against Tennessee.	He is listed as probable fot Mondays game against Tennessee.	1767894	1471972953529	1471972953613	-	189
3482	36987	He is listed as probable for Monday's game against Tennessee.	He is listed as probable fot Mondays game against Tennessee.	1767912	1471972954008	1471972954096	BKSP	8
3482	36987	He is listed as probable for Monday's game against Tennessee.	He is listed as probable fot Mondays game against Tennessee.	1767915	1471972954267	1471972954362	.	190
3482	37016	US ships will also lead a second task force.	US ships will lead a second task force.	1768242	1471972957496	1471972958480	SHIFT	16
3482	37016	US ships will also lead a second task force.	US ships will lead a second task force.	1768239	1471972957794	1471972957914	U	85
3482	37016	US ships will also lead a second task force.	US ships will lead a second task force.	1768249	1471972958396	1471972958511	S	83
3482	37016	US ships will also lead a second task force.	US ships will lead a second task force.	1768252	1471972958652	1471972958748	 	32
3482	37016	US ships will also lead a second task force.	US ships will lead a second task force.	1768263	1471972959687	1471972959766	s	83
3482	37016	US ships will also lead a second task force.	US ships will lead a second task force.	1768270	1471972959859	1471972959933	h	72
3482	37016	US ships will also lead a second task force.	US ships will lead a second task force.	1768336	1471972960005	1471972960112	i	73
3482	37016	US ships will also lead a second task force.	US ships will lead a second task force.	1768338	1471972960252	1471972960346	p	80
3482	37016	US ships will also lead a second task force.	US ships will lead a second task force.	1768341	1471972960643	1471972960684	s	83
3482	37016	US ships will also lead a second task force.	US ships will lead a second task force.	1768346	1471972960908	1471972961016	 	32
3482	37016	US ships will also lead a second task force.	US ships will lead a second task force.	1768351	1471972961376	1471972961449	w	87
3482	37016	US ships will also lead a second task force.	US ships will lead a second task force.	1768402	1471972961526	1471972961588	i	73
3482	37016	US ships will also lead a second task force.	US ships will lead a second task force.	1768405	1471972961698	1471972961797	l	76
3482	37016	US ships will also lead a second task force.	US ships will lead a second task force.	1768410	1471972961860	1471972961935	l	76
3482	37016	US ships will also lead a second task force.	US ships will lead a second task force.	1768412	1471972962185	1471972962299	 	32
3482	37016	US ships will also lead a second task force.	US ships will lead a second task force.	1768418	1471972962409	1471972962498	l	76
3482	37016	US ships will also lead a second task force.	US ships will lead a second task force.	1768466	1471972962536	1471972962601	e	69
3482	37016	US ships will also lead a second task force.	US ships will lead a second task force.	1768467	1471972962695	1471972962814	a	65
3482	37016	US ships will also lead a second task force.	US ships will lead a second task force.	1768469	1471972962830	1471972962916	d	68
3482	37016	US ships will also lead a second task force.	US ships will lead a second task force.	1768471	1471972963041	1471972963116	 	32
3482	37016	US ships will also lead a second task force.	US ships will lead a second task force.	1768473	1471972963345	1471972963400	a	65
3482	37016	US ships will also lead a second task force.	US ships will lead a second task force.	1768501	1471972963500	1471972963553	 	32
3482	37016	US ships will also lead a second task force.	US ships will lead a second task force.	1768507	1471972963693	1471972963766	s	83
3482	37016	US ships will also lead a second task force.	US ships will lead a second task force.	1768512	1471972963860	1471972963923	e	69
3482	37016	US ships will also lead a second task force.	US ships will lead a second task force.	1768516	1471972964032	1471972964099	c	67
3482	37016	US ships will also lead a second task force.	US ships will lead a second task force.	1768520	1471972964162	1471972964233	o	79
3482	37016	US ships will also lead a second task force.	US ships will lead a second task force.	1768587	1471972964290	1471972964384	n	78
3482	37016	US ships will also lead a second task force.	US ships will lead a second task force.	1768589	1471972964431	1471972964499	d	68
3482	37016	US ships will also lead a second task force.	US ships will lead a second task force.	1768591	1471972964656	1471972964702	 	32
3482	37016	US ships will also lead a second task force.	US ships will lead a second task force.	1768593	1471972965375	1471972965468	t	84
3482	37016	US ships will also lead a second task force.	US ships will lead a second task force.	1768596	1471972965546	1471972965664	a	65
3482	37016	US ships will also lead a second task force.	US ships will lead a second task force.	1768662	1471972965720	1471972965800	s	83
3482	37016	US ships will also lead a second task force.	US ships will lead a second task force.	1768665	1471972966019	1471972966101	k	75
3482	37016	US ships will also lead a second task force.	US ships will lead a second task force.	1768670	1471972966226	1471972966300	 	32
3482	37016	US ships will also lead a second task force.	US ships will lead a second task force.	1768675	1471972967555	1471972967618	f	70
3482	37016	US ships will also lead a second task force.	US ships will lead a second task force.	1768679	1471972967697	1471972967767	o	79
3482	37016	US ships will also lead a second task force.	US ships will lead a second task force.	1768720	1471972967824	1471972967916	r	82
3482	37016	US ships will also lead a second task force.	US ships will lead a second task force.	1768722	1471972968041	1471972968176	c	67
3482	37016	US ships will also lead a second task force.	US ships will lead a second task force.	1768726	1471972968176	1471972968299	e	69
3482	37016	US ships will also lead a second task force.	US ships will lead a second task force.	1768733	1471972968896	1471972969002	.	190
3482	37029	She is a Baylor graduate and is very nice.	She is a Baylor graduate and is veyry nice.	1769012	1471972972164	1471972972516	SHIFT	16
3482	37029	She is a Baylor graduate and is very nice.	She is a Baylor graduate and is veyry nice.	1769014	1471972972367	1471972972568	S	83
3482	37029	She is a Baylor graduate and is very nice.	She is a Baylor graduate and is veyry nice.	1769019	1471972972547	1471972972635	h	72
3482	37029	She is a Baylor graduate and is very nice.	She is a Baylor graduate and is veyry nice.	1769023	1471972972651	1471972972764	a	65
3482	37029	She is a Baylor graduate and is very nice.	She is a Baylor graduate and is veyry nice.	1769026	1471972973210	1471972973301	BKSP	8
3482	37029	She is a Baylor graduate and is very nice.	She is a Baylor graduate and is veyry nice.	1769029	1471972973364	1471972973419	BKSP	8
3482	37029	She is a Baylor graduate and is very nice.	She is a Baylor graduate and is veyry nice.	1769031	1471972974143	1471972974190	h	72
3482	37029	She is a Baylor graduate and is very nice.	She is a Baylor graduate and is veyry nice.	1769033	1471972974221	1471972974287	e	69
3482	37029	She is a Baylor graduate and is very nice.	She is a Baylor graduate and is veyry nice.	1769073	1471972974370	1471972974439	 	32
3482	37029	She is a Baylor graduate and is very nice.	She is a Baylor graduate and is veyry nice.	1769075	1471972974987	1471972975087	i	73
3482	37029	She is a Baylor graduate and is very nice.	She is a Baylor graduate and is veyry nice.	1769077	1471972975103	1471972975200	s	83
3482	37029	She is a Baylor graduate and is very nice.	She is a Baylor graduate and is veyry nice.	1769079	1471972975232	1471972975320	 	32
3482	37029	She is a Baylor graduate and is very nice.	She is a Baylor graduate and is veyry nice.	1769081	1471972975351	1471972975435	a	65
3482	37029	She is a Baylor graduate and is very nice.	She is a Baylor graduate and is veyry nice.	1769190	1471972975498	1471972975556	 	32
3482	37029	She is a Baylor graduate and is very nice.	She is a Baylor graduate and is veyry nice.	1769195	1471972975885	1471972976296	SHIFT	16
3482	37029	She is a Baylor graduate and is very nice.	She is a Baylor graduate and is veyry nice.	1769192	1471972976121	1471972976233	B	66
3482	37029	She is a Baylor graduate and is very nice.	She is a Baylor graduate and is veyry nice.	1769199	1471972976452	1471972976507	a	65
3482	37029	She is a Baylor graduate and is very nice.	She is a Baylor graduate and is veyry nice.	1769204	1471972977021	1471972977087	y	89
3482	37029	She is a Baylor graduate and is very nice.	She is a Baylor graduate and is veyry nice.	1769207	1471972977714	1471972977804	l	76
3482	37029	She is a Baylor graduate and is very nice.	She is a Baylor graduate and is veyry nice.	1769274	1471972977900	1471972977958	o	79
3482	37029	She is a Baylor graduate and is very nice.	She is a Baylor graduate and is veyry nice.	1769279	1471972978052	1471972978138	r	82
3482	37029	She is a Baylor graduate and is very nice.	She is a Baylor graduate and is veyry nice.	1769284	1471972978201	1471972978270	 	32
3482	37029	She is a Baylor graduate and is very nice.	She is a Baylor graduate and is veyry nice.	1769288	1471972978992	1471972979038	g	71
3482	37029	She is a Baylor graduate and is very nice.	She is a Baylor graduate and is veyry nice.	1769291	1471972979195	1471972979269	r	82
3482	37029	She is a Baylor graduate and is very nice.	She is a Baylor graduate and is veyry nice.	1769343	1471972979363	1471972979453	a	65
3482	37029	She is a Baylor graduate and is very nice.	She is a Baylor graduate and is veyry nice.	1769347	1471972979891	1471972979956	d	68
3482	37029	She is a Baylor graduate and is very nice.	She is a Baylor graduate and is veyry nice.	1769352	1471972980014	1471972980074	u	85
3482	37029	She is a Baylor graduate and is very nice.	She is a Baylor graduate and is veyry nice.	1769357	1471972980152	1471972980269	a	65
3482	37029	She is a Baylor graduate and is very nice.	She is a Baylor graduate and is veyry nice.	1769364	1471972980348	1471972980456	t	84
3482	37029	She is a Baylor graduate and is very nice.	She is a Baylor graduate and is veyry nice.	1769399	1471972980471	1471972980554	e	69
3482	37029	She is a Baylor graduate and is very nice.	She is a Baylor graduate and is veyry nice.	1769401	1471972980726	1471972980838	 	32
3482	37029	She is a Baylor graduate and is very nice.	She is a Baylor graduate and is veyry nice.	1769405	1471972981149	1471972981251	a	65
3482	37029	She is a Baylor graduate and is very nice.	She is a Baylor graduate and is veyry nice.	1769410	1471972981283	1471972981366	n	78
3482	37029	She is a Baylor graduate and is very nice.	She is a Baylor graduate and is veyry nice.	1769542	1471972981340	1471972981421	d	68
3482	37029	She is a Baylor graduate and is very nice.	She is a Baylor graduate and is veyry nice.	1769545	1471972981515	1471972981571	 	32
3482	37029	She is a Baylor graduate and is very nice.	She is a Baylor graduate and is veyry nice.	1769546	1471972982033	1471972982123	i	73
3482	37029	She is a Baylor graduate and is very nice.	She is a Baylor graduate and is veyry nice.	1769547	1471972982154	1471972982225	s	83
3482	37029	She is a Baylor graduate and is very nice.	She is a Baylor graduate and is veyry nice.	1769549	1471972982271	1471972982371	 	32
3482	37029	She is a Baylor graduate and is very nice.	She is a Baylor graduate and is veyry nice.	1769551	1471972983154	1471972983239	v	86
3482	37029	She is a Baylor graduate and is very nice.	She is a Baylor graduate and is veyry nice.	1769590	1471972983292	1471972983391	e	69
3482	37029	She is a Baylor graduate and is very nice.	She is a Baylor graduate and is veyry nice.	1769594	1471972984189	1471972984259	y	89
3482	37029	She is a Baylor graduate and is very nice.	She is a Baylor graduate and is veyry nice.	1769602	1471972984384	1471972984473	r	82
3482	37029	She is a Baylor graduate and is very nice.	She is a Baylor graduate and is veyry nice.	1769608	1471972984614	1471972984658	BKSP	8
3482	37029	She is a Baylor graduate and is very nice.	She is a Baylor graduate and is veyry nice.	1769613	1471972984736	1471972984837	r	82
3482	37029	She is a Baylor graduate and is very nice.	She is a Baylor graduate and is veyry nice.	1769618	1471972984899	1471972984972	y	89
3482	37029	She is a Baylor graduate and is very nice.	She is a Baylor graduate and is veyry nice.	1769647	1471972985126	1471972985206	 	32
3482	37029	She is a Baylor graduate and is very nice.	She is a Baylor graduate and is veyry nice.	1769648	1471972985725	1471972985839	n	78
3482	37029	She is a Baylor graduate and is very nice.	She is a Baylor graduate and is veyry nice.	1769649	1471972985855	1471972985957	i	73
3482	37029	She is a Baylor graduate and is very nice.	She is a Baylor graduate and is veyry nice.	1769650	1471972985957	1471972986072	c	67
3482	37029	She is a Baylor graduate and is very nice.	She is a Baylor graduate and is veyry nice.	1769716	1471972986056	1471972986170	e	69
3482	37029	She is a Baylor graduate and is very nice.	She is a Baylor graduate and is veyry nice.	1769718	1471972986641	1471972986740	,	188
3482	37029	She is a Baylor graduate and is very nice.	She is a Baylor graduate and is veyry nice.	1769721	1471972987522	1471972987622	BKSP	8
3482	37029	She is a Baylor graduate and is very nice.	She is a Baylor graduate and is veyry nice.	1769723	1471972987966	1471972988057	.	190
3482	37050	They lost to Nantes after extra-time.	They lost to Nantes after extra-time.	1769915	1471972992014	1471972992327	SHIFT	16
3482	37050	They lost to Nantes after extra-time.	They lost to Nantes after extra-time.	1769909	1471972992219	1471972992295	T	84
3482	37050	They lost to Nantes after extra-time.	They lost to Nantes after extra-time.	1769923	1471972992436	1471972992527	h	72
3482	37050	They lost to Nantes after extra-time.	They lost to Nantes after extra-time.	1769930	1471972992542	1471972992642	e	69
3482	37050	They lost to Nantes after extra-time.	They lost to Nantes after extra-time.	1769932	1471972992704	1471972992793	y	89
3482	37050	They lost to Nantes after extra-time.	They lost to Nantes after extra-time.	1769935	1471972992886	1471972992977	 	32
3482	37050	They lost to Nantes after extra-time.	They lost to Nantes after extra-time.	1770022	1471972993405	1471972993462	l	76
3482	37050	They lost to Nantes after extra-time.	They lost to Nantes after extra-time.	1770024	1471972993806	1471972993861	o	79
3482	37050	They lost to Nantes after extra-time.	They lost to Nantes after extra-time.	1770025	1471972993907	1471972993979	s	83
3482	37050	They lost to Nantes after extra-time.	They lost to Nantes after extra-time.	1770027	1471972994480	1471972994528	t	84
3482	37050	They lost to Nantes after extra-time.	They lost to Nantes after extra-time.	1770029	1471972994669	1471972994731	 	32
3482	37050	They lost to Nantes after extra-time.	They lost to Nantes after extra-time.	1770089	1471972995214	1471972995294	t	84
3482	37050	They lost to Nantes after extra-time.	They lost to Nantes after extra-time.	1770091	1471972995419	1471972995495	o	79
3482	37050	They lost to Nantes after extra-time.	They lost to Nantes after extra-time.	1770094	1471972995609	1471972995678	 	32
3482	37050	They lost to Nantes after extra-time.	They lost to Nantes after extra-time.	1770097	1471972995799	1471972996143	SHIFT	16
3482	37050	They lost to Nantes after extra-time.	They lost to Nantes after extra-time.	1770100	1471972996143	1471972996226	n	78
3482	37050	They lost to Nantes after extra-time.	They lost to Nantes after extra-time.	1770102	1471972996336	1471972996425	a	65
3482	37050	They lost to Nantes after extra-time.	They lost to Nantes after extra-time.	1770262	1471972996858	1471972996917	t	84
3482	37050	They lost to Nantes after extra-time.	They lost to Nantes after extra-time.	1770263	1471972996881	1471972996937	r	82
3482	37050	They lost to Nantes after extra-time.	They lost to Nantes after extra-time.	1770264	1471972997414	1471972997493	BKSP	8
3482	37050	They lost to Nantes after extra-time.	They lost to Nantes after extra-time.	1770265	1471972997790	1471972997891	BKSP	8
3482	37050	They lost to Nantes after extra-time.	They lost to Nantes after extra-time.	1770268	1471972998079	1471972998162	BKSP	8
3482	37050	They lost to Nantes after extra-time.	They lost to Nantes after extra-time.	1770274	1471972998271	1471972998331	BKSP	8
3482	37050	They lost to Nantes after extra-time.	They lost to Nantes after extra-time.	1770289	1471972998664	1471972999024	SHIFT	16
3482	37050	They lost to Nantes after extra-time.	They lost to Nantes after extra-time.	1770281	1471972998895	1471972998962	N	78
3482	37050	They lost to Nantes after extra-time.	They lost to Nantes after extra-time.	1770296	1471972999181	1471972999275	a	65
3482	37050	They lost to Nantes after extra-time.	They lost to Nantes after extra-time.	1770302	1471972999952	1471973000044	t	84
3482	37050	They lost to Nantes after extra-time.	They lost to Nantes after extra-time.	1770366	1471973000117	1471973000194	e	69
3482	37050	They lost to Nantes after extra-time.	They lost to Nantes after extra-time.	1770369	1471973000272	1471973000362	s	83
3482	37050	They lost to Nantes after extra-time.	They lost to Nantes after extra-time.	1770373	1471973000862	1471973000959	BKSP	8
3482	37050	They lost to Nantes after extra-time.	They lost to Nantes after extra-time.	1770375	1471973001052	1471973001158	BKSP	8
3482	37050	They lost to Nantes after extra-time.	They lost to Nantes after extra-time.	1770376	1471973001236	1471973001299	BKSP	8
3482	37050	They lost to Nantes after extra-time.	They lost to Nantes after extra-time.	1770378	1471973001627	1471973001711	n	78
3482	37050	They lost to Nantes after extra-time.	They lost to Nantes after extra-time.	1770381	1471973001773	1471973001878	t	84
3482	37050	They lost to Nantes after extra-time.	They lost to Nantes after extra-time.	1770384	1471973001893	1471973002012	e	69
3482	37050	They lost to Nantes after extra-time.	They lost to Nantes after extra-time.	1770432	1471973002064	1471973002176	s	83
3482	37050	They lost to Nantes after extra-time.	They lost to Nantes after extra-time.	1770436	1471973002270	1471973002348	 	32
3482	37050	They lost to Nantes after extra-time.	They lost to Nantes after extra-time.	1770439	1471973002457	1471973002606	a	65
3482	37050	They lost to Nantes after extra-time.	They lost to Nantes after extra-time.	1770441	1471973002799	1471973002895	f	70
3482	37050	They lost to Nantes after extra-time.	They lost to Nantes after extra-time.	1770444	1471973003067	1471973003191	t	84
3482	37050	They lost to Nantes after extra-time.	They lost to Nantes after extra-time.	1770496	1471973003213	1471973003350	e	69
3482	37050	They lost to Nantes after extra-time.	They lost to Nantes after extra-time.	1770499	1471973003311	1471973003443	r	82
3482	37050	They lost to Nantes after extra-time.	They lost to Nantes after extra-time.	1770507	1471973003506	1471973003610	 	32
3482	37050	They lost to Nantes after extra-time.	They lost to Nantes after extra-time.	1770511	1471973003862	1471973003947	e	69
3482	37050	They lost to Nantes after extra-time.	They lost to Nantes after extra-time.	1770515	1471973004281	1471973004377	x	88
3482	37050	They lost to Nantes after extra-time.	They lost to Nantes after extra-time.	1770615	1471973004573	1471973004631	t	84
3482	37050	They lost to Nantes after extra-time.	They lost to Nantes after extra-time.	1770618	1471973004724	1471973004782	r	82
3482	37050	They lost to Nantes after extra-time.	They lost to Nantes after extra-time.	1770621	1471973004891	1471973004997	a	65
3482	37050	They lost to Nantes after extra-time.	They lost to Nantes after extra-time.	1770623	1471973005529	1471973005599	-	189
3482	37050	They lost to Nantes after extra-time.	They lost to Nantes after extra-time.	1770626	1471973006210	1471973006296	t	84
3482	37050	They lost to Nantes after extra-time.	They lost to Nantes after extra-time.	1770693	1471973006374	1471973006446	i	73
3482	37050	They lost to Nantes after extra-time.	They lost to Nantes after extra-time.	1770696	1471973006493	1471973006610	m	77
3482	37050	They lost to Nantes after extra-time.	They lost to Nantes after extra-time.	1770698	1471973006610	1471973006698	e	69
3482	37050	They lost to Nantes after extra-time.	They lost to Nantes after extra-time.	1770702	1471973007231	1471973007298	,	188
3482	37050	They lost to Nantes after extra-time.	They lost to Nantes after extra-time.	1770706	1471973007611	1471973007727	BKSP	8
3482	37050	They lost to Nantes after extra-time.	They lost to Nantes after extra-time.	1770710	1471973007962	1471973008063	.	190
3482	37066	I may take the opportunity to run some errands.	I may take the opportunity to run some errands.	1770884	1471973010674	1471973010882	SHIFT	16
3482	37066	I may take the opportunity to run some errands.	I may take the opportunity to run some errands.	1770887	1471973010816	1471973010929	I	73
3482	37066	I may take the opportunity to run some errands.	I may take the opportunity to run some errands.	1770888	1471973010991	1471973011084	 	32
3482	37066	I may take the opportunity to run some errands.	I may take the opportunity to run some errands.	1770891	1471973011240	1471973011332	m	77
3482	37066	I may take the opportunity to run some errands.	I may take the opportunity to run some errands.	1770892	1471973011473	1471973011611	a	65
3482	37066	I may take the opportunity to run some errands.	I may take the opportunity to run some errands.	1770894	1471973012426	1471973012515	y	89
3482	37066	I may take the opportunity to run some errands.	I may take the opportunity to run some errands.	1770937	1471973012590	1471973012667	 	32
3482	37066	I may take the opportunity to run some errands.	I may take the opportunity to run some errands.	1770941	1471973013157	1471973013283	t	84
3482	37066	I may take the opportunity to run some errands.	I may take the opportunity to run some errands.	1770945	1471973013330	1471973013432	a	65
3482	37066	I may take the opportunity to run some errands.	I may take the opportunity to run some errands.	1770948	1471973013620	1471973013714	k	75
3482	37066	I may take the opportunity to run some errands.	I may take the opportunity to run some errands.	1770952	1471973013714	1471973013784	e	69
3482	37066	I may take the opportunity to run some errands.	I may take the opportunity to run some errands.	1770997	1471973013896	1471973013967	 	32
3482	37066	I may take the opportunity to run some errands.	I may take the opportunity to run some errands.	1770999	1471973014232	1471973014316	t	84
3482	37066	I may take the opportunity to run some errands.	I may take the opportunity to run some errands.	1771002	1471973014348	1471973014432	h	72
3482	37066	I may take the opportunity to run some errands.	I may take the opportunity to run some errands.	1771003	1471973014448	1471973014516	e	69
3482	37066	I may take the opportunity to run some errands.	I may take the opportunity to run some errands.	1771004	1471973014579	1471973014683	 	32
3482	37066	I may take the opportunity to run some errands.	I may take the opportunity to run some errands.	1771083	1471973014988	1471973015066	o	79
3482	37066	I may take the opportunity to run some errands.	I may take the opportunity to run some errands.	1771086	1471973015441	1471973015500	p	80
3482	37066	I may take the opportunity to run some errands.	I may take the opportunity to run some errands.	1771091	1471973015579	1471973015649	p	80
3482	37066	I may take the opportunity to run some errands.	I may take the opportunity to run some errands.	1771095	1471973016008	1471973016065	o	79
3482	37066	I may take the opportunity to run some errands.	I may take the opportunity to run some errands.	1771099	1471973016300	1471973016384	r	82
3482	37066	I may take the opportunity to run some errands.	I may take the opportunity to run some errands.	1771157	1471973016490	1471973016567	t	84
3482	37066	I may take the opportunity to run some errands.	I may take the opportunity to run some errands.	1771163	1471973016738	1471973016787	u	85
3482	37066	I may take the opportunity to run some errands.	I may take the opportunity to run some errands.	1771170	1471973017245	1471973017350	n	78
3482	37066	I may take the opportunity to run some errands.	I may take the opportunity to run some errands.	1771176	1471973017396	1471973017483	i	73
3482	37066	I may take the opportunity to run some errands.	I may take the opportunity to run some errands.	1771178	1471973017702	1471973017767	t	84
3482	37066	I may take the opportunity to run some errands.	I may take the opportunity to run some errands.	1771221	1471973017885	1471973017982	y	89
3482	37066	I may take the opportunity to run some errands.	I may take the opportunity to run some errands.	1771222	1471973018076	1471973018184	 	32
3482	37066	I may take the opportunity to run some errands.	I may take the opportunity to run some errands.	1771224	1471973018842	1471973018917	t	84
3482	37066	I may take the opportunity to run some errands.	I may take the opportunity to run some errands.	1771227	1471973018964	1471973019034	i	73
3482	37066	I may take the opportunity to run some errands.	I may take the opportunity to run some errands.	1771233	1471973019127	1471973019185	 	32
3482	37066	I may take the opportunity to run some errands.	I may take the opportunity to run some errands.	1771379	1471973019607	1471973019683	r	82
3482	37066	I may take the opportunity to run some errands.	I may take the opportunity to run some errands.	1771382	1471973019789	1471973019868	u	85
3482	37066	I may take the opportunity to run some errands.	I may take the opportunity to run some errands.	1771386	1471973020196	1471973020285	n	78
3482	37066	I may take the opportunity to run some errands.	I may take the opportunity to run some errands.	1771390	1471973020473	1471973020536	BKSP	8
3482	37066	I may take the opportunity to run some errands.	I may take the opportunity to run some errands.	1771394	1471973020614	1471973020688	BKSP	8
3482	37066	I may take the opportunity to run some errands.	I may take the opportunity to run some errands.	1771397	1471973020719	1471973020808	BKSP	8
3482	37066	I may take the opportunity to run some errands.	I may take the opportunity to run some errands.	1771400	1471973020870	1471973020936	BKSP	8
3482	37066	I may take the opportunity to run some errands.	I may take the opportunity to run some errands.	1771401	1471973021184	1471973021252	BKSP	8
3482	37066	I may take the opportunity to run some errands.	I may take the opportunity to run some errands.	1771404	1471973021878	1471973021936	o	79
3482	37066	I may take the opportunity to run some errands.	I may take the opportunity to run some errands.	1771405	1471973022045	1471973022138	 	32
3482	37066	I may take the opportunity to run some errands.	I may take the opportunity to run some errands.	1771447	1471973022401	1471973022470	r	82
3482	37066	I may take the opportunity to run some errands.	I may take the opportunity to run some errands.	1771449	1471973022564	1471973022635	u	85
3482	37066	I may take the opportunity to run some errands.	I may take the opportunity to run some errands.	1771451	1471973022728	1471973022763	n	78
3482	37066	I may take the opportunity to run some errands.	I may take the opportunity to run some errands.	1771454	1471973022912	1471973023001	 	32
3482	37066	I may take the opportunity to run some errands.	I may take the opportunity to run some errands.	1771456	1471973023391	1471973023469	s	83
3482	37066	I may take the opportunity to run some errands.	I may take the opportunity to run some errands.	1771500	1471973023518	1471973023603	o	79
3482	37066	I may take the opportunity to run some errands.	I may take the opportunity to run some errands.	1771506	1471973023650	1471973023737	m	77
3482	37066	I may take the opportunity to run some errands.	I may take the opportunity to run some errands.	1771511	1471973023768	1471973023850	e	69
3482	37066	I may take the opportunity to run some errands.	I may take the opportunity to run some errands.	1771516	1471973023912	1471973023982	 	32
3482	37066	I may take the opportunity to run some errands.	I may take the opportunity to run some errands.	1771520	1471973024420	1471973024518	e	69
3482	37066	I may take the opportunity to run some errands.	I may take the opportunity to run some errands.	1771621	1471973024616	1471973024655	r	82
3482	37066	I may take the opportunity to run some errands.	I may take the opportunity to run some errands.	1771624	1471973024765	1471973024836	r	82
3482	37066	I may take the opportunity to run some errands.	I may take the opportunity to run some errands.	1771627	1471973024950	1471973025037	a	65
3482	37066	I may take the opportunity to run some errands.	I may take the opportunity to run some errands.	1771632	1471973025271	1471973025354	r	82
3482	37066	I may take the opportunity to run some errands.	I may take the opportunity to run some errands.	1771637	1471973026529	1471973026603	BKSP	8
3482	37066	I may take the opportunity to run some errands.	I may take the opportunity to run some errands.	1771642	1471973027155	1471973027221	n	78
3482	37066	I may take the opportunity to run some errands.	I may take the opportunity to run some errands.	1771690	1471973027324	1471973027403	d	68
3482	37066	I may take the opportunity to run some errands.	I may take the opportunity to run some errands.	1771696	1471973027419	1471973027533	s	83
3482	37066	I may take the opportunity to run some errands.	I may take the opportunity to run some errands.	1771704	1471973028163	1471973028240	.	190
3482	37090	We are happy to give a pay rise.	We are happy to give a pay rise.	1771914	1471973030814	1471973031124	SHIFT	16
3482	37090	We are happy to give a pay rise.	We are happy to give a pay rise.	1771918	1471973031080	1471973031171	W	87
3482	37090	We are happy to give a pay rise.	We are happy to give a pay rise.	1771923	1471973031264	1471973031340	e	69
3482	37090	We are happy to give a pay rise.	We are happy to give a pay rise.	1771928	1471973031590	1471973031686	 	32
3482	37090	We are happy to give a pay rise.	We are happy to give a pay rise.	1771932	1471973031905	1471973032022	a	65
3482	37090	We are happy to give a pay rise.	We are happy to give a pay rise.	1771935	1471973032084	1471973032203	r	82
3482	37090	We are happy to give a pay rise.	We are happy to give a pay rise.	1771965	1471973032216	1471973032318	e	69
3482	37090	We are happy to give a pay rise.	We are happy to give a pay rise.	1771968	1471973032381	1471973032489	 	32
3482	37090	We are happy to give a pay rise.	We are happy to give a pay rise.	1771970	1471973032770	1471973032854	h	72
3482	37090	We are happy to give a pay rise.	We are happy to give a pay rise.	1771972	1471973032854	1471973032925	a	65
3482	37090	We are happy to give a pay rise.	We are happy to give a pay rise.	1771978	1471973033081	1471973033141	p	80
3482	37090	We are happy to give a pay rise.	We are happy to give a pay rise.	1772054	1471973033238	1471973033289	p	80
3482	37090	We are happy to give a pay rise.	We are happy to give a pay rise.	1772060	1471973033492	1471973033557	y	89
3482	37090	We are happy to give a pay rise.	We are happy to give a pay rise.	1772066	1471973033635	1471973033740	 	32
3482	37090	We are happy to give a pay rise.	We are happy to give a pay rise.	1772074	1471973034398	1471973034473	t	84
3482	37090	We are happy to give a pay rise.	We are happy to give a pay rise.	1772080	1471973034505	1471973034605	o	79
3482	37090	We are happy to give a pay rise.	We are happy to give a pay rise.	1772158	1471973034661	1471973034758	 	32
3482	37090	We are happy to give a pay rise.	We are happy to give a pay rise.	1772160	1471973035415	1471973035458	g	71
3482	37090	We are happy to give a pay rise.	We are happy to give a pay rise.	1772162	1471973035567	1471973035623	i	73
3482	37090	We are happy to give a pay rise.	We are happy to give a pay rise.	1772164	1471973035779	1471973035902	v	86
3482	37090	We are happy to give a pay rise.	We are happy to give a pay rise.	1772166	1471973036246	1471973036323	 	32
3482	37090	We are happy to give a pay rise.	We are happy to give a pay rise.	1772250	1471973036432	1471973036506	a	65
3482	37090	We are happy to give a pay rise.	We are happy to give a pay rise.	1772251	1471973036631	1471973036661	 	32
3482	37090	We are happy to give a pay rise.	We are happy to give a pay rise.	1772252	1471973036866	1471973036939	BKSP	8
3482	37090	We are happy to give a pay rise.	We are happy to give a pay rise.	1772254	1471973037002	1471973037092	BKSP	8
3482	37090	We are happy to give a pay rise.	We are happy to give a pay rise.	1772256	1471973037170	1471973037224	BKSP	8
3482	37090	We are happy to give a pay rise.	We are happy to give a pay rise.	1772258	1471973037761	1471973037825	e	69
3482	37090	We are happy to give a pay rise.	We are happy to give a pay rise.	1772262	1471973037888	1471973037959	 	32
3482	37090	We are happy to give a pay rise.	We are happy to give a pay rise.	1772265	1471973038022	1471973038090	a	65
3482	37090	We are happy to give a pay rise.	We are happy to give a pay rise.	1772302	1471973038144	1471973038210	 	32
3482	37090	We are happy to give a pay rise.	We are happy to give a pay rise.	1772303	1471973038617	1471973038673	p	80
3482	37090	We are happy to give a pay rise.	We are happy to give a pay rise.	1772304	1471973038783	1471973038858	a	65
3482	37090	We are happy to give a pay rise.	We are happy to give a pay rise.	1772305	1471973039030	1471973039093	y	89
3482	37090	We are happy to give a pay rise.	We are happy to give a pay rise.	1772308	1471973039186	1471973039275	 	32
3482	37090	We are happy to give a pay rise.	We are happy to give a pay rise.	1772387	1471973039962	1471973040034	r	82
3482	37090	We are happy to give a pay rise.	We are happy to give a pay rise.	1772389	1471973040097	1471973040175	i	73
3482	37090	We are happy to give a pay rise.	We are happy to give a pay rise.	1772391	1471973040190	1471973040257	s	83
3482	37090	We are happy to give a pay rise.	We are happy to give a pay rise.	1772393	1471973040335	1471973040425	e	69
3482	37090	We are happy to give a pay rise.	We are happy to give a pay rise.	1772394	1471973040816	1471973040895	.	190
3482	37105	The Philippines censorship board voted to cut certain scenes.	The Philippines censorship board voted to cut certain scenes.	1774505	1471973084802	1471973085005	SHIFT	16
3482	37105	The Philippines censorship board voted to cut certain scenes.	The Philippines censorship board voted to cut certain scenes.	1774507	1471973084958	1471973085052	T	84
3482	37105	The Philippines censorship board voted to cut certain scenes.	The Philippines censorship board voted to cut certain scenes.	1774510	1471973085694	1471973085756	h	72
3482	37105	The Philippines censorship board voted to cut certain scenes.	The Philippines censorship board voted to cut certain scenes.	1774513	1471973085772	1471973085853	e	69
3482	37105	The Philippines censorship board voted to cut certain scenes.	The Philippines censorship board voted to cut certain scenes.	1774515	1471973085978	1471973086023	 	32
3482	37105	The Philippines censorship board voted to cut certain scenes.	The Philippines censorship board voted to cut certain scenes.	1774599	1471973086590	1471973086885	SHIFT	16
3482	37105	The Philippines censorship board voted to cut certain scenes.	The Philippines censorship board voted to cut certain scenes.	1774516	1471973086778	1471973086855	P	80
3482	37105	The Philippines censorship board voted to cut certain scenes.	The Philippines censorship board voted to cut certain scenes.	1774601	1471973087701	1471973087771	h	72
3482	37105	The Philippines censorship board voted to cut certain scenes.	The Philippines censorship board voted to cut certain scenes.	1774605	1471973087849	1471973087952	i	73
3482	37105	The Philippines censorship board voted to cut certain scenes.	The Philippines censorship board voted to cut certain scenes.	1774610	1471973088295	1471973088355	l	76
3482	37105	The Philippines censorship board voted to cut certain scenes.	The Philippines censorship board voted to cut certain scenes.	1774614	1471973088860	1471973088939	i	73
3482	37105	The Philippines censorship board voted to cut certain scenes.	The Philippines censorship board voted to cut certain scenes.	1774616	1471973089252	1471973089320	p	80
3482	37105	The Philippines censorship board voted to cut certain scenes.	The Philippines censorship board voted to cut certain scenes.	1774701	1471973089395	1471973089470	p	80
3482	37105	The Philippines censorship board voted to cut certain scenes.	The Philippines censorship board voted to cut certain scenes.	1774705	1471973089886	1471973089954	i	73
3482	37105	The Philippines censorship board voted to cut certain scenes.	The Philippines censorship board voted to cut certain scenes.	1774710	1471973090048	1471973090122	e	69
3482	37105	The Philippines censorship board voted to cut certain scenes.	The Philippines censorship board voted to cut certain scenes.	1774714	1471973091172	1471973091240	BKSP	8
3482	37105	The Philippines censorship board voted to cut certain scenes.	The Philippines censorship board voted to cut certain scenes.	1774716	1471973091583	1471973091656	n	78
3482	37105	The Philippines censorship board voted to cut certain scenes.	The Philippines censorship board voted to cut certain scenes.	1774717	1471973091687	1471973091757	e	69
3482	37105	The Philippines censorship board voted to cut certain scenes.	The Philippines censorship board voted to cut certain scenes.	1774746	1471973091872	1471973091925	s	83
3482	37105	The Philippines censorship board voted to cut certain scenes.	The Philippines censorship board voted to cut certain scenes.	1774750	1471973092034	1471973092108	 	32
3482	37105	The Philippines censorship board voted to cut certain scenes.	The Philippines censorship board voted to cut certain scenes.	1774752	1471973092389	1471973092551	c	67
3482	37105	The Philippines censorship board voted to cut certain scenes.	The Philippines censorship board voted to cut certain scenes.	1774754	1471973092538	1471973092622	e	69
3482	37105	The Philippines censorship board voted to cut certain scenes.	The Philippines censorship board voted to cut certain scenes.	1774756	1471973092654	1471973092723	n	78
3482	37105	The Philippines censorship board voted to cut certain scenes.	The Philippines censorship board voted to cut certain scenes.	1774803	1471973092873	1471973092971	s	83
3482	37105	The Philippines censorship board voted to cut certain scenes.	The Philippines censorship board voted to cut certain scenes.	1774804	1471973093003	1471973093090	o	79
3482	37105	The Philippines censorship board voted to cut certain scenes.	The Philippines censorship board voted to cut certain scenes.	1774807	1471973093256	1471973093340	r	82
3482	37105	The Philippines censorship board voted to cut certain scenes.	The Philippines censorship board voted to cut certain scenes.	1774810	1471973093584	1471973093673	s	83
3482	37105	The Philippines censorship board voted to cut certain scenes.	The Philippines censorship board voted to cut certain scenes.	1774814	1471973093720	1471973093823	h	72
3482	37105	The Philippines censorship board voted to cut certain scenes.	The Philippines censorship board voted to cut certain scenes.	1774876	1471973093894	1471973094005	i	73
3482	37105	The Philippines censorship board voted to cut certain scenes.	The Philippines censorship board voted to cut certain scenes.	1774881	1471973094099	1471973094221	p	80
3482	37105	The Philippines censorship board voted to cut certain scenes.	The Philippines censorship board voted to cut certain scenes.	1774886	1471973094315	1471973094393	 	32
3482	37105	The Philippines censorship board voted to cut certain scenes.	The Philippines censorship board voted to cut certain scenes.	1774890	1471973095142	1471973095241	b	66
3482	37105	The Philippines censorship board voted to cut certain scenes.	The Philippines censorship board voted to cut certain scenes.	1774894	1471973095366	1471973095440	o	79
3482	37105	The Philippines censorship board voted to cut certain scenes.	The Philippines censorship board voted to cut certain scenes.	1774951	1471973095753	1471973095872	a	65
3482	37105	The Philippines censorship board voted to cut certain scenes.	The Philippines censorship board voted to cut certain scenes.	1774953	1471973095935	1471973096021	r	82
3482	37105	The Philippines censorship board voted to cut certain scenes.	The Philippines censorship board voted to cut certain scenes.	1774955	1471973096225	1471973096301	d	68
3482	37105	The Philippines censorship board voted to cut certain scenes.	The Philippines censorship board voted to cut certain scenes.	1774957	1471973096410	1471973096474	 	32
3482	37105	The Philippines censorship board voted to cut certain scenes.	The Philippines censorship board voted to cut certain scenes.	1774959	1471973097698	1471973097792	v	86
3482	37105	The Philippines censorship board voted to cut certain scenes.	The Philippines censorship board voted to cut certain scenes.	1774985	1471973097826	1471973097892	o	79
3482	37105	The Philippines censorship board voted to cut certain scenes.	The Philippines censorship board voted to cut certain scenes.	1774987	1471973098048	1471973098139	t	84
3482	37105	The Philippines censorship board voted to cut certain scenes.	The Philippines censorship board voted to cut certain scenes.	1774989	1471973098232	1471973098309	e	69
3482	37105	The Philippines censorship board voted to cut certain scenes.	The Philippines censorship board voted to cut certain scenes.	1774991	1471973098465	1471973098556	d	68
3482	37105	The Philippines censorship board voted to cut certain scenes.	The Philippines censorship board voted to cut certain scenes.	1774993	1471973098697	1471973098792	 	32
3482	37105	The Philippines censorship board voted to cut certain scenes.	The Philippines censorship board voted to cut certain scenes.	1775015	1471973099150	1471973099226	t	84
3482	37105	The Philippines censorship board voted to cut certain scenes.	The Philippines censorship board voted to cut certain scenes.	1775017	1471973099257	1471973099360	o	79
3482	37105	The Philippines censorship board voted to cut certain scenes.	The Philippines censorship board voted to cut certain scenes.	1775019	1471973099454	1471973099542	 	32
3482	37105	The Philippines censorship board voted to cut certain scenes.	The Philippines censorship board voted to cut certain scenes.	1775021	1471973099730	1471973099823	c	67
3482	37105	The Philippines censorship board voted to cut certain scenes.	The Philippines censorship board voted to cut certain scenes.	1775023	1471973099854	1471973099940	u	85
3482	37105	The Philippines censorship board voted to cut certain scenes.	The Philippines censorship board voted to cut certain scenes.	1775089	1471973100054	1471973100110	t	84
3482	37105	The Philippines censorship board voted to cut certain scenes.	The Philippines censorship board voted to cut certain scenes.	1775091	1471973100251	1471973100326	 	32
3482	37105	The Philippines censorship board voted to cut certain scenes.	The Philippines censorship board voted to cut certain scenes.	1775093	1471973101547	1471973101674	c	67
3482	37105	The Philippines censorship board voted to cut certain scenes.	The Philippines censorship board voted to cut certain scenes.	1775095	1471973101721	1471973101859	e	69
3482	37105	The Philippines censorship board voted to cut certain scenes.	The Philippines censorship board voted to cut certain scenes.	1775157	1471973101822	1471973101954	r	82
3482	37105	The Philippines censorship board voted to cut certain scenes.	The Philippines censorship board voted to cut certain scenes.	1775161	1471973102546	1471973102626	t	84
3482	37105	The Philippines censorship board voted to cut certain scenes.	The Philippines censorship board voted to cut certain scenes.	1775163	1471973102719	1471973102824	a	65
3482	37105	The Philippines censorship board voted to cut certain scenes.	The Philippines censorship board voted to cut certain scenes.	1775166	1471973103312	1471973103379	i	73
3482	37105	The Philippines censorship board voted to cut certain scenes.	The Philippines censorship board voted to cut certain scenes.	1775168	1471973103566	1471973103626	n	78
3482	37105	The Philippines censorship board voted to cut certain scenes.	The Philippines censorship board voted to cut certain scenes.	1775170	1471973103735	1471973103780	 	32
3482	37105	The Philippines censorship board voted to cut certain scenes.	The Philippines censorship board voted to cut certain scenes.	1775197	1471973104045	1471973104141	s	83
3482	37105	The Philippines censorship board voted to cut certain scenes.	The Philippines censorship board voted to cut certain scenes.	1775199	1471973104250	1471973104344	c	67
3482	37105	The Philippines censorship board voted to cut certain scenes.	The Philippines censorship board voted to cut certain scenes.	1775202	1471973104422	1471973104526	e	69
3482	37105	The Philippines censorship board voted to cut certain scenes.	The Philippines censorship board voted to cut certain scenes.	1775204	1471973104604	1471973104677	n	78
3482	37105	The Philippines censorship board voted to cut certain scenes.	The Philippines censorship board voted to cut certain scenes.	1775205	1471973104800	1471973104874	e	69
3482	37105	The Philippines censorship board voted to cut certain scenes.	The Philippines censorship board voted to cut certain scenes.	1775258	1471973104979	1471973105075	s	83
3482	37105	The Philippines censorship board voted to cut certain scenes.	The Philippines censorship board voted to cut certain scenes.	1775261	1471973105767	1471973105862	.	190
3482	37169	Thanks for sending this.	Thanks for sending this.	1775412	1471973108624	1471973108914	SHIFT	16
3482	37169	Thanks for sending this.	Thanks for sending this.	1775415	1471973108844	1471973108945	T	84
3482	37169	Thanks for sending this.	Thanks for sending this.	1775419	1471973109304	1471973109377	h	72
3482	37169	Thanks for sending this.	Thanks for sending this.	1775422	1471973109393	1471973109476	a	65
3482	37169	Thanks for sending this.	Thanks for sending this.	1775425	1471973110056	1471973110129	n	78
3482	37169	Thanks for sending this.	Thanks for sending this.	1775428	1471973110238	1471973110326	k	75
3482	37169	Thanks for sending this.	Thanks for sending this.	1775458	1471973110414	1471973110495	s	83
3482	37169	Thanks for sending this.	Thanks for sending this.	1775459	1471973110604	1471973110710	 	32
3482	37169	Thanks for sending this.	Thanks for sending this.	1775460	1471973111288	1471973111377	f	70
3482	37169	Thanks for sending this.	Thanks for sending this.	1775461	1471973111377	1471973111460	o	79
3482	37169	Thanks for sending this.	Thanks for sending this.	1775463	1471973111475	1471973111576	r	82
3482	37169	Thanks for sending this.	Thanks for sending this.	1775502	1471973111638	1471973111712	 	32
3482	37169	Thanks for sending this.	Thanks for sending this.	1775503	1471973112009	1471973112112	s	83
3482	37169	Thanks for sending this.	Thanks for sending this.	1775504	1471973112192	1471973112280	e	69
3482	37169	Thanks for sending this.	Thanks for sending this.	1775505	1471973112295	1471973112379	n	78
3482	37169	Thanks for sending this.	Thanks for sending this.	1775506	1471973112457	1471973112543	d	68
3482	37169	Thanks for sending this.	Thanks for sending this.	1775569	1471973112659	1471973112777	i	73
3482	37169	Thanks for sending this.	Thanks for sending this.	1775572	1471973112883	1471973112996	n	78
3482	37169	Thanks for sending this.	Thanks for sending this.	1775576	1471973113463	1471973113533	g	71
3482	37169	Thanks for sending this.	Thanks for sending this.	1775579	1471973113580	1471973113680	 	32
3482	37169	Thanks for sending this.	Thanks for sending this.	1775582	1471973113945	1471973114015	t	84
3482	37169	Thanks for sending this.	Thanks for sending this.	1775619	1471973114069	1471973114176	h	72
3482	37169	Thanks for sending this.	Thanks for sending this.	1775621	1471973114176	1471973114327	i	73
3482	37169	Thanks for sending this.	Thanks for sending this.	1775628	1471973114358	1471973114446	s	83
3482	37169	Thanks for sending this.	Thanks for sending this.	1775632	1471973114900	1471973114979	.	190
3482	37176	He cannot be in two places at once.	He cannot be in two places at once.	1775745	1471973117467	1471973117713	SHIFT	16
3482	37176	He cannot be in two places at once.	He cannot be in two places at once.	1775748	1471973117623	1471973117729	H	72
3482	37176	He cannot be in two places at once.	He cannot be in two places at once.	1775751	1471973117823	1471973117912	e	69
3482	37176	He cannot be in two places at once.	He cannot be in two places at once.	1775753	1471973117990	1471973118048	 	32
3482	37176	He cannot be in two places at once.	He cannot be in two places at once.	1775757	1471973118627	1471973118746	c	67
3482	37176	He cannot be in two places at once.	He cannot be in two places at once.	1775760	1471973118762	1471973118830	a	65
3482	37176	He cannot be in two places at once.	He cannot be in two places at once.	1775779	1471973118932	1471973118998	n	78
3482	37176	He cannot be in two places at once.	He cannot be in two places at once.	1775781	1471973119123	1471973119166	n	78
3482	37176	He cannot be in two places at once.	He cannot be in two places at once.	1775785	1471973119260	1471973119348	o	79
3482	37176	He cannot be in two places at once.	He cannot be in two places at once.	1775788	1471973119441	1471973119531	t	84
3482	37176	He cannot be in two places at once.	He cannot be in two places at once.	1775792	1471973119641	1471973119730	 	32
3482	37176	He cannot be in two places at once.	He cannot be in two places at once.	1775839	1471973120312	1471973120364	b	66
3482	37176	He cannot be in two places at once.	He cannot be in two places at once.	1775842	1471973120380	1471973120480	e	69
3482	37176	He cannot be in two places at once.	He cannot be in two places at once.	1775845	1471973120496	1471973120598	 	32
3482	37176	He cannot be in two places at once.	He cannot be in two places at once.	1775848	1471973120957	1471973121047	i	73
3482	37176	He cannot be in two places at once.	He cannot be in two places at once.	1775851	1471973121063	1471973121114	s	83
3482	37176	He cannot be in two places at once.	He cannot be in two places at once.	1775933	1471973121183	1471973121234	n	78
3482	37176	He cannot be in two places at once.	He cannot be in two places at once.	1775934	1471973121631	1471973121699	BKSP	8
3482	37176	He cannot be in two places at once.	He cannot be in two places at once.	1775935	1471973121746	1471973121847	BKSP	8
3482	37176	He cannot be in two places at once.	He cannot be in two places at once.	1775936	1471973122082	1471973122152	n	78
3482	37176	He cannot be in two places at once.	He cannot be in two places at once.	1775937	1471973122245	1471973122302	 	32
3482	37176	He cannot be in two places at once.	He cannot be in two places at once.	1775938	1471973123100	1471973123181	t	84
3482	37176	He cannot be in two places at once.	He cannot be in two places at once.	1775939	1471973123509	1471973123581	w	87
3482	37176	He cannot be in two places at once.	He cannot be in two places at once.	1775972	1471973123654	1471973123716	o	79
3482	37176	He cannot be in two places at once.	He cannot be in two places at once.	1775973	1471973123841	1471973123917	 	32
3482	37176	He cannot be in two places at once.	He cannot be in two places at once.	1775974	1471973124354	1471973124434	p	80
3482	37176	He cannot be in two places at once.	He cannot be in two places at once.	1775975	1471973124574	1471973124649	l	76
3482	37176	He cannot be in two places at once.	He cannot be in two places at once.	1775977	1471973124712	1471973124831	a	65
3482	37176	He cannot be in two places at once.	He cannot be in two places at once.	1776004	1471973124852	1471973124936	c	67
3482	37176	He cannot be in two places at once.	He cannot be in two places at once.	1776006	1471973124983	1471973125065	e	69
3482	37176	He cannot be in two places at once.	He cannot be in two places at once.	1776007	1471973125143	1471973125249	s	83
3482	37176	He cannot be in two places at once.	He cannot be in two places at once.	1776008	1471973125346	1471973125417	 	32
3482	37176	He cannot be in two places at once.	He cannot be in two places at once.	1776009	1471973125573	1471973125697	a	65
3482	37176	He cannot be in two places at once.	He cannot be in two places at once.	1776084	1471973126160	1471973126217	t	84
3482	37176	He cannot be in two places at once.	He cannot be in two places at once.	1776088	1471973126357	1471973126433	 	32
3482	37176	He cannot be in two places at once.	He cannot be in two places at once.	1776092	1471973126966	1471973127035	o	79
3482	37176	He cannot be in two places at once.	He cannot be in two places at once.	1776096	1471973127082	1471973127166	n	78
3482	37176	He cannot be in two places at once.	He cannot be in two places at once.	1776099	1471973127447	1471973127531	c	67
3482	37176	He cannot be in two places at once.	He cannot be in two places at once.	1776130	1471973127556	1471973127635	e	69
3482	37176	He cannot be in two places at once.	He cannot be in two places at once.	1776132	1471973128227	1471973128318	.	190
