PARTICIPANT_ID	TEST_SECTION_ID	SENTENCE	USER_INPUT	KEYSTROKE_ID	PRESS_TIME	RELEASE_TIME	LETTER	KEYCODE
3574	37816	The accord was due to have come into effect overnight.	The accord was due to have come into effect overnight.	1806706	1471973613180	1471973613385	SHIFT	16
3574	37816	The accord was due to have come into effect overnight.	The accord was due to have come into effect overnight.	1806710	1471973613286	1471973613411	T	84
3574	37816	The accord was due to have come into effect overnight.	The accord was due to have come into effect overnight.	1806715	1471973613906	1471973613987	h	72
3574	37816	The accord was due to have come into effect overnight.	The accord was due to have come into effect overnight.	1806718	1471973614032	1471973614131	e	69
3574	37816	The accord was due to have come into effect overnight.	The accord was due to have come into effect overnight.	1806723	1471973614136	1471973614208	 	32
3574	37816	The accord was due to have come into effect overnight.	The accord was due to have come into effect overnight.	1806726	1471973614368	1471973614488	a	65
3574	37816	The accord was due to have come into effect overnight.	The accord was due to have come into effect overnight.	1806790	1471973614549	1471973614618	c	67
3574	37816	The accord was due to have come into effect overnight.	The accord was due to have come into effect overnight.	1806796	1471973614716	1471973614814	c	67
3574	37816	The accord was due to have come into effect overnight.	The accord was due to have come into effect overnight.	1806801	1471973615222	1471973615287	o	79
3574	37816	The accord was due to have come into effect overnight.	The accord was due to have come into effect overnight.	1806808	1471973615435	1471973615537	r	82
3574	37816	The accord was due to have come into effect overnight.	The accord was due to have come into effect overnight.	1806814	1471973615677	1471973615775	e	69
3574	37816	The accord was due to have come into effect overnight.	The accord was due to have come into effect overnight.	1806892	1471973616302	1471973616372	BKSP	8
3574	37816	The accord was due to have come into effect overnight.	The accord was due to have come into effect overnight.	1806897	1471973616437	1471973616507	d	68
3574	37816	The accord was due to have come into effect overnight.	The accord was due to have come into effect overnight.	1806901	1471973616535	1471973616613	 	32
3574	37816	The accord was due to have come into effect overnight.	The accord was due to have come into effect overnight.	1806911	1471973616776	1471973616854	w	87
3574	37816	The accord was due to have come into effect overnight.	The accord was due to have come into effect overnight.	1806917	1471973616998	1471973617197	a	65
3574	37816	The accord was due to have come into effect overnight.	The accord was due to have come into effect overnight.	1806969	1471973617160	1471973617297	s	83
3574	37816	The accord was due to have come into effect overnight.	The accord was due to have come into effect overnight.	1806971	1471973617412	1471973617490	 	32
3574	37816	The accord was due to have come into effect overnight.	The accord was due to have come into effect overnight.	1806973	1471973617654	1471973617769	d	68
3574	37816	The accord was due to have come into effect overnight.	The accord was due to have come into effect overnight.	1806975	1471973617801	1471973617879	u	85
3574	37816	The accord was due to have come into effect overnight.	The accord was due to have come into effect overnight.	1806977	1471973617944	1471973618076	e	69
3574	37816	The accord was due to have come into effect overnight.	The accord was due to have come into effect overnight.	1806981	1471973618100	1471973618178	 	32
3574	37816	The accord was due to have come into effect overnight.	The accord was due to have come into effect overnight.	1807011	1471973618210	1471973618310	t	84
3574	37816	The accord was due to have come into effect overnight.	The accord was due to have come into effect overnight.	1807013	1471973618315	1471973618434	o	79
3574	37816	The accord was due to have come into effect overnight.	The accord was due to have come into effect overnight.	1807015	1471973618402	1471973618511	 	32
3574	37816	The accord was due to have come into effect overnight.	The accord was due to have come into effect overnight.	1807020	1471973618642	1471973618708	h	72
3574	37816	The accord was due to have come into effect overnight.	The accord was due to have come into effect overnight.	1807024	1471973618768	1471973618918	a	65
3574	37816	The accord was due to have come into effect overnight.	The accord was due to have come into effect overnight.	1807034	1471973618923	1471973619032	v	86
3574	37816	The accord was due to have come into effect overnight.	The accord was due to have come into effect overnight.	1807037	1471973619077	1471973619159	e	69
3574	37816	The accord was due to have come into effect overnight.	The accord was due to have come into effect overnight.	1807040	1471973619165	1471973619244	 	32
3574	37816	The accord was due to have come into effect overnight.	The accord was due to have come into effect overnight.	1807045	1471973619384	1471973619495	c	67
3574	37816	The accord was due to have come into effect overnight.	The accord was due to have come into effect overnight.	1807066	1471973619463	1471973619560	o	79
3574	37816	The accord was due to have come into effect overnight.	The accord was due to have come into effect overnight.	1807068	1471973619658	1471973619741	m	77
3574	37816	The accord was due to have come into effect overnight.	The accord was due to have come into effect overnight.	1807070	1471973619746	1471973619856	e	69
3574	37816	The accord was due to have come into effect overnight.	The accord was due to have come into effect overnight.	1807073	1471973619880	1471973619950	 	32
3574	37816	The accord was due to have come into effect overnight.	The accord was due to have come into effect overnight.	1807076	1471973620093	1471973620146	i	73
3574	37816	The accord was due to have come into effect overnight.	The accord was due to have come into effect overnight.	1807080	1471973620237	1471973620306	n	78
3574	37816	The accord was due to have come into effect overnight.	The accord was due to have come into effect overnight.	1807147	1471973620453	1471973620545	t	84
3574	37816	The accord was due to have come into effect overnight.	The accord was due to have come into effect overnight.	1807149	1471973620550	1471973620614	o	79
3574	37816	The accord was due to have come into effect overnight.	The accord was due to have come into effect overnight.	1807151	1471973620720	1471973620815	 	32
3574	37816	The accord was due to have come into effect overnight.	The accord was due to have come into effect overnight.	1807155	1471973621095	1471973621189	e	69
3574	37816	The accord was due to have come into effect overnight.	The accord was due to have come into effect overnight.	1807160	1471973621304	1471973621382	f	70
3574	37816	The accord was due to have come into effect overnight.	The accord was due to have come into effect overnight.	1807213	1471973621464	1471973621550	f	70
3574	37816	The accord was due to have come into effect overnight.	The accord was due to have come into effect overnight.	1807216	1471973621698	1471973621792	e	69
3574	37816	The accord was due to have come into effect overnight.	The accord was due to have come into effect overnight.	1807219	1471973621969	1471973622067	c	67
3574	37816	The accord was due to have come into effect overnight.	The accord was due to have come into effect overnight.	1807221	1471973622194	1471973622289	t	84
3574	37816	The accord was due to have come into effect overnight.	The accord was due to have come into effect overnight.	1807224	1471973622338	1471973622436	 	32
3574	37816	The accord was due to have come into effect overnight.	The accord was due to have come into effect overnight.	1807240	1471973622567	1471973622637	o	79
3574	37816	The accord was due to have come into effect overnight.	The accord was due to have come into effect overnight.	1807244	1471973622702	1471973622800	v	86
3574	37816	The accord was due to have come into effect overnight.	The accord was due to have come into effect overnight.	1807247	1471973622874	1471973622986	e	69
3574	37816	The accord was due to have come into effect overnight.	The accord was due to have come into effect overnight.	1807251	1471973622941	1471973623033	r	82
3574	37816	The accord was due to have come into effect overnight.	The accord was due to have come into effect overnight.	1807255	1471973623082	1471973623143	n	78
3574	37816	The accord was due to have come into effect overnight.	The accord was due to have come into effect overnight.	1807292	1471973623250	1471973623315	i	73
3574	37816	The accord was due to have come into effect overnight.	The accord was due to have come into effect overnight.	1807293	1471973623405	1471973623492	g	71
3574	37816	The accord was due to have come into effect overnight.	The accord was due to have come into effect overnight.	1807296	1471973623455	1471973623535	h	72
3574	37816	The accord was due to have come into effect overnight.	The accord was due to have come into effect overnight.	1807298	1471973623596	1471973623678	t	84
3574	37816	The accord was due to have come into effect overnight.	The accord was due to have come into effect overnight.	1807300	1471973623826	1471973623875	.	190
3574	37833	Thanks, I think we have taken care of this.	Thanks, I think we have taken case of this.	1807451	1471973626141	1471973626283	SHIFT	16
3574	37833	Thanks, I think we have taken care of this.	Thanks, I think we have taken case of this.	1807453	1471973626238	1471973626346	T	84
3574	37833	Thanks, I think we have taken care of this.	Thanks, I think we have taken case of this.	1807456	1471973626441	1471973626506	h	72
3574	37833	Thanks, I think we have taken care of this.	Thanks, I think we have taken case of this.	1807458	1471973626604	1471973626703	a	65
3574	37833	Thanks, I think we have taken care of this.	Thanks, I think we have taken case of this.	1807459	1471973626708	1471973626751	n	78
3574	37833	Thanks, I think we have taken care of this.	Thanks, I think we have taken case of this.	1807460	1471973626850	1471973626903	k	75
3574	37833	Thanks, I think we have taken care of this.	Thanks, I think we have taken case of this.	1807501	1471973626976	1471973627079	s	83
3574	37833	Thanks, I think we have taken care of this.	Thanks, I think we have taken case of this.	1807502	1471973627288	1471973627358	,	188
3574	37833	Thanks, I think we have taken care of this.	Thanks, I think we have taken case of this.	1807504	1471973627522	1471973627599	 	32
3574	37833	Thanks, I think we have taken care of this.	Thanks, I think we have taken case of this.	1807506	1471973627911	1471973628040	SHIFT	16
3574	37833	Thanks, I think we have taken care of this.	Thanks, I think we have taken case of this.	1807513	1471973627974	1471973628050	I	73
3574	37833	Thanks, I think we have taken care of this.	Thanks, I think we have taken case of this.	1807519	1471973628136	1471973628222	 	32
3574	37833	Thanks, I think we have taken care of this.	Thanks, I think we have taken case of this.	1807545	1471973628283	1471973628404	t	84
3574	37833	Thanks, I think we have taken care of this.	Thanks, I think we have taken case of this.	1807546	1471973628351	1471973628414	h	72
3574	37833	Thanks, I think we have taken care of this.	Thanks, I think we have taken case of this.	1807547	1471973628504	1471973628557	i	73
3574	37833	Thanks, I think we have taken care of this.	Thanks, I think we have taken case of this.	1807548	1471973628655	1471973628716	n	78
3574	37833	Thanks, I think we have taken care of this.	Thanks, I think we have taken case of this.	1807549	1471973628790	1471973628861	k	75
3574	37833	Thanks, I think we have taken care of this.	Thanks, I think we have taken case of this.	1807576	1471973628918	1471973628983	 	32
3574	37833	Thanks, I think we have taken care of this.	Thanks, I think we have taken case of this.	1807579	1471973629048	1471973629152	w	87
3574	37833	Thanks, I think we have taken care of this.	Thanks, I think we have taken case of this.	1807584	1471973629115	1471973629274	e	69
3574	37833	Thanks, I think we have taken care of this.	Thanks, I think we have taken case of this.	1807587	1471973629279	1471973629351	 	32
3574	37833	Thanks, I think we have taken care of this.	Thanks, I think we have taken case of this.	1807592	1471973629515	1471973629598	h	72
3574	37833	Thanks, I think we have taken care of this.	Thanks, I think we have taken case of this.	1807622	1471973629591	1471973629743	a	65
3574	37833	Thanks, I think we have taken care of this.	Thanks, I think we have taken case of this.	1807626	1471973629748	1471973629857	v	86
3574	37833	Thanks, I think we have taken care of this.	Thanks, I think we have taken case of this.	1807631	1471973629906	1471973629968	e	69
3574	37833	Thanks, I think we have taken care of this.	Thanks, I think we have taken case of this.	1807635	1471973629992	1471973630062	 	32
3574	37833	Thanks, I think we have taken care of this.	Thanks, I think we have taken case of this.	1807637	1471973630160	1471973630279	t	84
3574	37833	Thanks, I think we have taken care of this.	Thanks, I think we have taken case of this.	1807639	1471973630493	1471973630608	a	65
3574	37833	Thanks, I think we have taken care of this.	Thanks, I think we have taken case of this.	1807700	1471973630636	1471973630703	k	75
3574	37833	Thanks, I think we have taken care of this.	Thanks, I think we have taken case of this.	1807704	1471973631048	1471973631197	e	69
3574	37833	Thanks, I think we have taken care of this.	Thanks, I think we have taken case of this.	1807709	1471973631575	1471973631637	n	78
3574	37833	Thanks, I think we have taken care of this.	Thanks, I think we have taken case of this.	1807714	1471973631863	1471973632008	 	32
3574	37833	Thanks, I think we have taken care of this.	Thanks, I think we have taken case of this.	1807719	1471973632090	1471973632215	c	67
3574	37833	Thanks, I think we have taken care of this.	Thanks, I think we have taken case of this.	1807780	1471973632208	1471973632413	a	65
3574	37833	Thanks, I think we have taken care of this.	Thanks, I think we have taken case of this.	1807778	1471973632339	1471973632376	s	83
3574	37833	Thanks, I think we have taken care of this.	Thanks, I think we have taken case of this.	1807782	1471973632381	1471973632548	r	82
3574	37833	Thanks, I think we have taken care of this.	Thanks, I think we have taken case of this.	1807788	1471973632620	1471973632698	 	32
3574	37833	Thanks, I think we have taken care of this.	Thanks, I think we have taken case of this.	1807792	1471973633010	1471973633076	BKSP	8
3574	37833	Thanks, I think we have taken care of this.	Thanks, I think we have taken case of this.	1807796	1471973633170	1471973633236	BKSP	8
3574	37833	Thanks, I think we have taken care of this.	Thanks, I think we have taken case of this.	1807801	1471973633314	1471973633433	e	69
3574	37833	Thanks, I think we have taken care of this.	Thanks, I think we have taken case of this.	1807804	1471973633457	1471973633523	 	32
3574	37833	Thanks, I think we have taken care of this.	Thanks, I think we have taken case of this.	1807826	1471973633885	1471973633967	o	79
3574	37833	Thanks, I think we have taken care of this.	Thanks, I think we have taken case of this.	1807827	1471973634007	1471973634124	f	70
3574	37833	Thanks, I think we have taken care of this.	Thanks, I think we have taken case of this.	1807828	1471973634117	1471973634201	 	32
3574	37833	Thanks, I think we have taken care of this.	Thanks, I think we have taken case of this.	1807829	1471973634275	1471973634369	t	84
3574	37833	Thanks, I think we have taken care of this.	Thanks, I think we have taken case of this.	1807830	1471973634374	1471973634417	h	72
3574	37833	Thanks, I think we have taken care of this.	Thanks, I think we have taken case of this.	1807860	1471973634524	1471973634585	i	73
3574	37833	Thanks, I think we have taken care of this.	Thanks, I think we have taken case of this.	1807864	1471973634601	1471973634699	s	83
3574	37833	Thanks, I think we have taken care of this.	Thanks, I think we have taken case of this.	1807868	1471973634781	1471973634851	.	190
3574	37846	They play Atlanta here Saturday and Sunday afternoons.	They play Atlanta here Saturday and Sunday afternoons.	1808071	1471973636882	1471973637051	SHIFT	16
3574	37846	They play Atlanta here Saturday and Sunday afternoons.	They play Atlanta here Saturday and Sunday afternoons.	1808075	1471973636981	1471973637102	T	84
3574	37846	They play Atlanta here Saturday and Sunday afternoons.	They play Atlanta here Saturday and Sunday afternoons.	1808080	1471973638007	1471973638076	h	72
3574	37846	They play Atlanta here Saturday and Sunday afternoons.	They play Atlanta here Saturday and Sunday afternoons.	1808086	1471973638125	1471973638211	e	69
3574	37846	They play Atlanta here Saturday and Sunday afternoons.	They play Atlanta here Saturday and Sunday afternoons.	1808093	1471973638358	1471973638428	y	89
3574	37846	They play Atlanta here Saturday and Sunday afternoons.	They play Atlanta here Saturday and Sunday afternoons.	1808099	1471973638568	1471973638637	 	32
3574	37846	They play Atlanta here Saturday and Sunday afternoons.	They play Atlanta here Saturday and Sunday afternoons.	1808176	1471973639064	1471973639167	p	80
3574	37846	They play Atlanta here Saturday and Sunday afternoons.	They play Atlanta here Saturday and Sunday afternoons.	1808182	1471973639331	1471973639400	l	76
3574	37846	They play Atlanta here Saturday and Sunday afternoons.	They play Atlanta here Saturday and Sunday afternoons.	1808193	1471973639712	1471973639824	a	65
3574	37846	They play Atlanta here Saturday and Sunday afternoons.	They play Atlanta here Saturday and Sunday afternoons.	1808200	1471973639840	1471973639901	y	89
3574	37846	They play Atlanta here Saturday and Sunday afternoons.	They play Atlanta here Saturday and Sunday afternoons.	1808203	1471973640057	1471973640126	 	32
3574	37846	They play Atlanta here Saturday and Sunday afternoons.	They play Atlanta here Saturday and Sunday afternoons.	1808267	1471973640512	1471973640682	SHIFT	16
3574	37846	They play Atlanta here Saturday and Sunday afternoons.	They play Atlanta here Saturday and Sunday afternoons.	1808269	1471973640580	1471973640713	A	65
3574	37846	They play Atlanta here Saturday and Sunday afternoons.	They play Atlanta here Saturday and Sunday afternoons.	1808275	1471973640786	1471973640902	t	84
3574	37846	They play Atlanta here Saturday and Sunday afternoons.	They play Atlanta here Saturday and Sunday afternoons.	1808282	1471973641145	1471973641229	l	76
3574	37846	They play Atlanta here Saturday and Sunday afternoons.	They play Atlanta here Saturday and Sunday afternoons.	1808288	1471973641222	1471973641332	a	65
3574	37846	They play Atlanta here Saturday and Sunday afternoons.	They play Atlanta here Saturday and Sunday afternoons.	1808298	1471973641336	1471973641396	n	78
3574	37846	They play Atlanta here Saturday and Sunday afternoons.	They play Atlanta here Saturday and Sunday afternoons.	1808336	1471973641511	1471973641605	t	84
3574	37846	They play Atlanta here Saturday and Sunday afternoons.	They play Atlanta here Saturday and Sunday afternoons.	1808340	1471973641716	1471973641815	a	65
3574	37846	They play Atlanta here Saturday and Sunday afternoons.	They play Atlanta here Saturday and Sunday afternoons.	1808344	1471973641881	1471973641951	 	32
3574	37846	They play Atlanta here Saturday and Sunday afternoons.	They play Atlanta here Saturday and Sunday afternoons.	1808346	1471973642090	1471973642143	h	72
3574	37846	They play Atlanta here Saturday and Sunday afternoons.	They play Atlanta here Saturday and Sunday afternoons.	1808349	1471973642209	1471973642284	e	69
3574	37846	They play Atlanta here Saturday and Sunday afternoons.	They play Atlanta here Saturday and Sunday afternoons.	1808434	1471973642277	1471973642440	r	82
3574	37846	They play Atlanta here Saturday and Sunday afternoons.	They play Atlanta here Saturday and Sunday afternoons.	1808438	1471973642396	1471973642483	e	69
3574	37846	They play Atlanta here Saturday and Sunday afternoons.	They play Atlanta here Saturday and Sunday afternoons.	1808446	1471973642730	1471973642799	 	32
3574	37846	They play Atlanta here Saturday and Sunday afternoons.	They play Atlanta here Saturday and Sunday afternoons.	1808452	1471973643285	1471973643446	SHIFT	16
3574	37846	They play Atlanta here Saturday and Sunday afternoons.	They play Atlanta here Saturday and Sunday afternoons.	1808460	1471973643348	1471973643473	S	83
3574	37846	They play Atlanta here Saturday and Sunday afternoons.	They play Atlanta here Saturday and Sunday afternoons.	1808467	1471973643571	1471973643699	a	65
3574	37846	They play Atlanta here Saturday and Sunday afternoons.	They play Atlanta here Saturday and Sunday afternoons.	1808475	1471973643809	1471973643876	u	85
3574	37846	They play Atlanta here Saturday and Sunday afternoons.	They play Atlanta here Saturday and Sunday afternoons.	1808537	1471973644365	1471973644431	BKSP	8
3574	37846	They play Atlanta here Saturday and Sunday afternoons.	They play Atlanta here Saturday and Sunday afternoons.	1808541	1471973644545	1471973644656	t	84
3574	37846	They play Atlanta here Saturday and Sunday afternoons.	They play Atlanta here Saturday and Sunday afternoons.	1808547	1471973644767	1471973644828	u	85
3574	37846	They play Atlanta here Saturday and Sunday afternoons.	They play Atlanta here Saturday and Sunday afternoons.	1808555	1471973644918	1471973645016	r	82
3574	37846	They play Atlanta here Saturday and Sunday afternoons.	They play Atlanta here Saturday and Sunday afternoons.	1808559	1471973645292	1471973645404	d	68
3574	37846	They play Atlanta here Saturday and Sunday afternoons.	They play Atlanta here Saturday and Sunday afternoons.	1808582	1471973645384	1471973645547	a	65
3574	37846	They play Atlanta here Saturday and Sunday afternoons.	They play Atlanta here Saturday and Sunday afternoons.	1808586	1471973645553	1471973645608	y	89
3574	37846	They play Atlanta here Saturday and Sunday afternoons.	They play Atlanta here Saturday and Sunday afternoons.	1808591	1471973645722	1471973645809	 	32
3574	37846	They play Atlanta here Saturday and Sunday afternoons.	They play Atlanta here Saturday and Sunday afternoons.	1808594	1471973645932	1471973646107	a	65
3574	37846	They play Atlanta here Saturday and Sunday afternoons.	They play Atlanta here Saturday and Sunday afternoons.	1808597	1471973646061	1471973646126	n	78
3574	37846	They play Atlanta here Saturday and Sunday afternoons.	They play Atlanta here Saturday and Sunday afternoons.	1808651	1471973646112	1471973646227	d	68
3574	37846	They play Atlanta here Saturday and Sunday afternoons.	They play Atlanta here Saturday and Sunday afternoons.	1808655	1471973646267	1471973646333	 	32
3574	37846	They play Atlanta here Saturday and Sunday afternoons.	They play Atlanta here Saturday and Sunday afternoons.	1808657	1471973646587	1471973646771	SHIFT	16
3574	37846	They play Atlanta here Saturday and Sunday afternoons.	They play Atlanta here Saturday and Sunday afternoons.	1808663	1471973646688	1471973646818	S	83
3574	37846	They play Atlanta here Saturday and Sunday afternoons.	They play Atlanta here Saturday and Sunday afternoons.	1808666	1471973646924	1471973646989	u	85
3574	37846	They play Atlanta here Saturday and Sunday afternoons.	They play Atlanta here Saturday and Sunday afternoons.	1808669	1471973647121	1471973647191	n	78
3574	37846	They play Atlanta here Saturday and Sunday afternoons.	They play Atlanta here Saturday and Sunday afternoons.	1808671	1471973647231	1471973647360	d	68
3574	37846	They play Atlanta here Saturday and Sunday afternoons.	They play Atlanta here Saturday and Sunday afternoons.	1808742	1471973647353	1471973647483	a	65
3574	37846	They play Atlanta here Saturday and Sunday afternoons.	They play Atlanta here Saturday and Sunday afternoons.	1808746	1471973647511	1471973647576	y	89
3574	37846	They play Atlanta here Saturday and Sunday afternoons.	They play Atlanta here Saturday and Sunday afternoons.	1808747	1471973647906	1471973648004	 	32
3574	37846	They play Atlanta here Saturday and Sunday afternoons.	They play Atlanta here Saturday and Sunday afternoons.	1808751	1471973648200	1471973648346	a	65
3574	37846	They play Atlanta here Saturday and Sunday afternoons.	They play Atlanta here Saturday and Sunday afternoons.	1808756	1471973648350	1471973648444	f	70
3574	37846	They play Atlanta here Saturday and Sunday afternoons.	They play Atlanta here Saturday and Sunday afternoons.	1808760	1471973648555	1471973648633	t	84
3574	37846	They play Atlanta here Saturday and Sunday afternoons.	They play Atlanta here Saturday and Sunday afternoons.	1808782	1471973648694	1471973648810	e	69
3574	37846	They play Atlanta here Saturday and Sunday afternoons.	They play Atlanta here Saturday and Sunday afternoons.	1808786	1471973648773	1471973648862	r	82
3574	37846	They play Atlanta here Saturday and Sunday afternoons.	They play Atlanta here Saturday and Sunday afternoons.	1808793	1471973648910	1471973648972	n	78
3574	37846	They play Atlanta here Saturday and Sunday afternoons.	They play Atlanta here Saturday and Sunday afternoons.	1808801	1471973649070	1471973649131	o	79
3574	37846	They play Atlanta here Saturday and Sunday afternoons.	They play Atlanta here Saturday and Sunday afternoons.	1808806	1471973649205	1471973649282	o	79
3574	37846	They play Atlanta here Saturday and Sunday afternoons.	They play Atlanta here Saturday and Sunday afternoons.	1808856	1471973649364	1471973649433	n	78
3574	37846	They play Atlanta here Saturday and Sunday afternoons.	They play Atlanta here Saturday and Sunday afternoons.	1808859	1471973649593	1471973649679	s	83
3574	37846	They play Atlanta here Saturday and Sunday afternoons.	They play Atlanta here Saturday and Sunday afternoons.	1808867	1471973649778	1471973649863	.	190
3574	37866	We have been consistent and we have a good balance.	We have been consistent and we have a good balance.	1809054	1471973652694	1471973652874	SHIFT	16
3574	37866	We have been consistent and we have a good balance.	We have been consistent and we have a good balance.	1809057	1471973652787	1471973652921	W	87
3574	37866	We have been consistent and we have a good balance.	We have been consistent and we have a good balance.	1809060	1471973652999	1471973653117	e	69
3574	37866	We have been consistent and we have a good balance.	We have been consistent and we have a good balance.	1809063	1471973653200	1471973653298	 	32
3574	37866	We have been consistent and we have a good balance.	We have been consistent and we have a good balance.	1809104	1471973653505	1471973653677	h	65
3574	37866	We have been consistent and we have a good balance.	We have been consistent and we have a good balance.	1809107	1471973653657	1471973653792	v	86
3574	37866	We have been consistent and we have a good balance.	We have been consistent and we have a good balance.	1809110	1471973653785	1471973653888	e	69
3574	37866	We have been consistent and we have a good balance.	We have been consistent and we have a good balance.	1809112	1471973653916	1471973653986	 	32
3574	37866	We have been consistent and we have a good balance.	We have been consistent and we have a good balance.	1809114	1471973654184	1471973654212	b	66
3574	37866	We have been consistent and we have a good balance.	We have been consistent and we have a good balance.	1809117	1471973654356	1471973654417	e	69
3574	37866	We have been consistent and we have a good balance.	We have been consistent and we have a good balance.	1809247	1471973654729	1471973654783	BKSP	8
3574	37866	We have been consistent and we have a good balance.	We have been consistent and we have a good balance.	1809248	1471973654872	1471973654926	BKSP	8
3574	37866	We have been consistent and we have a good balance.	We have been consistent and we have a good balance.	1809249	1471973655020	1471973655073	BKSP	8
3574	37866	We have been consistent and we have a good balance.	We have been consistent and we have a good balance.	1809250	1471973655815	1471973655852	=	187
3574	37866	We have been consistent and we have a good balance.	We have been consistent and we have a good balance.	1809251	1471973655979	1471973656044	BKSP	8
3574	37866	We have been consistent and we have a good balance.	We have been consistent and we have a good balance.	1809253	1471973656126	1471973656179	BKSP	8
3574	37866	We have been consistent and we have a good balance.	We have been consistent and we have a good balance.	1809255	1471973656236	1471973656285	BKSP	8
3574	37866	We have been consistent and we have a good balance.	We have been consistent and we have a good balance.	1809257	1471973656375	1471973656431	BKSP	8
3574	37866	We have been consistent and we have a good balance.	We have been consistent and we have a good balance.	1809258	1471973656511	1471973656530	BKSP	8
3574	37866	We have been consistent and we have a good balance.	We have been consistent and we have a good balance.	1809260	1471973656770	1471973656825	h	89
3574	37866	We have been consistent and we have a good balance.	We have been consistent and we have a good balance.	1809263	1471973656908	1471973657027	a	65
3574	37866	We have been consistent and we have a good balance.	We have been consistent and we have a good balance.	1809265	1471973657060	1471973657171	v	86
3574	37866	We have been consistent and we have a good balance.	We have been consistent and we have a good balance.	1809385	1471973657232	1471973657319	e	69
3574	37866	We have been consistent and we have a good balance.	We have been consistent and we have a good balance.	1809388	1471973657446	1471973657511	BKSP	8
3574	37866	We have been consistent and we have a good balance.	We have been consistent and we have a good balance.	1809393	1471973657593	1471973657659	BKSP	8
3574	37866	We have been consistent and we have a good balance.	We have been consistent and we have a good balance.	1809399	1471973657732	1471973657785	BKSP	8
3574	37866	We have been consistent and we have a good balance.	We have been consistent and we have a good balance.	1809406	1471973657858	1471973657912	BKSP	8
3574	37866	We have been consistent and we have a good balance.	We have been consistent and we have a good balance.	1809414	1471973657993	1471973658042	BKSP	8
3574	37866	We have been consistent and we have a good balance.	We have been consistent and we have a good balance.	1809418	1471973659000	1471973659070	h	72
3574	37866	We have been consistent and we have a good balance.	We have been consistent and we have a good balance.	1809423	1471973659119	1471973659222	a	65
3574	37866	We have been consistent and we have a good balance.	We have been consistent and we have a good balance.	1809426	1471973659238	1471973659352	v	86
3574	37866	We have been consistent and we have a good balance.	We have been consistent and we have a good balance.	1809428	1471973659418	1471973659499	e	69
3574	37866	We have been consistent and we have a good balance.	We have been consistent and we have a good balance.	1809441	1471973659527	1471973659614	 	32
3574	37866	We have been consistent and we have a good balance.	We have been consistent and we have a good balance.	1809446	1471973659778	1471973659864	b	66
3574	37866	We have been consistent and we have a good balance.	We have been consistent and we have a good balance.	1809457	1471973659958	1471973660028	e	69
3574	37866	We have been consistent and we have a good balance.	We have been consistent and we have a good balance.	1809464	1471973660134	1471973660204	e	69
3574	37866	We have been consistent and we have a good balance.	We have been consistent and we have a good balance.	1809470	1471973660236	1471973660305	n	78
3574	37866	We have been consistent and we have a good balance.	We have been consistent and we have a good balance.	1809495	1471973660379	1471973660465	 	32
3574	37866	We have been consistent and we have a good balance.	We have been consistent and we have a good balance.	1809499	1471973660588	1471973660701	c	67
3574	37866	We have been consistent and we have a good balance.	We have been consistent and we have a good balance.	1809502	1471973660694	1471973660761	o	79
3574	37866	We have been consistent and we have a good balance.	We have been consistent and we have a good balance.	1809508	1471973660868	1471973660938	n	78
3574	37866	We have been consistent and we have a good balance.	We have been consistent and we have a good balance.	1809514	1471973661003	1471973661102	s	83
3574	37866	We have been consistent and we have a good balance.	We have been consistent and we have a good balance.	1809545	1471973661151	1471973661217	i	73
3574	37866	We have been consistent and we have a good balance.	We have been consistent and we have a good balance.	1809550	1471973661290	1471973661388	s	83
3574	37866	We have been consistent and we have a good balance.	We have been consistent and we have a good balance.	1809556	1471973661503	1471973661581	t	84
3574	37866	We have been consistent and we have a good balance.	We have been consistent and we have a good balance.	1809560	1471973661712	1471973661806	e	69
3574	37866	We have been consistent and we have a good balance.	We have been consistent and we have a good balance.	1809563	1471973661855	1471973661926	n	78
3574	37866	We have been consistent and we have a good balance.	We have been consistent and we have a good balance.	1809601	1471973662049	1471973662135	t	84
3574	37866	We have been consistent and we have a good balance.	We have been consistent and we have a good balance.	1809606	1471973662217	1471973662303	 	32
3574	37866	We have been consistent and we have a good balance.	We have been consistent and we have a good balance.	1809612	1471973662480	1471973662583	a	65
3574	37866	We have been consistent and we have a good balance.	We have been consistent and we have a good balance.	1809619	1471973662588	1471973662673	n	78
3574	37866	We have been consistent and we have a good balance.	We have been consistent and we have a good balance.	1809622	1471973662678	1471973662767	d	68
3574	37866	We have been consistent and we have a good balance.	We have been consistent and we have a good balance.	1809651	1471973662841	1471973662927	 	32
3574	37866	We have been consistent and we have a good balance.	We have been consistent and we have a good balance.	1809653	1471973663207	1471973663291	w	87
3574	37866	We have been consistent and we have a good balance.	We have been consistent and we have a good balance.	1809654	1471973663254	1471973663376	e	69
3574	37866	We have been consistent and we have a good balance.	We have been consistent and we have a good balance.	1809655	1471973663421	1471973663508	 	32
3574	37866	We have been consistent and we have a good balance.	We have been consistent and we have a good balance.	1809657	1471973663618	1471973663684	h	72
3574	37866	We have been consistent and we have a good balance.	We have been consistent and we have a good balance.	1809710	1471973663741	1471973663887	a	65
3574	37866	We have been consistent and we have a good balance.	We have been consistent and we have a good balance.	1809715	1471973663854	1471973663963	v	86
3574	37866	We have been consistent and we have a good balance.	We have been consistent and we have a good balance.	1809719	1471973663979	1471973664073	e	69
3574	37866	We have been consistent and we have a good balance.	We have been consistent and we have a good balance.	1809722	1471973664114	1471973664208	 	32
3574	37866	We have been consistent and we have a good balance.	We have been consistent and we have a good balance.	1809725	1471973664269	1471973664372	a	65
3574	37866	We have been consistent and we have a good balance.	We have been consistent and we have a good balance.	1809763	1471973664432	1471973664515	 	32
3574	37866	We have been consistent and we have a good balance.	We have been consistent and we have a good balance.	1809767	1471973664679	1471973664774	g	71
3574	37866	We have been consistent and we have a good balance.	We have been consistent and we have a good balance.	1809775	1471973664831	1471973664897	o	79
3574	37866	We have been consistent and we have a good balance.	We have been consistent and we have a good balance.	1809782	1471973664979	1471973665032	o	79
3574	37866	We have been consistent and we have a good balance.	We have been consistent and we have a good balance.	1809788	1471973665113	1471973665200	d	68
3574	37866	We have been consistent and we have a good balance.	We have been consistent and we have a good balance.	1809846	1471973665265	1471973665343	 	32
3574	37866	We have been consistent and we have a good balance.	We have been consistent and we have a good balance.	1809849	1471973665569	1471973665664	b	66
3574	37866	We have been consistent and we have a good balance.	We have been consistent and we have a good balance.	1809853	1471973665737	1471973665852	a	65
3574	37866	We have been consistent and we have a good balance.	We have been consistent and we have a good balance.	1809860	1471973665876	1471973665954	l	76
3574	37866	We have been consistent and we have a good balance.	We have been consistent and we have a good balance.	1809862	1471973666460	1471973666558	a	65
3574	37866	We have been consistent and we have a good balance.	We have been consistent and we have a good balance.	1809914	1471973666636	1471973666706	n	78
3574	37866	We have been consistent and we have a good balance.	We have been consistent and we have a good balance.	1809919	1471973666969	1471973667094	c	67
3574	37866	We have been consistent and we have a good balance.	We have been consistent and we have a good balance.	1809924	1471973667087	1471973667183	e	69
3574	37866	We have been consistent and we have a good balance.	We have been consistent and we have a good balance.	1809928	1471973667306	1471973667376	.	190
3574	37888	We can work around these plans if you prefer.	We can work around these plans if you prefer.	1810038	1471973669328	1471973669557	SHIFT	16
3574	37888	We can work around these plans if you prefer.	We can work around these plans if you prefer.	1810041	1471973669469	1471973669576	W	87
3574	37888	We can work around these plans if you prefer.	We can work around these plans if you prefer.	1810045	1471973669562	1471973669661	e	69
3574	37888	We can work around these plans if you prefer.	We can work around these plans if you prefer.	1810048	1471973669842	1471973669944	 	32
3574	37888	We can work around these plans if you prefer.	We can work around these plans if you prefer.	1810052	1471973670117	1471973670201	c	67
3574	37888	We can work around these plans if you prefer.	We can work around these plans if you prefer.	1810152	1471973670194	1471973670333	a	65
3574	37888	We can work around these plans if you prefer.	We can work around these plans if you prefer.	1810154	1471973670296	1471973670380	s	83
3574	37888	We can work around these plans if you prefer.	We can work around these plans if you prefer.	1810156	1471973670408	1471973670477	n	78
3574	37888	We can work around these plans if you prefer.	We can work around these plans if you prefer.	1810158	1471973670765	1471973670826	BKSP	8
3574	37888	We can work around these plans if you prefer.	We can work around these plans if you prefer.	1810164	1471973671229	1471973671295	BKSP	8
3574	37888	We can work around these plans if you prefer.	We can work around these plans if you prefer.	1810168	1471973671475	1471973671545	n	78
3574	37888	We can work around these plans if you prefer.	We can work around these plans if you prefer.	1810172	1471973671656	1471973671726	 	32
3574	37888	We can work around these plans if you prefer.	We can work around these plans if you prefer.	1810176	1471973671865	1471973671963	w	87
3574	37888	We can work around these plans if you prefer.	We can work around these plans if you prefer.	1810222	1471973672008	1471973672073	o	79
3574	37888	We can work around these plans if you prefer.	We can work around these plans if you prefer.	1810224	1471973672447	1471973672530	r	82
3574	37888	We can work around these plans if you prefer.	We can work around these plans if you prefer.	1810227	1471973672562	1471973672627	k	75
3574	37888	We can work around these plans if you prefer.	We can work around these plans if you prefer.	1810231	1471973672800	1471973672882	 	32
3574	37888	We can work around these plans if you prefer.	We can work around these plans if you prefer.	1810235	1471973672976	1471973673091	a	65
3574	37888	We can work around these plans if you prefer.	We can work around these plans if you prefer.	1810280	1471973673448	1471973673548	r	82
3574	37888	We can work around these plans if you prefer.	We can work around these plans if you prefer.	1810283	1471973673580	1471973673750	o	79
3574	37888	We can work around these plans if you prefer.	We can work around these plans if you prefer.	1810285	1471973673697	1471973673785	u	85
3574	37888	We can work around these plans if you prefer.	We can work around these plans if you prefer.	1810288	1471973673933	1471973674010	n	78
3574	37888	We can work around these plans if you prefer.	We can work around these plans if you prefer.	1810290	1471973674039	1471973674120	d	68
3574	37888	We can work around these plans if you prefer.	We can work around these plans if you prefer.	1810314	1471973674165	1471973674235	 	32
3574	37888	We can work around these plans if you prefer.	We can work around these plans if you prefer.	1810315	1471973674300	1471973674365	t	84
3574	37888	We can work around these plans if you prefer.	We can work around these plans if you prefer.	1810316	1471973674398	1471973674467	h	72
3574	37888	We can work around these plans if you prefer.	We can work around these plans if you prefer.	1810317	1471973674731	1471973674856	e	69
3574	37888	We can work around these plans if you prefer.	We can work around these plans if you prefer.	1810386	1471973674849	1471973674986	r	82
3574	37888	We can work around these plans if you prefer.	We can work around these plans if you prefer.	1810388	1471973674966	1471973675071	e	69
3574	37888	We can work around these plans if you prefer.	We can work around these plans if you prefer.	1810390	1471973675336	1471973675404	BKSP	8
3574	37888	We can work around these plans if you prefer.	We can work around these plans if you prefer.	1810392	1471973675473	1471973675542	BKSP	8
3574	37888	We can work around these plans if you prefer.	We can work around these plans if you prefer.	1810394	1471973675690	1471973675797	s	83
3574	37888	We can work around these plans if you prefer.	We can work around these plans if you prefer.	1810397	1471973675752	1471973675881	e	69
3574	37888	We can work around these plans if you prefer.	We can work around these plans if you prefer.	1810400	1471973676140	1471973676234	 	32
3574	37888	We can work around these plans if you prefer.	We can work around these plans if you prefer.	1810405	1471973676691	1471973676761	p	80
3574	37888	We can work around these plans if you prefer.	We can work around these plans if you prefer.	1810450	1471973676875	1471973676957	l	76
3574	37888	We can work around these plans if you prefer.	We can work around these plans if you prefer.	1810452	1471973676990	1471973677093	a	65
3574	37888	We can work around these plans if you prefer.	We can work around these plans if you prefer.	1810455	1471973677125	1471973677190	n	78
3574	37888	We can work around these plans if you prefer.	We can work around these plans if you prefer.	1810458	1471973677371	1471973677458	s	83
3574	37888	We can work around these plans if you prefer.	We can work around these plans if you prefer.	1810461	1471973677539	1471973677621	 	32
3574	37888	We can work around these plans if you prefer.	We can work around these plans if you prefer.	1810483	1471973677785	1471973677855	i	73
3574	37888	We can work around these plans if you prefer.	We can work around these plans if you prefer.	1810487	1471973677900	1471973677981	f	70
3574	37888	We can work around these plans if you prefer.	We can work around these plans if you prefer.	1810492	1471973678005	1471973678075	 	32
3574	37888	We can work around these plans if you prefer.	We can work around these plans if you prefer.	1810498	1471973678206	1471973678251	y	89
3574	37888	We can work around these plans if you prefer.	We can work around these plans if you prefer.	1810503	1471973678324	1471973678428	o	79
3574	37888	We can work around these plans if you prefer.	We can work around these plans if you prefer.	1810549	1471973678408	1471973678522	u	85
3574	37888	We can work around these plans if you prefer.	We can work around these plans if you prefer.	1810553	1471973678527	1471973678591	 	32
3574	37888	We can work around these plans if you prefer.	We can work around these plans if you prefer.	1810557	1471973678718	1471973678762	p	80
3574	37888	We can work around these plans if you prefer.	We can work around these plans if you prefer.	1810560	1471973678939	1471973679030	r	82
3574	37888	We can work around these plans if you prefer.	We can work around these plans if you prefer.	1810561	1471973679002	1471973679127	e	69
3574	37888	We can work around these plans if you prefer.	We can work around these plans if you prefer.	1810563	1471973679242	1471973679344	f	70
3574	37888	We can work around these plans if you prefer.	We can work around these plans if you prefer.	1810649	1471973679542	1471973679676	e	69
3574	37888	We can work around these plans if you prefer.	We can work around these plans if you prefer.	1810654	1471973679642	1471973679758	r	82
3574	37888	We can work around these plans if you prefer.	We can work around these plans if you prefer.	1810658	1471973679967	1471973680053	s	83
3574	37888	We can work around these plans if you prefer.	We can work around these plans if you prefer.	1810663	1471973680464	1471973680542	BKSP	8
3574	37888	We can work around these plans if you prefer.	We can work around these plans if you prefer.	1810667	1471973680772	1471973680883	s	83
3574	37888	We can work around these plans if you prefer.	We can work around these plans if you prefer.	1810669	1471973681261	1471973681331	BKSP	8
3574	37888	We can work around these plans if you prefer.	We can work around these plans if you prefer.	1810670	1471973681528	1471973681593	l	76
3574	37888	We can work around these plans if you prefer.	We can work around these plans if you prefer.	1810722	1471973681988	1471973682057	BKSP	8
3574	37888	We can work around these plans if you prefer.	We can work around these plans if you prefer.	1810727	1471973682775	1471973682853	.	190
3574	37904	Ruth, I'll send this spreadsheet as I update it.	Ruth, I'll send this spreadsheet as I update it.	1810823	1471973684781	1471973684950	SHIFT	16
3574	37904	Ruth, I'll send this spreadsheet as I update it.	Ruth, I'll send this spreadsheet as I update it.	1810824	1471973684889	1471973684985	R	82
3574	37904	Ruth, I'll send this spreadsheet as I update it.	Ruth, I'll send this spreadsheet as I update it.	1810825	1471973685248	1471973685342	u	85
3574	37904	Ruth, I'll send this spreadsheet as I update it.	Ruth, I'll send this spreadsheet as I update it.	1810826	1471973685440	1471973685556	t	84
3574	37904	Ruth, I'll send this spreadsheet as I update it.	Ruth, I'll send this spreadsheet as I update it.	1810828	1471973685561	1471973685624	h	72
3574	37904	Ruth, I'll send this spreadsheet as I update it.	Ruth, I'll send this spreadsheet as I update it.	1810830	1471973685867	1471973685929	,	188
3574	37904	Ruth, I'll send this spreadsheet as I update it.	Ruth, I'll send this spreadsheet as I update it.	1810951	1471973686093	1471973686162	 	32
3574	37904	Ruth, I'll send this spreadsheet as I update it.	Ruth, I'll send this spreadsheet as I update it.	1810956	1471973686565	1471973686707	SHIFT	16
3574	37904	Ruth, I'll send this spreadsheet as I update it.	Ruth, I'll send this spreadsheet as I update it.	1810959	1471973686640	1471973686717	I	73
3574	37904	Ruth, I'll send this spreadsheet as I update it.	Ruth, I'll send this spreadsheet as I update it.	1810963	1471973686889	1471973686971	'	222
3574	37904	Ruth, I'll send this spreadsheet as I update it.	Ruth, I'll send this spreadsheet as I update it.	1810966	1471973687415	1471973687477	l	76
3574	37904	Ruth, I'll send this spreadsheet as I update it.	Ruth, I'll send this spreadsheet as I update it.	1810968	1471973687587	1471973687624	l	76
3574	37904	Ruth, I'll send this spreadsheet as I update it.	Ruth, I'll send this spreadsheet as I update it.	1811010	1471973687685	1471973687771	 	32
3574	37904	Ruth, I'll send this spreadsheet as I update it.	Ruth, I'll send this spreadsheet as I update it.	1811012	1471973687968	1471973688150	s	83
3574	37904	Ruth, I'll send this spreadsheet as I update it.	Ruth, I'll send this spreadsheet as I update it.	1811015	1471973688113	1471973688218	e	69
3574	37904	Ruth, I'll send this spreadsheet as I update it.	Ruth, I'll send this spreadsheet as I update it.	1811025	1471973688250	1471973688329	n	78
3574	37904	Ruth, I'll send this spreadsheet as I update it.	Ruth, I'll send this spreadsheet as I update it.	1811036	1471973688362	1471973688431	d	68
3574	37904	Ruth, I'll send this spreadsheet as I update it.	Ruth, I'll send this spreadsheet as I update it.	1811084	1471973688579	1471973688664	 	32
3574	37904	Ruth, I'll send this spreadsheet as I update it.	Ruth, I'll send this spreadsheet as I update it.	1811087	1471973688841	1471973688920	t	84
3574	37904	Ruth, I'll send this spreadsheet as I update it.	Ruth, I'll send this spreadsheet as I update it.	1811093	1471973688883	1471973688938	h	72
3574	37904	Ruth, I'll send this spreadsheet as I update it.	Ruth, I'll send this spreadsheet as I update it.	1811100	1471973689032	1471973689102	i	73
3574	37904	Ruth, I'll send this spreadsheet as I update it.	Ruth, I'll send this spreadsheet as I update it.	1811106	1471973689134	1471973689220	s	83
3574	37904	Ruth, I'll send this spreadsheet as I update it.	Ruth, I'll send this spreadsheet as I update it.	1811140	1471973689277	1471973689355	 	32
3574	37904	Ruth, I'll send this spreadsheet as I update it.	Ruth, I'll send this spreadsheet as I update it.	1811142	1471973689613	1471973689712	s	83
3574	37904	Ruth, I'll send this spreadsheet as I update it.	Ruth, I'll send this spreadsheet as I update it.	1811144	1471973689806	1471973689888	p	80
3574	37904	Ruth, I'll send this spreadsheet as I update it.	Ruth, I'll send this spreadsheet as I update it.	1811146	1471973689970	1471973690097	r	82
3574	37904	Ruth, I'll send this spreadsheet as I update it.	Ruth, I'll send this spreadsheet as I update it.	1811224	1471973690066	1471973690174	e	69
3574	37904	Ruth, I'll send this spreadsheet as I update it.	Ruth, I'll send this spreadsheet as I update it.	1811228	1471973690610	1471973690714	a	65
3574	37904	Ruth, I'll send this spreadsheet as I update it.	Ruth, I'll send this spreadsheet as I update it.	1811229	1471973690775	1471973690869	d	68
3574	37904	Ruth, I'll send this spreadsheet as I update it.	Ruth, I'll send this spreadsheet as I update it.	1811231	1471973691091	1471973691207	s	83
3574	37904	Ruth, I'll send this spreadsheet as I update it.	Ruth, I'll send this spreadsheet as I update it.	1811234	1471973691268	1471973691354	e	69
3574	37904	Ruth, I'll send this spreadsheet as I update it.	Ruth, I'll send this spreadsheet as I update it.	1811236	1471973691584	1471973691662	BKSP	8
3574	37904	Ruth, I'll send this spreadsheet as I update it.	Ruth, I'll send this spreadsheet as I update it.	1811238	1471973691828	1471973691895	h	72
3574	37904	Ruth, I'll send this spreadsheet as I update it.	Ruth, I'll send this spreadsheet as I update it.	1811285	1471973691961	1471973692026	e	69
3574	37904	Ruth, I'll send this spreadsheet as I update it.	Ruth, I'll send this spreadsheet as I update it.	1811290	1471973692137	1471973692223	e	69
3574	37904	Ruth, I'll send this spreadsheet as I update it.	Ruth, I'll send this spreadsheet as I update it.	1811296	1471973692337	1471973692415	t	84
3574	37904	Ruth, I'll send this spreadsheet as I update it.	Ruth, I'll send this spreadsheet as I update it.	1811302	1471973692464	1471973692545	 	32
3574	37904	Ruth, I'll send this spreadsheet as I update it.	Ruth, I'll send this spreadsheet as I update it.	1811307	1471973693064	1471973693181	a	65
3574	37904	Ruth, I'll send this spreadsheet as I update it.	Ruth, I'll send this spreadsheet as I update it.	1811340	1471973693148	1471973693266	s	83
3574	37904	Ruth, I'll send this spreadsheet as I update it.	Ruth, I'll send this spreadsheet as I update it.	1811346	1471973693307	1471973693393	 	32
3574	37904	Ruth, I'll send this spreadsheet as I update it.	Ruth, I'll send this spreadsheet as I update it.	1811350	1471973693475	1471973693544	i	73
3574	37904	Ruth, I'll send this spreadsheet as I update it.	Ruth, I'll send this spreadsheet as I update it.	1811354	1471973693618	1471973693699	 	32
3574	37904	Ruth, I'll send this spreadsheet as I update it.	Ruth, I'll send this spreadsheet as I update it.	1811358	1471973693806	1471973693876	u	85
3574	37904	Ruth, I'll send this spreadsheet as I update it.	Ruth, I'll send this spreadsheet as I update it.	1811360	1471973693954	1471973694036	p	80
3574	37904	Ruth, I'll send this spreadsheet as I update it.	Ruth, I'll send this spreadsheet as I update it.	1811524	1471973694642	1471973694704	BKSP	8
3574	37904	Ruth, I'll send this spreadsheet as I update it.	Ruth, I'll send this spreadsheet as I update it.	1811528	1471973694794	1471973694846	BKSP	8
3574	37904	Ruth, I'll send this spreadsheet as I update it.	Ruth, I'll send this spreadsheet as I update it.	1811532	1471973694928	1471973694990	BKSP	8
3574	37904	Ruth, I'll send this spreadsheet as I update it.	Ruth, I'll send this spreadsheet as I update it.	1811535	1471973695072	1471973695125	BKSP	8
3574	37904	Ruth, I'll send this spreadsheet as I update it.	Ruth, I'll send this spreadsheet as I update it.	1811540	1471973695223	1471973695260	BKSP	8
3574	37904	Ruth, I'll send this spreadsheet as I update it.	Ruth, I'll send this spreadsheet as I update it.	1811548	1471973695403	1471973695717	SHIFT	16
3574	37904	Ruth, I'll send this spreadsheet as I update it.	Ruth, I'll send this spreadsheet as I update it.	1811554	1471973695832	1471973695901	 	32
3574	37904	Ruth, I'll send this spreadsheet as I update it.	Ruth, I'll send this spreadsheet as I update it.	1811564	1471973695999	1471973696188	SHIFT	16
3574	37904	Ruth, I'll send this spreadsheet as I update it.	Ruth, I'll send this spreadsheet as I update it.	1811559	1471973696092	1471973696161	I	73
3574	37904	Ruth, I'll send this spreadsheet as I update it.	Ruth, I'll send this spreadsheet as I update it.	1811568	1471973696352	1471973696434	 	32
3574	37904	Ruth, I'll send this spreadsheet as I update it.	Ruth, I'll send this spreadsheet as I update it.	1811572	1471973696994	1471973697072	u	85
3574	37904	Ruth, I'll send this spreadsheet as I update it.	Ruth, I'll send this spreadsheet as I update it.	1811576	1471973697162	1471973697215	p	80
3574	37904	Ruth, I'll send this spreadsheet as I update it.	Ruth, I'll send this spreadsheet as I update it.	1811601	1471973697420	1471973697520	d	68
3574	37904	Ruth, I'll send this spreadsheet as I update it.	Ruth, I'll send this spreadsheet as I update it.	1811607	1471973697513	1471973697663	a	65
3574	37904	Ruth, I'll send this spreadsheet as I update it.	Ruth, I'll send this spreadsheet as I update it.	1811612	1471973697687	1471973697773	t	84
3574	37904	Ruth, I'll send this spreadsheet as I update it.	Ruth, I'll send this spreadsheet as I update it.	1811617	1471973697831	1471973697933	e	69
3574	37904	Ruth, I'll send this spreadsheet as I update it.	Ruth, I'll send this spreadsheet as I update it.	1811621	1471973698007	1471973698093	 	32
3574	37904	Ruth, I'll send this spreadsheet as I update it.	Ruth, I'll send this spreadsheet as I update it.	1811648	1471973698208	1471973698273	i	73
3574	37904	Ruth, I'll send this spreadsheet as I update it.	Ruth, I'll send this spreadsheet as I update it.	1811651	1471973698364	1471973698442	t	84
3574	37904	Ruth, I'll send this spreadsheet as I update it.	Ruth, I'll send this spreadsheet as I update it.	1811655	1471973698491	1471973698557	.	190
3574	37921	I wanted to get all of this out of the way before my move.	I wanted to get all of this out of the way before my move.	1811801	1471973700588	1471973700720	SHIFT	16
3574	37921	I wanted to get all of this out of the way before my move.	I wanted to get all of this out of the way before my move.	1811804	1471973700650	1471973700730	I	73
3574	37921	I wanted to get all of this out of the way before my move.	I wanted to get all of this out of the way before my move.	1811805	1471973700828	1471973700915	 	32
3574	37921	I wanted to get all of this out of the way before my move.	I wanted to get all of this out of the way before my move.	1811806	1471973701013	1471973701095	w	87
3574	37921	I wanted to get all of this out of the way before my move.	I wanted to get all of this out of the way before my move.	1811807	1471973701193	1471973701325	a	65
3574	37921	I wanted to get all of this out of the way before my move.	I wanted to get all of this out of the way before my move.	1811808	1471973701357	1471973701435	n	78
3574	37921	I wanted to get all of this out of the way before my move.	I wanted to get all of this out of the way before my move.	1811863	1471973701694	1471973701776	t	84
3574	37921	I wanted to get all of this out of the way before my move.	I wanted to get all of this out of the way before my move.	1811868	1471973701874	1471973701952	e	69
3574	37921	I wanted to get all of this out of the way before my move.	I wanted to get all of this out of the way before my move.	1811872	1471973702075	1471973702145	d	68
3574	37921	I wanted to get all of this out of the way before my move.	I wanted to get all of this out of the way before my move.	1811875	1471973702218	1471973702304	 	32
3574	37921	I wanted to get all of this out of the way before my move.	I wanted to get all of this out of the way before my move.	1811878	1471973702411	1471973702498	t	84
3574	37921	I wanted to get all of this out of the way before my move.	I wanted to get all of this out of the way before my move.	1811912	1471973702503	1471973702642	o	79
3574	37921	I wanted to get all of this out of the way before my move.	I wanted to get all of this out of the way before my move.	1811916	1471973702593	1471973702710	 	32
3574	37921	I wanted to get all of this out of the way before my move.	I wanted to get all of this out of the way before my move.	1811919	1471973702866	1471973702943	g	71
3574	37921	I wanted to get all of this out of the way before my move.	I wanted to get all of this out of the way before my move.	1811920	1471973703026	1471973703112	e	69
3574	37921	I wanted to get all of this out of the way before my move.	I wanted to get all of this out of the way before my move.	1811924	1471973703203	1471973703285	t	84
3574	37921	I wanted to get all of this out of the way before my move.	I wanted to get all of this out of the way before my move.	1811960	1471973703347	1471973703433	 	32
3574	37921	I wanted to get all of this out of the way before my move.	I wanted to get all of this out of the way before my move.	1811965	1471973703630	1471973703716	a	65
3574	37921	I wanted to get all of this out of the way before my move.	I wanted to get all of this out of the way before my move.	1811973	1471973703744	1471973703797	l	76
3574	37921	I wanted to get all of this out of the way before my move.	I wanted to get all of this out of the way before my move.	1811976	1471973703892	1471973703957	l	76
3574	37921	I wanted to get all of this out of the way before my move.	I wanted to get all of this out of the way before my move.	1811982	1471973704035	1471973704117	 	32
3574	37921	I wanted to get all of this out of the way before my move.	I wanted to get all of this out of the way before my move.	1812020	1471973704294	1471973704363	o	79
3574	37921	I wanted to get all of this out of the way before my move.	I wanted to get all of this out of the way before my move.	1812021	1471973704429	1471973704515	f	70
3574	37921	I wanted to get all of this out of the way before my move.	I wanted to get all of this out of the way before my move.	1812022	1471973704564	1471973704645	 	32
3574	37921	I wanted to get all of this out of the way before my move.	I wanted to get all of this out of the way before my move.	1812023	1471973704719	1471973704801	t	84
3574	37921	I wanted to get all of this out of the way before my move.	I wanted to get all of this out of the way before my move.	1812025	1471973704850	1471973704902	h	72
3574	37921	I wanted to get all of this out of the way before my move.	I wanted to get all of this out of the way before my move.	1812126	1471973704984	1471973705054	i	73
3574	37921	I wanted to get all of this out of the way before my move.	I wanted to get all of this out of the way before my move.	1812130	1471973705342	1471973705403	BKSP	8
3574	37921	I wanted to get all of this out of the way before my move.	I wanted to get all of this out of the way before my move.	1812133	1471973706046	1471973706124	i	73
3574	37921	I wanted to get all of this out of the way before my move.	I wanted to get all of this out of the way before my move.	1812137	1471973706173	1471973706255	s	83
3574	37921	I wanted to get all of this out of the way before my move.	I wanted to get all of this out of the way before my move.	1812140	1471973706287	1471973706369	 	32
3574	37921	I wanted to get all of this out of the way before my move.	I wanted to get all of this out of the way before my move.	1812143	1471973706533	1471973706657	o	79
3574	37921	I wanted to get all of this out of the way before my move.	I wanted to get all of this out of the way before my move.	1812171	1471973706612	1471973706700	u	85
3574	37921	I wanted to get all of this out of the way before my move.	I wanted to get all of this out of the way before my move.	1812173	1471973706778	1471973706864	t	84
3574	37921	I wanted to get all of this out of the way before my move.	I wanted to get all of this out of the way before my move.	1812175	1471973706926	1471973706991	 	32
3574	37921	I wanted to get all of this out of the way before my move.	I wanted to get all of this out of the way before my move.	1812178	1471973707105	1471973707183	o	79
3574	37921	I wanted to get all of this out of the way before my move.	I wanted to get all of this out of the way before my move.	1812181	1471973707257	1471973707334	f	70
3574	37921	I wanted to get all of this out of the way before my move.	I wanted to get all of this out of the way before my move.	1812184	1471973707362	1471973707445	 	32
3574	37921	I wanted to get all of this out of the way before my move.	I wanted to get all of this out of the way before my move.	1812231	1471973707535	1471973707604	t	84
3574	37921	I wanted to get all of this out of the way before my move.	I wanted to get all of this out of the way before my move.	1812233	1471973707637	1471973707699	h	72
3574	37921	I wanted to get all of this out of the way before my move.	I wanted to get all of this out of the way before my move.	1812235	1471973707744	1471973707821	e	69
3574	37921	I wanted to get all of this out of the way before my move.	I wanted to get all of this out of the way before my move.	1812238	1471973707903	1471973707989	 	32
3574	37921	I wanted to get all of this out of the way before my move.	I wanted to get all of this out of the way before my move.	1812243	1471973708334	1471973708416	w	87
3574	37921	I wanted to get all of this out of the way before my move.	I wanted to get all of this out of the way before my move.	1812275	1471973708515	1471973708634	a	65
3574	37921	I wanted to get all of this out of the way before my move.	I wanted to get all of this out of the way before my move.	1812277	1471973708662	1471973708727	y	89
3574	37921	I wanted to get all of this out of the way before my move.	I wanted to get all of this out of the way before my move.	1812279	1471973708838	1471973708933	 	32
3574	37921	I wanted to get all of this out of the way before my move.	I wanted to get all of this out of the way before my move.	1812283	1471973709047	1471973709134	b	66
3574	37921	I wanted to get all of this out of the way before my move.	I wanted to get all of this out of the way before my move.	1812287	1471973709215	1471973709297	e	69
3574	37921	I wanted to get all of this out of the way before my move.	I wanted to get all of this out of the way before my move.	1812332	1471973709428	1471973709514	f	70
3574	37921	I wanted to get all of this out of the way before my move.	I wanted to get all of this out of the way before my move.	1812335	1471973709538	1471973709608	o	79
3574	37921	I wanted to get all of this out of the way before my move.	I wanted to get all of this out of the way before my move.	1812340	1471973709681	1471973709768	r	82
3574	37921	I wanted to get all of this out of the way before my move.	I wanted to get all of this out of the way before my move.	1812345	1471973709817	1471973709937	e	69
3574	37921	I wanted to get all of this out of the way before my move.	I wanted to get all of this out of the way before my move.	1812349	1471973710047	1471973710118	 	32
3574	37921	I wanted to get all of this out of the way before my move.	I wanted to get all of this out of the way before my move.	1812405	1471973710323	1471973710393	m	77
3574	37921	I wanted to get all of this out of the way before my move.	I wanted to get all of this out of the way before my move.	1812407	1471973710520	1471973710573	y	89
3574	37921	I wanted to get all of this out of the way before my move.	I wanted to get all of this out of the way before my move.	1812411	1471973710671	1471973710774	 	32
3574	37921	I wanted to get all of this out of the way before my move.	I wanted to get all of this out of the way before my move.	1812416	1471973710938	1471973711042	m	77
3574	37921	I wanted to get all of this out of the way before my move.	I wanted to get all of this out of the way before my move.	1812421	1471973711140	1471973711209	o	79
3574	37921	I wanted to get all of this out of the way before my move.	I wanted to get all of this out of the way before my move.	1812462	1471973711271	1471973711374	v	86
3574	37921	I wanted to get all of this out of the way before my move.	I wanted to get all of this out of the way before my move.	1812466	1471973711419	1471973711501	e	69
3574	37921	I wanted to get all of this out of the way before my move.	I wanted to get all of this out of the way before my move.	1812470	1471973711567	1471973711636	.	190
3574	37933	We obviously have a lot to talk about.	We obviously have a lot to talk about.	1812593	1471973713451	1471973713613	SHIFT	16
3574	37933	We obviously have a lot to talk about.	We obviously have a lot to talk about.	1812597	1471973713547	1471973713657	W	87
3574	37933	We obviously have a lot to talk about.	We obviously have a lot to talk about.	1812603	1471973713771	1471973713858	e	69
3574	37933	We obviously have a lot to talk about.	We obviously have a lot to talk about.	1812607	1471973713906	1471973713972	 	32
3574	37933	We obviously have a lot to talk about.	We obviously have a lot to talk about.	1812610	1471973714416	1471973714515	b	66
3574	37933	We obviously have a lot to talk about.	We obviously have a lot to talk about.	1812616	1471973714531	1471973714609	o	79
3574	37933	We obviously have a lot to talk about.	We obviously have a lot to talk about.	1812760	1471973715244	1471973715298	BKSP	8
3574	37933	We obviously have a lot to talk about.	We obviously have a lot to talk about.	1812762	1471973715380	1471973715445	BKSP	8
3574	37933	We obviously have a lot to talk about.	We obviously have a lot to talk about.	1812765	1471973715609	1471973715695	o	79
3574	37933	We obviously have a lot to talk about.	We obviously have a lot to talk about.	1812770	1471973715773	1471973715851	b	66
3574	37933	We obviously have a lot to talk about.	We obviously have a lot to talk about.	1812774	1471973716197	1471973716266	v	86
3574	37933	We obviously have a lot to talk about.	We obviously have a lot to talk about.	1812777	1471973716332	1471973716397	i	73
3574	37933	We obviously have a lot to talk about.	We obviously have a lot to talk about.	1812781	1471973716569	1471973716714	o	79
3574	37933	We obviously have a lot to talk about.	We obviously have a lot to talk about.	1812808	1471973716665	1471973716749	u	85
3574	37933	We obviously have a lot to talk about.	We obviously have a lot to talk about.	1812809	1471973716872	1471973716967	s	83
3574	37933	We obviously have a lot to talk about.	We obviously have a lot to talk about.	1812810	1471973717081	1471973717168	l	76
3574	37933	We obviously have a lot to talk about.	We obviously have a lot to talk about.	1812812	1471973717279	1471973717348	y	89
3574	37933	We obviously have a lot to talk about.	We obviously have a lot to talk about.	1812813	1471973717455	1471973717540	 	32
3574	37933	We obviously have a lot to talk about.	We obviously have a lot to talk about.	1812815	1471973717622	1471973717691	h	72
3574	37933	We obviously have a lot to talk about.	We obviously have a lot to talk about.	1812837	1471973717740	1471973717880	a	65
3574	37933	We obviously have a lot to talk about.	We obviously have a lot to talk about.	1812839	1471973717848	1471973717987	v	86
3574	37933	We obviously have a lot to talk about.	We obviously have a lot to talk about.	1812841	1471973717980	1471973718060	e	69
3574	37933	We obviously have a lot to talk about.	We obviously have a lot to talk about.	1812842	1471973718075	1471973718170	 	32
3574	37933	We obviously have a lot to talk about.	We obviously have a lot to talk about.	1812845	1471973718251	1471973718362	a	65
3574	37933	We obviously have a lot to talk about.	We obviously have a lot to talk about.	1812899	1471973718477	1471973718580	 	32
3574	37933	We obviously have a lot to talk about.	We obviously have a lot to talk about.	1812901	1471973718834	1471973718920	l	76
3574	37933	We obviously have a lot to talk about.	We obviously have a lot to talk about.	1812905	1471973719035	1471973719105	o	79
3574	37933	We obviously have a lot to talk about.	We obviously have a lot to talk about.	1812909	1471973719171	1471973719253	t	84
3574	37933	We obviously have a lot to talk about.	We obviously have a lot to talk about.	1812914	1471973719297	1471973719379	 	32
3574	37933	We obviously have a lot to talk about.	We obviously have a lot to talk about.	1812975	1471973719605	1471973719693	t	84
3574	37933	We obviously have a lot to talk about.	We obviously have a lot to talk about.	1812978	1471973719647	1471973719782	o	79
3574	37933	We obviously have a lot to talk about.	We obviously have a lot to talk about.	1812981	1471973719753	1471973719849	 	32
3574	37933	We obviously have a lot to talk about.	We obviously have a lot to talk about.	1812983	1471973720075	1471973720161	t	84
3574	37933	We obviously have a lot to talk about.	We obviously have a lot to talk about.	1812985	1471973720251	1471973720354	a	65
3574	37933	We obviously have a lot to talk about.	We obviously have a lot to talk about.	1813009	1471973720395	1471973720464	l	76
3574	37933	We obviously have a lot to talk about.	We obviously have a lot to talk about.	1813013	1471973720579	1471973720648	k	75
3574	37933	We obviously have a lot to talk about.	We obviously have a lot to talk about.	1813017	1471973720746	1471973720828	 	32
3574	37933	We obviously have a lot to talk about.	We obviously have a lot to talk about.	1813021	1471973720958	1471973721224	a	65
3574	37933	We obviously have a lot to talk about.	We obviously have a lot to talk about.	1813057	1471973721171	1471973721317	b	66
3574	37933	We obviously have a lot to talk about.	We obviously have a lot to talk about.	1813061	1471973721264	1471973721395	o	79
3574	37933	We obviously have a lot to talk about.	We obviously have a lot to talk about.	1813066	1471973721341	1471973721430	u	85
3574	37933	We obviously have a lot to talk about.	We obviously have a lot to talk about.	1813071	1471973721487	1471973721574	t	84
3574	37933	We obviously have a lot to talk about.	We obviously have a lot to talk about.	1813076	1471973721916	1471973721972	.	190
3574	37947	He said police in Dallas were also in favor of fences.	He said police in Dallas were also in favor of fences.	1813223	1471973723829	1471973724693	SHIFT	16
3574	37947	He said police in Dallas were also in favor of fences.	He said police in Dallas were also in favor of fences.	1813225	1471973724614	1471973724703	H	72
3574	37947	He said police in Dallas were also in favor of fences.	He said police in Dallas were also in favor of fences.	1813228	1471973724958	1471973725052	e	69
3574	37947	He said police in Dallas were also in favor of fences.	He said police in Dallas were also in favor of fences.	1813233	1471973725229	1471973725332	 	32
3574	37947	He said police in Dallas were also in favor of fences.	He said police in Dallas were also in favor of fences.	1813239	1471973725508	1471973725612	s	83
3574	37947	He said police in Dallas were also in favor of fences.	He said police in Dallas were also in favor of fences.	1813243	1471973725710	1471973725838	a	65
3574	37947	He said police in Dallas were also in favor of fences.	He said police in Dallas were also in favor of fences.	1813260	1471973725842	1471973725898	i	73
3574	37947	He said police in Dallas were also in favor of fences.	He said police in Dallas were also in favor of fences.	1813261	1471973725999	1471973726079	d	68
3574	37947	He said police in Dallas were also in favor of fences.	He said police in Dallas were also in favor of fences.	1813263	1471973726136	1471973726222	 	32
3574	37947	He said police in Dallas were also in favor of fences.	He said police in Dallas were also in favor of fences.	1813267	1471973726385	1471973726468	p	80
3574	37947	He said police in Dallas were also in favor of fences.	He said police in Dallas were also in favor of fences.	1813272	1471973726545	1471973726611	o	79
3574	37947	He said police in Dallas were also in favor of fences.	He said police in Dallas were also in favor of fences.	1813322	1471973726726	1471973726787	l	76
3574	37947	He said police in Dallas were also in favor of fences.	He said police in Dallas were also in favor of fences.	1813324	1471973726885	1471973726951	i	73
3574	37947	He said police in Dallas were also in favor of fences.	He said police in Dallas were also in favor of fences.	1813326	1471973727066	1471973727202	v	86
3574	37947	He said police in Dallas were also in favor of fences.	He said police in Dallas were also in favor of fences.	1813330	1471973727234	1471973727332	e	69
3574	37947	He said police in Dallas were also in favor of fences.	He said police in Dallas were also in favor of fences.	1813333	1471973727546	1471973727607	BKSP	8
3574	37947	He said police in Dallas were also in favor of fences.	He said police in Dallas were also in favor of fences.	1813337	1471973727689	1471973727759	BKSP	8
3574	37947	He said police in Dallas were also in favor of fences.	He said police in Dallas were also in favor of fences.	1813343	1471973727833	1471973727919	c	67
3574	37947	He said police in Dallas were also in favor of fences.	He said police in Dallas were also in favor of fences.	1813376	1471973727964	1471973728050	e	69
3574	37947	He said police in Dallas were also in favor of fences.	He said police in Dallas were also in favor of fences.	1813381	1471973728099	1471973728177	 	32
3574	37947	He said police in Dallas were also in favor of fences.	He said police in Dallas were also in favor of fences.	1813385	1471973728371	1471973728437	i	73
3574	37947	He said police in Dallas were also in favor of fences.	He said police in Dallas were also in favor of fences.	1813393	1471973728535	1471973728600	n	78
3574	37947	He said police in Dallas were also in favor of fences.	He said police in Dallas were also in favor of fences.	1813400	1471973728641	1471973728723	 	32
3574	37947	He said police in Dallas were also in favor of fences.	He said police in Dallas were also in favor of fences.	1813426	1471973728862	1471973729016	SHIFT	16
3574	37947	He said police in Dallas were also in favor of fences.	He said police in Dallas were also in favor of fences.	1813429	1471973728963	1471973729075	D	68
3574	37947	He said police in Dallas were also in favor of fences.	He said police in Dallas were also in favor of fences.	1813433	1471973729125	1471973729236	a	65
3574	37947	He said police in Dallas were also in favor of fences.	He said police in Dallas were also in favor of fences.	1813436	1471973729301	1471973729366	l	76
3574	37947	He said police in Dallas were also in favor of fences.	He said police in Dallas were also in favor of fences.	1813438	1471973729456	1471973729526	l	76
3574	37947	He said police in Dallas were also in favor of fences.	He said police in Dallas were also in favor of fences.	1813445	1471973729607	1471973729719	a	65
3574	37947	He said police in Dallas were also in favor of fences.	He said police in Dallas were also in favor of fences.	1813475	1471973729784	1471973729882	s	83
3574	37947	He said police in Dallas were also in favor of fences.	He said police in Dallas were also in favor of fences.	1813477	1471973729947	1471973730025	 	32
3574	37947	He said police in Dallas were also in favor of fences.	He said police in Dallas were also in favor of fences.	1813478	1471973730140	1471973730248	w	87
3574	37947	He said police in Dallas were also in favor of fences.	He said police in Dallas were also in favor of fences.	1813480	1471973730199	1471973730428	e	69
3574	37947	He said police in Dallas were also in favor of fences.	He said police in Dallas were also in favor of fences.	1813481	1471973730575	1471973730696	r	82
3574	37947	He said police in Dallas were also in favor of fences.	He said police in Dallas were also in favor of fences.	1813534	1471973730700	1471973730781	e	69
3574	37947	He said police in Dallas were also in favor of fences.	He said police in Dallas were also in favor of fences.	1813537	1471973730892	1471973730986	 	32
3574	37947	He said police in Dallas were also in favor of fences.	He said police in Dallas were also in favor of fences.	1813540	1471973731208	1471973731311	a	65
3574	37947	He said police in Dallas were also in favor of fences.	He said police in Dallas were also in favor of fences.	1813542	1471973731327	1471973731413	l	76
3574	37947	He said police in Dallas were also in favor of fences.	He said police in Dallas were also in favor of fences.	1813547	1471973731457	1471973731561	s	83
3574	37947	He said police in Dallas were also in favor of fences.	He said police in Dallas were also in favor of fences.	1813571	1471973731610	1471973731679	o	79
3574	37947	He said police in Dallas were also in favor of fences.	He said police in Dallas were also in favor of fences.	1813574	1471973731806	1471973731876	 	32
3574	37947	He said police in Dallas were also in favor of fences.	He said police in Dallas were also in favor of fences.	1813576	1471973731990	1471973732052	i	73
3574	37947	He said police in Dallas were also in favor of fences.	He said police in Dallas were also in favor of fences.	1813578	1471973732150	1471973732195	n	78
3574	37947	He said police in Dallas were also in favor of fences.	He said police in Dallas were also in favor of fences.	1813581	1471973732269	1471973732347	 	32
3574	37947	He said police in Dallas were also in favor of fences.	He said police in Dallas were also in favor of fences.	1813630	1471973732461	1471973732543	f	70
3574	37947	He said police in Dallas were also in favor of fences.	He said police in Dallas were also in favor of fences.	1813632	1471973732839	1471973732937	a	65
3574	37947	He said police in Dallas were also in favor of fences.	He said police in Dallas were also in favor of fences.	1813635	1471973733019	1471973733134	v	86
3574	37947	He said police in Dallas were also in favor of fences.	He said police in Dallas were also in favor of fences.	1813640	1471973733191	1471973733260	o	79
3574	37947	He said police in Dallas were also in favor of fences.	He said police in Dallas were also in favor of fences.	1813645	1471973733618	1471973733687	r	82
3574	37947	He said police in Dallas were also in favor of fences.	He said police in Dallas were also in favor of fences.	1813711	1471973733802	1471973733884	 	32
3574	37947	He said police in Dallas were also in favor of fences.	He said police in Dallas were also in favor of fences.	1813714	1471973733975	1471973734044	o	79
3574	37947	He said police in Dallas were also in favor of fences.	He said police in Dallas were also in favor of fences.	1813718	1471973734134	1471973734203	f	70
3574	37947	He said police in Dallas were also in favor of fences.	He said police in Dallas were also in favor of fences.	1813722	1471973734227	1471973734305	 	32
3574	37947	He said police in Dallas were also in favor of fences.	He said police in Dallas were also in favor of fences.	1813726	1471973734683	1471973734778	f	70
3574	37947	He said police in Dallas were also in favor of fences.	He said police in Dallas were also in favor of fences.	1813766	1471973734859	1471973734945	e	69
3574	37947	He said police in Dallas were also in favor of fences.	He said police in Dallas were also in favor of fences.	1813771	1471973734990	1471973735060	n	78
3574	37947	He said police in Dallas were also in favor of fences.	He said police in Dallas were also in favor of fences.	1813775	1471973735191	1471973735325	c	67
3574	37947	He said police in Dallas were also in favor of fences.	He said police in Dallas were also in favor of fences.	1813779	1471973735318	1471973735418	e	69
3574	37947	He said police in Dallas were also in favor of fences.	He said police in Dallas were also in favor of fences.	1813785	1471973735566	1471973735652	s	83
3574	37947	He said police in Dallas were also in favor of fences.	He said police in Dallas were also in favor of fences.	1813850	1471973736556	1471973736676	.	190
3574	37964	We are working on this as we speak.	We are working on this as we speak.	1813982	1471973738448	1471973738597	SHIFT	16
3574	37964	We are working on this as we speak.	We are working on this as we speak.	1813985	1471973738516	1471973738628	W	87
3574	37964	We are working on this as we speak.	We are working on this as we speak.	1813987	1471973738801	1471973738903	e	69
3574	37964	We are working on this as we speak.	We are working on this as we speak.	1813989	1471973739162	1471973739256	 	32
3574	37964	We are working on this as we speak.	We are working on this as we speak.	1813991	1471973739363	1471973739474	a	65
3574	37964	We are working on this as we speak.	We are working on this as we speak.	1813996	1471973739502	1471973739630	r	82
3574	37964	We are working on this as we speak.	We are working on this as we speak.	1814033	1471973739602	1471973739699	e	69
3574	37964	We are working on this as we speak.	We are working on this as we speak.	1814037	1471973739760	1471973739854	 	32
3574	37964	We are working on this as we speak.	We are working on this as we speak.	1814042	1471973740101	1471973740171	w	87
3574	37964	We are working on this as we speak.	We are working on this as we speak.	1814045	1471973740203	1471973740290	o	79
3574	37964	We are working on this as we speak.	We are working on this as we speak.	1814050	1471973740322	1471973740400	r	82
3574	37964	We are working on this as we speak.	We are working on this as we speak.	1814054	1471973740478	1471973740543	k	75
3574	37964	We are working on this as we speak.	We are working on this as we speak.	1814088	1471973740634	1471973740695	i	73
3574	37964	We are working on this as we speak.	We are working on this as we speak.	1814092	1471973740794	1471973740863	n	78
3574	37964	We are working on this as we speak.	We are working on this as we speak.	1814095	1471973740895	1471973740987	g	71
3574	37964	We are working on this as we speak.	We are working on this as we speak.	1814101	1471973740992	1471973741064	 	32
3574	37964	We are working on this as we speak.	We are working on this as we speak.	1814104	1471973741171	1471973741220	o	79
3574	37964	We are working on this as we speak.	We are working on this as we speak.	1814128	1471973741302	1471973741363	n	78
3574	37964	We are working on this as we speak.	We are working on this as we speak.	1814130	1471973741445	1471973741514	 	32
3574	37964	We are working on this as we speak.	We are working on this as we speak.	1814134	1471973741555	1471973741625	t	84
3574	37964	We are working on this as we speak.	We are working on this as we speak.	1814140	1471973741657	1471973741710	h	72
3574	37964	We are working on this as we speak.	We are working on this as we speak.	1814145	1471973741804	1471973741874	i	73
3574	37964	We are working on this as we speak.	We are working on this as we speak.	1814203	1471973741923	1471973741992	s	83
3574	37964	We are working on this as we speak.	We are working on this as we speak.	1814206	1471973742053	1471973742131	 	32
3574	37964	We are working on this as we speak.	We are working on this as we speak.	1814208	1471973742345	1471973742465	a	65
3574	37964	We are working on this as we speak.	We are working on this as we speak.	1814209	1471973742470	1471973742564	s	83
3574	37964	We are working on this as we speak.	We are working on this as we speak.	1814211	1471973742612	1471973742703	 	32
3574	37964	We are working on this as we speak.	We are working on this as we speak.	1814290	1471973742809	1471973742913	w	87
3574	37964	We are working on this as we speak.	We are working on this as we speak.	1814292	1471973742876	1471973742997	e	69
3574	37964	We are working on this as we speak.	We are working on this as we speak.	1814294	1471973743092	1471973743173	 	32
3574	37964	We are working on this as we speak.	We are working on this as we speak.	1814297	1471973743383	1471973743495	s	83
3574	37964	We are working on this as we speak.	We are working on this as we speak.	1814300	1471973743840	1471973743909	p	80
3574	37964	We are working on this as we speak.	We are working on this as we speak.	1814330	1471973744040	1471973744143	e	69
3574	37964	We are working on this as we speak.	We are working on this as we speak.	1814332	1471973744200	1471973744336	a	65
3574	37964	We are working on this as we speak.	We are working on this as we speak.	1814334	1471973744508	1471973744578	k	75
3574	37964	We are working on this as we speak.	We are working on this as we speak.	1814337	1471973744738	1471973744804	.	190
3574	37975	Add a Star Trek convention and sports memorabilia show to the mix.	Add a Star Trek convention and sports memorabilia show to the mix.	1814498	1471973746563	1471973746795	SHIFT	16
3574	37975	Add a Star Trek convention and sports memorabilia show to the mix.	Add a Star Trek convention and sports memorabilia show to the mix.	1814500	1471973746679	1471973746805	A	65
3574	37975	Add a Star Trek convention and sports memorabilia show to the mix.	Add a Star Trek convention and sports memorabilia show to the mix.	1814504	1471973746945	1471973746999	d	68
3574	37975	Add a Star Trek convention and sports memorabilia show to the mix.	Add a Star Trek convention and sports memorabilia show to the mix.	1814510	1471973747105	1471973747166	d	68
3574	37975	Add a Star Trek convention and sports memorabilia show to the mix.	Add a Star Trek convention and sports memorabilia show to the mix.	1814517	1471973747211	1471973747293	 	32
3574	37975	Add a Star Trek convention and sports memorabilia show to the mix.	Add a Star Trek convention and sports memorabilia show to the mix.	1814523	1471973747370	1471973747485	a	65
3574	37975	Add a Star Trek convention and sports memorabilia show to the mix.	Add a Star Trek convention and sports memorabilia show to the mix.	1814619	1471973747592	1471973747645	 	32
3574	37975	Add a Star Trek convention and sports memorabilia show to the mix.	Add a Star Trek convention and sports memorabilia show to the mix.	1814623	1471973748247	1471973748437	SHIFT	16
3574	37975	Add a Star Trek convention and sports memorabilia show to the mix.	Add a Star Trek convention and sports memorabilia show to the mix.	1814627	1471973748322	1471973748448	S	83
3574	37975	Add a Star Trek convention and sports memorabilia show to the mix.	Add a Star Trek convention and sports memorabilia show to the mix.	1814635	1471973748636	1471973748722	t	84
3574	37975	Add a Star Trek convention and sports memorabilia show to the mix.	Add a Star Trek convention and sports memorabilia show to the mix.	1814641	1471973748821	1471973748950	a	65
3574	37975	Add a Star Trek convention and sports memorabilia show to the mix.	Add a Star Trek convention and sports memorabilia show to the mix.	1814652	1471973748955	1471973749047	r	82
3574	37975	Add a Star Trek convention and sports memorabilia show to the mix.	Add a Star Trek convention and sports memorabilia show to the mix.	1814732	1471973749125	1471973749224	 	32
3574	37975	Add a Star Trek convention and sports memorabilia show to the mix.	Add a Star Trek convention and sports memorabilia show to the mix.	1814733	1471973749368	1471973749539	SHIFT	16
3574	37975	Add a Star Trek convention and sports memorabilia show to the mix.	Add a Star Trek convention and sports memorabilia show to the mix.	1814734	1471973749465	1471973749549	T	84
3574	37975	Add a Star Trek convention and sports memorabilia show to the mix.	Add a Star Trek convention and sports memorabilia show to the mix.	1814736	1471973749656	1471973749767	r	82
3574	37975	Add a Star Trek convention and sports memorabilia show to the mix.	Add a Star Trek convention and sports memorabilia show to the mix.	1814739	1471973749772	1471973749860	e	69
3574	37975	Add a Star Trek convention and sports memorabilia show to the mix.	Add a Star Trek convention and sports memorabilia show to the mix.	1814743	1471973749959	1471973750078	a	65
3574	37975	Add a Star Trek convention and sports memorabilia show to the mix.	Add a Star Trek convention and sports memorabilia show to the mix.	1814804	1471973750366	1471973750432	BKSP	8
3574	37975	Add a Star Trek convention and sports memorabilia show to the mix.	Add a Star Trek convention and sports memorabilia show to the mix.	1814810	1471973750834	1471973750904	k	75
3574	37975	Add a Star Trek convention and sports memorabilia show to the mix.	Add a Star Trek convention and sports memorabilia show to the mix.	1814815	1471973750998	1471973751093	 	32
3574	37975	Add a Star Trek convention and sports memorabilia show to the mix.	Add a Star Trek convention and sports memorabilia show to the mix.	1814820	1471973751273	1471973751374	c	67
3574	37975	Add a Star Trek convention and sports memorabilia show to the mix.	Add a Star Trek convention and sports memorabilia show to the mix.	1814825	1471973751367	1471973751438	o	79
3574	37975	Add a Star Trek convention and sports memorabilia show to the mix.	Add a Star Trek convention and sports memorabilia show to the mix.	1814829	1471973751520	1471973751589	n	78
3574	37975	Add a Star Trek convention and sports memorabilia show to the mix.	Add a Star Trek convention and sports memorabilia show to the mix.	1814874	1471973751713	1471973751782	v	86
3574	37975	Add a Star Trek convention and sports memorabilia show to the mix.	Add a Star Trek convention and sports memorabilia show to the mix.	1814877	1471973751847	1471973751933	e	69
3574	37975	Add a Star Trek convention and sports memorabilia show to the mix.	Add a Star Trek convention and sports memorabilia show to the mix.	1814882	1471973751982	1471973752052	n	78
3574	37975	Add a Star Trek convention and sports memorabilia show to the mix.	Add a Star Trek convention and sports memorabilia show to the mix.	1814885	1471973752114	1471973752183	t	84
3574	37975	Add a Star Trek convention and sports memorabilia show to the mix.	Add a Star Trek convention and sports memorabilia show to the mix.	1814888	1471973752216	1471973752281	i	73
3574	37975	Add a Star Trek convention and sports memorabilia show to the mix.	Add a Star Trek convention and sports memorabilia show to the mix.	1814925	1471973752355	1471973752433	o	79
3574	37975	Add a Star Trek convention and sports memorabilia show to the mix.	Add a Star Trek convention and sports memorabilia show to the mix.	1814927	1471973752527	1471973752596	n	78
3574	37975	Add a Star Trek convention and sports memorabilia show to the mix.	Add a Star Trek convention and sports memorabilia show to the mix.	1814931	1471973752658	1471973752736	 	32
3574	37975	Add a Star Trek convention and sports memorabilia show to the mix.	Add a Star Trek convention and sports memorabilia show to the mix.	1814934	1471973752834	1471973752921	a	65
3574	37975	Add a Star Trek convention and sports memorabilia show to the mix.	Add a Star Trek convention and sports memorabilia show to the mix.	1814939	1471973752970	1471973753081	s	83
3574	37975	Add a Star Trek convention and sports memorabilia show to the mix.	Add a Star Trek convention and sports memorabilia show to the mix.	1815004	1471973753311	1471973753410	d	68
3574	37975	Add a Star Trek convention and sports memorabilia show to the mix.	Add a Star Trek convention and sports memorabilia show to the mix.	1815006	1471973753586	1471973753652	BKSP	8
3574	37975	Add a Star Trek convention and sports memorabilia show to the mix.	Add a Star Trek convention and sports memorabilia show to the mix.	1815009	1471973753726	1471973753796	BKSP	8
3574	37975	Add a Star Trek convention and sports memorabilia show to the mix.	Add a Star Trek convention and sports memorabilia show to the mix.	1815012	1471973753935	1471973754013	n	78
3574	37975	Add a Star Trek convention and sports memorabilia show to the mix.	Add a Star Trek convention and sports memorabilia show to the mix.	1815015	1471973754058	1471973754139	d	68
3574	37975	Add a Star Trek convention and sports memorabilia show to the mix.	Add a Star Trek convention and sports memorabilia show to the mix.	1815021	1471973754168	1471973754245	 	32
3574	37975	Add a Star Trek convention and sports memorabilia show to the mix.	Add a Star Trek convention and sports memorabilia show to the mix.	1815026	1471973754533	1471973754631	s	83
3574	37975	Add a Star Trek convention and sports memorabilia show to the mix.	Add a Star Trek convention and sports memorabilia show to the mix.	1815086	1471973754680	1471973754750	p	80
3574	37975	Add a Star Trek convention and sports memorabilia show to the mix.	Add a Star Trek convention and sports memorabilia show to the mix.	1815092	1471973754848	1471973754917	o	79
3574	37975	Add a Star Trek convention and sports memorabilia show to the mix.	Add a Star Trek convention and sports memorabilia show to the mix.	1815100	1471973755049	1471973755135	r	82
3574	37975	Add a Star Trek convention and sports memorabilia show to the mix.	Add a Star Trek convention and sports memorabilia show to the mix.	1815106	1471973755291	1471973755352	t	84
3574	37975	Add a Star Trek convention and sports memorabilia show to the mix.	Add a Star Trek convention and sports memorabilia show to the mix.	1815113	1471973755871	1471973755957	s	83
3574	37975	Add a Star Trek convention and sports memorabilia show to the mix.	Add a Star Trek convention and sports memorabilia show to the mix.	1815172	1471973756072	1471973756159	 	32
3574	37975	Add a Star Trek convention and sports memorabilia show to the mix.	Add a Star Trek convention and sports memorabilia show to the mix.	1815174	1471973756282	1471973756368	m	77
3574	37975	Add a Star Trek convention and sports memorabilia show to the mix.	Add a Star Trek convention and sports memorabilia show to the mix.	1815178	1471973756466	1471973756618	e	69
3574	37975	Add a Star Trek convention and sports memorabilia show to the mix.	Add a Star Trek convention and sports memorabilia show to the mix.	1815186	1471973756758	1471973756844	m	77
3574	37975	Add a Star Trek convention and sports memorabilia show to the mix.	Add a Star Trek convention and sports memorabilia show to the mix.	1815191	1471973756909	1471973756996	o	79
3574	37975	Add a Star Trek convention and sports memorabilia show to the mix.	Add a Star Trek convention and sports memorabilia show to the mix.	1815306	1471973757090	1471973757209	r	82
3574	37975	Add a Star Trek convention and sports memorabilia show to the mix.	Add a Star Trek convention and sports memorabilia show to the mix.	1815312	1471973757390	1471973757509	a	65
3574	37975	Add a Star Trek convention and sports memorabilia show to the mix.	Add a Star Trek convention and sports memorabilia show to the mix.	1815319	1471973757707	1471973757802	b	66
3574	37975	Add a Star Trek convention and sports memorabilia show to the mix.	Add a Star Trek convention and sports memorabilia show to the mix.	1815325	1471973758172	1471973758237	i	73
3574	37975	Add a Star Trek convention and sports memorabilia show to the mix.	Add a Star Trek convention and sports memorabilia show to the mix.	1815334	1471973758747	1471973758830	l	76
3574	37975	Add a Star Trek convention and sports memorabilia show to the mix.	Add a Star Trek convention and sports memorabilia show to the mix.	1815378	1471973758941	1471973759010	i	73
3574	37975	Add a Star Trek convention and sports memorabilia show to the mix.	Add a Star Trek convention and sports memorabilia show to the mix.	1815383	1471973759150	1471973759248	a	65
3574	37975	Add a Star Trek convention and sports memorabilia show to the mix.	Add a Star Trek convention and sports memorabilia show to the mix.	1815393	1471973759309	1471973759387	 	32
3574	37975	Add a Star Trek convention and sports memorabilia show to the mix.	Add a Star Trek convention and sports memorabilia show to the mix.	1815399	1471973759551	1471973759620	s	83
3574	37975	Add a Star Trek convention and sports memorabilia show to the mix.	Add a Star Trek convention and sports memorabilia show to the mix.	1815403	1471973759636	1471973759702	h	72
3574	37975	Add a Star Trek convention and sports memorabilia show to the mix.	Add a Star Trek convention and sports memorabilia show to the mix.	1815449	1471973759780	1471973759866	o	79
3574	37975	Add a Star Trek convention and sports memorabilia show to the mix.	Add a Star Trek convention and sports memorabilia show to the mix.	1815452	1471973759997	1471973760083	w	87
3574	37975	Add a Star Trek convention and sports memorabilia show to the mix.	Add a Star Trek convention and sports memorabilia show to the mix.	1815456	1471973760132	1471973760213	 	32
3574	37975	Add a Star Trek convention and sports memorabilia show to the mix.	Add a Star Trek convention and sports memorabilia show to the mix.	1815462	1471973760312	1471973760398	t	84
3574	37975	Add a Star Trek convention and sports memorabilia show to the mix.	Add a Star Trek convention and sports memorabilia show to the mix.	1815469	1471973760403	1471973760510	o	79
3574	37975	Add a Star Trek convention and sports memorabilia show to the mix.	Add a Star Trek convention and sports memorabilia show to the mix.	1815498	1471973760515	1471973760596	 	32
3574	37975	Add a Star Trek convention and sports memorabilia show to the mix.	Add a Star Trek convention and sports memorabilia show to the mix.	1815500	1471973760727	1471973760796	t	84
3574	37975	Add a Star Trek convention and sports memorabilia show to the mix.	Add a Star Trek convention and sports memorabilia show to the mix.	1815502	1471973760838	1471973760891	h	72
3574	37975	Add a Star Trek convention and sports memorabilia show to the mix.	Add a Star Trek convention and sports memorabilia show to the mix.	1815504	1471973760919	1471973761005	e	69
3574	37975	Add a Star Trek convention and sports memorabilia show to the mix.	Add a Star Trek convention and sports memorabilia show to the mix.	1815511	1471973761087	1471973761173	 	32
3574	37975	Add a Star Trek convention and sports memorabilia show to the mix.	Add a Star Trek convention and sports memorabilia show to the mix.	1815593	1471973761469	1471973761522	m	77
3574	37975	Add a Star Trek convention and sports memorabilia show to the mix.	Add a Star Trek convention and sports memorabilia show to the mix.	1815601	1471973761616	1471973761681	i	73
3574	37975	Add a Star Trek convention and sports memorabilia show to the mix.	Add a Star Trek convention and sports memorabilia show to the mix.	1815610	1471973762088	1471973762174	x	88
3574	37975	Add a Star Trek convention and sports memorabilia show to the mix.	Add a Star Trek convention and sports memorabilia show to the mix.	1815616	1471973762404	1471973762487	.	190
3574	37996	Rothenberg said the trend in Europe was away from fencing.	Rothenberg said the trend in Europe was away form fencing.	1815761	1471973764417	1471973764716	SHIFT	16
3574	37996	Rothenberg said the trend in Europe was away from fencing.	Rothenberg said the trend in Europe was away form fencing.	1815766	1471973764583	1471973764726	R	82
3574	37996	Rothenberg said the trend in Europe was away from fencing.	Rothenberg said the trend in Europe was away form fencing.	1815769	1471973765088	1471973765174	o	79
3574	37996	Rothenberg said the trend in Europe was away from fencing.	Rothenberg said the trend in Europe was away form fencing.	1815772	1471973765318	1471973765441	t	84
3574	37996	Rothenberg said the trend in Europe was away from fencing.	Rothenberg said the trend in Europe was away form fencing.	1815776	1471973765446	1471973765502	h	72
3574	37996	Rothenberg said the trend in Europe was away from fencing.	Rothenberg said the trend in Europe was away form fencing.	1815779	1471973765568	1471973765698	e	69
3574	37996	Rothenberg said the trend in Europe was away from fencing.	Rothenberg said the trend in Europe was away form fencing.	1815852	1471973765688	1471973765764	n	78
3574	37996	Rothenberg said the trend in Europe was away from fencing.	Rothenberg said the trend in Europe was away form fencing.	1815854	1471973765912	1471973765998	b	66
3574	37996	Rothenberg said the trend in Europe was away from fencing.	Rothenberg said the trend in Europe was away form fencing.	1815857	1471973766113	1471973766254	e	69
3574	37996	Rothenberg said the trend in Europe was away from fencing.	Rothenberg said the trend in Europe was away form fencing.	1815860	1471973766247	1471973766347	r	82
3574	37996	Rothenberg said the trend in Europe was away from fencing.	Rothenberg said the trend in Europe was away form fencing.	1815862	1471973766642	1471973766740	g	71
3574	37996	Rothenberg said the trend in Europe was away from fencing.	Rothenberg said the trend in Europe was away form fencing.	1815865	1471973766839	1471973766925	 	32
3574	37996	Rothenberg said the trend in Europe was away from fencing.	Rothenberg said the trend in Europe was away form fencing.	1815896	1471973767118	1471973767188	s	83
3574	37996	Rothenberg said the trend in Europe was away from fencing.	Rothenberg said the trend in Europe was away form fencing.	1815899	1471973767286	1471973767406	a	65
3574	37996	Rothenberg said the trend in Europe was away from fencing.	Rothenberg said the trend in Europe was away form fencing.	1815903	1471973767422	1471973767492	i	73
3574	37996	Rothenberg said the trend in Europe was away from fencing.	Rothenberg said the trend in Europe was away form fencing.	1815907	1471973767582	1471973767660	d	68
3574	37996	Rothenberg said the trend in Europe was away from fencing.	Rothenberg said the trend in Europe was away form fencing.	1815909	1471973767717	1471973767796	 	32
3574	37996	Rothenberg said the trend in Europe was away from fencing.	Rothenberg said the trend in Europe was away form fencing.	1815943	1471973767852	1471973767917	t	84
3574	37996	Rothenberg said the trend in Europe was away from fencing.	Rothenberg said the trend in Europe was away form fencing.	1815952	1471973767958	1471973768019	h	72
3574	37996	Rothenberg said the trend in Europe was away from fencing.	Rothenberg said the trend in Europe was away form fencing.	1815958	1471973768052	1471973768134	e	69
3574	37996	Rothenberg said the trend in Europe was away from fencing.	Rothenberg said the trend in Europe was away form fencing.	1815964	1471973768183	1471973768269	 	32
3574	37996	Rothenberg said the trend in Europe was away from fencing.	Rothenberg said the trend in Europe was away form fencing.	1815973	1471973768449	1471973768535	t	84
3574	37996	Rothenberg said the trend in Europe was away from fencing.	Rothenberg said the trend in Europe was away form fencing.	1816027	1471973768650	1471973768752	r	82
3574	37996	Rothenberg said the trend in Europe was away from fencing.	Rothenberg said the trend in Europe was away form fencing.	1816029	1471973768776	1471973768879	e	69
3574	37996	Rothenberg said the trend in Europe was away from fencing.	Rothenberg said the trend in Europe was away form fencing.	1816030	1471973769531	1471973769609	n	78
3574	37996	Rothenberg said the trend in Europe was away from fencing.	Rothenberg said the trend in Europe was away form fencing.	1816031	1471973769666	1471973769766	d	68
3574	37996	Rothenberg said the trend in Europe was away from fencing.	Rothenberg said the trend in Europe was away form fencing.	1816033	1471973769827	1471973769896	 	32
3574	37996	Rothenberg said the trend in Europe was away from fencing.	Rothenberg said the trend in Europe was away form fencing.	1816116	1471973770060	1471973770113	i	73
3574	37996	Rothenberg said the trend in Europe was away from fencing.	Rothenberg said the trend in Europe was away form fencing.	1816121	1471973770224	1471973770293	n	78
3574	37996	Rothenberg said the trend in Europe was away from fencing.	Rothenberg said the trend in Europe was away form fencing.	1816126	1471973770343	1471973770438	 	32
3574	37996	Rothenberg said the trend in Europe was away from fencing.	Rothenberg said the trend in Europe was away form fencing.	1816130	1471973770548	1471973770756	SHIFT	16
3574	37996	Rothenberg said the trend in Europe was away from fencing.	Rothenberg said the trend in Europe was away form fencing.	1816136	1471973770660	1471973770766	E	69
3574	37996	Rothenberg said the trend in Europe was away from fencing.	Rothenberg said the trend in Europe was away form fencing.	1816141	1471973770951	1471973771020	u	85
3574	37996	Rothenberg said the trend in Europe was away from fencing.	Rothenberg said the trend in Europe was away form fencing.	1816242	1471973771291	1471973771328	p	80
3574	37996	Rothenberg said the trend in Europe was away from fencing.	Rothenberg said the trend in Europe was away form fencing.	1816247	1471973771582	1471973771648	BKSP	8
3574	37996	Rothenberg said the trend in Europe was away from fencing.	Rothenberg said the trend in Europe was away form fencing.	1816260	1471973771725	1471973771803	r	82
3574	37996	Rothenberg said the trend in Europe was away from fencing.	Rothenberg said the trend in Europe was away form fencing.	1816272	1471973771879	1471973771925	o	73
3574	37996	Rothenberg said the trend in Europe was away from fencing.	Rothenberg said the trend in Europe was away form fencing.	1816279	1471973772417	1471973772478	BKSP	8
3574	37996	Rothenberg said the trend in Europe was away from fencing.	Rothenberg said the trend in Europe was away form fencing.	1816286	1471973772556	1471973772618	BKSP	8
3574	37996	Rothenberg said the trend in Europe was away from fencing.	Rothenberg said the trend in Europe was away form fencing.	1816292	1471973773053	1471973773119	o	79
3574	37996	Rothenberg said the trend in Europe was away from fencing.	Rothenberg said the trend in Europe was away form fencing.	1816363	1471973773217	1471973773299	p	80
3574	37996	Rothenberg said the trend in Europe was away from fencing.	Rothenberg said the trend in Europe was away form fencing.	1816366	1471973773364	1471973773484	r	82
3574	37996	Rothenberg said the trend in Europe was away from fencing.	Rothenberg said the trend in Europe was away form fencing.	1816369	1471973773500	1471973773585	 	32
3574	37996	Rothenberg said the trend in Europe was away from fencing.	Rothenberg said the trend in Europe was away form fencing.	1816373	1471973774025	1471973774087	BKSP	8
3574	37996	Rothenberg said the trend in Europe was away from fencing.	Rothenberg said the trend in Europe was away form fencing.	1816380	1471973774153	1471973774234	BKSP	8
3574	37996	Rothenberg said the trend in Europe was away from fencing.	Rothenberg said the trend in Europe was away form fencing.	1816385	1471973774423	1471973774526	e	69
3574	37996	Rothenberg said the trend in Europe was away from fencing.	Rothenberg said the trend in Europe was away form fencing.	1816393	1471973774719	1471973774805	 	32
3574	37996	Rothenberg said the trend in Europe was away from fencing.	Rothenberg said the trend in Europe was away form fencing.	1816418	1471973775060	1471973775147	w	87
3574	37996	Rothenberg said the trend in Europe was away from fencing.	Rothenberg said the trend in Europe was away form fencing.	1816420	1471973775262	1471973775361	a	65
3574	37996	Rothenberg said the trend in Europe was away from fencing.	Rothenberg said the trend in Europe was away form fencing.	1816423	1471973775312	1471973775429	s	83
3574	37996	Rothenberg said the trend in Europe was away from fencing.	Rothenberg said the trend in Europe was away form fencing.	1816426	1471973775487	1471973775572	 	32
3574	37996	Rothenberg said the trend in Europe was away from fencing.	Rothenberg said the trend in Europe was away form fencing.	1816432	1471973775728	1471973775848	a	65
3574	37996	Rothenberg said the trend in Europe was away from fencing.	Rothenberg said the trend in Europe was away form fencing.	1816505	1471973776069	1471973776155	w	87
3574	37996	Rothenberg said the trend in Europe was away from fencing.	Rothenberg said the trend in Europe was away form fencing.	1816509	1471973776254	1471973776373	a	65
3574	37996	Rothenberg said the trend in Europe was away from fencing.	Rothenberg said the trend in Europe was away form fencing.	1816513	1471973776401	1471973776471	y	89
3574	37996	Rothenberg said the trend in Europe was away from fencing.	Rothenberg said the trend in Europe was away form fencing.	1816517	1471973776611	1471973776709	 	32
3574	37996	Rothenberg said the trend in Europe was away from fencing.	Rothenberg said the trend in Europe was away form fencing.	1816520	1471973776824	1471973776910	f	70
3574	37996	Rothenberg said the trend in Europe was away from fencing.	Rothenberg said the trend in Europe was away form fencing.	1816562	1471973776934	1471973777012	o	79
3574	37996	Rothenberg said the trend in Europe was away from fencing.	Rothenberg said the trend in Europe was away form fencing.	1816569	1471973777045	1471973777106	r	82
3574	37996	Rothenberg said the trend in Europe was away from fencing.	Rothenberg said the trend in Europe was away form fencing.	1816575	1471973777155	1471973777233	m	77
3574	37996	Rothenberg said the trend in Europe was away from fencing.	Rothenberg said the trend in Europe was away form fencing.	1816582	1471973777323	1471973777409	 	32
3574	37996	Rothenberg said the trend in Europe was away from fencing.	Rothenberg said the trend in Europe was away form fencing.	1816590	1471973777598	1471973777676	f	70
3574	37996	Rothenberg said the trend in Europe was away from fencing.	Rothenberg said the trend in Europe was away form fencing.	1816631	1471973777753	1471973777839	e	69
3574	37996	Rothenberg said the trend in Europe was away from fencing.	Rothenberg said the trend in Europe was away form fencing.	1816637	1471973777880	1471973777966	n	78
3574	37996	Rothenberg said the trend in Europe was away from fencing.	Rothenberg said the trend in Europe was away form fencing.	1816642	1471973778031	1471973778168	c	67
3574	37996	Rothenberg said the trend in Europe was away from fencing.	Rothenberg said the trend in Europe was away form fencing.	1816649	1471973778161	1471973778216	i	73
3574	37996	Rothenberg said the trend in Europe was away from fencing.	Rothenberg said the trend in Europe was away form fencing.	1816653	1471973778322	1471973778392	n	78
3574	37996	Rothenberg said the trend in Europe was away from fencing.	Rothenberg said the trend in Europe was away form fencing.	1816680	1471973778441	1471973778522	g	71
3574	37996	Rothenberg said the trend in Europe was away from fencing.	Rothenberg said the trend in Europe was away form fencing.	1816684	1471973778744	1471973778822	.	190
3574	38016	I thought you were on 6.	I thought you were on 6.	1816811	1471973780651	1471973780792	SHIFT	16
3574	38016	I thought you were on 6.	I thought you were on 6.	1816813	1471973780730	1471973780803	I	73
3574	38016	I thought you were on 6.	I thought you were on 6.	1816817	1471973780906	1471973780992	 	32
3574	38016	I thought you were on 6.	I thought you were on 6.	1816820	1471973781106	1471973781185	t	84
3574	38016	I thought you were on 6.	I thought you were on 6.	1816825	1471973781190	1471973781246	h	72
3574	38016	I thought you were on 6.	I thought you were on 6.	1816829	1471973781306	1471973781440	o	79
3574	38016	I thought you were on 6.	I thought you were on 6.	1816885	1471973781408	1471973781484	u	85
3574	38016	I thought you were on 6.	I thought you were on 6.	1816889	1471973781582	1471973781668	g	71
3574	38016	I thought you were on 6.	I thought you were on 6.	1816896	1471973781717	1471973781782	h	72
3574	38016	I thought you were on 6.	I thought you were on 6.	1816902	1471973781831	1471973781910	t	84
3574	38016	I thought you were on 6.	I thought you were on 6.	1816910	1471973781942	1471973782020	 	32
3574	38016	I thought you were on 6.	I thought you were on 6.	1816912	1471973782531	1471973782592	y	89
3574	38016	I thought you were on 6.	I thought you were on 6.	1816931	1471973782658	1471973782773	o	79
3574	38016	I thought you were on 6.	I thought you were on 6.	1816934	1471973782724	1471973782850	u	85
3574	38016	I thought you were on 6.	I thought you were on 6.	1816937	1471973782830	1471973782919	 	32
3574	38016	I thought you were on 6.	I thought you were on 6.	1816941	1471973783079	1471973783208	w	87
3574	38016	I thought you were on 6.	I thought you were on 6.	1817048	1471973783163	1471973783491	e	69
3574	38016	I thought you were on 6.	I thought you were on 6.	1817055	1471973783701	1471973783867	r	82
3574	38016	I thought you were on 6.	I thought you were on 6.	1817060	1471973783872	1471973784010	e	69
3574	38016	I thought you were on 6.	I thought you were on 6.	1817064	1471973784026	1471973784063	r	82
3574	38016	I thought you were on 6.	I thought you were on 6.	1817068	1471973784326	1471973784412	 	32
3574	38016	I thought you were on 6.	I thought you were on 6.	1817071	1471973784774	1471973784844	BKSP	8
3574	38016	I thought you were on 6.	I thought you were on 6.	1817073	1471973784926	1471973784995	BKSP	8
3574	38016	I thought you were on 6.	I thought you were on 6.	1817075	1471973785073	1471973785126	BKSP	8
3574	38016	I thought you were on 6.	I thought you were on 6.	1817076	1471973785299	1471973785385	 	32
3574	38016	I thought you were on 6.	I thought you were on 6.	1817135	1471973785859	1471973785928	BKSP	8
3574	38016	I thought you were on 6.	I thought you were on 6.	1817140	1471973786055	1471973786141	e	69
3574	38016	I thought you were on 6.	I thought you were on 6.	1817146	1471973786198	1471973786276	 	32
3574	38016	I thought you were on 6.	I thought you were on 6.	1817152	1471973786506	1471973786576	o	79
3574	38016	I thought you were on 6.	I thought you were on 6.	1817155	1471973786650	1471973786719	n	78
3574	38016	I thought you were on 6.	I thought you were on 6.	1817158	1471973786764	1471973786867	 	32
3574	38016	I thought you were on 6.	I thought you were on 6.	1817231	1471973787837	1471973787890	6	102
3574	38016	I thought you were on 6.	I thought you were on 6.	1817234	1471973788083	1471973788148	.	110
3574	38034	Rookie Kevin Swayne will move into the starting lineup.	Rookie Kevin Swayne will move into the starting lineup.	1817400	1471973790325	1471973790504	SHIFT	16
3574	38034	Rookie Kevin Swayne will move into the starting lineup.	Rookie Kevin Swayne will move into the starting lineup.	1817404	1471973790400	1471973790534	R	82
3574	38034	Rookie Kevin Swayne will move into the starting lineup.	Rookie Kevin Swayne will move into the starting lineup.	1817407	1471973790699	1471973790768	o	79
3574	38034	Rookie Kevin Swayne will move into the starting lineup.	Rookie Kevin Swayne will move into the starting lineup.	1817410	1471973790867	1471973790932	o	79
3574	38034	Rookie Kevin Swayne will move into the starting lineup.	Rookie Kevin Swayne will move into the starting lineup.	1817414	1471973791146	1471973791215	k	75
3574	38034	Rookie Kevin Swayne will move into the starting lineup.	Rookie Kevin Swayne will move into the starting lineup.	1817418	1471973791330	1471973791383	i	73
3574	38034	Rookie Kevin Swayne will move into the starting lineup.	Rookie Kevin Swayne will move into the starting lineup.	1817470	1471973791474	1471973791568	e	69
3574	38034	Rookie Kevin Swayne will move into the starting lineup.	Rookie Kevin Swayne will move into the starting lineup.	1817473	1471973791612	1471973791690	 	32
3574	38034	Rookie Kevin Swayne will move into the starting lineup.	Rookie Kevin Swayne will move into the starting lineup.	1817478	1471973792117	1471973792229	SHIFT	16
3574	38034	Rookie Kevin Swayne will move into the starting lineup.	Rookie Kevin Swayne will move into the starting lineup.	1817483	1471973792180	1471973792260	K	75
3574	38034	Rookie Kevin Swayne will move into the starting lineup.	Rookie Kevin Swayne will move into the starting lineup.	1817487	1471973792342	1471973792428	e	69
3574	38034	Rookie Kevin Swayne will move into the starting lineup.	Rookie Kevin Swayne will move into the starting lineup.	1817491	1471973792575	1471973792677	v	86
3574	38034	Rookie Kevin Swayne will move into the starting lineup.	Rookie Kevin Swayne will move into the starting lineup.	1817546	1471973792718	1471973792783	i	73
3574	38034	Rookie Kevin Swayne will move into the starting lineup.	Rookie Kevin Swayne will move into the starting lineup.	1817549	1471973792906	1471973792976	n	78
3574	38034	Rookie Kevin Swayne will move into the starting lineup.	Rookie Kevin Swayne will move into the starting lineup.	1817551	1471973793050	1471973793136	 	32
3574	38034	Rookie Kevin Swayne will move into the starting lineup.	Rookie Kevin Swayne will move into the starting lineup.	1817553	1471973793275	1471973793486	SHIFT	16
3574	38034	Rookie Kevin Swayne will move into the starting lineup.	Rookie Kevin Swayne will move into the starting lineup.	1817555	1471973793370	1471973793496	S	83
3574	38034	Rookie Kevin Swayne will move into the starting lineup.	Rookie Kevin Swayne will move into the starting lineup.	1817557	1471973793652	1471973793750	w	87
3574	38034	Rookie Kevin Swayne will move into the starting lineup.	Rookie Kevin Swayne will move into the starting lineup.	1817599	1471973793865	1471973793968	a	65
3574	38034	Rookie Kevin Swayne will move into the starting lineup.	Rookie Kevin Swayne will move into the starting lineup.	1817602	1471973794099	1471973794165	y	89
3574	38034	Rookie Kevin Swayne will move into the starting lineup.	Rookie Kevin Swayne will move into the starting lineup.	1817606	1471973794337	1471973794437	n	78
3574	38034	Rookie Kevin Swayne will move into the starting lineup.	Rookie Kevin Swayne will move into the starting lineup.	1817614	1471973794442	1471973794506	e	69
3574	38034	Rookie Kevin Swayne will move into the starting lineup.	Rookie Kevin Swayne will move into the starting lineup.	1817617	1471973794555	1471973794641	 	32
3574	38034	Rookie Kevin Swayne will move into the starting lineup.	Rookie Kevin Swayne will move into the starting lineup.	1817678	1471973794854	1471973794954	w	87
3574	38034	Rookie Kevin Swayne will move into the starting lineup.	Rookie Kevin Swayne will move into the starting lineup.	1817681	1471973794986	1471973795040	i	73
3574	38034	Rookie Kevin Swayne will move into the starting lineup.	Rookie Kevin Swayne will move into the starting lineup.	1817687	1471973795154	1471973795215	l	76
3574	38034	Rookie Kevin Swayne will move into the starting lineup.	Rookie Kevin Swayne will move into the starting lineup.	1817690	1471973795297	1471973795374	l	76
3574	38034	Rookie Kevin Swayne will move into the starting lineup.	Rookie Kevin Swayne will move into the starting lineup.	1817697	1471973795465	1471973795550	 	32
3574	38034	Rookie Kevin Swayne will move into the starting lineup.	Rookie Kevin Swayne will move into the starting lineup.	1817729	1471973795694	1471973795764	m	77
3574	38034	Rookie Kevin Swayne will move into the starting lineup.	Rookie Kevin Swayne will move into the starting lineup.	1817733	1471973795845	1471973795927	o	79
3574	38034	Rookie Kevin Swayne will move into the starting lineup.	Rookie Kevin Swayne will move into the starting lineup.	1817739	1471973795968	1471973796038	v	86
3574	38034	Rookie Kevin Swayne will move into the starting lineup.	Rookie Kevin Swayne will move into the starting lineup.	1817742	1471973796099	1471973796177	e	69
3574	38034	Rookie Kevin Swayne will move into the starting lineup.	Rookie Kevin Swayne will move into the starting lineup.	1817744	1471973796235	1471973796329	 	32
3574	38034	Rookie Kevin Swayne will move into the starting lineup.	Rookie Kevin Swayne will move into the starting lineup.	1817791	1471973796394	1471973796463	i	73
3574	38034	Rookie Kevin Swayne will move into the starting lineup.	Rookie Kevin Swayne will move into the starting lineup.	1817793	1471973796541	1471973796623	n	78
3574	38034	Rookie Kevin Swayne will move into the starting lineup.	Rookie Kevin Swayne will move into the starting lineup.	1817798	1471973796688	1471973796766	t	84
3574	38034	Rookie Kevin Swayne will move into the starting lineup.	Rookie Kevin Swayne will move into the starting lineup.	1817803	1471973796799	1471973796868	o	79
3574	38034	Rookie Kevin Swayne will move into the starting lineup.	Rookie Kevin Swayne will move into the starting lineup.	1817807	1471973797164	1471973797250	 	32
3574	38034	Rookie Kevin Swayne will move into the starting lineup.	Rookie Kevin Swayne will move into the starting lineup.	1817882	1471973797299	1471973797385	t	84
3574	38034	Rookie Kevin Swayne will move into the starting lineup.	Rookie Kevin Swayne will move into the starting lineup.	1817885	1471973797409	1471973797488	h	72
3574	38034	Rookie Kevin Swayne will move into the starting lineup.	Rookie Kevin Swayne will move into the starting lineup.	1817887	1471973797493	1471973797590	e	69
3574	38034	Rookie Kevin Swayne will move into the starting lineup.	Rookie Kevin Swayne will move into the starting lineup.	1817890	1471973797985	1471973798071	 	32
3574	38034	Rookie Kevin Swayne will move into the starting lineup.	Rookie Kevin Swayne will move into the starting lineup.	1817895	1471973798432	1471973798551	s	83
3574	38034	Rookie Kevin Swayne will move into the starting lineup.	Rookie Kevin Swayne will move into the starting lineup.	1817926	1471973798642	1471973798740	t	84
3574	38034	Rookie Kevin Swayne will move into the starting lineup.	Rookie Kevin Swayne will move into the starting lineup.	1817934	1471973798954	1471973799082	a	65
3574	38034	Rookie Kevin Swayne will move into the starting lineup.	Rookie Kevin Swayne will move into the starting lineup.	1817942	1471973799087	1471973799180	r	82
3574	38034	Rookie Kevin Swayne will move into the starting lineup.	Rookie Kevin Swayne will move into the starting lineup.	1817952	1471973799336	1471973799422	t	84
3574	38034	Rookie Kevin Swayne will move into the starting lineup.	Rookie Kevin Swayne will move into the starting lineup.	1817963	1471973799471	1471973799540	i	73
3574	38034	Rookie Kevin Swayne will move into the starting lineup.	Rookie Kevin Swayne will move into the starting lineup.	1817999	1471973799651	1471973799728	n	78
3574	38034	Rookie Kevin Swayne will move into the starting lineup.	Rookie Kevin Swayne will move into the starting lineup.	1818001	1471973799778	1471973799864	g	71
3574	38034	Rookie Kevin Swayne will move into the starting lineup.	Rookie Kevin Swayne will move into the starting lineup.	1818003	1471973799908	1471973799979	 	32
3574	38034	Rookie Kevin Swayne will move into the starting lineup.	Rookie Kevin Swayne will move into the starting lineup.	1818007	1471973800241	1471973800327	l	76
3574	38034	Rookie Kevin Swayne will move into the starting lineup.	Rookie Kevin Swayne will move into the starting lineup.	1818012	1471973800388	1471973800442	i	73
3574	38034	Rookie Kevin Swayne will move into the starting lineup.	Rookie Kevin Swayne will move into the starting lineup.	1818057	1471973800573	1471973800643	n	78
3574	38034	Rookie Kevin Swayne will move into the starting lineup.	Rookie Kevin Swayne will move into the starting lineup.	1818061	1471973800774	1471973800856	e	69
3574	38034	Rookie Kevin Swayne will move into the starting lineup.	Rookie Kevin Swayne will move into the starting lineup.	1818069	1471973801168	1471973801237	u	85
3574	38034	Rookie Kevin Swayne will move into the starting lineup.	Rookie Kevin Swayne will move into the starting lineup.	1818076	1471973801319	1471973801398	p	80
3574	38034	Rookie Kevin Swayne will move into the starting lineup.	Rookie Kevin Swayne will move into the starting lineup.	1818082	1471973801590	1471973801660	.	190
3574	38047	I thought you left to go get breakfast.	I thought you left to got get breakfast.	1818227	1471973803415	1471973803531	SHIFT	16
3574	38047	I thought you left to go get breakfast.	I thought you left to got get breakfast.	1818230	1471973803498	1471973803574	I	73
3574	38047	I thought you left to go get breakfast.	I thought you left to got get breakfast.	1818232	1471973803681	1471973803779	 	32
3574	38047	I thought you left to go get breakfast.	I thought you left to got get breakfast.	1818233	1471973803894	1471973803980	t	84
3574	38047	I thought you left to go get breakfast.	I thought you left to got get breakfast.	1818234	1471973804004	1471973804074	h	72
3574	38047	I thought you left to go get breakfast.	I thought you left to got get breakfast.	1818237	1471973804139	1471973804280	o	79
3574	38047	I thought you left to go get breakfast.	I thought you left to got get breakfast.	1818306	1471973804231	1471973804323	u	85
3574	38047	I thought you left to go get breakfast.	I thought you left to got get breakfast.	1818309	1471973804388	1471973804474	g	71
3574	38047	I thought you left to go get breakfast.	I thought you left to got get breakfast.	1818314	1471973804551	1471973804605	h	72
3574	38047	I thought you left to go get breakfast.	I thought you left to got get breakfast.	1818317	1471973804629	1471973804712	t	84
3574	38047	I thought you left to go get breakfast.	I thought you left to got get breakfast.	1818322	1471973804777	1471973804854	 	32
3574	38047	I thought you left to go get breakfast.	I thought you left to got get breakfast.	1818326	1471973805192	1471973805245	y	89
3574	38047	I thought you left to go get breakfast.	I thought you left to got get breakfast.	1818356	1471973805310	1471973805430	o	79
3574	38047	I thought you left to go get breakfast.	I thought you left to got get breakfast.	1818358	1471973805385	1471973805494	u	85
3574	38047	I thought you left to go get breakfast.	I thought you left to got get breakfast.	1818361	1471973805474	1471973805575	 	32
3574	38047	I thought you left to go get breakfast.	I thought you left to got get breakfast.	1818364	1471973805755	1471973805841	l	76
3574	38047	I thought you left to go get breakfast.	I thought you left to got get breakfast.	1818366	1471973805890	1471973805976	e	69
3574	38047	I thought you left to go get breakfast.	I thought you left to got get breakfast.	1818390	1471973806075	1471973806161	f	70
3574	38047	I thought you left to go get breakfast.	I thought you left to got get breakfast.	1818392	1471973806276	1471973806342	t	84
3574	38047	I thought you left to go get breakfast.	I thought you left to got get breakfast.	1818395	1471973806403	1471973806484	 	32
3574	38047	I thought you left to go get breakfast.	I thought you left to got get breakfast.	1818397	1471973806665	1471973806752	o	84
3574	38047	I thought you left to go get breakfast.	I thought you left to got get breakfast.	1818430	1471973806809	1471973806909	 	32
3574	38047	I thought you left to go get breakfast.	I thought you left to got get breakfast.	1818431	1471973807057	1471973807155	g	71
3574	38047	I thought you left to go get breakfast.	I thought you left to got get breakfast.	1818432	1471973807183	1471973807322	o	79
3574	38047	I thought you left to go get breakfast.	I thought you left to got get breakfast.	1818433	1471973807315	1471973807379	 	84
3574	38047	I thought you left to go get breakfast.	I thought you left to got get breakfast.	1818518	1471973808081	1471973808168	g	71
3574	38047	I thought you left to go get breakfast.	I thought you left to got get breakfast.	1818523	1471973808258	1471973808377	e	69
3574	38047	I thought you left to go get breakfast.	I thought you left to got get breakfast.	1818529	1471973808417	1471973808504	t	84
3574	38047	I thought you left to go get breakfast.	I thought you left to got get breakfast.	1818533	1471973808570	1471973808664	 	32
3574	38047	I thought you left to go get breakfast.	I thought you left to got get breakfast.	1818535	1471973808988	1471973809075	b	66
3574	38047	I thought you left to go get breakfast.	I thought you left to got get breakfast.	1818631	1471973809223	1471973809351	r	82
3574	38047	I thought you left to go get breakfast.	I thought you left to got get breakfast.	1818633	1471973809323	1471973809481	e	69
3574	38047	I thought you left to go get breakfast.	I thought you left to got get breakfast.	1818635	1471973809565	1471973809644	q	65
3574	38047	I thought you left to go get breakfast.	I thought you left to got get breakfast.	1818638	1471973810152	1471973810230	BKSP	8
3574	38047	I thought you left to go get breakfast.	I thought you left to got get breakfast.	1818641	1471973810687	1471973810765	k	75
3574	38047	I thought you left to go get breakfast.	I thought you left to got get breakfast.	1818688	1471973810946	1471973811032	f	70
3574	38047	I thought you left to go get breakfast.	I thought you left to got get breakfast.	1818689	1471973811109	1471973811240	a	65
3574	38047	I thought you left to go get breakfast.	I thought you left to got get breakfast.	1818690	1471973811322	1471973811465	s	83
3574	38047	I thought you left to go get breakfast.	I thought you left to got get breakfast.	1818691	1471973811506	1471973811600	e	69
3574	38047	I thought you left to go get breakfast.	I thought you left to got get breakfast.	1818692	1471973811723	1471973811822	.	190
3574	38047	I thought you left to go get breakfast.	I thought you left to got get breakfast.	1818759	1471973812142	1471973812204	BKSP	8
3574	38047	I thought you left to go get breakfast.	I thought you left to got get breakfast.	1818760	1471973812278	1471973812360	BKSP	8
3574	38047	I thought you left to go get breakfast.	I thought you left to got get breakfast.	1818762	1471973812474	1471973812561	t	84
3574	38047	I thought you left to go get breakfast.	I thought you left to got get breakfast.	1818765	1471973812656	1471973812754	.	190
