PARTICIPANT_ID	TEST_SECTION_ID	SENTENCE	USER_INPUT	KEYSTROKE_ID	PRESS_TIME	RELEASE_TIME	LETTER	KEYCODE
3627	38347	Can you get with Mary and make sure?	Can you get with Mary and make sure?	1832528	1472031700242	1472031700624	SHIFT	16
3627	38347	Can you get with Mary and make sure?	Can you get with Mary and make sure?	1832526	1472031700492	1472031700608	C	67
3627	38347	Can you get with Mary and make sure?	Can you get with Mary and make sure?	1832531	1472031700733	1472031700855	a	65
3627	38347	Can you get with Mary and make sure?	Can you get with Mary and make sure?	1832534	1472031700886	1472031700990	n	78
3627	38347	Can you get with Mary and make sure?	Can you get with Mary and make sure?	1832536	1472031701037	1472031701170	 	32
3627	38347	Can you get with Mary and make sure?	Can you get with Mary and make sure?	1832538	1472031701264	1472031701340	y	89
3627	38347	Can you get with Mary and make sure?	Can you get with Mary and make sure?	1832582	1472031701403	1472031701521	o	79
3627	38347	Can you get with Mary and make sure?	Can you get with Mary and make sure?	1832587	1472031701599	1472031701690	u	85
3627	38347	Can you get with Mary and make sure?	Can you get with Mary and make sure?	1832592	1472031701815	1472031701937	 	32
3627	38347	Can you get with Mary and make sure?	Can you get with Mary and make sure?	1832597	1472031701968	1472031702056	g	71
3627	38347	Can you get with Mary and make sure?	Can you get with Mary and make sure?	1832602	1472031702087	1472031702307	e	69
3627	38347	Can you get with Mary and make sure?	Can you get with Mary and make sure?	1832676	1472031702250	1472031702371	t	84
3627	38347	Can you get with Mary and make sure?	Can you get with Mary and make sure?	1832680	1472031702449	1472031702553	 	32
3627	38347	Can you get with Mary and make sure?	Can you get with Mary and make sure?	1832689	1472031702680	1472031702919	SHIFT	16
3627	38347	Can you get with Mary and make sure?	Can you get with Mary and make sure?	1832684	1472031702758	1472031702857	M	77
3627	38347	Can you get with Mary and make sure?	Can you get with Mary and make sure?	1832693	1472031703294	1472031703417	a	65
3627	38347	Can you get with Mary and make sure?	Can you get with Mary and make sure?	1832697	1472031703511	1472031703619	r	82
3627	38347	Can you get with Mary and make sure?	Can you get with Mary and make sure?	1832702	1472031703729	1472031703820	y	89
3627	38347	Can you get with Mary and make sure?	Can you get with Mary and make sure?	1832718	1472031703978	1472031704086	 	32
3627	38347	Can you get with Mary and make sure?	Can you get with Mary and make sure?	1832721	1472031704133	1472031704262	a	65
3627	38347	Can you get with Mary and make sure?	Can you get with Mary and make sure?	1832726	1472031704236	1472031704335	n	78
3627	38347	Can you get with Mary and make sure?	Can you get with Mary and make sure?	1832728	1472031704366	1472031704473	d	68
3627	38347	Can you get with Mary and make sure?	Can you get with Mary and make sure?	1832785	1472031704438	1472031704558	 	32
3627	38347	Can you get with Mary and make sure?	Can you get with Mary and make sure?	1832787	1472031704519	1472031704649	m	77
3627	38347	Can you get with Mary and make sure?	Can you get with Mary and make sure?	1832790	1472031704618	1472031704733	a	65
3627	38347	Can you get with Mary and make sure?	Can you get with Mary and make sure?	1832793	1472031705061	1472031705166	k	75
3627	38347	Can you get with Mary and make sure?	Can you get with Mary and make sure?	1832798	1472031705166	1472031705268	e	69
3627	38347	Can you get with Mary and make sure?	Can you get with Mary and make sure?	1832804	1472031705284	1472031705415	 	32
3627	38347	Can you get with Mary and make sure?	Can you get with Mary and make sure?	1832840	1472031705415	1472031705549	s	83
3627	38347	Can you get with Mary and make sure?	Can you get with Mary and make sure?	1832844	1472031705580	1472031705667	u	85
3627	38347	Can you get with Mary and make sure?	Can you get with Mary and make sure?	1832849	1472031705682	1472031705819	r	82
3627	38347	Can you get with Mary and make sure?	Can you get with Mary and make sure?	1832853	1472031705767	1472031705866	e	69
3627	38347	Can you get with Mary and make sure?	Can you get with Mary and make sure?	1833069	1472031706053	1472031706448	SHIFT	16
3627	38347	Can you get with Mary and make sure?	Can you get with Mary and make sure?	1832860	1472031706287	1472031706382	?	191
3627	38347	Can you get with Mary and make sure?	Can you get with Mary and make sure?	1833074	1472031709840	1472031709946	w	87
3627	38347	Can you get with Mary and make sure?	Can you get with Mary and make sure?	1833079	1472031710040	1472031710127	i	73
3627	38347	Can you get with Mary and make sure?	Can you get with Mary and make sure?	1833084	1472031710205	1472031710279	t	84
3627	38347	Can you get with Mary and make sure?	Can you get with Mary and make sure?	1833086	1472031710325	1472031710412	h	72
3627	38347	Can you get with Mary and make sure?	Can you get with Mary and make sure?	1833089	1472031710552	1472031710644	 	32
3627	38368	I am working with Mary Joyce on that right now.	I am working with Mary Joyce on that right now.	1833357	1472031715256	1472031715539	SHIFT	16
3627	38368	I am working with Mary Joyce on that right now.	I am working with Mary Joyce on that right now.	1833360	1472031715459	1472031715555	I	73
3627	38368	I am working with Mary Joyce on that right now.	I am working with Mary Joyce on that right now.	1833366	1472031715633	1472031715751	 	32
3627	38368	I am working with Mary Joyce on that right now.	I am working with Mary Joyce on that right now.	1833374	1472031715798	1472031715902	a	65
3627	38368	I am working with Mary Joyce on that right now.	I am working with Mary Joyce on that right now.	1833382	1472031715918	1472031716018	m	77
3627	38368	I am working with Mary Joyce on that right now.	I am working with Mary Joyce on that right now.	1833391	1472031716096	1472031716205	 	32
3627	38368	I am working with Mary Joyce on that right now.	I am working with Mary Joyce on that right now.	1833423	1472031716337	1472031716465	w	87
3627	38368	I am working with Mary Joyce on that right now.	I am working with Mary Joyce on that right now.	1833425	1472031716512	1472031716616	o	79
3627	38368	I am working with Mary Joyce on that right now.	I am working with Mary Joyce on that right now.	1833426	1472031716835	1472031716919	r	82
3627	38368	I am working with Mary Joyce on that right now.	I am working with Mary Joyce on that right now.	1833429	1472031716997	1472031717085	k	75
3627	38368	I am working with Mary Joyce on that right now.	I am working with Mary Joyce on that right now.	1833432	1472031717178	1472031717283	i	73
3627	38368	I am working with Mary Joyce on that right now.	I am working with Mary Joyce on that right now.	1833469	1472031717346	1472031717450	n	78
3627	38368	I am working with Mary Joyce on that right now.	I am working with Mary Joyce on that right now.	1833471	1472031717496	1472031717584	g	71
3627	38368	I am working with Mary Joyce on that right now.	I am working with Mary Joyce on that right now.	1833472	1472031717662	1472031717765	 	32
3627	38368	I am working with Mary Joyce on that right now.	I am working with Mary Joyce on that right now.	1833473	1472031717828	1472031717947	w	87
3627	38368	I am working with Mary Joyce on that right now.	I am working with Mary Joyce on that right now.	1833474	1472031717979	1472031718082	i	73
3627	38368	I am working with Mary Joyce on that right now.	I am working with Mary Joyce on that right now.	1833516	1472031718183	1472031718250	t	84
3627	38368	I am working with Mary Joyce on that right now.	I am working with Mary Joyce on that right now.	1833523	1472031718266	1472031718365	h	72
3627	38368	I am working with Mary Joyce on that right now.	I am working with Mary Joyce on that right now.	1833529	1472031718428	1472031718548	 	32
3627	38368	I am working with Mary Joyce on that right now.	I am working with Mary Joyce on that right now.	1833538	1472031718532	1472031718739	SHIFT	16
3627	38368	I am working with Mary Joyce on that right now.	I am working with Mary Joyce on that right now.	1833533	1472031718642	1472031718739	M	77
3627	38368	I am working with Mary Joyce on that right now.	I am working with Mary Joyce on that right now.	1833542	1472031718911	1472031719122	a	65
3627	38368	I am working with Mary Joyce on that right now.	I am working with Mary Joyce on that right now.	1833622	1472031719103	1472031719213	r	82
3627	38368	I am working with Mary Joyce on that right now.	I am working with Mary Joyce on that right now.	1833625	1472031719338	1472031719430	y	89
3627	38368	I am working with Mary Joyce on that right now.	I am working with Mary Joyce on that right now.	1833631	1472031719602	1472031719712	 	32
3627	38368	I am working with Mary Joyce on that right now.	I am working with Mary Joyce on that right now.	1833647	1472031719900	1472031720556	SHIFT	16
3627	38368	I am working with Mary Joyce on that right now.	I am working with Mary Joyce on that right now.	1833639	1472031720370	1472031720478	J	74
3627	38368	I am working with Mary Joyce on that right now.	I am working with Mary Joyce on that right now.	1833655	1472031720634	1472031720729	o	79
3627	38368	I am working with Mary Joyce on that right now.	I am working with Mary Joyce on that right now.	1833664	1472031720932	1472031721012	y	89
3627	38368	I am working with Mary Joyce on that right now.	I am working with Mary Joyce on that right now.	1833735	1472031721100	1472031721193	c	67
3627	38368	I am working with Mary Joyce on that right now.	I am working with Mary Joyce on that right now.	1833737	1472031721350	1472031721443	e	69
3627	38368	I am working with Mary Joyce on that right now.	I am working with Mary Joyce on that right now.	1833741	1472031721583	1472031721692	 	32
3627	38368	I am working with Mary Joyce on that right now.	I am working with Mary Joyce on that right now.	1833746	1472031721990	1472031722094	o	79
3627	38368	I am working with Mary Joyce on that right now.	I am working with Mary Joyce on that right now.	1833752	1472031722188	1472031722294	n	78
3627	38368	I am working with Mary Joyce on that right now.	I am working with Mary Joyce on that right now.	1833769	1472031722349	1472031722459	 	32
3627	38368	I am working with Mary Joyce on that right now.	I am working with Mary Joyce on that right now.	1833772	1472031722490	1472031722578	t	84
3627	38368	I am working with Mary Joyce on that right now.	I am working with Mary Joyce on that right now.	1833777	1472031722563	1472031722660	h	72
3627	38368	I am working with Mary Joyce on that right now.	I am working with Mary Joyce on that right now.	1833781	1472031722660	1472031722827	a	65
3627	38368	I am working with Mary Joyce on that right now.	I am working with Mary Joyce on that right now.	1833870	1472031722805	1472031722908	t	84
3627	38368	I am working with Mary Joyce on that right now.	I am working with Mary Joyce on that right now.	1833876	1472031723017	1472031723124	 	32
3627	38368	I am working with Mary Joyce on that right now.	I am working with Mary Joyce on that right now.	1833881	1472031723359	1472031723458	r	82
3627	38368	I am working with Mary Joyce on that right now.	I am working with Mary Joyce on that right now.	1833888	1472031723771	1472031723873	i	73
3627	38368	I am working with Mary Joyce on that right now.	I am working with Mary Joyce on that right now.	1833894	1472031723967	1472031724074	g	71
3627	38368	I am working with Mary Joyce on that right now.	I am working with Mary Joyce on that right now.	1833898	1472031724137	1472031724225	h	72
3627	38368	I am working with Mary Joyce on that right now.	I am working with Mary Joyce on that right now.	1833940	1472031724225	1472031724325	t	84
3627	38368	I am working with Mary Joyce on that right now.	I am working with Mary Joyce on that right now.	1833942	1472031724387	1472031724505	 	32
3627	38368	I am working with Mary Joyce on that right now.	I am working with Mary Joyce on that right now.	1833946	1472031724708	1472031724792	n	78
3627	38368	I am working with Mary Joyce on that right now.	I am working with Mary Joyce on that right now.	1833950	1472031724871	1472031724972	o	79
3627	38368	I am working with Mary Joyce on that right now.	I am working with Mary Joyce on that right now.	1833955	1472031724978	1472031725073	w	87
3627	38368	I am working with Mary Joyce on that right now.	I am working with Mary Joyce on that right now.	1834054	1472031725887	1472031725956	.	190
3627	38387	Thanks for keeping your eyes out there on our stuff!	Thanks for keeping your eyes out there on our stuff!	1834285	1472031729209	1472031729490	SHIFT	16
3627	38387	Thanks for keeping your eyes out there on our stuff!	Thanks for keeping your eyes out there on our stuff!	1834289	1472031729490	1472031729583	T	84
3627	38387	Thanks for keeping your eyes out there on our stuff!	Thanks for keeping your eyes out there on our stuff!	1834294	1472031729724	1472031729800	h	72
3627	38387	Thanks for keeping your eyes out there on our stuff!	Thanks for keeping your eyes out there on our stuff!	1834299	1472031729847	1472031729968	a	65
3627	38387	Thanks for keeping your eyes out there on our stuff!	Thanks for keeping your eyes out there on our stuff!	1834305	1472031729918	1472031729999	n	78
3627	38387	Thanks for keeping your eyes out there on our stuff!	Thanks for keeping your eyes out there on our stuff!	1834310	1472031730109	1472031730184	k	75
3627	38387	Thanks for keeping your eyes out there on our stuff!	Thanks for keeping your eyes out there on our stuff!	1834397	1472031730280	1472031730383	s	83
3627	38387	Thanks for keeping your eyes out there on our stuff!	Thanks for keeping your eyes out there on our stuff!	1834402	1472031730461	1472031730564	 	32
3627	38387	Thanks for keeping your eyes out there on our stuff!	Thanks for keeping your eyes out there on our stuff!	1834407	1472031731033	1472031731129	f	70
3627	38387	Thanks for keeping your eyes out there on our stuff!	Thanks for keeping your eyes out there on our stuff!	1834413	1472031731176	1472031731281	o	79
3627	38387	Thanks for keeping your eyes out there on our stuff!	Thanks for keeping your eyes out there on our stuff!	1834421	1472031731499	1472031731598	r	82
3627	38387	Thanks for keeping your eyes out there on our stuff!	Thanks for keeping your eyes out there on our stuff!	1834466	1472031731661	1472031731763	 	32
3627	38387	Thanks for keeping your eyes out there on our stuff!	Thanks for keeping your eyes out there on our stuff!	1834468	1472031731825	1472031731916	k	75
3627	38387	Thanks for keeping your eyes out there on our stuff!	Thanks for keeping your eyes out there on our stuff!	1834470	1472031731947	1472031732030	e	69
3627	38387	Thanks for keeping your eyes out there on our stuff!	Thanks for keeping your eyes out there on our stuff!	1834472	1472031732061	1472031732179	e	69
3627	38387	Thanks for keeping your eyes out there on our stuff!	Thanks for keeping your eyes out there on our stuff!	1834474	1472031732351	1472031732432	p	80
3627	38387	Thanks for keeping your eyes out there on our stuff!	Thanks for keeping your eyes out there on our stuff!	1834527	1472031732606	1472031732694	i	73
3627	38387	Thanks for keeping your eyes out there on our stuff!	Thanks for keeping your eyes out there on our stuff!	1834532	1472031732773	1472031732879	n	78
3627	38387	Thanks for keeping your eyes out there on our stuff!	Thanks for keeping your eyes out there on our stuff!	1834538	1472031732943	1472031733028	g	71
3627	38387	Thanks for keeping your eyes out there on our stuff!	Thanks for keeping your eyes out there on our stuff!	1834544	1472031733106	1472031733194	 	32
3627	38387	Thanks for keeping your eyes out there on our stuff!	Thanks for keeping your eyes out there on our stuff!	1834548	1472031733476	1472031733560	y	89
3627	38387	Thanks for keeping your eyes out there on our stuff!	Thanks for keeping your eyes out there on our stuff!	1834597	1472031733655	1472031733776	o	79
3627	38387	Thanks for keeping your eyes out there on our stuff!	Thanks for keeping your eyes out there on our stuff!	1834599	1472031733838	1472031733912	u	85
3627	38387	Thanks for keeping your eyes out there on our stuff!	Thanks for keeping your eyes out there on our stuff!	1834604	1472031733990	1472031734062	r	82
3627	38387	Thanks for keeping your eyes out there on our stuff!	Thanks for keeping your eyes out there on our stuff!	1834610	1472031734109	1472031734225	 	32
3627	38387	Thanks for keeping your eyes out there on our stuff!	Thanks for keeping your eyes out there on our stuff!	1834617	1472031734490	1472031734625	e	69
3627	38387	Thanks for keeping your eyes out there on our stuff!	Thanks for keeping your eyes out there on our stuff!	1834701	1472031734688	1472031734791	y	89
3627	38387	Thanks for keeping your eyes out there on our stuff!	Thanks for keeping your eyes out there on our stuff!	1834706	1472031735006	1472031735094	e	69
3627	38387	Thanks for keeping your eyes out there on our stuff!	Thanks for keeping your eyes out there on our stuff!	1834711	1472031735250	1472031735358	s	83
3627	38387	Thanks for keeping your eyes out there on our stuff!	Thanks for keeping your eyes out there on our stuff!	1834712	1472031735576	1472031735691	 	32
3627	38387	Thanks for keeping your eyes out there on our stuff!	Thanks for keeping your eyes out there on our stuff!	1834714	1472031736270	1472031736373	o	79
3627	38387	Thanks for keeping your eyes out there on our stuff!	Thanks for keeping your eyes out there on our stuff!	1834750	1472031736579	1472031736688	u	85
3627	38387	Thanks for keeping your eyes out there on our stuff!	Thanks for keeping your eyes out there on our stuff!	1834755	1472031736829	1472031736908	t	84
3627	38387	Thanks for keeping your eyes out there on our stuff!	Thanks for keeping your eyes out there on our stuff!	1834758	1472031737002	1472031737105	 	32
3627	38387	Thanks for keeping your eyes out there on our stuff!	Thanks for keeping your eyes out there on our stuff!	1834761	1472031737512	1472031737605	t	84
3627	38387	Thanks for keeping your eyes out there on our stuff!	Thanks for keeping your eyes out there on our stuff!	1834765	1472031737620	1472031737722	h	72
3627	38387	Thanks for keeping your eyes out there on our stuff!	Thanks for keeping your eyes out there on our stuff!	1834821	1472031737722	1472031737845	e	69
3627	38387	Thanks for keeping your eyes out there on our stuff!	Thanks for keeping your eyes out there on our stuff!	1834823	1472031737821	1472031737967	r	82
3627	38387	Thanks for keeping your eyes out there on our stuff!	Thanks for keeping your eyes out there on our stuff!	1834826	1472031737982	1472031738133	e	69
3627	38387	Thanks for keeping your eyes out there on our stuff!	Thanks for keeping your eyes out there on our stuff!	1834829	1472031738274	1472031738371	 	32
3627	38387	Thanks for keeping your eyes out there on our stuff!	Thanks for keeping your eyes out there on our stuff!	1834833	1472031738590	1472031738688	o	79
3627	38387	Thanks for keeping your eyes out there on our stuff!	Thanks for keeping your eyes out there on our stuff!	1834873	1472031738818	1472031738918	n	78
3627	38387	Thanks for keeping your eyes out there on our stuff!	Thanks for keeping your eyes out there on our stuff!	1834876	1472031738965	1472031739116	 	32
3627	38387	Thanks for keeping your eyes out there on our stuff!	Thanks for keeping your eyes out there on our stuff!	1834881	1472031739068	1472031739231	o	79
3627	38387	Thanks for keeping your eyes out there on our stuff!	Thanks for keeping your eyes out there on our stuff!	1834886	1472031739231	1472031739350	u	85
3627	38387	Thanks for keeping your eyes out there on our stuff!	Thanks for keeping your eyes out there on our stuff!	1834891	1472031739475	1472031739569	r	82
3627	38387	Thanks for keeping your eyes out there on our stuff!	Thanks for keeping your eyes out there on our stuff!	1834964	1472031739671	1472031739769	 	32
3627	38387	Thanks for keeping your eyes out there on our stuff!	Thanks for keeping your eyes out there on our stuff!	1834968	1472031740004	1472031740131	s	83
3627	38387	Thanks for keeping your eyes out there on our stuff!	Thanks for keeping your eyes out there on our stuff!	1834973	1472031740288	1472031740367	t	84
3627	38387	Thanks for keeping your eyes out there on our stuff!	Thanks for keeping your eyes out there on our stuff!	1834977	1472031740477	1472031740567	u	85
3627	38387	Thanks for keeping your eyes out there on our stuff!	Thanks for keeping your eyes out there on our stuff!	1834983	1472031740974	1472031741051	f	70
3627	38387	Thanks for keeping your eyes out there on our stuff!	Thanks for keeping your eyes out there on our stuff!	1835245	1472031741114	1472031741217	f	70
3627	38387	Thanks for keeping your eyes out there on our stuff!	Thanks for keeping your eyes out there on our stuff!	1835247	1472031741388	1472031742640	SHIFT	16
3627	38387	Thanks for keeping your eyes out there on our stuff!	Thanks for keeping your eyes out there on our stuff!	1835253	1472031743204	1472031744591	SHIFT	16
3627	38387	Thanks for keeping your eyes out there on our stuff!	Thanks for keeping your eyes out there on our stuff!	1835250	1472031744380	1472031744466	!	49
3627	38414	The Senate vote undercut him the day before the Geneva talks.	The Senate  vote undercut him the day before the Geneva talks.	1835520	1472031748849	1472031749177	SHIFT	16
3627	38414	The Senate vote undercut him the day before the Geneva talks.	The Senate  vote undercut him the day before the Geneva talks.	1835524	1472031749115	1472031749187	T	84
3627	38414	The Senate vote undercut him the day before the Geneva talks.	The Senate  vote undercut him the day before the Geneva talks.	1835528	1472031749363	1472031749455	h	72
3627	38414	The Senate vote undercut him the day before the Geneva talks.	The Senate  vote undercut him the day before the Geneva talks.	1835531	1472031749470	1472031749571	e	69
3627	38414	The Senate vote undercut him the day before the Geneva talks.	The Senate  vote undercut him the day before the Geneva talks.	1835533	1472031749618	1472031749737	 	32
3627	38414	The Senate vote undercut him the day before the Geneva talks.	The Senate  vote undercut him the day before the Geneva talks.	1835535	1472031749846	1472031750001	s	83
3627	38414	The Senate vote undercut him the day before the Geneva talks.	The Senate  vote undercut him the day before the Geneva talks.	1835626	1472031750416	1472031750534	BKSP	8
3627	38414	The Senate vote undercut him the day before the Geneva talks.	The Senate  vote undercut him the day before the Geneva talks.	1835636	1472031750752	1472031751081	SHIFT	16
3627	38414	The Senate vote undercut him the day before the Geneva talks.	The Senate  vote undercut him the day before the Geneva talks.	1835629	1472031750909	1472031751049	S	83
3627	38414	The Senate vote undercut him the day before the Geneva talks.	The Senate  vote undercut him the day before the Geneva talks.	1835641	1472031751174	1472031751269	e	69
3627	38414	The Senate vote undercut him the day before the Geneva talks.	The Senate  vote undercut him the day before the Geneva talks.	1835647	1472031751300	1472031751401	n	78
3627	38414	The Senate vote undercut him the day before the Geneva talks.	The Senate  vote undercut him the day before the Geneva talks.	1835655	1472031751401	1472031751524	a	65
3627	38414	The Senate vote undercut him the day before the Geneva talks.	The Senate  vote undercut him the day before the Geneva talks.	1835662	1472031751586	1472031751738	t	84
3627	38414	The Senate vote undercut him the day before the Geneva talks.	The Senate  vote undercut him the day before the Geneva talks.	1835826	1472031751686	1472031751817	e	69
3627	38414	The Senate vote undercut him the day before the Geneva talks.	The Senate  vote undercut him the day before the Geneva talks.	1835831	1472031752036	1472031752087	 	32
3627	38414	The Senate vote undercut him the day before the Geneva talks.	The Senate  vote undercut him the day before the Geneva talks.	1835837	1472031752571	1472031752683	 	32
3627	38414	The Senate vote undercut him the day before the Geneva talks.	The Senate  vote undercut him the day before the Geneva talks.	1835845	1472031753575	1472031753681	v	86
3627	38414	The Senate vote undercut him the day before the Geneva talks.	The Senate  vote undercut him the day before the Geneva talks.	1835848	1472031753790	1472031753882	o	79
3627	38414	The Senate vote undercut him the day before the Geneva talks.	The Senate  vote undercut him the day before the Geneva talks.	1835855	1472031753991	1472031754096	t	84
3627	38414	The Senate vote undercut him the day before the Geneva talks.	The Senate  vote undercut him the day before the Geneva talks.	1835959	1472031754190	1472031754230	e	69
3627	38414	The Senate vote undercut him the day before the Geneva talks.	The Senate  vote undercut him the day before the Geneva talks.	1835962	1472031754392	1472031754481	 	32
3627	38414	The Senate vote undercut him the day before the Geneva talks.	The Senate  vote undercut him the day before the Geneva talks.	1835965	1472031755388	1472031755464	u	85
3627	38414	The Senate vote undercut him the day before the Geneva talks.	The Senate  vote undercut him the day before the Geneva talks.	1835969	1472031755605	1472031755713	n	78
3627	38414	The Senate vote undercut him the day before the Geneva talks.	The Senate  vote undercut him the day before the Geneva talks.	1836052	1472031755695	1472031755796	d	68
3627	38414	The Senate vote undercut him the day before the Geneva talks.	The Senate  vote undercut him the day before the Geneva talks.	1836054	1472031755905	1472031756130	e	69
3627	38414	The Senate vote undercut him the day before the Geneva talks.	The Senate  vote undercut him the day before the Geneva talks.	1836058	1472031756090	1472031756178	r	82
3627	38414	The Senate vote undercut him the day before the Geneva talks.	The Senate  vote undercut him the day before the Geneva talks.	1836062	1472031756445	1472031756562	c	67
3627	38414	The Senate vote undercut him the day before the Geneva talks.	The Senate  vote undercut him the day before the Geneva talks.	1836064	1472031756827	1472031756927	u	85
3627	38414	The Senate vote undercut him the day before the Geneva talks.	The Senate  vote undercut him the day before the Geneva talks.	1836067	1472031757021	1472031757096	t	84
3627	38414	The Senate vote undercut him the day before the Geneva talks.	The Senate  vote undercut him the day before the Geneva talks.	1836131	1472031757149	1472031757244	 	32
3627	38414	The Senate vote undercut him the day before the Geneva talks.	The Senate  vote undercut him the day before the Geneva talks.	1836136	1472031757385	1472031757477	h	72
3627	38414	The Senate vote undercut him the day before the Geneva talks.	The Senate  vote undercut him the day before the Geneva talks.	1836138	1472031757556	1472031757642	i	73
3627	38414	The Senate vote undercut him the day before the Geneva talks.	The Senate  vote undercut him the day before the Geneva talks.	1836142	1472031757799	1472031757893	m	77
3627	38414	The Senate vote undercut him the day before the Geneva talks.	The Senate  vote undercut him the day before the Geneva talks.	1836146	1472031758018	1472031758110	 	32
3627	38414	The Senate vote undercut him the day before the Geneva talks.	The Senate  vote undercut him the day before the Geneva talks.	1836166	1472031758275	1472031758359	t	84
3627	38414	The Senate vote undercut him the day before the Geneva talks.	The Senate  vote undercut him the day before the Geneva talks.	1836169	1472031758359	1472031758443	h	72
3627	38414	The Senate vote undercut him the day before the Geneva talks.	The Senate  vote undercut him the day before the Geneva talks.	1836173	1472031758474	1472031758559	e	69
3627	38414	The Senate vote undercut him the day before the Geneva talks.	The Senate  vote undercut him the day before the Geneva talks.	1836179	1472031758575	1472031758705	 	32
3627	38414	The Senate vote undercut him the day before the Geneva talks.	The Senate  vote undercut him the day before the Geneva talks.	1836183	1472031758705	1472031758838	d	68
3627	38414	The Senate vote undercut him the day before the Geneva talks.	The Senate  vote undercut him the day before the Geneva talks.	1836281	1472031758838	1472031758974	a	65
3627	38414	The Senate vote undercut him the day before the Geneva talks.	The Senate  vote undercut him the day before the Geneva talks.	1836287	1472031759036	1472031759125	y	89
3627	38414	The Senate vote undercut him the day before the Geneva talks.	The Senate  vote undercut him the day before the Geneva talks.	1836292	1472031759312	1472031759424	 	32
3627	38414	The Senate vote undercut him the day before the Geneva talks.	The Senate  vote undercut him the day before the Geneva talks.	1836296	1472031759705	1472031759791	b	66
3627	38414	The Senate vote undercut him the day before the Geneva talks.	The Senate  vote undercut him the day before the Geneva talks.	1836302	1472031759916	1472031760038	e	69
3627	38414	The Senate vote undercut him the day before the Geneva talks.	The Senate  vote undercut him the day before the Geneva talks.	1836344	1472031760070	1472031760173	f	70
3627	38414	The Senate vote undercut him the day before the Geneva talks.	The Senate  vote undercut him the day before the Geneva talks.	1836347	1472031760220	1472031760323	o	79
3627	38414	The Senate vote undercut him the day before the Geneva talks.	The Senate  vote undercut him the day before the Geneva talks.	1836352	1472031760305	1472031760494	r	82
3627	38414	The Senate vote undercut him the day before the Geneva talks.	The Senate  vote undercut him the day before the Geneva talks.	1836356	1472031760437	1472031760556	e	69
3627	38414	The Senate vote undercut him the day before the Geneva talks.	The Senate  vote undercut him the day before the Geneva talks.	1836362	1472031760681	1472031760788	 	32
3627	38414	The Senate vote undercut him the day before the Geneva talks.	The Senate  vote undercut him the day before the Geneva talks.	1836435	1472031760853	1472031760939	t	84
3627	38414	The Senate vote undercut him the day before the Geneva talks.	The Senate  vote undercut him the day before the Geneva talks.	1836437	1472031760955	1472031761055	h	72
3627	38414	The Senate vote undercut him the day before the Geneva talks.	The Senate  vote undercut him the day before the Geneva talks.	1836441	1472031761055	1472031761139	e	69
3627	38414	The Senate vote undercut him the day before the Geneva talks.	The Senate  vote undercut him the day before the Geneva talks.	1836447	1472031761186	1472031761272	 	32
3627	38414	The Senate vote undercut him the day before the Geneva talks.	The Senate  vote undercut him the day before the Geneva talks.	1836501	1472031761428	1472031762268	SHIFT	16
3627	38414	The Senate vote undercut him the day before the Geneva talks.	The Senate  vote undercut him the day before the Geneva talks.	1836453	1472031762118	1472031762220	G	71
3627	38414	The Senate vote undercut him the day before the Geneva talks.	The Senate  vote undercut him the day before the Geneva talks.	1836504	1472031762330	1472031762436	e	69
3627	38414	The Senate vote undercut him the day before the Geneva talks.	The Senate  vote undercut him the day before the Geneva talks.	1836509	1472031762483	1472031762585	n	78
3627	38414	The Senate vote undercut him the day before the Geneva talks.	The Senate  vote undercut him the day before the Geneva talks.	1836515	1472031762557	1472031762653	e	69
3627	38414	The Senate vote undercut him the day before the Geneva talks.	The Senate  vote undercut him the day before the Geneva talks.	1836518	1472031762779	1472031762887	v	86
3627	38414	The Senate vote undercut him the day before the Geneva talks.	The Senate  vote undercut him the day before the Geneva talks.	1836522	1472031762965	1472031763100	a	65
3627	38414	The Senate vote undercut him the day before the Geneva talks.	The Senate  vote undercut him the day before the Geneva talks.	1836618	1472031763241	1472031763336	 	32
3627	38414	The Senate vote undercut him the day before the Geneva talks.	The Senate  vote undercut him the day before the Geneva talks.	1836625	1472031763727	1472031763817	t	84
3627	38414	The Senate vote undercut him the day before the Geneva talks.	The Senate  vote undercut him the day before the Geneva talks.	1836630	1472031763942	1472031764050	a	65
3627	38414	The Senate vote undercut him the day before the Geneva talks.	The Senate  vote undercut him the day before the Geneva talks.	1836637	1472031764097	1472031764185	l	76
3627	38414	The Senate vote undercut him the day before the Geneva talks.	The Senate  vote undercut him the day before the Geneva talks.	1836648	1472031764282	1472031764368	k	75
3627	38414	The Senate vote undercut him the day before the Geneva talks.	The Senate  vote undercut him the day before the Geneva talks.	1837281	1472031764418	1472031764516	s	83
3627	38414	The Senate vote undercut him the day before the Geneva talks.	The Senate  vote undercut him the day before the Geneva talks.	1837285	1472031764924	1472031765016	.	190
3627	38452	The Azerbaijani enclave Nagorno was torn by further fighting.	The Azerbaijani enclave Nagorno was torn by further fighting.	1837614	1472031776620	1472031776936	SHIFT	16
3627	38452	The Azerbaijani enclave Nagorno was torn by further fighting.	The Azerbaijani enclave Nagorno was torn by further fighting.	1837616	1472031776870	1472031776968	T	84
3627	38452	The Azerbaijani enclave Nagorno was torn by further fighting.	The Azerbaijani enclave Nagorno was torn by further fighting.	1837620	1472031777140	1472031777249	j	74
3627	38452	The Azerbaijani enclave Nagorno was torn by further fighting.	The Azerbaijani enclave Nagorno was torn by further fighting.	1837626	1472031777265	1472031777366	e	69
3627	38452	The Azerbaijani enclave Nagorno was torn by further fighting.	The Azerbaijani enclave Nagorno was torn by further fighting.	1837630	1472031777445	1472031777564	 	32
3627	38452	The Azerbaijani enclave Nagorno was torn by further fighting.	The Azerbaijani enclave Nagorno was torn by further fighting.	1837881	1472031777721	1472031777995	SHIFT	16
3627	38452	The Azerbaijani enclave Nagorno was torn by further fighting.	The Azerbaijani enclave Nagorno was torn by further fighting.	1837632	1472031777861	1472031777995	A	65
3627	38452	The Azerbaijani enclave Nagorno was torn by further fighting.	The Azerbaijani enclave Nagorno was torn by further fighting.	1837884	1472031778973	1472031779048	BKSP	8
3627	38452	The Azerbaijani enclave Nagorno was torn by further fighting.	The Azerbaijani enclave Nagorno was torn by further fighting.	1837887	1472031779127	1472031779198	BKSP	8
3627	38452	The Azerbaijani enclave Nagorno was torn by further fighting.	The Azerbaijani enclave Nagorno was torn by further fighting.	1837890	1472031779276	1472031779347	BKSP	8
3627	38452	The Azerbaijani enclave Nagorno was torn by further fighting.	The Azerbaijani enclave Nagorno was torn by further fighting.	1837893	1472031779409	1472031779506	BKSP	8
3627	38452	The Azerbaijani enclave Nagorno was torn by further fighting.	The Azerbaijani enclave Nagorno was torn by further fighting.	1837894	1472031780060	1472031780160	h	72
3627	38452	The Azerbaijani enclave Nagorno was torn by further fighting.	The Azerbaijani enclave Nagorno was torn by further fighting.	1837896	1472031780269	1472031780359	e	69
3627	38452	The Azerbaijani enclave Nagorno was torn by further fighting.	The Azerbaijani enclave Nagorno was torn by further fighting.	1837900	1472031780438	1472031780528	 	32
3627	38452	The Azerbaijani enclave Nagorno was torn by further fighting.	The Azerbaijani enclave Nagorno was torn by further fighting.	1837907	1472031780731	1472031781023	SHIFT	16
3627	38452	The Azerbaijani enclave Nagorno was torn by further fighting.	The Azerbaijani enclave Nagorno was torn by further fighting.	1837903	1472031780872	1472031781008	A	65
3627	38452	The Azerbaijani enclave Nagorno was torn by further fighting.	The Azerbaijani enclave Nagorno was torn by further fighting.	1837911	1472031781430	1472031781511	z	90
3627	38452	The Azerbaijani enclave Nagorno was torn by further fighting.	The Azerbaijani enclave Nagorno was torn by further fighting.	1838032	1472031781783	1472031781995	e	69
3627	38452	The Azerbaijani enclave Nagorno was torn by further fighting.	The Azerbaijani enclave Nagorno was torn by further fighting.	1838036	1472031781956	1472031782074	r	82
3627	38452	The Azerbaijani enclave Nagorno was torn by further fighting.	The Azerbaijani enclave Nagorno was torn by further fighting.	1838039	1472031783123	1472031783226	b	66
3627	38452	The Azerbaijani enclave Nagorno was torn by further fighting.	The Azerbaijani enclave Nagorno was torn by further fighting.	1838043	1472031783272	1472031783404	a	65
3627	38452	The Azerbaijani enclave Nagorno was torn by further fighting.	The Azerbaijani enclave Nagorno was torn by further fighting.	1838046	1472031783608	1472031783706	i	73
3627	38452	The Azerbaijani enclave Nagorno was torn by further fighting.	The Azerbaijani enclave Nagorno was torn by further fighting.	1838278	1472031784427	1472031784523	h	72
3627	38452	The Azerbaijani enclave Nagorno was torn by further fighting.	The Azerbaijani enclave Nagorno was torn by further fighting.	1838282	1472031784570	1472031784671	a	65
3627	38452	The Azerbaijani enclave Nagorno was torn by further fighting.	The Azerbaijani enclave Nagorno was torn by further fighting.	1838286	1472031784749	1472031784822	n	78
3627	38452	The Azerbaijani enclave Nagorno was torn by further fighting.	The Azerbaijani enclave Nagorno was torn by further fighting.	1838290	1472031785403	1472031785487	BKSP	8
3627	38452	The Azerbaijani enclave Nagorno was torn by further fighting.	The Azerbaijani enclave Nagorno was torn by further fighting.	1838294	1472031785581	1472031785685	BKSP	8
3627	38452	The Azerbaijani enclave Nagorno was torn by further fighting.	The Azerbaijani enclave Nagorno was torn by further fighting.	1838298	1472031785779	1472031785886	BKSP	8
3627	38452	The Azerbaijani enclave Nagorno was torn by further fighting.	The Azerbaijani enclave Nagorno was torn by further fighting.	1838304	1472031786714	1472031786802	j	74
3627	38452	The Azerbaijani enclave Nagorno was torn by further fighting.	The Azerbaijani enclave Nagorno was torn by further fighting.	1838308	1472031786911	1472031787002	a	65
3627	38452	The Azerbaijani enclave Nagorno was torn by further fighting.	The Azerbaijani enclave Nagorno was torn by further fighting.	1838347	1472031787081	1472031787199	n	78
3627	38452	The Azerbaijani enclave Nagorno was torn by further fighting.	The Azerbaijani enclave Nagorno was torn by further fighting.	1838350	1472031787309	1472031787401	i	73
3627	38452	The Azerbaijani enclave Nagorno was torn by further fighting.	The Azerbaijani enclave Nagorno was torn by further fighting.	1838355	1472031787620	1472031787733	 	32
3627	38452	The Azerbaijani enclave Nagorno was torn by further fighting.	The Azerbaijani enclave Nagorno was torn by further fighting.	1838359	1472031787936	1472031788034	e	69
3627	38452	The Azerbaijani enclave Nagorno was torn by further fighting.	The Azerbaijani enclave Nagorno was torn by further fighting.	1838367	1472031788128	1472031788217	n	78
3627	38452	The Azerbaijani enclave Nagorno was torn by further fighting.	The Azerbaijani enclave Nagorno was torn by further fighting.	1838501	1472031789000	1472031789114	c	67
3627	38452	The Azerbaijani enclave Nagorno was torn by further fighting.	The Azerbaijani enclave Nagorno was torn by further fighting.	1838508	1472031789457	1472031789580	l	76
3627	38452	The Azerbaijani enclave Nagorno was torn by further fighting.	The Azerbaijani enclave Nagorno was torn by further fighting.	1838513	1472031789580	1472031789697	a	65
3627	38452	The Azerbaijani enclave Nagorno was torn by further fighting.	The Azerbaijani enclave Nagorno was torn by further fighting.	1838518	1472031790041	1472031790145	b	66
3627	38452	The Azerbaijani enclave Nagorno was torn by further fighting.	The Azerbaijani enclave Nagorno was torn by further fighting.	1838525	1472031790286	1472031790379	e	69
3627	38452	The Azerbaijani enclave Nagorno was torn by further fighting.	The Azerbaijani enclave Nagorno was torn by further fighting.	1839026	1472031790552	1472031790663	 	32
3627	38452	The Azerbaijani enclave Nagorno was torn by further fighting.	The Azerbaijani enclave Nagorno was torn by further fighting.	1839035	1472031790741	1472031791185	SHIFT	16
3627	38452	The Azerbaijani enclave Nagorno was torn by further fighting.	The Azerbaijani enclave Nagorno was torn by further fighting.	1839031	1472031790913	1472031791013	N	78
3627	38452	The Azerbaijani enclave Nagorno was torn by further fighting.	The Azerbaijani enclave Nagorno was torn by further fighting.	1839040	1472031794742	1472031794841	BKSP	8
3627	38452	The Azerbaijani enclave Nagorno was torn by further fighting.	The Azerbaijani enclave Nagorno was torn by further fighting.	1839047	1472031795060	1472031795157	v	86
3627	38452	The Azerbaijani enclave Nagorno was torn by further fighting.	The Azerbaijani enclave Nagorno was torn by further fighting.	1839051	1472031797001	1472031797119	a	65
3627	38452	The Azerbaijani enclave Nagorno was torn by further fighting.	The Azerbaijani enclave Nagorno was torn by further fighting.	1839055	1472031797416	1472031797487	g	71
3627	38452	The Azerbaijani enclave Nagorno was torn by further fighting.	The Azerbaijani enclave Nagorno was torn by further fighting.	1839167	1472031797582	1472031797669	o	79
3627	38452	The Azerbaijani enclave Nagorno was torn by further fighting.	The Azerbaijani enclave Nagorno was torn by further fighting.	1839172	1472031797748	1472031797821	r	82
3627	38452	The Azerbaijani enclave Nagorno was torn by further fighting.	The Azerbaijani enclave Nagorno was torn by further fighting.	1839180	1472031799042	1472031799135	n	78
3627	38452	The Azerbaijani enclave Nagorno was torn by further fighting.	The Azerbaijani enclave Nagorno was torn by further fighting.	1839186	1472031799260	1472031799350	o	79
3627	38452	The Azerbaijani enclave Nagorno was torn by further fighting.	The Azerbaijani enclave Nagorno was torn by further fighting.	1839195	1472031799397	1472031799532	 	32
3627	38452	The Azerbaijani enclave Nagorno was torn by further fighting.	The Azerbaijani enclave Nagorno was torn by further fighting.	1839355	1472031799516	1472031799702	w	87
3627	38452	The Azerbaijani enclave Nagorno was torn by further fighting.	The Azerbaijani enclave Nagorno was torn by further fighting.	1839358	1472031799679	1472031799782	a	65
3627	38452	The Azerbaijani enclave Nagorno was torn by further fighting.	The Azerbaijani enclave Nagorno was torn by further fighting.	1839363	1472031799845	1472031799917	a	65
3627	38452	The Azerbaijani enclave Nagorno was torn by further fighting.	The Azerbaijani enclave Nagorno was torn by further fighting.	1839369	1472031799886	1472031800028	s	83
3627	38452	The Azerbaijani enclave Nagorno was torn by further fighting.	The Azerbaijani enclave Nagorno was torn by further fighting.	1839375	1472031800154	1472031800267	 	32
3627	38452	The Azerbaijani enclave Nagorno was torn by further fighting.	The Azerbaijani enclave Nagorno was torn by further fighting.	1839380	1472031801486	1472031801566	t	84
3627	38452	The Azerbaijani enclave Nagorno was torn by further fighting.	The Azerbaijani enclave Nagorno was torn by further fighting.	1839470	1472031801638	1472031801731	o	79
3627	38452	The Azerbaijani enclave Nagorno was torn by further fighting.	The Azerbaijani enclave Nagorno was torn by further fighting.	1839472	1472031801887	1472031801932	r	82
3627	38452	The Azerbaijani enclave Nagorno was torn by further fighting.	The Azerbaijani enclave Nagorno was torn by further fighting.	1839473	1472031802089	1472031802180	n	78
3627	38452	The Azerbaijani enclave Nagorno was torn by further fighting.	The Azerbaijani enclave Nagorno was torn by further fighting.	1839475	1472031802337	1472031802415	 	32
3627	38452	The Azerbaijani enclave Nagorno was torn by further fighting.	The Azerbaijani enclave Nagorno was torn by further fighting.	1839479	1472031802682	1472031802778	b	66
3627	38452	The Azerbaijani enclave Nagorno was torn by further fighting.	The Azerbaijani enclave Nagorno was torn by further fighting.	1839557	1472031802999	1472031803095	y	89
3627	38452	The Azerbaijani enclave Nagorno was torn by further fighting.	The Azerbaijani enclave Nagorno was torn by further fighting.	1839561	1472031803220	1472031803344	 	32
3627	38452	The Azerbaijani enclave Nagorno was torn by further fighting.	The Azerbaijani enclave Nagorno was torn by further fighting.	1839567	1472031803453	1472031803561	f	70
3627	38452	The Azerbaijani enclave Nagorno was torn by further fighting.	The Azerbaijani enclave Nagorno was torn by further fighting.	1839574	1472031803654	1472031803759	u	85
3627	38452	The Azerbaijani enclave Nagorno was torn by further fighting.	The Azerbaijani enclave Nagorno was torn by further fighting.	1839581	1472031803822	1472031803911	r	82
3627	38452	The Azerbaijani enclave Nagorno was torn by further fighting.	The Azerbaijani enclave Nagorno was torn by further fighting.	1839606	1472031804037	1472031804127	t	84
3627	38452	The Azerbaijani enclave Nagorno was torn by further fighting.	The Azerbaijani enclave Nagorno was torn by further fighting.	1839609	1472031804174	1472031804280	h	72
3627	38452	The Azerbaijani enclave Nagorno was torn by further fighting.	The Azerbaijani enclave Nagorno was torn by further fighting.	1839615	1472031804245	1472031804395	e	69
3627	38452	The Azerbaijani enclave Nagorno was torn by further fighting.	The Azerbaijani enclave Nagorno was torn by further fighting.	1839620	1472031804343	1472031804442	r	82
3627	38452	The Azerbaijani enclave Nagorno was torn by further fighting.	The Azerbaijani enclave Nagorno was torn by further fighting.	1839626	1472031804606	1472031804709	 	32
3627	38452	The Azerbaijani enclave Nagorno was torn by further fighting.	The Azerbaijani enclave Nagorno was torn by further fighting.	1839884	1472031805882	1472031805992	f	70
3627	38452	The Azerbaijani enclave Nagorno was torn by further fighting.	The Azerbaijani enclave Nagorno was torn by further fighting.	1839888	1472031806070	1472031806173	i	73
3627	38452	The Azerbaijani enclave Nagorno was torn by further fighting.	The Azerbaijani enclave Nagorno was torn by further fighting.	1839892	1472031806251	1472031806340	g	71
3627	38452	The Azerbaijani enclave Nagorno was torn by further fighting.	The Azerbaijani enclave Nagorno was torn by further fighting.	1839895	1472031806449	1472031806618	h	72
3627	38452	The Azerbaijani enclave Nagorno was torn by further fighting.	The Azerbaijani enclave Nagorno was torn by further fighting.	1839896	1472031807933	1472031808023	t	84
3627	38452	The Azerbaijani enclave Nagorno was torn by further fighting.	The Azerbaijani enclave Nagorno was torn by further fighting.	1840129	1472031808375	1472031808424	n	78
3627	38452	The Azerbaijani enclave Nagorno was torn by further fighting.	The Azerbaijani enclave Nagorno was torn by further fighting.	1840137	1472031808783	1472031808886	BKSP	8
3627	38452	The Azerbaijani enclave Nagorno was torn by further fighting.	The Azerbaijani enclave Nagorno was torn by further fighting.	1840142	1472031809528	1472031809620	i	73
3627	38452	The Azerbaijani enclave Nagorno was torn by further fighting.	The Azerbaijani enclave Nagorno was torn by further fighting.	1840146	1472031809729	1472031809835	n	78
3627	38452	The Azerbaijani enclave Nagorno was torn by further fighting.	The Azerbaijani enclave Nagorno was torn by further fighting.	1840150	1472031809835	1472031809920	g	71
3627	38452	The Azerbaijani enclave Nagorno was torn by further fighting.	The Azerbaijani enclave Nagorno was torn by further fighting.	1840157	1472031810873	1472031810960	.	190
3627	38452	The Azerbaijani enclave Nagorno was torn by further fighting.	The Azerbaijani enclave Nagorno was torn by further fighting.	1841048	1472031814206	1472031814298	BKSP	8
3627	38538	Where do you want to meet to walk over there?	Where do you want to meet to walk over there?	1841563	1472031826885	1472031827281	SHIFT	16
3627	38538	Where do you want to meet to walk over there?	Where do you want to meet to walk over there?	1841567	1472031827218	1472031827327	W	87
3627	38538	Where do you want to meet to walk over there?	Where do you want to meet to walk over there?	1841572	1472031828281	1472031828395	e	69
3627	38538	Where do you want to meet to walk over there?	Where do you want to meet to walk over there?	1841577	1472031828442	1472031828558	h	72
3627	38538	Where do you want to meet to walk over there?	Where do you want to meet to walk over there?	1841582	1472031829153	1472031829242	BKSP	8
3627	38538	Where do you want to meet to walk over there?	Where do you want to meet to walk over there?	1841587	1472031829289	1472031829407	BKSP	8
3627	38538	Where do you want to meet to walk over there?	Where do you want to meet to walk over there?	1841591	1472031829985	1472031830089	h	72
3627	38538	Where do you want to meet to walk over there?	Where do you want to meet to walk over there?	1841596	1472031830136	1472031830273	e	69
3627	38538	Where do you want to meet to walk over there?	Where do you want to meet to walk over there?	1841649	1472031830384	1472031830529	r	82
3627	38538	Where do you want to meet to walk over there?	Where do you want to meet to walk over there?	1841654	1472031830505	1472031830622	e	69
3627	38538	Where do you want to meet to walk over there?	Where do you want to meet to walk over there?	1841658	1472031830747	1472031830855	 	32
3627	38538	Where do you want to meet to walk over there?	Where do you want to meet to walk over there?	1841662	1472031831151	1472031831267	d	68
3627	38538	Where do you want to meet to walk over there?	Where do you want to meet to walk over there?	1841667	1472031831423	1472031831522	o	79
3627	38538	Where do you want to meet to walk over there?	Where do you want to meet to walk over there?	1841756	1472031831617	1472031831721	 	32
3627	38538	Where do you want to meet to walk over there?	Where do you want to meet to walk over there?	1841764	1472031831862	1472031831955	y	89
3627	38538	Where do you want to meet to walk over there?	Where do you want to meet to walk over there?	1841775	1472031832017	1472031832135	o	79
3627	38538	Where do you want to meet to walk over there?	Where do you want to meet to walk over there?	1841785	1472031832230	1472031832321	u	85
3627	38538	Where do you want to meet to walk over there?	Where do you want to meet to walk over there?	1841795	1472031832430	1472031832552	 	32
3627	38538	Where do you want to meet to walk over there?	Where do you want to meet to walk over there?	1841862	1472031832755	1472031832931	w	87
3627	38538	Where do you want to meet to walk over there?	Where do you want to meet to walk over there?	1841865	1472031832900	1472031833054	a	65
3627	38538	Where do you want to meet to walk over there?	Where do you want to meet to walk over there?	1841869	1472031832956	1472031833070	n	78
3627	38538	Where do you want to meet to walk over there?	Where do you want to meet to walk over there?	1841878	1472031833148	1472031833236	t	84
3627	38538	Where do you want to meet to walk over there?	Where do you want to meet to walk over there?	1841883	1472031833411	1472031833533	 	32
3627	38538	Where do you want to meet to walk over there?	Where do you want to meet to walk over there?	1841950	1472031834002	1472031834084	t	84
3627	38538	Where do you want to meet to walk over there?	Where do you want to meet to walk over there?	1841954	1472031834241	1472031834317	o	79
3627	38538	Where do you want to meet to walk over there?	Where do you want to meet to walk over there?	1841960	1472031834427	1472031834520	 	32
3627	38538	Where do you want to meet to walk over there?	Where do you want to meet to walk over there?	1841966	1472031834479	1472031834585	m	77
3627	38538	Where do you want to meet to walk over there?	Where do you want to meet to walk over there?	1842096	1472031834567	1472031834667	e	69
3627	38538	Where do you want to meet to walk over there?	Where do you want to meet to walk over there?	1842099	1472031834730	1472031834848	e	69
3627	38538	Where do you want to meet to walk over there?	Where do you want to meet to walk over there?	1842103	1472031834942	1472031835059	t	84
3627	38538	Where do you want to meet to walk over there?	Where do you want to meet to walk over there?	1842106	1472031836021	1472031836133	 	32
3627	38538	Where do you want to meet to walk over there?	Where do you want to meet to walk over there?	1842108	1472031836523	1472031836614	t	84
3627	38538	Where do you want to meet to walk over there?	Where do you want to meet to walk over there?	1842111	1472031836708	1472031836813	o	79
3627	38538	Where do you want to meet to walk over there?	Where do you want to meet to walk over there?	1842143	1472031836846	1472031836974	 	32
3627	38538	Where do you want to meet to walk over there?	Where do you want to meet to walk over there?	1842148	1472031836930	1472031837101	w	87
3627	38538	Where do you want to meet to walk over there?	Where do you want to meet to walk over there?	1842154	1472031837059	1472031837194	a	65
3627	38538	Where do you want to meet to walk over there?	Where do you want to meet to walk over there?	1842160	1472031837194	1472031837268	l	76
3627	38538	Where do you want to meet to walk over there?	Where do you want to meet to walk over there?	1842166	1472031837440	1472031837529	k	75
3627	38538	Where do you want to meet to walk over there?	Where do you want to meet to walk over there?	1842211	1472031837732	1472031837845	 	32
3627	38538	Where do you want to meet to walk over there?	Where do you want to meet to walk over there?	1842215	1472031838142	1472031838229	o	79
3627	38538	Where do you want to meet to walk over there?	Where do you want to meet to walk over there?	1842218	1472031838339	1472031838428	v	86
3627	38538	Where do you want to meet to walk over there?	Where do you want to meet to walk over there?	1842222	1472031838522	1472031838730	e	69
3627	38538	Where do you want to meet to walk over there?	Where do you want to meet to walk over there?	1842292	1472031838659	1472031838794	r	82
3627	38538	Where do you want to meet to walk over there?	Where do you want to meet to walk over there?	1842296	1472031838966	1472031839076	 	32
3627	38538	Where do you want to meet to walk over there?	Where do you want to meet to walk over there?	1842302	1472031839341	1472031839428	t	84
3627	38538	Where do you want to meet to walk over there?	Where do you want to meet to walk over there?	1842306	1472031839459	1472031839555	h	72
3627	38538	Where do you want to meet to walk over there?	Where do you want to meet to walk over there?	1842311	1472031839527	1472031839640	e	69
3627	38538	Where do you want to meet to walk over there?	Where do you want to meet to walk over there?	1842369	1472031839611	1472031839752	r	82
3627	38538	Where do you want to meet to walk over there?	Where do you want to meet to walk over there?	1842372	1472031839726	1472031839811	e	69
3627	38538	Where do you want to meet to walk over there?	Where do you want to meet to walk over there?	1842382	1472031839983	1472031840374	SHIFT	16
3627	38538	Where do you want to meet to walk over there?	Where do you want to meet to walk over there?	1842376	1472031840233	1472031840327	?	191
3627	38563	Are you getting all the information you need?	Are you getting all the information you need?	1842669	1472031843724	1472031843956	SHIFT	16
3627	38563	Are you getting all the information you need?	Are you getting all the information you need?	1842674	1472031843896	1472031844050	A	65
3627	38563	Are you getting all the information you need?	Are you getting all the information you need?	1842677	1472031844066	1472031844185	r	82
3627	38563	Are you getting all the information you need?	Are you getting all the information you need?	1842681	1472031844200	1472031844287	e	69
3627	38563	Are you getting all the information you need?	Are you getting all the information you need?	1842686	1472031844333	1472031844436	 	32
3627	38563	Are you getting all the information you need?	Are you getting all the information you need?	1842688	1472031844545	1472031844636	y	89
3627	38563	Are you getting all the information you need?	Are you getting all the information you need?	1842758	1472031844715	1472031844818	o	79
3627	38563	Are you getting all the information you need?	Are you getting all the information you need?	1842760	1472031844912	1472031845003	u	85
3627	38563	Are you getting all the information you need?	Are you getting all the information you need?	1842764	1472031845175	1472031845268	 	32
3627	38563	Are you getting all the information you need?	Are you getting all the information you need?	1842770	1472031845580	1472031845668	g	71
3627	38563	Are you getting all the information you need?	Are you getting all the information you need?	1842777	1472031845762	1472031845867	e	69
3627	38563	Are you getting all the information you need?	Are you getting all the information you need?	1842813	1472031845982	1472031846068	t	84
3627	38563	Are you getting all the information you need?	Are you getting all the information you need?	1842815	1472031846130	1472031846222	t	84
3627	38563	Are you getting all the information you need?	Are you getting all the information you need?	1842820	1472031846186	1472031846284	i	73
3627	38563	Are you getting all the information you need?	Are you getting all the information you need?	1842824	1472031846347	1472031846450	n	78
3627	38563	Are you getting all the information you need?	Are you getting all the information you need?	1842830	1472031846481	1472031846567	g	71
3627	38563	Are you getting all the information you need?	Are you getting all the information you need?	1842892	1472031846620	1472031846733	 	32
3627	38563	Are you getting all the information you need?	Are you getting all the information you need?	1842896	1472031846733	1472031846849	a	65
3627	38563	Are you getting all the information you need?	Are you getting all the information you need?	1842899	1472031846880	1472031846967	l	76
3627	38563	Are you getting all the information you need?	Are you getting all the information you need?	1842902	1472031847023	1472031847147	l	76
3627	38563	Are you getting all the information you need?	Are you getting all the information you need?	1842905	1472031847178	1472031847316	 	32
3627	38563	Are you getting all the information you need?	Are you getting all the information you need?	1842975	1472031847372	1472031847417	t	84
3627	38563	Are you getting all the information you need?	Are you getting all the information you need?	1842977	1472031847449	1472031847548	h	72
3627	38563	Are you getting all the information you need?	Are you getting all the information you need?	1842979	1472031847579	1472031847665	e	69
3627	38563	Are you getting all the information you need?	Are you getting all the information you need?	1842980	1472031847758	1472031847896	 	32
3627	38563	Are you getting all the information you need?	Are you getting all the information you need?	1842982	1472031848224	1472031848314	i	73
3627	38563	Are you getting all the information you need?	Are you getting all the information you need?	1843056	1472031848440	1472031848531	n	78
3627	38563	Are you getting all the information you need?	Are you getting all the information you need?	1843060	1472031848952	1472031849045	f	70
3627	38563	Are you getting all the information you need?	Are you getting all the information you need?	1843063	1472031849045	1472031849130	o	79
3627	38563	Are you getting all the information you need?	Are you getting all the information you need?	1843066	1472031849177	1472031849263	r	82
3627	38563	Are you getting all the information you need?	Are you getting all the information you need?	1843069	1472031849294	1472031849395	m	77
3627	38563	Are you getting all the information you need?	Are you getting all the information you need?	1843134	1472031849395	1472031849545	a	65
3627	38563	Are you getting all the information you need?	Are you getting all the information you need?	1843141	1472031849527	1472031849629	t	84
3627	38563	Are you getting all the information you need?	Are you getting all the information you need?	1843147	1472031849707	1472031849780	i	73
3627	38563	Are you getting all the information you need?	Are you getting all the information you need?	1843153	1472031849874	1472031849947	o	79
3627	38563	Are you getting all the information you need?	Are you getting all the information you need?	1843162	1472031850088	1472031850179	n	78
3627	38563	Are you getting all the information you need?	Are you getting all the information you need?	1843165	1472031850257	1472031850361	 	32
3627	38563	Are you getting all the information you need?	Are you getting all the information you need?	1843259	1472031850565	1472031850646	y	89
3627	38563	Are you getting all the information you need?	Are you getting all the information you need?	1843260	1472031850724	1472031850827	o	79
3627	38563	Are you getting all the information you need?	Are you getting all the information you need?	1843262	1472031850937	1472031851059	y	89
3627	38563	Are you getting all the information you need?	Are you getting all the information you need?	1843263	1472031851513	1472031851594	BKSP	8
3627	38563	Are you getting all the information you need?	Are you getting all the information you need?	1843266	1472031852174	1472031852244	u	85
3627	38563	Are you getting all the information you need?	Are you getting all the information you need?	1843267	1472031852322	1472031852461	 	32
3627	38563	Are you getting all the information you need?	Are you getting all the information you need?	1843352	1472031852410	1472031852512	n	78
3627	38563	Are you getting all the information you need?	Are you getting all the information you need?	1843356	1472031852606	1472031852693	e	69
3627	38563	Are you getting all the information you need?	Are you getting all the information you need?	1843361	1472031852756	1472031852841	e	69
3627	38563	Are you getting all the information you need?	Are you getting all the information you need?	1843369	1472031852935	1472031853039	d	68
3627	38563	Are you getting all the information you need?	Are you getting all the information you need?	1843380	1472031853237	1472031853854	SHIFT	16
3627	38563	Are you getting all the information you need?	Are you getting all the information you need?	1843376	1472031853715	1472031853807	?	191
3627	38587	I was a bit rusty but I didn't want to miss the elections back home.	I was a bit rusty but I didn't want to miss the elections back home.	1843692	1472031857400	1472031857588	SHIFT	16
3627	38587	I was a bit rusty but I didn't want to miss the elections back home.	I was a bit rusty but I didn't want to miss the elections back home.	1843694	1472031857588	1472031857670	I	73
3627	38587	I was a bit rusty but I didn't want to miss the elections back home.	I was a bit rusty but I didn't want to miss the elections back home.	1843698	1472031857764	1472031857867	 	32
3627	38587	I was a bit rusty but I didn't want to miss the elections back home.	I was a bit rusty but I didn't want to miss the elections back home.	1843703	1472031858293	1472031858477	w	87
3627	38587	I was a bit rusty but I didn't want to miss the elections back home.	I was a bit rusty but I didn't want to miss the elections back home.	1843708	1472031858477	1472031858701	a	65
3627	38587	I was a bit rusty but I didn't want to miss the elections back home.	I was a bit rusty but I didn't want to miss the elections back home.	1843813	1472031858645	1472031858796	s	83
3627	38587	I was a bit rusty but I didn't want to miss the elections back home.	I was a bit rusty but I didn't want to miss the elections back home.	1843816	1472031858953	1472031859049	 	32
3627	38587	I was a bit rusty but I didn't want to miss the elections back home.	I was a bit rusty but I didn't want to miss the elections back home.	1843819	1472031859127	1472031859247	a	65
3627	38587	I was a bit rusty but I didn't want to miss the elections back home.	I was a bit rusty but I didn't want to miss the elections back home.	1843823	1472031859325	1472031859417	 	32
3627	38587	I was a bit rusty but I didn't want to miss the elections back home.	I was a bit rusty but I didn't want to miss the elections back home.	1843825	1472031859902	1472031859998	b	66
3627	38587	I was a bit rusty but I didn't want to miss the elections back home.	I was a bit rusty but I didn't want to miss the elections back home.	1843827	1472031860123	1472031860231	i	73
3627	38587	I was a bit rusty but I didn't want to miss the elections back home.	I was a bit rusty but I didn't want to miss the elections back home.	1843916	1472031860295	1472031860366	t	84
3627	38587	I was a bit rusty but I didn't want to miss the elections back home.	I was a bit rusty but I didn't want to miss the elections back home.	1843918	1472031860554	1472031860649	 	32
3627	38587	I was a bit rusty but I didn't want to miss the elections back home.	I was a bit rusty but I didn't want to miss the elections back home.	1843924	1472031861523	1472031861613	r	82
3627	38587	I was a bit rusty but I didn't want to miss the elections back home.	I was a bit rusty but I didn't want to miss the elections back home.	1843928	1472031861722	1472031861812	u	85
3627	38587	I was a bit rusty but I didn't want to miss the elections back home.	I was a bit rusty but I didn't want to miss the elections back home.	1844059	1472031861812	1472031861928	s	83
3627	38587	I was a bit rusty but I didn't want to miss the elections back home.	I was a bit rusty but I didn't want to miss the elections back home.	1844062	1472031862038	1472031862128	t	84
3627	38587	I was a bit rusty but I didn't want to miss the elections back home.	I was a bit rusty but I didn't want to miss the elections back home.	1844064	1472031862300	1472031862379	y	89
3627	38587	I was a bit rusty but I didn't want to miss the elections back home.	I was a bit rusty but I didn't want to miss the elections back home.	1844066	1472031862614	1472031862727	 	32
3627	38587	I was a bit rusty but I didn't want to miss the elections back home.	I was a bit rusty but I didn't want to miss the elections back home.	1844068	1472031863368	1472031863477	b	66
3627	38587	I was a bit rusty but I didn't want to miss the elections back home.	I was a bit rusty but I didn't want to miss the elections back home.	1844073	1472031863789	1472031863892	u	85
3627	38587	I was a bit rusty but I didn't want to miss the elections back home.	I was a bit rusty but I didn't want to miss the elections back home.	1844179	1472031863987	1472031864060	t	84
3627	38587	I was a bit rusty but I didn't want to miss the elections back home.	I was a bit rusty but I didn't want to miss the elections back home.	1844182	1472031864153	1472031864257	 	32
3627	38587	I was a bit rusty but I didn't want to miss the elections back home.	I was a bit rusty but I didn't want to miss the elections back home.	1844194	1472031864304	1472031864624	SHIFT	16
3627	38587	I was a bit rusty but I didn't want to miss the elections back home.	I was a bit rusty but I didn't want to miss the elections back home.	1844188	1472031864522	1472031864624	I	73
3627	38587	I was a bit rusty but I didn't want to miss the elections back home.	I was a bit rusty but I didn't want to miss the elections back home.	1844197	1472031864796	1472031864907	 	32
3627	38587	I was a bit rusty but I didn't want to miss the elections back home.	I was a bit rusty but I didn't want to miss the elections back home.	1844204	1472031865376	1472031865489	d	68
3627	38587	I was a bit rusty but I didn't want to miss the elections back home.	I was a bit rusty but I didn't want to miss the elections back home.	1844359	1472031865678	1472031865773	i	73
3627	38587	I was a bit rusty but I didn't want to miss the elections back home.	I was a bit rusty but I didn't want to miss the elections back home.	1844360	1472031865851	1472031865940	d	68
3627	38587	I was a bit rusty but I didn't want to miss the elections back home.	I was a bit rusty but I didn't want to miss the elections back home.	1844363	1472031867115	1472031867206	n	78
3627	38587	I was a bit rusty but I didn't want to miss the elections back home.	I was a bit rusty but I didn't want to miss the elections back home.	1844364	1472031867862	1472031867970	'	222
3627	38587	I was a bit rusty but I didn't want to miss the elections back home.	I was a bit rusty but I didn't want to miss the elections back home.	1844367	1472031868142	1472031868221	t	84
3627	38587	I was a bit rusty but I didn't want to miss the elections back home.	I was a bit rusty but I didn't want to miss the elections back home.	1844438	1472031868478	1472031868601	 	32
3627	38587	I was a bit rusty but I didn't want to miss the elections back home.	I was a bit rusty but I didn't want to miss the elections back home.	1844440	1472031869007	1472031869191	w	87
3627	38587	I was a bit rusty but I didn't want to miss the elections back home.	I was a bit rusty but I didn't want to miss the elections back home.	1844441	1472031869134	1472031869313	a	65
3627	38587	I was a bit rusty but I didn't want to miss the elections back home.	I was a bit rusty but I didn't want to miss the elections back home.	1844442	1472031869329	1472031869433	n	78
3627	38587	I was a bit rusty but I didn't want to miss the elections back home.	I was a bit rusty but I didn't want to miss the elections back home.	1844443	1472031869465	1472031869567	t	84
3627	38587	I was a bit rusty but I didn't want to miss the elections back home.	I was a bit rusty but I didn't want to miss the elections back home.	1844495	1472031869693	1472031869816	 	32
3627	38587	I was a bit rusty but I didn't want to miss the elections back home.	I was a bit rusty but I didn't want to miss the elections back home.	1844498	1472031870066	1472031870153	t	84
3627	38587	I was a bit rusty but I didn't want to miss the elections back home.	I was a bit rusty but I didn't want to miss the elections back home.	1844502	1472031870435	1472031870502	o	79
3627	38587	I was a bit rusty but I didn't want to miss the elections back home.	I was a bit rusty but I didn't want to miss the elections back home.	1844508	1472031870611	1472031870730	 	32
3627	38587	I was a bit rusty but I didn't want to miss the elections back home.	I was a bit rusty but I didn't want to miss the elections back home.	1844511	1472031870793	1472031870898	m	77
3627	38587	I was a bit rusty but I didn't want to miss the elections back home.	I was a bit rusty but I didn't want to miss the elections back home.	1844589	1472031871009	1472031871100	i	73
3627	38587	I was a bit rusty but I didn't want to miss the elections back home.	I was a bit rusty but I didn't want to miss the elections back home.	1844592	1472031871178	1472031871266	s	83
3627	38587	I was a bit rusty but I didn't want to miss the elections back home.	I was a bit rusty but I didn't want to miss the elections back home.	1844596	1472031871329	1472031871447	s	83
3627	38587	I was a bit rusty but I didn't want to miss the elections back home.	I was a bit rusty but I didn't want to miss the elections back home.	1844600	1472031871587	1472031871698	 	32
3627	38587	I was a bit rusty but I didn't want to miss the elections back home.	I was a bit rusty but I didn't want to miss the elections back home.	1844604	1472031871932	1472031872031	t	84
3627	38587	I was a bit rusty but I didn't want to miss the elections back home.	I was a bit rusty but I didn't want to miss the elections back home.	1844621	1472031872063	1472031872148	h	72
3627	38587	I was a bit rusty but I didn't want to miss the elections back home.	I was a bit rusty but I didn't want to miss the elections back home.	1844624	1472031872163	1472031872265	e	69
3627	38587	I was a bit rusty but I didn't want to miss the elections back home.	I was a bit rusty but I didn't want to miss the elections back home.	1844627	1472031872265	1472031872381	 	32
3627	38587	I was a bit rusty but I didn't want to miss the elections back home.	I was a bit rusty but I didn't want to miss the elections back home.	1844630	1472031872412	1472031872529	l	76
3627	38587	I was a bit rusty but I didn't want to miss the elections back home.	I was a bit rusty but I didn't want to miss the elections back home.	1844633	1472031872560	1472031872662	e	69
3627	38587	I was a bit rusty but I didn't want to miss the elections back home.	I was a bit rusty but I didn't want to miss the elections back home.	1844744	1472031873305	1472031873397	BKSP	8
3627	38587	I was a bit rusty but I didn't want to miss the elections back home.	I was a bit rusty but I didn't want to miss the elections back home.	1844745	1472031873459	1472031873561	BKSP	8
3627	38587	I was a bit rusty but I didn't want to miss the elections back home.	I was a bit rusty but I didn't want to miss the elections back home.	1844748	1472031873640	1472031873760	e	69
3627	38587	I was a bit rusty but I didn't want to miss the elections back home.	I was a bit rusty but I didn't want to miss the elections back home.	1844751	1472031873901	1472031874011	l	76
3627	38587	I was a bit rusty but I didn't want to miss the elections back home.	I was a bit rusty but I didn't want to miss the elections back home.	1844754	1472031874026	1472031874111	e	69
3627	38587	I was a bit rusty but I didn't want to miss the elections back home.	I was a bit rusty but I didn't want to miss the elections back home.	1844758	1472031874252	1472031874360	c	67
3627	38587	I was a bit rusty but I didn't want to miss the elections back home.	I was a bit rusty but I didn't want to miss the elections back home.	1844763	1472031874719	1472031874796	t	84
3627	38587	I was a bit rusty but I didn't want to miss the elections back home.	I was a bit rusty but I didn't want to miss the elections back home.	1844819	1472031874912	1472031874985	i	73
3627	38587	I was a bit rusty but I didn't want to miss the elections back home.	I was a bit rusty but I didn't want to miss the elections back home.	1844823	1472031875063	1472031875176	o	79
3627	38587	I was a bit rusty but I didn't want to miss the elections back home.	I was a bit rusty but I didn't want to miss the elections back home.	1844831	1472031875254	1472031875358	n	78
3627	38587	I was a bit rusty but I didn't want to miss the elections back home.	I was a bit rusty but I didn't want to miss the elections back home.	1844838	1472031875405	1472031875507	s	83
3627	38587	I was a bit rusty but I didn't want to miss the elections back home.	I was a bit rusty but I didn't want to miss the elections back home.	1844849	1472031875664	1472031875760	 	32
3627	38587	I was a bit rusty but I didn't want to miss the elections back home.	I was a bit rusty but I didn't want to miss the elections back home.	1844898	1472031876031	1472031876141	b	66
3627	38587	I was a bit rusty but I didn't want to miss the elections back home.	I was a bit rusty but I didn't want to miss the elections back home.	1844904	1472031876188	1472031876308	a	65
3627	38587	I was a bit rusty but I didn't want to miss the elections back home.	I was a bit rusty but I didn't want to miss the elections back home.	1844911	1472031876433	1472031876525	c	67
3627	38587	I was a bit rusty but I didn't want to miss the elections back home.	I was a bit rusty but I didn't want to miss the elections back home.	1844916	1472031876541	1472031876641	k	75
3627	38587	I was a bit rusty but I didn't want to miss the elections back home.	I was a bit rusty but I didn't want to miss the elections back home.	1844921	1472031876672	1472031876788	 	32
3627	38587	I was a bit rusty but I didn't want to miss the elections back home.	I was a bit rusty but I didn't want to miss the elections back home.	1845085	1472031876867	1472031876958	h	72
3627	38587	I was a bit rusty but I didn't want to miss the elections back home.	I was a bit rusty but I didn't want to miss the elections back home.	1845090	1472031877005	1472031877107	o	79
3627	38587	I was a bit rusty but I didn't want to miss the elections back home.	I was a bit rusty but I didn't want to miss the elections back home.	1845095	1472031877185	1472031877227	n	78
3627	38587	I was a bit rusty but I didn't want to miss the elections back home.	I was a bit rusty but I didn't want to miss the elections back home.	1845097	1472031877290	1472031877374	e	69
3627	38587	I was a bit rusty but I didn't want to miss the elections back home.	I was a bit rusty but I didn't want to miss the elections back home.	1845101	1472031878064	1472031878108	BKSP	8
3627	38587	I was a bit rusty but I didn't want to miss the elections back home.	I was a bit rusty but I didn't want to miss the elections back home.	1845102	1472031878186	1472031878290	BKSP	8
3627	38587	I was a bit rusty but I didn't want to miss the elections back home.	I was a bit rusty but I didn't want to miss the elections back home.	1845104	1472031878946	1472031879037	m	77
3627	38587	I was a bit rusty but I didn't want to miss the elections back home.	I was a bit rusty but I didn't want to miss the elections back home.	1845177	1472031879151	1472031879238	e	69
3627	38587	I was a bit rusty but I didn't want to miss the elections back home.	I was a bit rusty but I didn't want to miss the elections back home.	1845181	1472031879566	1472031879654	.	190
3627	38623	See you next week.	See you next week.	1845625	1472031885597	1472031885946	SHIFT	16
3627	38623	See you next week.	See you next week.	1845630	1472031885832	1472031885961	S	83
3627	38623	See you next week.	See you next week.	1845635	1472031886086	1472031886177	e	69
3627	38623	See you next week.	See you next week.	1845640	1472031886240	1472031886343	e	69
3627	38623	See you next week.	See you next week.	1845648	1472031886437	1472031886543	 	32
3627	38623	See you next week.	See you next week.	1845652	1472031887045	1472031887126	y	89
3627	38623	See you next week.	See you next week.	1845682	1472031887205	1472031887307	o	79
3627	38623	See you next week.	See you next week.	1845686	1472031887370	1472031887461	u	85
3627	38623	See you next week.	See you next week.	1845694	1472031887539	1472031887677	 	32
3627	38623	See you next week.	See you next week.	1845698	1472031887611	1472031887724	n	78
3627	38623	See you next week.	See you next week.	1845704	1472031887755	1472031887858	e	69
3627	38623	See you next week.	See you next week.	1845808	1472031888001	1472031888108	x	88
3627	38623	See you next week.	See you next week.	1845812	1472031888295	1472031888377	t	84
3627	38623	See you next week.	See you next week.	1845815	1472031888814	1472031888907	 	32
3627	38623	See you next week.	See you next week.	1845819	1472031889157	1472031889257	w	87
3627	38623	See you next week.	See you next week.	1845824	1472031889366	1472031889441	e	69
3627	38623	See you next week.	See you next week.	1845893	1472031889496	1472031889590	e	69
3627	38623	See you next week.	See you next week.	1845898	1472031889730	1472031889805	k	75
3627	38623	See you next week.	See you next week.	1845902	1472031889986	1472031890089	.	190
3627	38640	The official agency SABA said Wednesday 25 civilians had been killed.	The official agency SABA said Wednesday 25 civilians had been killed.	1846260	1472031893555	1472031893869	SHIFT	16
3627	38640	The official agency SABA said Wednesday 25 civilians had been killed.	The official agency SABA said Wednesday 25 civilians had been killed.	1846264	1472031893790	1472031893885	T	84
3627	38640	The official agency SABA said Wednesday 25 civilians had been killed.	The official agency SABA said Wednesday 25 civilians had been killed.	1846269	1472031894041	1472031894134	h	72
3627	38640	The official agency SABA said Wednesday 25 civilians had been killed.	The official agency SABA said Wednesday 25 civilians had been killed.	1846274	1472031894150	1472031894249	e	69
3627	38640	The official agency SABA said Wednesday 25 civilians had been killed.	The official agency SABA said Wednesday 25 civilians had been killed.	1846281	1472031894328	1472031894432	 	32
3627	38640	The official agency SABA said Wednesday 25 civilians had been killed.	The official agency SABA said Wednesday 25 civilians had been killed.	1846291	1472031895043	1472031895148	o	79
3627	38640	The official agency SABA said Wednesday 25 civilians had been killed.	The official agency SABA said Wednesday 25 civilians had been killed.	1846319	1472031895242	1472031895346	f	70
3627	38640	The official agency SABA said Wednesday 25 civilians had been killed.	The official agency SABA said Wednesday 25 civilians had been killed.	1846324	1472031895393	1472031895497	f	70
3627	38640	The official agency SABA said Wednesday 25 civilians had been killed.	The official agency SABA said Wednesday 25 civilians had been killed.	1846330	1472031895576	1472031895649	i	73
3627	38640	The official agency SABA said Wednesday 25 civilians had been killed.	The official agency SABA said Wednesday 25 civilians had been killed.	1846336	1472031895665	1472031895763	c	67
3627	38640	The official agency SABA said Wednesday 25 civilians had been killed.	The official agency SABA said Wednesday 25 civilians had been killed.	1846341	1472031895795	1472031895880	i	73
3627	38640	The official agency SABA said Wednesday 25 civilians had been killed.	The official agency SABA said Wednesday 25 civilians had been killed.	1846389	1472031895928	1472031896031	a	65
3627	38640	The official agency SABA said Wednesday 25 civilians had been killed.	The official agency SABA said Wednesday 25 civilians had been killed.	1846397	1472031896110	1472031896197	l	76
3627	38640	The official agency SABA said Wednesday 25 civilians had been killed.	The official agency SABA said Wednesday 25 civilians had been killed.	1846405	1472031896338	1472031896430	 	32
3627	38640	The official agency SABA said Wednesday 25 civilians had been killed.	The official agency SABA said Wednesday 25 civilians had been killed.	1846413	1472031896492	1472031896597	a	65
3627	38640	The official agency SABA said Wednesday 25 civilians had been killed.	The official agency SABA said Wednesday 25 civilians had been killed.	1846419	1472031896753	1472031896846	g	71
3627	38640	The official agency SABA said Wednesday 25 civilians had been killed.	The official agency SABA said Wednesday 25 civilians had been killed.	1846457	1472031896899	1472031896997	e	69
3627	38640	The official agency SABA said Wednesday 25 civilians had been killed.	The official agency SABA said Wednesday 25 civilians had been killed.	1846460	1472031897044	1472031897160	n	78
3627	38640	The official agency SABA said Wednesday 25 civilians had been killed.	The official agency SABA said Wednesday 25 civilians had been killed.	1846462	1472031897192	1472031897294	c	67
3627	38640	The official agency SABA said Wednesday 25 civilians had been killed.	The official agency SABA said Wednesday 25 civilians had been killed.	1846467	1472031897372	1472031897461	y	89
3627	38640	The official agency SABA said Wednesday 25 civilians had been killed.	The official agency SABA said Wednesday 25 civilians had been killed.	1846472	1472031897601	1472031897710	 	32
3627	38640	The official agency SABA said Wednesday 25 civilians had been killed.	The official agency SABA said Wednesday 25 civilians had been killed.	1846612	1472031897805	1472031898799	SHIFT	16
3627	38640	The official agency SABA said Wednesday 25 civilians had been killed.	The official agency SABA said Wednesday 25 civilians had been killed.	1846597	1472031897976	1472031898093	S	83
3627	38640	The official agency SABA said Wednesday 25 civilians had been killed.	The official agency SABA said Wednesday 25 civilians had been killed.	1846603	1472031898140	1472031898260	A	65
3627	38640	The official agency SABA said Wednesday 25 civilians had been killed.	The official agency SABA said Wednesday 25 civilians had been killed.	1846607	1472031898432	1472031898605	B	66
3627	38640	The official agency SABA said Wednesday 25 civilians had been killed.	The official agency SABA said Wednesday 25 civilians had been killed.	1846610	1472031898605	1472031898705	A	65
3627	38640	The official agency SABA said Wednesday 25 civilians had been killed.	The official agency SABA said Wednesday 25 civilians had been killed.	1846613	1472031899049	1472031899158	 	32
3627	38640	The official agency SABA said Wednesday 25 civilians had been killed.	The official agency SABA said Wednesday 25 civilians had been killed.	1846681	1472031899347	1472031899490	s	83
3627	38640	The official agency SABA said Wednesday 25 civilians had been killed.	The official agency SABA said Wednesday 25 civilians had been killed.	1846686	1472031899521	1472031899656	a	65
3627	38640	The official agency SABA said Wednesday 25 civilians had been killed.	The official agency SABA said Wednesday 25 civilians had been killed.	1846689	1472031899734	1472031899825	i	73
3627	38640	The official agency SABA said Wednesday 25 civilians had been killed.	The official agency SABA said Wednesday 25 civilians had been killed.	1846692	1472031899888	1472031899975	d	68
3627	38640	The official agency SABA said Wednesday 25 civilians had been killed.	The official agency SABA said Wednesday 25 civilians had been killed.	1846694	1472031900115	1472031900209	 	32
3627	38640	The official agency SABA said Wednesday 25 civilians had been killed.	The official agency SABA said Wednesday 25 civilians had been killed.	1846895	1472031900374	1472031900804	SHIFT	16
3627	38640	The official agency SABA said Wednesday 25 civilians had been killed.	The official agency SABA said Wednesday 25 civilians had been killed.	1846894	1472031900655	1472031900788	W	87
3627	38640	The official agency SABA said Wednesday 25 civilians had been killed.	The official agency SABA said Wednesday 25 civilians had been killed.	1846899	1472031901932	1472031902024	e	69
3627	38640	The official agency SABA said Wednesday 25 civilians had been killed.	The official agency SABA said Wednesday 25 civilians had been killed.	1846904	1472031902164	1472031902271	d	68
3627	38640	The official agency SABA said Wednesday 25 civilians had been killed.	The official agency SABA said Wednesday 25 civilians had been killed.	1846910	1472031903585	1472031903703	n	78
3627	38640	The official agency SABA said Wednesday 25 civilians had been killed.	The official agency SABA said Wednesday 25 civilians had been killed.	1846918	1472031903734	1472031903835	e	69
3627	38640	The official agency SABA said Wednesday 25 civilians had been killed.	The official agency SABA said Wednesday 25 civilians had been killed.	1846985	1472031903919	1472031904050	s	83
3627	38640	The official agency SABA said Wednesday 25 civilians had been killed.	The official agency SABA said Wednesday 25 civilians had been killed.	1846991	1472031904160	1472031904282	d	68
3627	38640	The official agency SABA said Wednesday 25 civilians had been killed.	The official agency SABA said Wednesday 25 civilians had been killed.	1846997	1472031904297	1472031904417	a	65
3627	38640	The official agency SABA said Wednesday 25 civilians had been killed.	The official agency SABA said Wednesday 25 civilians had been killed.	1847001	1472031904761	1472031904852	y	89
3627	38640	The official agency SABA said Wednesday 25 civilians had been killed.	The official agency SABA said Wednesday 25 civilians had been killed.	1847005	1472031904977	1472031905099	 	32
3627	38640	The official agency SABA said Wednesday 25 civilians had been killed.	The official agency SABA said Wednesday 25 civilians had been killed.	1847112	1472031905241	1472031905336	2	50
3627	38640	The official agency SABA said Wednesday 25 civilians had been killed.	The official agency SABA said Wednesday 25 civilians had been killed.	1847116	1472031905617	1472031905701	5	53
3627	38640	The official agency SABA said Wednesday 25 civilians had been killed.	The official agency SABA said Wednesday 25 civilians had been killed.	1847122	1472031906029	1472031906132	 	32
3627	38640	The official agency SABA said Wednesday 25 civilians had been killed.	The official agency SABA said Wednesday 25 civilians had been killed.	1847128	1472031906563	1472031906664	c	67
3627	38640	The official agency SABA said Wednesday 25 civilians had been killed.	The official agency SABA said Wednesday 25 civilians had been killed.	1847135	1472031906789	1472031906897	i	73
3627	38640	The official agency SABA said Wednesday 25 civilians had been killed.	The official agency SABA said Wednesday 25 civilians had been killed.	1847196	1472031907008	1472031907098	v	86
3627	38640	The official agency SABA said Wednesday 25 civilians had been killed.	The official agency SABA said Wednesday 25 civilians had been killed.	1847199	1472031907129	1472031907199	i	73
3627	38640	The official agency SABA said Wednesday 25 civilians had been killed.	The official agency SABA said Wednesday 25 civilians had been killed.	1847201	1472031907355	1472031907449	l	76
3627	38640	The official agency SABA said Wednesday 25 civilians had been killed.	The official agency SABA said Wednesday 25 civilians had been killed.	1847204	1472031907559	1472031907662	i	73
3627	38640	The official agency SABA said Wednesday 25 civilians had been killed.	The official agency SABA said Wednesday 25 civilians had been killed.	1847207	1472031907787	1472031907942	a	65
3627	38640	The official agency SABA said Wednesday 25 civilians had been killed.	The official agency SABA said Wednesday 25 civilians had been killed.	1847319	1472031908554	1472031908676	n	78
3627	38640	The official agency SABA said Wednesday 25 civilians had been killed.	The official agency SABA said Wednesday 25 civilians had been killed.	1847320	1472031908692	1472031908811	s	83
3627	38640	The official agency SABA said Wednesday 25 civilians had been killed.	The official agency SABA said Wednesday 25 civilians had been killed.	1847323	1472031908842	1472031908962	 	32
3627	38640	The official agency SABA said Wednesday 25 civilians had been killed.	The official agency SABA said Wednesday 25 civilians had been killed.	1847327	1472031909149	1472031909246	h	72
3627	38640	The official agency SABA said Wednesday 25 civilians had been killed.	The official agency SABA said Wednesday 25 civilians had been killed.	1847331	1472031909262	1472031909394	a	65
3627	38640	The official agency SABA said Wednesday 25 civilians had been killed.	The official agency SABA said Wednesday 25 civilians had been killed.	1847405	1472031909376	1472031909509	d	68
3627	38640	The official agency SABA said Wednesday 25 civilians had been killed.	The official agency SABA said Wednesday 25 civilians had been killed.	1847411	1472031909525	1472031909627	 	32
3627	38640	The official agency SABA said Wednesday 25 civilians had been killed.	The official agency SABA said Wednesday 25 civilians had been killed.	1847418	1472031909799	1472031909909	b	66
3627	38640	The official agency SABA said Wednesday 25 civilians had been killed.	The official agency SABA said Wednesday 25 civilians had been killed.	1847426	1472031910019	1472031910119	e	69
3627	38640	The official agency SABA said Wednesday 25 civilians had been killed.	The official agency SABA said Wednesday 25 civilians had been killed.	1847432	1472031910181	1472031910276	e	69
3627	38640	The official agency SABA said Wednesday 25 civilians had been killed.	The official agency SABA said Wednesday 25 civilians had been killed.	1847438	1472031910292	1472031910392	n	78
3627	38640	The official agency SABA said Wednesday 25 civilians had been killed.	The official agency SABA said Wednesday 25 civilians had been killed.	1847491	1472031910503	1472031910609	 	32
3627	38640	The official agency SABA said Wednesday 25 civilians had been killed.	The official agency SABA said Wednesday 25 civilians had been killed.	1847494	1472031910829	1472031910926	k	75
3627	38640	The official agency SABA said Wednesday 25 civilians had been killed.	The official agency SABA said Wednesday 25 civilians had been killed.	1847497	1472031911019	1472031911109	i	73
3627	38640	The official agency SABA said Wednesday 25 civilians had been killed.	The official agency SABA said Wednesday 25 civilians had been killed.	1847500	1472031911218	1472031911309	l	76
3627	38640	The official agency SABA said Wednesday 25 civilians had been killed.	The official agency SABA said Wednesday 25 civilians had been killed.	1847502	1472031911371	1472031911459	l	76
3627	38640	The official agency SABA said Wednesday 25 civilians had been killed.	The official agency SABA said Wednesday 25 civilians had been killed.	1847713	1472031911459	1472031911558	e	69
3627	38640	The official agency SABA said Wednesday 25 civilians had been killed.	The official agency SABA said Wednesday 25 civilians had been killed.	1847714	1472031911668	1472031911758	d	68
3627	38640	The official agency SABA said Wednesday 25 civilians had been killed.	The official agency SABA said Wednesday 25 civilians had been killed.	1847716	1472031911915	1472031911992	.	190
3627	38671	Most recent surveys put them in a dead heat.	Most recent surveys put them in a dead heat.	1848004	1472031918157	1472031918368	SHIFT	16
3627	38671	Most recent surveys put them in a dead heat.	Most recent surveys put them in a dead heat.	1848009	1472031918298	1472031918383	M	77
3627	38671	Most recent surveys put them in a dead heat.	Most recent surveys put them in a dead heat.	1848014	1472031918493	1472031918597	o	79
3627	38671	Most recent surveys put them in a dead heat.	Most recent surveys put them in a dead heat.	1848019	1472031918831	1472031918962	t	84
3627	38671	Most recent surveys put them in a dead heat.	Most recent surveys put them in a dead heat.	1848022	1472031919134	1472031919246	 	32
3627	38671	Most recent surveys put them in a dead heat.	Most recent surveys put them in a dead heat.	1848026	1472031919653	1472031919715	BKSP	8
3627	38671	Most recent surveys put them in a dead heat.	Most recent surveys put them in a dead heat.	1848028	1472031919778	1472031919895	BKSP	8
3627	38671	Most recent surveys put them in a dead heat.	Most recent surveys put them in a dead heat.	1848031	1472031920035	1472031920192	s	83
3627	38671	Most recent surveys put them in a dead heat.	Most recent surveys put them in a dead heat.	1848104	1472031920323	1472031920428	t	84
3627	38671	Most recent surveys put them in a dead heat.	Most recent surveys put them in a dead heat.	1848113	1472031920569	1472031920693	 	32
3627	38671	Most recent surveys put them in a dead heat.	Most recent surveys put them in a dead heat.	1848116	1472031920958	1472031921123	r	82
3627	38671	Most recent surveys put them in a dead heat.	Most recent surveys put them in a dead heat.	1848119	1472031921092	1472031921178	e	69
3627	38671	Most recent surveys put them in a dead heat.	Most recent surveys put them in a dead heat.	1848122	1472031921319	1472031921409	c	67
3627	38671	Most recent surveys put them in a dead heat.	Most recent surveys put them in a dead heat.	1848169	1472031921526	1472031921626	e	69
3627	38671	Most recent surveys put them in a dead heat.	Most recent surveys put them in a dead heat.	1848172	1472031921657	1472031921760	n	78
3627	38671	Most recent surveys put them in a dead heat.	Most recent surveys put them in a dead heat.	1848177	1472031921809	1472031921894	t	84
3627	38671	Most recent surveys put them in a dead heat.	Most recent surveys put them in a dead heat.	1848183	1472031922034	1472031922126	 	32
3627	38671	Most recent surveys put them in a dead heat.	Most recent surveys put them in a dead heat.	1848190	1472031922251	1472031922405	s	83
3627	38671	Most recent surveys put them in a dead heat.	Most recent surveys put them in a dead heat.	1848246	1472031922690	1472031922760	u	85
3627	38671	Most recent surveys put them in a dead heat.	Most recent surveys put them in a dead heat.	1848249	1472031922806	1472031922894	r	82
3627	38671	Most recent surveys put them in a dead heat.	Most recent surveys put them in a dead heat.	1848254	1472031923066	1472031923174	v	86
3627	38671	Most recent surveys put them in a dead heat.	Most recent surveys put them in a dead heat.	1848259	1472031923283	1472031923426	e	69
3627	38671	Most recent surveys put them in a dead heat.	Most recent surveys put them in a dead heat.	1848665	1472031923375	1472031923510	r	82
3627	38671	Most recent surveys put them in a dead heat.	Most recent surveys put them in a dead heat.	1848668	1472031923603	1472031923707	y	89
3627	38671	Most recent surveys put them in a dead heat.	Most recent surveys put them in a dead heat.	1848670	1472031923785	1472031923890	s	83
3627	38671	Most recent surveys put them in a dead heat.	Most recent surveys put them in a dead heat.	1848673	1472031924171	1472031924290	 	32
3627	38671	Most recent surveys put them in a dead heat.	Most recent surveys put them in a dead heat.	1848676	1472031928714	1472031928801	BKSP	8
3627	38671	Most recent surveys put them in a dead heat.	Most recent surveys put them in a dead heat.	1848681	1472031930409	1472031930531	p	80
3627	38671	Most recent surveys put them in a dead heat.	Most recent surveys put them in a dead heat.	1848687	1472031930750	1472031930864	u	85
3627	38671	Most recent surveys put them in a dead heat.	Most recent surveys put them in a dead heat.	1848720	1472031930958	1472031931063	t	84
3627	38671	Most recent surveys put them in a dead heat.	Most recent surveys put them in a dead heat.	1848725	1472031931156	1472031931279	 	32
3627	38671	Most recent surveys put them in a dead heat.	Most recent surveys put them in a dead heat.	1848730	1472031931529	1472031931628	t	84
3627	38671	Most recent surveys put them in a dead heat.	Most recent surveys put them in a dead heat.	1848734	1472031931644	1472031931746	h	72
3627	38671	Most recent surveys put them in a dead heat.	Most recent surveys put them in a dead heat.	1848738	1472031931777	1472031931862	e	69
3627	38671	Most recent surveys put them in a dead heat.	Most recent surveys put them in a dead heat.	1848825	1472031931948	1472031932045	m	77
3627	38671	Most recent surveys put them in a dead heat.	Most recent surveys put them in a dead heat.	1848827	1472031932232	1472031932344	 	32
3627	38671	Most recent surveys put them in a dead heat.	Most recent surveys put them in a dead heat.	1848831	1472031932501	1472031932580	i	73
3627	38671	Most recent surveys put them in a dead heat.	Most recent surveys put them in a dead heat.	1848834	1472031932752	1472031932830	n	78
3627	38671	Most recent surveys put them in a dead heat.	Most recent surveys put them in a dead heat.	1848836	1472031933236	1472031933360	 	32
3627	38671	Most recent surveys put them in a dead heat.	Most recent surveys put them in a dead heat.	1848922	1472031933486	1472031933608	a	65
3627	38671	Most recent surveys put them in a dead heat.	Most recent surveys put them in a dead heat.	1848926	1472031933655	1472031933759	 	32
3627	38671	Most recent surveys put them in a dead heat.	Most recent surveys put them in a dead heat.	1848929	1472031933909	1472031934024	d	68
3627	38671	Most recent surveys put them in a dead heat.	Most recent surveys put them in a dead heat.	1848932	1472031934463	1472031934559	e	69
3627	38671	Most recent surveys put them in a dead heat.	Most recent surveys put them in a dead heat.	1848936	1472031934621	1472031934771	a	65
3627	38671	Most recent surveys put them in a dead heat.	Most recent surveys put them in a dead heat.	1848962	1472031934771	1472031934905	d	68
3627	38671	Most recent surveys put them in a dead heat.	Most recent surveys put them in a dead heat.	1848966	1472031935047	1472031935143	 	32
3627	38671	Most recent surveys put them in a dead heat.	Most recent surveys put them in a dead heat.	1848969	1472031935377	1472031935478	h	72
3627	38671	Most recent surveys put them in a dead heat.	Most recent surveys put them in a dead heat.	1848973	1472031935442	1472031935609	e	69
3627	38671	Most recent surveys put them in a dead heat.	Most recent surveys put them in a dead heat.	1849042	1472031935556	1472031935736	a	65
3627	38671	Most recent surveys put them in a dead heat.	Most recent surveys put them in a dead heat.	1849044	1472031935736	1472031935824	t	84
3627	38671	Most recent surveys put them in a dead heat.	Most recent surveys put them in a dead heat.	1849047	1472031936591	1472031936689	.	190
3627	38700	I want to thank everyone involved.	I want to thank everyone involved.	1849268	1472031940022	1472031940233	SHIFT	16
3627	38700	I want to thank everyone involved.	I want to thank everyone involved.	1849271	1472031940180	1472031940268	I	73
3627	38700	I want to thank everyone involved.	I want to thank everyone involved.	1849273	1472031940362	1472031940484	 	32
3627	38700	I want to thank everyone involved.	I want to thank everyone involved.	1849274	1472031940499	1472031940653	w	87
3627	38700	I want to thank everyone involved.	I want to thank everyone involved.	1849275	1472031940601	1472031940798	a	65
3627	38700	I want to thank everyone involved.	I want to thank everyone involved.	1849338	1472031940700	1472031940798	n	78
3627	38700	I want to thank everyone involved.	I want to thank everyone involved.	1849343	1472031940847	1472031940949	t	84
3627	38700	I want to thank everyone involved.	I want to thank everyone involved.	1849348	1472031941105	1472031941215	 	32
3627	38700	I want to thank everyone involved.	I want to thank everyone involved.	1849352	1472031941325	1472031941416	t	84
3627	38700	I want to thank everyone involved.	I want to thank everyone involved.	1849354	1472031941447	1472031941549	o	79
3627	38700	I want to thank everyone involved.	I want to thank everyone involved.	1849358	1472031941580	1472031941682	 	32
3627	38700	I want to thank everyone involved.	I want to thank everyone involved.	1849385	1472031941666	1472031941780	t	84
3627	38700	I want to thank everyone involved.	I want to thank everyone involved.	1849391	1472031941780	1472031941865	h	72
3627	38700	I want to thank everyone involved.	I want to thank everyone involved.	1849394	1472031941865	1472031941980	a	65
3627	38700	I want to thank everyone involved.	I want to thank everyone involved.	1849400	1472031942027	1472031942116	n	78
3627	38700	I want to thank everyone involved.	I want to thank everyone involved.	1849406	1472031942225	1472031942315	k	75
3627	38700	I want to thank everyone involved.	I want to thank everyone involved.	1849412	1472031942493	1472031942597	 	32
3627	38700	I want to thank everyone involved.	I want to thank everyone involved.	1849469	1472031942975	1472031943079	e	69
3627	38700	I want to thank everyone involved.	I want to thank everyone involved.	1849470	1472031943236	1472031943345	v	86
3627	38700	I want to thank everyone involved.	I want to thank everyone involved.	1849473	1472031943408	1472031943550	e	69
3627	38700	I want to thank everyone involved.	I want to thank everyone involved.	1849479	1472031943497	1472031943612	r	82
3627	38700	I want to thank everyone involved.	I want to thank everyone involved.	1849482	1472031943753	1472031943847	y	89
3627	38700	I want to thank everyone involved.	I want to thank everyone involved.	1849622	1472031944008	1472031944081	o	79
3627	38700	I want to thank everyone involved.	I want to thank everyone involved.	1849624	1472031944190	1472031944294	n	78
3627	38700	I want to thank everyone involved.	I want to thank everyone involved.	1849629	1472031944341	1472031944428	e	69
3627	38700	I want to thank everyone involved.	I want to thank everyone involved.	1849631	1472031945305	1472031945409	 	32
3627	38700	I want to thank everyone involved.	I want to thank everyone involved.	1849634	1472031945926	1472031946012	i	73
3627	38700	I want to thank everyone involved.	I want to thank everyone involved.	1849744	1472031946138	1472031946225	n	78
3627	38700	I want to thank everyone involved.	I want to thank everyone involved.	1849747	1472031947447	1472031947542	v	86
3627	38700	I want to thank everyone involved.	I want to thank everyone involved.	1849749	1472031947652	1472031947725	o	79
3627	38700	I want to thank everyone involved.	I want to thank everyone involved.	1849752	1472031947896	1472031947990	l	76
3627	38700	I want to thank everyone involved.	I want to thank everyone involved.	1849754	1472031948491	1472031948605	v	86
3627	38700	I want to thank everyone involved.	I want to thank everyone involved.	1849925	1472031948686	1472031948774	e	69
3627	38700	I want to thank everyone involved.	I want to thank everyone involved.	1849927	1472031948883	1472031948973	d	68
3627	38700	I want to thank everyone involved.	I want to thank everyone involved.	1849931	1472031949723	1472031949821	.	190
3627	38719	Mikey is invited also.	Mikey is invited also.	1850184	1472031954165	1472031954432	SHIFT	16
3627	38719	Mikey is invited also.	Mikey is invited also.	1850188	1472031954353	1472031954432	M	77
3627	38719	Mikey is invited also.	Mikey is invited also.	1850192	1472031954557	1472031954632	i	73
3627	38719	Mikey is invited also.	Mikey is invited also.	1850198	1472031954773	1472031954817	k	75
3627	38719	Mikey is invited also.	Mikey is invited also.	1850206	1472031954832	1472031954950	e	69
3627	38719	Mikey is invited also.	Mikey is invited also.	1850209	1472031955090	1472031955196	y	89
3627	38719	Mikey is invited also.	Mikey is invited also.	1850390	1472031955403	1472031955512	 	32
3627	38719	Mikey is invited also.	Mikey is invited also.	1850394	1472031956045	1472031956131	i	73
3627	38719	Mikey is invited also.	Mikey is invited also.	1850397	1472031957366	1472031957477	s	83
3627	38719	Mikey is invited also.	Mikey is invited also.	1850399	1472031957712	1472031957825	 	32
3627	38719	Mikey is invited also.	Mikey is invited also.	1850402	1472031958342	1472031958425	i	73
3627	38719	Mikey is invited also.	Mikey is invited also.	1850443	1472031958535	1472031958639	n	78
3627	38719	Mikey is invited also.	Mikey is invited also.	1850448	1472031958936	1472031959041	v	86
3627	38719	Mikey is invited also.	Mikey is invited also.	1850455	1472031959134	1472031959240	i	73
3627	38719	Mikey is invited also.	Mikey is invited also.	1850460	1472031959271	1472031959432	t	84
3627	38719	Mikey is invited also.	Mikey is invited also.	1850519	1472031959388	1472031959491	e	69
3627	38719	Mikey is invited also.	Mikey is invited also.	1850522	1472031959616	1472031959737	d	68
3627	38719	Mikey is invited also.	Mikey is invited also.	1850524	1472031959815	1472031959923	 	32
3627	38719	Mikey is invited also.	Mikey is invited also.	1850526	1472031960190	1472031960319	a	65
3627	38719	Mikey is invited also.	Mikey is invited also.	1850530	1472031960412	1472031960521	l	76
3627	38719	Mikey is invited also.	Mikey is invited also.	1850533	1472031960568	1472031960672	s	83
3627	38719	Mikey is invited also.	Mikey is invited also.	1850800	1472031960720	1472031960790	o	79
3627	38719	Mikey is invited also.	Mikey is invited also.	1850801	1472031963639	1472031963720	.	190
3627	38741	There are some issues on which we agree.	There are some issues on which we agree.	1851135	1472031969726	1472031970094	SHIFT	16
3627	38741	There are some issues on which we agree.	There are some issues on which we agree.	1851140	1472031970024	1472031970110	T	84
3627	38741	There are some issues on which we agree.	There are some issues on which we agree.	1851145	1472031970689	1472031970821	e	69
3627	38741	There are some issues on which we agree.	There are some issues on which we agree.	1851149	1472031970837	1472031970956	h	72
3627	38741	There are some issues on which we agree.	There are some issues on which we agree.	1851156	1472031970940	1472031971088	r	82
3627	38741	There are some issues on which we agree.	There are some issues on which we agree.	1851187	1472031971040	1472031971140	e	69
3627	38741	There are some issues on which we agree.	There are some issues on which we agree.	1851190	1472031971218	1472031971348	 	32
3627	38741	There are some issues on which we agree.	There are some issues on which we agree.	1851193	1472031971323	1472031971470	a	65
3627	38741	There are some issues on which we agree.	There are some issues on which we agree.	1851199	1472031971501	1472031971659	r	82
3627	38741	There are some issues on which we agree.	There are some issues on which we agree.	1851210	1472031971606	1472031971726	e	69
3627	38741	There are some issues on which we agree.	There are some issues on which we agree.	1851620	1472031971706	1472031971821	 	32
3627	38741	There are some issues on which we agree.	There are some issues on which we agree.	1851622	1472031971837	1472031971975	s	83
3627	38741	There are some issues on which we agree.	There are some issues on which we agree.	1851626	1472031971938	1472031972038	o	79
3627	38741	There are some issues on which we agree.	There are some issues on which we agree.	1851629	1472031972398	1472031972505	e	69
3627	38741	There are some issues on which we agree.	There are some issues on which we agree.	1851631	1472031972771	1472031972948	HOME	36
3627	38741	There are some issues on which we agree.	There are some issues on which we agree.	1851634	1472031977415	1472031977516	h	72
3627	38741	There are some issues on which we agree.	There are some issues on which we agree.	1851638	1472031977594	1472031977738	e	69
3627	38741	There are some issues on which we agree.	There are some issues on which we agree.	1852058	1472031977712	1472031977830	r	82
3627	38741	There are some issues on which we agree.	There are some issues on which we agree.	1852061	1472031978501	1472031978611	e	69
3627	38741	There are some issues on which we agree.	There are some issues on which we agree.	1852063	1472031979504	1472031979580	BKSP	8
3627	38741	There are some issues on which we agree.	There are some issues on which we agree.	1852066	1472031979658	1472031979744	BKSP	8
3627	38741	There are some issues on which we agree.	There are some issues on which we agree.	1852070	1472031982145	1472031982243	BKSP	8
3627	38741	There are some issues on which we agree.	There are some issues on which we agree.	1852072	1472031982618	1472031982743	m	77
3627	38741	There are some issues on which we agree.	There are some issues on which we agree.	1852074	1472031982790	1472031982874	e	69
3627	38741	There are some issues on which we agree.	There are some issues on which we agree.	1852075	1472031983108	1472031983227	 	32
3627	38741	There are some issues on which we agree.	There are some issues on which we agree.	1852077	1472031984145	1472031984238	i	73
3627	38741	There are some issues on which we agree.	There are some issues on which we agree.	1852100	1472031984365	1472031984454	s	83
3627	38741	There are some issues on which we agree.	There are some issues on which we agree.	1852110	1472031984532	1472031984637	s	83
3627	38741	There are some issues on which we agree.	There are some issues on which we agree.	1852117	1472031984699	1472031984809	u	85
3627	38741	There are some issues on which we agree.	There are some issues on which we agree.	1852329	1472031984788	1472031984873	e	82
3627	38741	There are some issues on which we agree.	There are some issues on which we agree.	1852334	1472031985954	1472031986038	BKSP	8
3627	38741	There are some issues on which we agree.	There are some issues on which we agree.	1852339	1472031986116	1472031986219	BKSP	8
3627	38741	There are some issues on which we agree.	There are some issues on which we agree.	1852344	1472031987345	1472031987467	e	69
3627	38741	There are some issues on which we agree.	There are some issues on which we agree.	1852351	1472031987499	1472031987630	s	83
3627	38741	There are some issues on which we agree.	There are some issues on which we agree.	1852355	1472031987693	1472031987799	 	32
3627	38741	There are some issues on which we agree.	There are some issues on which we agree.	1852358	1472031987877	1472031987983	o	79
3627	38741	There are some issues on which we agree.	There are some issues on which we agree.	1852365	1472031988108	1472031988184	n	78
3627	38741	There are some issues on which we agree.	There are some issues on which we agree.	1852417	1472031988341	1472031988448	 	32
3627	38741	There are some issues on which we agree.	There are some issues on which we agree.	1852418	1472031988792	1472031988913	w	87
3627	38741	There are some issues on which we agree.	There are some issues on which we agree.	1852419	1472031988976	1472031989065	h	72
3627	38741	There are some issues on which we agree.	There are some issues on which we agree.	1852421	1472031989128	1472031989230	i	73
3627	38741	There are some issues on which we agree.	There are some issues on which we agree.	1852423	1472031989246	1472031989347	c	67
3627	38741	There are some issues on which we agree.	There are some issues on which we agree.	1852520	1472031989541	1472031989631	h	72
3627	38741	There are some issues on which we agree.	There are some issues on which we agree.	1852527	1472031989822	1472031989914	 	32
3627	38741	There are some issues on which we agree.	There are some issues on which we agree.	1852534	1472031990336	1472031990492	w	87
3627	38741	There are some issues on which we agree.	There are some issues on which we agree.	1852538	1472031990617	1472031990758	e	69
3627	38741	There are some issues on which we agree.	There are some issues on which we agree.	1852546	1472031990805	1472031990928	 	32
3627	38741	There are some issues on which we agree.	There are some issues on which we agree.	1852605	1472031990928	1472031991074	a	65
3627	38741	There are some issues on which we agree.	There are some issues on which we agree.	1852607	1472031991152	1472031991260	g	71
3627	38741	There are some issues on which we agree.	There are some issues on which we agree.	1852609	1472031991417	1472031991527	r	82
3627	38741	There are some issues on which we agree.	There are some issues on which we agree.	1852613	1472031991636	1472031991743	e	69
3627	38741	There are some issues on which we agree.	There are some issues on which we agree.	1852618	1472031991805	1472031991895	e	69
3627	38741	There are some issues on which we agree.	There are some issues on which we agree.	1852720	1472031993163	1472031993260	.	190
3627	38779	We need to talk about this month.	We need to talk about this month.	1853034	1472031997321	1472031997622	SHIFT	16
3627	38779	We need to talk about this month.	We need to talk about this month.	1853038	1472031997555	1472031997685	W	87
3627	38779	We need to talk about this month.	We need to talk about this month.	1853042	1472031997841	1472031997951	e	69
3627	38779	We need to talk about this month.	We need to talk about this month.	1853047	1472031998029	1472031998151	 	32
3627	38779	We need to talk about this month.	We need to talk about this month.	1853051	1472031998213	1472031998317	n	78
3627	38779	We need to talk about this month.	We need to talk about this month.	1853054	1472031998317	1472031998419	e	69
3627	38779	We need to talk about this month.	We need to talk about this month.	1853129	1472031998498	1472031998602	e	69
3627	38779	We need to talk about this month.	We need to talk about this month.	1853133	1472031998712	1472031998832	d	68
3627	38779	We need to talk about this month.	We need to talk about this month.	1853136	1472031998942	1472031999050	 	32
3627	38779	We need to talk about this month.	We need to talk about this month.	1853140	1472031999206	1472031999300	t	84
3627	38779	We need to talk about this month.	We need to talk about this month.	1853144	1472031999440	1472031999532	o	79
3627	38779	We need to talk about this month.	We need to talk about this month.	1853163	1472031999611	1472031999701	 	32
3627	38779	We need to talk about this month.	We need to talk about this month.	1853166	1472031999644	1472031999824	t	84
3627	38779	We need to talk about this month.	We need to talk about this month.	1853171	1472031999781	1472031999921	a	65
3627	38779	We need to talk about this month.	We need to talk about this month.	1853179	1472031999899	1472031999999	l	76
3627	38779	We need to talk about this month.	We need to talk about this month.	1853184	1472032000124	1472032000225	k	75
3627	38779	We need to talk about this month.	We need to talk about this month.	1853262	1472032000354	1472032000464	 	32
3627	38779	We need to talk about this month.	We need to talk about this month.	1853266	1472032000511	1472032000631	a	65
3627	38779	We need to talk about this month.	We need to talk about this month.	1853271	1472032000942	1472032001031	b	66
3627	38779	We need to talk about this month.	We need to talk about this month.	1853279	1472032001062	1472032001164	o	79
3627	38779	We need to talk about this month.	We need to talk about this month.	1853284	1472032001320	1472032001414	u	85
3627	38779	We need to talk about this month.	We need to talk about this month.	1853418	1472032001527	1472032001630	t	84
3627	38779	We need to talk about this month.	We need to talk about this month.	1853422	1472032001817	1472032001929	 	32
3627	38779	We need to talk about this month.	We need to talk about this month.	1853424	1472032002899	1472032002965	t	84
3627	38779	We need to talk about this month.	We need to talk about this month.	1853426	1472032002965	1472032003045	h	72
3627	38779	We need to talk about this month.	We need to talk about this month.	1853429	1472032003107	1472032003203	i	73
3627	38779	We need to talk about this month.	We need to talk about this month.	1853454	1472032003179	1472032003279	s	83
3627	38779	We need to talk about this month.	We need to talk about this month.	1853456	1472032003279	1472032003413	 	32
3627	38779	We need to talk about this month.	We need to talk about this month.	1853460	1472032003362	1472032003475	m	77
3627	38779	We need to talk about this month.	We need to talk about this month.	1853465	1472032003569	1472032003676	o	79
3627	38779	We need to talk about this month.	We need to talk about this month.	1853469	1472032003754	1472032003860	n	78
3627	38779	We need to talk about this month.	We need to talk about this month.	1853473	1472032003891	1472032003978	t	84
3627	38779	We need to talk about this month.	We need to talk about this month.	1853597	1472032004026	1472032004111	h	72
3627	38779	We need to talk about this month.	We need to talk about this month.	1853601	1472032005113	1472032005194	.	190
