PARTICIPANT_ID	TEST_SECTION_ID	SENTENCE	USER_INPUT	KEYSTROKE_ID	PRESS_TIME	RELEASE_TIME	LETTER	KEYCODE
3851	40761	Surely we can cover this from within Virgo's team?	Surely we can cover this from within Virgo's team?	1946113	1471975898135	1471975898661	SHIFT	16
3851	40761	Surely we can cover this from within Virgo's team?	Surely we can cover this from within Virgo's team?	1946111	1471975898389	1471975898642	S	83
3851	40761	Surely we can cover this from within Virgo's team?	Surely we can cover this from within Virgo's team?	1946115	1471975899258	1471975899440	j	74
3851	40761	Surely we can cover this from within Virgo's team?	Surely we can cover this from within Virgo's team?	1946117	1471975899829	1471975899954	BKSP	8
3851	40761	Surely we can cover this from within Virgo's team?	Surely we can cover this from within Virgo's team?	1946120	1471975900142	1471975900268	u	85
3851	40761	Surely we can cover this from within Virgo's team?	Surely we can cover this from within Virgo's team?	1946123	1471975900378	1471975900509	r	82
3851	40761	Surely we can cover this from within Virgo's team?	Surely we can cover this from within Virgo's team?	1946128	1471975900747	1471975900898	e	69
3851	40761	Surely we can cover this from within Virgo's team?	Surely we can cover this from within Virgo's team?	1946325	1471975901290	1471975901418	;	186
3851	40761	Surely we can cover this from within Virgo's team?	Surely we can cover this from within Virgo's team?	1946326	1471975901666	1471975901786	u	85
3851	40761	Surely we can cover this from within Virgo's team?	Surely we can cover this from within Virgo's team?	1946328	1471975903548	1471975903679	BKSP	8
3851	40761	Surely we can cover this from within Virgo's team?	Surely we can cover this from within Virgo's team?	1946330	1471975903772	1471975903857	BKSP	8
3851	40761	Surely we can cover this from within Virgo's team?	Surely we can cover this from within Virgo's team?	1946332	1471975904176	1471975904323	l	76
3851	40761	Surely we can cover this from within Virgo's team?	Surely we can cover this from within Virgo's team?	1946334	1471975904571	1471975904662	y	89
3851	40761	Surely we can cover this from within Virgo's team?	Surely we can cover this from within Virgo's team?	1946335	1471975904990	1471975905126	 	32
3851	40761	Surely we can cover this from within Virgo's team?	Surely we can cover this from within Virgo's team?	1946356	1471975905225	1471975905361	w	87
3851	40761	Surely we can cover this from within Virgo's team?	Surely we can cover this from within Virgo's team?	1946357	1471975905325	1471975905481	e	69
3851	40761	Surely we can cover this from within Virgo's team?	Surely we can cover this from within Virgo's team?	1946358	1471975905460	1471975905601	 	32
3851	40761	Surely we can cover this from within Virgo's team?	Surely we can cover this from within Virgo's team?	1946360	1471975905719	1471975905915	c	67
3851	40761	Surely we can cover this from within Virgo's team?	Surely we can cover this from within Virgo's team?	1946388	1471975905855	1471975905995	a	65
3851	40761	Surely we can cover this from within Virgo's team?	Surely we can cover this from within Virgo's team?	1946391	1471975905964	1471975906125	n	78
3851	40761	Surely we can cover this from within Virgo's team?	Surely we can cover this from within Virgo's team?	1946393	1471975906095	1471975906255	 	32
3851	40761	Surely we can cover this from within Virgo's team?	Surely we can cover this from within Virgo's team?	1946395	1471975906319	1471975906485	c	67
3851	40761	Surely we can cover this from within Virgo's team?	Surely we can cover this from within Virgo's team?	1946397	1471975906464	1471975906580	o	79
3851	40761	Surely we can cover this from within Virgo's team?	Surely we can cover this from within Virgo's team?	1946398	1471975906639	1471975906710	v	86
3851	40761	Surely we can cover this from within Virgo's team?	Surely we can cover this from within Virgo's team?	1946414	1471975906749	1471975906955	e	69
3851	40761	Surely we can cover this from within Virgo's team?	Surely we can cover this from within Virgo's team?	1946417	1471975906889	1471975907050	r	82
3851	40761	Surely we can cover this from within Virgo's team?	Surely we can cover this from within Virgo's team?	1946419	1471975907014	1471975907207	 	32
3851	40761	Surely we can cover this from within Virgo's team?	Surely we can cover this from within Virgo's team?	1946421	1471975907213	1471975907350	t	84
3851	40761	Surely we can cover this from within Virgo's team?	Surely we can cover this from within Virgo's team?	1946440	1471975907298	1471975907419	h	72
3851	40761	Surely we can cover this from within Virgo's team?	Surely we can cover this from within Virgo's team?	1946444	1471975907469	1471975907574	i	73
3851	40761	Surely we can cover this from within Virgo's team?	Surely we can cover this from within Virgo's team?	1946447	1471975907619	1471975907744	s	83
3851	40761	Surely we can cover this from within Virgo's team?	Surely we can cover this from within Virgo's team?	1946453	1471975907723	1471975907844	 	32
3851	40761	Surely we can cover this from within Virgo's team?	Surely we can cover this from within Virgo's team?	1946456	1471975907898	1471975908069	f	70
3851	40761	Surely we can cover this from within Virgo's team?	Surely we can cover this from within Virgo's team?	1946481	1471975907998	1471975908149	r	82
3851	40761	Surely we can cover this from within Virgo's team?	Surely we can cover this from within Virgo's team?	1946484	1471975908088	1471975908243	o	79
3851	40761	Surely we can cover this from within Virgo's team?	Surely we can cover this from within Virgo's team?	1946486	1471975908198	1471975908384	m	77
3851	40761	Surely we can cover this from within Virgo's team?	Surely we can cover this from within Virgo's team?	1946491	1471975908347	1471975908448	 	32
3851	40761	Surely we can cover this from within Virgo's team?	Surely we can cover this from within Virgo's team?	1946495	1471975908502	1471975908624	w	87
3851	40761	Surely we can cover this from within Virgo's team?	Surely we can cover this from within Virgo's team?	1946498	1471975908642	1471975908738	i	73
3851	40761	Surely we can cover this from within Virgo's team?	Surely we can cover this from within Virgo's team?	1946541	1471975908752	1471975908888	t	84
3851	40761	Surely we can cover this from within Virgo's team?	Surely we can cover this from within Virgo's team?	1946544	1471975908868	1471975908978	h	72
3851	40761	Surely we can cover this from within Virgo's team?	Surely we can cover this from within Virgo's team?	1946548	1471975909097	1471975909221	i	73
3851	40761	Surely we can cover this from within Virgo's team?	Surely we can cover this from within Virgo's team?	1946552	1471975909147	1471975909222	n	78
3851	40761	Surely we can cover this from within Virgo's team?	Surely we can cover this from within Virgo's team?	1946554	1471975909876	1471975909966	 	32
3851	40761	Surely we can cover this from within Virgo's team?	Surely we can cover this from within Virgo's team?	1946625	1471975910170	1471975910771	SHIFT	16
3851	40761	Surely we can cover this from within Virgo's team?	Surely we can cover this from within Virgo's team?	1946621	1471975910600	1471975910751	V	86
3851	40761	Surely we can cover this from within Virgo's team?	Surely we can cover this from within Virgo's team?	1946628	1471975910935	1471975911086	i	73
3851	40761	Surely we can cover this from within Virgo's team?	Surely we can cover this from within Virgo's team?	1946630	1471975911135	1471975911275	r	82
3851	40761	Surely we can cover this from within Virgo's team?	Surely we can cover this from within Virgo's team?	1946632	1471975911534	1471975911664	g	71
3851	40761	Surely we can cover this from within Virgo's team?	Surely we can cover this from within Virgo's team?	1946695	1471975911643	1471975911800	o	79
3851	40761	Surely we can cover this from within Virgo's team?	Surely we can cover this from within Virgo's team?	1946698	1471975912368	1471975912519	'	222
3851	40761	Surely we can cover this from within Virgo's team?	Surely we can cover this from within Virgo's team?	1946700	1471975912548	1471975912674	s	83
3851	40761	Surely we can cover this from within Virgo's team?	Surely we can cover this from within Virgo's team?	1946702	1471975912688	1471975912799	 	32
3851	40761	Surely we can cover this from within Virgo's team?	Surely we can cover this from within Virgo's team?	1946703	1471975912918	1471975913039	t	84
3851	40761	Surely we can cover this from within Virgo's team?	Surely we can cover this from within Virgo's team?	1946704	1471975913093	1471975913210	e	69
3851	40761	Surely we can cover this from within Virgo's team?	Surely we can cover this from within Virgo's team?	1946754	1471975913282	1471975913428	a	65
3851	40761	Surely we can cover this from within Virgo's team?	Surely we can cover this from within Virgo's team?	1946755	1471975913547	1471975913687	m	77
3851	40761	Surely we can cover this from within Virgo's team?	Surely we can cover this from within Virgo's team?	1946756	1471975913946	1471975914187	SHIFT	16
3851	40761	Surely we can cover this from within Virgo's team?	Surely we can cover this from within Virgo's team?	1946757	1471975914091	1471975914282	?	191
3851	40789	We've pursued other options and as a result we've made some progress.	We've pursued other options and as a result we've made some progress.	1946947	1471975918414	1471975918931	SHIFT	16
3851	40789	We've pursued other options and as a result we've made some progress.	We've pursued other options and as a result we've made some progress.	1946946	1471975918754	1471975918910	W	87
3851	40789	We've pursued other options and as a result we've made some progress.	We've pursued other options and as a result we've made some progress.	1946948	1471975919278	1471975919431	e	69
3851	40789	We've pursued other options and as a result we've made some progress.	We've pursued other options and as a result we've made some progress.	1946949	1471975919932	1471975920077	'	222
3851	40789	We've pursued other options and as a result we've made some progress.	We've pursued other options and as a result we've made some progress.	1946950	1471975920670	1471975920767	v	86
3851	40789	We've pursued other options and as a result we've made some progress.	We've pursued other options and as a result we've made some progress.	1946951	1471975920816	1471975920957	e	69
3851	40789	We've pursued other options and as a result we've made some progress.	We've pursued other options and as a result we've made some progress.	1947028	1471975920936	1471975921057	 	32
3851	40789	We've pursued other options and as a result we've made some progress.	We've pursued other options and as a result we've made some progress.	1947030	1471975921250	1471975921366	[	219
3851	40789	We've pursued other options and as a result we've made some progress.	We've pursued other options and as a result we've made some progress.	1947032	1471975921535	1471975921716	u	85
3851	40789	We've pursued other options and as a result we've made some progress.	We've pursued other options and as a result we've made some progress.	1947034	1471975922014	1471975922120	BKSP	8
3851	40789	We've pursued other options and as a result we've made some progress.	We've pursued other options and as a result we've made some progress.	1947036	1471975922198	1471975922280	BKSP	8
3851	40789	We've pursued other options and as a result we've made some progress.	We've pursued other options and as a result we've made some progress.	1947038	1471975922539	1471975922629	p	80
3851	40789	We've pursued other options and as a result we've made some progress.	We've pursued other options and as a result we've made some progress.	1947040	1471975922973	1471975923159	u	85
3851	40789	We've pursued other options and as a result we've made some progress.	We've pursued other options and as a result we've made some progress.	1947042	1471975923462	1471975923598	r	82
3851	40789	We've pursued other options and as a result we've made some progress.	We've pursued other options and as a result we've made some progress.	1947099	1471975923852	1471975924018	s	83
3851	40789	We've pursued other options and as a result we've made some progress.	We've pursued other options and as a result we've made some progress.	1947102	1471975923997	1471975924132	e	69
3851	40789	We've pursued other options and as a result we've made some progress.	We've pursued other options and as a result we've made some progress.	1947105	1471975924491	1471975924607	BKSP	8
3851	40789	We've pursued other options and as a result we've made some progress.	We've pursued other options and as a result we've made some progress.	1947108	1471975924745	1471975924867	u	85
3851	40789	We've pursued other options and as a result we've made some progress.	We've pursued other options and as a result we've made some progress.	1947109	1471975924980	1471975925127	e	69
3851	40789	We've pursued other options and as a result we've made some progress.	We've pursued other options and as a result we've made some progress.	1947110	1471975925265	1471975925411	d	68
3851	40789	We've pursued other options and as a result we've made some progress.	We've pursued other options and as a result we've made some progress.	1947181	1471975925425	1471975925536	 	32
3851	40789	We've pursued other options and as a result we've made some progress.	We've pursued other options and as a result we've made some progress.	1947183	1471975926089	1471975926220	p	80
3851	40789	We've pursued other options and as a result we've made some progress.	We've pursued other options and as a result we've made some progress.	1947185	1471975926284	1471975926390	t	84
3851	40789	We've pursued other options and as a result we've made some progress.	We've pursued other options and as a result we've made some progress.	1947187	1471975926902	1471975927004	BKSP	8
3851	40789	We've pursued other options and as a result we've made some progress.	We've pursued other options and as a result we've made some progress.	1947188	1471975927093	1471975927234	BKSP	8
3851	40789	We've pursued other options and as a result we've made some progress.	We've pursued other options and as a result we've made some progress.	1947189	1471975927358	1471975927553	o	79
3851	40789	We've pursued other options and as a result we've made some progress.	We've pursued other options and as a result we've made some progress.	1947190	1471975927808	1471975927953	t	84
3851	40789	We've pursued other options and as a result we've made some progress.	We've pursued other options and as a result we've made some progress.	1947222	1471975928002	1471975928135	h	72
3851	40789	We've pursued other options and as a result we've made some progress.	We've pursued other options and as a result we've made some progress.	1947223	1471975928196	1471975928329	e	69
3851	40789	We've pursued other options and as a result we've made some progress.	We've pursued other options and as a result we've made some progress.	1947225	1471975928297	1471975928473	r	82
3851	40789	We've pursued other options and as a result we've made some progress.	We've pursued other options and as a result we've made some progress.	1947227	1471975928447	1471975928552	 	32
3851	40789	We've pursued other options and as a result we've made some progress.	We've pursued other options and as a result we've made some progress.	1947230	1471975928656	1471975928817	p	80
3851	40789	We've pursued other options and as a result we've made some progress.	We've pursued other options and as a result we've made some progress.	1947399	1471975928795	1471975928946	[	219
3851	40789	We've pursued other options and as a result we've made some progress.	We've pursued other options and as a result we've made some progress.	1947403	1471975928970	1471975929076	t	84
3851	40789	We've pursued other options and as a result we've made some progress.	We've pursued other options and as a result we've made some progress.	1947406	1471975929694	1471975929800	BKSP	8
3851	40789	We've pursued other options and as a result we've made some progress.	We've pursued other options and as a result we've made some progress.	1947408	1471975929899	1471975930000	BKSP	8
3851	40789	We've pursued other options and as a result we've made some progress.	We've pursued other options and as a result we've made some progress.	1947410	1471975930095	1471975930219	BKSP	8
3851	40789	We've pursued other options and as a result we've made some progress.	We've pursued other options and as a result we've made some progress.	1947413	1471975930539	1471975930744	o	79
3851	40789	We've pursued other options and as a result we've made some progress.	We've pursued other options and as a result we've made some progress.	1947415	1471975931632	1471975931773	p	80
3851	40789	We've pursued other options and as a result we've made some progress.	We've pursued other options and as a result we've made some progress.	1947417	1471975931981	1471975932128	t	84
3851	40789	We've pursued other options and as a result we've made some progress.	We've pursued other options and as a result we've made some progress.	1947419	1471975932407	1471975932552	i	73
3851	40789	We've pursued other options and as a result we've made some progress.	We've pursued other options and as a result we've made some progress.	1947455	1471975932566	1471975932822	o	79
3851	40789	We've pursued other options and as a result we've made some progress.	We've pursued other options and as a result we've made some progress.	1947460	1471975932776	1471975932927	n	78
3851	40789	We've pursued other options and as a result we've made some progress.	We've pursued other options and as a result we've made some progress.	1947465	1471975933041	1471975933219	s	83
3851	40789	We've pursued other options and as a result we've made some progress.	We've pursued other options and as a result we've made some progress.	1947469	1471975933219	1471975933316	 	32
3851	40789	We've pursued other options and as a result we've made some progress.	We've pursued other options and as a result we've made some progress.	1947473	1471975933456	1471975933606	a	65
3851	40789	We've pursued other options and as a result we've made some progress.	We've pursued other options and as a result we've made some progress.	1947495	1471975933586	1471975933702	n	78
3851	40789	We've pursued other options and as a result we've made some progress.	We've pursued other options and as a result we've made some progress.	1947498	1471975933720	1471975933856	d	68
3851	40789	We've pursued other options and as a result we've made some progress.	We've pursued other options and as a result we've made some progress.	1947501	1471975933835	1471975933936	 	32
3851	40789	We've pursued other options and as a result we've made some progress.	We've pursued other options and as a result we've made some progress.	1947502	1471975933990	1471975934106	a	65
3851	40789	We've pursued other options and as a result we've made some progress.	We've pursued other options and as a result we've made some progress.	1947505	1471975934135	1471975934304	s	83
3851	40789	We've pursued other options and as a result we've made some progress.	We've pursued other options and as a result we've made some progress.	1947584	1471975934280	1471975934441	 	32
3851	40789	We've pursued other options and as a result we've made some progress.	We've pursued other options and as a result we've made some progress.	1947586	1471975934994	1471975935125	a	65
3851	40789	We've pursued other options and as a result we've made some progress.	We've pursued other options and as a result we've made some progress.	1947588	1471975935149	1471975935279	 	32
3851	40789	We've pursued other options and as a result we've made some progress.	We've pursued other options and as a result we've made some progress.	1947589	1471975935344	1471975935494	r	82
3851	40789	We've pursued other options and as a result we've made some progress.	We've pursued other options and as a result we've made some progress.	1947590	1471975935474	1471975935585	e	69
3851	40789	We've pursued other options and as a result we've made some progress.	We've pursued other options and as a result we've made some progress.	1947591	1471975935733	1471975935879	s	83
3851	40789	We've pursued other options and as a result we've made some progress.	We've pursued other options and as a result we've made some progress.	1947620	1471975935854	1471975935989	u	85
3851	40789	We've pursued other options and as a result we've made some progress.	We've pursued other options and as a result we've made some progress.	1947624	1471975936093	1471975936234	l	76
3851	40789	We've pursued other options and as a result we've made some progress.	We've pursued other options and as a result we've made some progress.	1947628	1471975936298	1471975936399	t	84
3851	40789	We've pursued other options and as a result we've made some progress.	We've pursued other options and as a result we've made some progress.	1947631	1471975936428	1471975936558	 	32
3851	40789	We've pursued other options and as a result we've made some progress.	We've pursued other options and as a result we've made some progress.	1947634	1471975936882	1471975936989	w	87
3851	40789	We've pursued other options and as a result we've made some progress.	We've pursued other options and as a result we've made some progress.	1947636	1471975937002	1471975937123	e	69
3851	40789	We've pursued other options and as a result we've made some progress.	We've pursued other options and as a result we've made some progress.	1947705	1471975937552	1471975937652	'	222
3851	40789	We've pursued other options and as a result we've made some progress.	We've pursued other options and as a result we've made some progress.	1947708	1471975937921	1471975937987	v	86
3851	40789	We've pursued other options and as a result we've made some progress.	We've pursued other options and as a result we've made some progress.	1947711	1471975938015	1471975938132	v	86
3851	40789	We've pursued other options and as a result we've made some progress.	We've pursued other options and as a result we've made some progress.	1947714	1471975938564	1471975938685	BKSP	8
3851	40789	We've pursued other options and as a result we've made some progress.	We've pursued other options and as a result we've made some progress.	1947717	1471975938809	1471975938975	e	69
3851	40789	We've pursued other options and as a result we've made some progress.	We've pursued other options and as a result we've made some progress.	1947760	1471975938954	1471975939085	 	32
3851	40789	We've pursued other options and as a result we've made some progress.	We've pursued other options and as a result we've made some progress.	1947761	1471975939228	1471975939380	m	77
3851	40789	We've pursued other options and as a result we've made some progress.	We've pursued other options and as a result we've made some progress.	1947763	1471975939409	1471975939535	a	65
3851	40789	We've pursued other options and as a result we've made some progress.	We've pursued other options and as a result we've made some progress.	1947764	1471975939649	1471975939705	d	68
3851	40789	We've pursued other options and as a result we've made some progress.	We've pursued other options and as a result we've made some progress.	1947765	1471975939809	1471975939954	e	69
3851	40789	We've pursued other options and as a result we've made some progress.	We've pursued other options and as a result we've made some progress.	1947797	1471975939934	1471975940044	 	32
3851	40789	We've pursued other options and as a result we've made some progress.	We've pursued other options and as a result we've made some progress.	1947802	1471975940099	1471975940244	s	83
3851	40789	We've pursued other options and as a result we've made some progress.	We've pursued other options and as a result we've made some progress.	1947808	1471975940203	1471975940374	o	79
3851	40789	We've pursued other options and as a result we've made some progress.	We've pursued other options and as a result we've made some progress.	1947815	1471975940312	1471975940474	m	77
3851	40789	We've pursued other options and as a result we've made some progress.	We've pursued other options and as a result we've made some progress.	1947818	1471975940438	1471975940574	e	69
3851	40789	We've pursued other options and as a result we've made some progress.	We've pursued other options and as a result we've made some progress.	1947822	1471975940593	1471975940709	 	32
3851	40789	We've pursued other options and as a result we've made some progress.	We've pursued other options and as a result we've made some progress.	1947897	1471975941032	1471975941158	p	80
3851	40789	We've pursued other options and as a result we've made some progress.	We've pursued other options and as a result we've made some progress.	1947901	1471975941215	1471975941322	r	82
3851	40789	We've pursued other options and as a result we've made some progress.	We've pursued other options and as a result we've made some progress.	1947905	1471975941347	1471975941493	o	79
3851	40789	We've pursued other options and as a result we've made some progress.	We've pursued other options and as a result we've made some progress.	1947909	1471975941614	1471975941731	g	71
3851	40789	We've pursued other options and as a result we've made some progress.	We've pursued other options and as a result we've made some progress.	1947911	1471975942051	1471975942196	r	82
3851	40789	We've pursued other options and as a result we've made some progress.	We've pursued other options and as a result we've made some progress.	1948042	1471975942220	1471975942362	e	69
3851	40789	We've pursued other options and as a result we've made some progress.	We've pursued other options and as a result we've made some progress.	1948046	1471975942510	1471975942641	s	83
3851	40789	We've pursued other options and as a result we've made some progress.	We've pursued other options and as a result we've made some progress.	1948050	1471975942725	1471975942872	s	83
3851	40789	We've pursued other options and as a result we've made some progress.	We've pursued other options and as a result we've made some progress.	1948053	1471975943495	1471975943686	/	191
3851	40789	We've pursued other options and as a result we've made some progress.	We've pursued other options and as a result we've made some progress.	1948055	1471975944088	1471975944225	BKSP	8
3851	40789	We've pursued other options and as a result we've made some progress.	We've pursued other options and as a result we've made some progress.	1948056	1471975944478	1471975944668	.	190
3851	40817	The UN still recognizes Lisbon as the administrator of the territory.	The UN still recognizes Lisbon as the administrator of the territory. 	1948411	1471975949591	1471975949916	SHIFT	16
3851	40817	The UN still recognizes Lisbon as the administrator of the territory.	The UN still recognizes Lisbon as the administrator of the territory. 	1948413	1471975949835	1471975949986	T	84
3851	40817	The UN still recognizes Lisbon as the administrator of the territory.	The UN still recognizes Lisbon as the administrator of the territory. 	1948418	1471975950225	1471975950366	h	72
3851	40817	The UN still recognizes Lisbon as the administrator of the territory.	The UN still recognizes Lisbon as the administrator of the territory. 	1948423	1471975950385	1471975950535	e	69
3851	40817	The UN still recognizes Lisbon as the administrator of the territory.	The UN still recognizes Lisbon as the administrator of the territory. 	1948428	1471975950554	1471975950637	 	32
3851	40817	The UN still recognizes Lisbon as the administrator of the territory.	The UN still recognizes Lisbon as the administrator of the territory. 	1948565	1471975950799	1471975951600	SHIFT	16
3851	40817	The UN still recognizes Lisbon as the administrator of the territory.	The UN still recognizes Lisbon as the administrator of the territory. 	1948432	1471975951019	1471975951165	I	73
3851	40817	The UN still recognizes Lisbon as the administrator of the territory.	The UN still recognizes Lisbon as the administrator of the territory. 	1948558	1471975951349	1471975951410	N	78
3851	40817	The UN still recognizes Lisbon as the administrator of the territory.	The UN still recognizes Lisbon as the administrator of the territory. 	1948583	1471975951629	1471975953350	SHIFT	16
3851	40817	The UN still recognizes Lisbon as the administrator of the territory.	The UN still recognizes Lisbon as the administrator of the territory. 	1948571	1471975952044	1471975952150	BKSP	8
3851	40817	The UN still recognizes Lisbon as the administrator of the territory.	The UN still recognizes Lisbon as the administrator of the territory. 	1948577	1471975952284	1471975952356	BKSP	8
3851	40817	The UN still recognizes Lisbon as the administrator of the territory.	The UN still recognizes Lisbon as the administrator of the territory. 	1948579	1471975952629	1471975952815	U	85
3851	40817	The UN still recognizes Lisbon as the administrator of the territory.	The UN still recognizes Lisbon as the administrator of the territory. 	1948582	1471975953064	1471975953215	N	78
3851	40817	The UN still recognizes Lisbon as the administrator of the territory.	The UN still recognizes Lisbon as the administrator of the territory. 	1948585	1471975953464	1471975953619	 	32
3851	40817	The UN still recognizes Lisbon as the administrator of the territory.	The UN still recognizes Lisbon as the administrator of the territory. 	1948588	1471975953699	1471975953834	s	83
3851	40817	The UN still recognizes Lisbon as the administrator of the territory.	The UN still recognizes Lisbon as the administrator of the territory. 	1948595	1471975953904	1471975954033	t	84
3851	40817	The UN still recognizes Lisbon as the administrator of the territory.	The UN still recognizes Lisbon as the administrator of the territory. 	1948598	1471975954012	1471975954139	i	73
3851	40817	The UN still recognizes Lisbon as the administrator of the territory.	The UN still recognizes Lisbon as the administrator of the territory. 	1948602	1471975954238	1471975954344	l	76
3851	40817	The UN still recognizes Lisbon as the administrator of the territory.	The UN still recognizes Lisbon as the administrator of the territory. 	1948605	1471975954443	1471975954519	l	76
3851	40817	The UN still recognizes Lisbon as the administrator of the territory.	The UN still recognizes Lisbon as the administrator of the territory. 	1948708	1471975954493	1471975954623	 	32
3851	40817	The UN still recognizes Lisbon as the administrator of the territory.	The UN still recognizes Lisbon as the administrator of the territory. 	1948712	1471975954678	1471975954832	r	82
3851	40817	The UN still recognizes Lisbon as the administrator of the territory.	The UN still recognizes Lisbon as the administrator of the territory. 	1948716	1471975954812	1471975954938	e	69
3851	40817	The UN still recognizes Lisbon as the administrator of the territory.	The UN still recognizes Lisbon as the administrator of the territory. 	1948721	1471975955156	1471975955277	c	67
3851	40817	The UN still recognizes Lisbon as the administrator of the territory.	The UN still recognizes Lisbon as the administrator of the territory. 	1948725	1471975955306	1471975955458	o	79
3851	40817	The UN still recognizes Lisbon as the administrator of the territory.	The UN still recognizes Lisbon as the administrator of the territory. 	1948730	1471975955776	1471975955918	g	71
3851	40817	The UN still recognizes Lisbon as the administrator of the territory.	The UN still recognizes Lisbon as the administrator of the territory. 	1948795	1471975955936	1471975956047	n	78
3851	40817	The UN still recognizes Lisbon as the administrator of the territory.	The UN still recognizes Lisbon as the administrator of the territory. 	1948796	1471975956071	1471975956217	i	73
3851	40817	The UN still recognizes Lisbon as the administrator of the territory.	The UN still recognizes Lisbon as the administrator of the territory. 	1948797	1471975956326	1471975956488	z	90
3851	40817	The UN still recognizes Lisbon as the administrator of the territory.	The UN still recognizes Lisbon as the administrator of the territory. 	1948800	1471975956633	1471975956781	e	69
3851	40817	The UN still recognizes Lisbon as the administrator of the territory.	The UN still recognizes Lisbon as the administrator of the territory. 	1948803	1471975957249	1471975957396	s	83
3851	40817	The UN still recognizes Lisbon as the administrator of the territory.	The UN still recognizes Lisbon as the administrator of the territory. 	1948911	1471975957420	1471975957565	 	32
3851	40817	The UN still recognizes Lisbon as the administrator of the territory.	The UN still recognizes Lisbon as the administrator of the territory. 	1948913	1471975957929	1471975958229	SHIFT	16
3851	40817	The UN still recognizes Lisbon as the administrator of the territory.	The UN still recognizes Lisbon as the administrator of the territory. 	1948917	1471975958089	1471975958265	L	76
3851	40817	The UN still recognizes Lisbon as the administrator of the territory.	The UN still recognizes Lisbon as the administrator of the territory. 	1948921	1471975958519	1471975958665	i	73
3851	40817	The UN still recognizes Lisbon as the administrator of the territory.	The UN still recognizes Lisbon as the administrator of the territory. 	1948926	1471975958684	1471975958829	s	83
3851	40817	The UN still recognizes Lisbon as the administrator of the territory.	The UN still recognizes Lisbon as the administrator of the territory. 	1948933	1471975958992	1471975959217	o	79
3851	40817	The UN still recognizes Lisbon as the administrator of the territory.	The UN still recognizes Lisbon as the administrator of the territory. 	1948999	1471975959402	1471975959503	BKSP	8
3851	40817	The UN still recognizes Lisbon as the administrator of the territory.	The UN still recognizes Lisbon as the administrator of the territory. 	1949002	1471975959723	1471975959829	b	66
3851	40817	The UN still recognizes Lisbon as the administrator of the territory.	The UN still recognizes Lisbon as the administrator of the territory. 	1949006	1471975959996	1471975960188	o	79
3851	40817	The UN still recognizes Lisbon as the administrator of the territory.	The UN still recognizes Lisbon as the administrator of the territory. 	1949010	1471975960202	1471975960358	n	78
3851	40817	The UN still recognizes Lisbon as the administrator of the territory.	The UN still recognizes Lisbon as the administrator of the territory. 	1949013	1471975960337	1471975960487	 	32
3851	40817	The UN still recognizes Lisbon as the administrator of the territory.	The UN still recognizes Lisbon as the administrator of the territory. 	1949016	1471975960541	1471975960672	a	65
3851	40817	The UN still recognizes Lisbon as the administrator of the territory.	The UN still recognizes Lisbon as the administrator of the territory. 	1949050	1471975960647	1471975960802	s	83
3851	40817	The UN still recognizes Lisbon as the administrator of the territory.	The UN still recognizes Lisbon as the administrator of the territory. 	1949054	1471975960752	1471975960852	 	32
3851	40817	The UN still recognizes Lisbon as the administrator of the territory.	The UN still recognizes Lisbon as the administrator of the territory. 	1949058	1471975960956	1471975961081	t	84
3851	40817	The UN still recognizes Lisbon as the administrator of the territory.	The UN still recognizes Lisbon as the administrator of the territory. 	1949060	1471975961026	1471975961146	h	72
3851	40817	The UN still recognizes Lisbon as the administrator of the territory.	The UN still recognizes Lisbon as the administrator of the territory. 	1949062	1471975961205	1471975961311	e	69
3851	40817	The UN still recognizes Lisbon as the administrator of the territory.	The UN still recognizes Lisbon as the administrator of the territory. 	1949147	1471975961290	1471975961421	 	32
3851	40817	The UN still recognizes Lisbon as the administrator of the territory.	The UN still recognizes Lisbon as the administrator of the territory. 	1949154	1471975961600	1471975961722	a	65
3851	40817	The UN still recognizes Lisbon as the administrator of the territory.	The UN still recognizes Lisbon as the administrator of the territory. 	1949160	1471975961820	1471975961966	d	68
3851	40817	The UN still recognizes Lisbon as the administrator of the territory.	The UN still recognizes Lisbon as the administrator of the territory. 	1949163	1471975961985	1471975962111	m	77
3851	40817	The UN still recognizes Lisbon as the administrator of the territory.	The UN still recognizes Lisbon as the administrator of the territory. 	1949170	1471975962145	1471975962291	i	73
3851	40817	The UN still recognizes Lisbon as the administrator of the territory.	The UN still recognizes Lisbon as the administrator of the territory. 	1949177	1471975962848	1471975962989	n	78
3851	40817	The UN still recognizes Lisbon as the administrator of the territory.	The UN still recognizes Lisbon as the administrator of the territory. 	1949230	1471975962959	1471975963100	i	73
3851	40817	The UN still recognizes Lisbon as the administrator of the territory.	The UN still recognizes Lisbon as the administrator of the territory. 	1949235	1471975963149	1471975963280	s	83
3851	40817	The UN still recognizes Lisbon as the administrator of the territory.	The UN still recognizes Lisbon as the administrator of the territory. 	1949241	1471975963369	1471975963500	t	84
3851	40817	The UN still recognizes Lisbon as the administrator of the territory.	The UN still recognizes Lisbon as the administrator of the territory. 	1949248	1471975963788	1471975963904	r	82
3851	40817	The UN still recognizes Lisbon as the administrator of the territory.	The UN still recognizes Lisbon as the administrator of the territory. 	1949254	1471975964013	1471975964124	a	65
3851	40817	The UN still recognizes Lisbon as the administrator of the territory.	The UN still recognizes Lisbon as the administrator of the territory. 	1949259	1471975964243	1471975964380	t	84
3851	40817	The UN still recognizes Lisbon as the administrator of the territory.	The UN still recognizes Lisbon as the administrator of the territory. 	1949294	1471975964407	1471975964534	o	79
3851	40817	The UN still recognizes Lisbon as the administrator of the territory.	The UN still recognizes Lisbon as the administrator of the territory. 	1949298	1471975964608	1471975964784	r	82
3851	40817	The UN still recognizes Lisbon as the administrator of the territory.	The UN still recognizes Lisbon as the administrator of the territory. 	1949303	1471975964763	1471975964868	 	32
3851	40817	The UN still recognizes Lisbon as the administrator of the territory.	The UN still recognizes Lisbon as the administrator of the territory. 	1949311	1471975964848	1471975964973	o	79
3851	40817	The UN still recognizes Lisbon as the administrator of the territory.	The UN still recognizes Lisbon as the administrator of the territory. 	1949317	1471975965003	1471975965143	f	70
3851	40817	The UN still recognizes Lisbon as the administrator of the territory.	The UN still recognizes Lisbon as the administrator of the territory. 	1949344	1471975965122	1471975965228	 	32
3851	40817	The UN still recognizes Lisbon as the administrator of the territory.	The UN still recognizes Lisbon as the administrator of the territory. 	1949345	1471975965303	1471975965438	t	84
3851	40817	The UN still recognizes Lisbon as the administrator of the territory.	The UN still recognizes Lisbon as the administrator of the territory. 	1949346	1471975965402	1471975965508	h	72
3851	40817	The UN still recognizes Lisbon as the administrator of the territory.	The UN still recognizes Lisbon as the administrator of the territory. 	1949349	1471975965572	1471975965708	e	69
3851	40817	The UN still recognizes Lisbon as the administrator of the territory.	The UN still recognizes Lisbon as the administrator of the territory. 	1949352	1471975965686	1471975965813	 	32
3851	40817	The UN still recognizes Lisbon as the administrator of the territory.	The UN still recognizes Lisbon as the administrator of the territory. 	1949356	1471975965886	1471975965997	t	84
3851	40817	The UN still recognizes Lisbon as the administrator of the territory.	The UN still recognizes Lisbon as the administrator of the territory. 	1949415	1471975966107	1471975966217	e	69
3851	40817	The UN still recognizes Lisbon as the administrator of the territory.	The UN still recognizes Lisbon as the administrator of the territory. 	1949420	1471975966171	1471975966377	r	82
3851	40817	The UN still recognizes Lisbon as the administrator of the territory.	The UN still recognizes Lisbon as the administrator of the territory. 	1949424	1471975966636	1471975966762	r	82
3851	40817	The UN still recognizes Lisbon as the administrator of the territory.	The UN still recognizes Lisbon as the administrator of the territory. 	1949427	1471975966810	1471975966927	i	73
3851	40817	The UN still recognizes Lisbon as the administrator of the territory.	The UN still recognizes Lisbon as the administrator of the territory. 	1949430	1471975967145	1471975967271	t	84
3851	40817	The UN still recognizes Lisbon as the administrator of the territory.	The UN still recognizes Lisbon as the administrator of the territory. 	1949478	1471975967535	1471975967730	o	79
3851	40817	The UN still recognizes Lisbon as the administrator of the territory.	The UN still recognizes Lisbon as the administrator of the territory. 	1949481	1471975967710	1471975967845	r	82
3851	40817	The UN still recognizes Lisbon as the administrator of the territory.	The UN still recognizes Lisbon as the administrator of the territory. 	1949485	1471975967920	1471975968065	y	89
3851	40817	The UN still recognizes Lisbon as the administrator of the territory.	The UN still recognizes Lisbon as the administrator of the territory. 	1949489	1471975968364	1471975968534	.	190
3851	40817	The UN still recognizes Lisbon as the administrator of the territory.	The UN still recognizes Lisbon as the administrator of the territory. 	1949497	1471975968514	1471975968609	 	32
3851	40846	I think I'm OK.	I think I'm OK. 	1949780	1471975972248	1471975972615	SHIFT	16
3851	40846	I think I'm OK.	I think I'm OK. 	1949782	1471975972489	1471975972664	I	73
3851	40846	I think I'm OK.	I think I'm OK. 	1949783	1471975972708	1471975972834	 	32
3851	40846	I think I'm OK.	I think I'm OK. 	1949784	1471975972879	1471975973024	t	84
3851	40846	I think I'm OK.	I think I'm OK. 	1949786	1471975973038	1471975973207	h	72
3851	40846	I think I'm OK.	I think I'm OK. 	1949788	1471975973262	1471975973394	i	73
3851	40846	I think I'm OK.	I think I'm OK. 	1949909	1471975973458	1471975973608	n	78
3851	40846	I think I'm OK.	I think I'm OK. 	1949911	1471975973617	1471975973798	k	75
3851	40846	I think I'm OK.	I think I'm OK. 	1949914	1471975973902	1471975973998	 	32
3851	40846	I think I'm OK.	I think I'm OK. 	1949918	1471975974362	1471975974803	SHIFT	16
3851	40846	I think I'm OK.	I think I'm OK. 	1949921	1471975974587	1471975974822	I	73
3851	40846	I think I'm OK.	I think I'm OK. 	1949928	1471975975431	1471975975613	'	222
3851	40846	I think I'm OK.	I think I'm OK. 	1950002	1471975975935	1471975976096	m	77
3851	40846	I think I'm OK.	I think I'm OK. 	1950005	1471975976110	1471975976272	 	32
3851	40846	I think I'm OK.	I think I'm OK. 	1950009	1471975976370	1471975976496	o	79
3851	40846	I think I'm OK.	I think I'm OK. 	1950015	1471975976875	1471975977005	BKSP	8
3851	40846	I think I'm OK.	I think I'm OK. 	1950261	1471975977218	1471975980784	SHIFT	16
3851	40846	I think I'm OK.	I think I'm OK. 	1950022	1471975977365	1471975977500	I	73
3851	40846	I think I'm OK.	I think I'm OK. 	1950032	1471975977693	1471975977819	K	75
3851	40846	I think I'm OK.	I think I'm OK. 	1950234	1471975978168	1471975978315	BKSP	8
3851	40846	I think I'm OK.	I think I'm OK. 	1950236	1471975978454	1471975978520	BKSP	8
3851	40846	I think I'm OK.	I think I'm OK. 	1950240	1471975978754	1471975978890	I	73
3851	40846	I think I'm OK.	I think I'm OK. 	1950245	1471975979079	1471975979154	K	75
3851	40846	I think I'm OK.	I think I'm OK. 	1950249	1471975979654	1471975979729	BKSP	8
3851	40846	I think I'm OK.	I think I'm OK. 	1950253	1471975979879	1471975979919	BKSP	8
3851	40846	I think I'm OK.	I think I'm OK. 	1950258	1471975980434	1471975980544	O	79
3851	40846	I think I'm OK.	I think I'm OK. 	1950264	1471975980718	1471975980809	K	75
3851	40846	I think I'm OK.	I think I'm OK. 	1950266	1471975981117	1471975981303	.	190
3851	40846	I think I'm OK.	I think I'm OK. 	1950257	1471975981283	1471975981393	 	32
3851	40861	It would lessen that anxiety that the officers are faced with.	It would lesses that anxiety that the officers are faced with. 	1950592	1471975987797	1471975988146	SHIFT	16
3851	40861	It would lessen that anxiety that the officers are faced with.	It would lesses that anxiety that the officers are faced with. 	1950595	1471975987987	1471975988183	I	73
3851	40861	It would lessen that anxiety that the officers are faced with.	It would lesses that anxiety that the officers are faced with. 	1950598	1471975988571	1471975988706	t	84
3851	40861	It would lessen that anxiety that the officers are faced with.	It would lesses that anxiety that the officers are faced with. 	1950602	1471975988686	1471975988832	 	32
3851	40861	It would lessen that anxiety that the officers are faced with.	It would lesses that anxiety that the officers are faced with. 	1950605	1471975988956	1471975989112	w	87
3851	40861	It would lessen that anxiety that the officers are faced with.	It would lesses that anxiety that the officers are faced with. 	1950643	1471975989061	1471975989231	o	79
3851	40861	It would lessen that anxiety that the officers are faced with.	It would lesses that anxiety that the officers are faced with. 	1950644	1471975989217	1471975989276	u	85
3851	40861	It would lessen that anxiety that the officers are faced with.	It would lesses that anxiety that the officers are faced with. 	1950645	1471975989351	1471975989471	l	76
3851	40861	It would lessen that anxiety that the officers are faced with.	It would lesses that anxiety that the officers are faced with. 	1950646	1471975989495	1471975989650	d	68
3851	40861	It would lessen that anxiety that the officers are faced with.	It would lesses that anxiety that the officers are faced with. 	1950649	1471975989632	1471975989771	 	32
3851	40861	It would lessen that anxiety that the officers are faced with.	It would lesses that anxiety that the officers are faced with. 	1950653	1471975989875	1471975990016	l	76
3851	40861	It would lessen that anxiety that the officers are faced with.	It would lesses that anxiety that the officers are faced with. 	1950721	1471975990030	1471975990161	e	69
3851	40861	It would lessen that anxiety that the officers are faced with.	It would lesses that anxiety that the officers are faced with. 	1950723	1471975990345	1471975990456	a	65
3851	40861	It would lessen that anxiety that the officers are faced with.	It would lesses that anxiety that the officers are faced with. 	1950729	1471975990894	1471975990975	BKSP	8
3851	40861	It would lessen that anxiety that the officers are faced with.	It would lesses that anxiety that the officers are faced with. 	1950733	1471975991213	1471975991350	s	83
3851	40861	It would lessen that anxiety that the officers are faced with.	It would lesses that anxiety that the officers are faced with. 	1950739	1471975991453	1471975991539	s	83
3851	40861	It would lessen that anxiety that the officers are faced with.	It would lesses that anxiety that the officers are faced with. 	1950743	1471975991583	1471975991729	e	69
3851	40861	It would lessen that anxiety that the officers are faced with.	It would lesses that anxiety that the officers are faced with. 	1950768	1471975991823	1471975991959	s	83
3851	40861	It would lessen that anxiety that the officers are faced with.	It would lesses that anxiety that the officers are faced with. 	1950769	1471975992033	1471975992188	 	32
3851	40861	It would lessen that anxiety that the officers are faced with.	It would lesses that anxiety that the officers are faced with. 	1950770	1471975992217	1471975992343	t	84
3851	40861	It would lessen that anxiety that the officers are faced with.	It would lesses that anxiety that the officers are faced with. 	1950772	1471975992322	1471975992453	h	72
3851	40861	It would lessen that anxiety that the officers are faced with.	It would lesses that anxiety that the officers are faced with. 	1950774	1471975992533	1471975992594	a	65
3851	40861	It would lessen that anxiety that the officers are faced with.	It would lesses that anxiety that the officers are faced with. 	1950855	1471975992648	1471975992798	t	84
3851	40861	It would lessen that anxiety that the officers are faced with.	It would lesses that anxiety that the officers are faced with. 	1950857	1471975992777	1471975992923	 	32
3851	40861	It would lessen that anxiety that the officers are faced with.	It would lesses that anxiety that the officers are faced with. 	1950859	1471975993481	1471975993602	a	65
3851	40861	It would lessen that anxiety that the officers are faced with.	It would lesses that anxiety that the officers are faced with. 	1950862	1471975993621	1471975993787	n	78
3851	40861	It would lessen that anxiety that the officers are faced with.	It would lesses that anxiety that the officers are faced with. 	1950864	1471975994699	1471975994861	x	88
3851	40861	It would lessen that anxiety that the officers are faced with.	It would lesses that anxiety that the officers are faced with. 	1950916	1471975994890	1471975995080	i	73
3851	40861	It would lessen that anxiety that the officers are faced with.	It would lesses that anxiety that the officers are faced with. 	1950917	1471975996567	1471975996738	e	69
3851	40861	It would lessen that anxiety that the officers are faced with.	It would lesses that anxiety that the officers are faced with. 	1950918	1471975996797	1471975996938	t	84
3851	40861	It would lessen that anxiety that the officers are faced with.	It would lesses that anxiety that the officers are faced with. 	1950919	1471975996977	1471975997143	y	89
3851	40861	It would lessen that anxiety that the officers are faced with.	It would lesses that anxiety that the officers are faced with. 	1950920	1471975997208	1471975997307	 	32
3851	40861	It would lessen that anxiety that the officers are faced with.	It would lesses that anxiety that the officers are faced with. 	1950923	1471975997351	1471975997462	t	84
3851	40861	It would lessen that anxiety that the officers are faced with.	It would lesses that anxiety that the officers are faced with. 	1950928	1471975997443	1471975997547	h	72
3851	40861	It would lessen that anxiety that the officers are faced with.	It would lesses that anxiety that the officers are faced with. 	1950935	1471975997611	1471975997682	a	65
3851	40861	It would lessen that anxiety that the officers are faced with.	It would lesses that anxiety that the officers are faced with. 	1950938	1471975997732	1471975997852	t	84
3851	40861	It would lessen that anxiety that the officers are faced with.	It would lesses that anxiety that the officers are faced with. 	1950994	1471975997831	1471975997932	 	32
3851	40861	It would lessen that anxiety that the officers are faced with.	It would lesses that anxiety that the officers are faced with. 	1950997	1471975998001	1471975998117	t	84
3851	40861	It would lessen that anxiety that the officers are faced with.	It would lesses that anxiety that the officers are faced with. 	1951003	1471975998075	1471975998211	h	72
3851	40861	It would lessen that anxiety that the officers are faced with.	It would lesses that anxiety that the officers are faced with. 	1951007	1471975998261	1471975998397	e	69
3851	40861	It would lessen that anxiety that the officers are faced with.	It would lesses that anxiety that the officers are faced with. 	1951011	1471975998361	1471975998502	 	32
3851	40861	It would lessen that anxiety that the officers are faced with.	It would lesses that anxiety that the officers are faced with. 	1951015	1471975998710	1471975998862	o	79
3851	40861	It would lessen that anxiety that the officers are faced with.	It would lesses that anxiety that the officers are faced with. 	1951051	1471975998910	1471975998981	f	70
3851	40861	It would lessen that anxiety that the officers are faced with.	It would lesses that anxiety that the officers are faced with. 	1951055	1471975999090	1471975999231	f	70
3851	40861	It would lessen that anxiety that the officers are faced with.	It would lesses that anxiety that the officers are faced with. 	1951059	1471975999244	1471975999391	i	73
3851	40861	It would lessen that anxiety that the officers are faced with.	It would lesses that anxiety that the officers are faced with. 	1951063	1471975999520	1471975999716	c	67
3851	40861	It would lessen that anxiety that the officers are faced with.	It would lesses that anxiety that the officers are faced with. 	1951128	1471975999695	1471975999901	e	69
3851	40861	It would lessen that anxiety that the officers are faced with.	It would lesses that anxiety that the officers are faced with. 	1951133	1471975999915	1471976000031	r	82
3851	40861	It would lessen that anxiety that the officers are faced with.	It would lesses that anxiety that the officers are faced with. 	1951138	1471976000179	1471976000340	s	83
3851	40861	It would lessen that anxiety that the officers are faced with.	It would lesses that anxiety that the officers are faced with. 	1951143	1471976000404	1471976000545	 	32
3851	40861	It would lessen that anxiety that the officers are faced with.	It would lesses that anxiety that the officers are faced with. 	1951147	1471976000679	1471976000795	a	65
3851	40861	It would lessen that anxiety that the officers are faced with.	It would lesses that anxiety that the officers are faced with. 	1951149	1471976000841	1471976001004	r	82
3851	40861	It would lessen that anxiety that the officers are faced with.	It would lesses that anxiety that the officers are faced with. 	1951174	1471976000969	1471976001124	e	69
3851	40861	It would lessen that anxiety that the officers are faced with.	It would lesses that anxiety that the officers are faced with. 	1951177	1471976001084	1471976001216	 	32
3851	40861	It would lessen that anxiety that the officers are faced with.	It would lesses that anxiety that the officers are faced with. 	1951180	1471976001308	1471976001440	f	70
3851	40861	It would lessen that anxiety that the officers are faced with.	It would lesses that anxiety that the officers are faced with. 	1951183	1471976001474	1471976001599	a	65
3851	40861	It would lessen that anxiety that the officers are faced with.	It would lesses that anxiety that the officers are faced with. 	1951186	1471976001708	1471976001835	c	67
3851	40861	It would lessen that anxiety that the officers are faced with.	It would lesses that anxiety that the officers are faced with. 	1951189	1471976001903	1471976002039	e	69
3851	40861	It would lessen that anxiety that the officers are faced with.	It would lesses that anxiety that the officers are faced with. 	1951216	1471976002217	1471976002368	d	68
3851	40861	It would lessen that anxiety that the officers are faced with.	It would lesses that anxiety that the officers are faced with. 	1951218	1471976002422	1471976002552	 	32
3851	40861	It would lessen that anxiety that the officers are faced with.	It would lesses that anxiety that the officers are faced with. 	1951222	1471976002676	1471976002783	w	87
3851	40861	It would lessen that anxiety that the officers are faced with.	It would lesses that anxiety that the officers are faced with. 	1951225	1471976002811	1471976002913	i	73
3851	40861	It would lessen that anxiety that the officers are faced with.	It would lesses that anxiety that the officers are faced with. 	1951228	1471976002952	1471976003078	t	84
3851	40861	It would lessen that anxiety that the officers are faced with.	It would lesses that anxiety that the officers are faced with. 	1951239	1471976003057	1471976003162	h	72
3851	40861	It would lessen that anxiety that the officers are faced with.	It would lesses that anxiety that the officers are faced with. 	1951241	1471976003357	1471976003487	.	190
3851	40861	It would lessen that anxiety that the officers are faced with.	It would lesses that anxiety that the officers are faced with. 	1951243	1471976003521	1471976003603	 	32
3851	40887	We have lots of forks, etc.	We have lots of forks, etc. 	1951800	1471976012881	1471976013592	SHIFT	16
3851	40887	We have lots of forks, etc.	We have lots of forks, etc. 	1951796	1471976013426	1471976013567	W	87
3851	40887	We have lots of forks, etc.	We have lots of forks, etc. 	1951802	1471976013660	1471976013796	e	69
3851	40887	We have lots of forks, etc.	We have lots of forks, etc. 	1951806	1471976013822	1471976013966	 	32
3851	40887	We have lots of forks, etc.	We have lots of forks, etc. 	1951809	1471976013986	1471976014146	h	72
3851	40887	We have lots of forks, etc.	We have lots of forks, etc. 	1951813	1471976014630	1471976014791	a	65
3851	40887	We have lots of forks, etc.	We have lots of forks, etc. 	1951840	1471976014944	1471976015110	v	86
3851	40887	We have lots of forks, etc.	We have lots of forks, etc. 	1951844	1471976015090	1471976015244	e	69
3851	40887	We have lots of forks, etc.	We have lots of forks, etc. 	1951849	1471976015224	1471976015350	 	32
3851	40887	We have lots of forks, etc.	We have lots of forks, etc. 	1951853	1471976015504	1471976015639	l	76
3851	40887	We have lots of forks, etc.	We have lots of forks, etc. 	1951894	1471976015614	1471976015789	o	79
3851	40887	We have lots of forks, etc.	We have lots of forks, etc. 	1951897	1471976015853	1471976016004	t	84
3851	40887	We have lots of forks, etc.	We have lots of forks, etc. 	1951900	1471976016158	1471976016339	s	83
3851	40887	We have lots of forks, etc.	We have lots of forks, etc. 	1951903	1471976016319	1471976016444	 	32
3851	40887	We have lots of forks, etc.	We have lots of forks, etc. 	1951907	1471976016424	1471976016568	o	79
3851	40887	We have lots of forks, etc.	We have lots of forks, etc. 	1951912	1471976016588	1471976016729	f	70
3851	40887	We have lots of forks, etc.	We have lots of forks, etc. 	1951937	1471976016743	1471976016819	 	32
3851	40887	We have lots of forks, etc.	We have lots of forks, etc. 	1951939	1471976016920	1471976017053	f	70
3851	40887	We have lots of forks, etc.	We have lots of forks, etc. 	1951941	1471976017028	1471976017134	o	79
3851	40887	We have lots of forks, etc.	We have lots of forks, etc. 	1951943	1471976017230	1471976017298	r	82
3851	40887	We have lots of forks, etc.	We have lots of forks, etc. 	1951947	1471976017547	1471976017684	k	75
3851	40887	We have lots of forks, etc.	We have lots of forks, etc. 	1952021	1471976017782	1471976017920	s	83
3851	40887	We have lots of forks, etc.	We have lots of forks, etc. 	1952025	1471976017982	1471976018192	,	188
3851	40887	We have lots of forks, etc.	We have lots of forks, etc. 	1952028	1471976018206	1471976018337	 	32
3851	40887	We have lots of forks, etc.	We have lots of forks, etc. 	1952031	1471976018677	1471976018803	e	69
3851	40887	We have lots of forks, etc.	We have lots of forks, etc. 	1952033	1471976019160	1471976019262	t	84
3851	40887	We have lots of forks, etc.	We have lots of forks, etc. 	1952069	1471976019471	1471976019632	c	67
3851	40887	We have lots of forks, etc.	We have lots of forks, etc. 	1952072	1471976019600	1471976019776	.	190
3851	40887	We have lots of forks, etc.	We have lots of forks, etc. 	1952076	1471976019790	1471976019926	 	32
3851	40906	We can have wine and catch up.	We can have wine and catch up. 	1952275	1471976023618	1471976023849	SHIFT	16
3851	40906	We can have wine and catch up.	We can have wine and catch up. 	1952282	1471976023789	1471976023899	W	87
3851	40906	We can have wine and catch up.	We can have wine and catch up. 	1952288	1471976024022	1471976024169	e	69
3851	40906	We can have wine and catch up.	We can have wine and catch up. 	1952295	1471976024182	1471976024328	 	32
3851	40906	We can have wine and catch up.	We can have wine and catch up. 	1952298	1471976024423	1471976024593	c	67
3851	40906	We can have wine and catch up.	We can have wine and catch up. 	1952301	1471976024752	1471976024883	a	65
3851	40906	We can have wine and catch up.	We can have wine and catch up. 	1952389	1471976025126	1471976025277	b	66
3851	40906	We can have wine and catch up.	We can have wine and catch up. 	1952391	1471976025256	1471976025432	 	32
3851	40906	We can have wine and catch up.	We can have wine and catch up. 	1952395	1471976025841	1471976025921	BKSP	8
3851	40906	We can have wine and catch up.	We can have wine and catch up. 	1952397	1471976026026	1471976026141	BKSP	8
3851	40906	We can have wine and catch up.	We can have wine and catch up. 	1952400	1471976026320	1471976026496	n	78
3851	40906	We can have wine and catch up.	We can have wine and catch up. 	1952404	1471976026425	1471976026581	 	32
3851	40906	We can have wine and catch up.	We can have wine and catch up. 	1952409	1471976026650	1471976026800	h	72
3851	40906	We can have wine and catch up.	We can have wine and catch up. 	1952435	1471976026829	1471976026955	a	65
3851	40906	We can have wine and catch up.	We can have wine and catch up. 	1952438	1471976027040	1471976027165	v	86
3851	40906	We can have wine and catch up.	We can have wine and catch up. 	1952442	1471976027202	1471976027314	e	69
3851	40906	We can have wine and catch up.	We can have wine and catch up. 	1952446	1471976027288	1471976027420	 	32
3851	40906	We can have wine and catch up.	We can have wine and catch up. 	1952448	1471976027499	1471976027664	w	87
3851	40906	We can have wine and catch up.	We can have wine and catch up. 	1952463	1471976027644	1471976027785	i	73
3851	40906	We can have wine and catch up.	We can have wine and catch up. 	1952465	1471976027884	1471976028015	n	78
3851	40906	We can have wine and catch up.	We can have wine and catch up. 	1952467	1471976028044	1471976028170	e	69
3851	40906	We can have wine and catch up.	We can have wine and catch up. 	1952470	1471976028189	1471976028299	 	32
3851	40906	We can have wine and catch up.	We can have wine and catch up. 	1952475	1471976028412	1471976028543	a	65
3851	40906	We can have wine and catch up.	We can have wine and catch up. 	1952478	1471976028558	1471976028673	n	78
3851	40906	We can have wine and catch up.	We can have wine and catch up. 	1952519	1471976028692	1471976028803	d	68
3851	40906	We can have wine and catch up.	We can have wine and catch up. 	1952523	1471976028817	1471976028894	 	32
3851	40906	We can have wine and catch up.	We can have wine and catch up. 	1952526	1471976028947	1471976029083	a	65
3851	40906	We can have wine and catch up.	We can have wine and catch up. 	1952528	1471976029147	1471976029304	c	67
3851	40906	We can have wine and catch up.	We can have wine and catch up. 	1952529	1471976029542	1471976029618	BKSP	8
3851	40906	We can have wine and catch up.	We can have wine and catch up. 	1952530	1471976029722	1471976029817	BKSP	8
3851	40906	We can have wine and catch up.	We can have wine and catch up. 	1952555	1471976029797	1471976029942	c	67
3851	40906	We can have wine and catch up.	We can have wine and catch up. 	1952557	1471976029892	1471976030017	a	65
3851	40906	We can have wine and catch up.	We can have wine and catch up. 	1952560	1471976030129	1471976030277	t	84
3851	40906	We can have wine and catch up.	We can have wine and catch up. 	1952565	1471976030481	1471976030596	c	67
3851	40906	We can have wine and catch up.	We can have wine and catch up. 	1952567	1471976030556	1471976030652	h	72
3851	40906	We can have wine and catch up.	We can have wine and catch up. 	1952569	1471976030690	1471976030821	 	32
3851	40906	We can have wine and catch up.	We can have wine and catch up. 	1952684	1471976030911	1471976031026	u	85
3851	40906	We can have wine and catch up.	We can have wine and catch up. 	1952686	1471976031750	1471976031909	p	80
3851	40906	We can have wine and catch up.	We can have wine and catch up. 	1952688	1471976032164	1471976032318	.	190
3851	40906	We can have wine and catch up.	We can have wine and catch up. 	1952690	1471976032298	1471976032424	 	32
3851	40922	Penske wouldn't come here without a good idea it would hold up.	Penske wouldn't come here without a good idea it would hold up. 	1953081	1471976037928	1471976038254	SHIFT	16
3851	40922	Penske wouldn't come here without a good idea it would hold up.	Penske wouldn't come here without a good idea it would hold up. 	1953082	1471976038123	1471976038309	O	79
3851	40922	Penske wouldn't come here without a good idea it would hold up.	Penske wouldn't come here without a good idea it would hold up. 	1953083	1471976038828	1471976039003	BKSP	8
3851	40922	Penske wouldn't come here without a good idea it would hold up.	Penske wouldn't come here without a good idea it would hold up. 	1953099	1471976039251	1471976041277	SHIFT	16
3851	40922	Penske wouldn't come here without a good idea it would hold up.	Penske wouldn't come here without a good idea it would hold up. 	1953085	1471976039522	1471976039683	O	79
3851	40922	Penske wouldn't come here without a good idea it would hold up.	Penske wouldn't come here without a good idea it would hold up. 	1953087	1471976040197	1471976040353	BKSP	8
3851	40922	Penske wouldn't come here without a good idea it would hold up.	Penske wouldn't come here without a good idea it would hold up. 	1953092	1471976040633	1471976040783	P	80
3851	40922	Penske wouldn't come here without a good idea it would hold up.	Penske wouldn't come here without a good idea it would hold up. 	1953104	1471976041600	1471976041752	e	69
3851	40922	Penske wouldn't come here without a good idea it would hold up.	Penske wouldn't come here without a good idea it would hold up. 	1953318	1471976041731	1471976041866	n	78
3851	40922	Penske wouldn't come here without a good idea it would hold up.	Penske wouldn't come here without a good idea it would hold up. 	1953320	1471976042081	1471976042231	s	83
3851	40922	Penske wouldn't come here without a good idea it would hold up.	Penske wouldn't come here without a good idea it would hold up. 	1953324	1471976042486	1471976042655	k	75
3851	40922	Penske wouldn't come here without a good idea it would hold up.	Penske wouldn't come here without a good idea it would hold up. 	1953327	1471976042675	1471976042825	e	69
3851	40922	Penske wouldn't come here without a good idea it would hold up.	Penske wouldn't come here without a good idea it would hold up. 	1953331	1471976042804	1471976042931	 	32
3851	40922	Penske wouldn't come here without a good idea it would hold up.	Penske wouldn't come here without a good idea it would hold up. 	1953335	1471976047541	1471976047733	w	87
3851	40922	Penske wouldn't come here without a good idea it would hold up.	Penske wouldn't come here without a good idea it would hold up. 	1953396	1471976047672	1471976047872	o	79
3851	40922	Penske wouldn't come here without a good idea it would hold up.	Penske wouldn't come here without a good idea it would hold up. 	1953397	1471976047791	1471976047962	u	85
3851	40922	Penske wouldn't come here without a good idea it would hold up.	Penske wouldn't come here without a good idea it would hold up. 	1953399	1471976048225	1471976048387	l	76
3851	40922	Penske wouldn't come here without a good idea it would hold up.	Penske wouldn't come here without a good idea it would hold up. 	1953401	1471976048531	1471976048691	d	68
3851	40922	Penske wouldn't come here without a good idea it would hold up.	Penske wouldn't come here without a good idea it would hold up. 	1953403	1471976048725	1471976048841	n	78
3851	40922	Penske wouldn't come here without a good idea it would hold up.	Penske wouldn't come here without a good idea it would hold up. 	1953405	1471976049110	1471976049254	'	222
3851	40922	Penske wouldn't come here without a good idea it would hold up.	Penske wouldn't come here without a good idea it would hold up. 	1953430	1471976049299	1471976049410	t	84
3851	40922	Penske wouldn't come here without a good idea it would hold up.	Penske wouldn't come here without a good idea it would hold up. 	1953431	1471976049494	1471976049615	 	32
3851	40922	Penske wouldn't come here without a good idea it would hold up.	Penske wouldn't come here without a good idea it would hold up. 	1953432	1471976050018	1471976050189	c	67
3851	40922	Penske wouldn't come here without a good idea it would hold up.	Penske wouldn't come here without a good idea it would hold up. 	1953434	1471976050114	1471976050325	o	79
3851	40922	Penske wouldn't come here without a good idea it would hold up.	Penske wouldn't come here without a good idea it would hold up. 	1953454	1471976050253	1471976050419	m	77
3851	40922	Penske wouldn't come here without a good idea it would hold up.	Penske wouldn't come here without a good idea it would hold up. 	1953458	1471976050433	1471976050569	e	69
3851	40922	Penske wouldn't come here without a good idea it would hold up.	Penske wouldn't come here without a good idea it would hold up. 	1953462	1471976050503	1471976050633	 	32
3851	40922	Penske wouldn't come here without a good idea it would hold up.	Penske wouldn't come here without a good idea it would hold up. 	1953465	1471976050688	1471976050829	h	72
3851	40922	Penske wouldn't come here without a good idea it would hold up.	Penske wouldn't come here without a good idea it would hold up. 	1953468	1471976050843	1471976050958	e	69
3851	40922	Penske wouldn't come here without a good idea it would hold up.	Penske wouldn't come here without a good idea it would hold up. 	1953471	1471976050973	1471976051208	r	82
3851	40922	Penske wouldn't come here without a good idea it would hold up.	Penske wouldn't come here without a good idea it would hold up. 	1953504	1471976051206	1471976051353	e	69
3851	40922	Penske wouldn't come here without a good idea it would hold up.	Penske wouldn't come here without a good idea it would hold up. 	1953506	1471976051373	1471976051503	 	32
3851	40922	Penske wouldn't come here without a good idea it would hold up.	Penske wouldn't come here without a good idea it would hold up. 	1953508	1471976051588	1471976051722	w	87
3851	40922	Penske wouldn't come here without a good idea it would hold up.	Penske wouldn't come here without a good idea it would hold up. 	1953511	1471976051702	1471976051823	i	73
3851	40922	Penske wouldn't come here without a good idea it would hold up.	Penske wouldn't come here without a good idea it would hold up. 	1953513	1471976051892	1471976051973	t	84
3851	40922	Penske wouldn't come here without a good idea it would hold up.	Penske wouldn't come here without a good idea it would hold up. 	1953514	1471976051987	1471976052102	h	72
3851	40922	Penske wouldn't come here without a good idea it would hold up.	Penske wouldn't come here without a good idea it would hold up. 	1953515	1471976052142	1471976052302	o	79
3851	40922	Penske wouldn't come here without a good idea it would hold up.	Penske wouldn't come here without a good idea it would hold up. 	1953517	1471976052237	1471976052373	u	85
3851	40922	Penske wouldn't come here without a good idea it would hold up.	Penske wouldn't come here without a good idea it would hold up. 	1953519	1471976052396	1471976052513	t	84
3851	40922	Penske wouldn't come here without a good idea it would hold up.	Penske wouldn't come here without a good idea it would hold up. 	1953523	1471976052566	1471976052682	 	32
3851	40922	Penske wouldn't come here without a good idea it would hold up.	Penske wouldn't come here without a good idea it would hold up. 	1953526	1471976052796	1471976052917	a	65
3851	40922	Penske wouldn't come here without a good idea it would hold up.	Penske wouldn't come here without a good idea it would hold up. 	1953568	1471976053665	1471976053830	 	32
3851	40922	Penske wouldn't come here without a good idea it would hold up.	Penske wouldn't come here without a good idea it would hold up. 	1953573	1471976054004	1471976054145	g	71
3851	40922	Penske wouldn't come here without a good idea it would hold up.	Penske wouldn't come here without a good idea it would hold up. 	1953578	1471976054159	1471976054230	o	79
3851	40922	Penske wouldn't come here without a good idea it would hold up.	Penske wouldn't come here without a good idea it would hold up. 	1953582	1471976054319	1471976054425	o	79
3851	40922	Penske wouldn't come here without a good idea it would hold up.	Penske wouldn't come here without a good idea it would hold up. 	1953588	1471976054509	1471976054654	d	68
3851	40922	Penske wouldn't come here without a good idea it would hold up.	Penske wouldn't come here without a good idea it would hold up. 	1953637	1471976054694	1471976054830	 	32
3851	40922	Penske wouldn't come here without a good idea it would hold up.	Penske wouldn't come here without a good idea it would hold up. 	1953639	1471976054948	1471976055095	i	73
3851	40922	Penske wouldn't come here without a good idea it would hold up.	Penske wouldn't come here without a good idea it would hold up. 	1953642	1471976055248	1471976055344	d	68
3851	40922	Penske wouldn't come here without a good idea it would hold up.	Penske wouldn't come here without a good idea it would hold up. 	1953646	1471976055428	1471976055548	e	69
3851	40922	Penske wouldn't come here without a good idea it would hold up.	Penske wouldn't come here without a good idea it would hold up. 	1953650	1471976055613	1471976055774	a	65
3851	40922	Penske wouldn't come here without a good idea it would hold up.	Penske wouldn't come here without a good idea it would hold up. 	1953665	1471976055786	1471976055898	 	32
3851	40922	Penske wouldn't come here without a good idea it would hold up.	Penske wouldn't come here without a good idea it would hold up. 	1953666	1471976055917	1471976056053	i	73
3851	40922	Penske wouldn't come here without a good idea it would hold up.	Penske wouldn't come here without a good idea it would hold up. 	1953667	1471976056067	1471976056148	t	84
3851	40922	Penske wouldn't come here without a good idea it would hold up.	Penske wouldn't come here without a good idea it would hold up. 	1953668	1471976056172	1471976056278	 	32
3851	40922	Penske wouldn't come here without a good idea it would hold up.	Penske wouldn't come here without a good idea it would hold up. 	1953670	1471976056347	1471976056508	w	87
3851	40922	Penske wouldn't come here without a good idea it would hold up.	Penske wouldn't come here without a good idea it would hold up. 	1953717	1471976056487	1471976056613	o	79
3851	40922	Penske wouldn't come here without a good idea it would hold up.	Penske wouldn't come here without a good idea it would hold up. 	1953723	1471976056597	1471976056712	u	85
3851	40922	Penske wouldn't come here without a good idea it would hold up.	Penske wouldn't come here without a good idea it would hold up. 	1953729	1471976056787	1471976056892	l	76
3851	40922	Penske wouldn't come here without a good idea it would hold up.	Penske wouldn't come here without a good idea it would hold up. 	1953732	1471976056922	1471976057053	d	68
3851	40922	Penske wouldn't come here without a good idea it would hold up.	Penske wouldn't come here without a good idea it would hold up. 	1953735	1471976057032	1471976057131	 	32
3851	40922	Penske wouldn't come here without a good idea it would hold up.	Penske wouldn't come here without a good idea it would hold up. 	1953737	1471976057226	1471976057346	h	72
3851	40922	Penske wouldn't come here without a good idea it would hold up.	Penske wouldn't come here without a good idea it would hold up. 	1953812	1471976057360	1471976057482	o	79
3851	40922	Penske wouldn't come here without a good idea it would hold up.	Penske wouldn't come here without a good idea it would hold up. 	1953813	1471976057581	1471976057687	l	76
3851	40922	Penske wouldn't come here without a good idea it would hold up.	Penske wouldn't come here without a good idea it would hold up. 	1953814	1471976057871	1471976058027	d	68
3851	40922	Penske wouldn't come here without a good idea it would hold up.	Penske wouldn't come here without a good idea it would hold up. 	1953815	1471976058186	1471976058316	 	32
3851	40922	Penske wouldn't come here without a good idea it would hold up.	Penske wouldn't come here without a good idea it would hold up. 	1953817	1471976058899	1471976059070	u	85
3851	40922	Penske wouldn't come here without a good idea it would hold up.	Penske wouldn't come here without a good idea it would hold up. 	1953849	1471976059227	1471976059364	p	80
3851	40922	Penske wouldn't come here without a good idea it would hold up.	Penske wouldn't come here without a good idea it would hold up. 	1953852	1471976059558	1471976059716	.	190
3851	40922	Penske wouldn't come here without a good idea it would hold up.	Penske wouldn't come here without a good idea it would hold up. 	1953854	1471976059693	1471976059814	 	32
3851	40939	I changed that in one prior draft.	I changed that in one prior draft. 	1954081	1471976063587	1471976063868	SHIFT	16
3851	40939	I changed that in one prior draft.	I changed that in one prior draft. 	1954087	1471976063747	1471976063923	I	73
3851	40939	I changed that in one prior draft.	I changed that in one prior draft. 	1954093	1471976063937	1471976064103	 	32
3851	40939	I changed that in one prior draft.	I changed that in one prior draft. 	1954096	1471976064246	1471976064387	c	67
3851	40939	I changed that in one prior draft.	I changed that in one prior draft. 	1954099	1471976064472	1471976064607	h	72
3851	40939	I changed that in one prior draft.	I changed that in one prior draft. 	1954101	1471976064895	1471976065026	a	65
3851	40939	I changed that in one prior draft.	I changed that in one prior draft. 	1954130	1471976065264	1471976065407	n	78
3851	40939	I changed that in one prior draft.	I changed that in one prior draft. 	1954133	1471976065441	1471976065561	g	71
3851	40939	I changed that in one prior draft.	I changed that in one prior draft. 	1954137	1471976065650	1471976065746	e	69
3851	40939	I changed that in one prior draft.	I changed that in one prior draft. 	1954140	1471976065875	1471976066006	d	68
3851	40939	I changed that in one prior draft.	I changed that in one prior draft. 	1954185	1471976065985	1471976066121	 	32
3851	40939	I changed that in one prior draft.	I changed that in one prior draft. 	1954186	1471976066204	1471976066331	t	84
3851	40939	I changed that in one prior draft.	I changed that in one prior draft. 	1954189	1471976066310	1471976066440	h	72
3851	40939	I changed that in one prior draft.	I changed that in one prior draft. 	1954192	1471976066500	1471976066599	a	65
3851	40939	I changed that in one prior draft.	I changed that in one prior draft. 	1954195	1471976066618	1471976066780	t	84
3851	40939	I changed that in one prior draft.	I changed that in one prior draft. 	1954217	1471976066750	1471976066870	 	32
3851	40939	I changed that in one prior draft.	I changed that in one prior draft. 	1954219	1471976066884	1471976067040	i	73
3851	40939	I changed that in one prior draft.	I changed that in one prior draft. 	1954221	1471976067055	1471976067217	n	78
3851	40939	I changed that in one prior draft.	I changed that in one prior draft. 	1954224	1471976067144	1471976067265	 	32
3851	40939	I changed that in one prior draft.	I changed that in one prior draft. 	1954228	1471976067323	1471976067494	o	79
3851	40939	I changed that in one prior draft.	I changed that in one prior draft. 	1954262	1471976067424	1471976067569	n	78
3851	40939	I changed that in one prior draft.	I changed that in one prior draft. 	1954264	1471976067589	1471976067744	e	69
3851	40939	I changed that in one prior draft.	I changed that in one prior draft. 	1954266	1471976067712	1471976067829	 	32
3851	40939	I changed that in one prior draft.	I changed that in one prior draft. 	1954269	1471976067958	1471976068100	p	80
3851	40939	I changed that in one prior draft.	I changed that in one prior draft. 	1954272	1471976068127	1471976068279	r	82
3851	40939	I changed that in one prior draft.	I changed that in one prior draft. 	1954278	1471976068518	1471976068708	i	73
3851	40939	I changed that in one prior draft.	I changed that in one prior draft. 	1954355	1471976068723	1471976068908	o	79
3851	40939	I changed that in one prior draft.	I changed that in one prior draft. 	1954359	1471976069367	1471976069518	r	82
3851	40939	I changed that in one prior draft.	I changed that in one prior draft. 	1954361	1471976069496	1471976069632	 	32
3851	40939	I changed that in one prior draft.	I changed that in one prior draft. 	1954363	1471976069881	1471976070007	d	68
3851	40939	I changed that in one prior draft.	I changed that in one prior draft. 	1954367	1471976070171	1471976070307	r	82
3851	40939	I changed that in one prior draft.	I changed that in one prior draft. 	1954386	1471976070659	1471976070740	a	65
3851	40939	I changed that in one prior draft.	I changed that in one prior draft. 	1954389	1471976070839	1471976070939	f	70
3851	40939	I changed that in one prior draft.	I changed that in one prior draft. 	1954394	1471976071095	1471976071225	t	84
3851	40939	I changed that in one prior draft.	I changed that in one prior draft. 	1954402	1471976071284	1471976071460	.	190
3851	40939	I changed that in one prior draft.	I changed that in one prior draft. 	1954396	1471976071439	1471976071565	 	32
3851	40948	Below is the intended version.	Below is the intended version. 	1954641	1471976075217	1471976075699	SHIFT	16
3851	40948	Below is the intended version.	Below is the intended version. 	1954642	1471976075567	1471976075743	B	66
3851	40948	Below is the intended version.	Below is the intended version. 	1954644	1471976075806	1471976075948	e	69
3851	40948	Below is the intended version.	Below is the intended version. 	1954647	1471976076032	1471976076178	l	76
3851	40948	Below is the intended version.	Below is the intended version. 	1954650	1471976076157	1471976076312	o	79
3851	40948	Below is the intended version.	Below is the intended version. 	1954653	1471976076326	1471976076492	w	87
3851	40948	Below is the intended version.	Below is the intended version. 	1954666	1471976076506	1471976076657	 	32
3851	40948	Below is the intended version.	Below is the intended version. 	1954670	1471976076670	1471976076787	i	73
3851	40948	Below is the intended version.	Below is the intended version. 	1954674	1471976076801	1471976076907	s	83
3851	40948	Below is the intended version.	Below is the intended version. 	1954683	1471976076941	1471976077026	 	32
3851	40948	Below is the intended version.	Below is the intended version. 	1954692	1471976077162	1471976077308	t	84
3851	40948	Below is the intended version.	Below is the intended version. 	1954723	1471976077320	1471976077441	h	72
3851	40948	Below is the intended version.	Below is the intended version. 	1954726	1471976077511	1471976077647	e	69
3851	40948	Below is the intended version.	Below is the intended version. 	1954730	1471976077661	1471976077787	 	32
3851	40948	Below is the intended version.	Below is the intended version. 	1954734	1471976077831	1471976077976	i	73
3851	40948	Below is the intended version.	Below is the intended version. 	1954800	1471976077920	1471976078081	n	78
3851	40948	Below is the intended version.	Below is the intended version. 	1954805	1471976078107	1471976078217	t	84
3851	40948	Below is the intended version.	Below is the intended version. 	1954808	1471976078554	1471976078694	e	69
3851	40948	Below is the intended version.	Below is the intended version. 	1954811	1471976078890	1471976079056	n	78
3851	40948	Below is the intended version.	Below is the intended version. 	1954813	1471976079259	1471976079369	d	68
3851	40948	Below is the intended version.	Below is the intended version. 	1954814	1471976079489	1471976079585	e	69
3851	40948	Below is the intended version.	Below is the intended version. 	1954870	1471976079723	1471976079869	d	68
3851	40948	Below is the intended version.	Below is the intended version. 	1954874	1471976079884	1471976079954	 	32
3851	40948	Below is the intended version.	Below is the intended version. 	1954877	1471976080223	1471976080334	v	86
3851	40948	Below is the intended version.	Below is the intended version. 	1954880	1471976080468	1471976080583	e	69
3851	40948	Below is the intended version.	Below is the intended version. 	1954907	1471976080507	1471976080653	r	82
3851	40948	Below is the intended version.	Below is the intended version. 	1954909	1471976080793	1471976080953	s	83
3851	40948	Below is the intended version.	Below is the intended version. 	1954912	1471976080923	1471976081103	i	73
3851	40948	Below is the intended version.	Below is the intended version. 	1954916	1471976081082	1471976081232	o	79
3851	40948	Below is the intended version.	Below is the intended version. 	1954919	1471976081161	1471976081293	n	78
3851	40948	Below is the intended version.	Below is the intended version. 	1954920	1471976081431	1471976081558	.	190
3851	40948	Below is the intended version.	Below is the intended version. 	1954921	1471976081577	1471976081703	 	32
3851	40958	Sorry for the delay.	Sorry for the delay.	1955105	1471976086929	1471976087158	SHIFT	16
3851	40958	Sorry for the delay.	Sorry for the delay.	1955108	1471976087078	1471976087243	S	83
3851	40958	Sorry for the delay.	Sorry for the delay.	1955111	1471976087437	1471976087608	o	79
3851	40958	Sorry for the delay.	Sorry for the delay.	1955113	1471976087622	1471976087723	r	82
3851	40958	Sorry for the delay.	Sorry for the delay.	1955116	1471976087812	1471976087953	r	82
3851	40958	Sorry for the delay.	Sorry for the delay.	1955118	1471976087967	1471976088132	y	89
3851	40958	Sorry for the delay.	Sorry for the delay.	1955136	1471976088196	1471976088302	 	32
3851	40958	Sorry for the delay.	Sorry for the delay.	1955139	1471976088372	1471976088502	f	70
3851	40958	Sorry for the delay.	Sorry for the delay.	1955140	1471976088537	1471976088667	o	79
3851	40958	Sorry for the delay.	Sorry for the delay.	1955145	1471976088730	1471976088882	r	82
3851	40958	Sorry for the delay.	Sorry for the delay.	1955150	1471976088896	1471976089017	 	32
3851	40958	Sorry for the delay.	Sorry for the delay.	1955181	1471976089131	1471976089221	t	84
3851	40958	Sorry for the delay.	Sorry for the delay.	1955185	1471976089250	1471976089351	h	72
3851	40958	Sorry for the delay.	Sorry for the delay.	1955188	1471976089405	1471976089556	e	69
3851	40958	Sorry for the delay.	Sorry for the delay.	1955191	1471976089571	1471976089706	 	32
3851	40958	Sorry for the delay.	Sorry for the delay.	1955194	1471976089799	1471976089896	d	68
3851	40958	Sorry for the delay.	Sorry for the delay.	1955225	1471976089995	1471976090135	e	69
3851	40958	Sorry for the delay.	Sorry for the delay.	1955229	1471976090168	1471976090315	l	76
3851	40958	Sorry for the delay.	Sorry for the delay.	1955233	1471976090339	1471976090444	a	65
3851	40958	Sorry for the delay.	Sorry for the delay.	1955238	1471976090514	1471976090670	y	89
3851	40958	Sorry for the delay.	Sorry for the delay.	1955240	1471976090884	1471976091000	.	190
3851	40968	This is not a good situation to be in without a contract.	This is not a good situation to be in without a contract. 	1955422	1471976094214	1471976094419	SHIFT	16
3851	40968	This is not a good situation to be in without a contract.	This is not a good situation to be in without a contract. 	1955426	1471976094319	1471976094439	T	84
3851	40968	This is not a good situation to be in without a contract.	This is not a good situation to be in without a contract. 	1955433	1471976094587	1471976094759	h	72
3851	40968	This is not a good situation to be in without a contract.	This is not a good situation to be in without a contract. 	1955438	1471976094773	1471976094908	i	73
3851	40968	This is not a good situation to be in without a contract.	This is not a good situation to be in without a contract. 	1955444	1471976094998	1471976095123	s	83
3851	40968	This is not a good situation to be in without a contract.	This is not a good situation to be in without a contract. 	1955449	1471976095231	1471976095323	 	32
3851	40968	This is not a good situation to be in without a contract.	This is not a good situation to be in without a contract. 	1955460	1471976095302	1471976095408	i	73
3851	40968	This is not a good situation to be in without a contract.	This is not a good situation to be in without a contract. 	1955465	1471976095422	1471976095568	s	83
3851	40968	This is not a good situation to be in without a contract.	This is not a good situation to be in without a contract. 	1955471	1471976095547	1471976095657	 	32
3851	40968	This is not a good situation to be in without a contract.	This is not a good situation to be in without a contract. 	1955477	1471976095741	1471976095918	n	78
3851	40968	This is not a good situation to be in without a contract.	This is not a good situation to be in without a contract. 	1955483	1471976095841	1471976095972	o	79
3851	40968	This is not a good situation to be in without a contract.	This is not a good situation to be in without a contract. 	1955488	1471976096007	1471976096118	t	84
3851	40968	This is not a good situation to be in without a contract.	This is not a good situation to be in without a contract. 	1955500	1471976096134	1471976096247	 	32
3851	40968	This is not a good situation to be in without a contract.	This is not a good situation to be in without a contract. 	1955502	1471976096316	1471976096457	a	65
3851	40968	This is not a good situation to be in without a contract.	This is not a good situation to be in without a contract. 	1955505	1471976096436	1471976096552	 	32
3851	40968	This is not a good situation to be in without a contract.	This is not a good situation to be in without a contract. 	1955507	1471976096611	1471976096712	g	71
3851	40968	This is not a good situation to be in without a contract.	This is not a good situation to be in without a contract. 	1955509	1471976096726	1471976096812	o	79
3851	40968	This is not a good situation to be in without a contract.	This is not a good situation to be in without a contract. 	1955529	1471976096891	1471976096991	o	79
3851	40968	This is not a good situation to be in without a contract.	This is not a good situation to be in without a contract. 	1955531	1471976097021	1471976097217	d	68
3851	40968	This is not a good situation to be in without a contract.	This is not a good situation to be in without a contract. 	1955532	1471976097218	1471976097292	 	32
3851	40968	This is not a good situation to be in without a contract.	This is not a good situation to be in without a contract. 	1955533	1471976097495	1471976097632	s	83
3851	40968	This is not a good situation to be in without a contract.	This is not a good situation to be in without a contract. 	1955573	1471976097610	1471976097760	i	73
3851	40968	This is not a good situation to be in without a contract.	This is not a good situation to be in without a contract. 	1955575	1471976098030	1471976098141	t	84
3851	40968	This is not a good situation to be in without a contract.	This is not a good situation to be in without a contract. 	1955577	1471976098350	1471976098515	u	85
3851	40968	This is not a good situation to be in without a contract.	This is not a good situation to be in without a contract. 	1955579	1471976098530	1471976098625	a	65
3851	40968	This is not a good situation to be in without a contract.	This is not a good situation to be in without a contract. 	1955581	1471976098689	1471976098835	t	84
3851	40968	This is not a good situation to be in without a contract.	This is not a good situation to be in without a contract. 	1955584	1471976098864	1471976099030	i	73
3851	40968	This is not a good situation to be in without a contract.	This is not a good situation to be in without a contract. 	1955602	1471976099104	1471976099345	n	79
3851	40968	This is not a good situation to be in without a contract.	This is not a good situation to be in without a contract. 	1955604	1471976099667	1471976099789	 	32
3851	40968	This is not a good situation to be in without a contract.	This is not a good situation to be in without a contract. 	1955607	1471976099928	1471976100057	t	84
3851	40968	This is not a good situation to be in without a contract.	This is not a good situation to be in without a contract. 	1955650	1471976100019	1471976100173	o	79
3851	40968	This is not a good situation to be in without a contract.	This is not a good situation to be in without a contract. 	1955652	1471976100137	1471976100278	 	32
3851	40968	This is not a good situation to be in without a contract.	This is not a good situation to be in without a contract. 	1955654	1471976100362	1471976100497	b	66
3851	40968	This is not a good situation to be in without a contract.	This is not a good situation to be in without a contract. 	1955657	1471976100478	1471976100634	e	69
3851	40968	This is not a good situation to be in without a contract.	This is not a good situation to be in without a contract. 	1955662	1471976100598	1471976100693	 	32
3851	40968	This is not a good situation to be in without a contract.	This is not a good situation to be in without a contract. 	1955666	1471976100731	1471976100873	i	73
3851	40968	This is not a good situation to be in without a contract.	This is not a good situation to be in without a contract. 	1955703	1471976100887	1471976101013	n	78
3851	40968	This is not a good situation to be in without a contract.	This is not a good situation to be in without a contract. 	1955706	1471976101152	1471976101282	 	32
3851	40968	This is not a good situation to be in without a contract.	This is not a good situation to be in without a contract. 	1955710	1471976101416	1471976101512	t	84
3851	40968	This is not a good situation to be in without a contract.	This is not a good situation to be in without a contract. 	1955715	1471976101836	1471976101947	BKSP	8
3851	40968	This is not a good situation to be in without a contract.	This is not a good situation to be in without a contract. 	1955720	1471976101981	1471976102112	w	87
3851	40968	This is not a good situation to be in without a contract.	This is not a good situation to be in without a contract. 	1955724	1471976102127	1471976102276	i	73
3851	40968	This is not a good situation to be in without a contract.	This is not a good situation to be in without a contract. 	1955741	1471976102310	1471976102411	t	84
3851	40968	This is not a good situation to be in without a contract.	This is not a good situation to be in without a contract. 	1955744	1471976102431	1471976102551	h	72
3851	40968	This is not a good situation to be in without a contract.	This is not a good situation to be in without a contract. 	1955747	1471976102565	1471976102721	o	79
3851	40968	This is not a good situation to be in without a contract.	This is not a good situation to be in without a contract. 	1955749	1471976102650	1471976102826	u	85
3851	40968	This is not a good situation to be in without a contract.	This is not a good situation to be in without a contract. 	1955750	1471976102885	1471976103005	t	84
3851	40968	This is not a good situation to be in without a contract.	This is not a good situation to be in without a contract. 	1955789	1471976103099	1471976103212	 	32
3851	40968	This is not a good situation to be in without a contract.	This is not a good situation to be in without a contract. 	1955791	1471976103394	1471976103525	a	65
3851	40968	This is not a good situation to be in without a contract.	This is not a good situation to be in without a contract. 	1955795	1471976103539	1471976103635	 	32
3851	40968	This is not a good situation to be in without a contract.	This is not a good situation to be in without a contract. 	1955797	1471976103729	1471976103900	c	67
3851	40968	This is not a good situation to be in without a contract.	This is not a good situation to be in without a contract. 	1955842	1471976103874	1471976104045	o	79
3851	40968	This is not a good situation to be in without a contract.	This is not a good situation to be in without a contract. 	1955846	1471976104354	1471976104464	n	78
3851	40968	This is not a good situation to be in without a contract.	This is not a good situation to be in without a contract. 	1955849	1471976104533	1471976104709	t	84
3851	40968	This is not a good situation to be in without a contract.	This is not a good situation to be in without a contract. 	1955853	1471976104768	1471976104894	r	82
3851	40968	This is not a good situation to be in without a contract.	This is not a good situation to be in without a contract. 	1955855	1471976105033	1471976105153	a	65
3851	40968	This is not a good situation to be in without a contract.	This is not a good situation to be in without a contract. 	1955857	1471976105252	1471976105339	c	67
3851	40968	This is not a good situation to be in without a contract.	This is not a good situation to be in without a contract. 	1955876	1471976105497	1471976105658	t	84
3851	40968	This is not a good situation to be in without a contract.	This is not a good situation to be in without a contract. 	1955877	1471976105672	1471976105817	.	190
3851	40968	This is not a good situation to be in without a contract.	This is not a good situation to be in without a contract. 	1955880	1471976105797	1471976105948	 	32
3851	40979	Try this one now and let me know.	Try this one now and let me know. 	1956024	1471976109062	1471976109322	SHIFT	16
3851	40979	Try this one now and let me know.	Try this one now and let me know. 	1956026	1471976109222	1471976109344	T	84
3851	40979	Try this one now and let me know.	Try this one now and let me know. 	1956028	1471976109655	1471976109792	r	82
3851	40979	Try this one now and let me know.	Try this one now and let me know. 	1956030	1471976109841	1471976110001	y	89
3851	40979	Try this one now and let me know.	Try this one now and let me know. 	1956032	1471976110051	1471976110202	 	32
3851	40979	Try this one now and let me know.	Try this one now and let me know. 	1956034	1471976110247	1471976110401	t	84
3851	40979	Try this one now and let me know.	Try this one now and let me know. 	1956044	1471976110380	1471976110481	h	72
3851	40979	Try this one now and let me know.	Try this one now and let me know. 	1956045	1471976110540	1471976110686	i	73
3851	40979	Try this one now and let me know.	Try this one now and let me know. 	1956046	1471976110755	1471976110886	s	83
3851	40979	Try this one now and let me know.	Try this one now and let me know. 	1956047	1471976110900	1471976110980	 	32
3851	40979	Try this one now and let me know.	Try this one now and let me know. 	1956049	1471976111015	1471976111206	o	79
3851	40979	Try this one now and let me know.	Try this one now and let me know. 	1956068	1471976111110	1471976111250	n	78
3851	40979	Try this one now and let me know.	Try this one now and let me know. 	1956070	1471976111264	1471976111402	e	69
3851	40979	Try this one now and let me know.	Try this one now and let me know. 	1956072	1471976111375	1471976111470	 	32
3851	40979	Try this one now and let me know.	Try this one now and let me know. 	1956074	1471976111525	1471976111705	n	78
3851	40979	Try this one now and let me know.	Try this one now and let me know. 	1956077	1471976111644	1471976111810	o	79
3851	40979	Try this one now and let me know.	Try this one now and let me know. 	1956097	1471976111789	1471976111930	w	87
3851	40979	Try this one now and let me know.	Try this one now and let me know. 	1956099	1471976111944	1471976112050	 	32
3851	40979	Try this one now and let me know.	Try this one now and let me know. 	1956101	1471976112149	1471976112275	a	65
3851	40979	Try this one now and let me know.	Try this one now and let me know. 	1956104	1471976112288	1471976112420	n	78
3851	40979	Try this one now and let me know.	Try this one now and let me know. 	1956108	1471976112433	1471976112559	d	68
3851	40979	Try this one now and let me know.	Try this one now and let me know. 	1956154	1471976112528	1471976112639	 	32
3851	40979	Try this one now and let me know.	Try this one now and let me know. 	1956156	1471976112663	1471976112839	l	76
3851	40979	Try this one now and let me know.	Try this one now and let me know. 	1956158	1471976112818	1471976112939	e	69
3851	40979	Try this one now and let me know.	Try this one now and let me know. 	1956162	1471976113083	1471976113228	t	84
3851	40979	Try this one now and let me know.	Try this one now and let me know. 	1956165	1471976113258	1471976113404	 	32
3851	40979	Try this one now and let me know.	Try this one now and let me know. 	1956170	1471976113428	1471976113559	m	77
3851	40979	Try this one now and let me know.	Try this one now and let me know. 	1956217	1471976113573	1471976113688	e	69
3851	40979	Try this one now and let me know.	Try this one now and let me know. 	1956219	1471976114287	1471976114412	 	32
3851	40979	Try this one now and let me know.	Try this one now and let me know. 	1956222	1471976114642	1471976114832	k	75
3851	40979	Try this one now and let me know.	Try this one now and let me know. 	1956224	1471976114841	1471976114957	n	78
3851	40979	Try this one now and let me know.	Try this one now and let me know. 	1956226	1471976115001	1471976115117	o	79
3851	40979	Try this one now and let me know.	Try this one now and let me know. 	1956238	1471976115136	1471976115282	w	87
3851	40979	Try this one now and let me know.	Try this one now and let me know. 	1956240	1471976115301	1471976115457	.	190
3851	40979	Try this one now and let me know.	Try this one now and let me know. 	1956244	1471976115476	1471976115577	 	32
3851	40990	Rookie Kevin Swayne will move into the starting lineup.	Rookie Kevin Swayne will move into the starting lineup. 	1956475	1471976120058	1471976120754	SHIFT	16
3851	40990	Rookie Kevin Swayne will move into the starting lineup.	Rookie Kevin Swayne will move into the starting lineup. 	1956474	1471976120513	1471976120670	R	82
3851	40990	Rookie Kevin Swayne will move into the starting lineup.	Rookie Kevin Swayne will move into the starting lineup. 	1956477	1471976121566	1471976121662	o	79
3851	40990	Rookie Kevin Swayne will move into the starting lineup.	Rookie Kevin Swayne will move into the starting lineup. 	1956480	1471976121747	1471976121842	o	79
3851	40990	Rookie Kevin Swayne will move into the starting lineup.	Rookie Kevin Swayne will move into the starting lineup. 	1956483	1471976122011	1471976122117	k	75
3851	40990	Rookie Kevin Swayne will move into the starting lineup.	Rookie Kevin Swayne will move into the starting lineup. 	1956486	1471976122211	1471976122322	i	73
3851	40990	Rookie Kevin Swayne will move into the starting lineup.	Rookie Kevin Swayne will move into the starting lineup. 	1956584	1471976122386	1471976122577	w	87
3851	40990	Rookie Kevin Swayne will move into the starting lineup.	Rookie Kevin Swayne will move into the starting lineup. 	1956586	1471976122541	1471976122692	 	32
3851	40990	Rookie Kevin Swayne will move into the starting lineup.	Rookie Kevin Swayne will move into the starting lineup. 	1956595	1471976122975	1471976123416	SHIFT	16
3851	40990	Rookie Kevin Swayne will move into the starting lineup.	Rookie Kevin Swayne will move into the starting lineup. 	1956591	1471976123284	1471976123350	J	74
3851	40990	Rookie Kevin Swayne will move into the starting lineup.	Rookie Kevin Swayne will move into the starting lineup. 	1956600	1471976123869	1471976123980	BKSP	8
3851	40990	Rookie Kevin Swayne will move into the starting lineup.	Rookie Kevin Swayne will move into the starting lineup. 	1956604	1471976124064	1471976124155	BKSP	8
3851	40990	Rookie Kevin Swayne will move into the starting lineup.	Rookie Kevin Swayne will move into the starting lineup. 	1956606	1471976124249	1471976124360	BKSP	8
3851	40990	Rookie Kevin Swayne will move into the starting lineup.	Rookie Kevin Swayne will move into the starting lineup. 	1956608	1471976124539	1471976124644	 	32
3851	40990	Rookie Kevin Swayne will move into the starting lineup.	Rookie Kevin Swayne will move into the starting lineup. 	1956609	1471976124713	1471976124794	w	87
3851	40990	Rookie Kevin Swayne will move into the starting lineup.	Rookie Kevin Swayne will move into the starting lineup. 	1956677	1471976124963	1471976125099	BKSP	8
3851	40990	Rookie Kevin Swayne will move into the starting lineup.	Rookie Kevin Swayne will move into the starting lineup. 	1956679	1471976125234	1471976125338	BKSP	8
3851	40990	Rookie Kevin Swayne will move into the starting lineup.	Rookie Kevin Swayne will move into the starting lineup. 	1956683	1471976125473	1471976125643	w	87
3851	40990	Rookie Kevin Swayne will move into the starting lineup.	Rookie Kevin Swayne will move into the starting lineup. 	1956688	1471976125662	1471976125748	 	32
3851	40990	Rookie Kevin Swayne will move into the starting lineup.	Rookie Kevin Swayne will move into the starting lineup. 	1956693	1471976126012	1471976126103	BKSP	8
3851	40990	Rookie Kevin Swayne will move into the starting lineup.	Rookie Kevin Swayne will move into the starting lineup. 	1956698	1471976126201	1471976126313	BKSP	8
3851	40990	Rookie Kevin Swayne will move into the starting lineup.	Rookie Kevin Swayne will move into the starting lineup. 	1956703	1471976126376	1471976126518	e	69
3851	40990	Rookie Kevin Swayne will move into the starting lineup.	Rookie Kevin Swayne will move into the starting lineup. 	1956708	1471976126532	1471976126657	 	32
3851	40990	Rookie Kevin Swayne will move into the starting lineup.	Rookie Kevin Swayne will move into the starting lineup. 	1956710	1471976126866	1471976127157	SHIFT	16
3851	40990	Rookie Kevin Swayne will move into the starting lineup.	Rookie Kevin Swayne will move into the starting lineup. 	1956861	1471976127046	1471976127216	J	74
3851	40990	Rookie Kevin Swayne will move into the starting lineup.	Rookie Kevin Swayne will move into the starting lineup. 	1956866	1471976127219	1471976127351	w	87
3851	40990	Rookie Kevin Swayne will move into the starting lineup.	Rookie Kevin Swayne will move into the starting lineup. 	1956870	1471976127755	1471976127871	BKSP	8
3851	40990	Rookie Kevin Swayne will move into the starting lineup.	Rookie Kevin Swayne will move into the starting lineup. 	1956872	1471976127960	1471976128071	BKSP	8
3851	40990	Rookie Kevin Swayne will move into the starting lineup.	Rookie Kevin Swayne will move into the starting lineup. 	1956873	1471976128724	1471976129814	SHIFT	16
3851	40990	Rookie Kevin Swayne will move into the starting lineup.	Rookie Kevin Swayne will move into the starting lineup. 	1956875	1471976129674	1471976129834	K	75
3851	40990	Rookie Kevin Swayne will move into the starting lineup.	Rookie Kevin Swayne will move into the starting lineup. 	1956877	1471976129918	1471976130068	w	87
3851	40990	Rookie Kevin Swayne will move into the starting lineup.	Rookie Kevin Swayne will move into the starting lineup. 	1956879	1471976130731	1471976130883	BKSP	8
3851	40990	Rookie Kevin Swayne will move into the starting lineup.	Rookie Kevin Swayne will move into the starting lineup. 	1956882	1471976130936	1471976131057	e	69
3851	40990	Rookie Kevin Swayne will move into the starting lineup.	Rookie Kevin Swayne will move into the starting lineup. 	1956885	1471976131395	1471976131596	c	67
3851	40990	Rookie Kevin Swayne will move into the starting lineup.	Rookie Kevin Swayne will move into the starting lineup. 	1956952	1471976131631	1471976131837	i	73
3851	40990	Rookie Kevin Swayne will move into the starting lineup.	Rookie Kevin Swayne will move into the starting lineup. 	1956956	1471976131761	1471976131891	n	78
3851	40990	Rookie Kevin Swayne will move into the starting lineup.	Rookie Kevin Swayne will move into the starting lineup. 	1956960	1471976132101	1471976132201	BKSP	8
3851	40990	Rookie Kevin Swayne will move into the starting lineup.	Rookie Kevin Swayne will move into the starting lineup. 	1956964	1471976132314	1471976132411	BKSP	8
3851	40990	Rookie Kevin Swayne will move into the starting lineup.	Rookie Kevin Swayne will move into the starting lineup. 	1956967	1471976132500	1471976132611	BKSP	8
3851	40990	Rookie Kevin Swayne will move into the starting lineup.	Rookie Kevin Swayne will move into the starting lineup. 	1956970	1471976132689	1471976132826	v	86
3851	40990	Rookie Kevin Swayne will move into the starting lineup.	Rookie Kevin Swayne will move into the starting lineup. 	1956974	1471976133234	1471976133379	i	73
3851	40990	Rookie Kevin Swayne will move into the starting lineup.	Rookie Kevin Swayne will move into the starting lineup. 	1957085	1471976133303	1471976133510	n	78
3851	40990	Rookie Kevin Swayne will move into the starting lineup.	Rookie Kevin Swayne will move into the starting lineup. 	1957087	1471976133524	1471976133649	 	32
3851	40990	Rookie Kevin Swayne will move into the starting lineup.	Rookie Kevin Swayne will move into the starting lineup. 	1957094	1471976133843	1471976134424	SHIFT	16
3851	40990	Rookie Kevin Swayne will move into the starting lineup.	Rookie Kevin Swayne will move into the starting lineup. 	1957089	1471976134238	1471976134354	S	83
3851	40990	Rookie Kevin Swayne will move into the starting lineup.	Rookie Kevin Swayne will move into the starting lineup. 	1957097	1471976135072	1471976135205	q	81
3851	40990	Rookie Kevin Swayne will move into the starting lineup.	Rookie Kevin Swayne will move into the starting lineup. 	1957104	1471976135781	1471976135916	BKSP	8
3851	40990	Rookie Kevin Swayne will move into the starting lineup.	Rookie Kevin Swayne will move into the starting lineup. 	1957107	1471976136031	1471976136186	q	81
3851	40990	Rookie Kevin Swayne will move into the starting lineup.	Rookie Kevin Swayne will move into the starting lineup. 	1957115	1471976136485	1471976136646	BKSP	8
3851	40990	Rookie Kevin Swayne will move into the starting lineup.	Rookie Kevin Swayne will move into the starting lineup. 	1957325	1471976136627	1471976136786	w	87
3851	40990	Rookie Kevin Swayne will move into the starting lineup.	Rookie Kevin Swayne will move into the starting lineup. 	1957330	1471976137229	1471976137330	CAPS_LOCK	20
3851	40990	Rookie Kevin Swayne will move into the starting lineup.	Rookie Kevin Swayne will move into the starting lineup. 	1957337	1471976137853	1471976138014	A	65
3851	40990	Rookie Kevin Swayne will move into the starting lineup.	Rookie Kevin Swayne will move into the starting lineup. 	1957344	1471976138368	1471976138493	CAPS_LOCK	20
3851	40990	Rookie Kevin Swayne will move into the starting lineup.	Rookie Kevin Swayne will move into the starting lineup. 	1957352	1471976138632	1471976138798	BKSP	8
3851	40990	Rookie Kevin Swayne will move into the starting lineup.	Rookie Kevin Swayne will move into the starting lineup. 	1957356	1471976138822	1471976139008	a	65
3851	40990	Rookie Kevin Swayne will move into the starting lineup.	Rookie Kevin Swayne will move into the starting lineup. 	1957362	1471976139705	1471976139862	t	84
3851	40990	Rookie Kevin Swayne will move into the starting lineup.	Rookie Kevin Swayne will move into the starting lineup. 	1957365	1471976140819	1471976140994	BKSP	8
3851	40990	Rookie Kevin Swayne will move into the starting lineup.	Rookie Kevin Swayne will move into the starting lineup. 	1957368	1471976141816	1471976141933	y	89
3851	40990	Rookie Kevin Swayne will move into the starting lineup.	Rookie Kevin Swayne will move into the starting lineup. 	1957370	1471976142042	1471976142202	n	78
3851	40990	Rookie Kevin Swayne will move into the starting lineup.	Rookie Kevin Swayne will move into the starting lineup. 	1957463	1471976142182	1471976142367	w	87
3851	40990	Rookie Kevin Swayne will move into the starting lineup.	Rookie Kevin Swayne will move into the starting lineup. 	1957467	1471976142351	1471976142487	 	32
3851	40990	Rookie Kevin Swayne will move into the starting lineup.	Rookie Kevin Swayne will move into the starting lineup. 	1957470	1471976143400	1471976143510	BKSP	8
3851	40990	Rookie Kevin Swayne will move into the starting lineup.	Rookie Kevin Swayne will move into the starting lineup. 	1957475	1471976143625	1471976143785	BKSP	8
3851	40990	Rookie Kevin Swayne will move into the starting lineup.	Rookie Kevin Swayne will move into the starting lineup. 	1957477	1471976143854	1471976144006	e	69
3851	40990	Rookie Kevin Swayne will move into the starting lineup.	Rookie Kevin Swayne will move into the starting lineup. 	1957483	1471976144050	1471976144185	 	32
3851	40990	Rookie Kevin Swayne will move into the starting lineup.	Rookie Kevin Swayne will move into the starting lineup. 	1957486	1471976144264	1471976144405	q	81
3851	40990	Rookie Kevin Swayne will move into the starting lineup.	Rookie Kevin Swayne will move into the starting lineup. 	1957487	1471976144420	1471976144470	i	73
3851	40990	Rookie Kevin Swayne will move into the starting lineup.	Rookie Kevin Swayne will move into the starting lineup. 	1957634	1471976144619	1471976144730	l	76
3851	40990	Rookie Kevin Swayne will move into the starting lineup.	Rookie Kevin Swayne will move into the starting lineup. 	1957636	1471976144814	1471976144939	l	76
3851	40990	Rookie Kevin Swayne will move into the starting lineup.	Rookie Kevin Swayne will move into the starting lineup. 	1957638	1471976145163	1471976145253	BKSP	8
3851	40990	Rookie Kevin Swayne will move into the starting lineup.	Rookie Kevin Swayne will move into the starting lineup. 	1957640	1471976145353	1471976145474	BKSP	8
3851	40990	Rookie Kevin Swayne will move into the starting lineup.	Rookie Kevin Swayne will move into the starting lineup. 	1957643	1471976145568	1471976145698	BKSP	8
3851	40990	Rookie Kevin Swayne will move into the starting lineup.	Rookie Kevin Swayne will move into the starting lineup. 	1957646	1471976145808	1471976145889	BKSP	8
3851	40990	Rookie Kevin Swayne will move into the starting lineup.	Rookie Kevin Swayne will move into the starting lineup. 	1957650	1471976146417	1471976146607	e	69
3851	40990	Rookie Kevin Swayne will move into the starting lineup.	Rookie Kevin Swayne will move into the starting lineup. 	1957653	1471976147810	1471976147961	i	73
3851	40990	Rookie Kevin Swayne will move into the starting lineup.	Rookie Kevin Swayne will move into the starting lineup. 	1957657	1471976148149	1471976148256	l	76
3851	40990	Rookie Kevin Swayne will move into the starting lineup.	Rookie Kevin Swayne will move into the starting lineup. 	1957702	1471976148358	1471976148524	l	76
3851	40990	Rookie Kevin Swayne will move into the starting lineup.	Rookie Kevin Swayne will move into the starting lineup. 	1957705	1471976148474	1471976148627	 	32
3851	40990	Rookie Kevin Swayne will move into the starting lineup.	Rookie Kevin Swayne will move into the starting lineup. 	1957709	1471976148755	1471976148914	m	77
3851	40990	Rookie Kevin Swayne will move into the starting lineup.	Rookie Kevin Swayne will move into the starting lineup. 	1957712	1471976148879	1471976149004	o	79
3851	40990	Rookie Kevin Swayne will move into the starting lineup.	Rookie Kevin Swayne will move into the starting lineup. 	1957716	1471976149118	1471976149323	c	67
3851	40990	Rookie Kevin Swayne will move into the starting lineup.	Rookie Kevin Swayne will move into the starting lineup. 	1957893	1471976149493	1471976149628	BKSP	8
3851	40990	Rookie Kevin Swayne will move into the starting lineup.	Rookie Kevin Swayne will move into the starting lineup. 	1957895	1471976149733	1471976149838	BKSP	8
3851	40990	Rookie Kevin Swayne will move into the starting lineup.	Rookie Kevin Swayne will move into the starting lineup. 	1957897	1471976149927	1471976150038	BKSP	8
3851	40990	Rookie Kevin Swayne will move into the starting lineup.	Rookie Kevin Swayne will move into the starting lineup. 	1957900	1471976150134	1471976150242	BKSP	8
3851	40990	Rookie Kevin Swayne will move into the starting lineup.	Rookie Kevin Swayne will move into the starting lineup. 	1957903	1471976150332	1471976150453	BKSP	8
3851	40990	Rookie Kevin Swayne will move into the starting lineup.	Rookie Kevin Swayne will move into the starting lineup. 	1957905	1471976150597	1471976150777	BKSP	8
3851	40990	Rookie Kevin Swayne will move into the starting lineup.	Rookie Kevin Swayne will move into the starting lineup. 	1957907	1471976150896	1471976151058	BKSP	8
3851	40990	Rookie Kevin Swayne will move into the starting lineup.	Rookie Kevin Swayne will move into the starting lineup. 	1957909	1471976151281	1471976151432	BKSP	8
3851	40990	Rookie Kevin Swayne will move into the starting lineup.	Rookie Kevin Swayne will move into the starting lineup. 	1957912	1471976151561	1471976151676	q	81
3851	40990	Rookie Kevin Swayne will move into the starting lineup.	Rookie Kevin Swayne will move into the starting lineup. 	1957915	1471976152151	1471976152341	BKSP	8
3851	40990	Rookie Kevin Swayne will move into the starting lineup.	Rookie Kevin Swayne will move into the starting lineup. 	1957918	1471976152494	1471976152665	w	87
3851	40990	Rookie Kevin Swayne will move into the starting lineup.	Rookie Kevin Swayne will move into the starting lineup. 	1957922	1471976153029	1471976153051	u	85
3851	40990	Rookie Kevin Swayne will move into the starting lineup.	Rookie Kevin Swayne will move into the starting lineup. 	1957923	1471976153523	1471976153644	BKSP	8
3851	40990	Rookie Kevin Swayne will move into the starting lineup.	Rookie Kevin Swayne will move into the starting lineup. 	1957925	1471976153873	1471976153973	i	73
3851	40990	Rookie Kevin Swayne will move into the starting lineup.	Rookie Kevin Swayne will move into the starting lineup. 	1957926	1471976154112	1471976154223	l	76
3851	40990	Rookie Kevin Swayne will move into the starting lineup.	Rookie Kevin Swayne will move into the starting lineup. 	1957927	1471976154312	1471976154457	l	76
3851	40990	Rookie Kevin Swayne will move into the starting lineup.	Rookie Kevin Swayne will move into the starting lineup. 	1957928	1471976154419	1471976154577	 	32
3851	40990	Rookie Kevin Swayne will move into the starting lineup.	Rookie Kevin Swayne will move into the starting lineup. 	1957930	1471976154651	1471976154842	m	77
3851	40990	Rookie Kevin Swayne will move into the starting lineup.	Rookie Kevin Swayne will move into the starting lineup. 	1957934	1471976154782	1471976154902	o	79
3851	40990	Rookie Kevin Swayne will move into the starting lineup.	Rookie Kevin Swayne will move into the starting lineup. 	1957937	1471976154951	1471976155097	c	67
3851	40990	Rookie Kevin Swayne will move into the starting lineup.	Rookie Kevin Swayne will move into the starting lineup. 	1958012	1471976155111	1471976155256	w	87
3851	40990	Rookie Kevin Swayne will move into the starting lineup.	Rookie Kevin Swayne will move into the starting lineup. 	1958015	1471976155229	1471976155307	 	32
3851	40990	Rookie Kevin Swayne will move into the starting lineup.	Rookie Kevin Swayne will move into the starting lineup. 	1958021	1471976155336	1471976155507	i	73
3851	40990	Rookie Kevin Swayne will move into the starting lineup.	Rookie Kevin Swayne will move into the starting lineup. 	1958024	1471976155471	1471976155627	n	78
3851	40990	Rookie Kevin Swayne will move into the starting lineup.	Rookie Kevin Swayne will move into the starting lineup. 	1958030	1471976156015	1471976156121	BKSP	8
3851	40990	Rookie Kevin Swayne will move into the starting lineup.	Rookie Kevin Swayne will move into the starting lineup. 	1958033	1471976156225	1471976156332	BKSP	8
3851	40990	Rookie Kevin Swayne will move into the starting lineup.	Rookie Kevin Swayne will move into the starting lineup. 	1958034	1471976156435	1471976156536	BKSP	8
3851	40990	Rookie Kevin Swayne will move into the starting lineup.	Rookie Kevin Swayne will move into the starting lineup. 	1958035	1471976156639	1471976156747	BKSP	8
3851	40990	Rookie Kevin Swayne will move into the starting lineup.	Rookie Kevin Swayne will move into the starting lineup. 	1958038	1471976156846	1471976156940	BKSP	8
3851	40990	Rookie Kevin Swayne will move into the starting lineup.	Rookie Kevin Swayne will move into the starting lineup. 	1958041	1471976157114	1471976157266	v	86
3851	40990	Rookie Kevin Swayne will move into the starting lineup.	Rookie Kevin Swayne will move into the starting lineup. 	1958160	1471976157384	1471976157570	e	69
3851	40990	Rookie Kevin Swayne will move into the starting lineup.	Rookie Kevin Swayne will move into the starting lineup. 	1958162	1471976157639	1471976157795	 	32
3851	40990	Rookie Kevin Swayne will move into the starting lineup.	Rookie Kevin Swayne will move into the starting lineup. 	1958167	1471976158478	1471976158653	u	85
3851	40990	Rookie Kevin Swayne will move into the starting lineup.	Rookie Kevin Swayne will move into the starting lineup. 	1958171	1471976158632	1471976158799	n	78
3851	40990	Rookie Kevin Swayne will move into the starting lineup.	Rookie Kevin Swayne will move into the starting lineup. 	1958175	1471976159062	1471976159157	BKSP	8
3851	40990	Rookie Kevin Swayne will move into the starting lineup.	Rookie Kevin Swayne will move into the starting lineup. 	1958177	1471976159251	1471976159328	BKSP	8
3851	40990	Rookie Kevin Swayne will move into the starting lineup.	Rookie Kevin Swayne will move into the starting lineup. 	1958179	1471976159536	1471976159717	i	73
3851	40990	Rookie Kevin Swayne will move into the starting lineup.	Rookie Kevin Swayne will move into the starting lineup. 	1958229	1471976159661	1471976159827	n	78
3851	40990	Rookie Kevin Swayne will move into the starting lineup.	Rookie Kevin Swayne will move into the starting lineup. 	1958232	1471976160065	1471976160197	t	84
3851	40990	Rookie Kevin Swayne will move into the starting lineup.	Rookie Kevin Swayne will move into the starting lineup. 	1958234	1471976160251	1471976160443	o	79
3851	40990	Rookie Kevin Swayne will move into the starting lineup.	Rookie Kevin Swayne will move into the starting lineup. 	1958237	1471976160386	1471976160547	 	32
3851	40990	Rookie Kevin Swayne will move into the starting lineup.	Rookie Kevin Swayne will move into the starting lineup. 	1958240	1471976160805	1471976160891	t	84
3851	40990	Rookie Kevin Swayne will move into the starting lineup.	Rookie Kevin Swayne will move into the starting lineup. 	1958243	1471976160905	1471976161006	h	72
3851	40990	Rookie Kevin Swayne will move into the starting lineup.	Rookie Kevin Swayne will move into the starting lineup. 	1958350	1471976161247	1471976161425	 	69
3851	40990	Rookie Kevin Swayne will move into the starting lineup.	Rookie Kevin Swayne will move into the starting lineup. 	1958353	1471976161814	1471976161959	s	83
3851	40990	Rookie Kevin Swayne will move into the starting lineup.	Rookie Kevin Swayne will move into the starting lineup. 	1958359	1471976162089	1471976162210	t	84
3851	40990	Rookie Kevin Swayne will move into the starting lineup.	Rookie Kevin Swayne will move into the starting lineup. 	1958362	1471976162588	1471976162724	a	65
3851	40990	Rookie Kevin Swayne will move into the starting lineup.	Rookie Kevin Swayne will move into the starting lineup. 	1958418	1471976162973	1471976163163	r	82
3851	40990	Rookie Kevin Swayne will move into the starting lineup.	Rookie Kevin Swayne will move into the starting lineup. 	1958420	1471976163138	1471976163283	t	84
3851	40990	Rookie Kevin Swayne will move into the starting lineup.	Rookie Kevin Swayne will move into the starting lineup. 	1958422	1471976163262	1471976163439	i	73
3851	40990	Rookie Kevin Swayne will move into the starting lineup.	Rookie Kevin Swayne will move into the starting lineup. 	1958425	1471976163362	1471976163513	n	78
3851	40990	Rookie Kevin Swayne will move into the starting lineup.	Rookie Kevin Swayne will move into the starting lineup. 	1958426	1471976163551	1471976163702	g	71
3851	40990	Rookie Kevin Swayne will move into the starting lineup.	Rookie Kevin Swayne will move into the starting lineup. 	1958471	1471976163682	1471976163833	 	32
3851	40990	Rookie Kevin Swayne will move into the starting lineup.	Rookie Kevin Swayne will move into the starting lineup. 	1958473	1471976163877	1471976164052	l	76
3851	40990	Rookie Kevin Swayne will move into the starting lineup.	Rookie Kevin Swayne will move into the starting lineup. 	1958475	1471976164007	1471976164152	i	73
3851	40990	Rookie Kevin Swayne will move into the starting lineup.	Rookie Kevin Swayne will move into the starting lineup. 	1958477	1471976164131	1471976164277	n	78
3851	40990	Rookie Kevin Swayne will move into the starting lineup.	Rookie Kevin Swayne will move into the starting lineup. 	1958479	1471976164290	1471976164453	e	69
3851	40990	Rookie Kevin Swayne will move into the starting lineup.	Rookie Kevin Swayne will move into the starting lineup. 	1958483	1471976164771	1471976164932	u	85
3851	40990	Rookie Kevin Swayne will move into the starting lineup.	Rookie Kevin Swayne will move into the starting lineup. 	1958532	1471976165485	1471976165621	p	80
3851	40990	Rookie Kevin Swayne will move into the starting lineup.	Rookie Kevin Swayne will move into the starting lineup. 	1958533	1471976165910	1471976166085	.	190
3851	40990	Rookie Kevin Swayne will move into the starting lineup.	Rookie Kevin Swayne will move into the starting lineup. 	1958536	1471976166064	1471976166160	 	32
3851	41043	She has absolutely everything.	She has absolitely everything. 	1958707	1471976169723	1471976169979	SHIFT	16
3851	41043	She has absolutely everything.	She has absolitely everything. 	1958709	1471976169924	1471976170099	S	83
3851	41043	She has absolutely everything.	She has absolitely everything. 	1958714	1471976170233	1471976170364	h	72
3851	41043	She has absolutely everything.	She has absolitely everything. 	1958719	1471976170423	1471976170568	e	69
3851	41043	She has absolutely everything.	She has absolitely everything. 	1958723	1471976170538	1471976170659	 	32
3851	41043	She has absolutely everything.	She has absolitely everything. 	1958726	1471976170703	1471976170849	h	72
3851	41043	She has absolutely everything.	She has absolitely everything. 	1958772	1471976170863	1471976170938	a	65
3851	41043	She has absolutely everything.	She has absolitely everything. 	1958777	1471976170953	1471976171108	s	83
3851	41043	She has absolutely everything.	She has absolitely everything. 	1958785	1471976171122	1471976171233	 	32
3851	41043	She has absolutely everything.	She has absolitely everything. 	1958790	1471976171417	1471976171503	a	65
3851	41043	She has absolutely everything.	She has absolitely everything. 	1958795	1471976171557	1471976171698	b	66
3851	41043	She has absolutely everything.	She has absolitely everything. 	1958891	1471976172365	1471976172521	s	83
3851	41043	She has absolutely everything.	She has absolitely everything. 	1958895	1471976172535	1471976172656	o	79
3851	41043	She has absolutely everything.	She has absolitely everything. 	1958897	1471976172806	1471976173006	l	76
3851	41043	She has absolutely everything.	She has absolitely everything. 	1958900	1471976173021	1471976173116	i	73
3851	41043	She has absolutely everything.	She has absolitely everything. 	1958901	1471976173229	1471976173315	t	84
3851	41043	She has absolutely everything.	She has absolitely everything. 	1958967	1471976173555	1471976173706	e	69
3851	41043	She has absolutely everything.	She has absolitely everything. 	1958970	1471976173719	1471976173815	l	76
3851	41043	She has absolutely everything.	She has absolitely everything. 	1958973	1471976173955	1471976174095	y	89
3851	41043	She has absolutely everything.	She has absolitely everything. 	1958975	1471976174159	1471976174274	 	32
3851	41043	She has absolutely everything.	She has absolitely everything. 	1958977	1471976174349	1471976174460	e	69
3851	41043	She has absolutely everything.	She has absolitely everything. 	1959009	1471976174624	1471976174699	v	86
3851	41043	She has absolutely everything.	She has absolitely everything. 	1959012	1471976174763	1471976174919	e	69
3851	41043	She has absolutely everything.	She has absolitely everything. 	1959018	1471976174858	1471976175024	r	82
3851	41043	She has absolutely everything.	She has absolitely everything. 	1959023	1471976175049	1471976175233	h	72
3851	41043	She has absolutely everything.	She has absolitely everything. 	1959027	1471976175234	1471976175324	t	84
3851	41043	She has absolutely everything.	She has absolitely everything. 	1959210	1471976175339	1471976175473	i	73
3851	41043	She has absolutely everything.	She has absolitely everything. 	1959215	1471976175453	1471976175599	n	78
3851	41043	She has absolutely everything.	She has absolitely everything. 	1959219	1471976175797	1471976175908	g	71
3851	41043	She has absolutely everything.	She has absolitely everything. 	1959223	1471976176552	1471976176667	BKSP	8
3851	41043	She has absolutely everything.	She has absolitely everything. 	1959225	1471976176756	1471976176872	BKSP	8
3851	41043	She has absolutely everything.	She has absolitely everything. 	1959230	1471976176966	1471976177077	BKSP	8
3851	41043	She has absolutely everything.	She has absolitely everything. 	1959235	1471976177156	1471976177266	BKSP	8
3851	41043	She has absolutely everything.	She has absolitely everything. 	1959238	1471976177361	1471976177467	BKSP	8
3851	41043	She has absolutely everything.	She has absolitely everything. 	1959242	1471976177780	1471976177946	y	89
3851	41043	She has absolutely everything.	She has absolitely everything. 	1959244	1471976178434	1471976178550	t	84
3851	41043	She has absolutely everything.	She has absolitely everything. 	1959274	1471976178529	1471976178650	h	72
3851	41043	She has absolutely everything.	She has absolitely everything. 	1959278	1471976178669	1471976178815	i	73
3851	41043	She has absolutely everything.	She has absolitely everything. 	1959285	1471976178764	1471976178890	n	78
3851	41043	She has absolutely everything.	She has absolitely everything. 	1959292	1471976178919	1471976179005	g	71
3851	41043	She has absolutely everything.	She has absolitely everything. 	1959300	1471976179089	1471976179294	.	190
3851	41043	She has absolutely everything.	She has absolitely everything. 	1959306	1471976179308	1471976179444	 	32
