PARTICIPANT_ID	TEST_SECTION_ID	SENTENCE	USER_INPUT	KEYSTROKE_ID	PRESS_TIME	RELEASE_TIME	LETTER	KEYCODE
3869	40966	Still hustling to find dollars for the quarter end.	Still histling to find dfollars for the quarter end.	1955589	1471976107156	1471976107382	SHIFT	16
3869	40966	Still hustling to find dollars for the quarter end.	Still histling to find dfollars for the quarter end.	1955590	1471976107327	1471976107445	S	83
3869	40966	Still hustling to find dollars for the quarter end.	Still histling to find dfollars for the quarter end.	1955591	1471976107601	1471976107712	t	84
3869	40966	Still hustling to find dollars for the quarter end.	Still histling to find dfollars for the quarter end.	1955592	1471976107821	1471976107897	i	73
3869	40966	Still hustling to find dollars for the quarter end.	Still histling to find dfollars for the quarter end.	1955593	1471976108053	1471976108102	l	76
3869	40966	Still hustling to find dollars for the quarter end.	Still histling to find dfollars for the quarter end.	1955594	1471976108180	1471976108248	l	76
3869	40966	Still hustling to find dollars for the quarter end.	Still histling to find dfollars for the quarter end.	1955603	1471976108328	1471976108413	 	32
3869	40966	Still hustling to find dollars for the quarter end.	Still histling to find dfollars for the quarter end.	1955605	1471976108491	1471976108611	h	72
3869	40966	Still hustling to find dollars for the quarter end.	Still histling to find dfollars for the quarter end.	1955609	1471976108642	1471976108714	i	73
3869	40966	Still hustling to find dollars for the quarter end.	Still histling to find dfollars for the quarter end.	1955611	1471976108699	1471976108864	s	83
3869	40966	Still hustling to find dollars for the quarter end.	Still histling to find dfollars for the quarter end.	1955669	1471976108795	1471976108927	t	84
3869	40966	Still hustling to find dollars for the quarter end.	Still histling to find dfollars for the quarter end.	1955673	1471976109021	1471976109113	l	76
3869	40966	Still hustling to find dollars for the quarter end.	Still histling to find dfollars for the quarter end.	1955675	1471976109238	1471976109349	i	73
3869	40966	Still hustling to find dollars for the quarter end.	Still histling to find dfollars for the quarter end.	1955677	1471976109536	1471976109647	n	78
3869	40966	Still hustling to find dollars for the quarter end.	Still histling to find dfollars for the quarter end.	1955678	1471976109663	1471976109778	g	71
3869	40966	Still hustling to find dollars for the quarter end.	Still histling to find dfollars for the quarter end.	1955679	1471976110075	1471976110170	 	32
3869	40966	Still hustling to find dollars for the quarter end.	Still histling to find dfollars for the quarter end.	1955691	1471976110234	1471976110377	t	84
3869	40966	Still hustling to find dollars for the quarter end.	Still histling to find dfollars for the quarter end.	1955693	1471976110361	1471976110462	o	79
3869	40966	Still hustling to find dollars for the quarter end.	Still histling to find dfollars for the quarter end.	1955697	1471976110524	1471976110629	 	32
3869	40966	Still hustling to find dollars for the quarter end.	Still histling to find dfollars for the quarter end.	1955700	1471976110645	1471976110761	f	70
3869	40966	Still hustling to find dollars for the quarter end.	Still histling to find dfollars for the quarter end.	1955705	1471976110761	1471976110899	i	73
3869	40966	Still hustling to find dollars for the quarter end.	Still histling to find dfollars for the quarter end.	1955751	1471976110862	1471976110964	n	78
3869	40966	Still hustling to find dollars for the quarter end.	Still histling to find dfollars for the quarter end.	1955752	1471976111057	1471976111193	d	68
3869	40966	Still hustling to find dollars for the quarter end.	Still histling to find dfollars for the quarter end.	1955754	1471976111287	1471976111380	 	32
3869	40966	Still hustling to find dollars for the quarter end.	Still histling to find dfollars for the quarter end.	1955755	1471976111865	1471976111978	f	68
3869	40966	Still hustling to find dollars for the quarter end.	Still histling to find dfollars for the quarter end.	1955757	1471976112041	1471976112130	o	79
3869	40966	Still hustling to find dollars for the quarter end.	Still histling to find dfollars for the quarter end.	1955806	1471976112517	1471976112597	l	76
3869	40966	Still hustling to find dollars for the quarter end.	Still histling to find dfollars for the quarter end.	1955807	1471976112675	1471976112747	l	76
3869	40966	Still hustling to find dollars for the quarter end.	Still histling to find dfollars for the quarter end.	1955809	1471976112763	1471976112932	a	65
3869	40966	Still hustling to find dollars for the quarter end.	Still histling to find dfollars for the quarter end.	1955811	1471976112877	1471976113082	r	82
3869	40966	Still hustling to find dollars for the quarter end.	Still histling to find dfollars for the quarter end.	1955834	1471976113026	1471976113162	s	83
3869	40966	Still hustling to find dollars for the quarter end.	Still histling to find dfollars for the quarter end.	1955836	1471976113224	1471976113298	 	32
3869	40966	Still hustling to find dollars for the quarter end.	Still histling to find dfollars for the quarter end.	1955840	1471976113532	1471976113630	f	70
3869	40966	Still hustling to find dollars for the quarter end.	Still histling to find dfollars for the quarter end.	1955843	1471976113646	1471976113730	o	79
3869	40966	Still hustling to find dollars for the quarter end.	Still histling to find dfollars for the quarter end.	1955847	1471976113761	1471976113878	r	82
3869	40966	Still hustling to find dollars for the quarter end.	Still histling to find dfollars for the quarter end.	1955851	1471976113894	1471976113995	 	32
3869	40966	Still hustling to find dollars for the quarter end.	Still histling to find dfollars for the quarter end.	1955868	1471976114011	1471976114096	t	84
3869	40966	Still hustling to find dollars for the quarter end.	Still histling to find dfollars for the quarter end.	1955871	1471976114081	1471976114195	h	72
3869	40966	Still hustling to find dollars for the quarter end.	Still histling to find dfollars for the quarter end.	1955874	1471976114195	1471976114296	e	69
3869	40966	Still hustling to find dollars for the quarter end.	Still histling to find dfollars for the quarter end.	1955878	1471976114312	1471976114412	 	32
3869	40966	Still hustling to find dollars for the quarter end.	Still histling to find dfollars for the quarter end.	1955882	1471976114522	1471976114683	q	81
3869	40966	Still hustling to find dollars for the quarter end.	Still histling to find dfollars for the quarter end.	1955917	1471976114732	1471976114845	u	85
3869	40966	Still hustling to find dollars for the quarter end.	Still histling to find dfollars for the quarter end.	1955919	1471976114939	1471976115003	e	69
3869	40966	Still hustling to find dollars for the quarter end.	Still histling to find dfollars for the quarter end.	1955921	1471976115582	1471976115648	BKSP	8
3869	40966	Still hustling to find dollars for the quarter end.	Still histling to find dfollars for the quarter end.	1955922	1471976115710	1471976115875	a	65
3869	40966	Still hustling to find dollars for the quarter end.	Still histling to find dfollars for the quarter end.	1955926	1471976115922	1471976116044	r	82
3869	40966	Still hustling to find dollars for the quarter end.	Still histling to find dfollars for the quarter end.	1955931	1471976116122	1471976116245	t	84
3869	40966	Still hustling to find dollars for the quarter end.	Still histling to find dfollars for the quarter end.	1955959	1471976116260	1471976116377	e	69
3869	40966	Still hustling to find dollars for the quarter end.	Still histling to find dfollars for the quarter end.	1955961	1471976116518	1471976116676	r	82
3869	40966	Still hustling to find dollars for the quarter end.	Still histling to find dfollars for the quarter end.	1955964	1471976116895	1471976116981	 	32
3869	40966	Still hustling to find dollars for the quarter end.	Still histling to find dfollars for the quarter end.	1955967	1471976117043	1471976117165	e	69
3869	40966	Still hustling to find dollars for the quarter end.	Still histling to find dfollars for the quarter end.	1956005	1471976117130	1471976117246	n	78
3869	40966	Still hustling to find dollars for the quarter end.	Still histling to find dfollars for the quarter end.	1956009	1471976117261	1471976117377	d	68
3869	40966	Still hustling to find dollars for the quarter end.	Still histling to find dfollars for the quarter end.	1956012	1471976117393	1471976117511	.	190
3869	40985	What is in the plan?	What is in the plan?	1956103	1471976120561	1471976120828	SHIFT	16
3869	40985	What is in the plan?	What is in the plan?	1956105	1471976120717	1471976120891	W	87
3869	40985	What is in the plan?	What is in the plan?	1956109	1471976120875	1471976120994	h	72
3869	40985	What is in the plan?	What is in the plan?	1956112	1471976120979	1471976121172	a	65
3869	40985	What is in the plan?	What is in the plan?	1956114	1471976121188	1471976121330	t	84
3869	40985	What is in the plan?	What is in the plan?	1956116	1471976121362	1471976121462	 	32
3869	40985	What is in the plan?	What is in the plan?	1956135	1471976121509	1471976121628	i	73
3869	40985	What is in the plan?	What is in the plan?	1956139	1471976121628	1471976121745	s	83
3869	40985	What is in the plan?	What is in the plan?	1956143	1471976121745	1471976121846	 	32
3869	40985	What is in the plan?	What is in the plan?	1956146	1471976121893	1471976122028	i	73
3869	40985	What is in the plan?	What is in the plan?	1956164	1471976121996	1471976122087	n	78
3869	40985	What is in the plan?	What is in the plan?	1956167	1471976122149	1471976122267	 	32
3869	40985	What is in the plan?	What is in the plan?	1956171	1471976122230	1471976122329	t	84
3869	40985	What is in the plan?	What is in the plan?	1956173	1471976122313	1471976122413	h	72
3869	40985	What is in the plan?	What is in the plan?	1956175	1471976122445	1471976122533	e	69
3869	40985	What is in the plan?	What is in the plan?	1956209	1471976122498	1471976122612	 	32
3869	40985	What is in the plan?	What is in the plan?	1956212	1471976122674	1471976122816	p	80
3869	40985	What is in the plan?	What is in the plan?	1956214	1471976122779	1471976122863	l	76
3869	40985	What is in the plan?	What is in the plan?	1956216	1471976122847	1471976122993	a	65
3869	40985	What is in the plan?	What is in the plan?	1956218	1471976123120	1471976123229	n	78
3869	40985	What is in the plan?	What is in the plan?	1956220	1471976123463	1471976123696	SHIFT	16
3869	40985	What is in the plan?	What is in the plan?	1956215	1471976123603	1471976123729	?	191
3869	40989	The Mercedes engine takes advantage of extra boost.	The Mercedes engine takes advantage of extra boost.	1956347	1471976126143	1471976126432	SHIFT	16
3869	40989	The Mercedes engine takes advantage of extra boost.	The Mercedes engine takes advantage of extra boost.	1956350	1471976126364	1471976126463	T	84
3869	40989	The Mercedes engine takes advantage of extra boost.	The Mercedes engine takes advantage of extra boost.	1956356	1471976126557	1471976126630	h	72
3869	40989	The Mercedes engine takes advantage of extra boost.	The Mercedes engine takes advantage of extra boost.	1956360	1471976126646	1471976126761	e	69
3869	40989	The Mercedes engine takes advantage of extra boost.	The Mercedes engine takes advantage of extra boost.	1956364	1471976126792	1471976126879	 	32
3869	40989	The Mercedes engine takes advantage of extra boost.	The Mercedes engine takes advantage of extra boost.	1956432	1471976127160	1471976127512	SHIFT	16
3869	40989	The Mercedes engine takes advantage of extra boost.	The Mercedes engine takes advantage of extra boost.	1956368	1471976127398	1471976127497	M	77
3869	40989	The Mercedes engine takes advantage of extra boost.	The Mercedes engine takes advantage of extra boost.	1956436	1471976127685	1471976127842	e	87
3869	40989	The Mercedes engine takes advantage of extra boost.	The Mercedes engine takes advantage of extra boost.	1956439	1471976128422	1471976128498	BKSP	8
3869	40989	The Mercedes engine takes advantage of extra boost.	The Mercedes engine takes advantage of extra boost.	1956442	1471976128591	1471976128630	BKSP	8
3869	40989	The Mercedes engine takes advantage of extra boost.	The Mercedes engine takes advantage of extra boost.	1956446	1471976129261	1471976129398	e	69
3869	40989	The Mercedes engine takes advantage of extra boost.	The Mercedes engine takes advantage of extra boost.	1956448	1471976129347	1471976129461	r	82
3869	40989	The Mercedes engine takes advantage of extra boost.	The Mercedes engine takes advantage of extra boost.	1956452	1471976129586	1471976129775	c	67
3869	40989	The Mercedes engine takes advantage of extra boost.	The Mercedes engine takes advantage of extra boost.	1956460	1471976129759	1471976129893	e	69
3869	40989	The Mercedes engine takes advantage of extra boost.	The Mercedes engine takes advantage of extra boost.	1956462	1471976129971	1471976130094	d	68
3869	40989	The Mercedes engine takes advantage of extra boost.	The Mercedes engine takes advantage of extra boost.	1956463	1471976130188	1471976130384	e	69
3869	40989	The Mercedes engine takes advantage of extra boost.	The Mercedes engine takes advantage of extra boost.	1956465	1471976130342	1471976130477	s	83
3869	40989	The Mercedes engine takes advantage of extra boost.	The Mercedes engine takes advantage of extra boost.	1956466	1471976130540	1471976130661	 	32
3869	40989	The Mercedes engine takes advantage of extra boost.	The Mercedes engine takes advantage of extra boost.	1956468	1471976130661	1471976130809	e	69
3869	40989	The Mercedes engine takes advantage of extra boost.	The Mercedes engine takes advantage of extra boost.	1956506	1471976130825	1471976130929	n	78
3869	40989	The Mercedes engine takes advantage of extra boost.	The Mercedes engine takes advantage of extra boost.	1956508	1471976131007	1471976131118	f	70
3869	40989	The Mercedes engine takes advantage of extra boost.	The Mercedes engine takes advantage of extra boost.	1956511	1471976131118	1471976131276	i	73
3869	40989	The Mercedes engine takes advantage of extra boost.	The Mercedes engine takes advantage of extra boost.	1956514	1471976131261	1471976131394	n	78
3869	40989	The Mercedes engine takes advantage of extra boost.	The Mercedes engine takes advantage of extra boost.	1956517	1471976131518	1471976131660	e	69
3869	40989	The Mercedes engine takes advantage of extra boost.	The Mercedes engine takes advantage of extra boost.	1956581	1471976131881	1471976131980	BKSP	8
3869	40989	The Mercedes engine takes advantage of extra boost.	The Mercedes engine takes advantage of extra boost.	1956583	1471976132073	1471976132122	BKSP	8
3869	40989	The Mercedes engine takes advantage of extra boost.	The Mercedes engine takes advantage of extra boost.	1956587	1471976132200	1471976132264	BKSP	8
3869	40989	The Mercedes engine takes advantage of extra boost.	The Mercedes engine takes advantage of extra boost.	1956590	1471976132342	1471976132399	BKSP	8
3869	40989	The Mercedes engine takes advantage of extra boost.	The Mercedes engine takes advantage of extra boost.	1956594	1471976132948	1471976133061	g	71
3869	40989	The Mercedes engine takes advantage of extra boost.	The Mercedes engine takes advantage of extra boost.	1956599	1471976133061	1471976133197	i	73
3869	40989	The Mercedes engine takes advantage of extra boost.	The Mercedes engine takes advantage of extra boost.	1956603	1471976133162	1471976133262	n	78
3869	40989	The Mercedes engine takes advantage of extra boost.	The Mercedes engine takes advantage of extra boost.	1956605	1471976133262	1471976133394	e	69
3869	40989	The Mercedes engine takes advantage of extra boost.	The Mercedes engine takes advantage of extra boost.	1956607	1471976133409	1471976133496	 	32
3869	40989	The Mercedes engine takes advantage of extra boost.	The Mercedes engine takes advantage of extra boost.	1956623	1471976133795	1471976133911	t	84
3869	40989	The Mercedes engine takes advantage of extra boost.	The Mercedes engine takes advantage of extra boost.	1956626	1471976133973	1471976134100	a	65
3869	40989	The Mercedes engine takes advantage of extra boost.	The Mercedes engine takes advantage of extra boost.	1956629	1471976134131	1471976134198	k	76
3869	40989	The Mercedes engine takes advantage of extra boost.	The Mercedes engine takes advantage of extra boost.	1956630	1471976134276	1471976134426	e	69
3869	40989	The Mercedes engine takes advantage of extra boost.	The Mercedes engine takes advantage of extra boost.	1956682	1471976134520	1471976134616	BKSP	8
3869	40989	The Mercedes engine takes advantage of extra boost.	The Mercedes engine takes advantage of extra boost.	1956685	1471976134695	1471976134749	BKSP	8
3869	40989	The Mercedes engine takes advantage of extra boost.	The Mercedes engine takes advantage of extra boost.	1956690	1471976134827	1471976134898	BKSP	8
3869	40989	The Mercedes engine takes advantage of extra boost.	The Mercedes engine takes advantage of extra boost.	1956695	1471976135319	1471976135413	k	75
3869	40989	The Mercedes engine takes advantage of extra boost.	The Mercedes engine takes advantage of extra boost.	1956701	1471976135398	1471976135581	e	69
3869	40989	The Mercedes engine takes advantage of extra boost.	The Mercedes engine takes advantage of extra boost.	1956705	1471976135512	1471976135643	s	83
3869	40989	The Mercedes engine takes advantage of extra boost.	The Mercedes engine takes advantage of extra boost.	1956709	1471976135643	1471976135762	 	32
3869	40989	The Mercedes engine takes advantage of extra boost.	The Mercedes engine takes advantage of extra boost.	1956712	1471976135856	1471976136009	a	65
3869	40989	The Mercedes engine takes advantage of extra boost.	The Mercedes engine takes advantage of extra boost.	1956753	1471976136057	1471976136178	d	68
3869	40989	The Mercedes engine takes advantage of extra boost.	The Mercedes engine takes advantage of extra boost.	1956754	1471976136383	1471976136510	v	86
3869	40989	The Mercedes engine takes advantage of extra boost.	The Mercedes engine takes advantage of extra boost.	1956755	1471976136525	1471976136676	a	65
3869	40989	The Mercedes engine takes advantage of extra boost.	The Mercedes engine takes advantage of extra boost.	1956756	1471976137475	1471976137579	n	78
3869	40989	The Mercedes engine takes advantage of extra boost.	The Mercedes engine takes advantage of extra boost.	1956758	1471976137595	1471976137711	t	84
3869	40989	The Mercedes engine takes advantage of extra boost.	The Mercedes engine takes advantage of extra boost.	1956816	1471976137695	1471976137844	a	65
3869	40989	The Mercedes engine takes advantage of extra boost.	The Mercedes engine takes advantage of extra boost.	1956819	1471976137922	1471976138044	g	71
3869	40989	The Mercedes engine takes advantage of extra boost.	The Mercedes engine takes advantage of extra boost.	1956821	1471976138170	1471976138310	e	69
3869	40989	The Mercedes engine takes advantage of extra boost.	The Mercedes engine takes advantage of extra boost.	1956822	1471976138828	1471976138929	 	32
3869	40989	The Mercedes engine takes advantage of extra boost.	The Mercedes engine takes advantage of extra boost.	1956823	1471976139038	1471976139146	o	79
3869	40989	The Mercedes engine takes advantage of extra boost.	The Mercedes engine takes advantage of extra boost.	1956824	1471976139208	1471976139296	f	70
3869	40989	The Mercedes engine takes advantage of extra boost.	The Mercedes engine takes advantage of extra boost.	1956843	1471976139312	1471976139432	 	32
3869	40989	The Mercedes engine takes advantage of extra boost.	The Mercedes engine takes advantage of extra boost.	1956849	1471976139398	1471976139495	e	69
3869	40989	The Mercedes engine takes advantage of extra boost.	The Mercedes engine takes advantage of extra boost.	1956854	1471976139605	1471976139759	x	88
3869	40989	The Mercedes engine takes advantage of extra boost.	The Mercedes engine takes advantage of extra boost.	1956859	1471976139855	1471976139978	t	84
3869	40989	The Mercedes engine takes advantage of extra boost.	The Mercedes engine takes advantage of extra boost.	1956864	1471976140087	1471976140167	r	82
3869	40989	The Mercedes engine takes advantage of extra boost.	The Mercedes engine takes advantage of extra boost.	1956891	1471976140247	1471976140362	a	65
3869	40989	The Mercedes engine takes advantage of extra boost.	The Mercedes engine takes advantage of extra boost.	1956892	1471976140564	1471976140662	 	32
3869	40989	The Mercedes engine takes advantage of extra boost.	The Mercedes engine takes advantage of extra boost.	1956894	1471976140771	1471976140893	b	66
3869	40989	The Mercedes engine takes advantage of extra boost.	The Mercedes engine takes advantage of extra boost.	1956898	1471976140987	1471976141080	o	79
3869	40989	The Mercedes engine takes advantage of extra boost.	The Mercedes engine takes advantage of extra boost.	1956904	1471976141142	1471976141230	o	79
3869	40989	The Mercedes engine takes advantage of extra boost.	The Mercedes engine takes advantage of extra boost.	1956920	1471976141215	1471976141367	s	83
3869	40989	The Mercedes engine takes advantage of extra boost.	The Mercedes engine takes advantage of extra boost.	1956924	1471976141329	1471976141461	t	84
3869	40989	The Mercedes engine takes advantage of extra boost.	The Mercedes engine takes advantage of extra boost.	1956929	1471976141523	1471976141629	.	190
3869	41003	Ruth, I'll send this spreadsheet as I update it.	Ruth, I'll send this spreadsheet as I update it.	1957092	1471976144051	1471976144349	SHIFT	16
3869	41003	Ruth, I'll send this spreadsheet as I update it.	Ruth, I'll send this spreadsheet as I update it.	1957096	1471976144285	1471976144412	R	82
3869	41003	Ruth, I'll send this spreadsheet as I update it.	Ruth, I'll send this spreadsheet as I update it.	1957101	1471976144490	1471976144595	u	85
3869	41003	Ruth, I'll send this spreadsheet as I update it.	Ruth, I'll send this spreadsheet as I update it.	1957105	1471976144611	1471976144712	t	84
3869	41003	Ruth, I'll send this spreadsheet as I update it.	Ruth, I'll send this spreadsheet as I update it.	1957111	1471976144837	1471976144945	h	72
3869	41003	Ruth, I'll send this spreadsheet as I update it.	Ruth, I'll send this spreadsheet as I update it.	1957116	1471976145464	1471976145562	,	188
3869	41003	Ruth, I'll send this spreadsheet as I update it.	Ruth, I'll send this spreadsheet as I update it.	1957226	1471976146113	1471976146214	 	32
3869	41003	Ruth, I'll send this spreadsheet as I update it.	Ruth, I'll send this spreadsheet as I update it.	1957230	1471976146245	1471976146497	SHIFT	16
3869	41003	Ruth, I'll send this spreadsheet as I update it.	Ruth, I'll send this spreadsheet as I update it.	1957228	1471976146385	1471976146481	I	73
3869	41003	Ruth, I'll send this spreadsheet as I update it.	Ruth, I'll send this spreadsheet as I update it.	1957232	1471976146840	1471976146930	l	76
3869	41003	Ruth, I'll send this spreadsheet as I update it.	Ruth, I'll send this spreadsheet as I update it.	1957234	1471976147008	1471976147081	l	76
3869	41003	Ruth, I'll send this spreadsheet as I update it.	Ruth, I'll send this spreadsheet as I update it.	1957239	1471976147409	1471976147512	BKSP	8
3869	41003	Ruth, I'll send this spreadsheet as I update it.	Ruth, I'll send this spreadsheet as I update it.	1957242	1471976147590	1471976147680	BKSP	8
3869	41003	Ruth, I'll send this spreadsheet as I update it.	Ruth, I'll send this spreadsheet as I update it.	1957246	1471976148133	1471976148230	'	222
3869	41003	Ruth, I'll send this spreadsheet as I update it.	Ruth, I'll send this spreadsheet as I update it.	1957267	1471976148480	1471976148565	l	76
3869	41003	Ruth, I'll send this spreadsheet as I update it.	Ruth, I'll send this spreadsheet as I update it.	1957268	1471976148627	1471976148710	l	76
3869	41003	Ruth, I'll send this spreadsheet as I update it.	Ruth, I'll send this spreadsheet as I update it.	1957269	1471976148819	1471976148914	 	32
3869	41003	Ruth, I'll send this spreadsheet as I update it.	Ruth, I'll send this spreadsheet as I update it.	1957270	1471976148930	1471976149044	s	83
3869	41003	Ruth, I'll send this spreadsheet as I update it.	Ruth, I'll send this spreadsheet as I update it.	1957273	1471976149122	1471976149244	e	69
3869	41003	Ruth, I'll send this spreadsheet as I update it.	Ruth, I'll send this spreadsheet as I update it.	1957285	1471976149244	1471976149346	n	78
3869	41003	Ruth, I'll send this spreadsheet as I update it.	Ruth, I'll send this spreadsheet as I update it.	1957287	1471976149378	1471976149495	d	68
3869	41003	Ruth, I'll send this spreadsheet as I update it.	Ruth, I'll send this spreadsheet as I update it.	1957290	1471976149495	1471976149564	 	32
3869	41003	Ruth, I'll send this spreadsheet as I update it.	Ruth, I'll send this spreadsheet as I update it.	1957293	1471976149642	1471976149761	t	84
3869	41003	Ruth, I'll send this spreadsheet as I update it.	Ruth, I'll send this spreadsheet as I update it.	1957315	1471976149761	1471976149862	h	72
3869	41003	Ruth, I'll send this spreadsheet as I update it.	Ruth, I'll send this spreadsheet as I update it.	1957319	1471976149862	1471976149994	i	73
3869	41003	Ruth, I'll send this spreadsheet as I update it.	Ruth, I'll send this spreadsheet as I update it.	1957326	1471976149994	1471976150111	s	83
3869	41003	Ruth, I'll send this spreadsheet as I update it.	Ruth, I'll send this spreadsheet as I update it.	1957333	1471976150142	1471976150230	 	32
3869	41003	Ruth, I'll send this spreadsheet as I update it.	Ruth, I'll send this spreadsheet as I update it.	1957341	1471976150669	1471976150779	s	83
3869	41003	Ruth, I'll send this spreadsheet as I update it.	Ruth, I'll send this spreadsheet as I update it.	1957347	1471976150779	1471976150879	p	80
3869	41003	Ruth, I'll send this spreadsheet as I update it.	Ruth, I'll send this spreadsheet as I update it.	1957385	1471976150927	1471976151130	r	82
3869	41003	Ruth, I'll send this spreadsheet as I update it.	Ruth, I'll send this spreadsheet as I update it.	1957389	1471976151045	1471976151241	e	69
3869	41003	Ruth, I'll send this spreadsheet as I update it.	Ruth, I'll send this spreadsheet as I update it.	1957395	1471976151192	1471976151383	a	65
3869	41003	Ruth, I'll send this spreadsheet as I update it.	Ruth, I'll send this spreadsheet as I update it.	1957400	1471976151334	1471976151492	d	68
3869	41003	Ruth, I'll send this spreadsheet as I update it.	Ruth, I'll send this spreadsheet as I update it.	1957405	1471976151664	1471976151762	s	83
3869	41003	Ruth, I'll send this spreadsheet as I update it.	Ruth, I'll send this spreadsheet as I update it.	1957441	1471976151747	1471976151830	h	72
3869	41003	Ruth, I'll send this spreadsheet as I update it.	Ruth, I'll send this spreadsheet as I update it.	1957446	1471976152236	1471976152334	e	69
3869	41003	Ruth, I'll send this spreadsheet as I update it.	Ruth, I'll send this spreadsheet as I update it.	1957450	1471976152396	1471976152511	e	69
3869	41003	Ruth, I'll send this spreadsheet as I update it.	Ruth, I'll send this spreadsheet as I update it.	1957455	1471976152543	1471976152692	t	84
3869	41003	Ruth, I'll send this spreadsheet as I update it.	Ruth, I'll send this spreadsheet as I update it.	1957459	1471976152754	1471976152862	 	32
3869	41003	Ruth, I'll send this spreadsheet as I update it.	Ruth, I'll send this spreadsheet as I update it.	1957504	1471976152846	1471976153017	a	65
3869	41003	Ruth, I'll send this spreadsheet as I update it.	Ruth, I'll send this spreadsheet as I update it.	1957509	1471976152977	1471976153110	s	83
3869	41003	Ruth, I'll send this spreadsheet as I update it.	Ruth, I'll send this spreadsheet as I update it.	1957512	1471976153126	1471976153229	 	32
3869	41003	Ruth, I'll send this spreadsheet as I update it.	Ruth, I'll send this spreadsheet as I update it.	1957517	1471976153338	1471976153578	SHIFT	16
3869	41003	Ruth, I'll send this spreadsheet as I update it.	Ruth, I'll send this spreadsheet as I update it.	1957515	1471976153464	1471976153547	I	73
3869	41003	Ruth, I'll send this spreadsheet as I update it.	Ruth, I'll send this spreadsheet as I update it.	1957520	1471976153656	1471976153777	 	32
3869	41003	Ruth, I'll send this spreadsheet as I update it.	Ruth, I'll send this spreadsheet as I update it.	1957523	1471976153840	1471976153961	i	73
3869	41003	Ruth, I'll send this spreadsheet as I update it.	Ruth, I'll send this spreadsheet as I update it.	1957573	1471976154322	1471976154444	BKSP	8
3869	41003	Ruth, I'll send this spreadsheet as I update it.	Ruth, I'll send this spreadsheet as I update it.	1957574	1471976154772	1471976154847	u	85
3869	41003	Ruth, I'll send this spreadsheet as I update it.	Ruth, I'll send this spreadsheet as I update it.	1957575	1471976154910	1471976154997	p	80
3869	41003	Ruth, I'll send this spreadsheet as I update it.	Ruth, I'll send this spreadsheet as I update it.	1957577	1471976155012	1471976155134	d	68
3869	41003	Ruth, I'll send this spreadsheet as I update it.	Ruth, I'll send this spreadsheet as I update it.	1957580	1471976155096	1471976155274	a	65
3869	41003	Ruth, I'll send this spreadsheet as I update it.	Ruth, I'll send this spreadsheet as I update it.	1957583	1471976155274	1471976155482	t	84
3869	41003	Ruth, I'll send this spreadsheet as I update it.	Ruth, I'll send this spreadsheet as I update it.	1957615	1471976155395	1471976155576	e	69
3869	41003	Ruth, I'll send this spreadsheet as I update it.	Ruth, I'll send this spreadsheet as I update it.	1957618	1471976155654	1471976155750	 	32
3869	41003	Ruth, I'll send this spreadsheet as I update it.	Ruth, I'll send this spreadsheet as I update it.	1957620	1471976155812	1471976155913	i	73
3869	41003	Ruth, I'll send this spreadsheet as I update it.	Ruth, I'll send this spreadsheet as I update it.	1957623	1471976155976	1471976156078	t	84
3869	41003	Ruth, I'll send this spreadsheet as I update it.	Ruth, I'll send this spreadsheet as I update it.	1957626	1471976156109	1471976156243	.	190
3869	41017	Very foggy this morning.	Very foggy this morning.	1957798	1471976159530	1471976159965	SHIFT	16
3869	41017	Very foggy this morning.	Very foggy this morning.	1957800	1471976159920	1471976160058	V	86
3869	41017	Very foggy this morning.	Very foggy this morning.	1957801	1471976160105	1471976160265	e	69
3869	41017	Very foggy this morning.	Very foggy this morning.	1957802	1471976160211	1471976160343	r	82
3869	41017	Very foggy this morning.	Very foggy this morning.	1957803	1471976160389	1471976160510	y	89
3869	41017	Very foggy this morning.	Very foggy this morning.	1957805	1471976160572	1471976160683	 	32
3869	41017	Very foggy this morning.	Very foggy this morning.	1957822	1471976160683	1471976160810	f	70
3869	41017	Very foggy this morning.	Very foggy this morning.	1957823	1471976160826	1471976160928	o	79
3869	41017	Very foggy this morning.	Very foggy this morning.	1957824	1471976160990	1471976161063	g	71
3869	41017	Very foggy this morning.	Very foggy this morning.	1957826	1471976161141	1471976161228	g	71
3869	41017	Very foggy this morning.	Very foggy this morning.	1957828	1471976161244	1471976161360	y	89
3869	41017	Very foggy this morning.	Very foggy this morning.	1957839	1471976161440	1471976161544	 	32
3869	41017	Very foggy this morning.	Very foggy this morning.	1957841	1471976161575	1471976161715	t	84
3869	41017	Very foggy this morning.	Very foggy this morning.	1957845	1471976161678	1471976161793	h	72
3869	41017	Very foggy this morning.	Very foggy this morning.	1957848	1471976161778	1471976161879	i	73
3869	41017	Very foggy this morning.	Very foggy this morning.	1957875	1471976161846	1471976161969	s	83
3869	41017	Very foggy this morning.	Very foggy this morning.	1957877	1471976161985	1471976162095	 	32
3869	41017	Very foggy this morning.	Very foggy this morning.	1957879	1471976162173	1471976162295	m	77
3869	41017	Very foggy this morning.	Very foggy this morning.	1957882	1471976162326	1471976162412	o	79
3869	41017	Very foggy this morning.	Very foggy this morning.	1957886	1471976162428	1471976162559	r	82
3869	41017	Very foggy this morning.	Very foggy this morning.	1957910	1471976162559	1471976162677	n	78
3869	41017	Very foggy this morning.	Very foggy this morning.	1957911	1471976162661	1471976162794	i	73
3869	41017	Very foggy this morning.	Very foggy this morning.	1957917	1471976162810	1471976162929	n	78
3869	41017	Very foggy this morning.	Very foggy this morning.	1957914	1471976162846	1471976162929	g	71
3869	41017	Very foggy this morning.	Very foggy this morning.	1957920	1471976163227	1471976163343	.	190
3869	41030	I didn't expect them to hand over the sites.	I didn't expect them to hand over the sites.	1958010	1471976165262	1471976165515	SHIFT	16
3869	41030	I didn't expect them to hand over the sites.	I didn't expect them to hand over the sites.	1958014	1471976165434	1471976165531	I	73
3869	41030	I didn't expect them to hand over the sites.	I didn't expect them to hand over the sites.	1958019	1471976165577	1471976165662	 	32
3869	41030	I didn't expect them to hand over the sites.	I didn't expect them to hand over the sites.	1958027	1471976165725	1471976165827	d	68
3869	41030	I didn't expect them to hand over the sites.	I didn't expect them to hand over the sites.	1958029	1471976165827	1471976165897	i	73
3869	41030	I didn't expect them to hand over the sites.	I didn't expect them to hand over the sites.	1958032	1471976165912	1471976166045	d	68
3869	41030	I didn't expect them to hand over the sites.	I didn't expect them to hand over the sites.	1958083	1471976166078	1471976166209	n	78
3869	41030	I didn't expect them to hand over the sites.	I didn't expect them to hand over the sites.	1958087	1471976166380	1471976166541	'	222
3869	41030	I didn't expect them to hand over the sites.	I didn't expect them to hand over the sites.	1958091	1471976166588	1471976166679	t	84
3869	41030	I didn't expect them to hand over the sites.	I didn't expect them to hand over the sites.	1958098	1471976166804	1471976166900	 	32
3869	41030	I didn't expect them to hand over the sites.	I didn't expect them to hand over the sites.	1958104	1471976167087	1471976167198	e	69
3869	41030	I didn't expect them to hand over the sites.	I didn't expect them to hand over the sites.	1958132	1471976167293	1471976167410	x	88
3869	41030	I didn't expect them to hand over the sites.	I didn't expect them to hand over the sites.	1958135	1471976167441	1471976167529	p	80
3869	41030	I didn't expect them to hand over the sites.	I didn't expect them to hand over the sites.	1958140	1471976167529	1471976167659	e	69
3869	41030	I didn't expect them to hand over the sites.	I didn't expect them to hand over the sites.	1958144	1471976167721	1471976167860	c	67
3869	41030	I didn't expect them to hand over the sites.	I didn't expect them to hand over the sites.	1958146	1471976167954	1471976168014	t	84
3869	41030	I didn't expect them to hand over the sites.	I didn't expect them to hand over the sites.	1958206	1471976168188	1471976168310	 	32
3869	41030	I didn't expect them to hand over the sites.	I didn't expect them to hand over the sites.	1958209	1471976168341	1471976168460	t	84
3869	41030	I didn't expect them to hand over the sites.	I didn't expect them to hand over the sites.	1958213	1471976168460	1471976168563	h	72
3869	41030	I didn't expect them to hand over the sites.	I didn't expect them to hand over the sites.	1958217	1471976168579	1471976168678	e	69
3869	41030	I didn't expect them to hand over the sites.	I didn't expect them to hand over the sites.	1958221	1471976169384	1471976169448	m	77
3869	41030	I didn't expect them to hand over the sites.	I didn't expect them to hand over the sites.	1958246	1471976169497	1471976169565	 	32
3869	41030	I didn't expect them to hand over the sites.	I didn't expect them to hand over the sites.	1958248	1471976169627	1471976169712	t	84
3869	41030	I didn't expect them to hand over the sites.	I didn't expect them to hand over the sites.	1958250	1471976169728	1471976169827	o	79
3869	41030	I didn't expect them to hand over the sites.	I didn't expect them to hand over the sites.	1958251	1471976169843	1471976169960	 	32
3869	41030	I didn't expect them to hand over the sites.	I didn't expect them to hand over the sites.	1958252	1471976170038	1471976170129	h	72
3869	41030	I didn't expect them to hand over the sites.	I didn't expect them to hand over the sites.	1958288	1471976170145	1471976170277	a	65
3869	41030	I didn't expect them to hand over the sites.	I didn't expect them to hand over the sites.	1958291	1471976170261	1471976170361	n	78
3869	41030	I didn't expect them to hand over the sites.	I didn't expect them to hand over the sites.	1958297	1471976170376	1471976170494	d	68
3869	41030	I didn't expect them to hand over the sites.	I didn't expect them to hand over the sites.	1958298	1471976170478	1471976170562	 	32
3869	41030	I didn't expect them to hand over the sites.	I didn't expect them to hand over the sites.	1958300	1471976170640	1471976170760	o	79
3869	41030	I didn't expect them to hand over the sites.	I didn't expect them to hand over the sites.	1958336	1471976170760	1471976170945	v	86
3869	41030	I didn't expect them to hand over the sites.	I didn't expect them to hand over the sites.	1958339	1471976170909	1471976171097	e	69
3869	41030	I didn't expect them to hand over the sites.	I didn't expect them to hand over the sites.	1958345	1471976171045	1471976171175	r	82
3869	41030	I didn't expect them to hand over the sites.	I didn't expect them to hand over the sites.	1958349	1471976171191	1471976171295	 	32
3869	41030	I didn't expect them to hand over the sites.	I didn't expect them to hand over the sites.	1958354	1471976171310	1471976171395	t	84
3869	41030	I didn't expect them to hand over the sites.	I didn't expect them to hand over the sites.	1958372	1471976171411	1471976171496	h	72
3869	41030	I didn't expect them to hand over the sites.	I didn't expect them to hand over the sites.	1958377	1471976171512	1471976171596	e	69
3869	41030	I didn't expect them to hand over the sites.	I didn't expect them to hand over the sites.	1958381	1471976171612	1471976171727	 	32
3869	41030	I didn't expect them to hand over the sites.	I didn't expect them to hand over the sites.	1958384	1471976171758	1471976171878	s	83
3869	41030	I didn't expect them to hand over the sites.	I didn't expect them to hand over the sites.	1958480	1471976171798	1471976171910	i	73
3869	41030	I didn't expect them to hand over the sites.	I didn't expect them to hand over the sites.	1958484	1471976171945	1471976172128	r	82
3869	41030	I didn't expect them to hand over the sites.	I didn't expect them to hand over the sites.	1958487	1471976172029	1471976172197	e	69
3869	41030	I didn't expect them to hand over the sites.	I didn't expect them to hand over the sites.	1958489	1471976172128	1471976172275	s	83
3869	41030	I didn't expect them to hand over the sites.	I didn't expect them to hand over the sites.	1958491	1471976172322	1471976172459	.	190
3869	41030	I didn't expect them to hand over the sites.	I didn't expect them to hand over the sites.	1958495	1471976172742	1471976172813	BKSP	8
3869	41030	I didn't expect them to hand over the sites.	I didn't expect them to hand over the sites.	1958499	1471976172891	1471976172948	BKSP	8
3869	41030	I didn't expect them to hand over the sites.	I didn't expect them to hand over the sites.	1958502	1471976173026	1471976173096	BKSP	8
3869	41030	I didn't expect them to hand over the sites.	I didn't expect them to hand over the sites.	1958505	1471976173174	1471976173247	BKSP	8
3869	41030	I didn't expect them to hand over the sites.	I didn't expect them to hand over the sites.	1958509	1471976173730	1471976173928	t	84
3869	41030	I didn't expect them to hand over the sites.	I didn't expect them to hand over the sites.	1958521	1471976173828	1471976173981	e	69
3869	41030	I didn't expect them to hand over the sites.	I didn't expect them to hand over the sites.	1958523	1471976173912	1471976174059	s	83
3869	41030	I didn't expect them to hand over the sites.	I didn't expect them to hand over the sites.	1958525	1471976174625	1471976174713	.	190
3869	41040	There were frequent electricity and water shortages.	There were frequent electricity and water shortages.	1958638	1471976177340	1471976177680	SHIFT	16
3869	41040	There were frequent electricity and water shortages.	There were frequent electricity and water shortages.	1958642	1471976177609	1471976177696	T	84
3869	41040	There were frequent electricity and water shortages.	There were frequent electricity and water shortages.	1958645	1471976177821	1471976177916	h	72
3869	41040	There were frequent electricity and water shortages.	There were frequent electricity and water shortages.	1958649	1471976177916	1471976178065	e	69
3869	41040	There were frequent electricity and water shortages.	There were frequent electricity and water shortages.	1958655	1471976178028	1471976178182	r	82
3869	41040	There were frequent electricity and water shortages.	There were frequent electricity and water shortages.	1958679	1471976178143	1471976178278	e	69
3869	41040	There were frequent electricity and water shortages.	There were frequent electricity and water shortages.	1958682	1471976178278	1471976178413	 	32
3869	41040	There were frequent electricity and water shortages.	There were frequent electricity and water shortages.	1958685	1471976178362	1471976178523	w	87
3869	41040	There were frequent electricity and water shortages.	There were frequent electricity and water shortages.	1958687	1471976178586	1471976178759	e	69
3869	41040	There were frequent electricity and water shortages.	There were frequent electricity and water shortages.	1958689	1471976178743	1471976178891	r	82
3869	41040	There were frequent electricity and water shortages.	There were frequent electricity and water shortages.	1958691	1471976178891	1471976179041	e	69
3869	41040	There were frequent electricity and water shortages.	There were frequent electricity and water shortages.	1958756	1471976179153	1471976179264	 	32
3869	41040	There were frequent electricity and water shortages.	There were frequent electricity and water shortages.	1958762	1471976179607	1471976179758	f	70
3869	41040	There were frequent electricity and water shortages.	There were frequent electricity and water shortages.	1958771	1471976179852	1471976179999	r	82
3869	41040	There were frequent electricity and water shortages.	There were frequent electricity and water shortages.	1958775	1471976179962	1471976180092	e	69
3869	41040	There were frequent electricity and water shortages.	There were frequent electricity and water shortages.	1958782	1471976180186	1471976180357	w	87
3869	41040	There were frequent electricity and water shortages.	There were frequent electricity and water shortages.	1958933	1471976181141	1471976181198	BKSP	8
3869	41040	There were frequent electricity and water shortages.	There were frequent electricity and water shortages.	1958937	1471976181967	1471976182125	q	81
3869	41040	There were frequent electricity and water shortages.	There were frequent electricity and water shortages.	1958941	1471976182187	1471976182279	u	85
3869	41040	There were frequent electricity and water shortages.	There were frequent electricity and water shortages.	1958945	1471976182295	1471976182426	e	69
3869	41040	There were frequent electricity and water shortages.	There were frequent electricity and water shortages.	1958950	1471976182519	1471976182644	n	78
3869	41040	There were frequent electricity and water shortages.	There were frequent electricity and water shortages.	1958954	1471976182644	1471976182760	t	84
3869	41040	There were frequent electricity and water shortages.	There were frequent electricity and water shortages.	1958983	1471976182808	1471976182911	 	32
3869	41040	There were frequent electricity and water shortages.	There were frequent electricity and water shortages.	1958988	1471976183036	1471976183148	e	69
3869	41040	There were frequent electricity and water shortages.	There were frequent electricity and water shortages.	1958991	1471976183195	1471976183311	l	76
3869	41040	There were frequent electricity and water shortages.	There were frequent electricity and water shortages.	1958996	1471976183279	1471976183410	e	69
3869	41040	There were frequent electricity and water shortages.	There were frequent electricity and water shortages.	1958998	1471976183457	1471976183608	c	67
3869	41040	There were frequent electricity and water shortages.	There were frequent electricity and water shortages.	1959042	1471976183799	1471976183927	t	84
3869	41040	There were frequent electricity and water shortages.	There were frequent electricity and water shortages.	1959043	1471976184005	1471976184132	r	82
3869	41040	There were frequent electricity and water shortages.	There were frequent electricity and water shortages.	1959044	1471976184194	1471976184296	i	85
3869	41040	There were frequent electricity and water shortages.	There were frequent electricity and water shortages.	1959132	1471976184608	1471976184681	=	8
3869	41040	There were frequent electricity and water shortages.	There were frequent electricity and water shortages.	1959136	1471976184776	1471976184894	BKSP	8
3869	41040	There were frequent electricity and water shortages.	There were frequent electricity and water shortages.	1959140	1471976185018	1471976185083	BKSP	8
3869	41040	There were frequent electricity and water shortages.	There were frequent electricity and water shortages.	1959146	1471976185506	1471976185596	i	73
3869	41040	There were frequent electricity and water shortages.	There were frequent electricity and water shortages.	1959150	1471976185674	1471976185809	c	67
3869	41040	There were frequent electricity and water shortages.	There were frequent electricity and water shortages.	1959153	1471976185824	1471976185912	i	73
3869	41040	There were frequent electricity and water shortages.	There were frequent electricity and water shortages.	1959156	1471976185959	1471976186092	t	84
3869	41040	There were frequent electricity and water shortages.	There were frequent electricity and water shortages.	1959159	1471976186108	1471976186211	y	89
3869	41040	There were frequent electricity and water shortages.	There were frequent electricity and water shortages.	1959188	1471976186307	1471976186427	 	32
3869	41040	There were frequent electricity and water shortages.	There were frequent electricity and water shortages.	1959192	1471976186677	1471976186825	a	65
3869	41040	There were frequent electricity and water shortages.	There were frequent electricity and water shortages.	1959199	1471976186809	1471976186897	n	78
3869	41040	There were frequent electricity and water shortages.	There were frequent electricity and water shortages.	1959205	1471976186913	1471976187043	d	68
3869	41040	There were frequent electricity and water shortages.	There were frequent electricity and water shortages.	1959212	1471976187043	1471976187144	 	32
3869	41040	There were frequent electricity and water shortages.	There were frequent electricity and water shortages.	1959251	1471976187144	1471976187313	w	87
3869	41040	There were frequent electricity and water shortages.	There were frequent electricity and water shortages.	1959253	1471976187245	1471976187456	a	65
3869	41040	There were frequent electricity and water shortages.	There were frequent electricity and water shortages.	1959258	1471976187423	1471976187582	t	84
3869	41040	There were frequent electricity and water shortages.	There were frequent electricity and water shortages.	1959262	1471976187544	1471976187747	e	69
3869	41040	There were frequent electricity and water shortages.	There were frequent electricity and water shortages.	1959266	1471976187676	1471976187827	r	82
3869	41040	There were frequent electricity and water shortages.	There were frequent electricity and water shortages.	1959271	1471976187889	1471976187979	 	32
3869	41040	There were frequent electricity and water shortages.	There were frequent electricity and water shortages.	1959345	1471976188231	1471976188360	s	83
3869	41040	There were frequent electricity and water shortages.	There were frequent electricity and water shortages.	1959350	1471976188407	1471976188496	h	72
3869	41040	There were frequent electricity and water shortages.	There were frequent electricity and water shortages.	1959358	1471976188558	1471976188677	o	79
3869	41040	There were frequent electricity and water shortages.	There were frequent electricity and water shortages.	1959364	1471976188692	1471976188826	r	82
3869	41040	There were frequent electricity and water shortages.	There were frequent electricity and water shortages.	1959373	1471976188904	1471976189027	t	84
3869	41040	There were frequent electricity and water shortages.	There were frequent electricity and water shortages.	1959450	1471976189012	1471976189174	a	65
3869	41040	There were frequent electricity and water shortages.	There were frequent electricity and water shortages.	1959457	1471976189267	1471976189332	g	71
3869	41040	There were frequent electricity and water shortages.	There were frequent electricity and water shortages.	1959462	1471976189441	1471976189614	e	69
3869	41040	There were frequent electricity and water shortages.	There were frequent electricity and water shortages.	1959467	1471976189544	1471976189723	s	83
3869	41040	There were frequent electricity and water shortages.	There were frequent electricity and water shortages.	1959471	1471976190020	1471976190113	.	190
3869	41058	Since yall are so slow to think, here are a few ideas.	SInce yall are so slow to think, here are a few ideas.	1959657	1471976192772	1471976193025	SHIFT	16
3869	41058	Since yall are so slow to think, here are a few ideas.	SInce yall are so slow to think, here are a few ideas.	1959658	1471976192897	1471976193050	S	83
3869	41058	Since yall are so slow to think, here are a few ideas.	SInce yall are so slow to think, here are a few ideas.	1959659	1471976193010	1471976193127	I	73
3869	41058	Since yall are so slow to think, here are a few ideas.	SInce yall are so slow to think, here are a few ideas.	1959660	1471976193112	1471976193231	n	78
3869	41058	Since yall are so slow to think, here are a few ideas.	SInce yall are so slow to think, here are a few ideas.	1959661	1471976193165	1471976193332	c	67
3869	41058	Since yall are so slow to think, here are a few ideas.	SInce yall are so slow to think, here are a few ideas.	1959727	1471976193262	1471976193412	e	69
3869	41058	Since yall are so slow to think, here are a few ideas.	SInce yall are so slow to think, here are a few ideas.	1959732	1471976193412	1471976193443	 	32
3869	41058	Since yall are so slow to think, here are a few ideas.	SInce yall are so slow to think, here are a few ideas.	1959738	1471976193667	1471976193785	y	89
3869	41058	Since yall are so slow to think, here are a few ideas.	SInce yall are so slow to think, here are a few ideas.	1959742	1471976193863	1471976193962	a	65
3869	41058	Since yall are so slow to think, here are a few ideas.	SInce yall are so slow to think, here are a few ideas.	1959746	1471976194009	1471976194111	l	76
3869	41058	Since yall are so slow to think, here are a few ideas.	SInce yall are so slow to think, here are a few ideas.	1959752	1471976194189	1471976194264	l	76
3869	41058	Since yall are so slow to think, here are a few ideas.	SInce yall are so slow to think, here are a few ideas.	1959777	1471976194406	1471976194465	 	32
3869	41058	Since yall are so slow to think, here are a few ideas.	SInce yall are so slow to think, here are a few ideas.	1959781	1471976194594	1471976194779	a	65
3869	41058	Since yall are so slow to think, here are a few ideas.	SInce yall are so slow to think, here are a few ideas.	1959785	1471976194741	1471976194962	r	82
3869	41058	Since yall are so slow to think, here are a few ideas.	SInce yall are so slow to think, here are a few ideas.	1959787	1471976194859	1471976195040	e	69
3869	41058	Since yall are so slow to think, here are a few ideas.	SInce yall are so slow to think, here are a few ideas.	1959832	1471976195040	1471976195149	 	32
3869	41058	Since yall are so slow to think, here are a few ideas.	SInce yall are so slow to think, here are a few ideas.	1959836	1471976195180	1471976195296	s	83
3869	41058	Since yall are so slow to think, here are a few ideas.	SInce yall are so slow to think, here are a few ideas.	1959840	1471976195262	1471976195362	o	79
3869	41058	Since yall are so slow to think, here are a few ideas.	SInce yall are so slow to think, here are a few ideas.	1959843	1471976195440	1471976195560	 	32
3869	41058	Since yall are so slow to think, here are a few ideas.	SInce yall are so slow to think, here are a few ideas.	1959849	1471976195560	1471976195677	s	83
3869	41058	Since yall are so slow to think, here are a few ideas.	SInce yall are so slow to think, here are a few ideas.	1959851	1471976195677	1471976195763	l	76
3869	41058	Since yall are so slow to think, here are a few ideas.	SInce yall are so slow to think, here are a few ideas.	1959886	1471976195857	1471976195930	o	79
3869	41058	Since yall are so slow to think, here are a few ideas.	SInce yall are so slow to think, here are a few ideas.	1959891	1471976195992	1471976196095	w	87
3869	41058	Since yall are so slow to think, here are a few ideas.	SInce yall are so slow to think, here are a few ideas.	1959896	1471976196142	1471976196229	 	32
3869	41058	Since yall are so slow to think, here are a few ideas.	SInce yall are so slow to think, here are a few ideas.	1959902	1471976196276	1471976196394	t	84
3869	41058	Since yall are so slow to think, here are a few ideas.	SInce yall are so slow to think, here are a few ideas.	1959908	1471976196394	1471976196463	o	79
3869	41058	Since yall are so slow to think, here are a few ideas.	SInce yall are so slow to think, here are a few ideas.	1959957	1471976196559	1471976196662	 	32
3869	41058	Since yall are so slow to think, here are a few ideas.	SInce yall are so slow to think, here are a few ideas.	1959961	1471976196646	1471976196760	t	84
3869	41058	Since yall are so slow to think, here are a few ideas.	SInce yall are so slow to think, here are a few ideas.	1959969	1471976196776	1471976196909	h	72
3869	41058	Since yall are so slow to think, here are a few ideas.	SInce yall are so slow to think, here are a few ideas.	1959973	1471976196893	1471976197011	i	73
3869	41058	Since yall are so slow to think, here are a few ideas.	SInce yall are so slow to think, here are a few ideas.	1959978	1471976197026	1471976197128	n	78
3869	41058	Since yall are so slow to think, here are a few ideas.	SInce yall are so slow to think, here are a few ideas.	1960111	1471976197143	1471976197265	k	75
3869	41058	Since yall are so slow to think, here are a few ideas.	SInce yall are so slow to think, here are a few ideas.	1960112	1471976197561	1471976197662	.	190
3869	41058	Since yall are so slow to think, here are a few ideas.	SInce yall are so slow to think, here are a few ideas.	1960115	1471976198036	1471976198176	BKSP	8
3869	41058	Since yall are so slow to think, here are a few ideas.	SInce yall are so slow to think, here are a few ideas.	1960117	1471976198535	1471976198633	,	188
3869	41058	Since yall are so slow to think, here are a few ideas.	SInce yall are so slow to think, here are a few ideas.	1960119	1471976198742	1471976198861	 	32
3869	41058	Since yall are so slow to think, here are a few ideas.	SInce yall are so slow to think, here are a few ideas.	1960121	1471976198907	1471976199235	SHIFT	16
3869	41058	Since yall are so slow to think, here are a few ideas.	SInce yall are so slow to think, here are a few ideas.	1960123	1471976199489	1471976199563	h	72
3869	41058	Since yall are so slow to think, here are a few ideas.	SInce yall are so slow to think, here are a few ideas.	1960139	1471976199594	1471976199732	e	69
3869	41058	Since yall are so slow to think, here are a few ideas.	SInce yall are so slow to think, here are a few ideas.	1960143	1471976199694	1471976199849	r	82
3869	41058	Since yall are so slow to think, here are a few ideas.	SInce yall are so slow to think, here are a few ideas.	1960145	1471976199810	1471976199943	e	69
3869	41058	Since yall are so slow to think, here are a few ideas.	SInce yall are so slow to think, here are a few ideas.	1960149	1471976199974	1471976200078	 	32
3869	41058	Since yall are so slow to think, here are a few ideas.	SInce yall are so slow to think, here are a few ideas.	1960152	1471976200172	1471976200309	a	65
3869	41058	Since yall are so slow to think, here are a few ideas.	SInce yall are so slow to think, here are a few ideas.	1960183	1471976200372	1471976200547	r	82
3869	41058	Since yall are so slow to think, here are a few ideas.	SInce yall are so slow to think, here are a few ideas.	1960186	1471976200478	1471976200641	e	69
3869	41058	Since yall are so slow to think, here are a few ideas.	SInce yall are so slow to think, here are a few ideas.	1960191	1471976200688	1471976200785	 	32
3869	41058	Since yall are so slow to think, here are a few ideas.	SInce yall are so slow to think, here are a few ideas.	1960196	1471976200785	1471976200910	a	65
3869	41058	Since yall are so slow to think, here are a few ideas.	SInce yall are so slow to think, here are a few ideas.	1960199	1471976200910	1471976200996	 	32
3869	41058	Since yall are so slow to think, here are a few ideas.	SInce yall are so slow to think, here are a few ideas.	1960237	1471976201185	1471976201357	f	70
3869	41058	Since yall are so slow to think, here are a few ideas.	SInce yall are so slow to think, here are a few ideas.	1960242	1471976201435	1471976201613	e	69
3869	41058	Since yall are so slow to think, here are a few ideas.	SInce yall are so slow to think, here are a few ideas.	1960247	1471976201549	1471976201691	w	87
3869	41058	Since yall are so slow to think, here are a few ideas.	SInce yall are so slow to think, here are a few ideas.	1960253	1471976201707	1471976201796	 	32
3869	41058	Since yall are so slow to think, here are a few ideas.	SInce yall are so slow to think, here are a few ideas.	1960256	1471976201889	1471976201985	i	73
3869	41058	Since yall are so slow to think, here are a few ideas.	SInce yall are so slow to think, here are a few ideas.	1960295	1471976202000	1471976202191	d	68
3869	41058	Since yall are so slow to think, here are a few ideas.	SInce yall are so slow to think, here are a few ideas.	1960300	1471976202160	1471976202355	e	69
3869	41058	Since yall are so slow to think, here are a few ideas.	SInce yall are so slow to think, here are a few ideas.	1960305	1471976202402	1471976202574	a	65
3869	41058	Since yall are so slow to think, here are a few ideas.	SInce yall are so slow to think, here are a few ideas.	1960310	1471976202559	1471976202708	s	83
3869	41058	Since yall are so slow to think, here are a few ideas.	SInce yall are so slow to think, here are a few ideas.	1960315	1471976202911	1471976203059	.	190
3869	41078	I'm on my way back there to do so.	I'm on my way back there to do so.	1960627	1471976204986	1471976205179	SHIFT	16
3869	41078	I'm on my way back there to do so.	I'm on my way back there to do so.	1960621	1471976205095	1471976205179	I	73
3869	41078	I'm on my way back there to do so.	I'm on my way back there to do so.	1960632	1471976205962	1471976206047	'	222
3869	41078	I'm on my way back there to do so.	I'm on my way back there to do so.	1960638	1471976207082	1471976207242	m	77
3869	41078	I'm on my way back there to do so.	I'm on my way back there to do so.	1960644	1471976207335	1471976207428	 	32
3869	41078	I'm on my way back there to do so.	I'm on my way back there to do so.	1960649	1471976207506	1471976207659	o	79
3869	41078	I'm on my way back there to do so.	I'm on my way back there to do so.	1960702	1471976207659	1471976207762	n	78
3869	41078	I'm on my way back there to do so.	I'm on my way back there to do so.	1960706	1471976207840	1471976207913	 	32
3869	41078	I'm on my way back there to do so.	I'm on my way back there to do so.	1960711	1471976207991	1471976208095	m	77
3869	41078	I'm on my way back there to do so.	I'm on my way back there to do so.	1960715	1471976208188	1471976208253	y	89
3869	41078	I'm on my way back there to do so.	I'm on my way back there to do so.	1960723	1471976208502	1471976208596	 	32
3869	41078	I'm on my way back there to do so.	I'm on my way back there to do so.	1960779	1471976208661	1471976208832	w	87
3869	41078	I'm on my way back there to do so.	I'm on my way back there to do so.	1960783	1471976208777	1471976208932	a	65
3869	41078	I'm on my way back there to do so.	I'm on my way back there to do so.	1960788	1471976208894	1471976209026	y	89
3869	41078	I'm on my way back there to do so.	I'm on my way back there to do so.	1960791	1471976209166	1471976209251	 	32
3869	41078	I'm on my way back there to do so.	I'm on my way back there to do so.	1960796	1471976209407	1471976209512	b	66
3869	41078	I'm on my way back there to do so.	I'm on my way back there to do so.	1960834	1471976209496	1471976209683	a	65
3869	41078	I'm on my way back there to do so.	I'm on my way back there to do so.	1960839	1471976209644	1471976209823	c	67
3869	41078	I'm on my way back there to do so.	I'm on my way back there to do so.	1960843	1471976209808	1471976209911	k	75
3869	41078	I'm on my way back there to do so.	I'm on my way back there to do so.	1960847	1471976210020	1471976210116	 	32
3869	41078	I'm on my way back there to do so.	I'm on my way back there to do so.	1960853	1471976210100	1471976210229	t	84
3869	41078	I'm on my way back there to do so.	I'm on my way back there to do so.	1960856	1471976210229	1471976210313	h	72
3869	41078	I'm on my way back there to do so.	I'm on my way back there to do so.	1960893	1471976210297	1471976210432	e	69
3869	41078	I'm on my way back there to do so.	I'm on my way back there to do so.	1960895	1471976210396	1471976210547	r	82
3869	41078	I'm on my way back there to do so.	I'm on my way back there to do so.	1960898	1471976210510	1471976210674	e	69
3869	41078	I'm on my way back there to do so.	I'm on my way back there to do so.	1960902	1471976210736	1471976210860	 	32
3869	41078	I'm on my way back there to do so.	I'm on my way back there to do so.	1960905	1471976210909	1471976211012	t	84
3869	41078	I'm on my way back there to do so.	I'm on my way back there to do so.	1960908	1471976211027	1471976211112	o	79
3869	41078	I'm on my way back there to do so.	I'm on my way back there to do so.	1960992	1471976211208	1471976211296	 	32
3869	41078	I'm on my way back there to do so.	I'm on my way back there to do so.	1960996	1471976211499	1471976211580	d	70
3869	41078	I'm on my way back there to do so.	I'm on my way back there to do so.	1961001	1471976211892	1471976211988	BKSP	8
3869	41078	I'm on my way back there to do so.	I'm on my way back there to do so.	1961005	1471976212050	1471976212146	BKSP	8
3869	41078	I'm on my way back there to do so.	I'm on my way back there to do so.	1961009	1471976212396	1471976212558	d	68
3869	41078	I'm on my way back there to do so.	I'm on my way back there to do so.	1961014	1471976212574	1471976212717	o	79
3869	41078	I'm on my way back there to do so.	I'm on my way back there to do so.	1961043	1471976212765	1471976212862	 	32
3869	41078	I'm on my way back there to do so.	I'm on my way back there to do so.	1961048	1471976212878	1471976213002	s	83
3869	41078	I'm on my way back there to do so.	I'm on my way back there to do so.	1961051	1471976212987	1471976213080	o	79
3869	41078	I'm on my way back there to do so.	I'm on my way back there to do so.	1961055	1471976213158	1471976213308	.	190
3869	41088	I am in 50M if you need me.	I am in 50M if you need me.	1961661	1471976222899	1471976223105	SHIFT	16
3869	41088	I am in 50M if you need me.	I am in 50M if you need me.	1961665	1471976223090	1471976223164	I	73
3869	41088	I am in 50M if you need me.	I am in 50M if you need me.	1961667	1471976223211	1471976223297	 	32
3869	41088	I am in 50M if you need me.	I am in 50M if you need me.	1961669	1471976223344	1471976223446	a	65
3869	41088	I am in 50M if you need me.	I am in 50M if you need me.	1961674	1471976223477	1471976223564	m	77
3869	41088	I am in 50M if you need me.	I am in 50M if you need me.	1961677	1471976223642	1471976223746	 	32
3869	41088	I am in 50M if you need me.	I am in 50M if you need me.	1961810	1471976223826	1471976223960	i	73
3869	41088	I am in 50M if you need me.	I am in 50M if you need me.	1961815	1471976224807	1471976224897	n	78
3869	41088	I am in 50M if you need me.	I am in 50M if you need me.	1961818	1471976224975	1471976225080	 	32
3869	41088	I am in 50M if you need me.	I am in 50M if you need me.	1961824	1471976225158	1471976225262	5	53
3869	41088	I am in 50M if you need me.	I am in 50M if you need me.	1961831	1471976225403	1471976225529	0	48
3869	41088	I am in 50M if you need me.	I am in 50M if you need me.	1961917	1471976225610	1471976225666	 	32
3869	41088	I am in 50M if you need me.	I am in 50M if you need me.	1961921	1471976226072	1471976226184	BKSP	8
3869	41088	I am in 50M if you need me.	I am in 50M if you need me.	1961928	1471976226324	1471976226613	SHIFT	16
3869	41088	I am in 50M if you need me.	I am in 50M if you need me.	1961925	1471976226480	1471976226597	M	77
3869	41088	I am in 50M if you need me.	I am in 50M if you need me.	1961933	1471976226722	1471976226786	 	32
3869	41088	I am in 50M if you need me.	I am in 50M if you need me.	1961937	1471976226880	1471976226995	i	73
3869	41088	I am in 50M if you need me.	I am in 50M if you need me.	1961943	1471976227057	1471976227184	f	70
3869	41088	I am in 50M if you need me.	I am in 50M if you need me.	1961977	1471976227264	1471976227363	 	32
3869	41088	I am in 50M if you need me.	I am in 50M if you need me.	1961981	1471976227410	1471976227544	y	89
3869	41088	I am in 50M if you need me.	I am in 50M if you need me.	1961986	1471976227512	1471976227649	o	79
3869	41088	I am in 50M if you need me.	I am in 50M if you need me.	1961992	1471976227597	1471976227727	u	85
3869	41088	I am in 50M if you need me.	I am in 50M if you need me.	1961996	1471976227743	1471976227880	 	32
3869	41088	I am in 50M if you need me.	I am in 50M if you need me.	1962016	1471976227912	1471976227997	n	78
3869	41088	I am in 50M if you need me.	I am in 50M if you need me.	1962022	1471976228028	1471976228130	e	69
3869	41088	I am in 50M if you need me.	I am in 50M if you need me.	1962028	1471976228208	1471976228281	e	69
3869	41088	I am in 50M if you need me.	I am in 50M if you need me.	1962032	1471976228391	1471976228481	d	68
3869	41088	I am in 50M if you need me.	I am in 50M if you need me.	1962036	1471976228497	1471976228580	 	32
3869	41088	I am in 50M if you need me.	I am in 50M if you need me.	1962061	1471976228644	1471976228731	m	77
3869	41088	I am in 50M if you need me.	I am in 50M if you need me.	1962066	1471976228746	1471976228830	e	69
3869	41088	I am in 50M if you need me.	I am in 50M if you need me.	1962072	1471976228861	1471976228994	.	190
3869	41107	I wonder if RBS is another institution which could move quickly.	I wonder if RBS is another institution which could move quickly.	1962219	1471976230733	1471976230982	SHIFT	16
3869	41107	I wonder if RBS is another institution which could move quickly.	I wonder if RBS is another institution which could move quickly.	1962223	1471976230904	1471976230997	U	73
3869	41107	I wonder if RBS is another institution which could move quickly.	I wonder if RBS is another institution which could move quickly.	1962230	1471976231624	1471976231698	BKSP	8
3869	41107	I wonder if RBS is another institution which could move quickly.	I wonder if RBS is another institution which could move quickly.	1962235	1471976231932	1471976232030	 	32
3869	41107	I wonder if RBS is another institution which could move quickly.	I wonder if RBS is another institution which could move quickly.	1962240	1471976232045	1471976232199	w	87
3869	41107	I wonder if RBS is another institution which could move quickly.	I wonder if RBS is another institution which could move quickly.	1962274	1471976232146	1471976232263	o	79
3869	41107	I wonder if RBS is another institution which could move quickly.	I wonder if RBS is another institution which could move quickly.	1962280	1471976232263	1471976232380	n	78
3869	41107	I wonder if RBS is another institution which could move quickly.	I wonder if RBS is another institution which could move quickly.	1962284	1471976232364	1471976232494	d	68
3869	41107	I wonder if RBS is another institution which could move quickly.	I wonder if RBS is another institution which could move quickly.	1962292	1471976232494	1471976232698	e	69
3869	41107	I wonder if RBS is another institution which could move quickly.	I wonder if RBS is another institution which could move quickly.	1962296	1471976232612	1471976232745	r	82
3869	41107	I wonder if RBS is another institution which could move quickly.	I wonder if RBS is another institution which could move quickly.	1962302	1471976232761	1471976232925	 	32
3869	41107	I wonder if RBS is another institution which could move quickly.	I wonder if RBS is another institution which could move quickly.	1962334	1471976232974	1471976233095	i	73
3869	41107	I wonder if RBS is another institution which could move quickly.	I wonder if RBS is another institution which could move quickly.	1962337	1471976233110	1471976233229	f	70
3869	41107	I wonder if RBS is another institution which could move quickly.	I wonder if RBS is another institution which could move quickly.	1962340	1471976233229	1471976233345	 	32
3869	41107	I wonder if RBS is another institution which could move quickly.	I wonder if RBS is another institution which could move quickly.	1962387	1471976233314	1471976233992	SHIFT	16
3869	41107	I wonder if RBS is another institution which could move quickly.	I wonder if RBS is another institution which could move quickly.	1962344	1471976233501	1471976233643	R	82
3869	41107	I wonder if RBS is another institution which could move quickly.	I wonder if RBS is another institution which could move quickly.	1962349	1471976233690	1471976233827	B	66
3869	41107	I wonder if RBS is another institution which could move quickly.	I wonder if RBS is another institution which could move quickly.	1962381	1471976233827	1471976233976	S	83
3869	41107	I wonder if RBS is another institution which could move quickly.	I wonder if RBS is another institution which could move quickly.	1962393	1471976234085	1471976234180	 	32
3869	41107	I wonder if RBS is another institution which could move quickly.	I wonder if RBS is another institution which could move quickly.	1962397	1471976234258	1471976234379	i	73
3869	41107	I wonder if RBS is another institution which could move quickly.	I wonder if RBS is another institution which could move quickly.	1962401	1471976234379	1471976234495	s	83
3869	41107	I wonder if RBS is another institution which could move quickly.	I wonder if RBS is another institution which could move quickly.	1962408	1471976234495	1471976234596	 	32
3869	41107	I wonder if RBS is another institution which could move quickly.	I wonder if RBS is another institution which could move quickly.	1962420	1471976234677	1471976234795	a	65
3869	41107	I wonder if RBS is another institution which could move quickly.	I wonder if RBS is another institution which could move quickly.	1962425	1471976234779	1471976234880	n	78
3869	41107	I wonder if RBS is another institution which could move quickly.	I wonder if RBS is another institution which could move quickly.	1962428	1471976234896	1471976235012	o	79
3869	41107	I wonder if RBS is another institution which could move quickly.	I wonder if RBS is another institution which could move quickly.	1962432	1471976234996	1471976235145	t	84
3869	41107	I wonder if RBS is another institution which could move quickly.	I wonder if RBS is another institution which could move quickly.	1962519	1471976235112	1471976235234	h	72
3869	41107	I wonder if RBS is another institution which could move quickly.	I wonder if RBS is another institution which could move quickly.	1962523	1471976235198	1471976235364	e	69
3869	41107	I wonder if RBS is another institution which could move quickly.	I wonder if RBS is another institution which could move quickly.	1962526	1471976235281	1471976235426	r	82
3869	41107	I wonder if RBS is another institution which could move quickly.	I wonder if RBS is another institution which could move quickly.	1962529	1471976235442	1471976235563	 	32
3869	41107	I wonder if RBS is another institution which could move quickly.	I wonder if RBS is another institution which could move quickly.	1962532	1471976235611	1471976235784	SHIFT	16
3869	41107	I wonder if RBS is another institution which could move quickly.	I wonder if RBS is another institution which could move quickly.	1962537	1471976235736	1471976235815	I	73
3869	41107	I wonder if RBS is another institution which could move quickly.	I wonder if RBS is another institution which could move quickly.	1962543	1471976236189	1471976236280	BKSP	8
3869	41107	I wonder if RBS is another institution which could move quickly.	I wonder if RBS is another institution which could move quickly.	1962546	1471976236421	1471976236561	i	73
3869	41107	I wonder if RBS is another institution which could move quickly.	I wonder if RBS is another institution which could move quickly.	1962605	1471976236577	1471976236696	n	78
3869	41107	I wonder if RBS is another institution which could move quickly.	I wonder if RBS is another institution which could move quickly.	1962606	1471976236648	1471976236840	s	83
3869	41107	I wonder if RBS is another institution which could move quickly.	I wonder if RBS is another institution which could move quickly.	1962607	1471976236840	1471976236884	t	84
3869	41107	I wonder if RBS is another institution which could move quickly.	I wonder if RBS is another institution which could move quickly.	1962608	1471976237228	1471976237329	i	73
3869	41107	I wonder if RBS is another institution which could move quickly.	I wonder if RBS is another institution which could move quickly.	1962609	1471976237454	1471976237594	t	84
3869	41107	I wonder if RBS is another institution which could move quickly.	I wonder if RBS is another institution which could move quickly.	1962695	1471976237705	1471976237828	i	73
3869	41107	I wonder if RBS is another institution which could move quickly.	I wonder if RBS is another institution which could move quickly.	1962696	1471976238078	1471976238195	BKSP	8
3869	41107	I wonder if RBS is another institution which could move quickly.	I wonder if RBS is another institution which could move quickly.	1962698	1471976238337	1471976238462	u	85
3869	41107	I wonder if RBS is another institution which could move quickly.	I wonder if RBS is another institution which could move quickly.	1962699	1471976238587	1471976238696	t	84
3869	41107	I wonder if RBS is another institution which could move quickly.	I wonder if RBS is another institution which could move quickly.	1962701	1471976238789	1471976238943	i	73
3869	41107	I wonder if RBS is another institution which could move quickly.	I wonder if RBS is another institution which could move quickly.	1962832	1471976239067	1471976239259	i	79
3869	41107	I wonder if RBS is another institution which could move quickly.	I wonder if RBS is another institution which could move quickly.	1962836	1471976239603	1471976239728	BKSP	8
3869	41107	I wonder if RBS is another institution which could move quickly.	I wonder if RBS is another institution which could move quickly.	1962840	1471976240324	1471976240414	n	78
3869	41107	I wonder if RBS is another institution which could move quickly.	I wonder if RBS is another institution which could move quickly.	1962844	1471976240851	1471976240947	 	32
3869	41107	I wonder if RBS is another institution which could move quickly.	I wonder if RBS is another institution which could move quickly.	1962847	1471976241009	1471976241175	w	87
3869	41107	I wonder if RBS is another institution which could move quickly.	I wonder if RBS is another institution which could move quickly.	1962989	1471976241160	1471976241295	g	72
3869	41107	I wonder if RBS is another institution which could move quickly.	I wonder if RBS is another institution which could move quickly.	1962992	1471976241420	1471976241453	i	73
3869	41107	I wonder if RBS is another institution which could move quickly.	I wonder if RBS is another institution which could move quickly.	1962994	1471976241625	1471976241714	BKSP	8
3869	41107	I wonder if RBS is another institution which could move quickly.	I wonder if RBS is another institution which could move quickly.	1962997	1471976241792	1471976241865	BKSP	8
3869	41107	I wonder if RBS is another institution which could move quickly.	I wonder if RBS is another institution which could move quickly.	1963001	1471976242070	1471976242179	i	73
3869	41107	I wonder if RBS is another institution which could move quickly.	I wonder if RBS is another institution which could move quickly.	1963003	1471976242791	1471976242912	c	67
3869	41107	I wonder if RBS is another institution which could move quickly.	I wonder if RBS is another institution which could move quickly.	1963005	1471976242959	1471976243078	h	72
3869	41107	I wonder if RBS is another institution which could move quickly.	I wonder if RBS is another institution which could move quickly.	1963007	1471976243125	1471976243246	 	32
3869	41107	I wonder if RBS is another institution which could move quickly.	I wonder if RBS is another institution which could move quickly.	1963052	1471976243325	1471976243384	w	87
3869	41107	I wonder if RBS is another institution which could move quickly.	I wonder if RBS is another institution which could move quickly.	1963056	1471976243680	1471976243780	BKSP	8
3869	41107	I wonder if RBS is another institution which could move quickly.	I wonder if RBS is another institution which could move quickly.	1963062	1471976243826	1471976243913	c	67
3869	41107	I wonder if RBS is another institution which could move quickly.	I wonder if RBS is another institution which could move quickly.	1963068	1471976243960	1471976244094	o	79
3869	41107	I wonder if RBS is another institution which could move quickly.	I wonder if RBS is another institution which could move quickly.	1963073	1471976244110	1471976244213	u	85
3869	41107	I wonder if RBS is another institution which could move quickly.	I wonder if RBS is another institution which could move quickly.	1963077	1471976244244	1471976244362	l	76
3869	41107	I wonder if RBS is another institution which could move quickly.	I wonder if RBS is another institution which could move quickly.	1963114	1471976244378	1471976244495	d	68
3869	41107	I wonder if RBS is another institution which could move quickly.	I wonder if RBS is another institution which could move quickly.	1963118	1471976244542	1471976244662	 	32
3869	41107	I wonder if RBS is another institution which could move quickly.	I wonder if RBS is another institution which could move quickly.	1963121	1471976244740	1471976244862	m	77
3869	41107	I wonder if RBS is another institution which could move quickly.	I wonder if RBS is another institution which could move quickly.	1963125	1471976244878	1471976244995	o	79
3869	41107	I wonder if RBS is another institution which could move quickly.	I wonder if RBS is another institution which could move quickly.	1963128	1471976245042	1471976245193	v	86
3869	41107	I wonder if RBS is another institution which could move quickly.	I wonder if RBS is another institution which could move quickly.	1963179	1471976245177	1471976245328	e	69
3869	41107	I wonder if RBS is another institution which could move quickly.	I wonder if RBS is another institution which could move quickly.	1963182	1471976245328	1471976245429	 	32
3869	41107	I wonder if RBS is another institution which could move quickly.	I wonder if RBS is another institution which could move quickly.	1963184	1471976245851	1471976245947	q	81
3869	41107	I wonder if RBS is another institution which could move quickly.	I wonder if RBS is another institution which could move quickly.	1963186	1471976246040	1471976246136	u	85
3869	41107	I wonder if RBS is another institution which could move quickly.	I wonder if RBS is another institution which could move quickly.	1963188	1471976246198	1471976246297	i	73
3869	41107	I wonder if RBS is another institution which could move quickly.	I wonder if RBS is another institution which could move quickly.	1963190	1471976246328	1471976246438	c	67
3869	41107	I wonder if RBS is another institution which could move quickly.	I wonder if RBS is another institution which could move quickly.	1963196	1471976246517	1471976246629	k	75
3869	41107	I wonder if RBS is another institution which could move quickly.	I wonder if RBS is another institution which could move quickly.	1963198	1471976246660	1471976246794	l	76
3869	41107	I wonder if RBS is another institution which could move quickly.	I wonder if RBS is another institution which could move quickly.	1963202	1471976246903	1471976247030	y	89
3869	41107	I wonder if RBS is another institution which could move quickly.	I wonder if RBS is another institution which could move quickly.	1963206	1471976247201	1471976247328	.	190
3869	41131	Jim please confirm to Vince you are happy.	Jim please confirm to Vince you are happy.	1963475	1471976249273	1471976249554	SHIFT	16
3869	41131	Jim please confirm to Vince you are happy.	Jim please confirm to Vince you are happy.	1963477	1471976249554	1471976249725	j	74
3869	41131	Jim please confirm to Vince you are happy.	Jim please confirm to Vince you are happy.	1963482	1471976249756	1471976249894	i	73
3869	41131	Jim please confirm to Vince you are happy.	Jim please confirm to Vince you are happy.	1963486	1471976249972	1471976250083	m	77
3869	41131	Jim please confirm to Vince you are happy.	Jim please confirm to Vince you are happy.	1963490	1471976250223	1471976250361	 	32
3869	41131	Jim please confirm to Vince you are happy.	Jim please confirm to Vince you are happy.	1963495	1471976250548	1471976250600	BKSP	8
3869	41131	Jim please confirm to Vince you are happy.	Jim please confirm to Vince you are happy.	1963500	1471976250709	1471976250750	BKSP	8
3869	41131	Jim please confirm to Vince you are happy.	Jim please confirm to Vince you are happy.	1963505	1471976250828	1471976250883	BKSP	8
3869	41131	Jim please confirm to Vince you are happy.	Jim please confirm to Vince you are happy.	1963512	1471976250961	1471976251016	BKSP	8
3869	41131	Jim please confirm to Vince you are happy.	Jim please confirm to Vince you are happy.	1963531	1471976251265	1471976251678	SHIFT	16
3869	41131	Jim please confirm to Vince you are happy.	Jim please confirm to Vince you are happy.	1963515	1471976251534	1471976251646	J	74
3869	41131	Jim please confirm to Vince you are happy.	Jim please confirm to Vince you are happy.	1963532	1471976251834	1471976251929	i	73
3869	41131	Jim please confirm to Vince you are happy.	Jim please confirm to Vince you are happy.	1963533	1471976251992	1471976252096	m	77
3869	41131	Jim please confirm to Vince you are happy.	Jim please confirm to Vince you are happy.	1963535	1471976252190	1471976252264	 	32
3869	41131	Jim please confirm to Vince you are happy.	Jim please confirm to Vince you are happy.	1963538	1471976252374	1471976252518	p	80
3869	41131	Jim please confirm to Vince you are happy.	Jim please confirm to Vince you are happy.	1963578	1471976252479	1471976252658	l	76
3869	41131	Jim please confirm to Vince you are happy.	Jim please confirm to Vince you are happy.	1963580	1471976252642	1471976252816	e	69
3869	41131	Jim please confirm to Vince you are happy.	Jim please confirm to Vince you are happy.	1963584	1471976252747	1471976252951	a	65
3869	41131	Jim please confirm to Vince you are happy.	Jim please confirm to Vince you are happy.	1963588	1471976252910	1471976253029	s	83
3869	41131	Jim please confirm to Vince you are happy.	Jim please confirm to Vince you are happy.	1963590	1471976253107	1471976253275	e	69
3869	41131	Jim please confirm to Vince you are happy.	Jim please confirm to Vince you are happy.	1963591	1471976253291	1471976253396	 	32
3869	41131	Jim please confirm to Vince you are happy.	Jim please confirm to Vince you are happy.	1963612	1471976253412	1471976253560	c	67
3869	41131	Jim please confirm to Vince you are happy.	Jim please confirm to Vince you are happy.	1963616	1471976253544	1471976253684	o	79
3869	41131	Jim please confirm to Vince you are happy.	Jim please confirm to Vince you are happy.	1963620	1471976253647	1471976253747	n	78
3869	41131	Jim please confirm to Vince you are happy.	Jim please confirm to Vince you are happy.	1963624	1471976253762	1471976253894	f	70
3869	41131	Jim please confirm to Vince you are happy.	Jim please confirm to Vince you are happy.	1963630	1471976253941	1471976254016	i	85
3869	41131	Jim please confirm to Vince you are happy.	Jim please confirm to Vince you are happy.	1963714	1471976254095	1471976254228	r	82
3869	41131	Jim please confirm to Vince you are happy.	Jim please confirm to Vince you are happy.	1963717	1471976254322	1471976254414	BKSP	8
3869	41131	Jim please confirm to Vince you are happy.	Jim please confirm to Vince you are happy.	1963720	1471976254492	1471976254554	BKSP	8
3869	41131	Jim please confirm to Vince you are happy.	Jim please confirm to Vince you are happy.	1963723	1471976254616	1471976254699	BKSP	8
3869	41131	Jim please confirm to Vince you are happy.	Jim please confirm to Vince you are happy.	1963727	1471976254933	1471976255029	u	85
3869	41131	Jim please confirm to Vince you are happy.	Jim please confirm to Vince you are happy.	1963729	1471976255076	1471976255187	r	82
3869	41131	Jim please confirm to Vince you are happy.	Jim please confirm to Vince you are happy.	1963731	1471976255250	1471976255315	m	77
3869	41131	Jim please confirm to Vince you are happy.	Jim please confirm to Vince you are happy.	1963732	1471976255440	1471976255531	BKSP	8
3869	41131	Jim please confirm to Vince you are happy.	Jim please confirm to Vince you are happy.	1963733	1471976255609	1471976255666	BKSP	8
3869	41131	Jim please confirm to Vince you are happy.	Jim please confirm to Vince you are happy.	1963734	1471976255729	1471976255798	BKSP	8
3869	41131	Jim please confirm to Vince you are happy.	Jim please confirm to Vince you are happy.	1963735	1471976256250	1471976256332	i	73
3869	41131	Jim please confirm to Vince you are happy.	Jim please confirm to Vince you are happy.	1963760	1471976256347	1471976256462	r	82
3869	41131	Jim please confirm to Vince you are happy.	Jim please confirm to Vince you are happy.	1963761	1471976256478	1471976256564	m	77
3869	41131	Jim please confirm to Vince you are happy.	Jim please confirm to Vince you are happy.	1963765	1471976256720	1471976256829	 	32
3869	41131	Jim please confirm to Vince you are happy.	Jim please confirm to Vince you are happy.	1963769	1471976257096	1471976257227	t	84
3869	41131	Jim please confirm to Vince you are happy.	Jim please confirm to Vince you are happy.	1963773	1471976257227	1471976257330	o	79
3869	41131	Jim please confirm to Vince you are happy.	Jim please confirm to Vince you are happy.	1963816	1471976257409	1471976257504	 	32
3869	41131	Jim please confirm to Vince you are happy.	Jim please confirm to Vince you are happy.	1963818	1471976257504	1471976257826	SHIFT	16
3869	41131	Jim please confirm to Vince you are happy.	Jim please confirm to Vince you are happy.	1963820	1471976257676	1471976257842	C	67
3869	41131	Jim please confirm to Vince you are happy.	Jim please confirm to Vince you are happy.	1963822	1471976258029	1471976258145	BKSP	8
3869	41131	Jim please confirm to Vince you are happy.	Jim please confirm to Vince you are happy.	1963828	1471976258208	1471976258636	SHIFT	16
3869	41131	Jim please confirm to Vince you are happy.	Jim please confirm to Vince you are happy.	1963824	1471976258379	1471976258527	V	86
3869	41131	Jim please confirm to Vince you are happy.	Jim please confirm to Vince you are happy.	1963831	1471976258761	1471976258863	i	73
3869	41131	Jim please confirm to Vince you are happy.	Jim please confirm to Vince you are happy.	1963834	1471976258941	1471976259031	n	78
3869	41131	Jim please confirm to Vince you are happy.	Jim please confirm to Vince you are happy.	1963872	1471976259063	1471976259266	c	67
3869	41131	Jim please confirm to Vince you are happy.	Jim please confirm to Vince you are happy.	1963873	1471976259194	1471976259360	e	69
3869	41131	Jim please confirm to Vince you are happy.	Jim please confirm to Vince you are happy.	1963877	1471976259422	1471976259499	 	32
3869	41131	Jim please confirm to Vince you are happy.	Jim please confirm to Vince you are happy.	1963883	1471976259686	1471976259798	y	89
3869	41131	Jim please confirm to Vince you are happy.	Jim please confirm to Vince you are happy.	1963888	1471976259829	1471976259934	o	79
3869	41131	Jim please confirm to Vince you are happy.	Jim please confirm to Vince you are happy.	1963900	1471976259899	1471976260043	u	85
3869	41131	Jim please confirm to Vince you are happy.	Jim please confirm to Vince you are happy.	1963903	1471976260043	1471976260173	 	32
3869	41131	Jim please confirm to Vince you are happy.	Jim please confirm to Vince you are happy.	1963907	1471976260131	1471976260332	a	65
3869	41131	Jim please confirm to Vince you are happy.	Jim please confirm to Vince you are happy.	1963914	1471976260262	1471976260448	r	82
3869	41131	Jim please confirm to Vince you are happy.	Jim please confirm to Vince you are happy.	1963919	1471976260363	1471976260534	e	69
3869	41131	Jim please confirm to Vince you are happy.	Jim please confirm to Vince you are happy.	1963976	1471976260496	1471976260613	 	32
3869	41131	Jim please confirm to Vince you are happy.	Jim please confirm to Vince you are happy.	1963978	1471976260675	1471976260784	h	72
3869	41131	Jim please confirm to Vince you are happy.	Jim please confirm to Vince you are happy.	1963983	1471976260733	1471976260877	a	65
3869	41131	Jim please confirm to Vince you are happy.	Jim please confirm to Vince you are happy.	1963987	1471976261096	1471976261181	p	80
3869	41131	Jim please confirm to Vince you are happy.	Jim please confirm to Vince you are happy.	1963990	1471976261259	1471976261316	p	80
3869	41131	Jim please confirm to Vince you are happy.	Jim please confirm to Vince you are happy.	1963993	1471976261784	1471976261880	y	89
3869	41131	Jim please confirm to Vince you are happy.	Jim please confirm to Vince you are happy.	1963996	1471976261959	1471976262079	.	190
3869	41147	We can work around these plans if you prefer.	We can work around these plans if you prefer.	1964383	1471976268103	1471976268355	SHIFT	16
3869	41147	We can work around these plans if you prefer.	We can work around these plans if you prefer.	1964385	1471976268259	1471976268435	W	87
3869	41147	We can work around these plans if you prefer.	We can work around these plans if you prefer.	1964390	1471976268402	1471976268560	e	69
3869	41147	We can work around these plans if you prefer.	We can work around these plans if you prefer.	1964393	1471976268591	1471976268696	 	32
3869	41147	We can work around these plans if you prefer.	We can work around these plans if you prefer.	1964396	1471976268711	1471976268862	c	67
3869	41147	We can work around these plans if you prefer.	We can work around these plans if you prefer.	1964449	1471976268813	1471976268948	a	65
3869	41147	We can work around these plans if you prefer.	We can work around these plans if you prefer.	1964453	1471976268906	1471976268997	n	78
3869	41147	We can work around these plans if you prefer.	We can work around these plans if you prefer.	1964457	1471976269075	1471976269180	 	32
3869	41147	We can work around these plans if you prefer.	We can work around these plans if you prefer.	1964461	1471976269478	1471976269611	w	87
3869	41147	We can work around these plans if you prefer.	We can work around these plans if you prefer.	1964465	1471976269596	1471976269681	o	79
3869	41147	We can work around these plans if you prefer.	We can work around these plans if you prefer.	1964471	1471976269712	1471976269798	r	82
3869	41147	We can work around these plans if you prefer.	We can work around these plans if you prefer.	1964499	1471976269831	1471976269930	k	75
3869	41147	We can work around these plans if you prefer.	We can work around these plans if you prefer.	1964500	1471976270023	1471976270114	 	32
3869	41147	We can work around these plans if you prefer.	We can work around these plans if you prefer.	1964502	1471976270114	1471976270245	a	65
3869	41147	We can work around these plans if you prefer.	We can work around these plans if you prefer.	1964506	1471976270292	1471976270427	r	82
3869	41147	We can work around these plans if you prefer.	We can work around these plans if you prefer.	1964525	1471976270427	1471976270514	o	79
3869	41147	We can work around these plans if you prefer.	We can work around these plans if you prefer.	1964528	1471976270624	1471976270760	u	85
3869	41147	We can work around these plans if you prefer.	We can work around these plans if you prefer.	1964534	1471976270745	1471976270850	n	78
3869	41147	We can work around these plans if you prefer.	We can work around these plans if you prefer.	1964536	1471976270794	1471976270897	d	68
3869	41147	We can work around these plans if you prefer.	We can work around these plans if you prefer.	1964539	1471976270944	1471976271046	 	32
3869	41147	We can work around these plans if you prefer.	We can work around these plans if you prefer.	1964564	1471976271046	1471976271146	t	84
3869	41147	We can work around these plans if you prefer.	We can work around these plans if you prefer.	1964569	1471976271130	1471976271230	h	72
3869	41147	We can work around these plans if you prefer.	We can work around these plans if you prefer.	1964572	1471976271215	1471976271376	e	69
3869	41147	We can work around these plans if you prefer.	We can work around these plans if you prefer.	1964575	1471976271360	1471976271498	s	83
3869	41147	We can work around these plans if you prefer.	We can work around these plans if you prefer.	1964578	1471976271432	1471976271592	e	69
3869	41147	We can work around these plans if you prefer.	We can work around these plans if you prefer.	1964581	1471976271592	1471976271681	 	32
3869	41147	We can work around these plans if you prefer.	We can work around these plans if you prefer.	1964602	1471976271776	1471976271917	p	80
3869	41147	We can work around these plans if you prefer.	We can work around these plans if you prefer.	1964605	1471976271880	1471976271980	l	76
3869	41147	We can work around these plans if you prefer.	We can work around these plans if you prefer.	1964609	1471976272011	1471976272145	a	65
3869	41147	We can work around these plans if you prefer.	We can work around these plans if you prefer.	1964618	1471976272145	1471976272284	n	78
3869	41147	We can work around these plans if you prefer.	We can work around these plans if you prefer.	1964625	1471976272284	1471976272412	s	83
3869	41147	We can work around these plans if you prefer.	We can work around these plans if you prefer.	1964682	1471976272428	1471976272498	 	32
3869	41147	We can work around these plans if you prefer.	We can work around these plans if you prefer.	1964686	1471976272592	1471976272743	i	73
3869	41147	We can work around these plans if you prefer.	We can work around these plans if you prefer.	1964689	1471976272821	1471976272930	f	70
3869	41147	We can work around these plans if you prefer.	We can work around these plans if you prefer.	1964691	1471976272961	1471976273063	 	32
3869	41147	We can work around these plans if you prefer.	We can work around these plans if you prefer.	1964699	1471976273125	1471976273250	y	89
3869	41147	We can work around these plans if you prefer.	We can work around these plans if you prefer.	1964727	1471976273214	1471976273314	o	79
3869	41147	We can work around these plans if you prefer.	We can work around these plans if you prefer.	1964731	1471976273329	1471976273446	u	85
3869	41147	We can work around these plans if you prefer.	We can work around these plans if you prefer.	1964733	1471976273477	1471976273579	 	32
3869	41147	We can work around these plans if you prefer.	We can work around these plans if you prefer.	1964739	1471976273642	1471976273769	p	80
3869	41147	We can work around these plans if you prefer.	We can work around these plans if you prefer.	1964743	1471976273769	1471976273948	r	82
3869	41147	We can work around these plans if you prefer.	We can work around these plans if you prefer.	1964785	1471976273866	1471976274011	e	69
3869	41147	We can work around these plans if you prefer.	We can work around these plans if you prefer.	1964786	1471976274089	1471976274368	f	70
3869	41147	We can work around these plans if you prefer.	We can work around these plans if you prefer.	1964788	1471976274461	1471976274617	e	69
3869	41147	We can work around these plans if you prefer.	We can work around these plans if you prefer.	1964790	1471976274563	1471976274679	r	82
3869	41147	We can work around these plans if you prefer.	We can work around these plans if you prefer.	1964792	1471976274726	1471976274830	.	190
3869	41161	Thanks for your concern.	Thanks for your concern.	1965080	1471976279913	1471976280246	SHIFT	16
3869	41161	Thanks for your concern.	Thanks for your concern.	1965077	1471976280117	1471976280214	T	84
3869	41161	Thanks for your concern.	Thanks for your concern.	1965085	1471976280308	1471976280381	h	72
3869	41161	Thanks for your concern.	Thanks for your concern.	1965087	1471976280444	1471976280547	a	65
3869	41161	Thanks for your concern.	Thanks for your concern.	1965090	1471976280531	1471976280661	n	78
3869	41161	Thanks for your concern.	Thanks for your concern.	1965112	1471976280645	1471976280751	k	75
3869	41161	Thanks for your concern.	Thanks for your concern.	1965115	1471976280715	1471976280829	s	83
3869	41161	Thanks for your concern.	Thanks for your concern.	1965120	1471976280891	1471976280980	 	32
3869	41161	Thanks for your concern.	Thanks for your concern.	1965124	1471976280980	1471976281096	f	70
3869	41161	Thanks for your concern.	Thanks for your concern.	1965128	1471976281080	1471976281196	o	79
3869	41161	Thanks for your concern.	Thanks for your concern.	1965132	1471976281212	1471976281313	r	82
3869	41161	Thanks for your concern.	Thanks for your concern.	1965150	1471976281362	1471976281447	 	32
3869	41161	Thanks for your concern.	Thanks for your concern.	1965151	1471976281494	1471976281581	y	89
3869	41161	Thanks for your concern.	Thanks for your concern.	1965152	1471976281581	1471976281718	o	79
3869	41161	Thanks for your concern.	Thanks for your concern.	1965153	1471976281665	1471976281811	u	85
3869	41161	Thanks for your concern.	Thanks for your concern.	1965155	1471976281827	1471976281930	r	82
3869	41161	Thanks for your concern.	Thanks for your concern.	1965175	1471976281979	1471976282079	 	32
3869	41161	Thanks for your concern.	Thanks for your concern.	1965181	1471976282079	1471976282239	c	67
3869	41161	Thanks for your concern.	Thanks for your concern.	1965187	1471976282195	1471976282330	o	79
3869	41161	Thanks for your concern.	Thanks for your concern.	1965191	1471976282297	1471976282396	n	78
3869	41161	Thanks for your concern.	Thanks for your concern.	1965240	1471976282396	1471976282512	c	67
3869	41161	Thanks for your concern.	Thanks for your concern.	1965243	1471976282512	1471976282683	e	69
3869	41161	Thanks for your concern.	Thanks for your concern.	1965247	1471976282613	1471976282761	r	82
3869	41161	Thanks for your concern.	Thanks for your concern.	1965252	1471976282777	1471976282879	n	78
3869	41161	Thanks for your concern.	Thanks for your concern.	1965256	1471976283052	1471976283165	.	190
3869	41170	I doubt that it is forecasted.	I doubt that it is forecasted,	1965633	1471976288845	1471976289067	SHIFT	16
3869	41170	I doubt that it is forecasted.	I doubt that it is forecasted,	1965637	1471976289001	1471976289083	I	73
3869	41170	I doubt that it is forecasted.	I doubt that it is forecasted,	1965646	1471976289145	1471976289249	 	32
3869	41170	I doubt that it is forecasted.	I doubt that it is forecasted,	1965651	1471976289280	1471976289437	d	68
3869	41170	I doubt that it is forecasted.	I doubt that it is forecasted,	1965655	1471976289398	1471976289499	o	79
3869	41170	I doubt that it is forecasted.	I doubt that it is forecasted,	1965660	1471976289624	1471976289735	u	85
3869	41170	I doubt that it is forecasted.	I doubt that it is forecasted,	1965683	1471976289768	1471976289897	b	66
3869	41170	I doubt that it is forecasted.	I doubt that it is forecasted,	1965685	1471976289929	1471976290001	t	84
3869	41170	I doubt that it is forecasted.	I doubt that it is forecasted,	1965689	1471976290032	1471976290133	 	32
3869	41170	I doubt that it is forecasted.	I doubt that it is forecasted,	1965690	1471976290148	1471976290251	t	84
3869	41170	I doubt that it is forecasted.	I doubt that it is forecasted,	1965739	1471976290218	1471976290317	h	72
3869	41170	I doubt that it is forecasted.	I doubt that it is forecasted,	1965741	1471976290301	1471976290468	a	65
3869	41170	I doubt that it is forecasted.	I doubt that it is forecasted,	1965746	1471976290399	1471976290547	t	84
3869	41170	I doubt that it is forecasted.	I doubt that it is forecasted,	1965749	1471976290515	1471976290631	 	32
3869	41170	I doubt that it is forecasted.	I doubt that it is forecasted,	1965755	1471976290678	1471976290829	i	73
3869	41170	I doubt that it is forecasted.	I doubt that it is forecasted,	1965758	1471976291017	1471976291132	t	82
3869	41170	I doubt that it is forecasted.	I doubt that it is forecasted,	1965804	1471976291446	1471976291518	BKSP	8
3869	41170	I doubt that it is forecasted.	I doubt that it is forecasted,	1965805	1471976291596	1471976291668	BKSP	8
3869	41170	I doubt that it is forecasted.	I doubt that it is forecasted,	1965807	1471976291715	1471976291815	t	84
3869	41170	I doubt that it is forecasted.	I doubt that it is forecasted,	1965810	1471976291862	1471976291966	 	32
3869	41170	I doubt that it is forecasted.	I doubt that it is forecasted,	1965811	1471976292028	1471976292133	i	73
3869	41170	I doubt that it is forecasted.	I doubt that it is forecasted,	1965814	1471976292148	1471976292249	s	83
3869	41170	I doubt that it is forecasted.	I doubt that it is forecasted,	1965817	1471976292265	1471976292366	 	32
3869	41170	I doubt that it is forecasted.	I doubt that it is forecasted,	1965840	1471976292664	1471976292781	f	70
3869	41170	I doubt that it is forecasted.	I doubt that it is forecasted,	1965842	1471976292797	1471976292899	o	79
3869	41170	I doubt that it is forecasted.	I doubt that it is forecasted,	1965844	1471976292899	1471976293046	r	82
3869	41170	I doubt that it is forecasted.	I doubt that it is forecasted,	1965846	1471976293046	1471976293181	e	69
3869	41170	I doubt that it is forecasted.	I doubt that it is forecasted,	1965848	1471976293290	1471976293478	c	67
3869	41170	I doubt that it is forecasted.	I doubt that it is forecasted,	1965885	1471976293681	1471976293830	a	65
3869	41170	I doubt that it is forecasted.	I doubt that it is forecasted,	1965887	1471976293845	1471976293949	s	83
3869	41170	I doubt that it is forecasted.	I doubt that it is forecasted,	1965891	1471976294074	1471976294216	t	84
3869	41170	I doubt that it is forecasted.	I doubt that it is forecasted,	1965893	1471976294201	1471976294315	e	69
3869	41170	I doubt that it is forecasted.	I doubt that it is forecasted,	1965896	1471976294377	1471976294483	d	68
3869	41170	I doubt that it is forecasted.	I doubt that it is forecasted,	1965897	1471976294547	1471976294664	,	188
