PARTICIPANT_ID	TEST_SECTION_ID	SENTENCE	USER_INPUT	KEYSTROKE_ID	PRESS_TIME	RELEASE_TIME	LETTER	KEYCODE
3925	41426	Crestone won't have final measurement until next week.	Crestone won't have final measurement until next week.	1977424	1471976564348	1471976564650	SHIFT	16
3925	41426	Crestone won't have final measurement until next week.	Crestone won't have final measurement until next week.	1977423	1471976564522	1471976564626	C	67
3925	41426	Crestone won't have final measurement until next week.	Crestone won't have final measurement until next week.	1977425	1471976564834	1471976564970	r	82
3925	41426	Crestone won't have final measurement until next week.	Crestone won't have final measurement until next week.	1977426	1471976564922	1471976565082	e	69
3925	41426	Crestone won't have final measurement until next week.	Crestone won't have final measurement until next week.	1977427	1471976565410	1471976565545	s	83
3925	41426	Crestone won't have final measurement until next week.	Crestone won't have final measurement until next week.	1977428	1471976565682	1471976565794	t	84
3925	41426	Crestone won't have final measurement until next week.	Crestone won't have final measurement until next week.	1977457	1471976565797	1471976565922	o	79
3925	41426	Crestone won't have final measurement until next week.	Crestone won't have final measurement until next week.	1977460	1471976565923	1471976566033	n	78
3925	41426	Crestone won't have final measurement until next week.	Crestone won't have final measurement until next week.	1977463	1471976565994	1471976566082	e	69
3925	41426	Crestone won't have final measurement until next week.	Crestone won't have final measurement until next week.	1977465	1471976566162	1471976566274	 	32
3925	41426	Crestone won't have final measurement until next week.	Crestone won't have final measurement until next week.	1977467	1471976566401	1471976566497	w	87
3925	41426	Crestone won't have final measurement until next week.	Crestone won't have final measurement until next week.	1977511	1471976567009	1471976567121	o	79
3925	41426	Crestone won't have final measurement until next week.	Crestone won't have final measurement until next week.	1977516	1471976567209	1471976567297	n	78
3925	41426	Crestone won't have final measurement until next week.	Crestone won't have final measurement until next week.	1977520	1471976567785	1471976567929	'	222
3925	41426	Crestone won't have final measurement until next week.	Crestone won't have final measurement until next week.	1977524	1471976567884	1471976567953	t	84
3925	41426	Crestone won't have final measurement until next week.	Crestone won't have final measurement until next week.	1977529	1471976568033	1471976568161	 	32
3925	41426	Crestone won't have final measurement until next week.	Crestone won't have final measurement until next week.	1977562	1471976568345	1471976568441	h	72
3925	41426	Crestone won't have final measurement until next week.	Crestone won't have final measurement until next week.	1977564	1471976568473	1471976568585	a	65
3925	41426	Crestone won't have final measurement until next week.	Crestone won't have final measurement until next week.	1977566	1471976568681	1471976568794	v	86
3925	41426	Crestone won't have final measurement until next week.	Crestone won't have final measurement until next week.	1977570	1471976568770	1471976568897	e	69
3925	41426	Crestone won't have final measurement until next week.	Crestone won't have final measurement until next week.	1977574	1471976569010	1471976569154	 	32
3925	41426	Crestone won't have final measurement until next week.	Crestone won't have final measurement until next week.	1977633	1471976569186	1471976569289	a	65
3925	41426	Crestone won't have final measurement until next week.	Crestone won't have final measurement until next week.	1977638	1471976569658	1471976569737	BKSP	8
3925	41426	Crestone won't have final measurement until next week.	Crestone won't have final measurement until next week.	1977642	1471976569761	1471976569890	f	70
3925	41426	Crestone won't have final measurement until next week.	Crestone won't have final measurement until next week.	1977644	1471976570018	1471976570154	i	73
3925	41426	Crestone won't have final measurement until next week.	Crestone won't have final measurement until next week.	1977646	1471976570154	1471976570250	n	78
3925	41426	Crestone won't have final measurement until next week.	Crestone won't have final measurement until next week.	1977650	1471976570322	1471976570441	a	65
3925	41426	Crestone won't have final measurement until next week.	Crestone won't have final measurement until next week.	1977693	1471976570466	1471976570618	l	76
3925	41426	Crestone won't have final measurement until next week.	Crestone won't have final measurement until next week.	1977698	1471976570618	1471976570746	 	32
3925	41426	Crestone won't have final measurement until next week.	Crestone won't have final measurement until next week.	1977701	1471976570858	1471976570994	m	77
3925	41426	Crestone won't have final measurement until next week.	Crestone won't have final measurement until next week.	1977704	1471976570994	1471976571106	e	69
3925	41426	Crestone won't have final measurement until next week.	Crestone won't have final measurement until next week.	1977706	1471976571266	1471976571386	a	65
3925	41426	Crestone won't have final measurement until next week.	Crestone won't have final measurement until next week.	1977768	1471976571642	1471976571777	s	83
3925	41426	Crestone won't have final measurement until next week.	Crestone won't have final measurement until next week.	1977772	1471976571881	1471976571985	u	85
3925	41426	Crestone won't have final measurement until next week.	Crestone won't have final measurement until next week.	1977777	1471976572041	1471976572178	r	82
3925	41426	Crestone won't have final measurement until next week.	Crestone won't have final measurement until next week.	1977781	1471976572113	1471976572234	e	69
3925	41426	Crestone won't have final measurement until next week.	Crestone won't have final measurement until next week.	1977783	1471976572458	1471976572530	m	77
3925	41426	Crestone won't have final measurement until next week.	Crestone won't have final measurement until next week.	1977807	1471976572531	1471976572626	e	69
3925	41426	Crestone won't have final measurement until next week.	Crestone won't have final measurement until next week.	1977811	1471976572658	1471976572769	n	78
3925	41426	Crestone won't have final measurement until next week.	Crestone won't have final measurement until next week.	1977817	1471976572738	1471976572841	t	84
3925	41426	Crestone won't have final measurement until next week.	Crestone won't have final measurement until next week.	1977824	1471976572874	1471976572993	 	32
3925	41426	Crestone won't have final measurement until next week.	Crestone won't have final measurement until next week.	1977831	1471976573081	1471976573153	u	85
3925	41426	Crestone won't have final measurement until next week.	Crestone won't have final measurement until next week.	1977883	1471976573298	1471976573426	n	78
3925	41426	Crestone won't have final measurement until next week.	Crestone won't have final measurement until next week.	1977885	1471976573546	1471976573642	t	84
3925	41426	Crestone won't have final measurement until next week.	Crestone won't have final measurement until next week.	1977887	1471976573921	1471976574018	i	73
3925	41426	Crestone won't have final measurement until next week.	Crestone won't have final measurement until next week.	1977889	1471976574066	1471976574186	l	76
3925	41426	Crestone won't have final measurement until next week.	Crestone won't have final measurement until next week.	1977892	1471976574242	1471976574361	 	32
3925	41426	Crestone won't have final measurement until next week.	Crestone won't have final measurement until next week.	1977927	1471976574417	1471976574506	n	78
3925	41426	Crestone won't have final measurement until next week.	Crestone won't have final measurement until next week.	1977929	1471976574522	1471976574586	e	69
3925	41426	Crestone won't have final measurement until next week.	Crestone won't have final measurement until next week.	1977931	1471976574906	1471976575009	x	88
3925	41426	Crestone won't have final measurement until next week.	Crestone won't have final measurement until next week.	1977933	1471976575114	1471976575225	t	84
3925	41426	Crestone won't have final measurement until next week.	Crestone won't have final measurement until next week.	1977935	1471976575250	1471976575410	 	32
3925	41426	Crestone won't have final measurement until next week.	Crestone won't have final measurement until next week.	1977987	1471976575474	1471976575562	w	87
3925	41426	Crestone won't have final measurement until next week.	Crestone won't have final measurement until next week.	1977990	1471976575674	1471976575746	e	69
3925	41426	Crestone won't have final measurement until next week.	Crestone won't have final measurement until next week.	1977994	1471976575826	1471976575905	e	69
3925	41426	Crestone won't have final measurement until next week.	Crestone won't have final measurement until next week.	1978002	1471976575946	1471976576058	k	75
3925	41426	Crestone won't have final measurement until next week.	Crestone won't have final measurement until next week.	1978011	1471976576490	1471976576514	.	190
3925	41451	It's not looking too good is it?	It's not looking too good is it?	1978377	1471976580600	1471976581408	SHIFT	16
3925	41451	It's not looking too good is it?	It's not looking too good is it?	1978379	1471976581329	1471976581449	I	73
3925	41451	It's not looking too good is it?	It's not looking too good is it?	1978381	1471976581553	1471976581665	t	84
3925	41451	It's not looking too good is it?	It's not looking too good is it?	1978386	1471976581681	1471976581737	s	83
3925	41451	It's not looking too good is it?	It's not looking too good is it?	1978390	1471976582065	1471976582137	BKSP	8
3925	41451	It's not looking too good is it?	It's not looking too good is it?	1978393	1471976582417	1471976582553	;	186
3925	41451	It's not looking too good is it?	It's not looking too good is it?	1978397	1471976582553	1471976582632	s	83
3925	41451	It's not looking too good is it?	It's not looking too good is it?	1978500	1471976582721	1471976582849	 	32
3925	41451	It's not looking too good is it?	It's not looking too good is it?	1978503	1471976582873	1471976582985	n	78
3925	41451	It's not looking too good is it?	It's not looking too good is it?	1978505	1471976583192	1471976583241	BKSP	8
3925	41451	It's not looking too good is it?	It's not looking too good is it?	1978508	1471976583337	1471976583409	BKSP	8
3925	41451	It's not looking too good is it?	It's not looking too good is it?	1978510	1471976583489	1471976583561	BKSP	8
3925	41451	It's not looking too good is it?	It's not looking too good is it?	1978513	1471976583641	1471976583736	BKSP	8
3925	41451	It's not looking too good is it?	It's not looking too good is it?	1978515	1471976584257	1471976584337	'	222
3925	41451	It's not looking too good is it?	It's not looking too good is it?	1978518	1471976584353	1471976584449	s	83
3925	41451	It's not looking too good is it?	It's not looking too good is it?	1978527	1471976584560	1471976584697	 	32
3925	41451	It's not looking too good is it?	It's not looking too good is it?	1978560	1471976584753	1471976584880	n	78
3925	41451	It's not looking too good is it?	It's not looking too good is it?	1978561	1471976584881	1471976585032	o	79
3925	41451	It's not looking too good is it?	It's not looking too good is it?	1978563	1471976585080	1471976585169	t	84
3925	41451	It's not looking too good is it?	It's not looking too good is it?	1978565	1471976585224	1471976585360	 	32
3925	41451	It's not looking too good is it?	It's not looking too good is it?	1978568	1471976585617	1471976585752	k	75
3925	41451	It's not looking too good is it?	It's not looking too good is it?	1978686	1471976585881	1471976585985	o	79
3925	41451	It's not looking too good is it?	It's not looking too good is it?	1978688	1471976586096	1471976586185	k	75
3925	41451	It's not looking too good is it?	It's not looking too good is it?	1978691	1471976586424	1471976586489	BKSP	8
3925	41451	It's not looking too good is it?	It's not looking too good is it?	1978693	1471976586569	1471976586632	BKSP	8
3925	41451	It's not looking too good is it?	It's not looking too good is it?	1978695	1471976586697	1471976586777	BKSP	8
3925	41451	It's not looking too good is it?	It's not looking too good is it?	1978698	1471976586968	1471976587064	l	76
3925	41451	It's not looking too good is it?	It's not looking too good is it?	1978701	1471976587424	1471976587545	i	73
3925	41451	It's not looking too good is it?	It's not looking too good is it?	1978704	1471976587849	1471976587944	BKSP	8
3925	41451	It's not looking too good is it?	It's not looking too good is it?	1978708	1471976588072	1471976588185	o	79
3925	41451	It's not looking too good is it?	It's not looking too good is it?	1978742	1471976588481	1471976588569	o	79
3925	41451	It's not looking too good is it?	It's not looking too good is it?	1978746	1471976588672	1471976588761	k	75
3925	41451	It's not looking too good is it?	It's not looking too good is it?	1978750	1471976588849	1471976588985	i	73
3925	41451	It's not looking too good is it?	It's not looking too good is it?	1978752	1471976588945	1471976589105	n	78
3925	41451	It's not looking too good is it?	It's not looking too good is it?	1978753	1471976589105	1471976589185	g	71
3925	41451	It's not looking too good is it?	It's not looking too good is it?	1978786	1471976589217	1471976589353	 	32
3925	41451	It's not looking too good is it?	It's not looking too good is it?	1978788	1471976589498	1471976589593	t	84
3925	41451	It's not looking too good is it?	It's not looking too good is it?	1978793	1471976589689	1471976589744	o	79
3925	41451	It's not looking too good is it?	It's not looking too good is it?	1978795	1471976589833	1471976589945	o	79
3925	41451	It's not looking too good is it?	It's not looking too good is it?	1978797	1471976589985	1471976590113	 	32
3925	41451	It's not looking too good is it?	It's not looking too good is it?	1978842	1471976590201	1471976590289	g	71
3925	41451	It's not looking too good is it?	It's not looking too good is it?	1978843	1471976590313	1471976590368	o	79
3925	41451	It's not looking too good is it?	It's not looking too good is it?	1978845	1471976590457	1471976590568	o	79
3925	41451	It's not looking too good is it?	It's not looking too good is it?	1978847	1471976590657	1471976590729	d	68
3925	41451	It's not looking too good is it?	It's not looking too good is it?	1978850	1471976590777	1471976590937	 	32
3925	41451	It's not looking too good is it?	It's not looking too good is it?	1978910	1471976590929	1471976591033	i	73
3925	41451	It's not looking too good is it?	It's not looking too good is it?	1978914	1471976591034	1471976591137	s	83
3925	41451	It's not looking too good is it?	It's not looking too good is it?	1978919	1471976591345	1471976591489	 	32
3925	41451	It's not looking too good is it?	It's not looking too good is it?	1978924	1471976591624	1471976591777	i	73
3925	41451	It's not looking too good is it?	It's not looking too good is it?	1978927	1471976591833	1471976591961	t	84
3925	41451	It's not looking too good is it?	It's not looking too good is it?	1979037	1471976592217	1471976592553	SHIFT	16
3925	41451	It's not looking too good is it?	It's not looking too good is it?	1978930	1471976592401	1471976592481	"	222
3925	41451	It's not looking too good is it?	It's not looking too good is it?	1979041	1471976593736	1471976593800	BKSP	8
3925	41451	It's not looking too good is it?	It's not looking too good is it?	1979047	1471976593888	1471976594193	SHIFT	16
3925	41451	It's not looking too good is it?	It's not looking too good is it?	1979053	1471976594321	1471976594736	SHIFT	16
3925	41451	It's not looking too good is it?	It's not looking too good is it?	1979050	1471976594588	1471976594624	?	191
3925	41470	There are differing views among the dissident community.	There are differing views among the dissident community.	1979252	1471976596993	1471976597801	SHIFT	16
3925	41470	There are differing views among the dissident community.	There are differing views among the dissident community.	1979255	1471976597680	1471976597801	T	84
3925	41470	There are differing views among the dissident community.	There are differing views among the dissident community.	1979261	1471976597873	1471976597977	h	72
3925	41470	There are differing views among the dissident community.	There are differing views among the dissident community.	1979266	1471976597977	1471976598089	e	69
3925	41470	There are differing views among the dissident community.	There are differing views among the dissident community.	1979271	1471976598233	1471976598360	r	82
3925	41470	There are differing views among the dissident community.	There are differing views among the dissident community.	1979323	1471976598305	1471976598464	e	69
3925	41470	There are differing views among the dissident community.	There are differing views among the dissident community.	1979325	1471976598617	1471976598768	 	32
3925	41470	There are differing views among the dissident community.	There are differing views among the dissident community.	1979329	1471976598737	1471976598872	a	65
3925	41470	There are differing views among the dissident community.	There are differing views among the dissident community.	1979333	1471976598968	1471976599064	r	82
3925	41470	There are differing views among the dissident community.	There are differing views among the dissident community.	1979338	1471976599033	1471976599185	e	69
3925	41470	There are differing views among the dissident community.	There are differing views among the dissident community.	1979343	1471976599217	1471976599368	 	32
3925	41470	There are differing views among the dissident community.	There are differing views among the dissident community.	1979401	1471976599673	1471976599761	d	68
3925	41470	There are differing views among the dissident community.	There are differing views among the dissident community.	1979406	1471976599808	1471976599936	i	73
3925	41470	There are differing views among the dissident community.	There are differing views among the dissident community.	1979409	1471976600001	1471976600065	f	70
3925	41470	There are differing views among the dissident community.	There are differing views among the dissident community.	1979414	1471976600145	1471976600249	f	70
3925	41470	There are differing views among the dissident community.	There are differing views among the dissident community.	1979421	1471976600313	1471976600432	e	69
3925	41470	There are differing views among the dissident community.	There are differing views among the dissident community.	1979482	1471976600905	1471976601008	r	82
3925	41470	There are differing views among the dissident community.	There are differing views among the dissident community.	1979486	1471976601072	1471976601209	i	73
3925	41470	There are differing views among the dissident community.	There are differing views among the dissident community.	1979488	1471976601177	1471976601304	n	78
3925	41470	There are differing views among the dissident community.	There are differing views among the dissident community.	1979494	1471976601305	1471976601433	g	71
3925	41470	There are differing views among the dissident community.	There are differing views among the dissident community.	1979496	1471976601433	1471976601569	 	32
3925	41470	There are differing views among the dissident community.	There are differing views among the dissident community.	1979565	1471976601768	1471976601888	v	86
3925	41470	There are differing views among the dissident community.	There are differing views among the dissident community.	1979569	1471976601888	1471976602048	i	73
3925	41470	There are differing views among the dissident community.	There are differing views among the dissident community.	1979574	1471976602009	1471976602145	e	69
3925	41470	There are differing views among the dissident community.	There are differing views among the dissident community.	1979579	1471976602129	1471976602201	s	83
3925	41470	There are differing views among the dissident community.	There are differing views among the dissident community.	1979585	1471976602696	1471976602793	w	87
3925	41470	There are differing views among the dissident community.	There are differing views among the dissident community.	1979761	1471976602913	1471976602977	BKSP	8
3925	41470	There are differing views among the dissident community.	There are differing views among the dissident community.	1979764	1471976603072	1471976603120	BKSP	8
3925	41470	There are differing views among the dissident community.	There are differing views among the dissident community.	1979768	1471976603217	1471976603264	BKSP	8
3925	41470	There are differing views among the dissident community.	There are differing views among the dissident community.	1979771	1471976603832	1471976603921	e	69
3925	41470	There are differing views among the dissident community.	There are differing views among the dissident community.	1979775	1471976604169	1471976604281	w	87
3925	41470	There are differing views among the dissident community.	There are differing views among the dissident community.	1979779	1471976604433	1471976604576	s	83
3925	41470	There are differing views among the dissident community.	There are differing views among the dissident community.	1979781	1471976604760	1471976604897	 	32
3925	41470	There are differing views among the dissident community.	There are differing views among the dissident community.	1979783	1471976605113	1471976605225	a	65
3925	41470	There are differing views among the dissident community.	There are differing views among the dissident community.	1979914	1471976606153	1471976606312	m	77
3925	41470	There are differing views among the dissident community.	There are differing views among the dissident community.	1979918	1471976606313	1471976606433	o	79
3925	41470	There are differing views among the dissident community.	There are differing views among the dissident community.	1979923	1471976606433	1471976606552	n	78
3925	41470	There are differing views among the dissident community.	There are differing views among the dissident community.	1979929	1471976607017	1471976607192	g	71
3925	41470	There are differing views among the dissident community.	There are differing views among the dissident community.	1979937	1471976607288	1471976607369	 	32
3925	41470	There are differing views among the dissident community.	There are differing views among the dissident community.	1980008	1471976607513	1471976607625	h	72
3925	41470	There are differing views among the dissident community.	There are differing views among the dissident community.	1980015	1471976607569	1471976607745	t	84
3925	41470	There are differing views among the dissident community.	There are differing views among the dissident community.	1980019	1471976608272	1471976608336	BKSP	8
3925	41470	There are differing views among the dissident community.	There are differing views among the dissident community.	1980026	1471976608409	1471976608505	BKSP	8
3925	41470	There are differing views among the dissident community.	There are differing views among the dissident community.	1980032	1471976608505	1471976608617	t	84
3925	41470	There are differing views among the dissident community.	There are differing views among the dissident community.	1980038	1471976608649	1471976608760	h	72
3925	41470	There are differing views among the dissident community.	There are differing views among the dissident community.	1980074	1471976608736	1471976608825	e	69
3925	41470	There are differing views among the dissident community.	There are differing views among the dissident community.	1980079	1471976608825	1471976608944	 	32
3925	41470	There are differing views among the dissident community.	There are differing views among the dissident community.	1980085	1471976609096	1471976609192	d	68
3925	41470	There are differing views among the dissident community.	There are differing views among the dissident community.	1980095	1471976609192	1471976609313	i	73
3925	41470	There are differing views among the dissident community.	There are differing views among the dissident community.	1980101	1471976609337	1471976609432	s	83
3925	41470	There are differing views among the dissident community.	There are differing views among the dissident community.	1980109	1471976609513	1471976609625	s	83
3925	41470	There are differing views among the dissident community.	There are differing views among the dissident community.	1980185	1471976610017	1471976610137	i	73
3925	41470	There are differing views among the dissident community.	There are differing views among the dissident community.	1980188	1471976610304	1471976610368	d	68
3925	41470	There are differing views among the dissident community.	There are differing views among the dissident community.	1980192	1471976610656	1471976610728	e	69
3925	41470	There are differing views among the dissident community.	There are differing views among the dissident community.	1980196	1471976610800	1471976610937	n	78
3925	41470	There are differing views among the dissident community.	There are differing views among the dissident community.	1980221	1471976610912	1471976611000	t	84
3925	41470	There are differing views among the dissident community.	There are differing views among the dissident community.	1980223	1471976611089	1471976611193	 	32
3925	41470	There are differing views among the dissident community.	There are differing views among the dissident community.	1980228	1471976611337	1471976611464	c	67
3925	41470	There are differing views among the dissident community.	There are differing views among the dissident community.	1980232	1471976611465	1471976611584	o	79
3925	41470	There are differing views among the dissident community.	There are differing views among the dissident community.	1980238	1471976611761	1471976611873	m	77
3925	41470	There are differing views among the dissident community.	There are differing views among the dissident community.	1980244	1471976611992	1471976612081	m	77
3925	41470	There are differing views among the dissident community.	There are differing views among the dissident community.	1980343	1471976612136	1471976612184	m	77
3925	41470	There are differing views among the dissident community.	There are differing views among the dissident community.	1980346	1471976612529	1471976612592	u	85
3925	41470	There are differing views among the dissident community.	There are differing views among the dissident community.	1980350	1471976613025	1471976613088	BKSP	8
3925	41470	There are differing views among the dissident community.	There are differing views among the dissident community.	1980355	1471976613169	1471976613265	BKSP	8
3925	41470	There are differing views among the dissident community.	There are differing views among the dissident community.	1980361	1471976613553	1471976613665	u	85
3925	41470	There are differing views among the dissident community.	There are differing views among the dissident community.	1980366	1471976613800	1471976613920	n	78
3925	41470	There are differing views among the dissident community.	There are differing views among the dissident community.	1980424	1471976613904	1471976614049	i	73
3925	41470	There are differing views among the dissident community.	There are differing views among the dissident community.	1980428	1471976614097	1471976614185	t	84
3925	41470	There are differing views among the dissident community.	There are differing views among the dissident community.	1980434	1471976614208	1471976614297	y	89
3925	41470	There are differing views among the dissident community.	There are differing views among the dissident community.	1980440	1471976615073	1471976615120	.	190
3925	41497	The buses will be identified by their cities of origin.	The buses will be identified by their cities of origin.	1980861	1471976620297	1471976620536	SHIFT	16
3925	41497	The buses will be identified by their cities of origin.	The buses will be identified by their cities of origin.	1980864	1471976620408	1471976620537	T	84
3925	41497	The buses will be identified by their cities of origin.	The buses will be identified by their cities of origin.	1980869	1471976620849	1471976620977	h	72
3925	41497	The buses will be identified by their cities of origin.	The buses will be identified by their cities of origin.	1980875	1471976620937	1471976621072	e	69
3925	41497	The buses will be identified by their cities of origin.	The buses will be identified by their cities of origin.	1980880	1471976621073	1471976621201	 	32
3925	41497	The buses will be identified by their cities of origin.	The buses will be identified by their cities of origin.	1980882	1471976621649	1471976621736	b	66
3925	41497	The buses will be identified by their cities of origin.	The buses will be identified by their cities of origin.	1981014	1471976622104	1471976622185	BKSP	8
3925	41497	The buses will be identified by their cities of origin.	The buses will be identified by their cities of origin.	1981017	1471976622497	1471976622601	b	66
3925	41497	The buses will be identified by their cities of origin.	The buses will be identified by their cities of origin.	1981021	1471976622673	1471976622785	u	85
3925	41497	The buses will be identified by their cities of origin.	The buses will be identified by their cities of origin.	1981029	1471976622825	1471976622929	s	83
3925	41497	The buses will be identified by their cities of origin.	The buses will be identified by their cities of origin.	1981034	1471976623664	1471976623800	e	69
3925	41497	The buses will be identified by their cities of origin.	The buses will be identified by their cities of origin.	1981077	1471976623769	1471976623897	s	83
3925	41497	The buses will be identified by their cities of origin.	The buses will be identified by their cities of origin.	1981081	1471976624040	1471976624209	 	32
3925	41497	The buses will be identified by their cities of origin.	The buses will be identified by their cities of origin.	1981086	1471976624369	1471976624497	w	87
3925	41497	The buses will be identified by their cities of origin.	The buses will be identified by their cities of origin.	1981091	1471976624529	1471976624633	i	73
3925	41497	The buses will be identified by their cities of origin.	The buses will be identified by their cities of origin.	1981095	1471976624713	1471976624785	l	76
3925	41497	The buses will be identified by their cities of origin.	The buses will be identified by their cities of origin.	1981099	1471976624825	1471976624936	l	76
3925	41497	The buses will be identified by their cities of origin.	The buses will be identified by their cities of origin.	1981132	1471976624992	1471976625088	 	32
3925	41497	The buses will be identified by their cities of origin.	The buses will be identified by their cities of origin.	1981134	1471976625417	1471976625561	b	66
3925	41497	The buses will be identified by their cities of origin.	The buses will be identified by their cities of origin.	1981136	1471976625529	1471976625673	e	69
3925	41497	The buses will be identified by their cities of origin.	The buses will be identified by their cities of origin.	1981139	1471976625745	1471976625857	 	32
3925	41497	The buses will be identified by their cities of origin.	The buses will be identified by their cities of origin.	1981142	1471976625953	1471976626033	i	73
3925	41497	The buses will be identified by their cities of origin.	The buses will be identified by their cities of origin.	1981192	1471976626312	1471976626408	d	68
3925	41497	The buses will be identified by their cities of origin.	The buses will be identified by their cities of origin.	1981199	1471976626512	1471976626616	e	69
3925	41497	The buses will be identified by their cities of origin.	The buses will be identified by their cities of origin.	1981205	1471976626665	1471976626776	n	78
3925	41497	The buses will be identified by their cities of origin.	The buses will be identified by their cities of origin.	1981212	1471976626752	1471976626841	t	84
3925	41497	The buses will be identified by their cities of origin.	The buses will be identified by their cities of origin.	1981216	1471976626953	1471976627104	i	73
3925	41497	The buses will be identified by their cities of origin.	The buses will be identified by their cities of origin.	1981248	1471976627217	1471976627328	f	70
3925	41497	The buses will be identified by their cities of origin.	The buses will be identified by their cities of origin.	1981254	1471976627344	1471976627480	i	73
3925	41497	The buses will be identified by their cities of origin.	The buses will be identified by their cities of origin.	1981261	1471976627424	1471976627545	e	69
3925	41497	The buses will be identified by their cities of origin.	The buses will be identified by their cities of origin.	1981268	1471976627657	1471976627760	d	68
3925	41497	The buses will be identified by their cities of origin.	The buses will be identified by their cities of origin.	1981277	1471976627785	1471976627928	 	32
3925	41497	The buses will be identified by their cities of origin.	The buses will be identified by their cities of origin.	1981334	1471976628009	1471976628096	b	66
3925	41497	The buses will be identified by their cities of origin.	The buses will be identified by their cities of origin.	1981339	1471976628145	1471976628249	y	89
3925	41497	The buses will be identified by their cities of origin.	The buses will be identified by their cities of origin.	1981343	1471976628273	1471976628401	 	32
3925	41497	The buses will be identified by their cities of origin.	The buses will be identified by their cities of origin.	1981346	1471976628481	1471976628593	t	84
3925	41497	The buses will be identified by their cities of origin.	The buses will be identified by their cities of origin.	1981349	1471976628625	1471976628680	h	72
3925	41497	The buses will be identified by their cities of origin.	The buses will be identified by their cities of origin.	1981410	1471976628969	1471976629048	e	69
3925	41497	The buses will be identified by their cities of origin.	The buses will be identified by their cities of origin.	1981415	1471976629145	1471976629256	i	73
3925	41497	The buses will be identified by their cities of origin.	The buses will be identified by their cities of origin.	1981418	1471976629328	1471976629425	r	82
3925	41497	The buses will be identified by their cities of origin.	The buses will be identified by their cities of origin.	1981421	1471976629520	1471976629632	 	32
3925	41497	The buses will be identified by their cities of origin.	The buses will be identified by their cities of origin.	1981425	1471976629985	1471976630088	c	67
3925	41497	The buses will be identified by their cities of origin.	The buses will be identified by their cities of origin.	1981508	1471976630153	1471976630272	i	73
3925	41497	The buses will be identified by their cities of origin.	The buses will be identified by their cities of origin.	1981511	1471976630481	1471976630601	t	84
3925	41497	The buses will be identified by their cities of origin.	The buses will be identified by their cities of origin.	1981515	1471976630704	1471976630849	i	73
3925	41497	The buses will be identified by their cities of origin.	The buses will be identified by their cities of origin.	1981517	1471976630849	1471976630944	e	69
3925	41497	The buses will be identified by their cities of origin.	The buses will be identified by their cities of origin.	1981520	1471976630993	1471976631112	s	83
3925	41497	The buses will be identified by their cities of origin.	The buses will be identified by their cities of origin.	1981561	1471976631192	1471976631304	 	32
3925	41497	The buses will be identified by their cities of origin.	The buses will be identified by their cities of origin.	1981565	1471976631369	1471976631536	o	79
3925	41497	The buses will be identified by their cities of origin.	The buses will be identified by their cities of origin.	1981570	1471976631488	1471976631584	f	70
3925	41497	The buses will be identified by their cities of origin.	The buses will be identified by their cities of origin.	1981577	1471976631600	1471976631736	 	32
3925	41497	The buses will be identified by their cities of origin.	The buses will be identified by their cities of origin.	1981580	1471976631872	1471976631992	o	79
3925	41497	The buses will be identified by their cities of origin.	The buses will be identified by their cities of origin.	1981646	1471976632032	1471976632120	r	82
3925	41497	The buses will be identified by their cities of origin.	The buses will be identified by their cities of origin.	1981652	1471976632209	1471976632296	i	73
3925	41497	The buses will be identified by their cities of origin.	The buses will be identified by their cities of origin.	1981659	1471976632368	1471976632465	g	71
3925	41497	The buses will be identified by their cities of origin.	The buses will be identified by their cities of origin.	1981663	1471976632728	1471976632872	i	73
3925	41497	The buses will be identified by their cities of origin.	The buses will be identified by their cities of origin.	1981667	1471976632984	1471976633152	i	73
3925	41497	The buses will be identified by their cities of origin.	The buses will be identified by their cities of origin.	1981774	1471976633417	1471976633537	BKSP	8
3925	41497	The buses will be identified by their cities of origin.	The buses will be identified by their cities of origin.	1981782	1471976633537	1471976633648	n	78
3925	41497	The buses will be identified by their cities of origin.	The buses will be identified by their cities of origin.	1981790	1471976634576	1471976634657	.	190
3925	41518	He played goalie almost the entire game.	He played goaline ablomes the entire game.	1981973	1471976636641	1471976636888	SHIFT	16
3925	41518	He played goalie almost the entire game.	He played goaline ablomes the entire game.	1981976	1471976636808	1471976636920	H	72
3925	41518	He played goalie almost the entire game.	He played goaline ablomes the entire game.	1981979	1471976636985	1471976637088	e	69
3925	41518	He played goalie almost the entire game.	He played goaline ablomes the entire game.	1981981	1471976637184	1471976637336	 	32
3925	41518	He played goalie almost the entire game.	He played goaline ablomes the entire game.	1981982	1471976637440	1471976637521	p	80
3925	41518	He played goalie almost the entire game.	He played goaline ablomes the entire game.	1981985	1471976637633	1471976637720	l	76
3925	41518	He played goalie almost the entire game.	He played goaline ablomes the entire game.	1982058	1471976637760	1471976637864	a	65
3925	41518	He played goalie almost the entire game.	He played goaline ablomes the entire game.	1982060	1471976637953	1471976638064	y	89
3925	41518	He played goalie almost the entire game.	He played goaline ablomes the entire game.	1982062	1471976638785	1471976638888	e	69
3925	41518	He played goalie almost the entire game.	He played goaline ablomes the entire game.	1982064	1471976639015	1471976639119	d	68
3925	41518	He played goalie almost the entire game.	He played goaline ablomes the entire game.	1982067	1471976639152	1471976639311	 	32
3925	41518	He played goalie almost the entire game.	He played goaline ablomes the entire game.	1982238	1471976639576	1471976639647	g	71
3925	41518	He played goalie almost the entire game.	He played goaline ablomes the entire game.	1982242	1471976639727	1471976639863	a	65
3925	41518	He played goalie almost the entire game.	He played goaline ablomes the entire game.	1982246	1471976639991	1471976640087	o	79
3925	41518	He played goalie almost the entire game.	He played goaline ablomes the entire game.	1982249	1471976640488	1471976640559	BKSP	8
3925	41518	He played goalie almost the entire game.	He played goaline ablomes the entire game.	1982255	1471976640751	1471976640871	l	76
3925	41518	He played goalie almost the entire game.	He played goaline ablomes the entire game.	1982259	1471976641319	1471976641431	BKSP	8
3925	41518	He played goalie almost the entire game.	He played goaline ablomes the entire game.	1982264	1471976641672	1471976641767	BKSP	8
3925	41518	He played goalie almost the entire game.	He played goaline ablomes the entire game.	1982267	1471976641959	1471976642071	o	79
3925	41518	He played goalie almost the entire game.	He played goaline ablomes the entire game.	1982306	1471976642055	1471976642167	a	65
3925	41518	He played goalie almost the entire game.	He played goaline ablomes the entire game.	1982310	1471976642255	1471976642367	l	76
3925	41518	He played goalie almost the entire game.	He played goaline ablomes the entire game.	1982315	1471976642495	1471976642632	i	73
3925	41518	He played goalie almost the entire game.	He played goaline ablomes the entire game.	1982317	1471976642632	1471976642759	n	78
3925	41518	He played goalie almost the entire game.	He played goaline ablomes the entire game.	1982319	1471976642896	1471976642983	e	69
3925	41518	He played goalie almost the entire game.	He played goaline ablomes the entire game.	1982322	1471976643048	1471976643199	 	32
3925	41518	He played goalie almost the entire game.	He played goaline ablomes the entire game.	1982401	1471976643648	1471976643775	a	65
3925	41518	He played goalie almost the entire game.	He played goaline ablomes the entire game.	1982405	1471976643887	1471976643975	b	66
3925	41518	He played goalie almost the entire game.	He played goaline ablomes the entire game.	1982408	1471976644008	1471976644103	l	76
3925	41518	He played goalie almost the entire game.	He played goaline ablomes the entire game.	1982412	1471976644271	1471976644423	o	79
3925	41518	He played goalie almost the entire game.	He played goaline ablomes the entire game.	1982416	1471976644463	1471976644600	m	77
3925	41518	He played goalie almost the entire game.	He played goaline ablomes the entire game.	1982493	1471976645103	1471976645279	e	69
3925	41518	He played goalie almost the entire game.	He played goaline ablomes the entire game.	1982497	1471976645199	1471976645359	s	83
3925	41518	He played goalie almost the entire game.	He played goaline ablomes the entire game.	1982500	1471976645624	1471976645751	 	32
3925	41518	He played goalie almost the entire game.	He played goaline ablomes the entire game.	1982502	1471976645976	1471976646095	t	84
3925	41518	He played goalie almost the entire game.	He played goaline ablomes the entire game.	1982585	1471976646047	1471976646167	h	72
3925	41518	He played goalie almost the entire game.	He played goaline ablomes the entire game.	1982593	1471976646167	1471976646248	e	69
3925	41518	He played goalie almost the entire game.	He played goaline ablomes the entire game.	1982599	1471976646255	1471976646391	 	32
3925	41518	He played goalie almost the entire game.	He played goaline ablomes the entire game.	1982608	1471976646992	1471976647087	e	69
3925	41518	He played goalie almost the entire game.	He played goaline ablomes the entire game.	1982611	1471976647136	1471976647279	n	78
3925	41518	He played goalie almost the entire game.	He played goaline ablomes the entire game.	1982614	1471976647344	1471976647447	t	84
3925	41518	He played goalie almost the entire game.	He played goaline ablomes the entire game.	1982657	1471976647480	1471976647639	i	73
3925	41518	He played goalie almost the entire game.	He played goaline ablomes the entire game.	1982660	1471976647631	1471976647775	r	82
3925	41518	He played goalie almost the entire game.	He played goaline ablomes the entire game.	1982663	1471976647719	1471976647863	e	69
3925	41518	He played goalie almost the entire game.	He played goaline ablomes the entire game.	1982667	1471976647920	1471976648055	 	32
3925	41518	He played goalie almost the entire game.	He played goaline ablomes the entire game.	1982671	1471976648303	1471976648463	g	71
3925	41518	He played goalie almost the entire game.	He played goaline ablomes the entire game.	1982769	1471976648400	1471976648559	a	65
3925	41518	He played goalie almost the entire game.	He played goaline ablomes the entire game.	1982775	1471976648679	1471976648832	m	77
3925	41518	He played goalie almost the entire game.	He played goaline ablomes the entire game.	1982779	1471976648800	1471976648911	e	69
3925	41518	He played goalie almost the entire game.	He played goaline ablomes the entire game.	1982783	1471976649720	1471976649783	.	190
3925	41541	I vote for the latter.	I vote for the latter.	1982956	1471976652079	1471976652335	SHIFT	16
3925	41541	I vote for the latter.	I vote for the latter.	1982960	1471976652240	1471976652375	I	73
3925	41541	I vote for the latter.	I vote for the latter.	1982965	1471976652415	1471976652559	 	32
3925	41541	I vote for the latter.	I vote for the latter.	1982968	1471976652703	1471976652823	v	86
3925	41541	I vote for the latter.	I vote for the latter.	1982970	1471976652824	1471976652944	o	79
3925	41541	I vote for the latter.	I vote for the latter.	1982971	1471976653079	1471976653231	t	84
3925	41541	I vote for the latter.	I vote for the latter.	1983030	1471976653216	1471976653351	e	69
3925	41541	I vote for the latter.	I vote for the latter.	1983035	1471976653511	1471976653663	 	32
3925	41541	I vote for the latter.	I vote for the latter.	1983038	1471976654095	1471976654200	f	70
3925	41541	I vote for the latter.	I vote for the latter.	1983042	1471976654216	1471976654359	o	79
3925	41541	I vote for the latter.	I vote for the latter.	1983046	1471976654416	1471976654535	 	32
3925	41541	I vote for the latter.	I vote for the latter.	1983050	1471976654671	1471976654751	t	84
3925	41541	I vote for the latter.	I vote for the latter.	1983126	1471976654752	1471976654856	h	72
3925	41541	I vote for the latter.	I vote for the latter.	1983127	1471976655303	1471976655367	BKSP	8
3925	41541	I vote for the latter.	I vote for the latter.	1983128	1471976655456	1471976655519	BKSP	8
3925	41541	I vote for the latter.	I vote for the latter.	1983130	1471976655600	1471976655704	BKSP	8
3925	41541	I vote for the latter.	I vote for the latter.	1983133	1471976655831	1471976655935	r	82
3925	41541	I vote for the latter.	I vote for the latter.	1983138	1471976655991	1471976656119	 	32
3925	41541	I vote for the latter.	I vote for the latter.	1983142	1471976656264	1471976656351	t	84
3925	41541	I vote for the latter.	I vote for the latter.	1983146	1471976656352	1471976656471	h	72
3925	41541	I vote for the latter.	I vote for the latter.	1983185	1471976656431	1471976656536	e	69
3925	41541	I vote for the latter.	I vote for the latter.	1983187	1471976656544	1471976656679	 	32
3925	41541	I vote for the latter.	I vote for the latter.	1983188	1471976656776	1471976656920	l	76
3925	41541	I vote for the latter.	I vote for the latter.	1983189	1471976656839	1471976656983	a	65
3925	41541	I vote for the latter.	I vote for the latter.	1983190	1471976657127	1471976657183	t	84
3925	41541	I vote for the latter.	I vote for the latter.	1983191	1471976657287	1471976657407	t	84
3925	41541	I vote for the latter.	I vote for the latter.	1983249	1471976657464	1471976657615	e	69
3925	41541	I vote for the latter.	I vote for the latter.	1983253	1471976657616	1471976657727	r	82
3925	41541	I vote for the latter.	I vote for the latter.	1983256	1471976658111	1471976658159	.	190
3925	41550	We have lots of paper stuff.	We have lots of paper stuff.	1983464	1471976660592	1471976660871	SHIFT	16
3925	41550	We have lots of paper stuff.	We have lots of paper stuff.	1983470	1471976660759	1471976660872	W	87
3925	41550	We have lots of paper stuff.	We have lots of paper stuff.	1983473	1471976661031	1471976661111	e	69
3925	41550	We have lots of paper stuff.	We have lots of paper stuff.	1983475	1471976661184	1471976661263	 	32
3925	41550	We have lots of paper stuff.	We have lots of paper stuff.	1983477	1471976661359	1471976661480	h	72
3925	41550	We have lots of paper stuff.	We have lots of paper stuff.	1983518	1471976661432	1471976661527	a	65
3925	41550	We have lots of paper stuff.	We have lots of paper stuff.	1983520	1471976661632	1471976661783	v	86
3925	41550	We have lots of paper stuff.	We have lots of paper stuff.	1983523	1471976661768	1471976661927	e	69
3925	41550	We have lots of paper stuff.	We have lots of paper stuff.	1983525	1471976662127	1471976662239	 	32
3925	41550	We have lots of paper stuff.	We have lots of paper stuff.	1983528	1471976662271	1471976662359	l	76
3925	41550	We have lots of paper stuff.	We have lots of paper stuff.	1983530	1471976662488	1471976662623	o	79
3925	41550	We have lots of paper stuff.	We have lots of paper stuff.	1983561	1471976662599	1471976662751	t	84
3925	41550	We have lots of paper stuff.	We have lots of paper stuff.	1983564	1471976662703	1471976662855	s	83
3925	41550	We have lots of paper stuff.	We have lots of paper stuff.	1983567	1471976662936	1471976663039	 	32
3925	41550	We have lots of paper stuff.	We have lots of paper stuff.	1983570	1471976663071	1471976663199	o	79
3925	41550	We have lots of paper stuff.	We have lots of paper stuff.	1983573	1471976663167	1471976663279	f	70
3925	41550	We have lots of paper stuff.	We have lots of paper stuff.	1983575	1471976663280	1471976663399	 	32
3925	41550	We have lots of paper stuff.	We have lots of paper stuff.	1983634	1471976663495	1471976663639	p	80
3925	41550	We have lots of paper stuff.	We have lots of paper stuff.	1983636	1471976663584	1471976663679	a	65
3925	41550	We have lots of paper stuff.	We have lots of paper stuff.	1983638	1471976664431	1471976664567	p	80
3925	41550	We have lots of paper stuff.	We have lots of paper stuff.	1983640	1471976664583	1471976664679	e	69
3925	41550	We have lots of paper stuff.	We have lots of paper stuff.	1983642	1471976664792	1471976664895	r	82
3925	41550	We have lots of paper stuff.	We have lots of paper stuff.	1983663	1471976664959	1471976665063	 	32
3925	41550	We have lots of paper stuff.	We have lots of paper stuff.	1983667	1471976665207	1471976665335	s	83
3925	41550	We have lots of paper stuff.	We have lots of paper stuff.	1983672	1471976665431	1471976665527	t	84
3925	41550	We have lots of paper stuff.	We have lots of paper stuff.	1983676	1471976665591	1471976665687	u	85
3925	41550	We have lots of paper stuff.	We have lots of paper stuff.	1983678	1471976665887	1471976665999	f	70
3925	41550	We have lots of paper stuff.	We have lots of paper stuff.	1983724	1471976666063	1471976666159	f	70
3925	41550	We have lots of paper stuff.	We have lots of paper stuff.	1983726	1471976666720	1471976666791	.	190
3925	41563	I was a bit rusty but I didn't want to miss the elections back home.	I was a bit rusty but i didn't want to miss the elections back home.	1983838	1471976668536	1471976668719	SHIFT	16
3925	41563	I was a bit rusty but I didn't want to miss the elections back home.	I was a bit rusty but i didn't want to miss the elections back home.	1983841	1471976668632	1471976668767	I	73
3925	41563	I was a bit rusty but I didn't want to miss the elections back home.	I was a bit rusty but i didn't want to miss the elections back home.	1983844	1471976668767	1471976668895	 	32
3925	41563	I was a bit rusty but I didn't want to miss the elections back home.	I was a bit rusty but i didn't want to miss the elections back home.	1983849	1471976668951	1471976669119	w	87
3925	41563	I was a bit rusty but I didn't want to miss the elections back home.	I was a bit rusty but i didn't want to miss the elections back home.	1983855	1471976669111	1471976669232	a	65
3925	41563	I was a bit rusty but I didn't want to miss the elections back home.	I was a bit rusty but i didn't want to miss the elections back home.	1983862	1471976669375	1471976669487	s	83
3925	41563	I was a bit rusty but I didn't want to miss the elections back home.	I was a bit rusty but i didn't want to miss the elections back home.	1983959	1471976669543	1471976669679	 	32
3925	41563	I was a bit rusty but I didn't want to miss the elections back home.	I was a bit rusty but i didn't want to miss the elections back home.	1983963	1471976669695	1471976669839	i	73
3925	41563	I was a bit rusty but I didn't want to miss the elections back home.	I was a bit rusty but i didn't want to miss the elections back home.	1983968	1471976669872	1471976669983	n	78
3925	41563	I was a bit rusty but I didn't want to miss the elections back home.	I was a bit rusty but i didn't want to miss the elections back home.	1983970	1471976670255	1471976670319	BKSP	8
3925	41563	I was a bit rusty but I didn't want to miss the elections back home.	I was a bit rusty but i didn't want to miss the elections back home.	1983972	1471976670399	1471976670463	BKSP	8
3925	41563	I was a bit rusty but I didn't want to miss the elections back home.	I was a bit rusty but i didn't want to miss the elections back home.	1983974	1471976670639	1471976670743	a	65
3925	41563	I was a bit rusty but I didn't want to miss the elections back home.	I was a bit rusty but i didn't want to miss the elections back home.	1983976	1471976670823	1471976670951	 	32
3925	41563	I was a bit rusty but I didn't want to miss the elections back home.	I was a bit rusty but i didn't want to miss the elections back home.	1984013	1471976671063	1471976671175	b	66
3925	41563	I was a bit rusty but I didn't want to miss the elections back home.	I was a bit rusty but i didn't want to miss the elections back home.	1984016	1471976671176	1471976671311	i	73
3925	41563	I was a bit rusty but I didn't want to miss the elections back home.	I was a bit rusty but i didn't want to miss the elections back home.	1984023	1471976671375	1471976671479	t	84
3925	41563	I was a bit rusty but I didn't want to miss the elections back home.	I was a bit rusty but i didn't want to miss the elections back home.	1984033	1471976671520	1471976671631	 	32
3925	41563	I was a bit rusty but I didn't want to miss the elections back home.	I was a bit rusty but i didn't want to miss the elections back home.	1984041	1471976671751	1471976671855	r	82
3925	41563	I was a bit rusty but I didn't want to miss the elections back home.	I was a bit rusty but i didn't want to miss the elections back home.	1984137	1471976671927	1471976672039	u	85
3925	41563	I was a bit rusty but I didn't want to miss the elections back home.	I was a bit rusty but i didn't want to miss the elections back home.	1984141	1471976672039	1471976672143	s	83
3925	41563	I was a bit rusty but I didn't want to miss the elections back home.	I was a bit rusty but i didn't want to miss the elections back home.	1984147	1471976672255	1471976672351	t	84
3925	41563	I was a bit rusty but I didn't want to miss the elections back home.	I was a bit rusty but i didn't want to miss the elections back home.	1984151	1471976673031	1471976673159	l	76
3925	41563	I was a bit rusty but I didn't want to miss the elections back home.	I was a bit rusty but i didn't want to miss the elections back home.	1984158	1471976673328	1471976673455	y	89
3925	41563	I was a bit rusty but I didn't want to miss the elections back home.	I was a bit rusty but i didn't want to miss the elections back home.	1984269	1471976673824	1471976673871	BKSP	8
3925	41563	I was a bit rusty but I didn't want to miss the elections back home.	I was a bit rusty but i didn't want to miss the elections back home.	1984272	1471976673967	1471976674070	BKSP	8
3925	41563	I was a bit rusty but I didn't want to miss the elections back home.	I was a bit rusty but i didn't want to miss the elections back home.	1984277	1471976674144	1471976674239	y	89
3925	41563	I was a bit rusty but I didn't want to miss the elections back home.	I was a bit rusty but i didn't want to miss the elections back home.	1984282	1471976674303	1471976674438	 	32
3925	41563	I was a bit rusty but I didn't want to miss the elections back home.	I was a bit rusty but i didn't want to miss the elections back home.	1984286	1471976674591	1471976674695	b	66
3925	41563	I was a bit rusty but I didn't want to miss the elections back home.	I was a bit rusty but i didn't want to miss the elections back home.	1984291	1471976674695	1471976674831	u	85
3925	41563	I was a bit rusty but I didn't want to miss the elections back home.	I was a bit rusty but i didn't want to miss the elections back home.	1984296	1471976675119	1471976675231	t	84
3925	41563	I was a bit rusty but I didn't want to miss the elections back home.	I was a bit rusty but i didn't want to miss the elections back home.	1984330	1471976675287	1471976675391	 	32
3925	41563	I was a bit rusty but I didn't want to miss the elections back home.	I was a bit rusty but i didn't want to miss the elections back home.	1984333	1471976675439	1471976675551	i	73
3925	41563	I was a bit rusty but I didn't want to miss the elections back home.	I was a bit rusty but i didn't want to miss the elections back home.	1984338	1471976675599	1471976675695	 	32
3925	41563	I was a bit rusty but I didn't want to miss the elections back home.	I was a bit rusty but i didn't want to miss the elections back home.	1984341	1471976675846	1471976675943	d	68
3925	41563	I was a bit rusty but I didn't want to miss the elections back home.	I was a bit rusty but i didn't want to miss the elections back home.	1984485	1471976675927	1471976676207	i	73
3925	41563	I was a bit rusty but I didn't want to miss the elections back home.	I was a bit rusty but i didn't want to miss the elections back home.	1984488	1471976676280	1471976676391	n	78
3925	41563	I was a bit rusty but I didn't want to miss the elections back home.	I was a bit rusty but i didn't want to miss the elections back home.	1984492	1471976676559	1471976676679	d	68
3925	41563	I was a bit rusty but I didn't want to miss the elections back home.	I was a bit rusty but i didn't want to miss the elections back home.	1984496	1471976677079	1471976677151	BKSP	8
3925	41563	I was a bit rusty but I didn't want to miss the elections back home.	I was a bit rusty but i didn't want to miss the elections back home.	1984498	1471976677231	1471976677351	BKSP	8
3925	41563	I was a bit rusty but I didn't want to miss the elections back home.	I was a bit rusty but i didn't want to miss the elections back home.	1984501	1471976677423	1471976677503	d	68
3925	41563	I was a bit rusty but I didn't want to miss the elections back home.	I was a bit rusty but i didn't want to miss the elections back home.	1984505	1471976677927	1471976678055	n	78
3925	41563	I was a bit rusty but I didn't want to miss the elections back home.	I was a bit rusty but i didn't want to miss the elections back home.	1984509	1471976678311	1471976678455	'	222
3925	41563	I was a bit rusty but I didn't want to miss the elections back home.	I was a bit rusty but i didn't want to miss the elections back home.	1984551	1471976678456	1471976678543	t	84
3925	41563	I was a bit rusty but I didn't want to miss the elections back home.	I was a bit rusty but i didn't want to miss the elections back home.	1984555	1471976678703	1471976678831	 	32
3925	41563	I was a bit rusty but I didn't want to miss the elections back home.	I was a bit rusty but i didn't want to miss the elections back home.	1984557	1471976678975	1471976679103	w	87
3925	41563	I was a bit rusty but I didn't want to miss the elections back home.	I was a bit rusty but i didn't want to miss the elections back home.	1984563	1471976679071	1471976679183	a	65
3925	41563	I was a bit rusty but I didn't want to miss the elections back home.	I was a bit rusty but i didn't want to miss the elections back home.	1984569	1471976679519	1471976679639	n	78
3925	41563	I was a bit rusty but I didn't want to miss the elections back home.	I was a bit rusty but i didn't want to miss the elections back home.	1984588	1471976679641	1471976679751	t	84
3925	41563	I was a bit rusty but I didn't want to miss the elections back home.	I was a bit rusty but i didn't want to miss the elections back home.	1984591	1471976679759	1471976679911	 	32
3925	41563	I was a bit rusty but I didn't want to miss the elections back home.	I was a bit rusty but i didn't want to miss the elections back home.	1984593	1471976679967	1471976680087	o	84
3925	41563	I was a bit rusty but I didn't want to miss the elections back home.	I was a bit rusty but i didn't want to miss the elections back home.	1984662	1471976680088	1471976680223	 	32
3925	41563	I was a bit rusty but I didn't want to miss the elections back home.	I was a bit rusty but i didn't want to miss the elections back home.	1984667	1471976680319	1471976680455	m	77
3925	41563	I was a bit rusty but I didn't want to miss the elections back home.	I was a bit rusty but i didn't want to miss the elections back home.	1984675	1471976680455	1471976680590	i	73
3925	41563	I was a bit rusty but I didn't want to miss the elections back home.	I was a bit rusty but i didn't want to miss the elections back home.	1984682	1471976680559	1471976680638	s	83
3925	41563	I was a bit rusty but I didn't want to miss the elections back home.	I was a bit rusty but i didn't want to miss the elections back home.	1984687	1471976680735	1471976680831	s	83
3925	41563	I was a bit rusty but I didn't want to miss the elections back home.	I was a bit rusty but i didn't want to miss the elections back home.	1984691	1471976680895	1471976681007	 	32
3925	41563	I was a bit rusty but I didn't want to miss the elections back home.	I was a bit rusty but i didn't want to miss the elections back home.	1984743	1471976681271	1471976681383	t	84
3925	41563	I was a bit rusty but I didn't want to miss the elections back home.	I was a bit rusty but i didn't want to miss the elections back home.	1984747	1471976681359	1471976681479	h	72
3925	41563	I was a bit rusty but I didn't want to miss the elections back home.	I was a bit rusty but i didn't want to miss the elections back home.	1984749	1471976681463	1471976681567	e	69
3925	41563	I was a bit rusty but I didn't want to miss the elections back home.	I was a bit rusty but i didn't want to miss the elections back home.	1984753	1471976681575	1471976681719	 	32
3925	41563	I was a bit rusty but I didn't want to miss the elections back home.	I was a bit rusty but i didn't want to miss the elections back home.	1984756	1471976681831	1471976681943	e	69
3925	41563	I was a bit rusty but I didn't want to miss the elections back home.	I was a bit rusty but i didn't want to miss the elections back home.	1984838	1471976682039	1471976682143	l	76
3925	41563	I was a bit rusty but I didn't want to miss the elections back home.	I was a bit rusty but i didn't want to miss the elections back home.	1984839	1471976682327	1471976682431	e	69
3925	41563	I was a bit rusty but I didn't want to miss the elections back home.	I was a bit rusty but i didn't want to miss the elections back home.	1984841	1471976682671	1471976682775	c	67
3925	41563	I was a bit rusty but I didn't want to miss the elections back home.	I was a bit rusty but i didn't want to miss the elections back home.	1984842	1471976682959	1471976683087	t	84
3925	41563	I was a bit rusty but I didn't want to miss the elections back home.	I was a bit rusty but i didn't want to miss the elections back home.	1984843	1471976683088	1471976683239	i	73
3925	41563	I was a bit rusty but I didn't want to miss the elections back home.	I was a bit rusty but i didn't want to miss the elections back home.	1984906	1471976683207	1471976683367	o	79
3925	41563	I was a bit rusty but I didn't want to miss the elections back home.	I was a bit rusty but i didn't want to miss the elections back home.	1984909	1471976683383	1471976683495	n	78
3925	41563	I was a bit rusty but I didn't want to miss the elections back home.	I was a bit rusty but i didn't want to miss the elections back home.	1984912	1471976683999	1471976684103	s	83
3925	41563	I was a bit rusty but I didn't want to miss the elections back home.	I was a bit rusty but i didn't want to miss the elections back home.	1984915	1471976684175	1471976684319	 	32
3925	41563	I was a bit rusty but I didn't want to miss the elections back home.	I was a bit rusty but i didn't want to miss the elections back home.	1984918	1471976684398	1471976684527	b	66
3925	41563	I was a bit rusty but I didn't want to miss the elections back home.	I was a bit rusty but i didn't want to miss the elections back home.	1984981	1471976684479	1471976684591	a	65
3925	41563	I was a bit rusty but I didn't want to miss the elections back home.	I was a bit rusty but i didn't want to miss the elections back home.	1984983	1471976684759	1471976684854	c	67
3925	41563	I was a bit rusty but I didn't want to miss the elections back home.	I was a bit rusty but i didn't want to miss the elections back home.	1984988	1471976684928	1471976685047	k	75
3925	41563	I was a bit rusty but I didn't want to miss the elections back home.	I was a bit rusty but i didn't want to miss the elections back home.	1984991	1471976685383	1471976685511	 	32
3925	41563	I was a bit rusty but I didn't want to miss the elections back home.	I was a bit rusty but i didn't want to miss the elections back home.	1984995	1471976685623	1471976685742	h	72
3925	41563	I was a bit rusty but I didn't want to miss the elections back home.	I was a bit rusty but i didn't want to miss the elections back home.	1985000	1471976685743	1471976685935	o	79
3925	41563	I was a bit rusty but I didn't want to miss the elections back home.	I was a bit rusty but i didn't want to miss the elections back home.	1985055	1471976685911	1471976686055	m	77
3925	41563	I was a bit rusty but I didn't want to miss the elections back home.	I was a bit rusty but i didn't want to miss the elections back home.	1985057	1471976686023	1471976686119	e	69
3925	41563	I was a bit rusty but I didn't want to miss the elections back home.	I was a bit rusty but i didn't want to miss the elections back home.	1985062	1471976686671	1471976686735	.	190
3925	41593	Baku's forces had for more than 24 hours been engaged in clashes.	Baku's forces had for more than 24 hours been engaged in clashes.	1985407	1471976690207	1471976690431	SHIFT	16
3925	41593	Baku's forces had for more than 24 hours been engaged in clashes.	Baku's forces had for more than 24 hours been engaged in clashes.	1985410	1471976690359	1471976690431	B	66
3925	41593	Baku's forces had for more than 24 hours been engaged in clashes.	Baku's forces had for more than 24 hours been engaged in clashes.	1985416	1471976690839	1471976690991	a	65
3925	41593	Baku's forces had for more than 24 hours been engaged in clashes.	Baku's forces had for more than 24 hours been engaged in clashes.	1985422	1471976691431	1471976691551	k	75
3925	41593	Baku's forces had for more than 24 hours been engaged in clashes.	Baku's forces had for more than 24 hours been engaged in clashes.	1985426	1471976691663	1471976691735	u	85
3925	41593	Baku's forces had for more than 24 hours been engaged in clashes.	Baku's forces had for more than 24 hours been engaged in clashes.	1985430	1471976691967	1471976692126	'	222
3925	41593	Baku's forces had for more than 24 hours been engaged in clashes.	Baku's forces had for more than 24 hours been engaged in clashes.	1985510	1471976692103	1471976692207	s	83
3925	41593	Baku's forces had for more than 24 hours been engaged in clashes.	Baku's forces had for more than 24 hours been engaged in clashes.	1985512	1471976692279	1471976692399	 	32
3925	41593	Baku's forces had for more than 24 hours been engaged in clashes.	Baku's forces had for more than 24 hours been engaged in clashes.	1985516	1471976692503	1471976692599	f	70
3925	41593	Baku's forces had for more than 24 hours been engaged in clashes.	Baku's forces had for more than 24 hours been engaged in clashes.	1985521	1471976692623	1471976692743	o	79
3925	41593	Baku's forces had for more than 24 hours been engaged in clashes.	Baku's forces had for more than 24 hours been engaged in clashes.	1985527	1471976692791	1471976692911	r	82
3925	41593	Baku's forces had for more than 24 hours been engaged in clashes.	Baku's forces had for more than 24 hours been engaged in clashes.	1985536	1471976693143	1471976693271	s	83
3925	41593	Baku's forces had for more than 24 hours been engaged in clashes.	Baku's forces had for more than 24 hours been engaged in clashes.	1985647	1471976693487	1471976693582	BKSP	8
3925	41593	Baku's forces had for more than 24 hours been engaged in clashes.	Baku's forces had for more than 24 hours been engaged in clashes.	1985649	1471976693639	1471976693719	c	67
3925	41593	Baku's forces had for more than 24 hours been engaged in clashes.	Baku's forces had for more than 24 hours been engaged in clashes.	1985652	1471976694231	1471976694399	e	69
3925	41593	Baku's forces had for more than 24 hours been engaged in clashes.	Baku's forces had for more than 24 hours been engaged in clashes.	1985657	1471976694335	1471976694503	s	83
3925	41593	Baku's forces had for more than 24 hours been engaged in clashes.	Baku's forces had for more than 24 hours been engaged in clashes.	1985663	1471976694591	1471976694727	 	32
3925	41593	Baku's forces had for more than 24 hours been engaged in clashes.	Baku's forces had for more than 24 hours been engaged in clashes.	1985669	1471976694831	1471976694926	h	72
3925	41593	Baku's forces had for more than 24 hours been engaged in clashes.	Baku's forces had for more than 24 hours been engaged in clashes.	1985747	1471976694895	1471976695007	a	65
3925	41593	Baku's forces had for more than 24 hours been engaged in clashes.	Baku's forces had for more than 24 hours been engaged in clashes.	1985749	1471976695279	1471976695359	d	68
3925	41593	Baku's forces had for more than 24 hours been engaged in clashes.	Baku's forces had for more than 24 hours been engaged in clashes.	1985752	1471976695407	1471976695519	 	32
3925	41593	Baku's forces had for more than 24 hours been engaged in clashes.	Baku's forces had for more than 24 hours been engaged in clashes.	1985756	1471976695871	1471976695951	f	70
3925	41593	Baku's forces had for more than 24 hours been engaged in clashes.	Baku's forces had for more than 24 hours been engaged in clashes.	1985759	1471976696055	1471976696183	o	79
3925	41593	Baku's forces had for more than 24 hours been engaged in clashes.	Baku's forces had for more than 24 hours been engaged in clashes.	1985762	1471976696183	1471976696295	r	82
3925	41593	Baku's forces had for more than 24 hours been engaged in clashes.	Baku's forces had for more than 24 hours been engaged in clashes.	1985789	1471976696375	1471976696494	 	32
3925	41593	Baku's forces had for more than 24 hours been engaged in clashes.	Baku's forces had for more than 24 hours been engaged in clashes.	1985796	1471976696687	1471976696863	m	77
3925	41593	Baku's forces had for more than 24 hours been engaged in clashes.	Baku's forces had for more than 24 hours been engaged in clashes.	1985802	1471976696864	1471976697047	o	79
3925	41593	Baku's forces had for more than 24 hours been engaged in clashes.	Baku's forces had for more than 24 hours been engaged in clashes.	1985807	1471976696983	1471976697151	r	82
3925	41593	Baku's forces had for more than 24 hours been engaged in clashes.	Baku's forces had for more than 24 hours been engaged in clashes.	1985840	1471976697087	1471976697263	e	69
3925	41593	Baku's forces had for more than 24 hours been engaged in clashes.	Baku's forces had for more than 24 hours been engaged in clashes.	1985841	1471976697264	1471976697375	 	32
3925	41593	Baku's forces had for more than 24 hours been engaged in clashes.	Baku's forces had for more than 24 hours been engaged in clashes.	1985847	1471976697479	1471976697583	t	84
3925	41593	Baku's forces had for more than 24 hours been engaged in clashes.	Baku's forces had for more than 24 hours been engaged in clashes.	1985853	1471976697551	1471976697670	h	72
3925	41593	Baku's forces had for more than 24 hours been engaged in clashes.	Baku's forces had for more than 24 hours been engaged in clashes.	1985861	1471976697671	1471976697815	a	65
3925	41593	Baku's forces had for more than 24 hours been engaged in clashes.	Baku's forces had for more than 24 hours been engaged in clashes.	1985869	1471976697903	1471976697999	t	84
3925	41593	Baku's forces had for more than 24 hours been engaged in clashes.	Baku's forces had for more than 24 hours been engaged in clashes.	1986047	1471976698439	1471976698519	BKSP	8
3925	41593	Baku's forces had for more than 24 hours been engaged in clashes.	Baku's forces had for more than 24 hours been engaged in clashes.	1986052	1471976698783	1471976698887	n	78
3925	41593	Baku's forces had for more than 24 hours been engaged in clashes.	Baku's forces had for more than 24 hours been engaged in clashes.	1986055	1471976698927	1471976699044	 	32
3925	41593	Baku's forces had for more than 24 hours been engaged in clashes.	Baku's forces had for more than 24 hours been engaged in clashes.	1986057	1471976699788	1471976699884	2	50
3925	41593	Baku's forces had for more than 24 hours been engaged in clashes.	Baku's forces had for more than 24 hours been engaged in clashes.	1986061	1471976700204	1471976700284	4	52
3925	41593	Baku's forces had for more than 24 hours been engaged in clashes.	Baku's forces had for more than 24 hours been engaged in clashes.	1986067	1471976700372	1471976700468	 	32
3925	41593	Baku's forces had for more than 24 hours been engaged in clashes.	Baku's forces had for more than 24 hours been engaged in clashes.	1986115	1471976700724	1471976700867	h	72
3925	41593	Baku's forces had for more than 24 hours been engaged in clashes.	Baku's forces had for more than 24 hours been engaged in clashes.	1986119	1471976700868	1471976701027	o	79
3925	41593	Baku's forces had for more than 24 hours been engaged in clashes.	Baku's forces had for more than 24 hours been engaged in clashes.	1986124	1471976700972	1471976701140	u	85
3925	41593	Baku's forces had for more than 24 hours been engaged in clashes.	Baku's forces had for more than 24 hours been engaged in clashes.	1986128	1471976701172	1471976701308	r	82
3925	41593	Baku's forces had for more than 24 hours been engaged in clashes.	Baku's forces had for more than 24 hours been engaged in clashes.	1986223	1471976701244	1471976701412	s	83
3925	41593	Baku's forces had for more than 24 hours been engaged in clashes.	Baku's forces had for more than 24 hours been engaged in clashes.	1986228	1471976701484	1471976701611	 	32
3925	41593	Baku's forces had for more than 24 hours been engaged in clashes.	Baku's forces had for more than 24 hours been engaged in clashes.	1986232	1471976701740	1471976701836	b	66
3925	41593	Baku's forces had for more than 24 hours been engaged in clashes.	Baku's forces had for more than 24 hours been engaged in clashes.	1986237	1471976701892	1471976702012	e	69
3925	41593	Baku's forces had for more than 24 hours been engaged in clashes.	Baku's forces had for more than 24 hours been engaged in clashes.	1986243	1471976702300	1471976702380	e	69
3925	41593	Baku's forces had for more than 24 hours been engaged in clashes.	Baku's forces had for more than 24 hours been engaged in clashes.	1986249	1471976702468	1471976702571	n	78
3925	41593	Baku's forces had for more than 24 hours been engaged in clashes.	Baku's forces had for more than 24 hours been engaged in clashes.	1986284	1471976702636	1471976702780	 	32
3925	41593	Baku's forces had for more than 24 hours been engaged in clashes.	Baku's forces had for more than 24 hours been engaged in clashes.	1986288	1471976702868	1471976702948	e	69
3925	41593	Baku's forces had for more than 24 hours been engaged in clashes.	Baku's forces had for more than 24 hours been engaged in clashes.	1986291	1471976703028	1471976703124	n	78
3925	41593	Baku's forces had for more than 24 hours been engaged in clashes.	Baku's forces had for more than 24 hours been engaged in clashes.	1986297	1471976703308	1471976703428	g	71
3925	41593	Baku's forces had for more than 24 hours been engaged in clashes.	Baku's forces had for more than 24 hours been engaged in clashes.	1986408	1471976703372	1471976703476	a	65
3925	41593	Baku's forces had for more than 24 hours been engaged in clashes.	Baku's forces had for more than 24 hours been engaged in clashes.	1986411	1471976704236	1471976704388	g	71
3925	41593	Baku's forces had for more than 24 hours been engaged in clashes.	Baku's forces had for more than 24 hours been engaged in clashes.	1986416	1471976704389	1471976704483	e	69
3925	41593	Baku's forces had for more than 24 hours been engaged in clashes.	Baku's forces had for more than 24 hours been engaged in clashes.	1986418	1471976704644	1471976704724	d	68
3925	41593	Baku's forces had for more than 24 hours been engaged in clashes.	Baku's forces had for more than 24 hours been engaged in clashes.	1986420	1471976704772	1471976704900	 	32
3925	41593	Baku's forces had for more than 24 hours been engaged in clashes.	Baku's forces had for more than 24 hours been engaged in clashes.	1986423	1471976704932	1471976705084	i	73
3925	41593	Baku's forces had for more than 24 hours been engaged in clashes.	Baku's forces had for more than 24 hours been engaged in clashes.	1986467	1471976705076	1471976705227	n	78
3925	41593	Baku's forces had for more than 24 hours been engaged in clashes.	Baku's forces had for more than 24 hours been engaged in clashes.	1986468	1471976705636	1471976705772	 	32
3925	41593	Baku's forces had for more than 24 hours been engaged in clashes.	Baku's forces had for more than 24 hours been engaged in clashes.	1986469	1471976705924	1471976706028	c	67
3925	41593	Baku's forces had for more than 24 hours been engaged in clashes.	Baku's forces had for more than 24 hours been engaged in clashes.	1986470	1471976706068	1471976706244	l	76
3925	41593	Baku's forces had for more than 24 hours been engaged in clashes.	Baku's forces had for more than 24 hours been engaged in clashes.	1986472	1471976706156	1471976706275	a	65
3925	41593	Baku's forces had for more than 24 hours been engaged in clashes.	Baku's forces had for more than 24 hours been engaged in clashes.	1986476	1471976706412	1471976706508	s	83
3925	41593	Baku's forces had for more than 24 hours been engaged in clashes.	Baku's forces had for more than 24 hours been engaged in clashes.	1986567	1471976706560	1471976706653	h	72
3925	41593	Baku's forces had for more than 24 hours been engaged in clashes.	Baku's forces had for more than 24 hours been engaged in clashes.	1986572	1471976706675	1471976706764	e	69
3925	41593	Baku's forces had for more than 24 hours been engaged in clashes.	Baku's forces had for more than 24 hours been engaged in clashes.	1986577	1471976706940	1471976707060	s	83
3925	41593	Baku's forces had for more than 24 hours been engaged in clashes.	Baku's forces had for more than 24 hours been engaged in clashes.	1986583	1471976707620	1471976707716	.	190
3925	41629	See what concerts we have for you in your city.	See what concerts we have for you in your city.	1986903	1471976710252	1471976710587	SHIFT	16
3925	41629	See what concerts we have for you in your city.	See what concerts we have for you in your city.	1986897	1471976710436	1471976710556	W	87
3925	41629	See what concerts we have for you in your city.	See what concerts we have for you in your city.	1986921	1471976710772	1471976711148	SHIFT	16
3925	41629	See what concerts we have for you in your city.	See what concerts we have for you in your city.	1986907	1471976710843	1471976710931	BKSP	8
3925	41629	See what concerts we have for you in your city.	See what concerts we have for you in your city.	1986915	1471976710988	1471976711132	S	83
3925	41629	See what concerts we have for you in your city.	See what concerts we have for you in your city.	1986929	1471976711252	1471976711316	e	69
3925	41629	See what concerts we have for you in your city.	See what concerts we have for you in your city.	1986936	1471976711412	1471976711508	e	69
3925	41629	See what concerts we have for you in your city.	See what concerts we have for you in your city.	1986944	1471976711620	1471976711756	 	32
3925	41629	See what concerts we have for you in your city.	See what concerts we have for you in your city.	1986981	1471976711828	1471976711948	w	87
3925	41629	See what concerts we have for you in your city.	See what concerts we have for you in your city.	1986985	1471976711948	1471976712051	h	72
3925	41629	See what concerts we have for you in your city.	See what concerts we have for you in your city.	1986987	1471976712012	1471976712140	a	65
3925	41629	See what concerts we have for you in your city.	See what concerts we have for you in your city.	1986989	1471976712228	1471976712348	t	84
3925	41629	See what concerts we have for you in your city.	See what concerts we have for you in your city.	1986990	1471976712372	1471976712508	 	32
3925	41629	See what concerts we have for you in your city.	See what concerts we have for you in your city.	1987119	1471976712724	1471976712820	c	67
3925	41629	See what concerts we have for you in your city.	See what concerts we have for you in your city.	1987124	1471976713388	1471976713516	o	79
3925	41629	See what concerts we have for you in your city.	See what concerts we have for you in your city.	1987128	1471976713516	1471976713636	n	78
3925	41629	See what concerts we have for you in your city.	See what concerts we have for you in your city.	1987133	1471976713772	1471976713859	s	83
3925	41629	See what concerts we have for you in your city.	See what concerts we have for you in your city.	1987139	1471976714124	1471976714307	BKSP	8
3925	41629	See what concerts we have for you in your city.	See what concerts we have for you in your city.	1987144	1471976714308	1471976714380	c	67
3925	41629	See what concerts we have for you in your city.	See what concerts we have for you in your city.	1987245	1471976714716	1471976714803	e	69
3925	41629	See what concerts we have for you in your city.	See what concerts we have for you in your city.	1987251	1471976714908	1471976715043	r	82
3925	41629	See what concerts we have for you in your city.	See what concerts we have for you in your city.	1987261	1471976715300	1471976715420	t	84
3925	41629	See what concerts we have for you in your city.	See what concerts we have for you in your city.	1987267	1471976715436	1471976715547	s	83
3925	41629	See what concerts we have for you in your city.	See what concerts we have for you in your city.	1987272	1471976715619	1471976715756	 	32
3925	41629	See what concerts we have for you in your city.	See what concerts we have for you in your city.	1987301	1471976715916	1471976716027	w	87
3925	41629	See what concerts we have for you in your city.	See what concerts we have for you in your city.	1987303	1471976716107	1471976716203	e	69
3925	41629	See what concerts we have for you in your city.	See what concerts we have for you in your city.	1987307	1471976716227	1471976716347	 	32
3925	41629	See what concerts we have for you in your city.	See what concerts we have for you in your city.	1987314	1471976716468	1471976716580	h	72
3925	41629	See what concerts we have for you in your city.	See what concerts we have for you in your city.	1987322	1471976716580	1471976716700	a	65
3925	41629	See what concerts we have for you in your city.	See what concerts we have for you in your city.	1987378	1471976716756	1471976716860	v	86
3925	41629	See what concerts we have for you in your city.	See what concerts we have for you in your city.	1987384	1471976716860	1471976717003	e	69
3925	41629	See what concerts we have for you in your city.	See what concerts we have for you in your city.	1987391	1471976717027	1471976717172	 	32
3925	41629	See what concerts we have for you in your city.	See what concerts we have for you in your city.	1987397	1471976717444	1471976717572	f	70
3925	41629	See what concerts we have for you in your city.	See what concerts we have for you in your city.	1987403	1471976717611	1471976717740	o	79
3925	41629	See what concerts we have for you in your city.	See what concerts we have for you in your city.	1987500	1471976717724	1471976717828	r	82
3925	41629	See what concerts we have for you in your city.	See what concerts we have for you in your city.	1987504	1471976717852	1471976717948	 	32
3925	41629	See what concerts we have for you in your city.	See what concerts we have for you in your city.	1987508	1471976718059	1471976718204	i	73
3925	41629	See what concerts we have for you in your city.	See what concerts we have for you in your city.	1987511	1471976718476	1471976718643	BKSP	8
3925	41629	See what concerts we have for you in your city.	See what concerts we have for you in your city.	1987515	1471976718644	1471976718771	y	89
3925	41629	See what concerts we have for you in your city.	See what concerts we have for you in your city.	1987520	1471976718796	1471976719028	o	79
3925	41629	See what concerts we have for you in your city.	See what concerts we have for you in your city.	1987597	1471976718948	1471976719060	u	85
3925	41629	See what concerts we have for you in your city.	See what concerts we have for you in your city.	1987602	1471976719404	1471976719540	 	32
3925	41629	See what concerts we have for you in your city.	See what concerts we have for you in your city.	1987606	1471976719604	1471976719740	i	73
3925	41629	See what concerts we have for you in your city.	See what concerts we have for you in your city.	1987611	1471976719716	1471976719852	n	78
3925	41629	See what concerts we have for you in your city.	See what concerts we have for you in your city.	1987616	1471976719892	1471976720012	 	32
3925	41629	See what concerts we have for you in your city.	See what concerts we have for you in your city.	1987620	1471976720172	1471976720316	y	89
3925	41629	See what concerts we have for you in your city.	See what concerts we have for you in your city.	1987672	1471976720292	1471976720524	o	79
3925	41629	See what concerts we have for you in your city.	See what concerts we have for you in your city.	1987679	1471976720404	1471976720580	u	85
3925	41629	See what concerts we have for you in your city.	See what concerts we have for you in your city.	1987686	1471976720580	1471976720676	r	82
3925	41629	See what concerts we have for you in your city.	See what concerts we have for you in your city.	1987690	1471976720732	1471976720844	 	32
3925	41629	See what concerts we have for you in your city.	See what concerts we have for you in your city.	1987696	1471976721012	1471976721132	c	67
3925	41629	See what concerts we have for you in your city.	See what concerts we have for you in your city.	1987801	1471976721091	1471976721204	i	73
3925	41629	See what concerts we have for you in your city.	See what concerts we have for you in your city.	1987807	1471976721332	1471976721444	t	84
3925	41629	See what concerts we have for you in your city.	See what concerts we have for you in your city.	1987812	1471976721604	1471976721699	y	89
3925	41629	See what concerts we have for you in your city.	See what concerts we have for you in your city.	1987818	1471976722292	1471976722355	.	190
3925	41647	Between 0 and 4 are allowed.	Between 0 and 4 are allowed.	1988135	1471976725115	1471976725692	SHIFT	16
3925	41647	Between 0 and 4 are allowed.	Between 0 and 4 are allowed.	1988132	1471976725564	1471976725668	B	66
3925	41647	Between 0 and 4 are allowed.	Between 0 and 4 are allowed.	1988138	1471976725771	1471976725891	e	69
3925	41647	Between 0 and 4 are allowed.	Between 0 and 4 are allowed.	1988142	1471976726204	1471976726332	t	84
3925	41647	Between 0 and 4 are allowed.	Between 0 and 4 are allowed.	1988146	1471976726436	1471976726508	w	87
3925	41647	Between 0 and 4 are allowed.	Between 0 and 4 are allowed.	1988151	1471976726668	1471976726740	e	69
3925	41647	Between 0 and 4 are allowed.	Between 0 and 4 are allowed.	1988216	1471976726828	1471976726924	e	69
3925	41647	Between 0 and 4 are allowed.	Between 0 and 4 are allowed.	1988219	1471976727028	1471976727124	n	78
3925	41647	Between 0 and 4 are allowed.	Between 0 and 4 are allowed.	1988225	1471976727187	1471976727316	 	32
3925	41647	Between 0 and 4 are allowed.	Between 0 and 4 are allowed.	1988231	1471976727916	1471976728059	0	48
3925	41647	Between 0 and 4 are allowed.	Between 0 and 4 are allowed.	1988237	1471976728252	1471976728404	 	32
3925	41647	Between 0 and 4 are allowed.	Between 0 and 4 are allowed.	1988293	1471976728452	1471976728540	a	65
3925	41647	Between 0 and 4 are allowed.	Between 0 and 4 are allowed.	1988300	1471976728571	1471976728675	n	78
3925	41647	Between 0 and 4 are allowed.	Between 0 and 4 are allowed.	1988305	1471976728700	1471976728812	d	68
3925	41647	Between 0 and 4 are allowed.	Between 0 and 4 are allowed.	1988310	1471976728812	1471976728932	 	32
3925	41647	Between 0 and 4 are allowed.	Between 0 and 4 are allowed.	1988314	1471976729308	1471976729436	4	52
3925	41647	Between 0 and 4 are allowed.	Between 0 and 4 are allowed.	1988400	1471976729483	1471976729603	 	32
3925	41647	Between 0 and 4 are allowed.	Between 0 and 4 are allowed.	1988403	1471976730244	1471976730356	a	65
3925	41647	Between 0 and 4 are allowed.	Between 0 and 4 are allowed.	1988405	1471976730475	1471976730627	r	82
3925	41647	Between 0 and 4 are allowed.	Between 0 and 4 are allowed.	1988409	1471976730556	1471976730723	e	69
3925	41647	Between 0 and 4 are allowed.	Between 0 and 4 are allowed.	1988412	1471976730724	1471976730875	 	32
3925	41647	Between 0 and 4 are allowed.	Between 0 and 4 are allowed.	1988480	1471976730877	1471976730996	a	65
3925	41647	Between 0 and 4 are allowed.	Between 0 and 4 are allowed.	1988485	1471976731068	1471976731140	l	76
3925	41647	Between 0 and 4 are allowed.	Between 0 and 4 are allowed.	1988489	1471976731228	1471976731291	l	76
3925	41647	Between 0 and 4 are allowed.	Between 0 and 4 are allowed.	1988494	1471976731460	1471976731539	o	79
3925	41647	Between 0 and 4 are allowed.	Between 0 and 4 are allowed.	1988500	1471976731924	1471976732028	w	87
3925	41647	Between 0 and 4 are allowed.	Between 0 and 4 are allowed.	1988584	1471976732140	1471976732236	e	69
3925	41647	Between 0 and 4 are allowed.	Between 0 and 4 are allowed.	1988593	1471976732380	1471976732484	d	68
3925	41647	Between 0 and 4 are allowed.	Between 0 and 4 are allowed.	1988601	1471976733068	1471976733140	.	190
3925	41668	No need to send to FL.	No need to send to FL.	1988931	1471976737060	1471976737739	SHIFT	16
3925	41668	No need to send to FL.	No need to send to FL.	1988938	1471976737635	1471976737755	N	78
3925	41668	No need to send to FL.	No need to send to FL.	1988944	1471976737804	1471976737939	o	79
3925	41668	No need to send to FL.	No need to send to FL.	1988952	1471976737940	1471976738068	 	32
3925	41668	No need to send to FL.	No need to send to FL.	1988959	1471976738227	1471976738347	n	78
3925	41668	No need to send to FL.	No need to send to FL.	1988999	1471976738316	1471976738380	e	69
3925	41668	No need to send to FL.	No need to send to FL.	1989003	1471976738484	1471976738564	e	69
3925	41668	No need to send to FL.	No need to send to FL.	1989008	1471976738715	1471976738819	d	68
3925	41668	No need to send to FL.	No need to send to FL.	1989014	1471976738827	1471976738932	 	32
3925	41668	No need to send to FL.	No need to send to FL.	1989020	1471976739060	1471976739164	o	84
3925	41668	No need to send to FL.	No need to send to FL.	1989087	1471976739196	1471976739348	 	32
3925	41668	No need to send to FL.	No need to send to FL.	1989091	1471976739371	1471976739484	s	83
3925	41668	No need to send to FL.	No need to send to FL.	1989098	1471976739604	1471976739691	e	69
3925	41668	No need to send to FL.	No need to send to FL.	1989102	1471976739748	1471976739867	n	78
3925	41668	No need to send to FL.	No need to send to FL.	1989105	1471976740196	1471976740300	d	68
3925	41668	No need to send to FL.	No need to send to FL.	1989178	1471976740302	1471976740436	 	32
3925	41668	No need to send to FL.	No need to send to FL.	1989180	1471976740596	1471976740660	t	84
3925	41668	No need to send to FL.	No need to send to FL.	1989183	1471976740996	1471976741084	BKSP	8
3925	41668	No need to send to FL.	No need to send to FL.	1989187	1471976741452	1471976741556	t	84
3925	41668	No need to send to FL.	No need to send to FL.	1989192	1471976741556	1471976741692	o	79
3925	41668	No need to send to FL.	No need to send to FL.	1989195	1471976741723	1471976741843	 	32
3925	41668	No need to send to FL.	No need to send to FL.	1989315	1471976742148	1471976742772	SHIFT	16
3925	41668	No need to send to FL.	No need to send to FL.	1989312	1471976742388	1471976742508	F	70
3925	41668	No need to send to FL.	No need to send to FL.	1989314	1471976742547	1471976742620	L	76
3925	41668	No need to send to FL.	No need to send to FL.	1989317	1471976743107	1471976743188	.	190
3925	41680	He was in great shape last night.	He was in great shape last night,.	1989511	1471976745052	1471976745692	SHIFT	16
3925	41680	He was in great shape last night.	He was in great shape last night,.	1989509	1471976745532	1471976745660	H	72
3925	41680	He was in great shape last night.	He was in great shape last night,.	1989514	1471976745852	1471976745972	e	69
3925	41680	He was in great shape last night.	He was in great shape last night,.	1989518	1471976746035	1471976746164	 	32
3925	41680	He was in great shape last night.	He was in great shape last night,.	1989522	1471976746220	1471976746347	w	87
3925	41680	He was in great shape last night.	He was in great shape last night,.	1989574	1471976746323	1471976746459	a	65
3925	41680	He was in great shape last night.	He was in great shape last night,.	1989578	1471976746627	1471976746699	s	83
3925	41680	He was in great shape last night.	He was in great shape last night,.	1989581	1471976746748	1471976746851	 	32
3925	41680	He was in great shape last night.	He was in great shape last night,.	1989583	1471976746875	1471976747059	i	73
3925	41680	He was in great shape last night.	He was in great shape last night,.	1989655	1471976747060	1471976747212	n	78
3925	41680	He was in great shape last night.	He was in great shape last night,.	1989585	1471976747099	1471976747156	 	32
3925	41680	He was in great shape last night.	He was in great shape last night,.	1989660	1471976747620	1471976747716	g	71
3925	41680	He was in great shape last night.	He was in great shape last night,.	1989666	1471976747900	1471976748036	r	82
3925	41680	He was in great shape last night.	He was in great shape last night,.	1989673	1471976747972	1471976748116	e	69
3925	41680	He was in great shape last night.	He was in great shape last night,.	1989678	1471976748091	1471976748243	a	65
3925	41680	He was in great shape last night.	He was in great shape last night,.	1989681	1471976748308	1471976748412	t	84
3925	41680	He was in great shape last night.	He was in great shape last night,.	1989736	1471976748468	1471976748628	 	32
3925	41680	He was in great shape last night.	He was in great shape last night,.	1989740	1471976748660	1471976748772	s	83
3925	41680	He was in great shape last night.	He was in great shape last night,.	1989743	1471976749060	1471976749164	a	65
3925	41680	He was in great shape last night.	He was in great shape last night,.	1989746	1471976749420	1471976749539	BKSP	8
3925	41680	He was in great shape last night.	He was in great shape last night,.	1989750	1471976749540	1471976749652	h	72
3925	41680	He was in great shape last night.	He was in great shape last night,.	1989793	1471976749612	1471976749755	a	65
3925	41680	He was in great shape last night.	He was in great shape last night,.	1989796	1471976749900	1471976750067	p	80
3925	41680	He was in great shape last night.	He was in great shape last night,.	1989801	1471976750068	1471976750187	e	69
3925	41680	He was in great shape last night.	He was in great shape last night,.	1989806	1471976750220	1471976750363	 	32
3925	41680	He was in great shape last night.	He was in great shape last night,.	1989810	1471976750420	1471976750587	l	76
3925	41680	He was in great shape last night.	He was in great shape last night,.	1989870	1471976750524	1471976750644	a	65
3925	41680	He was in great shape last night.	He was in great shape last night,.	1989873	1471976750763	1471976750892	s	83
3925	41680	He was in great shape last night.	He was in great shape last night,.	1989877	1471976750979	1471976751091	t	84
3925	41680	He was in great shape last night.	He was in great shape last night,.	1989880	1471976751132	1471976751235	 	32
3925	41680	He was in great shape last night.	He was in great shape last night,.	1989883	1471976751332	1471976751420	n	78
3925	41680	He was in great shape last night.	He was in great shape last night,.	1989884	1471976751460	1471976751555	i	73
3925	41680	He was in great shape last night.	He was in great shape last night,.	1989897	1471976751627	1471976751691	g	71
3925	41680	He was in great shape last night.	He was in great shape last night,.	1989900	1471976751692	1471976751796	h	72
3925	41680	He was in great shape last night.	He was in great shape last night,.	1989903	1471976751851	1471976751939	t	84
3925	41680	He was in great shape last night.	He was in great shape last night,.	1989905	1471976752444	1471976752476	.	188
3925	41692	I am all about Win-Win here.	I am all about Win-Win here.	1990251	1471976756604	1471976756827	SHIFT	16
3925	41692	I am all about Win-Win here.	I am all about Win-Win here.	1990254	1471976756708	1471976756827	I	73
3925	41692	I am all about Win-Win here.	I am all about Win-Win here.	1990258	1471976757060	1471976757195	 	32
3925	41692	I am all about Win-Win here.	I am all about Win-Win here.	1990264	1471976757179	1471976757300	a	65
3925	41692	I am all about Win-Win here.	I am all about Win-Win here.	1990270	1471976757411	1471976757531	m	77
3925	41692	I am all about Win-Win here.	I am all about Win-Win here.	1990277	1471976757579	1471976757700	 	32
3925	41692	I am all about Win-Win here.	I am all about Win-Win here.	1990298	1471976757748	1471976757883	a	65
3925	41692	I am all about Win-Win here.	I am all about Win-Win here.	1990304	1471976757915	1471976757987	l	76
3925	41692	I am all about Win-Win here.	I am all about Win-Win here.	1990308	1471976758076	1471976758163	l	76
3925	41692	I am all about Win-Win here.	I am all about Win-Win here.	1990311	1471976758196	1471976758340	 	32
3925	41692	I am all about Win-Win here.	I am all about Win-Win here.	1990314	1471976758372	1471976758491	a	65
3925	41692	I am all about Win-Win here.	I am all about Win-Win here.	1990370	1471976758699	1471976758803	b	66
3925	41692	I am all about Win-Win here.	I am all about Win-Win here.	1990373	1471976758836	1471976758956	o	79
3925	41692	I am all about Win-Win here.	I am all about Win-Win here.	1990379	1471976758980	1471976759074	u	85
3925	41692	I am all about Win-Win here.	I am all about Win-Win here.	1990385	1471976759075	1471976759219	t	84
3925	41692	I am all about Win-Win here.	I am all about Win-Win here.	1990391	1471976759682	1471976759826	 	32
3925	41692	I am all about Win-Win here.	I am all about Win-Win here.	1990515	1471976760051	1471976760346	SHIFT	16
3925	41692	I am all about Win-Win here.	I am all about Win-Win here.	1990512	1471976760202	1471976760267	W	87
3925	41692	I am all about Win-Win here.	I am all about Win-Win here.	1990519	1471976760818	1471976760898	i	73
3925	41692	I am all about Win-Win here.	I am all about Win-Win here.	1990525	1471976760946	1471976761010	n	78
3925	41692	I am all about Win-Win here.	I am all about Win-Win here.	1990532	1471976761610	1471976761674	-	189
3925	41692	I am all about Win-Win here.	I am all about Win-Win here.	1990584	1471976761826	1471976762322	SHIFT	16
3925	41692	I am all about Win-Win here.	I am all about Win-Win here.	1990536	1471976762091	1471976762274	W	87
3925	41692	I am all about Win-Win here.	I am all about Win-Win here.	1990588	1471976762379	1471976762482	i	73
3925	41692	I am all about Win-Win here.	I am all about Win-Win here.	1990592	1471976762506	1471976762610	n	78
3925	41692	I am all about Win-Win here.	I am all about Win-Win here.	1990595	1471976762915	1471976763010	 	32
3925	41692	I am all about Win-Win here.	I am all about Win-Win here.	1990598	1471976763090	1471976763194	h	72
3925	41692	I am all about Win-Win here.	I am all about Win-Win here.	1990601	1471976763227	1471976763275	e	69
3925	41692	I am all about Win-Win here.	I am all about Win-Win here.	1990672	1471976763395	1471976763546	r	82
3925	41692	I am all about Win-Win here.	I am all about Win-Win here.	1990678	1471976763482	1471976763650	e	69
3925	41692	I am all about Win-Win here.	I am all about Win-Win here.	1990686	1471976764139	1471976764203	.	190
3925	41708	But it takes time.	But it takes time.	1990883	1471976767515	1471976767835	SHIFT	16
3925	41708	But it takes time.	But it takes time.	1990881	1471976767683	1471976767755	B	66
3925	41708	But it takes time.	But it takes time.	1990885	1471976767971	1471976768098	u	85
3925	41708	But it takes time.	But it takes time.	1990889	1471976768202	1471976768330	i	73
3925	41708	But it takes time.	But it takes time.	1990893	1471976768354	1471976768467	t	84
3925	41708	But it takes time.	But it takes time.	1990897	1471976768515	1471976768618	 	32
3925	41708	But it takes time.	But it takes time.	1990979	1471976768787	1471976768842	BKSP	8
3925	41708	But it takes time.	But it takes time.	1990983	1471976769107	1471976769139	BKSP	8
3925	41708	But it takes time.	But it takes time.	1990987	1471976769235	1471976769322	BKSP	8
3925	41708	But it takes time.	But it takes time.	1990990	1471976769538	1471976769650	t	84
3925	41708	But it takes time.	But it takes time.	1990995	1471976769699	1471976769795	 	32
3925	41708	But it takes time.	But it takes time.	1991002	1471976769811	1471976769922	i	73
3925	41708	But it takes time.	But it takes time.	1991009	1471976770067	1471976770155	t	84
3925	41708	But it takes time.	But it takes time.	1991015	1471976770219	1471976770314	 	32
3925	41708	But it takes time.	But it takes time.	1991030	1471976770451	1471976770562	t	84
3925	41708	But it takes time.	But it takes time.	1991035	1471976770563	1471976770658	a	65
3925	41708	But it takes time.	But it takes time.	1991039	1471976770747	1471976770930	k	75
3925	41708	But it takes time.	But it takes time.	1991044	1471976770843	1471976770995	e	69
3925	41708	But it takes time.	But it takes time.	1991091	1471976770931	1471976771091	s	83
3925	41708	But it takes time.	But it takes time.	1991097	1471976771179	1471976771259	 	32
3925	41708	But it takes time.	But it takes time.	1991104	1471976771387	1471976771498	t	84
3925	41708	But it takes time.	But it takes time.	1991111	1471976771499	1471976771706	i	73
3925	41708	But it takes time.	But it takes time.	1991122	1471976771691	1471976771834	m	77
3925	41708	But it takes time.	But it takes time.	1991169	1471976771810	1471976771931	e	69
3925	41708	But it takes time.	But it takes time.	1991173	1471976772275	1471976772339	.	190
