PARTICIPANT_ID	TEST_SECTION_ID	SENTENCE	USER_INPUT	KEYSTROKE_ID	PRESS_TIME	RELEASE_TIME	LETTER	KEYCODE
3933	41551	We talked quietly while everybody gathered.	We talked quietly while everybody gathered.	1983854	1471976676921	1471976677224	SHIFT	16
3933	41551	We talked quietly while everybody gathered.	We talked quietly while everybody gathered.	1983850	1471976677031	1471976677156	W	87
3933	41551	We talked quietly while everybody gathered.	We talked quietly while everybody gathered.	1983860	1471976677388	1471976677498	e	69
3933	41551	We talked quietly while everybody gathered.	We talked quietly while everybody gathered.	1983867	1471976677504	1471976677577	 	32
3933	41551	We talked quietly while everybody gathered.	We talked quietly while everybody gathered.	1983871	1471976677650	1471976677774	t	84
3933	41551	We talked quietly while everybody gathered.	We talked quietly while everybody gathered.	1983891	1471976677763	1471976677920	a	65
3933	41551	We talked quietly while everybody gathered.	We talked quietly while everybody gathered.	1983896	1471976677825	1471976677943	l	76
3933	41551	We talked quietly while everybody gathered.	We talked quietly while everybody gathered.	1983901	1471976677882	1471976678006	k	75
3933	41551	We talked quietly while everybody gathered.	We talked quietly while everybody gathered.	1983906	1471976678023	1471976678102	e	69
3933	41551	We talked quietly while everybody gathered.	We talked quietly while everybody gathered.	1983910	1471976678209	1471976678306	d	68
3933	41551	We talked quietly while everybody gathered.	We talked quietly while everybody gathered.	1983947	1471976678262	1471976678333	 	32
3933	41551	We talked quietly while everybody gathered.	We talked quietly while everybody gathered.	1983952	1471976678431	1471976678580	q	81
3933	41551	We talked quietly while everybody gathered.	We talked quietly while everybody gathered.	1983957	1471976678537	1471976678648	u	85
3933	41551	We talked quietly while everybody gathered.	We talked quietly while everybody gathered.	1983964	1471976678697	1471976678792	i	73
3933	41551	We talked quietly while everybody gathered.	We talked quietly while everybody gathered.	1983969	1471976678814	1471976678997	e	69
3933	41551	We talked quietly while everybody gathered.	We talked quietly while everybody gathered.	1983984	1471976678955	1471976679090	t	84
3933	41551	We talked quietly while everybody gathered.	We talked quietly while everybody gathered.	1983986	1471976679118	1471976679232	l	76
3933	41551	We talked quietly while everybody gathered.	We talked quietly while everybody gathered.	1983989	1471976679247	1471976679355	y	89
3933	41551	We talked quietly while everybody gathered.	We talked quietly while everybody gathered.	1983993	1471976679336	1471976679417	 	32
3933	41551	We talked quietly while everybody gathered.	We talked quietly while everybody gathered.	1983999	1471976679461	1471976679563	w	87
3933	41551	We talked quietly while everybody gathered.	We talked quietly while everybody gathered.	1984024	1471976679515	1471976679610	h	72
3933	41551	We talked quietly while everybody gathered.	We talked quietly while everybody gathered.	1984032	1471976679573	1471976679666	i	73
3933	41551	We talked quietly while everybody gathered.	We talked quietly while everybody gathered.	1984040	1471976679752	1471976679873	l	76
3933	41551	We talked quietly while everybody gathered.	We talked quietly while everybody gathered.	1984051	1471976679857	1471976679926	e	69
3933	41551	We talked quietly while everybody gathered.	We talked quietly while everybody gathered.	1984058	1471976679944	1471976680014	 	32
3933	41551	We talked quietly while everybody gathered.	We talked quietly while everybody gathered.	1984063	1471976680031	1471976680102	e	69
3933	41551	We talked quietly while everybody gathered.	We talked quietly while everybody gathered.	1984076	1471976680189	1471976680279	v	86
3933	41551	We talked quietly while everybody gathered.	We talked quietly while everybody gathered.	1984080	1471976680339	1471976680455	e	69
3933	41551	We talked quietly while everybody gathered.	We talked quietly while everybody gathered.	1984083	1471976680405	1471976680518	r	82
3933	41551	We talked quietly while everybody gathered.	We talked quietly while everybody gathered.	1984085	1471976680520	1471976680603	y	89
3933	41551	We talked quietly while everybody gathered.	We talked quietly while everybody gathered.	1984088	1471976680653	1471976680729	b	66
3933	41551	We talked quietly while everybody gathered.	We talked quietly while everybody gathered.	1984143	1471976680724	1471976680822	o	79
3933	41551	We talked quietly while everybody gathered.	We talked quietly while everybody gathered.	1984146	1471976680846	1471976680955	d	68
3933	41551	We talked quietly while everybody gathered.	We talked quietly while everybody gathered.	1984152	1471976680921	1471976681034	y	89
3933	41551	We talked quietly while everybody gathered.	We talked quietly while everybody gathered.	1984157	1471976681009	1471976681088	 	32
3933	41551	We talked quietly while everybody gathered.	We talked quietly while everybody gathered.	1984163	1471976681378	1471976681459	g	71
3933	41551	We talked quietly while everybody gathered.	We talked quietly while everybody gathered.	1984166	1471976681502	1471976681663	a	65
3933	41551	We talked quietly while everybody gathered.	We talked quietly while everybody gathered.	1984211	1471976681601	1471976681692	t	84
3933	41551	We talked quietly while everybody gathered.	We talked quietly while everybody gathered.	1984212	1471976681706	1471976681788	e	69
3933	41551	We talked quietly while everybody gathered.	We talked quietly while everybody gathered.	1984214	1471976681773	1471976681857	h	72
3933	41551	We talked quietly while everybody gathered.	We talked quietly while everybody gathered.	1984216	1471976682140	1471976682197	BKSP	8
3933	41551	We talked quietly while everybody gathered.	We talked quietly while everybody gathered.	1984218	1471976682275	1471976682345	BKSP	8
3933	41551	We talked quietly while everybody gathered.	We talked quietly while everybody gathered.	1984222	1471976682444	1471976682527	h	72
3933	41551	We talked quietly while everybody gathered.	We talked quietly while everybody gathered.	1984225	1471976682518	1471976682638	e	69
3933	41551	We talked quietly while everybody gathered.	We talked quietly while everybody gathered.	1984267	1471976682598	1471976682718	r	82
3933	41551	We talked quietly while everybody gathered.	We talked quietly while everybody gathered.	1984271	1471976682727	1471976682800	e	69
3933	41551	We talked quietly while everybody gathered.	We talked quietly while everybody gathered.	1984274	1471976682899	1471976682982	d	68
3933	41551	We talked quietly while everybody gathered.	We talked quietly while everybody gathered.	1984279	1471976683028	1471976683136	.	190
3933	41572	Would you mind taking the lead on this?	Would you mind taking the lead on this?	1984527	1471976686732	1471976686859	SHIFT	16
3933	41572	Would you mind taking the lead on this?	Would you mind taking the lead on this?	1984530	1471976686797	1471976686916	W	87
3933	41572	Would you mind taking the lead on this?	Would you mind taking the lead on this?	1984534	1471976686944	1471976687041	o	79
3933	41572	Would you mind taking the lead on this?	Would you mind taking the lead on this?	1984539	1471976687000	1471976687105	u	85
3933	41572	Would you mind taking the lead on this?	Would you mind taking the lead on this?	1984541	1471976687184	1471976687289	l	76
3933	41572	Would you mind taking the lead on this?	Would you mind taking the lead on this?	1984543	1471976687266	1471976687356	d	68
3933	41572	Would you mind taking the lead on this?	Would you mind taking the lead on this?	1984545	1471976687305	1471976687399	 	32
3933	41572	Would you mind taking the lead on this?	Would you mind taking the lead on this?	1984547	1471976687407	1471976687490	y	89
3933	41572	Would you mind taking the lead on this?	Would you mind taking the lead on this?	1984550	1471976687466	1471976687626	o	79
3933	41572	Would you mind taking the lead on this?	Would you mind taking the lead on this?	1984590	1471976687569	1471976687685	u	85
3933	41572	Would you mind taking the lead on this?	Would you mind taking the lead on this?	1984592	1471976687618	1471976687702	 	32
3933	41572	Would you mind taking the lead on this?	Would you mind taking the lead on this?	1984595	1471976687815	1471976687894	m	77
3933	41572	Would you mind taking the lead on this?	Would you mind taking the lead on this?	1984601	1471976687938	1471976688050	i	73
3933	41572	Would you mind taking the lead on this?	Would you mind taking the lead on this?	1984605	1471976688007	1471976688124	n	78
3933	41572	Would you mind taking the lead on this?	Would you mind taking the lead on this?	1984613	1471976688132	1471976688216	d	68
3933	41572	Would you mind taking the lead on this?	Would you mind taking the lead on this?	1984620	1471976688222	1471976688297	 	32
3933	41572	Would you mind taking the lead on this?	Would you mind taking the lead on this?	1984631	1471976688307	1471976688385	t	84
3933	41572	Would you mind taking the lead on this?	Would you mind taking the lead on this?	1984636	1471976688412	1471976688608	a	65
3933	41572	Would you mind taking the lead on this?	Would you mind taking the lead on this?	1984641	1471976688497	1471976688608	k	75
3933	41572	Would you mind taking the lead on this?	Would you mind taking the lead on this?	1984644	1471976688660	1471976688773	i	73
3933	41572	Would you mind taking the lead on this?	Would you mind taking the lead on this?	1984661	1471976688758	1471976688828	n	78
3933	41572	Would you mind taking the lead on this?	Would you mind taking the lead on this?	1984669	1471976688817	1471976688913	g	71
3933	41572	Would you mind taking the lead on this?	Would you mind taking the lead on this?	1984674	1471976688871	1471976688950	 	32
3933	41572	Would you mind taking the lead on this?	Would you mind taking the lead on this?	1984684	1471976689008	1471976689102	t	84
3933	41572	Would you mind taking the lead on this?	Would you mind taking the lead on this?	1984688	1471976689055	1471976689152	h	72
3933	41572	Would you mind taking the lead on this?	Would you mind taking the lead on this?	1984706	1471976689138	1471976689282	e	69
3933	41572	Would you mind taking the lead on this?	Would you mind taking the lead on this?	1984712	1471976689269	1471976689340	 	32
3933	41572	Would you mind taking the lead on this?	Would you mind taking the lead on this?	1984719	1471976689378	1471976689513	l	76
3933	41572	Would you mind taking the lead on this?	Would you mind taking the lead on this?	1984725	1471976689495	1471976689585	e	69
3933	41572	Would you mind taking the lead on this?	Would you mind taking the lead on this?	1984733	1471976689602	1471976689779	a	65
3933	41572	Would you mind taking the lead on this?	Would you mind taking the lead on this?	1984751	1471976689745	1471976689886	d	68
3933	41572	Would you mind taking the lead on this?	Would you mind taking the lead on this?	1984752	1471976689809	1471976689901	 	32
3933	41572	Would you mind taking the lead on this?	Would you mind taking the lead on this?	1984755	1471976689893	1471976690031	o	79
3933	41572	Would you mind taking the lead on this?	Would you mind taking the lead on this?	1984758	1471976689958	1471976690076	n	78
3933	41572	Would you mind taking the lead on this?	Would you mind taking the lead on this?	1984760	1471976690042	1471976690117	 	32
3933	41572	Would you mind taking the lead on this?	Would you mind taking the lead on this?	1984765	1471976690126	1471976690221	t	84
3933	41572	Would you mind taking the lead on this?	Would you mind taking the lead on this?	1984876	1471976690184	1471976690289	h	72
3933	41572	Would you mind taking the lead on this?	Would you mind taking the lead on this?	1984880	1471976690240	1471976690370	i	73
3933	41572	Would you mind taking the lead on this?	Would you mind taking the lead on this?	1984883	1471976690343	1471976690445	s	83
3933	41572	Would you mind taking the lead on this?	Would you mind taking the lead on this?	1984888	1471976690576	1471976690757	SHIFT	16
3933	41572	Would you mind taking the lead on this?	Would you mind taking the lead on this?	1984886	1471976690654	1471976690752	>	190
3933	41572	Would you mind taking the lead on this?	Would you mind taking the lead on this?	1984891	1471976691324	1471976691389	BKSP	8
3933	41572	Would you mind taking the lead on this?	Would you mind taking the lead on this?	1984893	1471976691507	1471976691876	SHIFT	16
3933	41572	Would you mind taking the lead on this?	Would you mind taking the lead on this?	1984895	1471976691818	1471976691880	?	191
3933	41586	There is in fact few differences between the candidates.	There is in fact few differences between the candidates.	1985166	1471976696596	1471976696738	SHIFT	16
3933	41586	There is in fact few differences between the candidates.	There is in fact few differences between the candidates.	1985168	1471976696715	1471976696812	T	84
3933	41586	There is in fact few differences between the candidates.	There is in fact few differences between the candidates.	1985170	1471976696831	1471976696894	h	72
3933	41586	There is in fact few differences between the candidates.	There is in fact few differences between the candidates.	1985174	1471976696905	1471976696994	e	69
3933	41586	There is in fact few differences between the candidates.	There is in fact few differences between the candidates.	1985178	1471976696964	1471976697058	r	82
3933	41586	There is in fact few differences between the candidates.	There is in fact few differences between the candidates.	1985182	1471976697099	1471976697180	e	69
3933	41586	There is in fact few differences between the candidates.	There is in fact few differences between the candidates.	1985201	1471976697227	1471976697312	 	32
3933	41586	There is in fact few differences between the candidates.	There is in fact few differences between the candidates.	1985208	1471976697319	1471976697415	i	73
3933	41586	There is in fact few differences between the candidates.	There is in fact few differences between the candidates.	1985212	1471976697440	1471976697549	s	83
3933	41586	There is in fact few differences between the candidates.	There is in fact few differences between the candidates.	1985218	1471976697498	1471976697590	 	32
3933	41586	There is in fact few differences between the candidates.	There is in fact few differences between the candidates.	1985239	1471976697572	1471976697767	i	73
3933	41586	There is in fact few differences between the candidates.	There is in fact few differences between the candidates.	1985248	1471976697674	1471976697821	n	78
3933	41586	There is in fact few differences between the candidates.	There is in fact few differences between the candidates.	1985252	1471976697754	1471976697855	 	32
3933	41586	There is in fact few differences between the candidates.	There is in fact few differences between the candidates.	1985256	1471976697870	1471976697970	f	70
3933	41586	There is in fact few differences between the candidates.	There is in fact few differences between the candidates.	1985264	1471976697972	1471976698112	a	65
3933	41586	There is in fact few differences between the candidates.	There is in fact few differences between the candidates.	1985286	1471976698096	1471976698208	c	67
3933	41586	There is in fact few differences between the candidates.	There is in fact few differences between the candidates.	1985288	1471976698317	1471976698403	t	84
3933	41586	There is in fact few differences between the candidates.	There is in fact few differences between the candidates.	1985290	1471976698421	1471976698531	 	32
3933	41586	There is in fact few differences between the candidates.	There is in fact few differences between the candidates.	1985294	1471976698542	1471976698644	f	70
3933	41586	There is in fact few differences between the candidates.	There is in fact few differences between the candidates.	1985300	1471976698729	1471976698849	e	69
3933	41586	There is in fact few differences between the candidates.	There is in fact few differences between the candidates.	1985328	1471976698796	1471976698925	w	87
3933	41586	There is in fact few differences between the candidates.	There is in fact few differences between the candidates.	1985330	1471976698897	1471976698992	 	32
3933	41586	There is in fact few differences between the candidates.	There is in fact few differences between the candidates.	1985333	1471976699063	1471976699161	d	68
3933	41586	There is in fact few differences between the candidates.	There is in fact few differences between the candidates.	1985336	1471976699163	1471976699247	i	73
3933	41586	There is in fact few differences between the candidates.	There is in fact few differences between the candidates.	1985342	1471976699270	1471976699333	f	70
3933	41586	There is in fact few differences between the candidates.	There is in fact few differences between the candidates.	1985348	1471976699419	1471976699504	f	70
3933	41586	There is in fact few differences between the candidates.	There is in fact few differences between the candidates.	1985392	1471976699563	1471976699648	e	69
3933	41586	There is in fact few differences between the candidates.	There is in fact few differences between the candidates.	1985396	1471976699619	1471976699743	r	82
3933	41586	There is in fact few differences between the candidates.	There is in fact few differences between the candidates.	1985398	1471976699752	1471976699851	e	69
3933	41586	There is in fact few differences between the candidates.	There is in fact few differences between the candidates.	1985403	1471976699909	1471976700007	n	78
3933	41586	There is in fact few differences between the candidates.	There is in fact few differences between the candidates.	1985408	1471976700013	1471976700130	c	67
3933	41586	There is in fact few differences between the candidates.	There is in fact few differences between the candidates.	1985475	1471976700080	1471976700209	e	69
3933	41586	There is in fact few differences between the candidates.	There is in fact few differences between the candidates.	1985480	1471976700164	1471976700334	s	83
3933	41586	There is in fact few differences between the candidates.	There is in fact few differences between the candidates.	1985484	1471976700280	1471976700375	 	32
3933	41586	There is in fact few differences between the candidates.	There is in fact few differences between the candidates.	1985488	1471976700700	1471976700776	b	66
3933	41586	There is in fact few differences between the candidates.	There is in fact few differences between the candidates.	1985492	1471976700858	1471976701019	e	69
3933	41586	There is in fact few differences between the candidates.	There is in fact few differences between the candidates.	1985531	1471976700964	1471976701087	t	84
3933	41586	There is in fact few differences between the candidates.	There is in fact few differences between the candidates.	1985539	1471976701135	1471976701301	w	87
3933	41586	There is in fact few differences between the candidates.	There is in fact few differences between the candidates.	1985545	1471976701242	1471976701323	e	69
3933	41586	There is in fact few differences between the candidates.	There is in fact few differences between the candidates.	1985549	1471976701422	1471976701525	e	69
3933	41586	There is in fact few differences between the candidates.	There is in fact few differences between the candidates.	1985557	1471976701508	1471976701589	n	78
3933	41586	There is in fact few differences between the candidates.	There is in fact few differences between the candidates.	1985578	1471976701551	1471976701657	 	32
3933	41586	There is in fact few differences between the candidates.	There is in fact few differences between the candidates.	1985582	1471976701648	1471976701738	t	84
3933	41586	There is in fact few differences between the candidates.	There is in fact few differences between the candidates.	1985589	1471976701750	1471976701828	h	72
3933	41586	There is in fact few differences between the candidates.	There is in fact few differences between the candidates.	1985596	1471976701799	1471976701898	e	69
3933	41586	There is in fact few differences between the candidates.	There is in fact few differences between the candidates.	1985607	1471976701930	1471976702019	 	32
3933	41586	There is in fact few differences between the candidates.	There is in fact few differences between the candidates.	1985616	1471976702029	1471976702132	c	67
3933	41586	There is in fact few differences between the candidates.	There is in fact few differences between the candidates.	1985633	1471976702168	1471976702312	a	65
3933	41586	There is in fact few differences between the candidates.	There is in fact few differences between the candidates.	1985636	1471976702301	1471976702380	n	78
3933	41586	There is in fact few differences between the candidates.	There is in fact few differences between the candidates.	1985639	1471976702442	1471976702520	d	68
3933	41586	There is in fact few differences between the candidates.	There is in fact few differences between the candidates.	1985642	1471976702559	1471976702635	i	73
3933	41586	There is in fact few differences between the candidates.	There is in fact few differences between the candidates.	1985645	1471976702638	1471976702741	d	68
3933	41586	There is in fact few differences between the candidates.	There is in fact few differences between the candidates.	1985671	1471976702834	1471976702978	a	65
3933	41586	There is in fact few differences between the candidates.	There is in fact few differences between the candidates.	1985677	1471976702911	1471976703045	t	84
3933	41586	There is in fact few differences between the candidates.	There is in fact few differences between the candidates.	1985683	1471976702981	1471976703119	e	69
3933	41586	There is in fact few differences between the candidates.	There is in fact few differences between the candidates.	1985685	1471976703080	1471976703231	s	83
3933	41586	There is in fact few differences between the candidates.	There is in fact few differences between the candidates.	1985688	1471976703240	1471976703342	.	190
3933	41603	I don't want to let my nanny go home if you think you need me.	I don't want to let my nanny go home if you think you need me.	1985945	1471976707164	1471976707288	SHIFT	16
3933	41603	I don't want to let my nanny go home if you think you need me.	I don't want to let my nanny go home if you think you need me.	1985950	1471976707245	1471976707326	I	73
3933	41603	I don't want to let my nanny go home if you think you need me.	I don't want to let my nanny go home if you think you need me.	1985959	1471976707384	1471976707456	 	32
3933	41603	I don't want to let my nanny go home if you think you need me.	I don't want to let my nanny go home if you think you need me.	1985968	1471976707533	1471976707640	d	68
3933	41603	I don't want to let my nanny go home if you think you need me.	I don't want to let my nanny go home if you think you need me.	1985974	1471976707574	1471976707731	o	79
3933	41603	I don't want to let my nanny go home if you think you need me.	I don't want to let my nanny go home if you think you need me.	1986020	1471976707663	1471976707834	n	78
3933	41603	I don't want to let my nanny go home if you think you need me.	I don't want to let my nanny go home if you think you need me.	1986029	1471976707816	1471976707953	'	222
3933	41603	I don't want to let my nanny go home if you think you need me.	I don't want to let my nanny go home if you think you need me.	1986038	1471976707915	1471976707992	t	84
3933	41603	I don't want to let my nanny go home if you think you need me.	I don't want to let my nanny go home if you think you need me.	1986043	1471976708010	1471976708091	 	32
3933	41603	I don't want to let my nanny go home if you think you need me.	I don't want to let my nanny go home if you think you need me.	1986048	1471976708185	1471976708261	w	87
3933	41603	I don't want to let my nanny go home if you think you need me.	I don't want to let my nanny go home if you think you need me.	1986053	1471976708348	1471976708454	a	65
3933	41603	I don't want to let my nanny go home if you think you need me.	I don't want to let my nanny go home if you think you need me.	1986064	1471976708465	1471976708578	n	78
3933	41603	I don't want to let my nanny go home if you think you need me.	I don't want to let my nanny go home if you think you need me.	1986070	1471976708591	1471976708664	t	84
3933	41603	I don't want to let my nanny go home if you think you need me.	I don't want to let my nanny go home if you think you need me.	1986076	1471976708657	1471976708733	 	32
3933	41603	I don't want to let my nanny go home if you think you need me.	I don't want to let my nanny go home if you think you need me.	1986084	1471976708767	1471976708853	t	84
3933	41603	I don't want to let my nanny go home if you think you need me.	I don't want to let my nanny go home if you think you need me.	1986103	1471976708800	1471976708896	o	79
3933	41603	I don't want to let my nanny go home if you think you need me.	I don't want to let my nanny go home if you think you need me.	1986105	1471976708878	1471976708955	 	32
3933	41603	I don't want to let my nanny go home if you think you need me.	I don't want to let my nanny go home if you think you need me.	1986108	1471976709009	1471976709126	l	76
3933	41603	I don't want to let my nanny go home if you think you need me.	I don't want to let my nanny go home if you think you need me.	1986112	1471976709090	1471976709210	e	69
3933	41603	I don't want to let my nanny go home if you think you need me.	I don't want to let my nanny go home if you think you need me.	1986116	1471976709160	1471976709259	t	84
3933	41603	I don't want to let my nanny go home if you think you need me.	I don't want to let my nanny go home if you think you need me.	1986180	1471976709237	1471976709387	 	32
3933	41603	I don't want to let my nanny go home if you think you need me.	I don't want to let my nanny go home if you think you need me.	1986186	1471976709366	1471976709474	m	77
3933	41603	I don't want to let my nanny go home if you think you need me.	I don't want to let my nanny go home if you think you need me.	1986192	1471976709593	1471976709665	y	89
3933	41603	I don't want to let my nanny go home if you think you need me.	I don't want to let my nanny go home if you think you need me.	1986198	1471976709698	1471976709775	 	32
3933	41603	I don't want to let my nanny go home if you think you need me.	I don't want to let my nanny go home if you think you need me.	1986203	1471976709841	1471976709914	n	78
3933	41603	I don't want to let my nanny go home if you think you need me.	I don't want to let my nanny go home if you think you need me.	1986208	1471976709973	1471976710081	a	65
3933	41603	I don't want to let my nanny go home if you think you need me.	I don't want to let my nanny go home if you think you need me.	1986222	1471976710056	1471976710125	n	78
3933	41603	I don't want to let my nanny go home if you think you need me.	I don't want to let my nanny go home if you think you need me.	1986225	1471976710193	1471976710276	n	78
3933	41603	I don't want to let my nanny go home if you think you need me.	I don't want to let my nanny go home if you think you need me.	1986233	1471976710397	1471976710505	y	89
3933	41603	I don't want to let my nanny go home if you think you need me.	I don't want to let my nanny go home if you think you need me.	1986241	1471976710509	1471976710580	 	32
3933	41603	I don't want to let my nanny go home if you think you need me.	I don't want to let my nanny go home if you think you need me.	1986247	1471976710610	1471976710698	g	71
3933	41603	I don't want to let my nanny go home if you think you need me.	I don't want to let my nanny go home if you think you need me.	1986263	1471976710669	1471976710744	o	79
3933	41603	I don't want to let my nanny go home if you think you need me.	I don't want to let my nanny go home if you think you need me.	1986267	1471976710754	1471976710825	 	32
3933	41603	I don't want to let my nanny go home if you think you need me.	I don't want to let my nanny go home if you think you need me.	1986270	1471976710841	1471976710930	h	72
3933	41603	I don't want to let my nanny go home if you think you need me.	I don't want to let my nanny go home if you think you need me.	1986272	1471976710907	1471976711033	o	79
3933	41603	I don't want to let my nanny go home if you think you need me.	I don't want to let my nanny go home if you think you need me.	1986273	1471976711042	1471976711194	m	77
3933	41603	I don't want to let my nanny go home if you think you need me.	I don't want to let my nanny go home if you think you need me.	1986305	1471976711169	1471976711272	e	69
3933	41603	I don't want to let my nanny go home if you think you need me.	I don't want to let my nanny go home if you think you need me.	1986308	1471976711312	1471976711430	 	32
3933	41603	I don't want to let my nanny go home if you think you need me.	I don't want to let my nanny go home if you think you need me.	1986310	1471976711502	1471976711581	i	73
3933	41603	I don't want to let my nanny go home if you think you need me.	I don't want to let my nanny go home if you think you need me.	1986312	1471976711618	1471976711699	f	70
3933	41603	I don't want to let my nanny go home if you think you need me.	I don't want to let my nanny go home if you think you need me.	1986317	1471976711659	1471976711733	 	32
3933	41603	I don't want to let my nanny go home if you think you need me.	I don't want to let my nanny go home if you think you need me.	1986323	1471976711756	1471976711842	y	89
3933	41603	I don't want to let my nanny go home if you think you need me.	I don't want to let my nanny go home if you think you need me.	1986336	1471976711858	1471976712012	o	79
3933	41603	I don't want to let my nanny go home if you think you need me.	I don't want to let my nanny go home if you think you need me.	1986342	1471976711948	1471976712062	u	85
3933	41603	I don't want to let my nanny go home if you think you need me.	I don't want to let my nanny go home if you think you need me.	1986347	1471976711997	1471976712092	 	32
3933	41603	I don't want to let my nanny go home if you think you need me.	I don't want to let my nanny go home if you think you need me.	1986353	1471976712108	1471976712212	t	84
3933	41603	I don't want to let my nanny go home if you think you need me.	I don't want to let my nanny go home if you think you need me.	1986384	1471976712177	1471976712277	h	72
3933	41603	I don't want to let my nanny go home if you think you need me.	I don't want to let my nanny go home if you think you need me.	1986387	1471976712247	1471976712361	i	73
3933	41603	I don't want to let my nanny go home if you think you need me.	I don't want to let my nanny go home if you think you need me.	1986388	1471976712397	1471976712512	n	78
3933	41603	I don't want to let my nanny go home if you think you need me.	I don't want to let my nanny go home if you think you need me.	1986391	1471976712477	1471976712643	k	75
3933	41603	I don't want to let my nanny go home if you think you need me.	I don't want to let my nanny go home if you think you need me.	1986393	1471976712540	1471976712670	 	32
3933	41603	I don't want to let my nanny go home if you think you need me.	I don't want to let my nanny go home if you think you need me.	1986395	1471976712687	1471976712786	y	89
3933	41603	I don't want to let my nanny go home if you think you need me.	I don't want to let my nanny go home if you think you need me.	1986417	1471976712772	1471976712946	o	79
3933	41603	I don't want to let my nanny go home if you think you need me.	I don't want to let my nanny go home if you think you need me.	1986421	1471976712874	1471976712996	u	85
3933	41603	I don't want to let my nanny go home if you think you need me.	I don't want to let my nanny go home if you think you need me.	1986424	1471976712905	1471976713017	 	32
3933	41603	I don't want to let my nanny go home if you think you need me.	I don't want to let my nanny go home if you think you need me.	1986425	1471976713098	1471976713207	n	78
3933	41603	I don't want to let my nanny go home if you think you need me.	I don't want to let my nanny go home if you think you need me.	1986426	1471976713190	1471976713256	e	69
3933	41603	I don't want to let my nanny go home if you think you need me.	I don't want to let my nanny go home if you think you need me.	1986427	1471976713338	1471976713393	e	69
3933	41603	I don't want to let my nanny go home if you think you need me.	I don't want to let my nanny go home if you think you need me.	1986437	1471976713472	1471976713602	d	68
3933	41603	I don't want to let my nanny go home if you think you need me.	I don't want to let my nanny go home if you think you need me.	1986439	1471976713557	1471976713637	 	32
3933	41603	I don't want to let my nanny go home if you think you need me.	I don't want to let my nanny go home if you think you need me.	1986441	1471976713687	1471976713799	m	77
3933	41603	I don't want to let my nanny go home if you think you need me.	I don't want to let my nanny go home if you think you need me.	1986443	1471976713807	1471976713875	e	69
3933	41603	I don't want to let my nanny go home if you think you need me.	I don't want to let my nanny go home if you think you need me.	1986447	1471976713894	1471976713994	.	190
3933	41625	I think it should be fixed now.	I think it should be fixed now.	1986640	1471976716843	1471976716948	SHIFT	16
3933	41625	I think it should be fixed now.	I think it should be fixed now.	1986643	1471976716909	1471976717004	I	73
3933	41625	I think it should be fixed now.	I think it should be fixed now.	1986647	1471976716998	1471976717051	 	32
3933	41625	I think it should be fixed now.	I think it should be fixed now.	1986655	1471976717115	1471976717202	t	84
3933	41625	I think it should be fixed now.	I think it should be fixed now.	1986663	1471976717146	1471976717235	h	72
3933	41625	I think it should be fixed now.	I think it should be fixed now.	1986706	1471976717210	1471976717311	i	73
3933	41625	I think it should be fixed now.	I think it should be fixed now.	1986710	1471976717363	1471976717480	n	78
3933	41625	I think it should be fixed now.	I think it should be fixed now.	1986714	1471976717443	1471976717548	k	75
3933	41625	I think it should be fixed now.	I think it should be fixed now.	1986718	1471976717520	1471976717616	 	32
3933	41625	I think it should be fixed now.	I think it should be fixed now.	1986724	1471976717645	1471976717759	i	73
3933	41625	I think it should be fixed now.	I think it should be fixed now.	1986737	1471976717750	1471976717837	t	84
3933	41625	I think it should be fixed now.	I think it should be fixed now.	1986741	1471976717805	1471976717880	 	32
3933	41625	I think it should be fixed now.	I think it should be fixed now.	1986751	1471976717947	1471976718096	s	83
3933	41625	I think it should be fixed now.	I think it should be fixed now.	1986747	1471976717991	1471976718072	h	72
3933	41625	I think it should be fixed now.	I think it should be fixed now.	1986755	1471976718084	1471976718201	o	79
3933	41625	I think it should be fixed now.	I think it should be fixed now.	1986816	1471976718165	1471976718260	u	85
3933	41625	I think it should be fixed now.	I think it should be fixed now.	1986825	1471976718307	1471976718420	l	76
3933	41625	I think it should be fixed now.	I think it should be fixed now.	1986834	1471976718340	1471976718440	d	68
3933	41625	I think it should be fixed now.	I think it should be fixed now.	1986839	1471976718856	1471976718945	 	32
3933	41625	I think it should be fixed now.	I think it should be fixed now.	1986848	1471976718964	1471976719042	b	66
3933	41625	I think it should be fixed now.	I think it should be fixed now.	1986857	1471976719095	1471976719183	e	69
3933	41625	I think it should be fixed now.	I think it should be fixed now.	1986925	1471976719164	1471976719247	 	32
3933	41625	I think it should be fixed now.	I think it should be fixed now.	1986932	1471976719327	1471976719413	f	70
3933	41625	I think it should be fixed now.	I think it should be fixed now.	1986941	1471976719470	1471976719557	i	73
3933	41625	I think it should be fixed now.	I think it should be fixed now.	1986949	1471976719676	1471976719788	x	88
3933	41625	I think it should be fixed now.	I think it should be fixed now.	1986956	1471976719904	1471976719961	e	69
3933	41625	I think it should be fixed now.	I think it should be fixed now.	1986961	1471976720073	1471976720175	d	68
3933	41625	I think it should be fixed now.	I think it should be fixed now.	1986991	1471976720138	1471976720290	 	32
3933	41625	I think it should be fixed now.	I think it should be fixed now.	1986993	1471976720265	1471976720414	n	78
3933	41625	I think it should be fixed now.	I think it should be fixed now.	1987001	1471976720363	1471976720495	o	79
3933	41625	I think it should be fixed now.	I think it should be fixed now.	1987009	1471976720486	1471976720577	w	87
3933	41625	I think it should be fixed now.	I think it should be fixed now.	1987019	1471976720606	1471976720714	.	190
3933	41634	My only constraint is Chad's soccer game at noon.	My only constraint is Chad's soccer game at noon.	1987354	1471976724781	1471976724915	SHIFT	16
3933	41634	My only constraint is Chad's soccer game at noon.	My only constraint is Chad's soccer game at noon.	1987357	1471976724885	1471976724968	M	77
3933	41634	My only constraint is Chad's soccer game at noon.	My only constraint is Chad's soccer game at noon.	1987361	1471976725116	1471976725211	y	89
3933	41634	My only constraint is Chad's soccer game at noon.	My only constraint is Chad's soccer game at noon.	1987365	1471976725220	1471976725322	 	32
3933	41634	My only constraint is Chad's soccer game at noon.	My only constraint is Chad's soccer game at noon.	1987368	1471976725372	1471976725513	o	79
3933	41634	My only constraint is Chad's soccer game at noon.	My only constraint is Chad's soccer game at noon.	1987408	1471976725477	1471976725595	n	78
3933	41634	My only constraint is Chad's soccer game at noon.	My only constraint is Chad's soccer game at noon.	1987409	1471976725661	1471976725778	l	76
3933	41634	My only constraint is Chad's soccer game at noon.	My only constraint is Chad's soccer game at noon.	1987412	1471976725773	1471976725869	y	89
3933	41634	My only constraint is Chad's soccer game at noon.	My only constraint is Chad's soccer game at noon.	1987416	1471976725850	1471976725945	 	32
3933	41634	My only constraint is Chad's soccer game at noon.	My only constraint is Chad's soccer game at noon.	1987419	1471976725986	1471976726108	o	67
3933	41634	My only constraint is Chad's soccer game at noon.	My only constraint is Chad's soccer game at noon.	1987465	1471976726074	1471976726206	n	78
3933	41634	My only constraint is Chad's soccer game at noon.	My only constraint is Chad's soccer game at noon.	1987468	1471976726186	1471976726348	s	83
3933	41634	My only constraint is Chad's soccer game at noon.	My only constraint is Chad's soccer game at noon.	1987472	1471976726299	1471976726380	t	84
3933	41634	My only constraint is Chad's soccer game at noon.	My only constraint is Chad's soccer game at noon.	1987478	1471976726458	1471976726570	r	82
3933	41634	My only constraint is Chad's soccer game at noon.	My only constraint is Chad's soccer game at noon.	1987483	1471976726611	1471976726781	a	65
3933	41634	My only constraint is Chad's soccer game at noon.	My only constraint is Chad's soccer game at noon.	1987512	1471976726773	1471976726879	i	73
3933	41634	My only constraint is Chad's soccer game at noon.	My only constraint is Chad's soccer game at noon.	1987517	1471976726820	1471976726971	n	78
3933	41634	My only constraint is Chad's soccer game at noon.	My only constraint is Chad's soccer game at noon.	1987521	1471976726957	1471976727034	t	84
3933	41634	My only constraint is Chad's soccer game at noon.	My only constraint is Chad's soccer game at noon.	1987524	1471976727055	1471976727153	 	32
3933	41634	My only constraint is Chad's soccer game at noon.	My only constraint is Chad's soccer game at noon.	1987526	1471976727127	1471976727250	i	73
3933	41634	My only constraint is Chad's soccer game at noon.	My only constraint is Chad's soccer game at noon.	1987530	1471976727269	1471976727372	s	83
3933	41634	My only constraint is Chad's soccer game at noon.	My only constraint is Chad's soccer game at noon.	1987567	1471976727386	1471976727457	 	32
3933	41634	My only constraint is Chad's soccer game at noon.	My only constraint is Chad's soccer game at noon.	1987571	1471976727554	1471976727697	SHIFT	16
3933	41634	My only constraint is Chad's soccer game at noon.	My only constraint is Chad's soccer game at noon.	1987574	1471976727643	1471976727759	C	67
3933	41634	My only constraint is Chad's soccer game at noon.	My only constraint is Chad's soccer game at noon.	1987579	1471976727786	1471976727862	h	72
3933	41634	My only constraint is Chad's soccer game at noon.	My only constraint is Chad's soccer game at noon.	1987584	1471976727871	1471976727978	a	65
3933	41634	My only constraint is Chad's soccer game at noon.	My only constraint is Chad's soccer game at noon.	1987589	1471976728024	1471976728137	d	68
3933	41634	My only constraint is Chad's soccer game at noon.	My only constraint is Chad's soccer game at noon.	1987629	1471976728156	1471976728292	'	222
3933	41634	My only constraint is Chad's soccer game at noon.	My only constraint is Chad's soccer game at noon.	1987632	1471976728286	1471976728384	s	83
3933	41634	My only constraint is Chad's soccer game at noon.	My only constraint is Chad's soccer game at noon.	1987637	1471976728392	1471976728471	 	32
3933	41634	My only constraint is Chad's soccer game at noon.	My only constraint is Chad's soccer game at noon.	1987639	1471976728682	1471976728787	s	83
3933	41634	My only constraint is Chad's soccer game at noon.	My only constraint is Chad's soccer game at noon.	1987674	1471976728769	1471976728842	o	79
3933	41634	My only constraint is Chad's soccer game at noon.	My only constraint is Chad's soccer game at noon.	1987681	1471976728859	1471976728943	c	67
3933	41634	My only constraint is Chad's soccer game at noon.	My only constraint is Chad's soccer game at noon.	1987688	1471976729025	1471976729117	c	67
3933	41634	My only constraint is Chad's soccer game at noon.	My only constraint is Chad's soccer game at noon.	1987694	1471976729173	1471976729289	e	69
3933	41634	My only constraint is Chad's soccer game at noon.	My only constraint is Chad's soccer game at noon.	1987701	1471976729240	1471976729330	r	82
3933	41634	My only constraint is Chad's soccer game at noon.	My only constraint is Chad's soccer game at noon.	1987725	1471976729316	1471976729403	 	32
3933	41634	My only constraint is Chad's soccer game at noon.	My only constraint is Chad's soccer game at noon.	1987727	1471976729432	1471976729532	g	71
3933	41634	My only constraint is Chad's soccer game at noon.	My only constraint is Chad's soccer game at noon.	1987730	1471976729516	1471976729661	a	65
3933	41634	My only constraint is Chad's soccer game at noon.	My only constraint is Chad's soccer game at noon.	1987735	1471976729602	1471976729702	m	77
3933	41634	My only constraint is Chad's soccer game at noon.	My only constraint is Chad's soccer game at noon.	1987737	1471976729734	1471976729820	e	69
3933	41634	My only constraint is Chad's soccer game at noon.	My only constraint is Chad's soccer game at noon.	1987766	1471976729809	1471976729902	 	32
3933	41634	My only constraint is Chad's soccer game at noon.	My only constraint is Chad's soccer game at noon.	1987769	1471976729907	1471976730043	a	65
3933	41634	My only constraint is Chad's soccer game at noon.	My only constraint is Chad's soccer game at noon.	1987775	1471976729975	1471976730057	t	84
3933	41634	My only constraint is Chad's soccer game at noon.	My only constraint is Chad's soccer game at noon.	1987781	1471976730028	1471976730103	 	32
3933	41634	My only constraint is Chad's soccer game at noon.	My only constraint is Chad's soccer game at noon.	1987786	1471976730139	1471976730244	n	78
3933	41634	My only constraint is Chad's soccer game at noon.	My only constraint is Chad's soccer game at noon.	1987815	1471976730210	1471976730276	o	79
3933	41634	My only constraint is Chad's soccer game at noon.	My only constraint is Chad's soccer game at noon.	1987820	1471976730375	1471976730496	o	79
3933	41634	My only constraint is Chad's soccer game at noon.	My only constraint is Chad's soccer game at noon.	1987825	1471976730423	1471976730554	n	78
3933	41634	My only constraint is Chad's soccer game at noon.	My only constraint is Chad's soccer game at noon.	1987832	1471976730619	1471976730706	.	190
3933	41649	I am all about Win-Win here.	I am all about Win-Win here.	1988084	1471976733810	1471976733920	SHIFT	16
3933	41649	I am all about Win-Win here.	I am all about Win-Win here.	1988087	1471976733901	1471976733994	I	73
3933	41649	I am all about Win-Win here.	I am all about Win-Win here.	1988090	1471976734029	1471976734117	 	32
3933	41649	I am all about Win-Win here.	I am all about Win-Win here.	1988094	1471976734106	1471976734222	a	65
3933	41649	I am all about Win-Win here.	I am all about Win-Win here.	1988098	1471976734201	1471976734305	m	77
3933	41649	I am all about Win-Win here.	I am all about Win-Win here.	1988133	1471976734258	1471976734349	 	32
3933	41649	I am all about Win-Win here.	I am all about Win-Win here.	1988136	1471976734372	1471976734476	a	65
3933	41649	I am all about Win-Win here.	I am all about Win-Win here.	1988139	1471976734460	1471976734531	l	76
3933	41649	I am all about Win-Win here.	I am all about Win-Win here.	1988141	1471976734626	1471976734731	l	76
3933	41649	I am all about Win-Win here.	I am all about Win-Win here.	1988145	1471976734688	1471976734783	 	32
3933	41649	I am all about Win-Win here.	I am all about Win-Win here.	1988150	1471976734802	1471976734923	a	65
3933	41649	I am all about Win-Win here.	I am all about Win-Win here.	1988162	1471976734957	1471976735055	b	66
3933	41649	I am all about Win-Win here.	I am all about Win-Win here.	1988170	1471976735039	1471976735148	o	79
3933	41649	I am all about Win-Win here.	I am all about Win-Win here.	1988175	1471976735108	1471976735213	u	85
3933	41649	I am all about Win-Win here.	I am all about Win-Win here.	1988180	1471976735217	1471976735302	t	84
3933	41649	I am all about Win-Win here.	I am all about Win-Win here.	1988186	1471976735336	1471976735415	 	32
3933	41649	I am all about Win-Win here.	I am all about Win-Win here.	1988227	1471976735458	1471976735598	SHIFT	16
3933	41649	I am all about Win-Win here.	I am all about Win-Win here.	1988232	1471976735561	1471976735652	W	87
3933	41649	I am all about Win-Win here.	I am all about Win-Win here.	1988239	1471976735693	1471976735819	i	73
3933	41649	I am all about Win-Win here.	I am all about Win-Win here.	1988245	1471976735767	1471976735910	n	78
3933	41649	I am all about Win-Win here.	I am all about Win-Win here.	1988249	1471976736326	1471976736405	-	189
3933	41649	I am all about Win-Win here.	I am all about Win-Win here.	1988253	1471976736556	1471976736672	SHIFT	16
3933	41649	I am all about Win-Win here.	I am all about Win-Win here.	1988273	1471976736611	1471976736704	W	87
3933	41649	I am all about Win-Win here.	I am all about Win-Win here.	1988279	1471976736777	1471976736923	i	73
3933	41649	I am all about Win-Win here.	I am all about Win-Win here.	1988287	1471976736862	1471976736997	n	78
3933	41649	I am all about Win-Win here.	I am all about Win-Win here.	1988292	1471976737004	1471976737154	 	32
3933	41649	I am all about Win-Win here.	I am all about Win-Win here.	1988301	1471976737236	1471976737306	h	72
3933	41649	I am all about Win-Win here.	I am all about Win-Win here.	1988307	1471976737336	1471976737429	e	69
3933	41649	I am all about Win-Win here.	I am all about Win-Win here.	1988318	1471976737401	1471976737494	r	82
3933	41649	I am all about Win-Win here.	I am all about Win-Win here.	1988320	1471976737524	1471976737602	e	69
3933	41649	I am all about Win-Win here.	I am all about Win-Win here.	1988322	1471976737654	1471976737747	.	190
3933	41662	Don't they have some conflicts here?	Don't they have some conflicts here?	1988619	1471976741103	1471976741230	SHIFT	16
3933	41662	Don't they have some conflicts here?	Don't they have some conflicts here?	1988621	1471976741198	1471976741296	D	68
3933	41662	Don't they have some conflicts here?	Don't they have some conflicts here?	1988625	1471976741347	1471976741472	o	79
3933	41662	Don't they have some conflicts here?	Don't they have some conflicts here?	1988633	1471976741418	1471976741559	n	78
3933	41662	Don't they have some conflicts here?	Don't they have some conflicts here?	1988640	1471976741606	1471976741746	'	222
3933	41662	Don't they have some conflicts here?	Don't they have some conflicts here?	1988646	1471976741765	1471976741840	t	84
3933	41662	Don't they have some conflicts here?	Don't they have some conflicts here?	1988661	1471976741863	1471976741939	 	32
3933	41662	Don't they have some conflicts here?	Don't they have some conflicts here?	1988664	1471976741977	1471976742059	t	84
3933	41662	Don't they have some conflicts here?	Don't they have some conflicts here?	1988666	1471976742049	1471976742131	h	72
3933	41662	Don't they have some conflicts here?	Don't they have some conflicts here?	1988670	1471976742162	1471976742252	e	69
3933	41662	Don't they have some conflicts here?	Don't they have some conflicts here?	1988672	1471976742255	1471976742339	y	89
3933	41662	Don't they have some conflicts here?	Don't they have some conflicts here?	1988676	1471976742316	1471976742396	 	32
3933	41662	Don't they have some conflicts here?	Don't they have some conflicts here?	1988682	1471976742435	1471976742551	h	72
3933	41662	Don't they have some conflicts here?	Don't they have some conflicts here?	1988693	1471976742521	1471976742673	a	65
3933	41662	Don't they have some conflicts here?	Don't they have some conflicts here?	1988699	1471976742591	1471976742711	v	86
3933	41662	Don't they have some conflicts here?	Don't they have some conflicts here?	1988705	1471976742675	1471976742778	e	69
3933	41662	Don't they have some conflicts here?	Don't they have some conflicts here?	1988722	1471976742742	1471976742842	 	32
3933	41662	Don't they have some conflicts here?	Don't they have some conflicts here?	1988728	1471976742902	1471976743005	s	83
3933	41662	Don't they have some conflicts here?	Don't they have some conflicts here?	1988736	1471976742958	1471976743083	o	79
3933	41662	Don't they have some conflicts here?	Don't they have some conflicts here?	1988741	1471976743030	1471976743158	m	77
3933	41662	Don't they have some conflicts here?	Don't they have some conflicts here?	1988745	1471976743149	1471976743246	e	69
3933	41662	Don't they have some conflicts here?	Don't they have some conflicts here?	1988768	1471976743216	1471976743301	 	32
3933	41662	Don't they have some conflicts here?	Don't they have some conflicts here?	1988771	1471976743324	1471976743460	c	67
3933	41662	Don't they have some conflicts here?	Don't they have some conflicts here?	1988774	1471976743384	1471976743507	o	79
3933	41662	Don't they have some conflicts here?	Don't they have some conflicts here?	1988776	1471976743452	1471976743551	n	78
3933	41662	Don't they have some conflicts here?	Don't they have some conflicts here?	1988778	1471976743560	1471976743654	f	70
3933	41662	Don't they have some conflicts here?	Don't they have some conflicts here?	1988780	1471976743764	1471976743885	l	76
3933	41662	Don't they have some conflicts here?	Don't they have some conflicts here?	1988829	1471976743833	1471976743941	i	73
3933	41662	Don't they have some conflicts here?	Don't they have some conflicts here?	1988832	1471976743926	1471976744017	c	67
3933	41662	Don't they have some conflicts here?	Don't they have some conflicts here?	1988835	1471976744436	1471976744530	t	84
3933	41662	Don't they have some conflicts here?	Don't they have some conflicts here?	1988837	1471976744614	1471976744750	s	83
3933	41662	Don't they have some conflicts here?	Don't they have some conflicts here?	1988839	1471976744734	1471976744818	 	32
3933	41662	Don't they have some conflicts here?	Don't they have some conflicts here?	1988840	1471976744891	1471976744979	h	72
3933	41662	Don't they have some conflicts here?	Don't they have some conflicts here?	1988946	1471976744968	1471976745067	e	69
3933	41662	Don't they have some conflicts here?	Don't they have some conflicts here?	1988951	1471976745033	1471976745116	r	82
3933	41662	Don't they have some conflicts here?	Don't they have some conflicts here?	1988958	1471976745159	1471976745235	e	69
3933	41662	Don't they have some conflicts here?	Don't they have some conflicts here?	1988966	1471976745354	1471976745547	SHIFT	16
3933	41662	Don't they have some conflicts here?	Don't they have some conflicts here?	1988962	1471976745460	1471976745520	>	190
3933	41662	Don't they have some conflicts here?	Don't they have some conflicts here?	1988969	1471976745936	1471976746005	BKSP	8
3933	41662	Don't they have some conflicts here?	Don't they have some conflicts here?	1988977	1471976746074	1471976746444	SHIFT	16
3933	41662	Don't they have some conflicts here?	Don't they have some conflicts here?	1988972	1471976746376	1471976746436	?	191
3933	41676	How would you explain the difference between the two?	How would you explain the difference between the two?	1989295	1471976750306	1471976750451	SHIFT	16
3933	41676	How would you explain the difference between the two?	How would you explain the difference between the two?	1989300	1471976750420	1471976750507	H	72
3933	41676	How would you explain the difference between the two?	How would you explain the difference between the two?	1989302	1471976750706	1471976750813	o	79
3933	41676	How would you explain the difference between the two?	How would you explain the difference between the two?	1989305	1471976750863	1471976750947	w	87
3933	41676	How would you explain the difference between the two?	How would you explain the difference between the two?	1989308	1471976750971	1471976751043	 	32
3933	41676	How would you explain the difference between the two?	How would you explain the difference between the two?	1989310	1471976751092	1471976751193	w	87
3933	41676	How would you explain the difference between the two?	How would you explain the difference between the two?	1989322	1471976751140	1471976751247	o	79
3933	41676	How would you explain the difference between the two?	How would you explain the difference between the two?	1989325	1471976751213	1471976751305	u	85
3933	41676	How would you explain the difference between the two?	How would you explain the difference between the two?	1989328	1471976751393	1471976751517	l	76
3933	41676	How would you explain the difference between the two?	How would you explain the difference between the two?	1989336	1471976751479	1471976751584	d	68
3933	41676	How would you explain the difference between the two?	How would you explain the difference between the two?	1989341	1471976751562	1471976751672	 	32
3933	41676	How would you explain the difference between the two?	How would you explain the difference between the two?	1989346	1471976751683	1471976751771	y	89
3933	41676	How would you explain the difference between the two?	How would you explain the difference between the two?	1989377	1471976751775	1471976751931	o	79
3933	41676	How would you explain the difference between the two?	How would you explain the difference between the two?	1989379	1471976751872	1471976751991	u	85
3933	41676	How would you explain the difference between the two?	How would you explain the difference between the two?	1989381	1471976751919	1471976752033	 	32
3933	41676	How would you explain the difference between the two?	How would you explain the difference between the two?	1989382	1471976752060	1471976752142	e	69
3933	41676	How would you explain the difference between the two?	How would you explain the difference between the two?	1989383	1471976752261	1471976752373	x	88
3933	41676	How would you explain the difference between the two?	How would you explain the difference between the two?	1989407	1471976752308	1471976752416	p	80
3933	41676	How would you explain the difference between the two?	How would you explain the difference between the two?	1989411	1471976752533	1471976752704	l	76
3933	41676	How would you explain the difference between the two?	How would you explain the difference between the two?	1989416	1471976752830	1471976752961	a	65
3933	41676	How would you explain the difference between the two?	How would you explain the difference between the two?	1989422	1471976752927	1471976753050	i	73
3933	41676	How would you explain the difference between the two?	How would you explain the difference between the two?	1989429	1471976753002	1471976753143	n	78
3933	41676	How would you explain the difference between the two?	How would you explain the difference between the two?	1989454	1471976753104	1471976753211	 	32
3933	41676	How would you explain the difference between the two?	How would you explain the difference between the two?	1989459	1471976753213	1471976753286	t	84
3933	41676	How would you explain the difference between the two?	How would you explain the difference between the two?	1989463	1471976753296	1471976753377	h	72
3933	41676	How would you explain the difference between the two?	How would you explain the difference between the two?	1989466	1471976753365	1471976753443	e	69
3933	41676	How would you explain the difference between the two?	How would you explain the difference between the two?	1989472	1471976753434	1471976753509	 	32
3933	41676	How would you explain the difference between the two?	How would you explain the difference between the two?	1989476	1471976753559	1471976753645	d	68
3933	41676	How would you explain the difference between the two?	How would you explain the difference between the two?	1989500	1471976753629	1471976753713	i	73
3933	41676	How would you explain the difference between the two?	How would you explain the difference between the two?	1989503	1471976753735	1471976753804	f	70
3933	41676	How would you explain the difference between the two?	How would you explain the difference between the two?	1989506	1471976753875	1471976753972	f	70
3933	41676	How would you explain the difference between the two?	How would you explain the difference between the two?	1989507	1471976754033	1471976754117	e	69
3933	41676	How would you explain the difference between the two?	How would you explain the difference between the two?	1989508	1471976754085	1471976754201	r	82
3933	41676	How would you explain the difference between the two?	How would you explain the difference between the two?	1989510	1471976754214	1471976754317	e	69
3933	41676	How would you explain the difference between the two?	How would you explain the difference between the two?	1989531	1471976754345	1471976754425	n	78
3933	41676	How would you explain the difference between the two?	How would you explain the difference between the two?	1989535	1471976754467	1471976754564	c	67
3933	41676	How would you explain the difference between the two?	How would you explain the difference between the two?	1989538	1471976754511	1471976754665	e	69
3933	41676	How would you explain the difference between the two?	How would you explain the difference between the two?	1989545	1471976754586	1471976754685	 	32
3933	41676	How would you explain the difference between the two?	How would you explain the difference between the two?	1989552	1471976754864	1471976754948	b	66
3933	41676	How would you explain the difference between the two?	How would you explain the difference between the two?	1989587	1471976755018	1471976755191	e	69
3933	41676	How would you explain the difference between the two?	How would you explain the difference between the two?	1989588	1471976755138	1471976755229	t	84
3933	41676	How would you explain the difference between the two?	How would you explain the difference between the two?	1989590	1471976755320	1471976755458	w	87
3933	41676	How would you explain the difference between the two?	How would you explain the difference between the two?	1989592	1471976755402	1471976755499	e	69
3933	41676	How would you explain the difference between the two?	How would you explain the difference between the two?	1989595	1471976755591	1471976755690	e	69
3933	41676	How would you explain the difference between the two?	How would you explain the difference between the two?	1989604	1471976755663	1471976755754	n	78
3933	41676	How would you explain the difference between the two?	How would you explain the difference between the two?	1989608	1471976755724	1471976755823	 	32
3933	41676	How would you explain the difference between the two?	How would you explain the difference between the two?	1989612	1471976755804	1471976755881	t	84
3933	41676	How would you explain the difference between the two?	How would you explain the difference between the two?	1989618	1471976755892	1471976755976	h	72
3933	41676	How would you explain the difference between the two?	How would you explain the difference between the two?	1989624	1471976755961	1471976756047	e	69
3933	41676	How would you explain the difference between the two?	How would you explain the difference between the two?	1989712	1471976756021	1471976756089	 	32
3933	41676	How would you explain the difference between the two?	How would you explain the difference between the two?	1989715	1471976756121	1471976756207	t	84
3933	41676	How would you explain the difference between the two?	How would you explain the difference between the two?	1989719	1471976756286	1471976756383	w	87
3933	41676	How would you explain the difference between the two?	How would you explain the difference between the two?	1989723	1471976756403	1471976756475	o	79
3933	41676	How would you explain the difference between the two?	How would you explain the difference between the two?	1989728	1471976756578	1471976757161	SHIFT	16
3933	41676	How would you explain the difference between the two?	How would you explain the difference between the two?	1989725	1471976757060	1471976757135	?	191
3933	41690	Let's leave it until we get going.	Let's leave it until we get going.	1989919	1471976760234	1471976760386	SHIFT	16
3933	41690	Let's leave it until we get going.	Let's leave it until we get going.	1989922	1471976760357	1471976760452	L	76
3933	41690	Let's leave it until we get going.	Let's leave it until we get going.	1989925	1471976760512	1471976760635	e	69
3933	41690	Let's leave it until we get going.	Let's leave it until we get going.	1989929	1471976760563	1471976760670	t	84
3933	41690	Let's leave it until we get going.	Let's leave it until we get going.	1989932	1471976760726	1471976760852	'	222
3933	41690	Let's leave it until we get going.	Let's leave it until we get going.	1989968	1471976760841	1471976760922	s	83
3933	41690	Let's leave it until we get going.	Let's leave it until we get going.	1989971	1471976760925	1471976760996	 	32
3933	41690	Let's leave it until we get going.	Let's leave it until we get going.	1989974	1471976761052	1471976761168	l	76
3933	41690	Let's leave it until we get going.	Let's leave it until we get going.	1989979	1471976761129	1471976761232	e	69
3933	41690	Let's leave it until we get going.	Let's leave it until we get going.	1989982	1471976761255	1471976761424	a	65
3933	41690	Let's leave it until we get going.	Let's leave it until we get going.	1989996	1471976761385	1471976761507	v	86
3933	41690	Let's leave it until we get going.	Let's leave it until we get going.	1990002	1471976761472	1471976761576	e	69
3933	41690	Let's leave it until we get going.	Let's leave it until we get going.	1990007	1471976761522	1471976761617	 	32
3933	41690	Let's leave it until we get going.	Let's leave it until we get going.	1990012	1471976761646	1471976761752	i	73
3933	41690	Let's leave it until we get going.	Let's leave it until we get going.	1990020	1471976761769	1471976761854	t	84
3933	41690	Let's leave it until we get going.	Let's leave it until we get going.	1990024	1471976761867	1471976761939	 	32
3933	41690	Let's leave it until we get going.	Let's leave it until we get going.	1990046	1471976761998	1471976762073	u	85
3933	41690	Let's leave it until we get going.	Let's leave it until we get going.	1990049	1471976762158	1471976762268	n	78
3933	41690	Let's leave it until we get going.	Let's leave it until we get going.	1990055	1471976762280	1471976762355	t	84
3933	41690	Let's leave it until we get going.	Let's leave it until we get going.	1990063	1471976762365	1471976762449	i	73
3933	41690	Let's leave it until we get going.	Let's leave it until we get going.	1990070	1471976762503	1471976762610	l	76
3933	41690	Let's leave it until we get going.	Let's leave it until we get going.	1990105	1471976762584	1471976762696	 	32
3933	41690	Let's leave it until we get going.	Let's leave it until we get going.	1990110	1471976762682	1471976762799	w	87
3933	41690	Let's leave it until we get going.	Let's leave it until we get going.	1990113	1471976762753	1471976762854	e	69
3933	41690	Let's leave it until we get going.	Let's leave it until we get going.	1990116	1471976762863	1471976762949	 	32
3933	41690	Let's leave it until we get going.	Let's leave it until we get going.	1990118	1471976762973	1471976763044	g	71
3933	41690	Let's leave it until we get going.	Let's leave it until we get going.	1990124	1471976763078	1471976763200	e	69
3933	41690	Let's leave it until we get going.	Let's leave it until we get going.	1990130	1471976763176	1471976763256	t	84
3933	41690	Let's leave it until we get going.	Let's leave it until we get going.	1990133	1471976763237	1471976763329	 	32
3933	41690	Let's leave it until we get going.	Let's leave it until we get going.	1990138	1471976763383	1471976763484	g	71
3933	41690	Let's leave it until we get going.	Let's leave it until we get going.	1990142	1471976763453	1471976763633	o	79
3933	41690	Let's leave it until we get going.	Let's leave it until we get going.	1990159	1471976763523	1471976763665	i	73
3933	41690	Let's leave it until we get going.	Let's leave it until we get going.	1990161	1471976763608	1471976763737	n	78
3933	41690	Let's leave it until we get going.	Let's leave it until we get going.	1990164	1471976763728	1471976763795	g	71
3933	41690	Let's leave it until we get going.	Let's leave it until we get going.	1990167	1471976763824	1471976763919	.	190
3933	41695	The Senate defied President Bill Clinton on Thursday.	The Senate defied President Bill Clinton on Thursday.	1990403	1471976767627	1471976767803	SHIFT	16
3933	41695	The Senate defied President Bill Clinton on Thursday.	The Senate defied President Bill Clinton on Thursday.	1990407	1471976767751	1471976767841	T	84
3933	41695	The Senate defied President Bill Clinton on Thursday.	The Senate defied President Bill Clinton on Thursday.	1990411	1471976767918	1471976767990	h	72
3933	41695	The Senate defied President Bill Clinton on Thursday.	The Senate defied President Bill Clinton on Thursday.	1990415	1471976768020	1471976768100	e	69
3933	41695	The Senate defied President Bill Clinton on Thursday.	The Senate defied President Bill Clinton on Thursday.	1990417	1471976768125	1471976768184	 	32
3933	41695	The Senate defied President Bill Clinton on Thursday.	The Senate defied President Bill Clinton on Thursday.	1990419	1471976768350	1471976768472	SHIFT	16
3933	41695	The Senate defied President Bill Clinton on Thursday.	The Senate defied President Bill Clinton on Thursday.	1990425	1471976768433	1471976768509	S	83
3933	41695	The Senate defied President Bill Clinton on Thursday.	The Senate defied President Bill Clinton on Thursday.	1990427	1471976768596	1471976768706	e	69
3933	41695	The Senate defied President Bill Clinton on Thursday.	The Senate defied President Bill Clinton on Thursday.	1990429	1471976768713	1471976768807	n	78
3933	41695	The Senate defied President Bill Clinton on Thursday.	The Senate defied President Bill Clinton on Thursday.	1990432	1471976768764	1471976768960	a	65
3933	41695	The Senate defied President Bill Clinton on Thursday.	The Senate defied President Bill Clinton on Thursday.	1990434	1471976768873	1471976769014	t	84
3933	41695	The Senate defied President Bill Clinton on Thursday.	The Senate defied President Bill Clinton on Thursday.	1990479	1471976768963	1471976769109	e	69
3933	41695	The Senate defied President Bill Clinton on Thursday.	The Senate defied President Bill Clinton on Thursday.	1990481	1471976769055	1471976769139	 	32
3933	41695	The Senate defied President Bill Clinton on Thursday.	The Senate defied President Bill Clinton on Thursday.	1990484	1471976769256	1471976769342	d	68
3933	41695	The Senate defied President Bill Clinton on Thursday.	The Senate defied President Bill Clinton on Thursday.	1990488	1471976769475	1471976769551	e	69
3933	41695	The Senate defied President Bill Clinton on Thursday.	The Senate defied President Bill Clinton on Thursday.	1990492	1471976769599	1471976769705	f	70
3933	41695	The Senate defied President Bill Clinton on Thursday.	The Senate defied President Bill Clinton on Thursday.	1990496	1471976769745	1471976769821	i	73
3933	41695	The Senate defied President Bill Clinton on Thursday.	The Senate defied President Bill Clinton on Thursday.	1990523	1471976769855	1471976769931	e	69
3933	41695	The Senate defied President Bill Clinton on Thursday.	The Senate defied President Bill Clinton on Thursday.	1990529	1471976770023	1471976770117	d	68
3933	41695	The Senate defied President Bill Clinton on Thursday.	The Senate defied President Bill Clinton on Thursday.	1990533	1471976770105	1471976770198	 	32
3933	41695	The Senate defied President Bill Clinton on Thursday.	The Senate defied President Bill Clinton on Thursday.	1990539	1471976770226	1471976770353	SHIFT	16
3933	41695	The Senate defied President Bill Clinton on Thursday.	The Senate defied President Bill Clinton on Thursday.	1990543	1471976770307	1471976770385	P	80
3933	41695	The Senate defied President Bill Clinton on Thursday.	The Senate defied President Bill Clinton on Thursday.	1990546	1471976770435	1471976770570	r	82
3933	41695	The Senate defied President Bill Clinton on Thursday.	The Senate defied President Bill Clinton on Thursday.	1990555	1471976770495	1471976770633	e	69
3933	41695	The Senate defied President Bill Clinton on Thursday.	The Senate defied President Bill Clinton on Thursday.	1990559	1471976770585	1471976770725	s	83
3933	41695	The Senate defied President Bill Clinton on Thursday.	The Senate defied President Bill Clinton on Thursday.	1990564	1471976770733	1471976770820	i	73
3933	41695	The Senate defied President Bill Clinton on Thursday.	The Senate defied President Bill Clinton on Thursday.	1990570	1471976770838	1471976770914	d	68
3933	41695	The Senate defied President Bill Clinton on Thursday.	The Senate defied President Bill Clinton on Thursday.	1990575	1471976771015	1471976771094	e	69
3933	41695	The Senate defied President Bill Clinton on Thursday.	The Senate defied President Bill Clinton on Thursday.	1990608	1471976771053	1471976771166	n	78
3933	41695	The Senate defied President Bill Clinton on Thursday.	The Senate defied President Bill Clinton on Thursday.	1990611	1471976771210	1471976771293	t	84
3933	41695	The Senate defied President Bill Clinton on Thursday.	The Senate defied President Bill Clinton on Thursday.	1990615	1471976771287	1471976771361	 	32
3933	41695	The Senate defied President Bill Clinton on Thursday.	The Senate defied President Bill Clinton on Thursday.	1990624	1471976771406	1471976771545	SHIFT	16
3933	41695	The Senate defied President Bill Clinton on Thursday.	The Senate defied President Bill Clinton on Thursday.	1990631	1471976771484	1471976771580	B	66
3933	41695	The Senate defied President Bill Clinton on Thursday.	The Senate defied President Bill Clinton on Thursday.	1990638	1471976771652	1471976771731	i	73
3933	41695	The Senate defied President Bill Clinton on Thursday.	The Senate defied President Bill Clinton on Thursday.	1990643	1471976771823	1471976771891	l	76
3933	41695	The Senate defied President Bill Clinton on Thursday.	The Senate defied President Bill Clinton on Thursday.	1990661	1471976771991	1471976772117	l	76
3933	41695	The Senate defied President Bill Clinton on Thursday.	The Senate defied President Bill Clinton on Thursday.	1990666	1471976772102	1471976772177	 	32
3933	41695	The Senate defied President Bill Clinton on Thursday.	The Senate defied President Bill Clinton on Thursday.	1990668	1471976772244	1471976772391	SHIFT	16
3933	41695	The Senate defied President Bill Clinton on Thursday.	The Senate defied President Bill Clinton on Thursday.	1990673	1471976772346	1471976772452	C	67
3933	41695	The Senate defied President Bill Clinton on Thursday.	The Senate defied President Bill Clinton on Thursday.	1990680	1471976772461	1471976772568	l	76
3933	41695	The Senate defied President Bill Clinton on Thursday.	The Senate defied President Bill Clinton on Thursday.	1990688	1471976772602	1471976772775	i	73
3933	41695	The Senate defied President Bill Clinton on Thursday.	The Senate defied President Bill Clinton on Thursday.	1990701	1471976772694	1471976772841	n	78
3933	41695	The Senate defied President Bill Clinton on Thursday.	The Senate defied President Bill Clinton on Thursday.	1990703	1471976772822	1471976772897	t	84
3933	41695	The Senate defied President Bill Clinton on Thursday.	The Senate defied President Bill Clinton on Thursday.	1990706	1471976772912	1471976773028	o	79
3933	41695	The Senate defied President Bill Clinton on Thursday.	The Senate defied President Bill Clinton on Thursday.	1990710	1471976772973	1471976773084	n	78
3933	41695	The Senate defied President Bill Clinton on Thursday.	The Senate defied President Bill Clinton on Thursday.	1990713	1471976773042	1471976773149	 	32
3933	41695	The Senate defied President Bill Clinton on Thursday.	The Senate defied President Bill Clinton on Thursday.	1990716	1471976773156	1471976773261	o	79
3933	41695	The Senate defied President Bill Clinton on Thursday.	The Senate defied President Bill Clinton on Thursday.	1990768	1471976773219	1471976773329	n	78
3933	41695	The Senate defied President Bill Clinton on Thursday.	The Senate defied President Bill Clinton on Thursday.	1990772	1471976773283	1471976773358	 	32
3933	41695	The Senate defied President Bill Clinton on Thursday.	The Senate defied President Bill Clinton on Thursday.	1990775	1471976773433	1471976773547	SHIFT	16
3933	41695	The Senate defied President Bill Clinton on Thursday.	The Senate defied President Bill Clinton on Thursday.	1990777	1471976773510	1471976773602	T	84
3933	41695	The Senate defied President Bill Clinton on Thursday.	The Senate defied President Bill Clinton on Thursday.	1990778	1471976773763	1471976773852	u	85
3933	41695	The Senate defied President Bill Clinton on Thursday.	The Senate defied President Bill Clinton on Thursday.	1990779	1471976774060	1471976774122	BKSP	8
3933	41695	The Senate defied President Bill Clinton on Thursday.	The Senate defied President Bill Clinton on Thursday.	1990783	1471976774292	1471976774359	h	72
3933	41695	The Senate defied President Bill Clinton on Thursday.	The Senate defied President Bill Clinton on Thursday.	1990791	1471976774471	1471976774532	u	85
3933	41695	The Senate defied President Bill Clinton on Thursday.	The Senate defied President Bill Clinton on Thursday.	1990807	1471976774570	1471976774664	r	82
3933	41695	The Senate defied President Bill Clinton on Thursday.	The Senate defied President Bill Clinton on Thursday.	1990812	1471976774792	1471976774892	s	83
3933	41695	The Senate defied President Bill Clinton on Thursday.	The Senate defied President Bill Clinton on Thursday.	1990816	1471976774985	1471976775104	d	68
3933	41695	The Senate defied President Bill Clinton on Thursday.	The Senate defied President Bill Clinton on Thursday.	1990821	1471976775105	1471976775259	a	65
3933	41695	The Senate defied President Bill Clinton on Thursday.	The Senate defied President Bill Clinton on Thursday.	1990836	1471976775195	1471976775275	y	89
3933	41695	The Senate defied President Bill Clinton on Thursday.	The Senate defied President Bill Clinton on Thursday.	1990842	1471976775394	1471976775480	.	190
3933	41714	Is Cassandra there today?	Is Cassandra there today?	1991036	1471976778143	1471976778283	SHIFT	16
3933	41714	Is Cassandra there today?	Is Cassandra there today?	1991040	1471976778258	1471976778335	I	73
3933	41714	Is Cassandra there today?	Is Cassandra there today?	1991043	1471976778472	1471976778576	s	83
3933	41714	Is Cassandra there today?	Is Cassandra there today?	1991049	1471976778600	1471976778680	 	32
3933	41714	Is Cassandra there today?	Is Cassandra there today?	1991055	1471976778823	1471976778970	SHIFT	16
3933	41714	Is Cassandra there today?	Is Cassandra there today?	1991060	1471976778935	1471976779034	C	67
3933	41714	Is Cassandra there today?	Is Cassandra there today?	1991067	1471976779121	1471976779234	a	65
3933	41714	Is Cassandra there today?	Is Cassandra there today?	1991090	1471976779364	1471976779440	s	83
3933	41714	Is Cassandra there today?	Is Cassandra there today?	1991096	1471976779526	1471976779639	s	83
3933	41714	Is Cassandra there today?	Is Cassandra there today?	1991103	1471976779695	1471976779815	a	65
3933	41714	Is Cassandra there today?	Is Cassandra there today?	1991110	1471976779865	1471976779985	n	78
3933	41714	Is Cassandra there today?	Is Cassandra there today?	1991153	1471976779968	1471976780136	d	68
3933	41714	Is Cassandra there today?	Is Cassandra there today?	1991157	1471976780113	1471976780234	r	82
3933	41714	Is Cassandra there today?	Is Cassandra there today?	1991162	1471976780206	1471976780343	a	65
3933	41714	Is Cassandra there today?	Is Cassandra there today?	1991167	1471976780321	1471976780411	 	32
3933	41714	Is Cassandra there today?	Is Cassandra there today?	1991171	1471976780454	1471976780531	t	84
3933	41714	Is Cassandra there today?	Is Cassandra there today?	1991176	1471976780542	1471976780612	h	72
3933	41714	Is Cassandra there today?	Is Cassandra there today?	1991178	1471976780616	1471976780680	e	69
3933	41714	Is Cassandra there today?	Is Cassandra there today?	1991180	1471976780650	1471976780741	r	82
3933	41714	Is Cassandra there today?	Is Cassandra there today?	1991182	1471976780787	1471976780859	e	69
3933	41714	Is Cassandra there today?	Is Cassandra there today?	1991185	1471976780879	1471976780965	 	32
3933	41714	Is Cassandra there today?	Is Cassandra there today?	1991235	1471976780932	1471976781008	t	84
3933	41714	Is Cassandra there today?	Is Cassandra there today?	1991238	1471976781035	1471976781139	o	79
3933	41714	Is Cassandra there today?	Is Cassandra there today?	1991243	1471976781105	1471976781241	d	68
3933	41714	Is Cassandra there today?	Is Cassandra there today?	1991248	1471976781197	1471976781349	a	65
3933	41714	Is Cassandra there today?	Is Cassandra there today?	1991254	1471976781287	1471976781362	y	89
3933	41714	Is Cassandra there today?	Is Cassandra there today?	1991257	1471976781554	1471976781871	SHIFT	16
3933	41714	Is Cassandra there today?	Is Cassandra there today?	1991255	1471976781819	1471976781887	?	191
3933	41720	I can be there within the hour.	I can be there within the hour.	1991366	1471976784178	1471976784424	SHIFT	16
3933	41720	I can be there within the hour.	I can be there within the hour.	1991364	1471976784326	1471976784408	I	73
3933	41720	I can be there within the hour.	I can be there within the hour.	1991369	1471976784514	1471976784592	 	32
3933	41720	I can be there within the hour.	I can be there within the hour.	1991372	1471976784650	1471976784769	c	67
3933	41720	I can be there within the hour.	I can be there within the hour.	1991376	1471976784752	1471976784923	a	65
3933	41720	I can be there within the hour.	I can be there within the hour.	1991401	1471976784824	1471976784928	n	78
3933	41720	I can be there within the hour.	I can be there within the hour.	1991402	1471976784899	1471976784989	 	32
3933	41720	I can be there within the hour.	I can be there within the hour.	1991405	1471976785007	1471976785080	b	66
3933	41720	I can be there within the hour.	I can be there within the hour.	1991408	1471976785137	1471976785257	e	69
3933	41720	I can be there within the hour.	I can be there within the hour.	1991411	1471976785246	1471976785336	 	32
3933	41720	I can be there within the hour.	I can be there within the hour.	1991413	1471976785313	1471976785407	t	84
3933	41720	I can be there within the hour.	I can be there within the hour.	1991415	1471976785444	1471976785510	e	72
3933	41720	I can be there within the hour.	I can be there within the hour.	1991420	1471976785542	1471976785642	r	82
3933	41720	I can be there within the hour.	I can be there within the hour.	1991423	1471976785667	1471976785736	e	69
3933	41720	I can be there within the hour.	I can be there within the hour.	1991429	1471976785769	1471976785840	 	32
3933	41720	I can be there within the hour.	I can be there within the hour.	1991432	1471976785853	1471976785964	w	87
3933	41720	I can be there within the hour.	I can be there within the hour.	1991473	1471976785939	1471976786040	i	73
3933	41720	I can be there within the hour.	I can be there within the hour.	1991479	1471976786175	1471976786251	t	84
3933	41720	I can be there within the hour.	I can be there within the hour.	1991484	1471976786231	1471976786315	h	72
3933	41720	I can be there within the hour.	I can be there within the hour.	1991488	1471976786321	1471976786470	i	73
3933	41720	I can be there within the hour.	I can be there within the hour.	1991491	1471976786427	1471976786563	n	78
3933	41720	I can be there within the hour.	I can be there within the hour.	1991508	1471976786533	1471976786635	 	32
3933	41720	I can be there within the hour.	I can be there within the hour.	1991512	1471976786639	1471976786709	t	84
3933	41720	I can be there within the hour.	I can be there within the hour.	1991516	1471976786703	1471976786805	h	72
3933	41720	I can be there within the hour.	I can be there within the hour.	1991518	1471976786814	1471976786904	e	69
3933	41720	I can be there within the hour.	I can be there within the hour.	1991521	1471976786870	1471976786943	 	32
3933	41720	I can be there within the hour.	I can be there within the hour.	1991523	1471976786963	1471976787049	h	72
3933	41720	I can be there within the hour.	I can be there within the hour.	1991531	1471976787071	1471976787194	o	79
3933	41720	I can be there within the hour.	I can be there within the hour.	1991534	1471976787150	1471976787267	u	85
3933	41720	I can be there within the hour.	I can be there within the hour.	1991539	1471976787259	1471976787336	r	82
3933	41720	I can be there within the hour.	I can be there within the hour.	1991545	1471976787365	1471976787482	.	190
3933	41730	Binoche welcomed the movie industry to the French riviera.	Binoche welcomed the movie industry to the French riviera.	1991842	1471976791911	1471976792125	SHIFT	16
3933	41730	Binoche welcomed the movie industry to the French riviera.	Binoche welcomed the movie industry to the French riviera.	1991837	1471976792034	1471976792115	B	66
3933	41730	Binoche welcomed the movie industry to the French riviera.	Binoche welcomed the movie industry to the French riviera.	1991846	1471976792296	1471976792430	i	73
3933	41730	Binoche welcomed the movie industry to the French riviera.	Binoche welcomed the movie industry to the French riviera.	1991852	1471976792387	1471976792496	n	78
3933	41730	Binoche welcomed the movie industry to the French riviera.	Binoche welcomed the movie industry to the French riviera.	1991857	1471976792535	1471976792640	o	79
3933	41730	Binoche welcomed the movie industry to the French riviera.	Binoche welcomed the movie industry to the French riviera.	1991862	1471976792680	1471976792827	c	67
3933	41730	Binoche welcomed the movie industry to the French riviera.	Binoche welcomed the movie industry to the French riviera.	1991995	1471976792816	1471976792909	h	72
3933	41730	Binoche welcomed the movie industry to the French riviera.	Binoche welcomed the movie industry to the French riviera.	1991999	1471976792991	1471976793069	e	69
3933	41730	Binoche welcomed the movie industry to the French riviera.	Binoche welcomed the movie industry to the French riviera.	1992002	1471976793137	1471976793217	 	32
3933	41730	Binoche welcomed the movie industry to the French riviera.	Binoche welcomed the movie industry to the French riviera.	1992005	1471976793594	1471976793657	w	87
3933	41730	Binoche welcomed the movie industry to the French riviera.	Binoche welcomed the movie industry to the French riviera.	1992010	1471976793862	1471976793919	BKSP	8
3933	41730	Binoche welcomed the movie industry to the French riviera.	Binoche welcomed the movie industry to the French riviera.	1992013	1471976794025	1471976794090	BKSP	8
3933	41730	Binoche welcomed the movie industry to the French riviera.	Binoche welcomed the movie industry to the French riviera.	1992017	1471976794201	1471976794277	BKSP	8
3933	41730	Binoche welcomed the movie industry to the French riviera.	Binoche welcomed the movie industry to the French riviera.	1992023	1471976795421	1471976795501	e	69
3933	41730	Binoche welcomed the movie industry to the French riviera.	Binoche welcomed the movie industry to the French riviera.	1992029	1471976795542	1471976795623	 	32
3933	41730	Binoche welcomed the movie industry to the French riviera.	Binoche welcomed the movie industry to the French riviera.	1992042	1471976795716	1471976795861	w	87
3933	41730	Binoche welcomed the movie industry to the French riviera.	Binoche welcomed the movie industry to the French riviera.	1992046	1471976795824	1471976795948	e	69
3933	41730	Binoche welcomed the movie industry to the French riviera.	Binoche welcomed the movie industry to the French riviera.	1992051	1471976795907	1471976796004	l	76
3933	41730	Binoche welcomed the movie industry to the French riviera.	Binoche welcomed the movie industry to the French riviera.	1992054	1471976796169	1471976796271	c	67
3933	41730	Binoche welcomed the movie industry to the French riviera.	Binoche welcomed the movie industry to the French riviera.	1992090	1471976796214	1471976796318	o	79
3933	41730	Binoche welcomed the movie industry to the French riviera.	Binoche welcomed the movie industry to the French riviera.	1992097	1471976796286	1471976796410	m	77
3933	41730	Binoche welcomed the movie industry to the French riviera.	Binoche welcomed the movie industry to the French riviera.	1992107	1471976796435	1471976796497	e	69
3933	41730	Binoche welcomed the movie industry to the French riviera.	Binoche welcomed the movie industry to the French riviera.	1992115	1471976796631	1471976796731	d	68
3933	41730	Binoche welcomed the movie industry to the French riviera.	Binoche welcomed the movie industry to the French riviera.	1992120	1471976796752	1471976796838	 	32
3933	41730	Binoche welcomed the movie industry to the French riviera.	Binoche welcomed the movie industry to the French riviera.	1992124	1471976796860	1471976796934	t	84
3933	41730	Binoche welcomed the movie industry to the French riviera.	Binoche welcomed the movie industry to the French riviera.	1992130	1471976796944	1471976797028	h	72
3933	41730	Binoche welcomed the movie industry to the French riviera.	Binoche welcomed the movie industry to the French riviera.	1992132	1471976797017	1471976797109	e	69
3933	41730	Binoche welcomed the movie industry to the French riviera.	Binoche welcomed the movie industry to the French riviera.	1992138	1471976797116	1471976797226	 	32
3933	41730	Binoche welcomed the movie industry to the French riviera.	Binoche welcomed the movie industry to the French riviera.	1992148	1471976797201	1471976797346	m	77
3933	41730	Binoche welcomed the movie industry to the French riviera.	Binoche welcomed the movie industry to the French riviera.	1992182	1471976797303	1471976797397	o	79
3933	41730	Binoche welcomed the movie industry to the French riviera.	Binoche welcomed the movie industry to the French riviera.	1992183	1471976797354	1471976797456	v	86
3933	41730	Binoche welcomed the movie industry to the French riviera.	Binoche welcomed the movie industry to the French riviera.	1992184	1471976797499	1471976797578	i	73
3933	41730	Binoche welcomed the movie industry to the French riviera.	Binoche welcomed the movie industry to the French riviera.	1992185	1471976797629	1471976797711	e	69
3933	41730	Binoche welcomed the movie industry to the French riviera.	Binoche welcomed the movie industry to the French riviera.	1992186	1471976797735	1471976797803	 	32
3933	41730	Binoche welcomed the movie industry to the French riviera.	Binoche welcomed the movie industry to the French riviera.	1992187	1471976797825	1471976797970	i	73
3933	41730	Binoche welcomed the movie industry to the French riviera.	Binoche welcomed the movie industry to the French riviera.	1992208	1471976797899	1471976798007	n	78
3933	41730	Binoche welcomed the movie industry to the French riviera.	Binoche welcomed the movie industry to the French riviera.	1992215	1471976797989	1471976798109	d	68
3933	41730	Binoche welcomed the movie industry to the French riviera.	Binoche welcomed the movie industry to the French riviera.	1992219	1471976798133	1471976798212	u	85
3933	41730	Binoche welcomed the movie industry to the French riviera.	Binoche welcomed the movie industry to the French riviera.	1992224	1471976798219	1471976798366	s	83
3933	41730	Binoche welcomed the movie industry to the French riviera.	Binoche welcomed the movie industry to the French riviera.	1992228	1471976798309	1471976798404	t	84
3933	41730	Binoche welcomed the movie industry to the French riviera.	Binoche welcomed the movie industry to the French riviera.	1992231	1471976798491	1471976798597	r	82
3933	41730	Binoche welcomed the movie industry to the French riviera.	Binoche welcomed the movie industry to the French riviera.	1992235	1471976798592	1471976798676	y	89
3933	41730	Binoche welcomed the movie industry to the French riviera.	Binoche welcomed the movie industry to the French riviera.	1992237	1471976798683	1471976798763	 	32
3933	41730	Binoche welcomed the movie industry to the French riviera.	Binoche welcomed the movie industry to the French riviera.	1992240	1471976798750	1471976798829	t	84
3933	41730	Binoche welcomed the movie industry to the French riviera.	Binoche welcomed the movie industry to the French riviera.	1992242	1471976798813	1471976798881	o	79
3933	41730	Binoche welcomed the movie industry to the French riviera.	Binoche welcomed the movie industry to the French riviera.	1992244	1471976798892	1471976798961	 	32
3933	41730	Binoche welcomed the movie industry to the French riviera.	Binoche welcomed the movie industry to the French riviera.	1992259	1471976798929	1471976799011	t	84
3933	41730	Binoche welcomed the movie industry to the French riviera.	Binoche welcomed the movie industry to the French riviera.	1992261	1471976799020	1471976799106	h	72
3933	41730	Binoche welcomed the movie industry to the French riviera.	Binoche welcomed the movie industry to the French riviera.	1992263	1471976799099	1471976799185	e	69
3933	41730	Binoche welcomed the movie industry to the French riviera.	Binoche welcomed the movie industry to the French riviera.	1992265	1471976799162	1471976799233	 	32
3933	41730	Binoche welcomed the movie industry to the French riviera.	Binoche welcomed the movie industry to the French riviera.	1992266	1471976799383	1471976799519	SHIFT	16
3933	41730	Binoche welcomed the movie industry to the French riviera.	Binoche welcomed the movie industry to the French riviera.	1992268	1471976799452	1471976799533	F	70
3933	41730	Binoche welcomed the movie industry to the French riviera.	Binoche welcomed the movie industry to the French riviera.	1992271	1471976799623	1471976799735	r	82
3933	41730	Binoche welcomed the movie industry to the French riviera.	Binoche welcomed the movie industry to the French riviera.	1992284	1471976799675	1471976799755	e	69
3933	41730	Binoche welcomed the movie industry to the French riviera.	Binoche welcomed the movie industry to the French riviera.	1992289	1471976799727	1471976799803	n	78
3933	41730	Binoche welcomed the movie industry to the French riviera.	Binoche welcomed the movie industry to the French riviera.	1992295	1471976799866	1471976799988	c	67
3933	41730	Binoche welcomed the movie industry to the French riviera.	Binoche welcomed the movie industry to the French riviera.	1992299	1471976799938	1471976800029	h	72
3933	41730	Binoche welcomed the movie industry to the French riviera.	Binoche welcomed the movie industry to the French riviera.	1992304	1471976800006	1471976800078	 	32
3933	41730	Binoche welcomed the movie industry to the French riviera.	Binoche welcomed the movie industry to the French riviera.	1992307	1471976800125	1471976800218	r	82
3933	41730	Binoche welcomed the movie industry to the French riviera.	Binoche welcomed the movie industry to the French riviera.	1992312	1471976800258	1471976800346	i	73
3933	41730	Binoche welcomed the movie industry to the French riviera.	Binoche welcomed the movie industry to the French riviera.	1992351	1471976800349	1471976800440	v	86
3933	41730	Binoche welcomed the movie industry to the French riviera.	Binoche welcomed the movie industry to the French riviera.	1992354	1471976800592	1471976800685	i	73
3933	41730	Binoche welcomed the movie industry to the French riviera.	Binoche welcomed the movie industry to the French riviera.	1992359	1471976800739	1471976800872	e	69
3933	41730	Binoche welcomed the movie industry to the French riviera.	Binoche welcomed the movie industry to the French riviera.	1992363	1471976800826	1471976800912	r	82
3933	41730	Binoche welcomed the movie industry to the French riviera.	Binoche welcomed the movie industry to the French riviera.	1992370	1471976801039	1471976801148	a	65
3933	41730	Binoche welcomed the movie industry to the French riviera.	Binoche welcomed the movie industry to the French riviera.	1992369	1471976801157	1471976801230	.	190
3933	41751	She chipped in from 69 feet for a birdie at 17.	She chipped in from 69 feet for a birdie at 17.	1992641	1471976805389	1471976805538	SHIFT	16
3933	41751	She chipped in from 69 feet for a birdie at 17.	She chipped in from 69 feet for a birdie at 17.	1992647	1471976805513	1471976805601	S	83
3933	41751	She chipped in from 69 feet for a birdie at 17.	She chipped in from 69 feet for a birdie at 17.	1992651	1471976805653	1471976805735	h	72
3933	41751	She chipped in from 69 feet for a birdie at 17.	She chipped in from 69 feet for a birdie at 17.	1992653	1471976805786	1471976805860	e	69
3933	41751	She chipped in from 69 feet for a birdie at 17.	She chipped in from 69 feet for a birdie at 17.	1992656	1471976805844	1471976805930	 	32
3933	41751	She chipped in from 69 feet for a birdie at 17.	She chipped in from 69 feet for a birdie at 17.	1992658	1471976806007	1471976806132	c	67
3933	41751	She chipped in from 69 feet for a birdie at 17.	She chipped in from 69 feet for a birdie at 17.	1992695	1471976806102	1471976806209	h	72
3933	41751	She chipped in from 69 feet for a birdie at 17.	She chipped in from 69 feet for a birdie at 17.	1992697	1471976806197	1471976806309	i	73
3933	41751	She chipped in from 69 feet for a birdie at 17.	She chipped in from 69 feet for a birdie at 17.	1992699	1471976806386	1471976806447	p	80
3933	41751	She chipped in from 69 feet for a birdie at 17.	She chipped in from 69 feet for a birdie at 17.	1992700	1471976806525	1471976806662	p	80
3933	41751	She chipped in from 69 feet for a birdie at 17.	She chipped in from 69 feet for a birdie at 17.	1992701	1471976806664	1471976806720	e	69
3933	41751	She chipped in from 69 feet for a birdie at 17.	She chipped in from 69 feet for a birdie at 17.	1992703	1471976806850	1471976806932	d	68
3933	41751	She chipped in from 69 feet for a birdie at 17.	She chipped in from 69 feet for a birdie at 17.	1992724	1471976806936	1471976807022	 	32
3933	41751	She chipped in from 69 feet for a birdie at 17.	She chipped in from 69 feet for a birdie at 17.	1992730	1471976807084	1471976807221	i	73
3933	41751	She chipped in from 69 feet for a birdie at 17.	She chipped in from 69 feet for a birdie at 17.	1992736	1471976807147	1471976807301	n	78
3933	41751	She chipped in from 69 feet for a birdie at 17.	She chipped in from 69 feet for a birdie at 17.	1992740	1471976807230	1471976807349	 	32
3933	41751	She chipped in from 69 feet for a birdie at 17.	She chipped in from 69 feet for a birdie at 17.	1992745	1471976807377	1471976807452	f	70
3933	41751	She chipped in from 69 feet for a birdie at 17.	She chipped in from 69 feet for a birdie at 17.	1992786	1471976807547	1471976807639	r	82
3933	41751	She chipped in from 69 feet for a birdie at 17.	She chipped in from 69 feet for a birdie at 17.	1992789	1471976807624	1471976807774	o	79
3933	41751	She chipped in from 69 feet for a birdie at 17.	She chipped in from 69 feet for a birdie at 17.	1992796	1471976807710	1471976807838	m	77
3933	41751	She chipped in from 69 feet for a birdie at 17.	She chipped in from 69 feet for a birdie at 17.	1992801	1471976807781	1471976807899	 	32
3933	41751	She chipped in from 69 feet for a birdie at 17.	She chipped in from 69 feet for a birdie at 17.	1992808	1471976808321	1471976808402	6	54
3933	41751	She chipped in from 69 feet for a birdie at 17.	She chipped in from 69 feet for a birdie at 17.	1992858	1471976808684	1471976808779	9	57
3933	41751	She chipped in from 69 feet for a birdie at 17.	She chipped in from 69 feet for a birdie at 17.	1992864	1471976808889	1471976808968	 	32
3933	41751	She chipped in from 69 feet for a birdie at 17.	She chipped in from 69 feet for a birdie at 17.	1992868	1471976809036	1471976809120	f	70
3933	41751	She chipped in from 69 feet for a birdie at 17.	She chipped in from 69 feet for a birdie at 17.	1992873	1471976809158	1471976809220	e	69
3933	41751	She chipped in from 69 feet for a birdie at 17.	She chipped in from 69 feet for a birdie at 17.	1992878	1471976809318	1471976809458	e	69
3933	41751	She chipped in from 69 feet for a birdie at 17.	She chipped in from 69 feet for a birdie at 17.	1992898	1471976809408	1471976809507	t	84
3933	41751	She chipped in from 69 feet for a birdie at 17.	She chipped in from 69 feet for a birdie at 17.	1992903	1471976809514	1471976809601	 	32
3933	41751	She chipped in from 69 feet for a birdie at 17.	She chipped in from 69 feet for a birdie at 17.	1992910	1471976809626	1471976809722	f	70
3933	41751	She chipped in from 69 feet for a birdie at 17.	She chipped in from 69 feet for a birdie at 17.	1992915	1471976809717	1471976809821	o	79
3933	41751	She chipped in from 69 feet for a birdie at 17.	She chipped in from 69 feet for a birdie at 17.	1992920	1471976809795	1471976809881	r	82
3933	41751	She chipped in from 69 feet for a birdie at 17.	She chipped in from 69 feet for a birdie at 17.	1992926	1471976809886	1471976809965	 	32
3933	41751	She chipped in from 69 feet for a birdie at 17.	She chipped in from 69 feet for a birdie at 17.	1992937	1471976809975	1471976810091	a	65
3933	41751	She chipped in from 69 feet for a birdie at 17.	She chipped in from 69 feet for a birdie at 17.	1992942	1471976810077	1471976810159	 	32
3933	41751	She chipped in from 69 feet for a birdie at 17.	She chipped in from 69 feet for a birdie at 17.	1992948	1471976810170	1471976810267	b	66
3933	41751	She chipped in from 69 feet for a birdie at 17.	She chipped in from 69 feet for a birdie at 17.	1992954	1471976810301	1471976810395	i	73
3933	41751	She chipped in from 69 feet for a birdie at 17.	She chipped in from 69 feet for a birdie at 17.	1992960	1471976810405	1471976810488	r	82
3933	41751	She chipped in from 69 feet for a birdie at 17.	She chipped in from 69 feet for a birdie at 17.	1992992	1471976810592	1471976810693	d	68
3933	41751	She chipped in from 69 feet for a birdie at 17.	She chipped in from 69 feet for a birdie at 17.	1992998	1471976810714	1471976810813	i	73
3933	41751	She chipped in from 69 feet for a birdie at 17.	She chipped in from 69 feet for a birdie at 17.	1993004	1471976810825	1471976810893	e	69
3933	41751	She chipped in from 69 feet for a birdie at 17.	She chipped in from 69 feet for a birdie at 17.	1993010	1471976810910	1471976810990	 	32
3933	41751	She chipped in from 69 feet for a birdie at 17.	She chipped in from 69 feet for a birdie at 17.	1993015	1471976811010	1471976811178	a	65
3933	41751	She chipped in from 69 feet for a birdie at 17.	She chipped in from 69 feet for a birdie at 17.	1993095	1471976811074	1471976811201	t	84
3933	41751	She chipped in from 69 feet for a birdie at 17.	She chipped in from 69 feet for a birdie at 17.	1993097	1471976811184	1471976811283	 	32
3933	41751	She chipped in from 69 feet for a birdie at 17.	She chipped in from 69 feet for a birdie at 17.	1993100	1471976811631	1471976811708	1	49
3933	41751	She chipped in from 69 feet for a birdie at 17.	She chipped in from 69 feet for a birdie at 17.	1993102	1471976812069	1471976812174	7	55
3933	41751	She chipped in from 69 feet for a birdie at 17.	She chipped in from 69 feet for a birdie at 17.	1993106	1471976812364	1471976812445	.	190
