PARTICIPANT_ID	TEST_SECTION_ID	SENTENCE	USER_INPUT	KEYSTROKE_ID	PRESS_TIME	RELEASE_TIME	LETTER	KEYCODE
4009	42411	Get with Mary for format.	Get with Mary for format.	2024538	1471977370542	1471977370819	SHIFT	16
4009	42411	Get with Mary for format.	Get with Mary for format.	2024542	1471977370731	1471977370867		71
4009	42411	Get with Mary for format.	Get with Mary for format.	2024544	1471977370939	1471977371075		69
4009	42411	Get with Mary for format.	Get with Mary for format.	2024548	1471977371019	1471977371147		84
4009	42411	Get with Mary for format.	Get with Mary for format.	2024551	1471977371148	1471977371243		32
4009	42411	Get with Mary for format.	Get with Mary for format.	2024573	1471977371235	1471977371379		87
4009	42411	Get with Mary for format.	Get with Mary for format.	2024576	1471977371323	1471977371411		73
4009	42411	Get with Mary for format.	Get with Mary for format.	2024583	1471977371411	1471977371539		84
4009	42411	Get with Mary for format.	Get with Mary for format.	2024580	1471977371459	1471977371531		72
4009	42411	Get with Mary for format.	Get with Mary for format.	2024587	1471977371627	1471977371731		32
4009	42411	Get with Mary for format.	Get with Mary for format.	2024591	1471977371699	1471977371891	SHIFT	16
4009	42411	Get with Mary for format.	Get with Mary for format.	2024602	1471977371795	1471977371894		77
4009	42411	Get with Mary for format.	Get with Mary for format.	2024604	1471977372003	1471977372147		65
4009	42411	Get with Mary for format.	Get with Mary for format.	2024606	1471977372083	1471977372219		82
4009	42411	Get with Mary for format.	Get with Mary for format.	2024609	1471977372171	1471977372251		89
4009	42411	Get with Mary for format.	Get with Mary for format.	2024612	1471977372307	1471977372403		32
4009	42411	Get with Mary for format.	Get with Mary for format.	2024618	1471977372371	1471977372475		70
4009	42411	Get with Mary for format.	Get with Mary for format.	2024620	1471977372459	1471977372523		79
4009	42411	Get with Mary for format.	Get with Mary for format.	2024622	1471977372539	1471977372635		82
4009	42411	Get with Mary for format.	Get with Mary for format.	2024624	1471977372595	1471977372699		32
4009	42411	Get with Mary for format.	Get with Mary for format.	2024626	1471977372731	1471977372827		70
4009	42411	Get with Mary for format.	Get with Mary for format.	2024632	1471977372795	1471977372875		79
4009	42411	Get with Mary for format.	Get with Mary for format.	2024634	1471977372915	1471977373035		82
4009	42411	Get with Mary for format.	Get with Mary for format.	2024636	1471977373003	1471977373083		77
4009	42411	Get with Mary for format.	Get with Mary for format.	2024639	1471977373091	1471977373243		65
4009	42411	Get with Mary for format.	Get with Mary for format.	2024641	1471977373171	1471977373275		84
4009	42411	Get with Mary for format.	Get with Mary for format.	2024643	1471977373315	1471977373411		190
4009	42418	He is expected to play when the Browns return to action next week.	He is expected to play when the Browns return to action next week.	2024811	1471977381075	1471977381251	SHIFT	16
4009	42418	He is expected to play when the Browns return to action next week.	He is expected to play when the Browns return to action next week.	2024812	1471977381195	1471977381274		72
4009	42418	He is expected to play when the Browns return to action next week.	He is expected to play when the Browns return to action next week.	2024814	1471977381339	1471977381443		69
4009	42418	He is expected to play when the Browns return to action next week.	He is expected to play when the Browns return to action next week.	2024815	1471977381411	1471977381506		32
4009	42418	He is expected to play when the Browns return to action next week.	He is expected to play when the Browns return to action next week.	2024817	1471977381530	1471977381603		73
4009	42418	He is expected to play when the Browns return to action next week.	He is expected to play when the Browns return to action next week.	2024819	1471977381603	1471977381723		83
4009	42418	He is expected to play when the Browns return to action next week.	He is expected to play when the Browns return to action next week.	2024855	1471977381683	1471977381786		32
4009	42418	He is expected to play when the Browns return to action next week.	He is expected to play when the Browns return to action next week.	2024858	1471977381763	1471977381850		69
4009	42418	He is expected to play when the Browns return to action next week.	He is expected to play when the Browns return to action next week.	2024860	1471977381939	1471977382042		88
4009	42418	He is expected to play when the Browns return to action next week.	He is expected to play when the Browns return to action next week.	2024862	1471977382027	1471977382115		80
4009	42418	He is expected to play when the Browns return to action next week.	He is expected to play when the Browns return to action next week.	2024866	1471977382122	1471977382219		69
4009	42418	He is expected to play when the Browns return to action next week.	He is expected to play when the Browns return to action next week.	2024869	1471977382499	1471977382635		84
4009	42418	He is expected to play when the Browns return to action next week.	He is expected to play when the Browns return to action next week.	2024937	1471977383123	1471977383195		8
4009	42418	He is expected to play when the Browns return to action next week.	He is expected to play when the Browns return to action next week.	2024939	1471977383275	1471977383363		32
4009	42418	He is expected to play when the Browns return to action next week.	He is expected to play when the Browns return to action next week.	2024942	1471977383683	1471977383763		8
4009	42418	He is expected to play when the Browns return to action next week.	He is expected to play when the Browns return to action next week.	2024946	1471977384547	1471977384643		67
4009	42418	He is expected to play when the Browns return to action next week.	He is expected to play when the Browns return to action next week.	2024949	1471977384771	1471977384875		84
4009	42418	He is expected to play when the Browns return to action next week.	He is expected to play when the Browns return to action next week.	2024968	1471977384948	1471977385099		69
4009	42418	He is expected to play when the Browns return to action next week.	He is expected to play when the Browns return to action next week.	2024971	1471977385083	1471977385195		68
4009	42418	He is expected to play when the Browns return to action next week.	He is expected to play when the Browns return to action next week.	2024975	1471977385171	1471977385250		32
4009	42418	He is expected to play when the Browns return to action next week.	He is expected to play when the Browns return to action next week.	2024985	1471977385290	1471977385427		84
4009	42418	He is expected to play when the Browns return to action next week.	He is expected to play when the Browns return to action next week.	2024976	1471977385323	1471977385395		79
4009	42418	He is expected to play when the Browns return to action next week.	He is expected to play when the Browns return to action next week.	2024988	1471977385458	1471977385522		32
4009	42418	He is expected to play when the Browns return to action next week.	He is expected to play when the Browns return to action next week.	2024993	1471977385562	1471977385682		80
4009	42418	He is expected to play when the Browns return to action next week.	He is expected to play when the Browns return to action next week.	2024996	1471977385635	1471977385722		76
4009	42418	He is expected to play when the Browns return to action next week.	He is expected to play when the Browns return to action next week.	2024998	1471977385714	1471977385858		65
4009	42418	He is expected to play when the Browns return to action next week.	He is expected to play when the Browns return to action next week.	2025019	1471977385843	1471977385915		89
4009	42418	He is expected to play when the Browns return to action next week.	He is expected to play when the Browns return to action next week.	2025020	1471977386171	1471977386258		32
4009	42418	He is expected to play when the Browns return to action next week.	He is expected to play when the Browns return to action next week.	2025022	1471977386275	1471977386395		87
4009	42418	He is expected to play when the Browns return to action next week.	He is expected to play when the Browns return to action next week.	2025023	1471977386347	1471977386418		72
4009	42418	He is expected to play when the Browns return to action next week.	He is expected to play when the Browns return to action next week.	2025024	1471977386426	1471977386554		69
4009	42418	He is expected to play when the Browns return to action next week.	He is expected to play when the Browns return to action next week.	2025027	1471977386475	1471977386570		78
4009	42418	He is expected to play when the Browns return to action next week.	He is expected to play when the Browns return to action next week.	2025029	1471977386635	1471977386698		32
4009	42418	He is expected to play when the Browns return to action next week.	He is expected to play when the Browns return to action next week.	2025031	1471977386659	1471977386786		84
4009	42418	He is expected to play when the Browns return to action next week.	He is expected to play when the Browns return to action next week.	2025035	1471977386722	1471977386810		72
4009	42418	He is expected to play when the Browns return to action next week.	He is expected to play when the Browns return to action next week.	2025039	1471977386802	1471977386891		69
4009	42418	He is expected to play when the Browns return to action next week.	He is expected to play when the Browns return to action next week.	2025059	1471977386883	1471977386946		32
4009	42418	He is expected to play when the Browns return to action next week.	He is expected to play when the Browns return to action next week.	2025066	1471977386962	1471977387090	SHIFT	16
4009	42418	He is expected to play when the Browns return to action next week.	He is expected to play when the Browns return to action next week.	2025062	1471977387003	1471977387082		66
4009	42418	He is expected to play when the Browns return to action next week.	He is expected to play when the Browns return to action next week.	2025069	1471977387123	1471977387243		82
4009	42418	He is expected to play when the Browns return to action next week.	He is expected to play when the Browns return to action next week.	2025071	1471977387219	1471977387299		79
4009	42418	He is expected to play when the Browns return to action next week.	He is expected to play when the Browns return to action next week.	2025073	1471977387299	1471977387386		87
4009	42418	He is expected to play when the Browns return to action next week.	He is expected to play when the Browns return to action next week.	2025075	1471977387394	1471977387483		78
4009	42418	He is expected to play when the Browns return to action next week.	He is expected to play when the Browns return to action next week.	2025077	1471977387507	1471977387588		83
4009	42418	He is expected to play when the Browns return to action next week.	He is expected to play when the Browns return to action next week.	2025080	1471977387579	1471977387674		32
4009	42418	He is expected to play when the Browns return to action next week.	He is expected to play when the Browns return to action next week.	2025083	1471977387667	1471977387778		82
4009	42418	He is expected to play when the Browns return to action next week.	He is expected to play when the Browns return to action next week.	2025086	1471977387723	1471977387858		69
4009	42418	He is expected to play when the Browns return to action next week.	He is expected to play when the Browns return to action next week.	2025095	1471977387851	1471977387954		84
4009	42418	He is expected to play when the Browns return to action next week.	He is expected to play when the Browns return to action next week.	2025097	1471977387939	1471977388018		85
4009	42418	He is expected to play when the Browns return to action next week.	He is expected to play when the Browns return to action next week.	2025099	1471977388042	1471977388162		82
4009	42418	He is expected to play when the Browns return to action next week.	He is expected to play when the Browns return to action next week.	2025101	1471977388131	1471977388202		78
4009	42418	He is expected to play when the Browns return to action next week.	He is expected to play when the Browns return to action next week.	2025105	1471977388283	1471977388370		32
4009	42418	He is expected to play when the Browns return to action next week.	He is expected to play when the Browns return to action next week.	2025123	1471977388467	1471977388602		84
4009	42418	He is expected to play when the Browns return to action next week.	He is expected to play when the Browns return to action next week.	2025108	1471977388515	1471977388594		79
4009	42418	He is expected to play when the Browns return to action next week.	He is expected to play when the Browns return to action next week.	2025125	1471977388667	1471977388762		32
4009	42418	He is expected to play when the Browns return to action next week.	He is expected to play when the Browns return to action next week.	2025128	1471977388778	1471977388898		67
4009	42418	He is expected to play when the Browns return to action next week.	He is expected to play when the Browns return to action next week.	2025141	1471977388978	1471977389137		84
4009	42418	He is expected to play when the Browns return to action next week.	He is expected to play when the Browns return to action next week.	2025130	1471977389043	1471977389122		73
4009	42418	He is expected to play when the Browns return to action next week.	He is expected to play when the Browns return to action next week.	2025143	1471977389179	1471977389282		79
4009	42418	He is expected to play when the Browns return to action next week.	He is expected to play when the Browns return to action next week.	2025146	1471977389235	1471977389322		78
4009	42418	He is expected to play when the Browns return to action next week.	He is expected to play when the Browns return to action next week.	2025149	1471977389394	1471977389442		32
4009	42418	He is expected to play when the Browns return to action next week.	He is expected to play when the Browns return to action next week.	2025152	1471977389498	1471977389610		78
4009	42418	He is expected to play when the Browns return to action next week.	He is expected to play when the Browns return to action next week.	2025168	1471977389555	1471977389650		69
4009	42418	He is expected to play when the Browns return to action next week.	He is expected to play when the Browns return to action next week.	2025172	1471977389714	1471977389826		88
4009	42418	He is expected to play when the Browns return to action next week.	He is expected to play when the Browns return to action next week.	2025178	1471977389818	1471977389954		84
4009	42418	He is expected to play when the Browns return to action next week.	He is expected to play when the Browns return to action next week.	2025182	1471977389931	1471977390029		32
4009	42418	He is expected to play when the Browns return to action next week.	He is expected to play when the Browns return to action next week.	2025187	1471977390007	1471977390106		87
4009	42418	He is expected to play when the Browns return to action next week.	He is expected to play when the Browns return to action next week.	2025201	1471977390067	1471977390146		69
4009	42418	He is expected to play when the Browns return to action next week.	He is expected to play when the Browns return to action next week.	2025204	1471977390210	1471977390306		69
4009	42418	He is expected to play when the Browns return to action next week.	He is expected to play when the Browns return to action next week.	2025209	1471977390259	1471977390338		75
4009	42418	He is expected to play when the Browns return to action next week.	He is expected to play when the Browns return to action next week.	2025212	1471977390451	1471977390554		190
4009	42427	Penske doesn't let things sit back and relax.	Penske doesn't let things sit back and relax.	2025352	1471977396290	1471977396426	SHIFT	16
4009	42427	Penske doesn't let things sit back and relax.	Penske doesn't let things sit back and relax.	2025355	1471977396362	1471977396450		80
4009	42427	Penske doesn't let things sit back and relax.	Penske doesn't let things sit back and relax.	2025359	1471977396490	1471977396606		69
4009	42427	Penske doesn't let things sit back and relax.	Penske doesn't let things sit back and relax.	2025361	1471977396586	1471977396674		78
4009	42427	Penske doesn't let things sit back and relax.	Penske doesn't let things sit back and relax.	2025362	1471977396706	1471977396794		83
4009	42427	Penske doesn't let things sit back and relax.	Penske doesn't let things sit back and relax.	2025366	1471977396786	1471977396874		75
4009	42427	Penske doesn't let things sit back and relax.	Penske doesn't let things sit back and relax.	2025368	1471977396922	1471977397010		69
4009	42427	Penske doesn't let things sit back and relax.	Penske doesn't let things sit back and relax.	2025370	1471977397011	1471977397114		32
4009	42427	Penske doesn't let things sit back and relax.	Penske doesn't let things sit back and relax.	2025372	1471977397258	1471977397354		68
4009	42427	Penske doesn't let things sit back and relax.	Penske doesn't let things sit back and relax.	2025374	1471977397330	1471977397410		79
4009	42427	Penske doesn't let things sit back and relax.	Penske doesn't let things sit back and relax.	2025376	1471977397418	1471977397574		69
4009	42427	Penske doesn't let things sit back and relax.	Penske doesn't let things sit back and relax.	2025391	1471977397482	1471977397634		83
4009	42427	Penske doesn't let things sit back and relax.	Penske doesn't let things sit back and relax.	2025393	1471977397562	1471977397658		78
4009	42427	Penske doesn't let things sit back and relax.	Penske doesn't let things sit back and relax.	2025395	1471977397738	1471977397850		222
4009	42427	Penske doesn't let things sit back and relax.	Penske doesn't let things sit back and relax.	2025397	1471977397890	1471977397970		84
4009	42427	Penske doesn't let things sit back and relax.	Penske doesn't let things sit back and relax.	2025400	1471977397986	1471977398075		32
4009	42427	Penske doesn't let things sit back and relax.	Penske doesn't let things sit back and relax.	2025403	1471977398122	1471977398210		76
4009	42427	Penske doesn't let things sit back and relax.	Penske doesn't let things sit back and relax.	2025411	1471977398178	1471977398290		69
4009	42427	Penske doesn't let things sit back and relax.	Penske doesn't let things sit back and relax.	2025412	1471977398234	1471977398346		84
4009	42427	Penske doesn't let things sit back and relax.	Penske doesn't let things sit back and relax.	2025413	1471977398338	1471977398426		32
4009	42427	Penske doesn't let things sit back and relax.	Penske doesn't let things sit back and relax.	2025414	1471977398427	1471977398530		84
4009	42427	Penske doesn't let things sit back and relax.	Penske doesn't let things sit back and relax.	2025416	1471977398506	1471977398594		72
4009	42427	Penske doesn't let things sit back and relax.	Penske doesn't let things sit back and relax.	2025427	1471977398586	1471977398706		73
4009	42427	Penske doesn't let things sit back and relax.	Penske doesn't let things sit back and relax.	2025428	1471977398658	1471977398754		78
4009	42427	Penske doesn't let things sit back and relax.	Penske doesn't let things sit back and relax.	2025429	1471977398707	1471977398826		71
4009	42427	Penske doesn't let things sit back and relax.	Penske doesn't let things sit back and relax.	2025430	1471977398818	1471977398938		83
4009	42427	Penske doesn't let things sit back and relax.	Penske doesn't let things sit back and relax.	2025431	1471977398970	1471977399066		32
4009	42427	Penske doesn't let things sit back and relax.	Penske doesn't let things sit back and relax.	2025432	1471977399106	1471977399194		83
4009	42427	Penske doesn't let things sit back and relax.	Penske doesn't let things sit back and relax.	2025453	1471977399210	1471977399290		73
4009	42427	Penske doesn't let things sit back and relax.	Penske doesn't let things sit back and relax.	2025455	1471977399362	1471977399466		84
4009	42427	Penske doesn't let things sit back and relax.	Penske doesn't let things sit back and relax.	2025459	1471977399442	1471977399538		32
4009	42427	Penske doesn't let things sit back and relax.	Penske doesn't let things sit back and relax.	2025463	1471977399620	1471977399714		78
4009	42427	Penske doesn't let things sit back and relax.	Penske doesn't let things sit back and relax.	2025466	1471977399922	1471977399994		8
4009	42427	Penske doesn't let things sit back and relax.	Penske doesn't let things sit back and relax.	2025478	1471977400106	1471977400178		66
4009	42427	Penske doesn't let things sit back and relax.	Penske doesn't let things sit back and relax.	2025483	1471977400194	1471977400306		65
4009	42427	Penske doesn't let things sit back and relax.	Penske doesn't let things sit back and relax.	2025488	1471977400250	1471977400386		67
4009	42427	Penske doesn't let things sit back and relax.	Penske doesn't let things sit back and relax.	2025493	1471977400314	1471977400402		75
4009	42427	Penske doesn't let things sit back and relax.	Penske doesn't let things sit back and relax.	2025502	1471977400442	1471977400530		32
4009	42427	Penske doesn't let things sit back and relax.	Penske doesn't let things sit back and relax.	2025519	1471977400522	1471977400666		65
4009	42427	Penske doesn't let things sit back and relax.	Penske doesn't let things sit back and relax.	2025518	1471977400578	1471977400658		78
4009	42427	Penske doesn't let things sit back and relax.	Penske doesn't let things sit back and relax.	2025520	1471977400618	1471977400730		68
4009	42427	Penske doesn't let things sit back and relax.	Penske doesn't let things sit back and relax.	2025521	1471977400730	1471977400842		32
4009	42427	Penske doesn't let things sit back and relax.	Penske doesn't let things sit back and relax.	2025522	1471977400826	1471977400970		82
4009	42427	Penske doesn't let things sit back and relax.	Penske doesn't let things sit back and relax.	2025551	1471977400890	1471977401002		69
4009	42427	Penske doesn't let things sit back and relax.	Penske doesn't let things sit back and relax.	2025555	1471977401026	1471977401106		76
4009	42427	Penske doesn't let things sit back and relax.	Penske doesn't let things sit back and relax.	2025559	1471977401138	1471977401218		65
4009	42427	Penske doesn't let things sit back and relax.	Penske doesn't let things sit back and relax.	2025564	1471977401330	1471977401458		67
4009	42427	Penske doesn't let things sit back and relax.	Penske doesn't let things sit back and relax.	2025569	1471977401402	1471977401506		190
4009	42427	Penske doesn't let things sit back and relax.	Penske doesn't let things sit back and relax.	2025570	1471977401826	1471977401890		8
4009	42427	Penske doesn't let things sit back and relax.	Penske doesn't let things sit back and relax.	2025571	1471977401930	1471977402018		8
4009	42427	Penske doesn't let things sit back and relax.	Penske doesn't let things sit back and relax.	2025572	1471977402010	1471977402124		88
4009	42434	Did you mean Oxley?	Did you mean Oxley?	2025707	1471977404994	1471977405394	SHIFT	16
4009	42434	Did you mean Oxley?	Did you mean Oxley?	2025701	1471977405258	1471977405386		68
4009	42434	Did you mean Oxley?	Did you mean Oxley?	2025712	1471977405506	1471977405594		73
4009	42434	Did you mean Oxley?	Did you mean Oxley?	2025718	1471977405602	1471977405714		68
4009	42434	Did you mean Oxley?	Did you mean Oxley?	2025722	1471977405698	1471977405794		32
4009	42434	Did you mean Oxley?	Did you mean Oxley?	2025724	1471977405826	1471977405946		89
4009	42434	Did you mean Oxley?	Did you mean Oxley?	2025733	1471977405930	1471977406058		79
4009	42434	Did you mean Oxley?	Did you mean Oxley?	2025734	1471977406018	1471977406098		85
4009	42434	Did you mean Oxley?	Did you mean Oxley?	2025735	1471977406210	1471977406298		32
4009	42434	Did you mean Oxley?	Did you mean Oxley?	2025736	1471977406386	1471977406474		77
4009	42434	Did you mean Oxley?	Did you mean Oxley?	2025737	1471977406498	1471977406634		69
4009	42434	Did you mean Oxley?	Did you mean Oxley?	2025770	1471977406570	1471977406706		65
4009	42434	Did you mean Oxley?	Did you mean Oxley?	2025772	1471977406642	1471977406714		78
4009	42434	Did you mean Oxley?	Did you mean Oxley?	2025774	1471977406794	1471977406890		32
4009	42434	Did you mean Oxley?	Did you mean Oxley?	2025778	1471977406882	1471977407090	SHIFT	16
4009	42434	Did you mean Oxley?	Did you mean Oxley?	2025776	1471977406986	1471977407074		79
4009	42434	Did you mean Oxley?	Did you mean Oxley?	2025780	1471977407274	1471977407394		88
4009	42434	Did you mean Oxley?	Did you mean Oxley?	2025782	1471977407394	1471977407482		76
4009	42434	Did you mean Oxley?	Did you mean Oxley?	2025790	1471977407514	1471977407658		69
4009	42434	Did you mean Oxley?	Did you mean Oxley?	2025793	1471977407682	1471977407762		89
4009	42434	Did you mean Oxley?	Did you mean Oxley?	2025799	1471977407866	1471977408130	SHIFT	16
4009	42434	Did you mean Oxley?	Did you mean Oxley?	2025796	1471977407970	1471977408074		191
4009	42442	Thank you for your support.	Thank you for your support.	2025998	1471977402114	1471977413466		190
4009	42442	Thank you for your support.	Thank you for your support.	2025885	1471977410570	1471977410818	SHIFT	16
4009	42442	Thank you for your support.	Thank you for your support.	2025881	1471977410706	1471977410794		84
4009	42442	Thank you for your support.	Thank you for your support.	2025889	1471977410890	1471977410970		72
4009	42442	Thank you for your support.	Thank you for your support.	2025893	1471977410994	1471977411122		65
4009	42442	Thank you for your support.	Thank you for your support.	2025895	1471977411082	1471977411210		78
4009	42442	Thank you for your support.	Thank you for your support.	2025900	1471977411154	1471977411250		75
4009	42442	Thank you for your support.	Thank you for your support.	2025903	1471977411282	1471977411378		32
4009	42442	Thank you for your support.	Thank you for your support.	2025905	1471977411370	1471977411490		89
4009	42442	Thank you for your support.	Thank you for your support.	2025909	1471977411410	1471977411498		79
4009	42442	Thank you for your support.	Thank you for your support.	2025912	1471977411578	1471977411642		85
4009	42442	Thank you for your support.	Thank you for your support.	2025916	1471977411698	1471977411794		32
4009	42442	Thank you for your support.	Thank you for your support.	2025924	1471977411778	1471977411882		70
4009	42442	Thank you for your support.	Thank you for your support.	2025926	1471977411858	1471977411930		79
4009	42442	Thank you for your support.	Thank you for your support.	2025927	1471977411938	1471977412042		82
4009	42442	Thank you for your support.	Thank you for your support.	2025928	1471977411995	1471977412082		32
4009	42442	Thank you for your support.	Thank you for your support.	2025929	1471977412122	1471977412218		89
4009	42442	Thank you for your support.	Thank you for your support.	2025945	1471977412146	1471977412234		79
4009	42442	Thank you for your support.	Thank you for your support.	2025948	1471977412306	1471977412386		85
4009	42442	Thank you for your support.	Thank you for your support.	2025951	1471977412394	1471977412501		82
4009	42442	Thank you for your support.	Thank you for your support.	2025953	1471977412474	1471977412562		32
4009	42442	Thank you for your support.	Thank you for your support.	2025955	1471977412578	1471977412682		83
4009	42442	Thank you for your support.	Thank you for your support.	2025975	1471977412650	1471977412722		85
4009	42442	Thank you for your support.	Thank you for your support.	2025976	1471977412850	1471977412914		80
4009	42442	Thank you for your support.	Thank you for your support.	2025978	1471977412978	1471977413058		80
4009	42442	Thank you for your support.	Thank you for your support.	2025980	1471977413122	1471977413202		79
4009	42442	Thank you for your support.	Thank you for your support.	2025982	1471977413218	1471977413330		82
4009	42442	Thank you for your support.	Thank you for your support.	2025996	1471977413258	1471977413402		84
4009	42447	I agree since I am at the bank right now.	I agree since I am at the bank right now.	2026120	1471977417202	1471977417378	SHIFT	16
4009	42447	I agree since I am at the bank right now.	I agree since I am at the bank right now.	2026114	1471977417298	1471977417370		73
4009	42447	I agree since I am at the bank right now.	I agree since I am at the bank right now.	2026126	1471977417444	1471977417546		32
4009	42447	I agree since I am at the bank right now.	I agree since I am at the bank right now.	2026131	1471977417538	1471977417674		65
4009	42447	I agree since I am at the bank right now.	I agree since I am at the bank right now.	2026135	1471977417610	1471977417730		71
4009	42447	I agree since I am at the bank right now.	I agree since I am at the bank right now.	2026138	1471977417834	1471977418018		82
4009	42447	I agree since I am at the bank right now.	I agree since I am at the bank right now.	2026153	1471977418298	1471977418394		69
4009	42447	I agree since I am at the bank right now.	I agree since I am at the bank right now.	2026156	1471977418458	1471977418546		69
4009	42447	I agree since I am at the bank right now.	I agree since I am at the bank right now.	2026158	1471977418538	1471977418618		32
4009	42447	I agree since I am at the bank right now.	I agree since I am at the bank right now.	2026160	1471977418634	1471977418754		83
4009	42447	I agree since I am at the bank right now.	I agree since I am at the bank right now.	2026164	1471977418698	1471977418818		73
4009	42447	I agree since I am at the bank right now.	I agree since I am at the bank right now.	2026167	1471977418770	1471977418866		78
4009	42447	I agree since I am at the bank right now.	I agree since I am at the bank right now.	2026169	1471977418874	1471977419010		67
4009	42447	I agree since I am at the bank right now.	I agree since I am at the bank right now.	2026173	1471977418922	1471977419066		69
4009	42447	I agree since I am at the bank right now.	I agree since I am at the bank right now.	2026176	1471977418986	1471977419074		32
4009	42447	I agree since I am at the bank right now.	I agree since I am at the bank right now.	2026179	1471977419098	1471977419154		73
4009	42447	I agree since I am at the bank right now.	I agree since I am at the bank right now.	2026209	1471977419186	1471977419386	SHIFT	16
4009	42447	I agree since I am at the bank right now.	I agree since I am at the bank right now.	2026212	1471977419490	1471977419578		8
4009	42447	I agree since I am at the bank right now.	I agree since I am at the bank right now.	2026215	1471977419586	1471977419722	SHIFT	16
4009	42447	I agree since I am at the bank right now.	I agree since I am at the bank right now.	2026219	1471977419682	1471977419746		73
4009	42447	I agree since I am at the bank right now.	I agree since I am at the bank right now.	2026223	1471977419818	1471977419914		32
4009	42447	I agree since I am at the bank right now.	I agree since I am at the bank right now.	2026227	1471977419930	1471977420042		65
4009	42447	I agree since I am at the bank right now.	I agree since I am at the bank right now.	2026234	1471977420050	1471977420130		77
4009	42447	I agree since I am at the bank right now.	I agree since I am at the bank right now.	2026253	1471977420234	1471977420322		32
4009	42447	I agree since I am at the bank right now.	I agree since I am at the bank right now.	2026254	1471977420354	1471977420466		65
4009	42447	I agree since I am at the bank right now.	I agree since I am at the bank right now.	2026255	1471977420450	1471977420554		84
4009	42447	I agree since I am at the bank right now.	I agree since I am at the bank right now.	2026256	1471977420546	1471977420626		32
4009	42447	I agree since I am at the bank right now.	I agree since I am at the bank right now.	2026289	1471977420634	1471977420754		84
4009	42447	I agree since I am at the bank right now.	I agree since I am at the bank right now.	2026257	1471977420666	1471977420746		72
4009	42447	I agree since I am at the bank right now.	I agree since I am at the bank right now.	2026292	1471977420762	1471977420866		69
4009	42447	I agree since I am at the bank right now.	I agree since I am at the bank right now.	2026297	1471977420802	1471977420882		32
4009	42447	I agree since I am at the bank right now.	I agree since I am at the bank right now.	2026301	1471977420922	1471977421026		66
4009	42447	I agree since I am at the bank right now.	I agree since I am at the bank right now.	2026305	1471977421378	1471977421498		65
4009	42447	I agree since I am at the bank right now.	I agree since I am at the bank right now.	2026313	1471977421450	1471977421594		78
4009	42447	I agree since I am at the bank right now.	I agree since I am at the bank right now.	2026317	1471977421546	1471977421650		75
4009	42447	I agree since I am at the bank right now.	I agree since I am at the bank right now.	2026324	1471977421690	1471977421802		32
4009	42447	I agree since I am at the bank right now.	I agree since I am at the bank right now.	2026331	1471977421786	1471977421906		82
4009	42447	I agree since I am at the bank right now.	I agree since I am at the bank right now.	2026338	1471977421874	1471977421954		73
4009	42447	I agree since I am at the bank right now.	I agree since I am at the bank right now.	2026342	1471977421986	1471977422050		71
4009	42447	I agree since I am at the bank right now.	I agree since I am at the bank right now.	2026347	1471977422026	1471977422106		72
4009	42447	I agree since I am at the bank right now.	I agree since I am at the bank right now.	2026349	1471977422122	1471977422250		84
4009	42447	I agree since I am at the bank right now.	I agree since I am at the bank right now.	2026350	1471977422202	1471977422266		32
4009	42447	I agree since I am at the bank right now.	I agree since I am at the bank right now.	2026353	1471977422314	1471977422410		78
4009	42447	I agree since I am at the bank right now.	I agree since I am at the bank right now.	2026354	1471977422386	1471977422498		79
4009	42447	I agree since I am at the bank right now.	I agree since I am at the bank right now.	2026360	1471977422466	1471977422578		87
4009	42447	I agree since I am at the bank right now.	I agree since I am at the bank right now.	2026362	1471977422610	1471977422714		190
4009	42455	I was a bit rusty but I didn't want to miss the elections back home.	I was a bit rusty but I didn't want to miss the elections back home.	2026541	1471977427642	1471977427786	SHIFT	16
4009	42455	I was a bit rusty but I didn't want to miss the elections back home.	I was a bit rusty but I didn't want to miss the elections back home.	2026546	1471977427722	1471977427827		73
4009	42455	I was a bit rusty but I didn't want to miss the elections back home.	I was a bit rusty but I didn't want to miss the elections back home.	2026553	1471977427874	1471977427969		32
4009	42455	I was a bit rusty but I didn't want to miss the elections back home.	I was a bit rusty but I didn't want to miss the elections back home.	2026560	1471977427968	1471977428074		87
4009	42455	I was a bit rusty but I didn't want to miss the elections back home.	I was a bit rusty but I didn't want to miss the elections back home.	2026564	1471977428019	1471977428186		65
4009	42455	I was a bit rusty but I didn't want to miss the elections back home.	I was a bit rusty but I didn't want to miss the elections back home.	2026591	1471977428183	1471977428293		83
4009	42455	I was a bit rusty but I didn't want to miss the elections back home.	I was a bit rusty but I didn't want to miss the elections back home.	2026594	1471977428266	1471977428346		32
4009	42455	I was a bit rusty but I didn't want to miss the elections back home.	I was a bit rusty but I didn't want to miss the elections back home.	2026597	1471977428378	1471977428498		65
4009	42455	I was a bit rusty but I didn't want to miss the elections back home.	I was a bit rusty but I didn't want to miss the elections back home.	2026598	1471977428435	1471977428513		32
4009	42455	I was a bit rusty but I didn't want to miss the elections back home.	I was a bit rusty but I didn't want to miss the elections back home.	2026599	1471977428598	1471977428658		66
4009	42455	I was a bit rusty but I didn't want to miss the elections back home.	I was a bit rusty but I didn't want to miss the elections back home.	2026600	1471977428666	1471977428762		73
4009	42455	I was a bit rusty but I didn't want to miss the elections back home.	I was a bit rusty but I didn't want to miss the elections back home.	2026608	1471977428722	1471977428841		84
4009	42455	I was a bit rusty but I didn't want to miss the elections back home.	I was a bit rusty but I didn't want to miss the elections back home.	2026609	1471977428834	1471977428970		32
4009	42455	I was a bit rusty but I didn't want to miss the elections back home.	I was a bit rusty but I didn't want to miss the elections back home.	2026612	1471977428938	1471977429119		82
4009	42455	I was a bit rusty but I didn't want to miss the elections back home.	I was a bit rusty but I didn't want to miss the elections back home.	2026618	1471977429122	1471977429185		85
4009	42455	I was a bit rusty but I didn't want to miss the elections back home.	I was a bit rusty but I didn't want to miss the elections back home.	2026685	1471977429177	1471977429306		83
4009	42455	I was a bit rusty but I didn't want to miss the elections back home.	I was a bit rusty but I didn't want to miss the elections back home.	2026689	1471977429746	1471977429802		8
4009	42455	I was a bit rusty but I didn't want to miss the elections back home.	I was a bit rusty but I didn't want to miss the elections back home.	2026692	1471977429890	1471977429978		8
4009	42455	I was a bit rusty but I didn't want to miss the elections back home.	I was a bit rusty but I didn't want to miss the elections back home.	2026695	1471977429979	1471977430130		83
4009	42455	I was a bit rusty but I didn't want to miss the elections back home.	I was a bit rusty but I didn't want to miss the elections back home.	2026697	1471977430090	1471977430202		84
4009	42455	I was a bit rusty but I didn't want to miss the elections back home.	I was a bit rusty but I didn't want to miss the elections back home.	2026699	1471977430282	1471977430394		89
4009	42455	I was a bit rusty but I didn't want to miss the elections back home.	I was a bit rusty but I didn't want to miss the elections back home.	2026728	1471977430362	1471977430450		32
4009	42455	I was a bit rusty but I didn't want to miss the elections back home.	I was a bit rusty but I didn't want to miss the elections back home.	2026730	1471977430506	1471977430610		66
4009	42455	I was a bit rusty but I didn't want to miss the elections back home.	I was a bit rusty but I didn't want to miss the elections back home.	2026734	1471977430562	1471977430657		85
4009	42455	I was a bit rusty but I didn't want to miss the elections back home.	I was a bit rusty but I didn't want to miss the elections back home.	2026737	1471977430626	1471977430761		84
4009	42455	I was a bit rusty but I didn't want to miss the elections back home.	I was a bit rusty but I didn't want to miss the elections back home.	2026740	1471977430714	1471977430817		32
4009	42455	I was a bit rusty but I didn't want to miss the elections back home.	I was a bit rusty but I didn't want to miss the elections back home.	2026747	1471977430842	1471977430986	SHIFT	16
4009	42455	I was a bit rusty but I didn't want to miss the elections back home.	I was a bit rusty but I didn't want to miss the elections back home.	2026743	1471977430898	1471977430978		73
4009	42455	I was a bit rusty but I didn't want to miss the elections back home.	I was a bit rusty but I didn't want to miss the elections back home.	2026748	1471977431042	1471977431146		32
4009	42455	I was a bit rusty but I didn't want to miss the elections back home.	I was a bit rusty but I didn't want to miss the elections back home.	2026749	1471977431122	1471977431209		68
4009	42455	I was a bit rusty but I didn't want to miss the elections back home.	I was a bit rusty but I didn't want to miss the elections back home.	2026750	1471977431202	1471977431273		73
4009	42455	I was a bit rusty but I didn't want to miss the elections back home.	I was a bit rusty but I didn't want to miss the elections back home.	2026752	1471977431266	1471977431378		68
4009	42455	I was a bit rusty but I didn't want to miss the elections back home.	I was a bit rusty but I didn't want to miss the elections back home.	2026777	1471977431338	1471977431442		78
4009	42455	I was a bit rusty but I didn't want to miss the elections back home.	I was a bit rusty but I didn't want to miss the elections back home.	2026781	1471977431490	1471977431594		222
4009	42455	I was a bit rusty but I didn't want to miss the elections back home.	I was a bit rusty but I didn't want to miss the elections back home.	2026786	1471977431609	1471977431722		84
4009	42455	I was a bit rusty but I didn't want to miss the elections back home.	I was a bit rusty but I didn't want to miss the elections back home.	2026787	1471977431733	1471977431826		32
4009	42455	I was a bit rusty but I didn't want to miss the elections back home.	I was a bit rusty but I didn't want to miss the elections back home.	2026791	1471977431826	1471977432002		87
4009	42455	I was a bit rusty but I didn't want to miss the elections back home.	I was a bit rusty but I didn't want to miss the elections back home.	2026806	1471977431914	1471977432074		65
4009	42455	I was a bit rusty but I didn't want to miss the elections back home.	I was a bit rusty but I didn't want to miss the elections back home.	2026808	1471977431996	1471977432081		78
4009	42455	I was a bit rusty but I didn't want to miss the elections back home.	I was a bit rusty but I didn't want to miss the elections back home.	2026810	1471977432106	1471977432193		84
4009	42455	I was a bit rusty but I didn't want to miss the elections back home.	I was a bit rusty but I didn't want to miss the elections back home.	2026811	1471977432162	1471977432257		32
4009	42455	I was a bit rusty but I didn't want to miss the elections back home.	I was a bit rusty but I didn't want to miss the elections back home.	2026813	1471977432273	1471977432378		84
4009	42455	I was a bit rusty but I didn't want to miss the elections back home.	I was a bit rusty but I didn't want to miss the elections back home.	2026816	1471977432306	1471977432385		79
4009	42455	I was a bit rusty but I didn't want to miss the elections back home.	I was a bit rusty but I didn't want to miss the elections back home.	2026819	1471977432418	1471977432505		32
4009	42455	I was a bit rusty but I didn't want to miss the elections back home.	I was a bit rusty but I didn't want to miss the elections back home.	2026820	1471977432554	1471977432690		77
4009	42455	I was a bit rusty but I didn't want to miss the elections back home.	I was a bit rusty but I didn't want to miss the elections back home.	2026821	1471977432634	1471977432721		73
4009	42455	I was a bit rusty but I didn't want to miss the elections back home.	I was a bit rusty but I didn't want to miss the elections back home.	2026822	1471977432705	1471977432777		83
4009	42455	I was a bit rusty but I didn't want to miss the elections back home.	I was a bit rusty but I didn't want to miss the elections back home.	2026823	1471977432833	1471977432930		83
4009	42455	I was a bit rusty but I didn't want to miss the elections back home.	I was a bit rusty but I didn't want to miss the elections back home.	2026825	1471977432945	1471977433042		32
4009	42455	I was a bit rusty but I didn't want to miss the elections back home.	I was a bit rusty but I didn't want to miss the elections back home.	2026845	1471977433002	1471977433137		84
4009	42455	I was a bit rusty but I didn't want to miss the elections back home.	I was a bit rusty but I didn't want to miss the elections back home.	2026848	1471977433082	1471977433161		72
4009	42455	I was a bit rusty but I didn't want to miss the elections back home.	I was a bit rusty but I didn't want to miss the elections back home.	2026852	1471977433169	1471977433241		69
4009	42455	I was a bit rusty but I didn't want to miss the elections back home.	I was a bit rusty but I didn't want to miss the elections back home.	2026857	1471977433226	1471977433345		32
4009	42455	I was a bit rusty but I didn't want to miss the elections back home.	I was a bit rusty but I didn't want to miss the elections back home.	2026860	1471977433369	1471977433466		69
4009	42455	I was a bit rusty but I didn't want to miss the elections back home.	I was a bit rusty but I didn't want to miss the elections back home.	2026864	1471977433473	1471977433561		76
4009	42455	I was a bit rusty but I didn't want to miss the elections back home.	I was a bit rusty but I didn't want to miss the elections back home.	2026890	1471977433554	1471977433642		69
4009	42455	I was a bit rusty but I didn't want to miss the elections back home.	I was a bit rusty but I didn't want to miss the elections back home.	2026893	1471977433705	1471977433818		67
4009	42455	I was a bit rusty but I didn't want to miss the elections back home.	I was a bit rusty but I didn't want to miss the elections back home.	2026899	1471977433898	1471977434034		84
4009	42455	I was a bit rusty but I didn't want to miss the elections back home.	I was a bit rusty but I didn't want to miss the elections back home.	2026903	1471977434026	1471977434113		73
4009	42455	I was a bit rusty but I didn't want to miss the elections back home.	I was a bit rusty but I didn't want to miss the elections back home.	2026906	1471977434194	1471977434305		79
4009	42455	I was a bit rusty but I didn't want to miss the elections back home.	I was a bit rusty but I didn't want to miss the elections back home.	2026913	1471977434250	1471977434354		78
4009	42455	I was a bit rusty but I didn't want to miss the elections back home.	I was a bit rusty but I didn't want to miss the elections back home.	2026914	1471977434314	1471977434442		83
4009	42455	I was a bit rusty but I didn't want to miss the elections back home.	I was a bit rusty but I didn't want to miss the elections back home.	2026916	1471977434418	1471977434482		32
4009	42455	I was a bit rusty but I didn't want to miss the elections back home.	I was a bit rusty but I didn't want to miss the elections back home.	2026919	1471977434529	1471977434625		66
4009	42455	I was a bit rusty but I didn't want to miss the elections back home.	I was a bit rusty but I didn't want to miss the elections back home.	2026923	1471977434586	1471977434737		65
4009	42455	I was a bit rusty but I didn't want to miss the elections back home.	I was a bit rusty but I didn't want to miss the elections back home.	2026944	1471977434649	1471977434785		67
4009	42455	I was a bit rusty but I didn't want to miss the elections back home.	I was a bit rusty but I didn't want to miss the elections back home.	2026946	1471977434714	1471977434801		75
4009	42455	I was a bit rusty but I didn't want to miss the elections back home.	I was a bit rusty but I didn't want to miss the elections back home.	2026947	1471977434841	1471977434921		32
4009	42455	I was a bit rusty but I didn't want to miss the elections back home.	I was a bit rusty but I didn't want to miss the elections back home.	2026948	1471977434953	1471977435073		72
4009	42455	I was a bit rusty but I didn't want to miss the elections back home.	I was a bit rusty but I didn't want to miss the elections back home.	2026949	1471977435010	1471977435089		79
4009	42455	I was a bit rusty but I didn't want to miss the elections back home.	I was a bit rusty but I didn't want to miss the elections back home.	2026951	1471977435050	1471977435177		77
4009	42455	I was a bit rusty but I didn't want to miss the elections back home.	I was a bit rusty but I didn't want to miss the elections back home.	2026953	1471977435193	1471977435321		69
4009	42455	I was a bit rusty but I didn't want to miss the elections back home.	I was a bit rusty but I didn't want to miss the elections back home.	2026950	1471977435258	1471977435378		190
4009	42469	Are you going to apply?	Are you going to apply?	2027073	1471977437562	1471977438097	SHIFT	16
4009	42469	Are you going to apply?	Are you going to apply?	2027070	1471977437954	1471977438089		65
4009	42469	Are you going to apply?	Are you going to apply?	2027077	1471977438186	1471977438345		82
4009	42469	Are you going to apply?	Are you going to apply?	2027082	1471977438274	1471977438393		69
4009	42469	Are you going to apply?	Are you going to apply?	2027087	1471977438369	1471977438473		32
4009	42469	Are you going to apply?	Are you going to apply?	2027095	1471977438481	1471977438587		89
4009	42469	Are you going to apply?	Are you going to apply?	2027112	1471977438570	1471977438697		79
4009	42469	Are you going to apply?	Are you going to apply?	2027115	1471977438642	1471977438721		85
4009	42469	Are you going to apply?	Are you going to apply?	2027117	1471977438801	1471977438905		32
4009	42469	Are you going to apply?	Are you going to apply?	2027118	1471977438897	1471977439009		71
4009	42469	Are you going to apply?	Are you going to apply?	2027119	1471977438969	1471977439081		79
4009	42469	Are you going to apply?	Are you going to apply?	2027128	1471977439025	1471977439201		73
4009	42469	Are you going to apply?	Are you going to apply?	2027132	1471977439154	1471977439257		78
4009	42469	Are you going to apply?	Are you going to apply?	2027136	1471977439281	1471977439377		71
4009	42469	Are you going to apply?	Are you going to apply?	2027139	1471977439345	1471977439443		32
4009	42469	Are you going to apply?	Are you going to apply?	2027159	1471977439465	1471977439594		84
4009	42469	Are you going to apply?	Are you going to apply?	2027143	1471977439513	1471977439585		79
4009	42469	Are you going to apply?	Are you going to apply?	2027164	1471977439633	1471977439737		32
4009	42469	Are you going to apply?	Are you going to apply?	2027170	1471977439769	1471977439905		65
4009	42469	Are you going to apply?	Are you going to apply?	2027174	1471977439849	1471977439921		80
4009	42469	Are you going to apply?	Are you going to apply?	2027178	1471977439985	1471977440129		80
4009	42469	Are you going to apply?	Are you going to apply?	2027212	1471977440082	1471977440225		89
4009	42469	Are you going to apply?	Are you going to apply?	2027218	1471977440417	1471977440609	SHIFT	16
4009	42469	Are you going to apply?	Are you going to apply?	2027214	1471977440457	1471977440537		191
4009	42469	Are you going to apply?	Are you going to apply?	2027222	1471977440745	1471977440809		8
4009	42469	Are you going to apply?	Are you going to apply?	2027226	1471977440849	1471977440929		8
4009	42469	Are you going to apply?	Are you going to apply?	2027229	1471977440945	1471977441017		89
4009	42469	Are you going to apply?	Are you going to apply?	2027253	1471977440993	1471977441089		76
4009	42469	Are you going to apply?	Are you going to apply?	2027255	1471977441265	1471977441337		8
4009	42469	Are you going to apply?	Are you going to apply?	2027257	1471977441393	1471977441465		8
4009	42469	Are you going to apply?	Are you going to apply?	2027262	1471977441489	1471977441601		76
4009	42469	Are you going to apply?	Are you going to apply?	2027264	1471977441569	1471977441649		89
4009	42469	Are you going to apply?	Are you going to apply?	2027259	1471977441697	1471977441889	SHIFT	16
4009	42469	Are you going to apply?	Are you going to apply?	2027267	1471977441745	1471977441857		191
4009	42476	You must therefore take full responsibility for virus checking.	You must therefore take full responsibility for virus checking.	2027441	1471977446241	1471977446457	SHIFT	16
4009	42476	You must therefore take full responsibility for virus checking.	You must therefore take full responsibility for virus checking.	2027440	1471977446345	1471977446449		89
4009	42476	You must therefore take full responsibility for virus checking.	You must therefore take full responsibility for virus checking.	2027442	1471977446553	1471977446633		79
4009	42476	You must therefore take full responsibility for virus checking.	You must therefore take full responsibility for virus checking.	2027444	1471977446681	1471977446753		85
4009	42476	You must therefore take full responsibility for virus checking.	You must therefore take full responsibility for virus checking.	2027447	1471977446841	1471977446921		32
4009	42476	You must therefore take full responsibility for virus checking.	You must therefore take full responsibility for virus checking.	2027450	1471977446995	1471977447081		77
4009	42476	You must therefore take full responsibility for virus checking.	You must therefore take full responsibility for virus checking.	2027461	1471977447089	1471977447177		85
4009	42476	You must therefore take full responsibility for virus checking.	You must therefore take full responsibility for virus checking.	2027463	1471977447178	1471977447313		83
4009	42476	You must therefore take full responsibility for virus checking.	You must therefore take full responsibility for virus checking.	2027466	1471977447273	1471977447371		84
4009	42476	You must therefore take full responsibility for virus checking.	You must therefore take full responsibility for virus checking.	2027470	1471977447353	1471977447433		32
4009	42476	You must therefore take full responsibility for virus checking.	You must therefore take full responsibility for virus checking.	2027474	1471977447449	1471977447561		84
4009	42476	You must therefore take full responsibility for virus checking.	You must therefore take full responsibility for virus checking.	2027489	1471977447506	1471977447609		72
4009	42476	You must therefore take full responsibility for virus checking.	You must therefore take full responsibility for virus checking.	2027493	1471977447601	1471977447721		69
4009	42476	You must therefore take full responsibility for virus checking.	You must therefore take full responsibility for virus checking.	2027497	1471977447673	1471977447817		82
4009	42476	You must therefore take full responsibility for virus checking.	You must therefore take full responsibility for virus checking.	2027499	1471977447777	1471977447873		69
4009	42476	You must therefore take full responsibility for virus checking.	You must therefore take full responsibility for virus checking.	2027501	1471977447921	1471977448009		70
4009	42476	You must therefore take full responsibility for virus checking.	You must therefore take full responsibility for virus checking.	2027507	1471977447985	1471977448081		79
4009	42476	You must therefore take full responsibility for virus checking.	You must therefore take full responsibility for virus checking.	2027508	1471977448097	1471977448233		82
4009	42476	You must therefore take full responsibility for virus checking.	You must therefore take full responsibility for virus checking.	2027511	1471977448161	1471977448313		69
4009	42476	You must therefore take full responsibility for virus checking.	You must therefore take full responsibility for virus checking.	2027514	1471977448297	1471977448393		32
4009	42476	You must therefore take full responsibility for virus checking.	You must therefore take full responsibility for virus checking.	2027518	1471977448609	1471977448729		84
4009	42476	You must therefore take full responsibility for virus checking.	You must therefore take full responsibility for virus checking.	2027532	1471977448689	1471977448817		65
4009	42476	You must therefore take full responsibility for virus checking.	You must therefore take full responsibility for virus checking.	2027537	1471977448785	1471977448873		75
4009	42476	You must therefore take full responsibility for virus checking.	You must therefore take full responsibility for virus checking.	2027542	1471977448881	1471977448993		69
4009	42476	You must therefore take full responsibility for virus checking.	You must therefore take full responsibility for virus checking.	2027546	1471977448977	1471977449081		32
4009	42476	You must therefore take full responsibility for virus checking.	You must therefore take full responsibility for virus checking.	2027551	1471977449137	1471977449289		70
4009	42476	You must therefore take full responsibility for virus checking.	You must therefore take full responsibility for virus checking.	2027565	1471977449209	1471977449300		85
4009	42476	You must therefore take full responsibility for virus checking.	You must therefore take full responsibility for virus checking.	2027566	1471977449409	1471977449481		76
4009	42476	You must therefore take full responsibility for virus checking.	You must therefore take full responsibility for virus checking.	2027567	1471977449537	1471977449617		76
4009	42476	You must therefore take full responsibility for virus checking.	You must therefore take full responsibility for virus checking.	2027568	1471977449641	1471977449745		32
4009	42476	You must therefore take full responsibility for virus checking.	You must therefore take full responsibility for virus checking.	2027569	1471977449713	1471977449857		82
4009	42476	You must therefore take full responsibility for virus checking.	You must therefore take full responsibility for virus checking.	2027621	1471977449785	1471977449929		69
4009	42476	You must therefore take full responsibility for virus checking.	You must therefore take full responsibility for virus checking.	2027624	1471977449897	1471977450033		83
4009	42476	You must therefore take full responsibility for virus checking.	You must therefore take full responsibility for virus checking.	2027626	1471977450001	1471977450113		80
4009	42476	You must therefore take full responsibility for virus checking.	You must therefore take full responsibility for virus checking.	2027627	1471977450233	1471977450297		79
4009	42476	You must therefore take full responsibility for virus checking.	You must therefore take full responsibility for virus checking.	2027628	1471977450873	1471977450969		78
4009	42476	You must therefore take full responsibility for virus checking.	You must therefore take full responsibility for virus checking.	2027630	1471977451009	1471977451121		83
4009	42476	You must therefore take full responsibility for virus checking.	You must therefore take full responsibility for virus checking.	2027648	1471977451243	1471977451329		73
4009	42476	You must therefore take full responsibility for virus checking.	You must therefore take full responsibility for virus checking.	2027651	1471977451418	1471977451514		66
4009	42476	You must therefore take full responsibility for virus checking.	You must therefore take full responsibility for virus checking.	2027653	1471977451545	1471977451634		73
4009	42476	You must therefore take full responsibility for virus checking.	You must therefore take full responsibility for virus checking.	2027655	1471977451713	1471977451809		76
4009	42476	You must therefore take full responsibility for virus checking.	You must therefore take full responsibility for virus checking.	2027656	1471977451857	1471977451945		73
4009	42476	You must therefore take full responsibility for virus checking.	You must therefore take full responsibility for virus checking.	2027665	1471977451961	1471977452033		84
4009	42476	You must therefore take full responsibility for virus checking.	You must therefore take full responsibility for virus checking.	2027668	1471977452097	1471977452189		89
4009	42476	You must therefore take full responsibility for virus checking.	You must therefore take full responsibility for virus checking.	2027674	1471977452177	1471977452265		32
4009	42476	You must therefore take full responsibility for virus checking.	You must therefore take full responsibility for virus checking.	2027678	1471977452305	1471977452417		70
4009	42476	You must therefore take full responsibility for virus checking.	You must therefore take full responsibility for virus checking.	2027730	1471977452377	1471977452449		79
4009	42476	You must therefore take full responsibility for virus checking.	You must therefore take full responsibility for virus checking.	2027733	1471977452489	1471977452609		82
4009	42476	You must therefore take full responsibility for virus checking.	You must therefore take full responsibility for virus checking.	2027738	1471977452553	1471977452649		32
4009	42476	You must therefore take full responsibility for virus checking.	You must therefore take full responsibility for virus checking.	2027742	1471977452849	1471977452913		86
4009	42476	You must therefore take full responsibility for virus checking.	You must therefore take full responsibility for virus checking.	2027745	1471977452873	1471977452961		73
4009	42476	You must therefore take full responsibility for virus checking.	You must therefore take full responsibility for virus checking.	2027747	1471977453249	1471977453361		82
4009	42476	You must therefore take full responsibility for virus checking.	You must therefore take full responsibility for virus checking.	2027761	1471977453337	1471977453441		85
4009	42476	You must therefore take full responsibility for virus checking.	You must therefore take full responsibility for virus checking.	2027763	1471977453657	1471977453729		83
4009	42476	You must therefore take full responsibility for virus checking.	You must therefore take full responsibility for virus checking.	2027765	1471977453849	1471977453937		32
4009	42476	You must therefore take full responsibility for virus checking.	You must therefore take full responsibility for virus checking.	2027767	1471977454241	1471977454353		67
4009	42476	You must therefore take full responsibility for virus checking.	You must therefore take full responsibility for virus checking.	2027769	1471977454313	1471977454401		72
4009	42476	You must therefore take full responsibility for virus checking.	You must therefore take full responsibility for virus checking.	2027770	1471977454441	1471977454537		69
4009	42476	You must therefore take full responsibility for virus checking.	You must therefore take full responsibility for virus checking.	2027781	1471977454497	1471977454649		67
4009	42476	You must therefore take full responsibility for virus checking.	You must therefore take full responsibility for virus checking.	2027785	1471977454617	1471977454713		75
4009	42476	You must therefore take full responsibility for virus checking.	You must therefore take full responsibility for virus checking.	2027787	1471977454777	1471977454865		73
4009	42476	You must therefore take full responsibility for virus checking.	You must therefore take full responsibility for virus checking.	2027790	1471977454833	1471977454953		78
4009	42476	You must therefore take full responsibility for virus checking.	You must therefore take full responsibility for virus checking.	2027792	1471977454929	1471977455049		71
4009	42476	You must therefore take full responsibility for virus checking.	You must therefore take full responsibility for virus checking.	2027793	1471977455050	1471977455153		190
4009	42487	Don't use him this week.	Don't use him this week.	2027934	1471977458113	1471977458313	SHIFT	16
4009	42487	Don't use him this week.	Don't use him this week.	2027937	1471977458217	1471977458329		68
4009	42487	Don't use him this week.	Don't use him this week.	2027939	1471977458385	1471977458489		79
4009	42487	Don't use him this week.	Don't use him this week.	2027942	1471977458537	1471977458649		78
4009	42487	Don't use him this week.	Don't use him this week.	2027945	1471977458697	1471977458817		222
4009	42487	Don't use him this week.	Don't use him this week.	2027949	1471977458857	1471977458993		84
4009	42487	Don't use him this week.	Don't use him this week.	2027962	1471977458945	1471977459033		32
4009	42487	Don't use him this week.	Don't use him this week.	2027965	1471977459033	1471977459141		85
4009	42487	Don't use him this week.	Don't use him this week.	2027968	1471977459121	1471977459257		83
4009	42487	Don't use him this week.	Don't use him this week.	2027972	1471977459201	1471977459313		69
4009	42487	Don't use him this week.	Don't use him this week.	2027974	1471977459281	1471977459377		32
4009	42487	Don't use him this week.	Don't use him this week.	2027976	1471977459465	1471977459601		72
4009	42487	Don't use him this week.	Don't use him this week.	2027994	1471977459577	1471977459673		73
4009	42487	Don't use him this week.	Don't use him this week.	2027996	1471977459857	1471977459937		77
4009	42487	Don't use him this week.	Don't use him this week.	2027999	1471977460017	1471977460121		32
4009	42487	Don't use him this week.	Don't use him this week.	2028000	1471977460129	1471977460273		84
4009	42487	Don't use him this week.	Don't use him this week.	2028004	1471977460209	1471977460321		72
4009	42487	Don't use him this week.	Don't use him this week.	2028027	1471977460281	1471977460385		73
4009	42487	Don't use him this week.	Don't use him this week.	2028028	1471977460353	1471977460457		83
4009	42487	Don't use him this week.	Don't use him this week.	2028029	1471977460481	1471977460593		32
4009	42487	Don't use him this week.	Don't use him this week.	2028030	1471977460569	1471977460681		87
4009	42487	Don't use him this week.	Don't use him this week.	2028031	1471977460633	1471977460745		69
4009	42487	Don't use him this week.	Don't use him this week.	2028032	1471977460793	1471977460897		69
4009	42487	Don't use him this week.	Don't use him this week.	2028042	1471977460849	1471977460961		75
4009	42487	Don't use him this week.	Don't use him this week.	2028048	1471977461233	1471977461377		190
4009	42493	Taiwan is to cut tariffs on items.	Taiwan is to cut tariffs on items.	2028211	1471977465241	1471977465577	SHIFT	16
4009	42493	Taiwan is to cut tariffs on items.	Taiwan is to cut tariffs on items.	2028212	1471977465489	1471977465593		84
4009	42493	Taiwan is to cut tariffs on items.	Taiwan is to cut tariffs on items.	2028215	1471977465713	1471977465825		65
4009	42493	Taiwan is to cut tariffs on items.	Taiwan is to cut tariffs on items.	2028216	1471977465834	1471977465921		73
4009	42493	Taiwan is to cut tariffs on items.	Taiwan is to cut tariffs on items.	2028219	1471977466041	1471977466193		87
4009	42493	Taiwan is to cut tariffs on items.	Taiwan is to cut tariffs on items.	2028239	1471977466121	1471977466265		65
4009	42493	Taiwan is to cut tariffs on items.	Taiwan is to cut tariffs on items.	2028243	1471977466241	1471977466321		78
4009	42493	Taiwan is to cut tariffs on items.	Taiwan is to cut tariffs on items.	2028247	1471977466409	1471977466505		32
4009	42493	Taiwan is to cut tariffs on items.	Taiwan is to cut tariffs on items.	2028253	1471977466489	1471977466561		73
4009	42493	Taiwan is to cut tariffs on items.	Taiwan is to cut tariffs on items.	2028258	1471977466593	1471977466697		83
4009	42493	Taiwan is to cut tariffs on items.	Taiwan is to cut tariffs on items.	2028264	1471977466673	1471977466761		32
4009	42493	Taiwan is to cut tariffs on items.	Taiwan is to cut tariffs on items.	2028265	1471977466745	1471977466873		84
4009	42493	Taiwan is to cut tariffs on items.	Taiwan is to cut tariffs on items.	2028266	1471977466825	1471977466905		79
4009	42493	Taiwan is to cut tariffs on items.	Taiwan is to cut tariffs on items.	2028267	1471977466953	1471977467060		32
4009	42493	Taiwan is to cut tariffs on items.	Taiwan is to cut tariffs on items.	2028268	1471977467049	1471977467169		67
4009	42493	Taiwan is to cut tariffs on items.	Taiwan is to cut tariffs on items.	2028286	1471977467137	1471977467217		85
4009	42493	Taiwan is to cut tariffs on items.	Taiwan is to cut tariffs on items.	2028291	1471977467249	1471977467361		84
4009	42493	Taiwan is to cut tariffs on items.	Taiwan is to cut tariffs on items.	2028297	1471977467329	1471977467449		32
4009	42493	Taiwan is to cut tariffs on items.	Taiwan is to cut tariffs on items.	2028301	1471977467465	1471977467577		84
4009	42493	Taiwan is to cut tariffs on items.	Taiwan is to cut tariffs on items.	2028307	1471977467593	1471977467761		65
4009	42493	Taiwan is to cut tariffs on items.	Taiwan is to cut tariffs on items.	2028327	1471977467681	1471977467793		82
4009	42493	Taiwan is to cut tariffs on items.	Taiwan is to cut tariffs on items.	2028329	1471977467841	1471977467929		73
4009	42493	Taiwan is to cut tariffs on items.	Taiwan is to cut tariffs on items.	2028331	1471977467961	1471977468049		70
4009	42493	Taiwan is to cut tariffs on items.	Taiwan is to cut tariffs on items.	2028333	1471977468121	1471977468265		70
4009	42493	Taiwan is to cut tariffs on items.	Taiwan is to cut tariffs on items.	2028337	1471977468233	1471977468385		83
4009	42493	Taiwan is to cut tariffs on items.	Taiwan is to cut tariffs on items.	2028351	1471977468345	1471977468433		32
4009	42493	Taiwan is to cut tariffs on items.	Taiwan is to cut tariffs on items.	2028354	1471977468457	1471977468561		79
4009	42493	Taiwan is to cut tariffs on items.	Taiwan is to cut tariffs on items.	2028358	1471977468521	1471977468609		78
4009	42493	Taiwan is to cut tariffs on items.	Taiwan is to cut tariffs on items.	2028361	1471977468665	1471977468753		32
4009	42493	Taiwan is to cut tariffs on items.	Taiwan is to cut tariffs on items.	2028366	1471977468745	1471977468825		84
4009	42493	Taiwan is to cut tariffs on items.	Taiwan is to cut tariffs on items.	2028395	1471977468777	1471977468857		73
4009	42493	Taiwan is to cut tariffs on items.	Taiwan is to cut tariffs on items.	2028397	1471977469153	1471977469225		8
4009	42493	Taiwan is to cut tariffs on items.	Taiwan is to cut tariffs on items.	2028401	1471977469273	1471977469345		8
4009	42493	Taiwan is to cut tariffs on items.	Taiwan is to cut tariffs on items.	2028408	1471977469505	1471977469641		84
4009	42493	Taiwan is to cut tariffs on items.	Taiwan is to cut tariffs on items.	2028414	1471977469841	1471977469929		8
4009	42493	Taiwan is to cut tariffs on items.	Taiwan is to cut tariffs on items.	2028421	1471977470025	1471977470113		73
4009	42493	Taiwan is to cut tariffs on items.	Taiwan is to cut tariffs on items.	2028451	1471977470097	1471977470233		84
4009	42493	Taiwan is to cut tariffs on items.	Taiwan is to cut tariffs on items.	2028454	1471977470169	1471977470305		69
4009	42493	Taiwan is to cut tariffs on items.	Taiwan is to cut tariffs on items.	2028456	1471977470249	1471977470337		77
4009	42493	Taiwan is to cut tariffs on items.	Taiwan is to cut tariffs on items.	2028458	1471977470377	1471977470489		83
4009	42493	Taiwan is to cut tariffs on items.	Taiwan is to cut tariffs on items.	2028459	1471977470425	1471977470545		190
4009	42499	Tiger Woods is set to answer your questions.	Tiger Woods is set to answer your questions.	2028590	1471977474025	1471977474297	SHIFT	16
4009	42499	Tiger Woods is set to answer your questions.	Tiger Woods is set to answer your questions.	2028592	1471977474201	1471977474313		84
4009	42499	Tiger Woods is set to answer your questions.	Tiger Woods is set to answer your questions.	2028593	1471977474393	1471977474481		73
4009	42499	Tiger Woods is set to answer your questions.	Tiger Woods is set to answer your questions.	2028595	1471977474465	1471977474561		71
4009	42499	Tiger Woods is set to answer your questions.	Tiger Woods is set to answer your questions.	2028596	1471977474625	1471977474785		69
4009	42499	Tiger Woods is set to answer your questions.	Tiger Woods is set to answer your questions.	2028618	1471977474689	1471977474845		82
4009	42499	Tiger Woods is set to answer your questions.	Tiger Woods is set to answer your questions.	2028620	1471977474825	1471977474912		32
4009	42499	Tiger Woods is set to answer your questions.	Tiger Woods is set to answer your questions.	2028621	1471977474905	1471977475121	SHIFT	16
4009	42499	Tiger Woods is set to answer your questions.	Tiger Woods is set to answer your questions.	2028624	1471977475001	1471977475121		87
4009	42499	Tiger Woods is set to answer your questions.	Tiger Woods is set to answer your questions.	2028628	1471977475193	1471977475285		79
4009	42499	Tiger Woods is set to answer your questions.	Tiger Woods is set to answer your questions.	2028630	1471977475329	1471977475409		79
4009	42499	Tiger Woods is set to answer your questions.	Tiger Woods is set to answer your questions.	2028632	1471977475425	1471977475569		68
4009	42499	Tiger Woods is set to answer your questions.	Tiger Woods is set to answer your questions.	2028631	1471977475489	1471977475633		83
4009	42499	Tiger Woods is set to answer your questions.	Tiger Woods is set to answer your questions.	2028633	1471977475585	1471977475673		32
4009	42499	Tiger Woods is set to answer your questions.	Tiger Woods is set to answer your questions.	2028634	1471977475681	1471977475769		73
4009	42499	Tiger Woods is set to answer your questions.	Tiger Woods is set to answer your questions.	2028636	1471977475777	1471977475905		83
4009	42499	Tiger Woods is set to answer your questions.	Tiger Woods is set to answer your questions.	2028638	1471977475865	1471977475962		32
4009	42499	Tiger Woods is set to answer your questions.	Tiger Woods is set to answer your questions.	2028651	1471977475945	1471977476097		83
4009	42499	Tiger Woods is set to answer your questions.	Tiger Woods is set to answer your questions.	2028654	1471977476041	1471977476201		69
4009	42499	Tiger Woods is set to answer your questions.	Tiger Woods is set to answer your questions.	2028657	1471977476169	1471977476313		84
4009	42499	Tiger Woods is set to answer your questions.	Tiger Woods is set to answer your questions.	2028660	1471977476289	1471977476377		32
4009	42499	Tiger Woods is set to answer your questions.	Tiger Woods is set to answer your questions.	2028662	1471977476441	1471977476561		84
4009	42499	Tiger Woods is set to answer your questions.	Tiger Woods is set to answer your questions.	2028691	1471977476521	1471977476593		79
4009	42499	Tiger Woods is set to answer your questions.	Tiger Woods is set to answer your questions.	2028694	1471977476665	1471977476753		32
4009	42499	Tiger Woods is set to answer your questions.	Tiger Woods is set to answer your questions.	2028696	1471977476833	1471977476962		65
4009	42499	Tiger Woods is set to answer your questions.	Tiger Woods is set to answer your questions.	2028700	1471977476945	1471977477017		78
4009	42499	Tiger Woods is set to answer your questions.	Tiger Woods is set to answer your questions.	2028704	1471977477025	1471977477129		83
4009	42499	Tiger Woods is set to answer your questions.	Tiger Woods is set to answer your questions.	2028707	1471977477209	1471977477329		87
4009	42499	Tiger Woods is set to answer your questions.	Tiger Woods is set to answer your questions.	2028717	1471977477273	1471977477425		69
4009	42499	Tiger Woods is set to answer your questions.	Tiger Woods is set to answer your questions.	2028721	1471977477337	1471977477465		82
4009	42499	Tiger Woods is set to answer your questions.	Tiger Woods is set to answer your questions.	2028723	1471977477497	1471977477585		32
4009	42499	Tiger Woods is set to answer your questions.	Tiger Woods is set to answer your questions.	2028728	1471977477545	1471977477665		89
4009	42499	Tiger Woods is set to answer your questions.	Tiger Woods is set to answer your questions.	2028734	1471977477649	1471977477777		79
4009	42499	Tiger Woods is set to answer your questions.	Tiger Woods is set to answer your questions.	2028773	1471977477737	1471977477849		85
4009	42499	Tiger Woods is set to answer your questions.	Tiger Woods is set to answer your questions.	2028777	1471977477881	1471977477969		82
4009	42499	Tiger Woods is set to answer your questions.	Tiger Woods is set to answer your questions.	2028782	1471977477993	1471977478065		32
4009	42499	Tiger Woods is set to answer your questions.	Tiger Woods is set to answer your questions.	2028786	1471977478529	1471977478649		81
4009	42499	Tiger Woods is set to answer your questions.	Tiger Woods is set to answer your questions.	2028789	1471977478665	1471977478745		85
4009	42499	Tiger Woods is set to answer your questions.	Tiger Woods is set to answer your questions.	2028791	1471977478768	1471977478961		69
4009	42499	Tiger Woods is set to answer your questions.	Tiger Woods is set to answer your questions.	2028806	1471977478857	1471977478985		83
4009	42499	Tiger Woods is set to answer your questions.	Tiger Woods is set to answer your questions.	2028811	1471977478929	1471977479057		84
4009	42499	Tiger Woods is set to answer your questions.	Tiger Woods is set to answer your questions.	2028816	1471977479009	1471977479088		73
4009	42499	Tiger Woods is set to answer your questions.	Tiger Woods is set to answer your questions.	2028819	1471977479168	1471977479273		79
4009	42499	Tiger Woods is set to answer your questions.	Tiger Woods is set to answer your questions.	2028821	1471977479217	1471977479347		78
4009	42499	Tiger Woods is set to answer your questions.	Tiger Woods is set to answer your questions.	2028824	1471977479329	1471977479473		83
4009	42499	Tiger Woods is set to answer your questions.	Tiger Woods is set to answer your questions.	2028822	1471977479425	1471977479545		190
4009	42508	I hope everything worked out okay with your rent.	I hope everything worked out okay with your rent.	2029016	1471977483090	1471977483225	SHIFT	16
4009	42508	I hope everything worked out okay with your rent.	I hope everything worked out okay with your rent.	2029021	1471977483281	1471977483545	SHIFT	16
4009	42508	I hope everything worked out okay with your rent.	I hope everything worked out okay with your rent.	2029018	1471977483411	1471977483505		73
4009	42508	I hope everything worked out okay with your rent.	I hope everything worked out okay with your rent.	2029025	1471977483617	1471977483713		32
4009	42508	I hope everything worked out okay with your rent.	I hope everything worked out okay with your rent.	2029028	1471977483745	1471977483856		72
4009	42508	I hope everything worked out okay with your rent.	I hope everything worked out okay with your rent.	2029031	1471977483825	1471977483888		79
4009	42508	I hope everything worked out okay with your rent.	I hope everything worked out okay with your rent.	2029032	1471977483977	1471977484056		80
4009	42508	I hope everything worked out okay with your rent.	I hope everything worked out okay with your rent.	2029054	1471977484425	1471977484514		69
4009	42508	I hope everything worked out okay with your rent.	I hope everything worked out okay with your rent.	2029055	1471977484515	1471977484593		32
4009	42508	I hope everything worked out okay with your rent.	I hope everything worked out okay with your rent.	2029056	1471977484616	1471977484728		69
4009	42508	I hope everything worked out okay with your rent.	I hope everything worked out okay with your rent.	2029057	1471977484705	1471977484776		86
4009	42508	I hope everything worked out okay with your rent.	I hope everything worked out okay with your rent.	2029058	1471977484824	1471977484977		69
4009	42508	I hope everything worked out okay with your rent.	I hope everything worked out okay with your rent.	2029064	1471977484897	1471977485024		82
4009	42508	I hope everything worked out okay with your rent.	I hope everything worked out okay with your rent.	2029065	1471977484985	1471977485081		89
4009	42508	I hope everything worked out okay with your rent.	I hope everything worked out okay with your rent.	2029066	1471977485120	1471977485240		84
4009	42508	I hope everything worked out okay with your rent.	I hope everything worked out okay with your rent.	2029067	1471977485185	1471977485297		72
4009	42508	I hope everything worked out okay with your rent.	I hope everything worked out okay with your rent.	2029069	1471977485256	1471977485401		73
4009	42508	I hope everything worked out okay with your rent.	I hope everything worked out okay with your rent.	2029095	1471977485353	1471977485441		78
4009	42508	I hope everything worked out okay with your rent.	I hope everything worked out okay with your rent.	2029099	1471977485408	1471977485515		71
4009	42508	I hope everything worked out okay with your rent.	I hope everything worked out okay with your rent.	2029104	1471977485505	1471977485592		32
4009	42508	I hope everything worked out okay with your rent.	I hope everything worked out okay with your rent.	2029107	1471977485600	1471977485720		87
4009	42508	I hope everything worked out okay with your rent.	I hope everything worked out okay with your rent.	2029110	1471977485657	1471977485752		79
4009	42508	I hope everything worked out okay with your rent.	I hope everything worked out okay with your rent.	2029113	1471977485760	1471977485880		82
4009	42508	I hope everything worked out okay with your rent.	I hope everything worked out okay with your rent.	2029119	1471977485825	1471977485937		75
4009	42508	I hope everything worked out okay with your rent.	I hope everything worked out okay with your rent.	2029120	1471977485921	1471977486080		69
4009	42508	I hope everything worked out okay with your rent.	I hope everything worked out okay with your rent.	2029121	1471977486008	1471977486175		68
4009	42508	I hope everything worked out okay with your rent.	I hope everything worked out okay with your rent.	2029122	1471977486120	1471977486200		32
4009	42508	I hope everything worked out okay with your rent.	I hope everything worked out okay with your rent.	2029124	1471977486216	1471977486344		79
4009	42508	I hope everything worked out okay with your rent.	I hope everything worked out okay with your rent.	2029146	1471977486305	1471977486392		85
4009	42508	I hope everything worked out okay with your rent.	I hope everything worked out okay with your rent.	2029150	1471977486408	1471977486536		84
4009	42508	I hope everything worked out okay with your rent.	I hope everything worked out okay with your rent.	2029156	1471977486489	1471977486576		32
4009	42508	I hope everything worked out okay with your rent.	I hope everything worked out okay with your rent.	2029162	1471977486624	1471977486768		79
4009	42508	I hope everything worked out okay with your rent.	I hope everything worked out okay with your rent.	2029167	1471977486712	1471977486840		75
4009	42508	I hope everything worked out okay with your rent.	I hope everything worked out okay with your rent.	2029193	1471977486832	1471977486968		65
4009	42508	I hope everything worked out okay with your rent.	I hope everything worked out okay with your rent.	2029197	1471977486945	1471977487024		89
4009	42508	I hope everything worked out okay with your rent.	I hope everything worked out okay with your rent.	2029201	1471977487105	1471977487192		32
4009	42508	I hope everything worked out okay with your rent.	I hope everything worked out okay with your rent.	2029205	1471977487200	1471977487320		87
4009	42508	I hope everything worked out okay with your rent.	I hope everything worked out okay with your rent.	2029206	1471977487264	1471977487344		73
4009	42508	I hope everything worked out okay with your rent.	I hope everything worked out okay with your rent.	2029207	1471977487368	1471977487488		84
4009	42508	I hope everything worked out okay with your rent.	I hope everything worked out okay with your rent.	2029227	1471977487417	1471977487496		72
4009	42508	I hope everything worked out okay with your rent.	I hope everything worked out okay with your rent.	2029230	1471977487577	1471977487680		32
4009	42508	I hope everything worked out okay with your rent.	I hope everything worked out okay with your rent.	2029234	1471977487656	1471977487768		89
4009	42508	I hope everything worked out okay with your rent.	I hope everything worked out okay with your rent.	2029236	1471977487736	1471977487872		79
4009	42508	I hope everything worked out okay with your rent.	I hope everything worked out okay with your rent.	2029238	1471977487848	1471977487944		85
4009	42508	I hope everything worked out okay with your rent.	I hope everything worked out okay with your rent.	2029241	1471977487992	1471977488116		82
4009	42508	I hope everything worked out okay with your rent.	I hope everything worked out okay with your rent.	2029271	1471977488104	1471977488200		32
4009	42508	I hope everything worked out okay with your rent.	I hope everything worked out okay with your rent.	2029272	1471977488280	1471977488368		70
4009	42508	I hope everything worked out okay with your rent.	I hope everything worked out okay with your rent.	2029273	1471977488649	1471977488801		82
4009	42508	I hope everything worked out okay with your rent.	I hope everything worked out okay with your rent.	2029274	1471977488729	1471977488896		69
4009	42508	I hope everything worked out okay with your rent.	I hope everything worked out okay with your rent.	2029275	1471977488865	1471977488904		78
4009	42508	I hope everything worked out okay with your rent.	I hope everything worked out okay with your rent.	2029276	1471977489083	1471977489145		8
4009	42508	I hope everything worked out okay with your rent.	I hope everything worked out okay with your rent.	2029297	1471977489201	1471977489265		8
4009	42508	I hope everything worked out okay with your rent.	I hope everything worked out okay with your rent.	2029302	1471977489337	1471977489385		8
4009	42508	I hope everything worked out okay with your rent.	I hope everything worked out okay with your rent.	2029308	1471977489449	1471977489512		8
4009	42508	I hope everything worked out okay with your rent.	I hope everything worked out okay with your rent.	2029309	1471977489529	1471977489688		82
4009	42508	I hope everything worked out okay with your rent.	I hope everything worked out okay with your rent.	2029330	1471977489601	1471977489768		69
4009	42508	I hope everything worked out okay with your rent.	I hope everything worked out okay with your rent.	2029332	1471977489657	1471977489784		78
4009	42508	I hope everything worked out okay with your rent.	I hope everything worked out okay with your rent.	2029334	1471977489864	1471977489968		84
4009	42508	I hope everything worked out okay with your rent.	I hope everything worked out okay with your rent.	2029336	1471977489905	1471977490017		190
4009	42517	Good luck this week, I can't see any sure things out there.	Good luck this week, I can't see any sure things out there.	2029555	1471977495969	1471977496256	SHIFT	16
4009	42517	Good luck this week, I can't see any sure things out there.	Good luck this week, I can't see any sure things out there.	2029557	1471977496144	1471977496280		71
4009	42517	Good luck this week, I can't see any sure things out there.	Good luck this week, I can't see any sure things out there.	2029560	1471977496376	1471977496456		79
4009	42517	Good luck this week, I can't see any sure things out there.	Good luck this week, I can't see any sure things out there.	2029563	1471977496529	1471977496608		79
4009	42517	Good luck this week, I can't see any sure things out there.	Good luck this week, I can't see any sure things out there.	2029565	1471977496664	1471977496776		68
4009	42517	Good luck this week, I can't see any sure things out there.	Good luck this week, I can't see any sure things out there.	2029587	1471977496744	1471977496832		32
4009	42517	Good luck this week, I can't see any sure things out there.	Good luck this week, I can't see any sure things out there.	2029590	1471977496864	1471977496960		76
4009	42517	Good luck this week, I can't see any sure things out there.	Good luck this week, I can't see any sure things out there.	2029594	1471977497033	1471977497104		85
4009	42517	Good luck this week, I can't see any sure things out there.	Good luck this week, I can't see any sure things out there.	2029597	1471977497200	1471977497280		75
4009	42517	Good luck this week, I can't see any sure things out there.	Good luck this week, I can't see any sure things out there.	2029599	1471977497744	1471977497809		8
4009	42517	Good luck this week, I can't see any sure things out there.	Good luck this week, I can't see any sure things out there.	2029603	1471977497840	1471977497960		67
4009	42517	Good luck this week, I can't see any sure things out there.	Good luck this week, I can't see any sure things out there.	2029613	1471977497920	1471977497984		75
4009	42517	Good luck this week, I can't see any sure things out there.	Good luck this week, I can't see any sure things out there.	2029616	1471977498088	1471977498160		32
4009	42517	Good luck this week, I can't see any sure things out there.	Good luck this week, I can't see any sure things out there.	2029621	1471977498152	1471977498280		84
4009	42517	Good luck this week, I can't see any sure things out there.	Good luck this week, I can't see any sure things out there.	2029624	1471977498240	1471977498336		72
4009	42517	Good luck this week, I can't see any sure things out there.	Good luck this week, I can't see any sure things out there.	2029629	1471977498320	1471977498424		73
4009	42517	Good luck this week, I can't see any sure things out there.	Good luck this week, I can't see any sure things out there.	2029633	1471977498440	1471977498544		83
4009	42517	Good luck this week, I can't see any sure things out there.	Good luck this week, I can't see any sure things out there.	2029650	1471977498560	1471977498640		32
4009	42517	Good luck this week, I can't see any sure things out there.	Good luck this week, I can't see any sure things out there.	2029655	1471977498664	1471977498824		87
4009	42517	Good luck this week, I can't see any sure things out there.	Good luck this week, I can't see any sure things out there.	2029658	1471977498760	1471977498872		69
4009	42517	Good luck this week, I can't see any sure things out there.	Good luck this week, I can't see any sure things out there.	2029662	1471977498928	1471977499036		69
4009	42517	Good luck this week, I can't see any sure things out there.	Good luck this week, I can't see any sure things out there.	2029703	1471977499016	1471977499096		75
4009	42517	Good luck this week, I can't see any sure things out there.	Good luck this week, I can't see any sure things out there.	2029705	1471977499424	1471977499504		8
4009	42517	Good luck this week, I can't see any sure things out there.	Good luck this week, I can't see any sure things out there.	2029707	1471977499961	1471977500040		75
4009	42517	Good luck this week, I can't see any sure things out there.	Good luck this week, I can't see any sure things out there.	2029711	1471977500128	1471977500192		188
4009	42517	Good luck this week, I can't see any sure things out there.	Good luck this week, I can't see any sure things out there.	2029713	1471977500264	1471977500336		32
4009	42517	Good luck this week, I can't see any sure things out there.	Good luck this week, I can't see any sure things out there.	2029739	1471977500344	1471977500488	SHIFT	16
4009	42517	Good luck this week, I can't see any sure things out there.	Good luck this week, I can't see any sure things out there.	2029717	1471977500416	1471977500480		73
4009	42517	Good luck this week, I can't see any sure things out there.	Good luck this week, I can't see any sure things out there.	2029741	1471977500536	1471977500648		32
4009	42517	Good luck this week, I can't see any sure things out there.	Good luck this week, I can't see any sure things out there.	2029742	1471977500624	1471977500752		67
4009	42517	Good luck this week, I can't see any sure things out there.	Good luck this week, I can't see any sure things out there.	2029743	1471977500696	1471977500848		65
4009	42517	Good luck this week, I can't see any sure things out there.	Good luck this week, I can't see any sure things out there.	2029744	1471977500776	1471977500872		78
4009	42517	Good luck this week, I can't see any sure things out there.	Good luck this week, I can't see any sure things out there.	2029745	1471977500944	1471977501040		222
4009	42517	Good luck this week, I can't see any sure things out there.	Good luck this week, I can't see any sure things out there.	2029766	1471977501104	1471977501208		84
4009	42517	Good luck this week, I can't see any sure things out there.	Good luck this week, I can't see any sure things out there.	2029771	1471977501192	1471977501280		32
4009	42517	Good luck this week, I can't see any sure things out there.	Good luck this week, I can't see any sure things out there.	2029777	1471977501328	1471977501472		83
4009	42517	Good luck this week, I can't see any sure things out there.	Good luck this week, I can't see any sure things out there.	2029782	1471977501424	1471977501528		69
4009	42517	Good luck this week, I can't see any sure things out there.	Good luck this week, I can't see any sure things out there.	2029787	1471977501576	1471977501704		69
4009	42517	Good luck this week, I can't see any sure things out there.	Good luck this week, I can't see any sure things out there.	2029796	1471977501680	1471977501784		32
4009	42517	Good luck this week, I can't see any sure things out there.	Good luck this week, I can't see any sure things out there.	2029802	1471977501792	1471977501968		65
4009	42517	Good luck this week, I can't see any sure things out there.	Good luck this week, I can't see any sure things out there.	2029798	1471977501864	1471977501936		78
4009	42517	Good luck this week, I can't see any sure things out there.	Good luck this week, I can't see any sure things out there.	2029807	1471977501976	1471977502072		89
4009	42517	Good luck this week, I can't see any sure things out there.	Good luck this week, I can't see any sure things out there.	2029811	1471977502136	1471977502248		32
4009	42517	Good luck this week, I can't see any sure things out there.	Good luck this week, I can't see any sure things out there.	2029820	1471977502216	1471977502353		83
4009	42517	Good luck this week, I can't see any sure things out there.	Good luck this week, I can't see any sure things out there.	2029824	1471977502336	1471977502424		85
4009	42517	Good luck this week, I can't see any sure things out there.	Good luck this week, I can't see any sure things out there.	2029826	1471977502409	1471977502544		82
4009	42517	Good luck this week, I can't see any sure things out there.	Good luck this week, I can't see any sure things out there.	2029832	1471977502472	1471977502608		69
4009	42517	Good luck this week, I can't see any sure things out there.	Good luck this week, I can't see any sure things out there.	2029837	1471977502560	1471977502648		32
4009	42517	Good luck this week, I can't see any sure things out there.	Good luck this week, I can't see any sure things out there.	2029859	1471977502640	1471977502752		84
4009	42517	Good luck this week, I can't see any sure things out there.	Good luck this week, I can't see any sure things out there.	2029863	1471977502728	1471977502808		72
4009	42517	Good luck this week, I can't see any sure things out there.	Good luck this week, I can't see any sure things out there.	2029865	1471977502768	1471977502928		73
4009	42517	Good luck this week, I can't see any sure things out there.	Good luck this week, I can't see any sure things out there.	2029869	1471977502880	1471977502984		78
4009	42517	Good luck this week, I can't see any sure things out there.	Good luck this week, I can't see any sure things out there.	2029873	1471977502936	1471977503088		71
4009	42517	Good luck this week, I can't see any sure things out there.	Good luck this week, I can't see any sure things out there.	2029886	1471977503024	1471977503176		83
4009	42517	Good luck this week, I can't see any sure things out there.	Good luck this week, I can't see any sure things out there.	2029889	1471977503120	1471977503224		32
4009	42517	Good luck this week, I can't see any sure things out there.	Good luck this week, I can't see any sure things out there.	2029892	1471977503240	1471977503368		79
4009	42517	Good luck this week, I can't see any sure things out there.	Good luck this week, I can't see any sure things out there.	2029895	1471977503320	1471977503456		85
4009	42517	Good luck this week, I can't see any sure things out there.	Good luck this week, I can't see any sure things out there.	2029898	1471977503440	1471977503552		84
4009	42517	Good luck this week, I can't see any sure things out there.	Good luck this week, I can't see any sure things out there.	2029906	1471977503536	1471977503640		32
4009	42517	Good luck this week, I can't see any sure things out there.	Good luck this week, I can't see any sure things out there.	2029909	1471977503632	1471977503720		84
4009	42517	Good luck this week, I can't see any sure things out there.	Good luck this week, I can't see any sure things out there.	2029915	1471977503688	1471977503784		72
4009	42517	Good luck this week, I can't see any sure things out there.	Good luck this week, I can't see any sure things out there.	2029922	1471977503760	1471977503856		69
4009	42517	Good luck this week, I can't see any sure things out there.	Good luck this week, I can't see any sure things out there.	2029926	1471977503816	1471977504008		82
4009	42517	Good luck this week, I can't see any sure things out there.	Good luck this week, I can't see any sure things out there.	2029929	1471977503920	1471977504064		69
4009	42517	Good luck this week, I can't see any sure things out there.	Good luck this week, I can't see any sure things out there.	2029932	1471977504040	1471977504144		190
4009	42531	Can you please review and get back to Tim?	Can you please review and get back to Tim?	2030053	1471977506088	1471977506328	SHIFT	16
4009	42531	Can you please review and get back to Tim?	Can you please review and get back to Tim?	2030055	1471977506232	1471977506368		67
4009	42531	Can you please review and get back to Tim?	Can you please review and get back to Tim?	2030056	1471977506448	1471977506584		65
4009	42531	Can you please review and get back to Tim?	Can you please review and get back to Tim?	2030059	1471977506528	1471977506608		78
4009	42531	Can you please review and get back to Tim?	Can you please review and get back to Tim?	2030060	1471977506688	1471977506776		32
4009	42531	Can you please review and get back to Tim?	Can you please review and get back to Tim?	2030088	1471977506768	1471977506880		89
4009	42531	Can you please review and get back to Tim?	Can you please review and get back to Tim?	2030092	1471977506840	1471977506976		79
4009	42531	Can you please review and get back to Tim?	Can you please review and get back to Tim?	2030097	1471977506928	1471977507008		85
4009	42531	Can you please review and get back to Tim?	Can you please review and get back to Tim?	2030101	1471977507096	1471977507192		32
4009	42531	Can you please review and get back to Tim?	Can you please review and get back to Tim?	2030104	1471977507296	1471977507512		80
4009	42531	Can you please review and get back to Tim?	Can you please review and get back to Tim?	2030107	1471977507440	1471977507584		76
4009	42531	Can you please review and get back to Tim?	Can you please review and get back to Tim?	2030109	1471977507560	1471977507712		69
4009	42531	Can you please review and get back to Tim?	Can you please review and get back to Tim?	2030111	1471977507640	1471977507832		65
4009	42531	Can you please review and get back to Tim?	Can you please review and get back to Tim?	2030114	1471977507760	1471977507896		83
4009	42531	Can you please review and get back to Tim?	Can you please review and get back to Tim?	2030118	1471977507824	1471977507928		69
4009	42531	Can you please review and get back to Tim?	Can you please review and get back to Tim?	2030161	1471977507912	1471977508024		32
4009	42531	Can you please review and get back to Tim?	Can you please review and get back to Tim?	2030163	1471977508008	1471977508152		82
4009	42531	Can you please review and get back to Tim?	Can you please review and get back to Tim?	2030168	1471977508120	1471977508240		69
4009	42531	Can you please review and get back to Tim?	Can you please review and get back to Tim?	2030172	1471977508296	1471977508424		86
4009	42531	Can you please review and get back to Tim?	Can you please review and get back to Tim?	2030176	1471977508376	1471977508480		73
4009	42531	Can you please review and get back to Tim?	Can you please review and get back to Tim?	2030179	1471977508488	1471977508680		69
4009	42531	Can you please review and get back to Tim?	Can you please review and get back to Tim?	2030186	1471977508568	1471977508744		87
4009	42531	Can you please review and get back to Tim?	Can you please review and get back to Tim?	2030187	1471977508736	1471977508824		32
4009	42531	Can you please review and get back to Tim?	Can you please review and get back to Tim?	2030189	1471977508920	1471977509048		65
4009	42531	Can you please review and get back to Tim?	Can you please review and get back to Tim?	2030192	1471977508992	1471977509072		78
4009	42531	Can you please review and get back to Tim?	Can you please review and get back to Tim?	2030199	1471977509080	1471977509208		68
4009	42531	Can you please review and get back to Tim?	Can you please review and get back to Tim?	2030233	1471977509168	1471977509264		32
4009	42531	Can you please review and get back to Tim?	Can you please review and get back to Tim?	2030235	1471977509312	1471977509440		71
4009	42531	Can you please review and get back to Tim?	Can you please review and get back to Tim?	2030237	1471977509416	1471977509584		69
4009	42531	Can you please review and get back to Tim?	Can you please review and get back to Tim?	2030240	1471977509536	1471977509648		84
4009	42531	Can you please review and get back to Tim?	Can you please review and get back to Tim?	2030243	1471977509640	1471977509712		32
4009	42531	Can you please review and get back to Tim?	Can you please review and get back to Tim?	2030245	1471977509760	1471977509848		66
4009	42531	Can you please review and get back to Tim?	Can you please review and get back to Tim?	2030252	1471977509824	1471977509970		65
4009	42531	Can you please review and get back to Tim?	Can you please review and get back to Tim?	2030254	1471977509880	1471977510024		67
4009	42531	Can you please review and get back to Tim?	Can you please review and get back to Tim?	2030257	1471977509960	1471977510040		75
4009	42531	Can you please review and get back to Tim?	Can you please review and get back to Tim?	2030260	1471977510096	1471977510184		32
4009	42531	Can you please review and get back to Tim?	Can you please review and get back to Tim?	2030299	1471977510152	1471977510304		84
4009	42531	Can you please review and get back to Tim?	Can you please review and get back to Tim?	2030265	1471977510224	1471977510296		79
4009	42531	Can you please review and get back to Tim?	Can you please review and get back to Tim?	2030303	1471977510351	1471977510448		32
4009	42531	Can you please review and get back to Tim?	Can you please review and get back to Tim?	2030306	1471977510424	1471977510568	SHIFT	16
4009	42531	Can you please review and get back to Tim?	Can you please review and get back to Tim?	2030310	1471977510472	1471977510600		84
4009	42531	Can you please review and get back to Tim?	Can you please review and get back to Tim?	2030312	1471977510568	1471977510656		73
4009	42531	Can you please review and get back to Tim?	Can you please review and get back to Tim?	2030315	1471977510632	1471977510728		77
4009	42531	Can you please review and get back to Tim?	Can you please review and get back to Tim?	2030309	1471977510808	1471977511016	SHIFT	16
4009	42531	Can you please review and get back to Tim?	Can you please review and get back to Tim?	2030318	1471977510888	1471977510984		191
