PARTICIPANT_ID	TEST_SECTION_ID	SENTENCE	USER_INPUT	KEYSTROKE_ID	PRESS_TIME	RELEASE_TIME	LETTER	KEYCODE
4104	43365	Leaks have indicated that Clinton has narrowed his choice.	Leaks have indicated that Clinton has narrowed his choice.	2069558	1471978248163	1471978248355	CAPS_LOCK	20
4104	43365	Leaks have indicated that Clinton has narrowed his choice.	Leaks have indicated that Clinton has narrowed his choice.	2069563	1471978248355	1471978248498	L	76
4104	43365	Leaks have indicated that Clinton has narrowed his choice.	Leaks have indicated that Clinton has narrowed his choice.	2069567	1471978248434	1471978248562	CAPS_LOCK	20
4104	43365	Leaks have indicated that Clinton has narrowed his choice.	Leaks have indicated that Clinton has narrowed his choice.	2069571	1471978248690	1471978248834	e	69
4104	43365	Leaks have indicated that Clinton has narrowed his choice.	Leaks have indicated that Clinton has narrowed his choice.	2069576	1471978248898	1471978249090	a	65
4104	43365	Leaks have indicated that Clinton has narrowed his choice.	Leaks have indicated that Clinton has narrowed his choice.	2069579	1471978249106	1471978249282	k	75
4104	43365	Leaks have indicated that Clinton has narrowed his choice.	Leaks have indicated that Clinton has narrowed his choice.	2069581	1471978249362	1471978249538	s	83
4104	43365	Leaks have indicated that Clinton has narrowed his choice.	Leaks have indicated that Clinton has narrowed his choice.	2069594	1471978249541	1471978249666	 	32
4104	43365	Leaks have indicated that Clinton has narrowed his choice.	Leaks have indicated that Clinton has narrowed his choice.	2069596	1471978250002	1471978250114	h	72
4104	43365	Leaks have indicated that Clinton has narrowed his choice.	Leaks have indicated that Clinton has narrowed his choice.	2069599	1471978250162	1471978250290	a	65
4104	43365	Leaks have indicated that Clinton has narrowed his choice.	Leaks have indicated that Clinton has narrowed his choice.	2069602	1471978250226	1471978250338	v	86
4104	43365	Leaks have indicated that Clinton has narrowed his choice.	Leaks have indicated that Clinton has narrowed his choice.	2069606	1471978250370	1471978250498	e	69
4104	43365	Leaks have indicated that Clinton has narrowed his choice.	Leaks have indicated that Clinton has narrowed his choice.	2069721	1471978250450	1471978250546	 	32
4104	43365	Leaks have indicated that Clinton has narrowed his choice.	Leaks have indicated that Clinton has narrowed his choice.	2069726	1471978250978	1471978251090	i	73
4104	43365	Leaks have indicated that Clinton has narrowed his choice.	Leaks have indicated that Clinton has narrowed his choice.	2069733	1471978251266	1471978251378	n	78
4104	43365	Leaks have indicated that Clinton has narrowed his choice.	Leaks have indicated that Clinton has narrowed his choice.	2069738	1471978251586	1471978251714	d	68
4104	43365	Leaks have indicated that Clinton has narrowed his choice.	Leaks have indicated that Clinton has narrowed his choice.	2069740	1471978251746	1471978251890	i	73
4104	43365	Leaks have indicated that Clinton has narrowed his choice.	Leaks have indicated that Clinton has narrowed his choice.	2069747	1471978251890	1471978251986	c	67
4104	43365	Leaks have indicated that Clinton has narrowed his choice.	Leaks have indicated that Clinton has narrowed his choice.	2069930	1471978253522	1471978253682	a	65
4104	43365	Leaks have indicated that Clinton has narrowed his choice.	Leaks have indicated that Clinton has narrowed his choice.	2069935	1471978253682	1471978253778	t	84
4104	43365	Leaks have indicated that Clinton has narrowed his choice.	Leaks have indicated that Clinton has narrowed his choice.	2069940	1471978253794	1471978253922	e	69
4104	43365	Leaks have indicated that Clinton has narrowed his choice.	Leaks have indicated that Clinton has narrowed his choice.	2069944	1471978254002	1471978254162	d	68
4104	43365	Leaks have indicated that Clinton has narrowed his choice.	Leaks have indicated that Clinton has narrowed his choice.	2069947	1471978254193	1471978254306	 	32
4104	43365	Leaks have indicated that Clinton has narrowed his choice.	Leaks have indicated that Clinton has narrowed his choice.	2070142	1471978254562	1471978254658	t	84
4104	43365	Leaks have indicated that Clinton has narrowed his choice.	Leaks have indicated that Clinton has narrowed his choice.	2070148	1471978254706	1471978254818	h	72
4104	43365	Leaks have indicated that Clinton has narrowed his choice.	Leaks have indicated that Clinton has narrowed his choice.	2070154	1471978254802	1471978254914	e	69
4104	43365	Leaks have indicated that Clinton has narrowed his choice.	Leaks have indicated that Clinton has narrowed his choice.	2070160	1471978254914	1471978254995	 	32
4104	43365	Leaks have indicated that Clinton has narrowed his choice.	Leaks have indicated that Clinton has narrowed his choice.	2070169	1471978255859	1471978255938	CAPS_LOCK	20
4104	43365	Leaks have indicated that Clinton has narrowed his choice.	Leaks have indicated that Clinton has narrowed his choice.	2070177	1471978256227	1471978256323	BKSP	8
4104	43365	Leaks have indicated that Clinton has narrowed his choice.	Leaks have indicated that Clinton has narrowed his choice.	2070185	1471978256418	1471978256483	BKSP	8
4104	43365	Leaks have indicated that Clinton has narrowed his choice.	Leaks have indicated that Clinton has narrowed his choice.	2070192	1471978257267	1471978257378	A	65
4104	43365	Leaks have indicated that Clinton has narrowed his choice.	Leaks have indicated that Clinton has narrowed his choice.	2070320	1471978257315	1471978257411	T	84
4104	43365	Leaks have indicated that Clinton has narrowed his choice.	Leaks have indicated that Clinton has narrowed his choice.	2070322	1471978257490	1471978257554	 	32
4104	43365	Leaks have indicated that Clinton has narrowed his choice.	Leaks have indicated that Clinton has narrowed his choice.	2070325	1471978257731	1471978257858	CAPS_LOCK	20
4104	43365	Leaks have indicated that Clinton has narrowed his choice.	Leaks have indicated that Clinton has narrowed his choice.	2070332	1471978258099	1471978258194	BKSP	8
4104	43365	Leaks have indicated that Clinton has narrowed his choice.	Leaks have indicated that Clinton has narrowed his choice.	2070343	1471978258274	1471978258354	BKSP	8
4104	43365	Leaks have indicated that Clinton has narrowed his choice.	Leaks have indicated that Clinton has narrowed his choice.	2070351	1471978258450	1471978258530	BKSP	8
4104	43365	Leaks have indicated that Clinton has narrowed his choice.	Leaks have indicated that Clinton has narrowed his choice.	2070358	1471978258738	1471978258866	a	65
4104	43365	Leaks have indicated that Clinton has narrowed his choice.	Leaks have indicated that Clinton has narrowed his choice.	2070367	1471978259330	1471978259426	t	84
4104	43365	Leaks have indicated that Clinton has narrowed his choice.	Leaks have indicated that Clinton has narrowed his choice.	2070378	1471978259474	1471978259554	 	32
4104	43365	Leaks have indicated that Clinton has narrowed his choice.	Leaks have indicated that Clinton has narrowed his choice.	2070387	1471978259634	1471978259778	CAPS_LOCK	20
4104	43365	Leaks have indicated that Clinton has narrowed his choice.	Leaks have indicated that Clinton has narrowed his choice.	2070396	1471978259826	1471978259970	C	67
4104	43365	Leaks have indicated that Clinton has narrowed his choice.	Leaks have indicated that Clinton has narrowed his choice.	2070514	1471978260034	1471978260162	L	76
4104	43365	Leaks have indicated that Clinton has narrowed his choice.	Leaks have indicated that Clinton has narrowed his choice.	2070518	1471978260450	1471978260546	I	73
4104	43365	Leaks have indicated that Clinton has narrowed his choice.	Leaks have indicated that Clinton has narrowed his choice.	2070523	1471978260882	1471978260962	BKSP	8
4104	43365	Leaks have indicated that Clinton has narrowed his choice.	Leaks have indicated that Clinton has narrowed his choice.	2070528	1471978261042	1471978261138	BKSP	8
4104	43365	Leaks have indicated that Clinton has narrowed his choice.	Leaks have indicated that Clinton has narrowed his choice.	2070534	1471978261154	1471978261298	CAPS_LOCK	20
4104	43365	Leaks have indicated that Clinton has narrowed his choice.	Leaks have indicated that Clinton has narrowed his choice.	2070539	1471978261362	1471978261442	l	76
4104	43365	Leaks have indicated that Clinton has narrowed his choice.	Leaks have indicated that Clinton has narrowed his choice.	2070545	1471978261570	1471978261650	i	73
4104	43365	Leaks have indicated that Clinton has narrowed his choice.	Leaks have indicated that Clinton has narrowed his choice.	2070548	1471978261794	1471978261842	n	77
4104	43365	Leaks have indicated that Clinton has narrowed his choice.	Leaks have indicated that Clinton has narrowed his choice.	2070696	1471978261890	1471978262036	t	84
4104	43365	Leaks have indicated that Clinton has narrowed his choice.	Leaks have indicated that Clinton has narrowed his choice.	2070705	1471978262146	1471978262226	o	79
4104	43365	Leaks have indicated that Clinton has narrowed his choice.	Leaks have indicated that Clinton has narrowed his choice.	2070712	1471978262610	1471978262695	BKSP	8
4104	43365	Leaks have indicated that Clinton has narrowed his choice.	Leaks have indicated that Clinton has narrowed his choice.	2070719	1471978262770	1471978262834	BKSP	8
4104	43365	Leaks have indicated that Clinton has narrowed his choice.	Leaks have indicated that Clinton has narrowed his choice.	2070727	1471978262930	1471978263026	BKSP	8
4104	43365	Leaks have indicated that Clinton has narrowed his choice.	Leaks have indicated that Clinton has narrowed his choice.	2070732	1471978263122	1471978263186	BKSP	8
4104	43365	Leaks have indicated that Clinton has narrowed his choice.	Leaks have indicated that Clinton has narrowed his choice.	2070737	1471978263650	1471978263714	n	78
4104	43365	Leaks have indicated that Clinton has narrowed his choice.	Leaks have indicated that Clinton has narrowed his choice.	2070740	1471978263778	1471978263874	t	84
4104	43365	Leaks have indicated that Clinton has narrowed his choice.	Leaks have indicated that Clinton has narrowed his choice.	2070743	1471978263875	1471978264002	o	79
4104	43365	Leaks have indicated that Clinton has narrowed his choice.	Leaks have indicated that Clinton has narrowed his choice.	2070870	1471978264034	1471978264130	 	32
4104	43365	Leaks have indicated that Clinton has narrowed his choice.	Leaks have indicated that Clinton has narrowed his choice.	2070877	1471978264178	1471978264306	n	78
4104	43365	Leaks have indicated that Clinton has narrowed his choice.	Leaks have indicated that Clinton has narrowed his choice.	2070883	1471978264642	1471978264706	BKSP	8
4104	43365	Leaks have indicated that Clinton has narrowed his choice.	Leaks have indicated that Clinton has narrowed his choice.	2070890	1471978264818	1471978264882	BKSP	8
4104	43365	Leaks have indicated that Clinton has narrowed his choice.	Leaks have indicated that Clinton has narrowed his choice.	2070895	1471978265010	1471978265042	BKSP	8
4104	43365	Leaks have indicated that Clinton has narrowed his choice.	Leaks have indicated that Clinton has narrowed his choice.	2070899	1471978265874	1471978266002	o	79
4104	43365	Leaks have indicated that Clinton has narrowed his choice.	Leaks have indicated that Clinton has narrowed his choice.	2070904	1471978266146	1471978266258	n	78
4104	43365	Leaks have indicated that Clinton has narrowed his choice.	Leaks have indicated that Clinton has narrowed his choice.	2070909	1471978266354	1471978266434	 	32
4104	43365	Leaks have indicated that Clinton has narrowed his choice.	Leaks have indicated that Clinton has narrowed his choice.	2070945	1471978266674	1471978266738	h	72
4104	43365	Leaks have indicated that Clinton has narrowed his choice.	Leaks have indicated that Clinton has narrowed his choice.	2070950	1471978266722	1471978266898	a	65
4104	43365	Leaks have indicated that Clinton has narrowed his choice.	Leaks have indicated that Clinton has narrowed his choice.	2070956	1471978266898	1471978267042	s	83
4104	43365	Leaks have indicated that Clinton has narrowed his choice.	Leaks have indicated that Clinton has narrowed his choice.	2070962	1471978266994	1471978267074	 	32
4104	43365	Leaks have indicated that Clinton has narrowed his choice.	Leaks have indicated that Clinton has narrowed his choice.	2070967	1471978267170	1471978267234	n	78
4104	43365	Leaks have indicated that Clinton has narrowed his choice.	Leaks have indicated that Clinton has narrowed his choice.	2071027	1471978267218	1471978267362	a	65
4104	43365	Leaks have indicated that Clinton has narrowed his choice.	Leaks have indicated that Clinton has narrowed his choice.	2071033	1471978267442	1471978267538	r	82
4104	43365	Leaks have indicated that Clinton has narrowed his choice.	Leaks have indicated that Clinton has narrowed his choice.	2071041	1471978267602	1471978267714	r	82
4104	43365	Leaks have indicated that Clinton has narrowed his choice.	Leaks have indicated that Clinton has narrowed his choice.	2071047	1471978267714	1471978267826	o	79
4104	43365	Leaks have indicated that Clinton has narrowed his choice.	Leaks have indicated that Clinton has narrowed his choice.	2071052	1471978267970	1471978268114	w	87
4104	43365	Leaks have indicated that Clinton has narrowed his choice.	Leaks have indicated that Clinton has narrowed his choice.	2071057	1471978268162	1471978268322	e	69
4104	43365	Leaks have indicated that Clinton has narrowed his choice.	Leaks have indicated that Clinton has narrowed his choice.	2071138	1471978268994	1471978269138	d	68
4104	43365	Leaks have indicated that Clinton has narrowed his choice.	Leaks have indicated that Clinton has narrowed his choice.	2071141	1471978269186	1471978269266	 	32
4104	43365	Leaks have indicated that Clinton has narrowed his choice.	Leaks have indicated that Clinton has narrowed his choice.	2071143	1471978269362	1471978269442	h	72
4104	43365	Leaks have indicated that Clinton has narrowed his choice.	Leaks have indicated that Clinton has narrowed his choice.	2071144	1471978269506	1471978269666	i	73
4104	43365	Leaks have indicated that Clinton has narrowed his choice.	Leaks have indicated that Clinton has narrowed his choice.	2071145	1471978269666	1471978269778	s	83
4104	43365	Leaks have indicated that Clinton has narrowed his choice.	Leaks have indicated that Clinton has narrowed his choice.	2071221	1471978269746	1471978269842	 	32
4104	43365	Leaks have indicated that Clinton has narrowed his choice.	Leaks have indicated that Clinton has narrowed his choice.	2071225	1471978270226	1471978270354	c	67
4104	43365	Leaks have indicated that Clinton has narrowed his choice.	Leaks have indicated that Clinton has narrowed his choice.	2071233	1471978270290	1471978270369	h	72
4104	43365	Leaks have indicated that Clinton has narrowed his choice.	Leaks have indicated that Clinton has narrowed his choice.	2071239	1471978270482	1471978270626	o	79
4104	43365	Leaks have indicated that Clinton has narrowed his choice.	Leaks have indicated that Clinton has narrowed his choice.	2071246	1471978270658	1471978270818	i	73
4104	43365	Leaks have indicated that Clinton has narrowed his choice.	Leaks have indicated that Clinton has narrowed his choice.	2071252	1471978270818	1471978270930	c	67
4104	43365	Leaks have indicated that Clinton has narrowed his choice.	Leaks have indicated that Clinton has narrowed his choice.	2071498	1471978271026	1471978271154	e	69
4104	43365	Leaks have indicated that Clinton has narrowed his choice.	Leaks have indicated that Clinton has narrowed his choice.	2071507	1471978271169	1471978271298	,	188
4104	43365	Leaks have indicated that Clinton has narrowed his choice.	Leaks have indicated that Clinton has narrowed his choice.	2071520	1471978271938	1471978272018	BKSP	8
4104	43365	Leaks have indicated that Clinton has narrowed his choice.	Leaks have indicated that Clinton has narrowed his choice.	2071530	1471978272226	1471978272290	,	188
4104	43365	Leaks have indicated that Clinton has narrowed his choice.	Leaks have indicated that Clinton has narrowed his choice.	2071538	1471978272659	1471978272787	BKSP	8
4104	43365	Leaks have indicated that Clinton has narrowed his choice.	Leaks have indicated that Clinton has narrowed his choice.	2071547	1471978273219	1471978273299	.	190
4104	43411	Please send to Gary Smith.	Please send to Gary Smith	2071758	1471978276740	1471978276900	CAPS_LOCK	20
4104	43411	Please send to Gary Smith.	Please send to Gary Smith	2071762	1471978277092	1471978277268	P	80
4104	43411	Please send to Gary Smith.	Please send to Gary Smith	2071768	1471978277220	1471978277364	CAPS_LOCK	20
4104	43411	Please send to Gary Smith.	Please send to Gary Smith	2071776	1471978277365	1471978277509	k	75
4104	43411	Please send to Gary Smith.	Please send to Gary Smith	2071781	1471978277492	1471978277652	e	69
4104	43411	Please send to Gary Smith.	Please send to Gary Smith	2071789	1471978277748	1471978277940	a	65
4104	43411	Please send to Gary Smith.	Please send to Gary Smith	2071795	1471978277941	1471978278100	s	83
4104	43411	Please send to Gary Smith.	Please send to Gary Smith	2071944	1471978278212	1471978278292	BKSP	8
4104	43411	Please send to Gary Smith.	Please send to Gary Smith	2071949	1471978278404	1471978278484	BKSP	8
4104	43411	Please send to Gary Smith.	Please send to Gary Smith	2071953	1471978278580	1471978278662	BKSP	8
4104	43411	Please send to Gary Smith.	Please send to Gary Smith	2071957	1471978278756	1471978278836	BKSP	8
4104	43411	Please send to Gary Smith.	Please send to Gary Smith	2071962	1471978279252	1471978279316	l	76
4104	43411	Please send to Gary Smith.	Please send to Gary Smith	2071966	1471978279380	1471978279492	e	69
4104	43411	Please send to Gary Smith.	Please send to Gary Smith	2071970	1471978279556	1471978279732	a	65
4104	43411	Please send to Gary Smith.	Please send to Gary Smith	2071975	1471978279716	1471978279893	s	83
4104	43411	Please send to Gary Smith.	Please send to Gary Smith	2071979	1471978279924	1471978280068	e	69
4104	43411	Please send to Gary Smith.	Please send to Gary Smith	2072003	1471978280020	1471978280132	 	32
4104	43411	Please send to Gary Smith.	Please send to Gary Smith	2072005	1471978280244	1471978280388	s	83
4104	43411	Please send to Gary Smith.	Please send to Gary Smith	2072007	1471978280452	1471978280580	e	69
4104	43411	Please send to Gary Smith.	Please send to Gary Smith	2072013	1471978280564	1471978280708	n	78
4104	43411	Please send to Gary Smith.	Please send to Gary Smith	2072018	1471978280676	1471978280804	d	68
4104	43411	Please send to Gary Smith.	Please send to Gary Smith	2072128	1471978280772	1471978280884	 	32
4104	43411	Please send to Gary Smith.	Please send to Gary Smith	2072133	1471978281332	1471978281476	t	84
4104	43411	Please send to Gary Smith.	Please send to Gary Smith	2072139	1471978281460	1471978281620	o	79
4104	43411	Please send to Gary Smith.	Please send to Gary Smith	2072145	1471978281621	1471978281716	 	32
4104	43411	Please send to Gary Smith.	Please send to Gary Smith	2072151	1471978281876	1471978282100	CAPS_LOCK	20
4104	43411	Please send to Gary Smith.	Please send to Gary Smith	2072157	1471978282180	1471978282276	G	71
4104	43411	Please send to Gary Smith.	Please send to Gary Smith	2072167	1471978282212	1471978282356	CAPS_LOCK	20
4104	43411	Please send to Gary Smith.	Please send to Gary Smith	2072174	1471978282388	1471978282564	a	65
4104	43411	Please send to Gary Smith.	Please send to Gary Smith	2072219	1471978282596	1471978282740	r	82
4104	43411	Please send to Gary Smith.	Please send to Gary Smith	2072223	1471978282788	1471978282884	y	89
4104	43411	Please send to Gary Smith.	Please send to Gary Smith	2072225	1471978282948	1471978283044	 	32
4104	43411	Please send to Gary Smith.	Please send to Gary Smith	2072228	1471978283124	1471978283332	CAPS_LOCK	20
4104	43411	Please send to Gary Smith.	Please send to Gary Smith	2072230	1471978283460	1471978283620	S	83
4104	43411	Please send to Gary Smith.	Please send to Gary Smith	2072360	1471978283572	1471978283652	M	77
4104	43411	Please send to Gary Smith.	Please send to Gary Smith	2072365	1471978283716	1471978283876	I	73
4104	43411	Please send to Gary Smith.	Please send to Gary Smith	2072368	1471978283876	1471978284004	Y	84
4104	43411	Please send to Gary Smith.	Please send to Gary Smith	2072370	1471978284004	1471978284132	H	72
4104	43411	Please send to Gary Smith.	Please send to Gary Smith	2072374	1471978284356	1471978284420	BKSP	8
4104	43411	Please send to Gary Smith.	Please send to Gary Smith	2072377	1471978284532	1471978284596	BKSP	8
4104	43411	Please send to Gary Smith.	Please send to Gary Smith	2072380	1471978284676	1471978284756	BKSP	8
4104	43411	Please send to Gary Smith.	Please send to Gary Smith	2072385	1471978284836	1471978284916	BKSP	8
4104	43411	Please send to Gary Smith.	Please send to Gary Smith	2072390	1471978285012	1471978285092	BKSP	8
4104	43411	Please send to Gary Smith.	Please send to Gary Smith	2072394	1471978285188	1471978285332	CAPS_LOCK	20
4104	43411	Please send to Gary Smith.	Please send to Gary Smith	2072399	1471978285380	1471978285508	m	77
4104	43411	Please send to Gary Smith.	Please send to Gary Smith	2072414	1471978285572	1471978285684	i	73
4104	43411	Please send to Gary Smith.	Please send to Gary Smith	2072419	1471978285652	1471978285732	t	84
4104	43411	Please send to Gary Smith.	Please send to Gary Smith	2072427	1471978285748	1471978285828	h	72
4104	43430	This needs to go to imbalance between Quantum and Crestone.	This needs to go to imbalance between Quantum and Crestone.	2072790	1471978287908	1471978288036	CAPS_LOCK	20
4104	43430	This needs to go to imbalance between Quantum and Crestone.	This needs to go to imbalance between Quantum and Crestone.	2072795	1471978288164	1471978288260	Y	84
4104	43430	This needs to go to imbalance between Quantum and Crestone.	This needs to go to imbalance between Quantum and Crestone.	2072803	1471978288324	1471978288516	CAPS_LOCK	20
4104	43430	This needs to go to imbalance between Quantum and Crestone.	This needs to go to imbalance between Quantum and Crestone.	2072810	1471978288516	1471978288660	h	72
4104	43430	This needs to go to imbalance between Quantum and Crestone.	This needs to go to imbalance between Quantum and Crestone.	2072816	1471978288980	1471978289012	BKSP	8
4104	43430	This needs to go to imbalance between Quantum and Crestone.	This needs to go to imbalance between Quantum and Crestone.	2072819	1471978289124	1471978289204	BKSP	8
4104	43430	This needs to go to imbalance between Quantum and Crestone.	This needs to go to imbalance between Quantum and Crestone.	2072822	1471978289556	1471978289652	h	72
4104	43430	This needs to go to imbalance between Quantum and Crestone.	This needs to go to imbalance between Quantum and Crestone.	2072826	1471978290677	1471978290821	i	73
4104	43430	This needs to go to imbalance between Quantum and Crestone.	This needs to go to imbalance between Quantum and Crestone.	2072874	1471978290773	1471978290917	s	83
4104	43430	This needs to go to imbalance between Quantum and Crestone.	This needs to go to imbalance between Quantum and Crestone.	2072884	1471978290853	1471978290932	 	32
4104	43430	This needs to go to imbalance between Quantum and Crestone.	This needs to go to imbalance between Quantum and Crestone.	2072896	1471978291013	1471978291157	n	78
4104	43430	This needs to go to imbalance between Quantum and Crestone.	This needs to go to imbalance between Quantum and Crestone.	2072905	1471978291109	1471978291220	e	69
4104	43430	This needs to go to imbalance between Quantum and Crestone.	This needs to go to imbalance between Quantum and Crestone.	2072913	1471978291301	1471978291428	e	69
4104	43430	This needs to go to imbalance between Quantum and Crestone.	This needs to go to imbalance between Quantum and Crestone.	2072917	1471978291525	1471978291716	d	68
4104	43430	This needs to go to imbalance between Quantum and Crestone.	This needs to go to imbalance between Quantum and Crestone.	2072943	1471978291765	1471978291924	s	83
4104	43430	This needs to go to imbalance between Quantum and Crestone.	This needs to go to imbalance between Quantum and Crestone.	2072946	1471978291909	1471978292020	 	32
4104	43430	This needs to go to imbalance between Quantum and Crestone.	This needs to go to imbalance between Quantum and Crestone.	2072948	1471978292100	1471978292260	t	84
4104	43430	This needs to go to imbalance between Quantum and Crestone.	This needs to go to imbalance between Quantum and Crestone.	2072951	1471978292244	1471978292405	o	79
4104	43430	This needs to go to imbalance between Quantum and Crestone.	This needs to go to imbalance between Quantum and Crestone.	2072953	1471978292405	1471978292485	 	32
4104	43430	This needs to go to imbalance between Quantum and Crestone.	This needs to go to imbalance between Quantum and Crestone.	2073010	1471978292725	1471978292885	g	71
4104	43430	This needs to go to imbalance between Quantum and Crestone.	This needs to go to imbalance between Quantum and Crestone.	2073013	1471978292885	1471978293028	o	79
4104	43430	This needs to go to imbalance between Quantum and Crestone.	This needs to go to imbalance between Quantum and Crestone.	2073016	1471978293029	1471978293156	 	32
4104	43430	This needs to go to imbalance between Quantum and Crestone.	This needs to go to imbalance between Quantum and Crestone.	2073019	1471978293204	1471978293364	t	84
4104	43430	This needs to go to imbalance between Quantum and Crestone.	This needs to go to imbalance between Quantum and Crestone.	2073095	1471978293316	1471978293460	o	79
4104	43430	This needs to go to imbalance between Quantum and Crestone.	This needs to go to imbalance between Quantum and Crestone.	2073097	1471978293461	1471978293620	 	32
4104	43430	This needs to go to imbalance between Quantum and Crestone.	This needs to go to imbalance between Quantum and Crestone.	2073099	1471978294100	1471978294228	i	73
4104	43430	This needs to go to imbalance between Quantum and Crestone.	This needs to go to imbalance between Quantum and Crestone.	2073102	1471978294292	1471978294420	m	77
4104	43430	This needs to go to imbalance between Quantum and Crestone.	This needs to go to imbalance between Quantum and Crestone.	2073104	1471978294628	1471978294740	b	66
4104	43430	This needs to go to imbalance between Quantum and Crestone.	This needs to go to imbalance between Quantum and Crestone.	2073108	1471978294820	1471978294980	l	76
4104	43430	This needs to go to imbalance between Quantum and Crestone.	This needs to go to imbalance between Quantum and Crestone.	2073288	1471978294982	1471978295140	a	65
4104	43430	This needs to go to imbalance between Quantum and Crestone.	This needs to go to imbalance between Quantum and Crestone.	2073290	1471978295156	1471978295284	n	78
4104	43430	This needs to go to imbalance between Quantum and Crestone.	This needs to go to imbalance between Quantum and Crestone.	2073294	1471978295380	1471978295540	c	67
4104	43430	This needs to go to imbalance between Quantum and Crestone.	This needs to go to imbalance between Quantum and Crestone.	2073299	1471978295652	1471978295844	a	65
4104	43430	This needs to go to imbalance between Quantum and Crestone.	This needs to go to imbalance between Quantum and Crestone.	2073304	1471978296452	1471978296532	BKSP	8
4104	43430	This needs to go to imbalance between Quantum and Crestone.	This needs to go to imbalance between Quantum and Crestone.	2073312	1471978296644	1471978296708	BKSP	8
4104	43430	This needs to go to imbalance between Quantum and Crestone.	This needs to go to imbalance between Quantum and Crestone.	2073319	1471978297140	1471978297220	BKSP	8
4104	43430	This needs to go to imbalance between Quantum and Crestone.	This needs to go to imbalance between Quantum and Crestone.	2073325	1471978297316	1471978297412	BKSP	8
4104	43430	This needs to go to imbalance between Quantum and Crestone.	This needs to go to imbalance between Quantum and Crestone.	2073331	1471978297508	1471978297604	BKSP	8
4104	43430	This needs to go to imbalance between Quantum and Crestone.	This needs to go to imbalance between Quantum and Crestone.	2073336	1471978298036	1471978298149	a	65
4104	43430	This needs to go to imbalance between Quantum and Crestone.	This needs to go to imbalance between Quantum and Crestone.	2073394	1471978298116	1471978298212	l	76
4104	43430	This needs to go to imbalance between Quantum and Crestone.	This needs to go to imbalance between Quantum and Crestone.	2073401	1471978298292	1471978298452	a	65
4104	43430	This needs to go to imbalance between Quantum and Crestone.	This needs to go to imbalance between Quantum and Crestone.	2073404	1471978298484	1471978298612	n	78
4104	43430	This needs to go to imbalance between Quantum and Crestone.	This needs to go to imbalance between Quantum and Crestone.	2073409	1471978298660	1471978298836	c	67
4104	43430	This needs to go to imbalance between Quantum and Crestone.	This needs to go to imbalance between Quantum and Crestone.	2073414	1471978298884	1471978299060	e	69
4104	43430	This needs to go to imbalance between Quantum and Crestone.	This needs to go to imbalance between Quantum and Crestone.	2073417	1471978299220	1471978299348	 	32
4104	43430	This needs to go to imbalance between Quantum and Crestone.	This needs to go to imbalance between Quantum and Crestone.	2073489	1471978299844	1471978299924	b	66
4104	43430	This needs to go to imbalance between Quantum and Crestone.	This needs to go to imbalance between Quantum and Crestone.	2073499	1471978299956	1471978300068	e	69
4104	43430	This needs to go to imbalance between Quantum and Crestone.	This needs to go to imbalance between Quantum and Crestone.	2073507	1471978300100	1471978300180	t	84
4104	43430	This needs to go to imbalance between Quantum and Crestone.	This needs to go to imbalance between Quantum and Crestone.	2073515	1471978300228	1471978300356	w	87
4104	43430	This needs to go to imbalance between Quantum and Crestone.	This needs to go to imbalance between Quantum and Crestone.	2073521	1471978300388	1471978300500	e	69
4104	43430	This needs to go to imbalance between Quantum and Crestone.	This needs to go to imbalance between Quantum and Crestone.	2073658	1471978300596	1471978300708	e	69
4104	43430	This needs to go to imbalance between Quantum and Crestone.	This needs to go to imbalance between Quantum and Crestone.	2073663	1471978300804	1471978300964	n	78
4104	43430	This needs to go to imbalance between Quantum and Crestone.	This needs to go to imbalance between Quantum and Crestone.	2073669	1471978300964	1471978301092	 	32
4104	43430	This needs to go to imbalance between Quantum and Crestone.	This needs to go to imbalance between Quantum and Crestone.	2073672	1471978301604	1471978301748	CAPS_LOCK	20
4104	43430	This needs to go to imbalance between Quantum and Crestone.	This needs to go to imbalance between Quantum and Crestone.	2073676	1471978301828	1471978301956	Q	81
4104	43430	This needs to go to imbalance between Quantum and Crestone.	This needs to go to imbalance between Quantum and Crestone.	2073684	1471978302036	1471978302180	CAPS_LOCK	20
4104	43430	This needs to go to imbalance between Quantum and Crestone.	This needs to go to imbalance between Quantum and Crestone.	2073690	1471978302196	1471978302292	u	85
4104	43430	This needs to go to imbalance between Quantum and Crestone.	This needs to go to imbalance between Quantum and Crestone.	2073887	1471978302324	1471978302484	a	65
4104	43430	This needs to go to imbalance between Quantum and Crestone.	This needs to go to imbalance between Quantum and Crestone.	2073890	1471978302628	1471978302788	t	84
4104	43430	This needs to go to imbalance between Quantum and Crestone.	This needs to go to imbalance between Quantum and Crestone.	2073895	1471978303684	1471978303764	BKSP	8
4104	43430	This needs to go to imbalance between Quantum and Crestone.	This needs to go to imbalance between Quantum and Crestone.	2073901	1471978304404	1471978304468	n	78
4104	43430	This needs to go to imbalance between Quantum and Crestone.	This needs to go to imbalance between Quantum and Crestone.	2073904	1471978304724	1471978304868	t	84
4104	43430	This needs to go to imbalance between Quantum and Crestone.	This needs to go to imbalance between Quantum and Crestone.	2073907	1471978304868	1471978304948	u	85
4104	43430	This needs to go to imbalance between Quantum and Crestone.	This needs to go to imbalance between Quantum and Crestone.	2073958	1471978305220	1471978305348	m	77
4104	43430	This needs to go to imbalance between Quantum and Crestone.	This needs to go to imbalance between Quantum and Crestone.	2073964	1471978305428	1471978305524	 	32
4104	43430	This needs to go to imbalance between Quantum and Crestone.	This needs to go to imbalance between Quantum and Crestone.	2073971	1471978305572	1471978305732	a	65
4104	43430	This needs to go to imbalance between Quantum and Crestone.	This needs to go to imbalance between Quantum and Crestone.	2073978	1471978305668	1471978305796	n	78
4104	43430	This needs to go to imbalance between Quantum and Crestone.	This needs to go to imbalance between Quantum and Crestone.	2073981	1471978305796	1471978305924	d	68
4104	43430	This needs to go to imbalance between Quantum and Crestone.	This needs to go to imbalance between Quantum and Crestone.	2074076	1471978305876	1471978305972	 	32
4104	43430	This needs to go to imbalance between Quantum and Crestone.	This needs to go to imbalance between Quantum and Crestone.	2074082	1471978306003	1471978306164	CAPS_LOCK	20
4104	43430	This needs to go to imbalance between Quantum and Crestone.	This needs to go to imbalance between Quantum and Crestone.	2074088	1471978306292	1471978306436	C	67
4104	43430	This needs to go to imbalance between Quantum and Crestone.	This needs to go to imbalance between Quantum and Crestone.	2074092	1471978306436	1471978306612	CAPS_LOCK	20
4104	43430	This needs to go to imbalance between Quantum and Crestone.	This needs to go to imbalance between Quantum and Crestone.	2074097	1471978306643	1471978306820	r	82
4104	43430	This needs to go to imbalance between Quantum and Crestone.	This needs to go to imbalance between Quantum and Crestone.	2074100	1471978306884	1471978306996	e	69
4104	43430	This needs to go to imbalance between Quantum and Crestone.	This needs to go to imbalance between Quantum and Crestone.	2074103	1471978307108	1471978307204	s	83
4104	43430	This needs to go to imbalance between Quantum and Crestone.	This needs to go to imbalance between Quantum and Crestone.	2074107	1471978307332	1471978307445	t	84
4104	43430	This needs to go to imbalance between Quantum and Crestone.	This needs to go to imbalance between Quantum and Crestone.	2074258	1471978307477	1471978307669	o	79
4104	43430	This needs to go to imbalance between Quantum and Crestone.	This needs to go to imbalance between Quantum and Crestone.	2074261	1471978307717	1471978307845	n	78
4104	43430	This needs to go to imbalance between Quantum and Crestone.	This needs to go to imbalance between Quantum and Crestone.	2074265	1471978308821	1471978308933	e	69
4104	43430	This needs to go to imbalance between Quantum and Crestone.	This needs to go to imbalance between Quantum and Crestone.	2074268	1471978308964	1471978309092	.	190
4104	43474	I was a bit rusty but I didn't want to miss the elections back home.	I was a bit rusty but I didn't want to miss the elections back home	2074553	1471978312180	1471978312372	CAPS_LOCK	20
4104	43474	I was a bit rusty but I didn't want to miss the elections back home.	I was a bit rusty but I didn't want to miss the elections back home	2074556	1471978312500	1471978312596	I	73
4104	43474	I was a bit rusty but I didn't want to miss the elections back home.	I was a bit rusty but I didn't want to miss the elections back home	2074559	1471978312548	1471978312724	CAPS_LOCK	20
4104	43474	I was a bit rusty but I didn't want to miss the elections back home.	I was a bit rusty but I didn't want to miss the elections back home	2074565	1471978312692	1471978312804	 	32
4104	43474	I was a bit rusty but I didn't want to miss the elections back home.	I was a bit rusty but I didn't want to miss the elections back home	2074569	1471978312884	1471978313012	w	87
4104	43474	I was a bit rusty but I didn't want to miss the elections back home.	I was a bit rusty but I didn't want to miss the elections back home	2074576	1471978313092	1471978313204	a	65
4104	43474	I was a bit rusty but I didn't want to miss the elections back home.	I was a bit rusty but I didn't want to miss the elections back home	2074582	1471978313220	1471978313364	s	83
4104	43474	I was a bit rusty but I didn't want to miss the elections back home.	I was a bit rusty but I didn't want to miss the elections back home	2074653	1471978313428	1471978313524	 	32
4104	43474	I was a bit rusty but I didn't want to miss the elections back home.	I was a bit rusty but I didn't want to miss the elections back home	2074657	1471978313525	1471978313684	a	65
4104	43474	I was a bit rusty but I didn't want to miss the elections back home.	I was a bit rusty but I didn't want to miss the elections back home	2074661	1471978313685	1471978313748	 	32
4104	43474	I was a bit rusty but I didn't want to miss the elections back home.	I was a bit rusty but I didn't want to miss the elections back home	2074666	1471978314260	1471978314357	b	66
4104	43474	I was a bit rusty but I didn't want to miss the elections back home.	I was a bit rusty but I didn't want to miss the elections back home	2074671	1471978314404	1471978314548	i	73
4104	43474	I was a bit rusty but I didn't want to miss the elections back home.	I was a bit rusty but I didn't want to miss the elections back home	2074771	1471978314532	1471978314676	t	84
4104	43474	I was a bit rusty but I didn't want to miss the elections back home.	I was a bit rusty but I didn't want to miss the elections back home	2074775	1471978314660	1471978314788	 	32
4104	43474	I was a bit rusty but I didn't want to miss the elections back home.	I was a bit rusty but I didn't want to miss the elections back home	2074780	1471978315412	1471978315524	r	82
4104	43474	I was a bit rusty but I didn't want to miss the elections back home.	I was a bit rusty but I didn't want to miss the elections back home	2074786	1471978315588	1471978315732	u	85
4104	43474	I was a bit rusty but I didn't want to miss the elections back home.	I was a bit rusty but I didn't want to miss the elections back home	2074791	1471978315828	1471978315956	s	83
4104	43474	I was a bit rusty but I didn't want to miss the elections back home.	I was a bit rusty but I didn't want to miss the elections back home	2074798	1471978316100	1471978316196	t	84
4104	43474	I was a bit rusty but I didn't want to miss the elections back home.	I was a bit rusty but I didn't want to miss the elections back home	2074944	1471978316292	1471978316452	y	89
4104	43474	I was a bit rusty but I didn't want to miss the elections back home.	I was a bit rusty but I didn't want to miss the elections back home	2074947	1471978316484	1471978316596	 	32
4104	43474	I was a bit rusty but I didn't want to miss the elections back home.	I was a bit rusty but I didn't want to miss the elections back home	2074955	1471978317540	1471978317652	b	66
4104	43474	I was a bit rusty but I didn't want to miss the elections back home.	I was a bit rusty but I didn't want to miss the elections back home	2074961	1471978317796	1471978317908	u	85
4104	43474	I was a bit rusty but I didn't want to miss the elections back home.	I was a bit rusty but I didn't want to miss the elections back home	2074969	1471978317908	1471978318004	t	84
4104	43474	I was a bit rusty but I didn't want to miss the elections back home.	I was a bit rusty but I didn't want to miss the elections back home	2075245	1471978317988	1471978318084	 	32
4104	43474	I was a bit rusty but I didn't want to miss the elections back home.	I was a bit rusty but I didn't want to miss the elections back home	2075248	1471978318148	1471978318197	i	73
4104	43474	I was a bit rusty but I didn't want to miss the elections back home.	I was a bit rusty but I didn't want to miss the elections back home	2075250	1471978319684	1471978319764	BKSP	8
4104	43474	I was a bit rusty but I didn't want to miss the elections back home.	I was a bit rusty but I didn't want to miss the elections back home	2075255	1471978320004	1471978320164	CAPS_LOCK	20
4104	43474	I was a bit rusty but I didn't want to miss the elections back home.	I was a bit rusty but I didn't want to miss the elections back home	2075258	1471978320420	1471978320564	I	73
4104	43474	I was a bit rusty but I didn't want to miss the elections back home.	I was a bit rusty but I didn't want to miss the elections back home	2075264	1471978320564	1471978320692	 	32
4104	43474	I was a bit rusty but I didn't want to miss the elections back home.	I was a bit rusty but I didn't want to miss the elections back home	2075270	1471978321444	1471978321572	CAPS_LOCK	20
4104	43474	I was a bit rusty but I didn't want to miss the elections back home.	I was a bit rusty but I didn't want to miss the elections back home	2075277	1471978321940	1471978322052	d	68
4104	43474	I was a bit rusty but I didn't want to miss the elections back home.	I was a bit rusty but I didn't want to miss the elections back home	2075284	1471978322100	1471978322180	i	73
4104	43474	I was a bit rusty but I didn't want to miss the elections back home.	I was a bit rusty but I didn't want to miss the elections back home	2075495	1471978322182	1471978322260	d	68
4104	43474	I was a bit rusty but I didn't want to miss the elections back home.	I was a bit rusty but I didn't want to miss the elections back home	2075499	1471978322308	1471978322404	n	78
4104	43474	I was a bit rusty but I didn't want to miss the elections back home.	I was a bit rusty but I didn't want to miss the elections back home	2075506	1471978322436	1471978322564	t	84
4104	43474	I was a bit rusty but I didn't want to miss the elections back home.	I was a bit rusty but I didn't want to miss the elections back home	2075511	1471978322564	1471978322596	 	32
4104	43474	I was a bit rusty but I didn't want to miss the elections back home.	I was a bit rusty but I didn't want to miss the elections back home	2075515	1471978322836	1471978322916	BKSP	8
4104	43474	I was a bit rusty but I didn't want to miss the elections back home.	I was a bit rusty but I didn't want to miss the elections back home	2075519	1471978323012	1471978323076	BKSP	8
4104	43474	I was a bit rusty but I didn't want to miss the elections back home.	I was a bit rusty but I didn't want to miss the elections back home	2075524	1471978323156	1471978323204	BKSP	8
4104	43474	I was a bit rusty but I didn't want to miss the elections back home.	I was a bit rusty but I didn't want to miss the elections back home	2075528	1471978324484	1471978324564	n	78
4104	43474	I was a bit rusty but I didn't want to miss the elections back home.	I was a bit rusty but I didn't want to miss the elections back home	2075657	1471978324884	1471978324997	'	222
4104	43474	I was a bit rusty but I didn't want to miss the elections back home.	I was a bit rusty but I didn't want to miss the elections back home	2075659	1471978325269	1471978325397	t	84
4104	43474	I was a bit rusty but I didn't want to miss the elections back home.	I was a bit rusty but I didn't want to miss the elections back home	2075661	1471978325781	1471978325877	 	32
4104	43474	I was a bit rusty but I didn't want to miss the elections back home.	I was a bit rusty but I didn't want to miss the elections back home	2075664	1471978326053	1471978326165	w	87
4104	43474	I was a bit rusty but I didn't want to miss the elections back home.	I was a bit rusty but I didn't want to miss the elections back home	2075667	1471978326260	1471978326405	a	65
4104	43474	I was a bit rusty but I didn't want to miss the elections back home.	I was a bit rusty but I didn't want to miss the elections back home	2075723	1471978326389	1471978326468	n	78
4104	43474	I was a bit rusty but I didn't want to miss the elections back home.	I was a bit rusty but I didn't want to miss the elections back home	2075729	1471978326613	1471978326708	 	32
4104	43474	I was a bit rusty but I didn't want to miss the elections back home.	I was a bit rusty but I didn't want to miss the elections back home	2075737	1471978326932	1471978327044	BKSP	8
4104	43474	I was a bit rusty but I didn't want to miss the elections back home.	I was a bit rusty but I didn't want to miss the elections back home	2075743	1471978327060	1471978327172	t	84
4104	43474	I was a bit rusty but I didn't want to miss the elections back home.	I was a bit rusty but I didn't want to miss the elections back home	2075751	1471978327156	1471978327252	 	32
4104	43474	I was a bit rusty but I didn't want to miss the elections back home.	I was a bit rusty but I didn't want to miss the elections back home	2075758	1471978327284	1471978327396	t	84
4104	43474	I was a bit rusty but I didn't want to miss the elections back home.	I was a bit rusty but I didn't want to miss the elections back home	2075805	1471978327349	1471978327508	o	79
4104	43474	I was a bit rusty but I didn't want to miss the elections back home.	I was a bit rusty but I didn't want to miss the elections back home	2075809	1471978327572	1471978327684	 	32
4104	43474	I was a bit rusty but I didn't want to miss the elections back home.	I was a bit rusty but I didn't want to miss the elections back home	2075818	1471978327828	1471978327956	m	77
4104	43474	I was a bit rusty but I didn't want to miss the elections back home.	I was a bit rusty but I didn't want to miss the elections back home	2075827	1471978328020	1471978328164	i	73
4104	43474	I was a bit rusty but I didn't want to miss the elections back home.	I was a bit rusty but I didn't want to miss the elections back home	2075833	1471978328132	1471978328228	s	83
4104	43474	I was a bit rusty but I didn't want to miss the elections back home.	I was a bit rusty but I didn't want to miss the elections back home	2075842	1471978328324	1471978328469	s	83
4104	43474	I was a bit rusty but I didn't want to miss the elections back home.	I was a bit rusty but I didn't want to miss the elections back home	2075859	1471978328471	1471978328565	 	32
4104	43474	I was a bit rusty but I didn't want to miss the elections back home.	I was a bit rusty but I didn't want to miss the elections back home	2075861	1471978328629	1471978328773	h	84
4104	43474	I was a bit rusty but I didn't want to miss the elections back home.	I was a bit rusty but I didn't want to miss the elections back home	2075865	1471978328884	1471978328980	e	32
4104	43474	I was a bit rusty but I didn't want to miss the elections back home.	I was a bit rusty but I didn't want to miss the elections back home	2076116	1471978330260	1471978330340	BKSP	8
4104	43474	I was a bit rusty but I didn't want to miss the elections back home.	I was a bit rusty but I didn't want to miss the elections back home	2076120	1471978330436	1471978330532	BKSP	8
4104	43474	I was a bit rusty but I didn't want to miss the elections back home.	I was a bit rusty but I didn't want to miss the elections back home	2076125	1471978330612	1471978330772	e	69
4104	43474	I was a bit rusty but I didn't want to miss the elections back home.	I was a bit rusty but I didn't want to miss the elections back home	2076129	1471978330708	1471978330820	 	32
4104	43474	I was a bit rusty but I didn't want to miss the elections back home.	I was a bit rusty but I didn't want to miss the elections back home	2076134	1471978330964	1471978331124	e	69
4104	43474	I was a bit rusty but I didn't want to miss the elections back home.	I was a bit rusty but I didn't want to miss the elections back home	2076141	1471978331076	1471978331220	l	76
4104	43474	I was a bit rusty but I didn't want to miss the elections back home.	I was a bit rusty but I didn't want to miss the elections back home	2076148	1471978331268	1471978331380	c	67
4104	43474	I was a bit rusty but I didn't want to miss the elections back home.	I was a bit rusty but I didn't want to miss the elections back home	2076249	1471978331908	1471978332004	BKSP	8
4104	43474	I was a bit rusty but I didn't want to miss the elections back home.	I was a bit rusty but I didn't want to miss the elections back home	2076253	1471978332196	1471978332372	e	69
4104	43474	I was a bit rusty but I didn't want to miss the elections back home.	I was a bit rusty but I didn't want to miss the elections back home	2076257	1471978332420	1471978332596	c	67
4104	43474	I was a bit rusty but I didn't want to miss the elections back home.	I was a bit rusty but I didn't want to miss the elections back home	2076267	1471978332772	1471978332900	t	84
4104	43474	I was a bit rusty but I didn't want to miss the elections back home.	I was a bit rusty but I didn't want to miss the elections back home	2076273	1471978332996	1471978333076	u	85
4104	43474	I was a bit rusty but I didn't want to miss the elections back home.	I was a bit rusty but I didn't want to miss the elections back home	2076278	1471978333188	1471978333220	o	79
4104	43474	I was a bit rusty but I didn't want to miss the elections back home.	I was a bit rusty but I didn't want to miss the elections back home	2076389	1471978333524	1471978333620	BKSP	8
4104	43474	I was a bit rusty but I didn't want to miss the elections back home.	I was a bit rusty but I didn't want to miss the elections back home	2076392	1471978333700	1471978333828	BKSP	8
4104	43474	I was a bit rusty but I didn't want to miss the elections back home.	I was a bit rusty but I didn't want to miss the elections back home	2076401	1471978334036	1471978334180	i	73
4104	43474	I was a bit rusty but I didn't want to miss the elections back home.	I was a bit rusty but I didn't want to miss the elections back home	2076406	1471978334228	1471978334404	o	79
4104	43474	I was a bit rusty but I didn't want to miss the elections back home.	I was a bit rusty but I didn't want to miss the elections back home	2076409	1471978334436	1471978334612	n	78
4104	43474	I was a bit rusty but I didn't want to miss the elections back home.	I was a bit rusty but I didn't want to miss the elections back home	2076411	1471978334596	1471978334740	s	83
4104	43474	I was a bit rusty but I didn't want to miss the elections back home.	I was a bit rusty but I didn't want to miss the elections back home	2076459	1471978334676	1471978334804	 	32
4104	43474	I was a bit rusty but I didn't want to miss the elections back home.	I was a bit rusty but I didn't want to miss the elections back home	2076465	1471978334980	1471978335108	b	66
4104	43474	I was a bit rusty but I didn't want to miss the elections back home.	I was a bit rusty but I didn't want to miss the elections back home	2076473	1471978335109	1471978335220	a	65
4104	43474	I was a bit rusty but I didn't want to miss the elections back home.	I was a bit rusty but I didn't want to miss the elections back home	2076476	1471978335300	1471978335428	c	67
4104	43474	I was a bit rusty but I didn't want to miss the elections back home.	I was a bit rusty but I didn't want to miss the elections back home	2076481	1471978335412	1471978335540	k	75
4104	43474	I was a bit rusty but I didn't want to miss the elections back home.	I was a bit rusty but I didn't want to miss the elections back home	2076487	1471978335556	1471978335668	 	32
4104	43474	I was a bit rusty but I didn't want to miss the elections back home.	I was a bit rusty but I didn't want to miss the elections back home	2076603	1471978336023	1471978336103	h	72
4104	43474	I was a bit rusty but I didn't want to miss the elections back home.	I was a bit rusty but I didn't want to miss the elections back home	2076607	1471978336311	1471978336375	p	79
4104	43474	I was a bit rusty but I didn't want to miss the elections back home.	I was a bit rusty but I didn't want to miss the elections back home	2076612	1471978336839	1471978336919	BKSP	8
4104	43474	I was a bit rusty but I didn't want to miss the elections back home.	I was a bit rusty but I didn't want to miss the elections back home	2076617	1471978337511	1471978337591	m	77
4104	43474	I was a bit rusty but I didn't want to miss the elections back home.	I was a bit rusty but I didn't want to miss the elections back home	2076621	1471978337639	1471978337767	e	69
4104	43528	I have 30 minutes then.	I have 30 minutes then.	2076947	1471978340407	1471978340551	CAPS_LOCK	20
4104	43528	I have 30 minutes then.	I have 30 minutes then.	2076950	1471978340551	1471978340679	I	73
4104	43528	I have 30 minutes then.	I have 30 minutes then.	2076953	1471978340663	1471978340807	CAPS_LOCK	20
4104	43528	I have 30 minutes then.	I have 30 minutes then.	2076958	1471978340710	1471978340807	 	32
4104	43528	I have 30 minutes then.	I have 30 minutes then.	2076959	1471978341367	1471978341431	h	72
4104	43528	I have 30 minutes then.	I have 30 minutes then.	2076960	1471978341399	1471978341607	a	65
4104	43528	I have 30 minutes then.	I have 30 minutes then.	2077111	1471978341575	1471978341735	v	86
4104	43528	I have 30 minutes then.	I have 30 minutes then.	2077115	1471978341671	1471978341815	r	82
4104	43528	I have 30 minutes then.	I have 30 minutes then.	2077120	1471978341799	1471978341943	 	32
4104	43528	I have 30 minutes then.	I have 30 minutes then.	2077125	1471978342247	1471978342311	BKSP	8
4104	43528	I have 30 minutes then.	I have 30 minutes then.	2077129	1471978342391	1471978342472	BKSP	8
4104	43528	I have 30 minutes then.	I have 30 minutes then.	2077137	1471978342616	1471978342760	e	69
4104	43528	I have 30 minutes then.	I have 30 minutes then.	2077143	1471978342728	1471978342840	 	32
4104	43528	I have 30 minutes then.	I have 30 minutes then.	2077151	1471978343528	1471978343655	3	51
4104	43528	I have 30 minutes then.	I have 30 minutes then.	2077280	1471978343608	1471978343735	0	48
4104	43528	I have 30 minutes then.	I have 30 minutes then.	2077287	1471978343783	1471978343864	 	32
4104	43528	I have 30 minutes then.	I have 30 minutes then.	2077294	1471978344472	1471978344632	m	77
4104	43528	I have 30 minutes then.	I have 30 minutes then.	2077302	1471978344791	1471978344999	i	73
4104	43528	I have 30 minutes then.	I have 30 minutes then.	2077309	1471978345079	1471978345239	n	78
4104	43528	I have 30 minutes then.	I have 30 minutes then.	2077316	1471978345287	1471978345447	u	85
4104	43528	I have 30 minutes then.	I have 30 minutes then.	2077363	1471978345512	1471978345687	t	84
4104	43528	I have 30 minutes then.	I have 30 minutes then.	2077368	1471978345623	1471978345751	e	69
4104	43528	I have 30 minutes then.	I have 30 minutes then.	2077374	1471978345815	1471978345959	s	83
4104	43528	I have 30 minutes then.	I have 30 minutes then.	2077381	1471978345960	1471978346055	 	32
4104	43528	I have 30 minutes then.	I have 30 minutes then.	2077386	1471978346183	1471978346296	t	84
4104	43528	I have 30 minutes then.	I have 30 minutes then.	2077428	1471978346279	1471978346344	h	72
4104	43528	I have 30 minutes then.	I have 30 minutes then.	2077430	1471978346391	1471978346519	e	69
4104	43528	I have 30 minutes then.	I have 30 minutes then.	2077435	1471978346455	1471978346535	n	78
4104	43528	I have 30 minutes then.	I have 30 minutes then.	2077442	1471978347159	1471978347255	.	190
4104	43541	How long can you guys shop?	How long can you guys shop?	2077782	1471978349527	1471978349575	SHIFT	16
4104	43541	How long can you guys shop?	How long can you guys shop?	2077787	1471978349751	1471978349943	CAPS_LOCK	20
4104	43541	How long can you guys shop?	How long can you guys shop?	2077793	1471978350487	1471978350599	H	72
4104	43541	How long can you guys shop?	How long can you guys shop?	2077795	1471978350567	1471978350775	CAPS_LOCK	20
4104	43541	How long can you guys shop?	How long can you guys shop?	2077800	1471978350775	1471978350951	o	79
4104	43541	How long can you guys shop?	How long can you guys shop?	2077806	1471978351159	1471978351271	e	69
4104	43541	How long can you guys shop?	How long can you guys shop?	2077803	1471978351207	1471978351223	w	87
4104	43541	How long can you guys shop?	How long can you guys shop?	2077808	1471978351591	1471978351719	BKSP	8
4104	43541	How long can you guys shop?	How long can you guys shop?	2077811	1471978351719	1471978351895	w	87
4104	43541	How long can you guys shop?	How long can you guys shop?	2077890	1471978351897	1471978351975	 	32
4104	43541	How long can you guys shop?	How long can you guys shop?	2077894	1471978352199	1471978352279	BKSP	8
4104	43541	How long can you guys shop?	How long can you guys shop?	2077901	1471978352375	1471978352455	BKSP	8
4104	43541	How long can you guys shop?	How long can you guys shop?	2077906	1471978352535	1471978352663	BKSP	8
4104	43541	How long can you guys shop?	How long can you guys shop?	2077912	1471978352663	1471978352807	w	87
4104	43541	How long can you guys shop?	How long can you guys shop?	2077915	1471978352823	1471978352919	 	32
4104	43541	How long can you guys shop?	How long can you guys shop?	2077920	1471978353063	1471978353207	l	76
4104	43541	How long can you guys shop?	How long can you guys shop?	2077924	1471978353303	1471978353431	o	79
4104	43541	How long can you guys shop?	How long can you guys shop?	2078059	1471978353527	1471978353719	n	78
4104	43541	How long can you guys shop?	How long can you guys shop?	2078051	1471978353559	1471978353623	m	77
4104	43541	How long can you guys shop?	How long can you guys shop?	2078063	1471978353815	1471978353975	g	71
4104	43541	How long can you guys shop?	How long can you guys shop?	2078065	1471978353975	1471978354087	 	32
4104	43541	How long can you guys shop?	How long can you guys shop?	2078068	1471978354487	1471978354551	BKSP	8
4104	43541	How long can you guys shop?	How long can you guys shop?	2078071	1471978354663	1471978354743	BKSP	8
4104	43541	How long can you guys shop?	How long can you guys shop?	2078076	1471978354823	1471978354871	BKSP	8
4104	43541	How long can you guys shop?	How long can you guys shop?	2078080	1471978355559	1471978355687	g	71
4104	43541	How long can you guys shop?	How long can you guys shop?	2078140	1471978355689	1471978355767	 	32
4104	43541	How long can you guys shop?	How long can you guys shop?	2078142	1471978356103	1471978356199	c	67
4104	43541	How long can you guys shop?	How long can you guys shop?	2078146	1471978356247	1471978356407	a	65
4104	43541	How long can you guys shop?	How long can you guys shop?	2078155	1471978356375	1471978356551	n	78
4104	43541	How long can you guys shop?	How long can you guys shop?	2078159	1471978356615	1471978356711	 	32
4104	43541	How long can you guys shop?	How long can you guys shop?	2078238	1471978356967	1471978357127	y	89
4104	43541	How long can you guys shop?	How long can you guys shop?	2078242	1471978357063	1471978357207	o	79
4104	43541	How long can you guys shop?	How long can you guys shop?	2078251	1471978357207	1471978357351	u	85
4104	43541	How long can you guys shop?	How long can you guys shop?	2078256	1471978357351	1471978357511	 	32
4104	43541	How long can you guys shop?	How long can you guys shop?	2078322	1471978357479	1471978357607	g	71
4104	43541	How long can you guys shop?	How long can you guys shop?	2078327	1471978357575	1471978357703	u	85
4104	43541	How long can you guys shop?	How long can you guys shop?	2078333	1471978357783	1471978357959	y	89
4104	43541	How long can you guys shop?	How long can you guys shop?	2078341	1471978357911	1471978358151	s	83
4104	43541	How long can you guys shop?	How long can you guys shop?	2078350	1471978358039	1471978358182	 	32
4104	43541	How long can you guys shop?	How long can you guys shop?	2078356	1471978358631	1471978358791	s	83
4104	43541	How long can you guys shop?	How long can you guys shop?	2078735	1471978358743	1471978358839	h	72
4104	43541	How long can you guys shop?	How long can you guys shop?	2078741	1471978359127	1471978359239	o	79
4104	43541	How long can you guys shop?	How long can you guys shop?	2078749	1471978359303	1471978359431	p	80
4104	43541	How long can you guys shop?	How long can you guys shop?	2078757	1471978359687	1471978359767	/	191
4104	43541	How long can you guys shop?	How long can you guys shop?	2078762	1471978360184	1471978360280	BKSP	8
4104	43541	How long can you guys shop?	How long can you guys shop?	2078765	1471978360616	1471978360712	BKSP	8
4104	43541	How long can you guys shop?	How long can you guys shop?	2078772	1471978361992	1471978362056	p	80
4104	43541	How long can you guys shop?	How long can you guys shop?	2078761	1471978363144	1471978363655	SHIFT	16
4104	43541	How long can you guys shop?	How long can you guys shop?	2078781	1471978363399	1471978363639	?	191
4104	43569	We are going to send some money to a fund to help the victims.	We are going to send some money to a fund to help the victims.	2079010	1471978365527	1471978365687	CAPS_LOCK	20
4104	43569	We are going to send some money to a fund to help the victims.	We are going to send some money to a fund to help the victims.	2079012	1471978365751	1471978365927	W	87
4104	43569	We are going to send some money to a fund to help the victims.	We are going to send some money to a fund to help the victims.	2079014	1471978365943	1471978366119	CAPS_LOCK	20
4104	43569	We are going to send some money to a fund to help the victims.	We are going to send some money to a fund to help the victims.	2079017	1471978366183	1471978366359	e	69
4104	43569	We are going to send some money to a fund to help the victims.	We are going to send some money to a fund to help the victims.	2079022	1471978366391	1471978366487	 	32
4104	43569	We are going to send some money to a fund to help the victims.	We are going to send some money to a fund to help the victims.	2079029	1471978366567	1471978366711	a	65
4104	43569	We are going to send some money to a fund to help the victims.	We are going to send some money to a fund to help the victims.	2079039	1471978366807	1471978366903	r	82
4104	43569	We are going to send some money to a fund to help the victims.	We are going to send some money to a fund to help the victims.	2079092	1471978366967	1471978367063	e	69
4104	43569	We are going to send some money to a fund to help the victims.	We are going to send some money to a fund to help the victims.	2079095	1471978367095	1471978367191	 	32
4104	43569	We are going to send some money to a fund to help the victims.	We are going to send some money to a fund to help the victims.	2079100	1471978367271	1471978367383	g	71
4104	43569	We are going to send some money to a fund to help the victims.	We are going to send some money to a fund to help the victims.	2079106	1471978367367	1471978367543	o	79
4104	43569	We are going to send some money to a fund to help the victims.	We are going to send some money to a fund to help the victims.	2079348	1471978367591	1471978367671	u	73
4104	43569	We are going to send some money to a fund to help the victims.	We are going to send some money to a fund to help the victims.	2079352	1471978368743	1471978368855	BKSP	8
4104	43569	We are going to send some money to a fund to help the victims.	We are going to send some money to a fund to help the victims.	2079358	1471978369191	1471978369255	n	78
4104	43569	We are going to send some money to a fund to help the victims.	We are going to send some money to a fund to help the victims.	2079364	1471978369479	1471978369639	g	71
4104	43569	We are going to send some money to a fund to help the victims.	We are going to send some money to a fund to help the victims.	2079368	1471978370119	1471978370231	 	32
4104	43569	We are going to send some money to a fund to help the victims.	We are going to send some money to a fund to help the victims.	2079373	1471978370519	1471978370631	t	84
4104	43569	We are going to send some money to a fund to help the victims.	We are going to send some money to a fund to help the victims.	2079378	1471978370663	1471978370775	o	79
4104	43569	We are going to send some money to a fund to help the victims.	We are going to send some money to a fund to help the victims.	2079413	1471978370807	1471978370903	 	32
4104	43569	We are going to send some money to a fund to help the victims.	We are going to send some money to a fund to help the victims.	2079417	1471978370903	1471978371031	s	83
4104	43569	We are going to send some money to a fund to help the victims.	We are going to send some money to a fund to help the victims.	2079422	1471978371095	1471978371239	e	69
4104	43569	We are going to send some money to a fund to help the victims.	We are going to send some money to a fund to help the victims.	2079426	1471978371303	1471978371448	n	78
4104	43569	We are going to send some money to a fund to help the victims.	We are going to send some money to a fund to help the victims.	2079504	1471978371415	1471978371559	d	68
4104	43569	We are going to send some money to a fund to help the victims.	We are going to send some money to a fund to help the victims.	2079507	1471978371559	1471978371655	 	32
4104	43569	We are going to send some money to a fund to help the victims.	We are going to send some money to a fund to help the victims.	2079510	1471978372007	1471978372151	s	83
4104	43569	We are going to send some money to a fund to help the victims.	We are going to send some money to a fund to help the victims.	2079513	1471978372103	1471978372215	o	79
4104	43569	We are going to send some money to a fund to help the victims.	We are going to send some money to a fund to help the victims.	2079515	1471978372327	1471978372455	m	77
4104	43569	We are going to send some money to a fund to help the victims.	We are going to send some money to a fund to help the victims.	2079519	1471978372471	1471978372632	e	69
4104	43569	We are going to send some money to a fund to help the victims.	We are going to send some money to a fund to help the victims.	2079583	1471978372599	1471978372695	 	32
4104	43569	We are going to send some money to a fund to help the victims.	We are going to send some money to a fund to help the victims.	2079590	1471978372967	1471978373063	m	77
4104	43569	We are going to send some money to a fund to help the victims.	We are going to send some money to a fund to help the victims.	2079595	1471978373143	1471978373287	o	79
4104	43569	We are going to send some money to a fund to help the victims.	We are going to send some money to a fund to help the victims.	2079603	1471978373367	1471978373511	n	78
4104	43569	We are going to send some money to a fund to help the victims.	We are going to send some money to a fund to help the victims.	2079611	1471978373543	1471978373703	e	69
4104	43569	We are going to send some money to a fund to help the victims.	We are going to send some money to a fund to help the victims.	2079618	1471978373735	1471978373879	y	89
4104	43569	We are going to send some money to a fund to help the victims.	We are going to send some money to a fund to help the victims.	2079713	1471978373959	1471978374087	 	32
4104	43569	We are going to send some money to a fund to help the victims.	We are going to send some money to a fund to help the victims.	2079719	1471978374391	1471978374535	t	84
4104	43569	We are going to send some money to a fund to help the victims.	We are going to send some money to a fund to help the victims.	2079724	1471978374503	1471978374615	o	79
4104	43569	We are going to send some money to a fund to help the victims.	We are going to send some money to a fund to help the victims.	2079734	1471978374647	1471978374727	 	32
4104	43569	We are going to send some money to a fund to help the victims.	We are going to send some money to a fund to help the victims.	2079742	1471978374775	1471978374967	a	65
4104	43569	We are going to send some money to a fund to help the victims.	We are going to send some money to a fund to help the victims.	2079780	1471978374935	1471978375015	 	32
4104	43569	We are going to send some money to a fund to help the victims.	We are going to send some money to a fund to help the victims.	2079784	1471978375095	1471978375239	f	70
4104	43569	We are going to send some money to a fund to help the victims.	We are going to send some money to a fund to help the victims.	2079788	1471978375207	1471978375303	u	85
4104	43569	We are going to send some money to a fund to help the victims.	We are going to send some money to a fund to help the victims.	2079795	1471978375399	1471978375527	n	78
4104	43569	We are going to send some money to a fund to help the victims.	We are going to send some money to a fund to help the victims.	2079802	1471978375495	1471978375639	d	68
4104	43569	We are going to send some money to a fund to help the victims.	We are going to send some money to a fund to help the victims.	2079942	1471978375591	1471978375687	 	32
4104	43569	We are going to send some money to a fund to help the victims.	We are going to send some money to a fund to help the victims.	2079947	1471978376391	1471978376551	t	84
4104	43569	We are going to send some money to a fund to help the victims.	We are going to send some money to a fund to help the victims.	2079954	1471978376519	1471978376663	o	79
4104	43569	We are going to send some money to a fund to help the victims.	We are going to send some money to a fund to help the victims.	2079963	1471978376663	1471978376759	 	32
4104	43569	We are going to send some money to a fund to help the victims.	We are going to send some money to a fund to help the victims.	2079969	1471978376887	1471978377015	h	72
4104	43569	We are going to send some money to a fund to help the victims.	We are going to send some money to a fund to help the victims.	2079971	1471978377223	1471978377351	e	69
4104	43569	We are going to send some money to a fund to help the victims.	We are going to send some money to a fund to help the victims.	2080044	1471978377432	1471978377544	l	76
4104	43569	We are going to send some money to a fund to help the victims.	We are going to send some money to a fund to help the victims.	2080048	1471978377575	1471978377752	p	80
4104	43569	We are going to send some money to a fund to help the victims.	We are going to send some money to a fund to help the victims.	2080053	1471978377752	1471978377896	 	32
4104	43569	We are going to send some money to a fund to help the victims.	We are going to send some money to a fund to help the victims.	2080060	1471978378456	1471978378615	t	84
4104	43569	We are going to send some money to a fund to help the victims.	We are going to send some money to a fund to help the victims.	2080125	1471978378584	1471978378696	h	72
4104	43569	We are going to send some money to a fund to help the victims.	We are going to send some money to a fund to help the victims.	2080131	1471978378727	1471978378840	e	69
4104	43569	We are going to send some money to a fund to help the victims.	We are going to send some money to a fund to help the victims.	2080135	1471978378760	1471978378855	 	32
4104	43569	We are going to send some money to a fund to help the victims.	We are going to send some money to a fund to help the victims.	2080143	1471978379064	1471978379208	v	86
4104	43569	We are going to send some money to a fund to help the victims.	We are going to send some money to a fund to help the victims.	2080149	1471978379208	1471978379271	i	73
4104	43569	We are going to send some money to a fund to help the victims.	We are going to send some money to a fund to help the victims.	2080155	1471978379432	1471978379607	n	78
4104	43569	We are going to send some money to a fund to help the victims.	We are going to send some money to a fund to help the victims.	2080373	1471978379880	1471978380023	BKSP	8
4104	43569	We are going to send some money to a fund to help the victims.	We are going to send some money to a fund to help the victims.	2080381	1471978380247	1471978380344	x	67
4104	43569	We are going to send some money to a fund to help the victims.	We are going to send some money to a fund to help the victims.	2080392	1471978381015	1471978381143	BKSP	8
4104	43569	We are going to send some money to a fund to help the victims.	We are going to send some money to a fund to help the victims.	2080405	1471978381671	1471978381799	t	84
4104	43569	We are going to send some money to a fund to help the victims.	We are going to send some money to a fund to help the victims.	2080411	1471978381895	1471978381943	i	73
4104	43569	We are going to send some money to a fund to help the victims.	We are going to send some money to a fund to help the victims.	2080420	1471978382103	1471978382167	m	77
4104	43569	We are going to send some money to a fund to help the victims.	We are going to send some money to a fund to help the victims.	2080525	1471978382247	1471978382423	s	83
4104	43569	We are going to send some money to a fund to help the victims.	We are going to send some money to a fund to help the victims.	2080527	1471978383495	1471978383559	.	190
4104	43605	Let me know what you want to do.	Let me know what you want to do.	2080801	1471978385240	1471978385383	CAPS_LOCK	20
4104	43605	Let me know what you want to do.	Let me know what you want to do.	2080805	1471978385447	1471978385575	L	76
4104	43605	Let me know what you want to do.	Let me know what you want to do.	2080809	1471978385495	1471978385639	CAPS_LOCK	20
4104	43605	Let me know what you want to do.	Let me know what you want to do.	2080815	1471978385767	1471978385911	r	69
4104	43605	Let me know what you want to do.	Let me know what you want to do.	2080821	1471978386471	1471978386599	BKSP	8
4104	43605	Let me know what you want to do.	Let me know what you want to do.	2080829	1471978386615	1471978386759	t	84
4104	43605	Let me know what you want to do.	Let me know what you want to do.	2080838	1471978386760	1471978386871	 	32
4104	43605	Let me know what you want to do.	Let me know what you want to do.	2080977	1471978387143	1471978387191	n	77
4104	43605	Let me know what you want to do.	Let me know what you want to do.	2080981	1471978387735	1471978387863	BKSP	8
4104	43605	Let me know what you want to do.	Let me know what you want to do.	2080983	1471978388103	1471978388247	e	69
4104	43605	Let me know what you want to do.	Let me know what you want to do.	2080987	1471978388359	1471978388487	 	32
4104	43605	Let me know what you want to do.	Let me know what you want to do.	2080990	1471978388727	1471978388903	k	75
4104	43605	Let me know what you want to do.	Let me know what you want to do.	2081044	1471978388871	1471978388999	n	78
4104	43605	Let me know what you want to do.	Let me know what you want to do.	2081046	1471978389159	1471978389367	o	79
4104	43605	Let me know what you want to do.	Let me know what you want to do.	2081048	1471978389303	1471978389479	w	87
4104	43605	Let me know what you want to do.	Let me know what you want to do.	2081052	1471978389399	1471978389543	 	32
4104	43605	Let me know what you want to do.	Let me know what you want to do.	2081055	1471978389991	1471978390119	w	87
4104	43605	Let me know what you want to do.	Let me know what you want to do.	2081121	1471978390103	1471978390247	h	72
4104	43605	Let me know what you want to do.	Let me know what you want to do.	2081126	1471978390247	1471978390455	a	65
4104	43605	Let me know what you want to do.	Let me know what you want to do.	2081133	1471978390391	1471978390551	t	84
4104	43605	Let me know what you want to do.	Let me know what you want to do.	2081140	1471978390583	1471978390711	 	32
4104	43605	Let me know what you want to do.	Let me know what you want to do.	2081148	1471978391191	1471978391351	y	89
4104	43605	Let me know what you want to do.	Let me know what you want to do.	2081229	1471978391255	1471978391479	o	79
4104	43605	Let me know what you want to do.	Let me know what you want to do.	2081233	1471978391479	1471978391639	u	85
4104	43605	Let me know what you want to do.	Let me know what you want to do.	2081237	1471978391655	1471978391751	 	32
4104	43605	Let me know what you want to do.	Let me know what you want to do.	2081239	1471978391847	1471978391943	w	87
4104	43605	Let me know what you want to do.	Let me know what you want to do.	2081242	1471978392103	1471978392263	a	65
4104	43605	Let me know what you want to do.	Let me know what you want to do.	2081326	1471978392247	1471978392359	n	78
4104	43605	Let me know what you want to do.	Let me know what you want to do.	2081328	1471978392455	1471978392583	t	84
4104	43605	Let me know what you want to do.	Let me know what you want to do.	2081331	1471978392583	1471978392695	 	32
4104	43605	Let me know what you want to do.	Let me know what you want to do.	2081334	1471978392711	1471978392855	t	84
4104	43605	Let me know what you want to do.	Let me know what you want to do.	2081337	1471978392823	1471978392983	o	79
4104	43605	Let me know what you want to do.	Let me know what you want to do.	2081340	1471978393079	1471978393207	 	32
4104	43605	Let me know what you want to do.	Let me know what you want to do.	2081508	1471978393559	1471978393671	f	70
4104	43605	Let me know what you want to do.	Let me know what you want to do.	2081512	1471978393895	1471978394039	BKSP	8
4104	43605	Let me know what you want to do.	Let me know what you want to do.	2081518	1471978394054	1471978394199	d	68
4104	43605	Let me know what you want to do.	Let me know what you want to do.	2081520	1471978394167	1471978394295	o	79
4104	43605	Let me know what you want to do.	Let me know what you want to do.	2081523	1471978394936	1471978395048	.	190
4104	43629	I will handle this afternoon.	I will handle tyhisd afternoon	2081799	1471978396842	1471978396969	CAPS_LOCK	20
4104	43629	I will handle this afternoon.	I will handle tyhisd afternoon	2081800	1471978397017	1471978397145	I	73
4104	43629	I will handle this afternoon.	I will handle tyhisd afternoon	2081801	1471978397130	1471978397257	CAPS_LOCK	20
4104	43629	I will handle this afternoon.	I will handle tyhisd afternoon	2081802	1471978397610	1471978397769	w	87
4104	43629	I will handle this afternoon.	I will handle tyhisd afternoon	2081804	1471978397737	1471978397833	i	73
4104	43629	I will handle this afternoon.	I will handle tyhisd afternoon	2081807	1471978398233	1471978398249	BKSP	8
4104	43629	I will handle this afternoon.	I will handle tyhisd afternoon	2081813	1471978398361	1471978398457	BKSP	8
4104	43629	I will handle this afternoon.	I will handle tyhisd afternoon	2081820	1471978398714	1471978398809	 	32
4104	43629	I will handle this afternoon.	I will handle tyhisd afternoon	2081830	1471978399178	1471978399321	w	87
4104	43629	I will handle this afternoon.	I will handle tyhisd afternoon	2081928	1471978399401	1471978399513	i	73
4104	43629	I will handle this afternoon.	I will handle tyhisd afternoon	2081933	1471978399641	1471978399721	l	76
4104	43629	I will handle this afternoon.	I will handle tyhisd afternoon	2081937	1471978399817	1471978399897	l	76
4104	43629	I will handle this afternoon.	I will handle tyhisd afternoon	2081939	1471978399947	1471978400058	 	32
4104	43629	I will handle this afternoon.	I will handle tyhisd afternoon	2081941	1471978400297	1471978400393	h	72
4104	43629	I will handle this afternoon.	I will handle tyhisd afternoon	2082008	1471978400395	1471978400521	a	65
4104	43629	I will handle this afternoon.	I will handle tyhisd afternoon	2082017	1471978400809	1471978400889	n	78
4104	43629	I will handle this afternoon.	I will handle tyhisd afternoon	2082027	1471978400953	1471978401081	d	68
4104	43629	I will handle this afternoon.	I will handle tyhisd afternoon	2082038	1471978401113	1471978401289	l	76
4104	43629	I will handle this afternoon.	I will handle tyhisd afternoon	2082046	1471978401305	1471978401466	e	69
4104	43629	I will handle this afternoon.	I will handle tyhisd afternoon	2082106	1471978401449	1471978401529	 	32
4104	43629	I will handle this afternoon.	I will handle tyhisd afternoon	2082109	1471978401817	1471978401945	y	84
4104	43629	I will handle this afternoon.	I will handle tyhisd afternoon	2082112	1471978401929	1471978402105	h	72
4104	43629	I will handle this afternoon.	I will handle tyhisd afternoon	2082114	1471978402217	1471978402409	i	73
4104	43629	I will handle this afternoon.	I will handle tyhisd afternoon	2082309	1471978402410	1471978402601	d	83
4104	43629	I will handle this afternoon.	I will handle tyhisd afternoon	2082317	1471978402553	1471978402681	 	32
4104	43629	I will handle this afternoon.	I will handle tyhisd afternoon	2082324	1471978403097	1471978403273	a	65
4104	43629	I will handle this afternoon.	I will handle tyhisd afternoon	2082329	1471978403737	1471978403961	f	70
4104	43629	I will handle this afternoon.	I will handle tyhisd afternoon	2082336	1471978404393	1471978404553	t	84
4104	43629	I will handle this afternoon.	I will handle tyhisd afternoon	2082342	1471978404649	1471978404793	e	69
4104	43629	I will handle this afternoon.	I will handle tyhisd afternoon	2082478	1471978404777	1471978404921	r	82
4104	43629	I will handle this afternoon.	I will handle tyhisd afternoon	2082482	1471978405321	1471978405433	n	78
4104	43629	I will handle this afternoon.	I will handle tyhisd afternoon	2082484	1471978405673	1471978405801	o	79
4104	43629	I will handle this afternoon.	I will handle tyhisd afternoon	2082488	1471978405897	1471978406009	o	79
4104	43629	I will handle this afternoon.	I will handle tyhisd afternoon	2082491	1471978406073	1471978406153	n	78
4104	43650	The meteor shower was incredible last night.	The METEOR shower was incredible last night.	2082786	1471978408681	1471978408873	CAPS_LOCK	20
4104	43650	The meteor shower was incredible last night.	The METEOR shower was incredible last night.	2082787	1471978409097	1471978409241	T	84
4104	43650	The meteor shower was incredible last night.	The METEOR shower was incredible last night.	2082790	1471978409241	1471978409449	CAPS_LOCK	20
4104	43650	The meteor shower was incredible last night.	The METEOR shower was incredible last night.	2082794	1471978409449	1471978409609	h	72
4104	43650	The meteor shower was incredible last night.	The METEOR shower was incredible last night.	2082799	1471978409641	1471978409785	e	69
4104	43650	The meteor shower was incredible last night.	The METEOR shower was incredible last night.	2082803	1471978409833	1471978409945	 	32
4104	43650	The meteor shower was incredible last night.	The METEOR shower was incredible last night.	2082812	1471978410105	1471978410281	CAPS_LOCK	20
4104	43650	The meteor shower was incredible last night.	The METEOR shower was incredible last night.	2083198	1471978410249	1471978410345	M	77
4104	43650	The meteor shower was incredible last night.	The METEOR shower was incredible last night.	2083206	1471978410553	1471978410697	E	69
4104	43650	The meteor shower was incredible last night.	The METEOR shower was incredible last night.	2083218	1471978412073	1471978412201	BKSP	8
4104	43650	The meteor shower was incredible last night.	The METEOR shower was incredible last night.	2083226	1471978414026	1471978414138	E	69
4104	43650	The meteor shower was incredible last night.	The METEOR shower was incredible last night.	2083236	1471978414265	1471978414394	T	84
4104	43650	The meteor shower was incredible last night.	The METEOR shower was incredible last night.	2083248	1471978414537	1471978414682	E	69
4104	43650	The meteor shower was incredible last night.	The METEOR shower was incredible last night.	2083256	1471978414794	1471978414985	O	79
4104	43650	The meteor shower was incredible last night.	The METEOR shower was incredible last night.	2083424	1471978415082	1471978415273	R	82
4104	43650	The meteor shower was incredible last night.	The METEOR shower was incredible last night.	2083429	1471978415337	1471978415481	 	32
4104	43650	The meteor shower was incredible last night.	The METEOR shower was incredible last night.	2083438	1471978416105	1471978416281	S	83
4104	43650	The meteor shower was incredible last night.	The METEOR shower was incredible last night.	2083446	1471978416649	1471978416729	BKSP	8
4104	43650	The meteor shower was incredible last night.	The METEOR shower was incredible last night.	2083455	1471978416793	1471978416921	CAPS_LOCK	20
4104	43650	The meteor shower was incredible last night.	The METEOR shower was incredible last night.	2083465	1471978417017	1471978417193	s	83
4104	43650	The meteor shower was incredible last night.	The METEOR shower was incredible last night.	2083473	1471978417209	1471978417273	h	72
4104	43650	The meteor shower was incredible last night.	The METEOR shower was incredible last night.	2083615	1471978417529	1471978417673	o	79
4104	43650	The meteor shower was incredible last night.	The METEOR shower was incredible last night.	2083619	1471978417993	1471978418137	w	87
4104	43650	The meteor shower was incredible last night.	The METEOR shower was incredible last night.	2083623	1471978418377	1471978418537	e	69
4104	43650	The meteor shower was incredible last night.	The METEOR shower was incredible last night.	2083626	1471978418985	1471978419113	r	82
4104	43650	The meteor shower was incredible last night.	The METEOR shower was incredible last night.	2083630	1471978419257	1471978419385	 	32
4104	43650	The meteor shower was incredible last night.	The METEOR shower was incredible last night.	2083729	1471978419497	1471978419625	w	87
4104	43650	The meteor shower was incredible last night.	The METEOR shower was incredible last night.	2083733	1471978419849	1471978420009	a	65
4104	43650	The meteor shower was incredible last night.	The METEOR shower was incredible last night.	2083739	1471978420041	1471978420201	s	83
4104	43650	The meteor shower was incredible last night.	The METEOR shower was incredible last night.	2083749	1471978420233	1471978420377	 	32
4104	43650	The meteor shower was incredible last night.	The METEOR shower was incredible last night.	2083753	1471978420841	1471978420985	i	73
4104	43650	The meteor shower was incredible last night.	The METEOR shower was incredible last night.	2083826	1471978421097	1471978421209	n	78
4104	43650	The meteor shower was incredible last night.	The METEOR shower was incredible last night.	2083831	1471978421385	1471978421561	c	67
4104	43650	The meteor shower was incredible last night.	The METEOR shower was incredible last night.	2083835	1471978421817	1471978421961	r	82
4104	43650	The meteor shower was incredible last night.	The METEOR shower was incredible last night.	2083839	1471978422025	1471978422201	e	69
4104	43650	The meteor shower was incredible last night.	The METEOR shower was incredible last night.	2083843	1471978422425	1471978422585	d	68
4104	43650	The meteor shower was incredible last night.	The METEOR shower was incredible last night.	2083960	1471978422745	1471978422857	i	73
4104	43650	The meteor shower was incredible last night.	The METEOR shower was incredible last night.	2083962	1471978423081	1471978423225	b	66
4104	43650	The meteor shower was incredible last night.	The METEOR shower was incredible last night.	2083963	1471978423273	1471978423433	l	76
4104	43650	The meteor shower was incredible last night.	The METEOR shower was incredible last night.	2083966	1471978423465	1471978423641	e	69
4104	43650	The meteor shower was incredible last night.	The METEOR shower was incredible last night.	2083969	1471978424153	1471978424265	 	32
4104	43650	The meteor shower was incredible last night.	The METEOR shower was incredible last night.	2084018	1471978424441	1471978424601	l	76
4104	43650	The meteor shower was incredible last night.	The METEOR shower was incredible last night.	2084021	1471978424569	1471978424761	a	65
4104	43650	The meteor shower was incredible last night.	The METEOR shower was incredible last night.	2084025	1471978424777	1471978424969	s	83
4104	43650	The meteor shower was incredible last night.	The METEOR shower was incredible last night.	2084028	1471978425129	1471978425241	t	84
4104	43650	The meteor shower was incredible last night.	The METEOR shower was incredible last night.	2084031	1471978425337	1471978425433	 	32
4104	43650	The meteor shower was incredible last night.	The METEOR shower was incredible last night.	2084059	1471978425545	1471978425641	n	78
4104	43650	The meteor shower was incredible last night.	The METEOR shower was incredible last night.	2084062	1471978425769	1471978425929	i	73
4104	43650	The meteor shower was incredible last night.	The METEOR shower was incredible last night.	2084066	1471978425929	1471978426041	g	71
4104	43650	The meteor shower was incredible last night.	The METEOR shower was incredible last night.	2084073	1471978426041	1471978426153	h	72
4104	43650	The meteor shower was incredible last night.	The METEOR shower was incredible last night.	2084079	1471978426153	1471978426265	t	84
4104	43650	The meteor shower was incredible last night.	The METEOR shower was incredible last night.	2084173	1471978427609	1471978427673	.	190
4104	43679	Had a great meeting.	Had a great meeting.	2084416	1471978429801	1471978429946	CAPS_LOCK	20
4104	43679	Had a great meeting.	Had a great meeting.	2084418	1471978430090	1471978430201	H	72
4104	43679	Had a great meeting.	Had a great meeting.	2084421	1471978430170	1471978430329	CAPS_LOCK	20
4104	43679	Had a great meeting.	Had a great meeting.	2084424	1471978430473	1471978430634	a	65
4104	43679	Had a great meeting.	Had a great meeting.	2084427	1471978430730	1471978430938	f	68
4104	43679	Had a great meeting.	Had a great meeting.	2084429	1471978431738	1471978431817	 	32
4104	43679	Had a great meeting.	Had a great meeting.	2084547	1471978432074	1471978432185	BKSP	8
4104	43679	Had a great meeting.	Had a great meeting.	2084554	1471978432249	1471978432377	BKSP	8
4104	43679	Had a great meeting.	Had a great meeting.	2084561	1471978432473	1471978432585	 	32
4104	43679	Had a great meeting.	Had a great meeting.	2084566	1471978432698	1471978432841	a	65
4104	43679	Had a great meeting.	Had a great meeting.	2084572	1471978432842	1471978432953	 	32
4104	43679	Had a great meeting.	Had a great meeting.	2084575	1471978433546	1471978433673	g	71
4104	43679	Had a great meeting.	Had a great meeting.	2084580	1471978433785	1471978433945	r	82
4104	43679	Had a great meeting.	Had a great meeting.	2084662	1471978434089	1471978434233	e	69
4104	43679	Had a great meeting.	Had a great meeting.	2084672	1471978434441	1471978434633	a	65
4104	43679	Had a great meeting.	Had a great meeting.	2084677	1471978434634	1471978434793	t	84
4104	43679	Had a great meeting.	Had a great meeting.	2084682	1471978434841	1471978434937	 	32
4104	43679	Had a great meeting.	Had a great meeting.	2084686	1471978435177	1471978435289	m	77
4104	43679	Had a great meeting.	Had a great meeting.	2084832	1471978435385	1471978435513	a	65
4104	43679	Had a great meeting.	Had a great meeting.	2084835	1471978435689	1471978435801	BKSP	8
4104	43679	Had a great meeting.	Had a great meeting.	2084839	1471978435913	1471978436041	e	69
4104	43679	Had a great meeting.	Had a great meeting.	2084843	1471978436377	1471978436489	e	69
4104	43679	Had a great meeting.	Had a great meeting.	2084847	1471978436649	1471978436793	t	84
4104	43679	Had a great meeting.	Had a great meeting.	2084851	1471978437481	1471978437577	i	73
4104	43679	Had a great meeting.	Had a great meeting.	2084882	1471978437657	1471978437769	n	78
4104	43679	Had a great meeting.	Had a great meeting.	2084887	1471978437865	1471978438025	g	71
4104	43679	Had a great meeting.	Had a great meeting.	2084893	1471978438457	1471978438585	.	190
4104	43700	Best of luck and stay in touch.	Best of luck and stay in touch.	2085115	1471978440553	1471978440713	CAPS_LOCK	20
4104	43700	Best of luck and stay in touch.	Best of luck and stay in touch.	2085120	1471978440777	1471978440873	B	66
4104	43700	Best of luck and stay in touch.	Best of luck and stay in touch.	2085126	1471978440874	1471978441033	CAPS_LOCK	20
4104	43700	Best of luck and stay in touch.	Best of luck and stay in touch.	2085131	1471978441193	1471978441353	e	69
4104	43700	Best of luck and stay in touch.	Best of luck and stay in touch.	2085135	1471978441593	1471978441769	s	83
4104	43700	Best of luck and stay in touch.	Best of luck and stay in touch.	2085139	1471978441897	1471978442057	t	84
4104	43700	Best of luck and stay in touch.	Best of luck and stay in touch.	2085141	1471978442425	1471978442537	 	32
4104	43700	Best of luck and stay in touch.	Best of luck and stay in touch.	2085233	1471978442905	1471978443065	o	79
4104	43700	Best of luck and stay in touch.	Best of luck and stay in touch.	2085235	1471978443161	1471978443369	f	70
4104	43700	Best of luck and stay in touch.	Best of luck and stay in touch.	2085239	1471978443497	1471978443657	 	32
4104	43700	Best of luck and stay in touch.	Best of luck and stay in touch.	2085244	1471978443769	1471978443977	l	76
4104	43700	Best of luck and stay in touch.	Best of luck and stay in touch.	2085251	1471978444137	1471978444281	u	85
4104	43700	Best of luck and stay in touch.	Best of luck and stay in touch.	2085358	1471978444393	1471978444553	c	67
4104	43700	Best of luck and stay in touch.	Best of luck and stay in touch.	2085365	1471978444681	1471978444825	k	75
4104	43700	Best of luck and stay in touch.	Best of luck and stay in touch.	2085373	1471978445033	1471978445145	 	32
4104	43700	Best of luck and stay in touch.	Best of luck and stay in touch.	2085381	1471978445689	1471978445849	a	65
4104	43700	Best of luck and stay in touch.	Best of luck and stay in touch.	2085388	1471978445961	1471978446121	n	78
4104	43700	Best of luck and stay in touch.	Best of luck and stay in touch.	2085474	1471978446169	1471978446329	d	68
4104	43700	Best of luck and stay in touch.	Best of luck and stay in touch.	2085482	1471978446393	1471978446521	 	32
4104	43700	Best of luck and stay in touch.	Best of luck and stay in touch.	2085488	1471978446601	1471978446761	s	83
4104	43700	Best of luck and stay in touch.	Best of luck and stay in touch.	2085494	1471978446985	1471978447097	t	84
4104	43700	Best of luck and stay in touch.	Best of luck and stay in touch.	2085500	1471978447193	1471978447370	a	65
4104	43700	Best of luck and stay in touch.	Best of luck and stay in touch.	2085595	1471978447498	1471978447610	y	89
4104	43700	Best of luck and stay in touch.	Best of luck and stay in touch.	2085598	1471978447657	1471978447786	 	32
4104	43700	Best of luck and stay in touch.	Best of luck and stay in touch.	2085603	1471978447978	1471978448106	i	73
4104	43700	Best of luck and stay in touch.	Best of luck and stay in touch.	2085609	1471978448249	1471978448378	n	78
4104	43700	Best of luck and stay in touch.	Best of luck and stay in touch.	2085612	1471978448425	1471978448586	 	32
4104	43700	Best of luck and stay in touch.	Best of luck and stay in touch.	2085680	1471978448858	1471978448985	t	84
4104	43700	Best of luck and stay in touch.	Best of luck and stay in touch.	2085685	1471978449017	1471978449194	o	79
4104	43700	Best of luck and stay in touch.	Best of luck and stay in touch.	2085691	1471978449305	1471978449449	u	85
4104	43700	Best of luck and stay in touch.	Best of luck and stay in touch.	2085695	1471978449545	1471978449721	c	67
4104	43700	Best of luck and stay in touch.	Best of luck and stay in touch.	2085700	1471978449737	1471978449833	h	72
4104	43700	Best of luck and stay in touch.	Best of luck and stay in touch.	2085740	1471978450218	1471978450313	.	190
4104	43717	She is a Baylor graduate and is very nice.	She is a Baylor graduate and is very nice.	2086058	1471978453577	1471978453753	CAPS_LOCK	20
4104	43717	She is a Baylor graduate and is very nice.	She is a Baylor graduate and is very nice.	2086060	1471978453865	1471978453993	S	83
4104	43717	She is a Baylor graduate and is very nice.	She is a Baylor graduate and is very nice.	2086064	1471978454025	1471978454217	CAPS_LOCK	20
4104	43717	She is a Baylor graduate and is very nice.	She is a Baylor graduate and is very nice.	2086071	1471978454233	1471978454393	h	72
4104	43717	She is a Baylor graduate and is very nice.	She is a Baylor graduate and is very nice.	2086080	1471978454473	1471978454649	e	69
4104	43717	She is a Baylor graduate and is very nice.	She is a Baylor graduate and is very nice.	2086090	1471978454650	1471978454809	 	32
4104	43717	She is a Baylor graduate and is very nice.	She is a Baylor graduate and is very nice.	2086096	1471978454905	1471978455081	i	73
4104	43717	She is a Baylor graduate and is very nice.	She is a Baylor graduate and is very nice.	2086218	1471978455082	1471978455209	s	83
4104	43717	She is a Baylor graduate and is very nice.	She is a Baylor graduate and is very nice.	2086221	1471978455210	1471978455337	 	32
4104	43717	She is a Baylor graduate and is very nice.	She is a Baylor graduate and is very nice.	2086226	1471978455705	1471978455881	a	65
4104	43717	She is a Baylor graduate and is very nice.	She is a Baylor graduate and is very nice.	2086230	1471978455897	1471978456041	 	32
4104	43717	She is a Baylor graduate and is very nice.	She is a Baylor graduate and is very nice.	2086239	1471978456636	1471978456796	CAPS_LOCK	20
4104	43717	She is a Baylor graduate and is very nice.	She is a Baylor graduate and is very nice.	2086244	1471978456876	1471978457004	B	66
4104	43717	She is a Baylor graduate and is very nice.	She is a Baylor graduate and is very nice.	2086401	1471978457036	1471978457148	CAPS_LOCK	20
4104	43717	She is a Baylor graduate and is very nice.	She is a Baylor graduate and is very nice.	2086408	1471978457964	1471978458092	a	65
4104	43717	She is a Baylor graduate and is very nice.	She is a Baylor graduate and is very nice.	2086413	1471978458300	1471978458380	y	89
4104	43717	She is a Baylor graduate and is very nice.	She is a Baylor graduate and is very nice.	2086419	1471978458764	1471978458844	l	76
4104	43717	She is a Baylor graduate and is very nice.	She is a Baylor graduate and is very nice.	2086425	1471978458956	1471978459052	o	79
4104	43717	She is a Baylor graduate and is very nice.	She is a Baylor graduate and is very nice.	2086430	1471978459084	1471978459260	r	82
4104	43717	She is a Baylor graduate and is very nice.	She is a Baylor graduate and is very nice.	2086515	1471978459436	1471978459548	 	32
4104	43717	She is a Baylor graduate and is very nice.	She is a Baylor graduate and is very nice.	2086519	1471978460284	1471978460412	g	71
4104	43717	She is a Baylor graduate and is very nice.	She is a Baylor graduate and is very nice.	2086524	1471978460572	1471978460684	r	82
4104	43717	She is a Baylor graduate and is very nice.	She is a Baylor graduate and is very nice.	2086529	1471978460812	1471978460988	a	65
4104	43717	She is a Baylor graduate and is very nice.	She is a Baylor graduate and is very nice.	2086535	1471978461020	1471978461180	d	68
4104	43717	She is a Baylor graduate and is very nice.	She is a Baylor graduate and is very nice.	2086581	1471978461212	1471978461340	u	85
4104	43717	She is a Baylor graduate and is very nice.	She is a Baylor graduate and is very nice.	2086585	1471978461500	1471978461692	a	65
4104	43717	She is a Baylor graduate and is very nice.	She is a Baylor graduate and is very nice.	2086589	1471978461692	1471978461852	t	84
4104	43717	She is a Baylor graduate and is very nice.	She is a Baylor graduate and is very nice.	2086592	1471978461932	1471978462108	e	69
4104	43717	She is a Baylor graduate and is very nice.	She is a Baylor graduate and is very nice.	2086595	1471978462188	1471978462332	 	32
4104	43717	She is a Baylor graduate and is very nice.	She is a Baylor graduate and is very nice.	2086669	1471978462444	1471978462636	a	65
4104	43717	She is a Baylor graduate and is very nice.	She is a Baylor graduate and is very nice.	2086675	1471978462636	1471978462764	n	78
4104	43717	She is a Baylor graduate and is very nice.	She is a Baylor graduate and is very nice.	2086679	1471978462844	1471978462988	d	68
4104	43717	She is a Baylor graduate and is very nice.	She is a Baylor graduate and is very nice.	2086683	1471978463116	1471978463308	 	32
4104	43717	She is a Baylor graduate and is very nice.	She is a Baylor graduate and is very nice.	2086689	1471978463468	1471978463596	i	73
4104	43717	She is a Baylor graduate and is very nice.	She is a Baylor graduate and is very nice.	2086875	1471978463708	1471978463868	s	83
4104	43717	She is a Baylor graduate and is very nice.	She is a Baylor graduate and is very nice.	2086880	1471978463899	1471978464012	 	32
4104	43717	She is a Baylor graduate and is very nice.	She is a Baylor graduate and is very nice.	2086894	1471978464124	1471978464236	a	65
4104	43717	She is a Baylor graduate and is very nice.	She is a Baylor graduate and is very nice.	2086902	1471978464877	1471978464989	BKSP	8
4104	43717	She is a Baylor graduate and is very nice.	She is a Baylor graduate and is very nice.	2086907	1471978465565	1471978465645	v	86
4104	43717	She is a Baylor graduate and is very nice.	She is a Baylor graduate and is very nice.	2086913	1471978465725	1471978465853	e	69
4104	43717	She is a Baylor graduate and is very nice.	She is a Baylor graduate and is very nice.	2086993	1471978465933	1471978466061	r	82
4104	43717	She is a Baylor graduate and is very nice.	She is a Baylor graduate and is very nice.	2086997	1471978466156	1471978466317	y	89
4104	43717	She is a Baylor graduate and is very nice.	She is a Baylor graduate and is very nice.	2087005	1471978466413	1471978466525	 	32
4104	43717	She is a Baylor graduate and is very nice.	She is a Baylor graduate and is very nice.	2087012	1471978466813	1471978466861	n	78
4104	43717	She is a Baylor graduate and is very nice.	She is a Baylor graduate and is very nice.	2087015	1471978466989	1471978467100	i	73
4104	43717	She is a Baylor graduate and is very nice.	She is a Baylor graduate and is very nice.	2087220	1471978467181	1471978467308	c	67
4104	43717	She is a Baylor graduate and is very nice.	She is a Baylor graduate and is very nice.	2087224	1471978467452	1471978467564	e	69
4104	43717	She is a Baylor graduate and is very nice.	She is a Baylor graduate and is very nice.	2087229	1471978467917	1471978467980	/	191
4104	43717	She is a Baylor graduate and is very nice.	She is a Baylor graduate and is very nice.	2087237	1471978469276	1471978469372	BKSP	8
4104	43717	She is a Baylor graduate and is very nice.	She is a Baylor graduate and is very nice.	2087246	1471978469644	1471978469740	.	190
4104	43760	France would not join a US military invasion of Haiti.	France would not join a US military invasion of Haiti.	2087761	1471978472156	1471978472300	CAPS_LOCK	20
4104	43760	France would not join a US military invasion of Haiti.	France would not join a US military invasion of Haiti.	2087769	1471978472540	1471978472700	CAPS_LOCK	20
4104	43760	France would not join a US military invasion of Haiti.	France would not join a US military invasion of Haiti.	2087775	1471978473068	1471978473292	f	70
4104	43760	France would not join a US military invasion of Haiti.	France would not join a US military invasion of Haiti.	2087783	1471978473644	1471978473804	BKSP	8
4104	43760	France would not join a US military invasion of Haiti.	France would not join a US military invasion of Haiti.	2087788	1471978473852	1471978473996	CAPS_LOCK	20
4104	43760	France would not join a US military invasion of Haiti.	France would not join a US military invasion of Haiti.	2087795	1471978474860	1471978475020	F	70
4104	43760	France would not join a US military invasion of Haiti.	France would not join a US military invasion of Haiti.	2087802	1471978475020	1471978475244	CAPS_LOCK	20
4104	43760	France would not join a US military invasion of Haiti.	France would not join a US military invasion of Haiti.	2087809	1471978475436	1471978475580	r	82
4104	43760	France would not join a US military invasion of Haiti.	France would not join a US military invasion of Haiti.	2087814	1471978475740	1471978475884	a	65
4104	43760	France would not join a US military invasion of Haiti.	France would not join a US military invasion of Haiti.	2087820	1471978476060	1471978476188	c	67
4104	43760	France would not join a US military invasion of Haiti.	France would not join a US military invasion of Haiti.	2087959	1471978476252	1471978476412	n	78
4104	43760	France would not join a US military invasion of Haiti.	France would not join a US military invasion of Haiti.	2087966	1471978476668	1471978476812	e	69
4104	43760	France would not join a US military invasion of Haiti.	France would not join a US military invasion of Haiti.	2087972	1471978477468	1471978477564	BKSP	8
4104	43760	France would not join a US military invasion of Haiti.	France would not join a US military invasion of Haiti.	2087978	1471978477660	1471978477756	BKSP	8
4104	43760	France would not join a US military invasion of Haiti.	France would not join a US military invasion of Haiti.	2087986	1471978477900	1471978478012	BKSP	8
4104	43760	France would not join a US military invasion of Haiti.	France would not join a US military invasion of Haiti.	2087991	1471978478348	1471978478428	n	78
4104	43760	France would not join a US military invasion of Haiti.	France would not join a US military invasion of Haiti.	2087998	1471978478508	1471978478636	c	67
4104	43760	France would not join a US military invasion of Haiti.	France would not join a US military invasion of Haiti.	2088002	1471978478700	1471978478844	e	69
4104	43760	France would not join a US military invasion of Haiti.	France would not join a US military invasion of Haiti.	2088066	1471978478845	1471978478956	 	32
4104	43760	France would not join a US military invasion of Haiti.	France would not join a US military invasion of Haiti.	2088068	1471978479132	1471978479276	w	87
4104	43760	France would not join a US military invasion of Haiti.	France would not join a US military invasion of Haiti.	2088070	1471978479324	1471978479420	o	79
4104	43760	France would not join a US military invasion of Haiti.	France would not join a US military invasion of Haiti.	2088074	1471978479564	1471978479644	u	85
4104	43760	France would not join a US military invasion of Haiti.	France would not join a US military invasion of Haiti.	2088083	1471978479836	1471978479964	l	76
4104	43760	France would not join a US military invasion of Haiti.	France would not join a US military invasion of Haiti.	2088136	1471978480060	1471978480204	d	68
4104	43760	France would not join a US military invasion of Haiti.	France would not join a US military invasion of Haiti.	2088138	1471978480188	1471978480284	 	32
4104	43760	France would not join a US military invasion of Haiti.	France would not join a US military invasion of Haiti.	2088141	1471978480381	1471978480476	n	78
4104	43760	France would not join a US military invasion of Haiti.	France would not join a US military invasion of Haiti.	2088144	1471978480668	1471978480828	o	79
4104	43760	France would not join a US military invasion of Haiti.	France would not join a US military invasion of Haiti.	2088152	1471978480876	1471978481020	t	84
4104	43760	France would not join a US military invasion of Haiti.	France would not join a US military invasion of Haiti.	2088278	1471978481036	1471978481148	 	32
4104	43760	France would not join a US military invasion of Haiti.	France would not join a US military invasion of Haiti.	2088282	1471978481980	1471978482060	j	74
4104	43760	France would not join a US military invasion of Haiti.	France would not join a US military invasion of Haiti.	2088288	1471978482172	1471978482381	o	79
4104	43760	France would not join a US military invasion of Haiti.	France would not join a US military invasion of Haiti.	2088292	1471978482381	1471978482493	i	73
4104	43760	France would not join a US military invasion of Haiti.	France would not join a US military invasion of Haiti.	2088296	1471978483165	1471978483276	n	78
4104	43760	France would not join a US military invasion of Haiti.	France would not join a US military invasion of Haiti.	2088569	1471978483437	1471978483532	 	32
4104	43760	France would not join a US military invasion of Haiti.	France would not join a US military invasion of Haiti.	2088573	1471978484285	1471978484461	a	65
4104	43760	France would not join a US military invasion of Haiti.	France would not join a US military invasion of Haiti.	2088578	1471978484492	1471978484604	 	32
4104	43760	France would not join a US military invasion of Haiti.	France would not join a US military invasion of Haiti.	2088582	1471978484716	1471978484876	CAPS_LOCK	20
4104	43760	France would not join a US military invasion of Haiti.	France would not join a US military invasion of Haiti.	2088583	1471978485244	1471978485372	U	85
4104	43760	France would not join a US military invasion of Haiti.	France would not join a US military invasion of Haiti.	2088584	1471978485965	1471978486124	S	83
4104	43760	France would not join a US military invasion of Haiti.	France would not join a US military invasion of Haiti.	2088679	1471978486236	1471978486364	 	32
4104	43760	France would not join a US military invasion of Haiti.	France would not join a US military invasion of Haiti.	2088685	1471978486444	1471978486604	CAPS_LOCK	20
4104	43760	France would not join a US military invasion of Haiti.	France would not join a US military invasion of Haiti.	2088689	1471978486652	1471978486748	m	77
4104	43760	France would not join a US military invasion of Haiti.	France would not join a US military invasion of Haiti.	2088693	1471978486892	1471978486956	i	73
4104	43760	France would not join a US military invasion of Haiti.	France would not join a US military invasion of Haiti.	2088698	1471978487132	1471978487228	l	76
4104	43760	France would not join a US military invasion of Haiti.	France would not join a US military invasion of Haiti.	2088704	1471978487388	1471978487500	i	73
4104	43760	France would not join a US military invasion of Haiti.	France would not join a US military invasion of Haiti.	2088862	1471978487804	1471978487964	t	84
4104	43760	France would not join a US military invasion of Haiti.	France would not join a US military invasion of Haiti.	2088867	1471978488364	1471978488524	a	65
4104	43760	France would not join a US military invasion of Haiti.	France would not join a US military invasion of Haiti.	2088871	1471978489292	1471978489452	r	82
4104	43760	France would not join a US military invasion of Haiti.	France would not join a US military invasion of Haiti.	2088878	1471978489500	1471978489660	y	89
4104	43760	France would not join a US military invasion of Haiti.	France would not join a US military invasion of Haiti.	2088884	1471978489676	1471978489820	 	32
4104	43760	France would not join a US military invasion of Haiti.	France would not join a US military invasion of Haiti.	2089038	1471978490204	1471978490285	i	73
4104	43760	France would not join a US military invasion of Haiti.	France would not join a US military invasion of Haiti.	2089042	1471978490444	1471978490524	n	78
4104	43760	France would not join a US military invasion of Haiti.	France would not join a US military invasion of Haiti.	2089049	1471978491036	1471978491148	v	86
4104	43760	France would not join a US military invasion of Haiti.	France would not join a US military invasion of Haiti.	2089055	1471978491276	1471978491452	a	65
4104	43760	France would not join a US military invasion of Haiti.	France would not join a US military invasion of Haiti.	2089057	1471978491500	1471978491644	s	83
4104	43760	France would not join a US military invasion of Haiti.	France would not join a US military invasion of Haiti.	2089156	1471978491724	1471978491932	i	73
4104	43760	France would not join a US military invasion of Haiti.	France would not join a US military invasion of Haiti.	2089158	1471978492012	1471978492188	o	79
4104	43760	France would not join a US military invasion of Haiti.	France would not join a US military invasion of Haiti.	2089162	1471978492348	1471978492540	n	78
4104	43760	France would not join a US military invasion of Haiti.	France would not join a US military invasion of Haiti.	2089165	1471978492572	1471978492716	 	32
4104	43760	France would not join a US military invasion of Haiti.	France would not join a US military invasion of Haiti.	2089170	1471978492908	1471978493084	o	79
4104	43760	France would not join a US military invasion of Haiti.	France would not join a US military invasion of Haiti.	2089417	1471978493052	1471978493148	f	70
4104	43760	France would not join a US military invasion of Haiti.	France would not join a US military invasion of Haiti.	2089419	1471978493116	1471978493276	 	32
4104	43760	France would not join a US military invasion of Haiti.	France would not join a US military invasion of Haiti.	2089424	1471978493468	1471978493644	CAPS_LOCK	20
4104	43760	France would not join a US military invasion of Haiti.	France would not join a US military invasion of Haiti.	2089429	1471978493676	1471978493788	H	72
4104	43760	France would not join a US military invasion of Haiti.	France would not join a US military invasion of Haiti.	2089436	1471978493964	1471978494124	CAPS_LOCK	20
4104	43760	France would not join a US military invasion of Haiti.	France would not join a US military invasion of Haiti.	2089444	1471978494972	1471978495116	a	65
4104	43760	France would not join a US military invasion of Haiti.	France would not join a US military invasion of Haiti.	2089454	1471978496012	1471978496108	i	73
4104	43760	France would not join a US military invasion of Haiti.	France would not join a US military invasion of Haiti.	2089462	1471978496108	1471978496220	t	84
4104	43760	France would not join a US military invasion of Haiti.	France would not join a US military invasion of Haiti.	2089580	1471978496223	1471978496284	i	73
4104	43760	France would not join a US military invasion of Haiti.	France would not join a US military invasion of Haiti.	2089582	1471978497740	1471978497820	.	190
4104	43816	November 14 works for me.	November 14 works for me.	2089894	1471978500061	1471978500205	CAPS_LOCK	20
4104	43816	November 14 works for me.	November 14 works for me.	2089898	1471978500397	1471978500509	N	78
4104	43816	November 14 works for me.	November 14 works for me.	2089903	1471978500588	1471978500797	CAPS_LOCK	20
4104	43816	November 14 works for me.	November 14 works for me.	2089911	1471978501101	1471978501228	o	79
4104	43816	November 14 works for me.	November 14 works for me.	2089913	1471978501276	1471978501373	v	86
4104	43816	November 14 works for me.	November 14 works for me.	2089916	1471978501549	1471978501677	e	69
4104	43816	November 14 works for me.	November 14 works for me.	2089919	1471978501708	1471978501788	m	77
4104	43816	November 14 works for me.	November 14 works for me.	2090077	1471978501981	1471978502060	b	66
4104	43816	November 14 works for me.	November 14 works for me.	2090079	1471978502172	1471978502349	e	69
4104	43816	November 14 works for me.	November 14 works for me.	2090084	1471978502349	1471978502508	r	82
4104	43816	November 14 works for me.	November 14 works for me.	2090088	1471978504092	1471978504204	 	32
4104	43816	November 14 works for me.	November 14 works for me.	2090095	1471978504604	1471978504732	1	49
4104	43816	November 14 works for me.	November 14 works for me.	2090295	1471978504940	1471978505052	4	52
4104	43816	November 14 works for me.	November 14 works for me.	2090297	1471978505452	1471978505548	 	32
4104	43816	November 14 works for me.	November 14 works for me.	2090299	1471978506348	1471978506508	w	87
4104	43816	November 14 works for me.	November 14 works for me.	2090303	1471978507276	1471978507340	o	79
4104	43816	November 14 works for me.	November 14 works for me.	2090308	1471978507580	1471978507724	r	82
4104	43816	November 14 works for me.	November 14 works for me.	2090395	1471978507932	1471978508044	k	75
4104	43816	November 14 works for me.	November 14 works for me.	2090401	1471978508236	1471978508380	s	83
4104	43816	November 14 works for me.	November 14 works for me.	2090409	1471978508476	1471978508588	 	32
4104	43816	November 14 works for me.	November 14 works for me.	2090417	1471978508844	1471978508988	f	70
4104	43816	November 14 works for me.	November 14 works for me.	2090426	1471978509164	1471978509292	o	79
4104	43816	November 14 works for me.	November 14 works for me.	2090590	1471978509436	1471978509564	r	82
4104	43816	November 14 works for me.	November 14 works for me.	2090596	1471978509724	1471978509836	 	32
4104	43816	November 14 works for me.	November 14 works for me.	2090602	1471978509980	1471978510124	m	77
4104	43816	November 14 works for me.	November 14 works for me.	2090608	1471978510204	1471978510332	e	69
4104	43816	November 14 works for me.	November 14 works for me.	2090619	1471978511564	1471978511644	.	190
