PARTICIPANT_ID	TEST_SECTION_ID	SENTENCE	USER_INPUT	KEYSTROKE_ID	PRESS_TIME	RELEASE_TIME	LETTER	KEYCODE
4200	44612	Take what you can get.	Take what you can get.	2127017	1471979137043	1471979137273	SHIFT	16
4200	44612	Take what you can get.	Take what you can get.	2127020	1471979137118	1471979137452	T	84
4200	44612	Take what you can get.	Take what you can get.	2127024	1471979137453	1471979137528	a	65
4200	44612	Take what you can get.	Take what you can get.	2127030	1471979137519	1471979137566	k	75
4200	44612	Take what you can get.	Take what you can get.	2127038	1471979137601	1471979137713	e	69
4200	44612	Take what you can get.	Take what you can get.	2127044	1471979138074	1471979139809	 	32
4200	44612	Take what you can get.	Take what you can get.	2127025	1471979139502	1471979139811	w	87
4200	44612	Take what you can get.	Take what you can get.	2127029	1471979139812	1471979139819	h	72
4200	44612	Take what you can get.	Take what you can get.	2127036	1471979139821	1471979139827	a	65
4200	44612	Take what you can get.	Take what you can get.	2127042	1471979139831	1471979139853	t	84
4200	44612	Take what you can get.	Take what you can get.	2127047	1471979139855	1471979139867	 	32
4200	44612	Take what you can get.	Take what you can get.	2127051	1471979139882	1471979139940	y	89
4200	44612	Take what you can get.	Take what you can get.	2127121	1471979140053	1471979140210	o	79
4200	44612	Take what you can get.	Take what you can get.	2127124	1471979140144	1471979140256	u	85
4200	44612	Take what you can get.	Take what you can get.	2127126	1471979140820	1471979140838	 	32
4200	44612	Take what you can get.	Take what you can get.	2127128	1471979140840	1471979140954	c	67
4200	44612	Take what you can get.	Take what you can get.	2127130	1471979140965	1471979141099	a	65
4200	44612	Take what you can get.	Take what you can get.	2127158	1471979141133	1471979141245	n	78
4200	44612	Take what you can get.	Take what you can get.	2127162	1471979141336	1471979141459	 	32
4200	44612	Take what you can get.	Take what you can get.	2127166	1471979141494	1471979141594	g	71
4200	44612	Take what you can get.	Take what you can get.	2127170	1471979141662	1471979141763	e	69
4200	44612	Take what you can get.	Take what you can get.	2127175	1471979141865	1471979141965	t	84
4200	44612	Take what you can get.	Take what you can get.	2127210	1471979142371	1471979142400	.	190
4200	44623	We sold the UK business to AEP.	We sold the UK business to AEP.	2127345	1471979144598	1471979144800	SHIFT	16
4200	44623	We sold the UK business to AEP.	We sold the UK business to AEP.	2127342	1471979144688	1471979144789	W	87
4200	44623	We sold the UK business to AEP.	We sold the UK business to AEP.	2127349	1471979144880	1471979144980	e	69
4200	44623	We sold the UK business to AEP.	We sold the UK business to AEP.	2127353	1471979145126	1471979145261	 	32
4200	44623	We sold the UK business to AEP.	We sold the UK business to AEP.	2127356	1471979145273	1471979145403	s	83
4200	44623	We sold the UK business to AEP.	We sold the UK business to AEP.	2127361	1471979145403	1471979145441	o	79
4200	44623	We sold the UK business to AEP.	We sold the UK business to AEP.	2127387	1471979145543	1471979145667	l	76
4200	44623	We sold the UK business to AEP.	We sold the UK business to AEP.	2127389	1471979145644	1471979145745	d	68
4200	44623	We sold the UK business to AEP.	We sold the UK business to AEP.	2127391	1471979145915	1471979146038	 	32
4200	44623	We sold the UK business to AEP.	We sold the UK business to AEP.	2127393	1471979146071	1471979146184	t	84
4200	44623	We sold the UK business to AEP.	We sold the UK business to AEP.	2127453	1471979146151	1471979146229	h	72
4200	44623	We sold the UK business to AEP.	We sold the UK business to AEP.	2127456	1471979146285	1471979146398	e	69
4200	44623	We sold the UK business to AEP.	We sold the UK business to AEP.	2127461	1471979146354	1471979146488	 	32
4200	44623	We sold the UK business to AEP.	We sold the UK business to AEP.	2127471	1471979146645	1471979146927	SHIFT	16
4200	44623	We sold the UK business to AEP.	We sold the UK business to AEP.	2127465	1471979146791	1471979146882	U	85
4200	44623	We sold the UK business to AEP.	We sold the UK business to AEP.	2127485	1471979147331	1471979147658	SHIFT	16
4200	44623	We sold the UK business to AEP.	We sold the UK business to AEP.	2127479	1471979147445	1471979147556	K	75
4200	44623	We sold the UK business to AEP.	We sold the UK business to AEP.	2127488	1471979147704	1471979147849	 	32
4200	44623	We sold the UK business to AEP.	We sold the UK business to AEP.	2127534	1471979147928	1471979148018	b	66
4200	44623	We sold the UK business to AEP.	We sold the UK business to AEP.	2127535	1471979148310	1471979148377	u	85
4200	44623	We sold the UK business to AEP.	We sold the UK business to AEP.	2127537	1471979148682	1471979148760	s	83
4200	44623	We sold the UK business to AEP.	We sold the UK business to AEP.	2127538	1471979148929	1471979149075	i	73
4200	44623	We sold the UK business to AEP.	We sold the UK business to AEP.	2127583	1471979149019	1471979149154	n	78
4200	44623	We sold the UK business to AEP.	We sold the UK business to AEP.	2127586	1471979149188	1471979149300	e	69
4200	44623	We sold the UK business to AEP.	We sold the UK business to AEP.	2127590	1471979149436	1471979149492	s	83
4200	44623	We sold the UK business to AEP.	We sold the UK business to AEP.	2127592	1471979149593	1471979149649	s	83
4200	44623	We sold the UK business to AEP.	We sold the UK business to AEP.	2127595	1471979149705	1471979149829	 	32
4200	44623	We sold the UK business to AEP.	We sold the UK business to AEP.	2127598	1471979149908	1471979149975	t	84
4200	44623	We sold the UK business to AEP.	We sold the UK business to AEP.	2127685	1471979150054	1471979150133	o	79
4200	44623	We sold the UK business to AEP.	We sold the UK business to AEP.	2127686	1471979150459	1471979150572	 	32
4200	44623	We sold the UK business to AEP.	We sold the UK business to AEP.	2127694	1471979150774	1471979151539	SHIFT	16
4200	44623	We sold the UK business to AEP.	We sold the UK business to AEP.	2127688	1471979150909	1471979151021	A	65
4200	44623	We sold the UK business to AEP.	We sold the UK business to AEP.	2127690	1471979151145	1471979151247	E	69
4200	44623	We sold the UK business to AEP.	We sold the UK business to AEP.	2127775	1471979151809	1471979152552	SHIFT	16
4200	44623	We sold the UK business to AEP.	We sold the UK business to AEP.	2127697	1471979151956	1471979152068	P	80
4200	44623	We sold the UK business to AEP.	We sold the UK business to AEP.	2127777	1471979153014	1471979153137	.	190
4200	44636	The filing concerns various scheduling and balancing rules.	The filing concerns various scheduling and balancing rules.	2127914	1471979154937	1471979155083	SHIFT	16
4200	44636	The filing concerns various scheduling and balancing rules.	The filing concerns various scheduling and balancing rules.	2127918	1471979155027	1471979155117	T	84
4200	44636	The filing concerns various scheduling and balancing rules.	The filing concerns various scheduling and balancing rules.	2127923	1471979155128	1471979155195	h	72
4200	44636	The filing concerns various scheduling and balancing rules.	The filing concerns various scheduling and balancing rules.	2127929	1471979155252	1471979155364	e	69
4200	44636	The filing concerns various scheduling and balancing rules.	The filing concerns various scheduling and balancing rules.	2127935	1471979155398	1471979155527	 	32
4200	44636	The filing concerns various scheduling and balancing rules.	The filing concerns various scheduling and balancing rules.	2127939	1471979155612	1471979155689	f	70
4200	44636	The filing concerns various scheduling and balancing rules.	The filing concerns various scheduling and balancing rules.	2128008	1471979155679	1471979155747	i	73
4200	44636	The filing concerns various scheduling and balancing rules.	The filing concerns various scheduling and balancing rules.	2128009	1471979155859	1471979155915	l	76
4200	44636	The filing concerns various scheduling and balancing rules.	The filing concerns various scheduling and balancing rules.	2128012	1471979155983	1471979156050	l	76
4200	44636	The filing concerns various scheduling and balancing rules.	The filing concerns various scheduling and balancing rules.	2128018	1471979156523	1471979156589	BKSP	8
4200	44636	The filing concerns various scheduling and balancing rules.	The filing concerns various scheduling and balancing rules.	2128023	1471979156827	1471979156939	i	73
4200	44636	The filing concerns various scheduling and balancing rules.	The filing concerns various scheduling and balancing rules.	2128028	1471979156895	1471979157028	n	78
4200	44636	The filing concerns various scheduling and balancing rules.	The filing concerns various scheduling and balancing rules.	2128033	1471979157085	1471979157174	g	71
4200	44636	The filing concerns various scheduling and balancing rules.	The filing concerns various scheduling and balancing rules.	2128083	1471979157254	1471979157366	 	32
4200	44636	The filing concerns various scheduling and balancing rules.	The filing concerns various scheduling and balancing rules.	2128086	1471979157558	1471979157671	c	67
4200	44636	The filing concerns various scheduling and balancing rules.	The filing concerns various scheduling and balancing rules.	2128090	1471979157637	1471979157772	o	79
4200	44636	The filing concerns various scheduling and balancing rules.	The filing concerns various scheduling and balancing rules.	2128093	1471979157738	1471979157828	n	78
4200	44636	The filing concerns various scheduling and balancing rules.	The filing concerns various scheduling and balancing rules.	2128095	1471979157952	1471979158075	c	67
4200	44636	The filing concerns various scheduling and balancing rules.	The filing concerns various scheduling and balancing rules.	2128146	1471979158154	1471979158322	e	69
4200	44636	The filing concerns various scheduling and balancing rules.	The filing concerns various scheduling and balancing rules.	2128149	1471979158244	1471979158345	r	82
4200	44636	The filing concerns various scheduling and balancing rules.	The filing concerns various scheduling and balancing rules.	2128154	1471979158549	1471979158661	n	78
4200	44636	The filing concerns various scheduling and balancing rules.	The filing concerns various scheduling and balancing rules.	2128159	1471979158694	1471979158784	s	83
4200	44636	The filing concerns various scheduling and balancing rules.	The filing concerns various scheduling and balancing rules.	2128163	1471979159189	1471979159313	 	32
4200	44636	The filing concerns various scheduling and balancing rules.	The filing concerns various scheduling and balancing rules.	2128230	1471979159549	1471979159662	v	86
4200	44636	The filing concerns various scheduling and balancing rules.	The filing concerns various scheduling and balancing rules.	2128233	1471979159718	1471979159842	a	65
4200	44636	The filing concerns various scheduling and balancing rules.	The filing concerns various scheduling and balancing rules.	2128238	1471979160078	1471979160213	r	82
4200	44636	The filing concerns various scheduling and balancing rules.	The filing concerns various scheduling and balancing rules.	2128242	1471979160550	1471979160583	i	73
4200	44636	The filing concerns various scheduling and balancing rules.	The filing concerns various scheduling and balancing rules.	2128245	1471979160686	1471979160855	o	79
4200	44636	The filing concerns various scheduling and balancing rules.	The filing concerns various scheduling and balancing rules.	2128274	1471979160843	1471979160911	u	85
4200	44636	The filing concerns various scheduling and balancing rules.	The filing concerns various scheduling and balancing rules.	2128275	1471979160989	1471979161091	s	83
4200	44636	The filing concerns various scheduling and balancing rules.	The filing concerns various scheduling and balancing rules.	2128276	1471979161181	1471979161303	 	32
4200	44636	The filing concerns various scheduling and balancing rules.	The filing concerns various scheduling and balancing rules.	2128277	1471979161338	1471979161496	s	83
4200	44636	The filing concerns various scheduling and balancing rules.	The filing concerns various scheduling and balancing rules.	2128279	1471979161552	1471979161653	c	67
4200	44636	The filing concerns various scheduling and balancing rules.	The filing concerns various scheduling and balancing rules.	2128341	1471979161608	1471979161687	h	72
4200	44636	The filing concerns various scheduling and balancing rules.	The filing concerns various scheduling and balancing rules.	2128345	1471979161856	1471979161947	e	69
4200	44636	The filing concerns various scheduling and balancing rules.	The filing concerns various scheduling and balancing rules.	2128350	1471979162047	1471979162148	d	68
4200	44636	The filing concerns various scheduling and balancing rules.	The filing concerns various scheduling and balancing rules.	2128353	1471979162250	1471979162339	u	85
4200	44636	The filing concerns various scheduling and balancing rules.	The filing concerns various scheduling and balancing rules.	2128356	1471979162474	1471979162553	l	76
4200	44636	The filing concerns various scheduling and balancing rules.	The filing concerns various scheduling and balancing rules.	2128359	1471979162643	1471979162790	i	73
4200	44636	The filing concerns various scheduling and balancing rules.	The filing concerns various scheduling and balancing rules.	2128398	1471979162733	1471979162857	n	78
4200	44636	The filing concerns various scheduling and balancing rules.	The filing concerns various scheduling and balancing rules.	2128400	1471979162834	1471979162958	g	71
4200	44636	The filing concerns various scheduling and balancing rules.	The filing concerns various scheduling and balancing rules.	2128405	1471979163082	1471979163218	 	32
4200	44636	The filing concerns various scheduling and balancing rules.	The filing concerns various scheduling and balancing rules.	2128408	1471979163262	1471979163374	a	65
4200	44636	The filing concerns various scheduling and balancing rules.	The filing concerns various scheduling and balancing rules.	2128412	1471979163307	1471979163431	n	78
4200	44636	The filing concerns various scheduling and balancing rules.	The filing concerns various scheduling and balancing rules.	2128417	1471979163464	1471979163566	d	68
4200	44636	The filing concerns various scheduling and balancing rules.	The filing concerns various scheduling and balancing rules.	2128513	1471979163498	1471979163611	 	32
4200	44636	The filing concerns various scheduling and balancing rules.	The filing concerns various scheduling and balancing rules.	2128517	1471979164274	1471979164364	b	66
4200	44636	The filing concerns various scheduling and balancing rules.	The filing concerns various scheduling and balancing rules.	2128519	1471979164443	1471979164533	a	65
4200	44636	The filing concerns various scheduling and balancing rules.	The filing concerns various scheduling and balancing rules.	2128523	1471979164567	1471979164668	l	76
4200	44636	The filing concerns various scheduling and balancing rules.	The filing concerns various scheduling and balancing rules.	2128525	1471979165062	1471979165173	a	65
4200	44636	The filing concerns various scheduling and balancing rules.	The filing concerns various scheduling and balancing rules.	2128527	1471979165208	1471979165286	n	78
4200	44636	The filing concerns various scheduling and balancing rules.	The filing concerns various scheduling and balancing rules.	2128567	1471979165355	1471979165488	c	67
4200	44636	The filing concerns various scheduling and balancing rules.	The filing concerns various scheduling and balancing rules.	2128570	1471979165669	1471979165816	i	73
4200	44636	The filing concerns various scheduling and balancing rules.	The filing concerns various scheduling and balancing rules.	2128576	1471979165737	1471979165868	n	78
4200	44636	The filing concerns various scheduling and balancing rules.	The filing concerns various scheduling and balancing rules.	2128580	1471979165861	1471979165951	g	71
4200	44636	The filing concerns various scheduling and balancing rules.	The filing concerns various scheduling and balancing rules.	2128583	1471979166097	1471979166209	 	32
4200	44636	The filing concerns various scheduling and balancing rules.	The filing concerns various scheduling and balancing rules.	2128626	1471979166277	1471979166366	r	82
4200	44636	The filing concerns various scheduling and balancing rules.	The filing concerns various scheduling and balancing rules.	2128627	1471979166423	1471979166491	u	85
4200	44636	The filing concerns various scheduling and balancing rules.	The filing concerns various scheduling and balancing rules.	2128628	1471979166648	1471979166760	l	76
4200	44636	The filing concerns various scheduling and balancing rules.	The filing concerns various scheduling and balancing rules.	2128629	1471979166740	1471979166839	e	69
4200	44636	The filing concerns various scheduling and balancing rules.	The filing concerns various scheduling and balancing rules.	2128630	1471979166952	1471979167053	s	83
4200	44636	The filing concerns various scheduling and balancing rules.	The filing concerns various scheduling and balancing rules.	2128668	1471979167268	1471979167379	.	190
4200	44651	I know my way around the hospital better than I do the stadium.	I know my way around the hospital better than I do the stadium.	2128795	1471979169078	1471979169258	SHIFT	16
4200	44651	I know my way around the hospital better than I do the stadium.	I know my way around the hospital better than I do the stadium.	2128799	1471979169146	1471979169270	I	73
4200	44651	I know my way around the hospital better than I do the stadium.	I know my way around the hospital better than I do the stadium.	2128803	1471979169337	1471979169405	 	32
4200	44651	I know my way around the hospital better than I do the stadium.	I know my way around the hospital better than I do the stadium.	2128805	1471979169450	1471979169551	k	75
4200	44651	I know my way around the hospital better than I do the stadium.	I know my way around the hospital better than I do the stadium.	2128806	1471979169618	1471979169741	n	78
4200	44651	I know my way around the hospital better than I do the stadium.	I know my way around the hospital better than I do the stadium.	2128846	1471979169708	1471979169797	o	79
4200	44651	I know my way around the hospital better than I do the stadium.	I know my way around the hospital better than I do the stadium.	2128850	1471979169866	1471979169978	w	87
4200	44651	I know my way around the hospital better than I do the stadium.	I know my way around the hospital better than I do the stadium.	2128855	1471979170057	1471979170615	 	32
4200	44651	I know my way around the hospital better than I do the stadium.	I know my way around the hospital better than I do the stadium.	2128862	1471979170642	1471979170743	m	77
4200	44651	I know my way around the hospital better than I do the stadium.	I know my way around the hospital better than I do the stadium.	2128868	1471979170890	1471979170968	y	89
4200	44651	I know my way around the hospital better than I do the stadium.	I know my way around the hospital better than I do the stadium.	2128873	1471979171137	1471979171261	 	32
4200	44651	I know my way around the hospital better than I do the stadium.	I know my way around the hospital better than I do the stadium.	2128909	1471979171362	1471979171452	w	87
4200	44651	I know my way around the hospital better than I do the stadium.	I know my way around the hospital better than I do the stadium.	2128910	1471979171542	1471979171666	a	65
4200	44651	I know my way around the hospital better than I do the stadium.	I know my way around the hospital better than I do the stadium.	2128911	1471979171767	1471979171846	y	89
4200	44651	I know my way around the hospital better than I do the stadium.	I know my way around the hospital better than I do the stadium.	2128912	1471979171958	1471979172071	 	32
4200	44651	I know my way around the hospital better than I do the stadium.	I know my way around the hospital better than I do the stadium.	2128955	1471979172060	1471979172183	a	65
4200	44651	I know my way around the hospital better than I do the stadium.	I know my way around the hospital better than I do the stadium.	2128956	1471979172240	1471979172341	r	82
4200	44651	I know my way around the hospital better than I do the stadium.	I know my way around the hospital better than I do the stadium.	2128959	1471979172442	1471979172577	o	79
4200	44651	I know my way around the hospital better than I do the stadium.	I know my way around the hospital better than I do the stadium.	2128962	1471979172521	1471979172600	u	85
4200	44651	I know my way around the hospital better than I do the stadium.	I know my way around the hospital better than I do the stadium.	2128965	1471979172712	1471979172835	n	78
4200	44651	I know my way around the hospital better than I do the stadium.	I know my way around the hospital better than I do the stadium.	2128986	1471979172813	1471979172948	d	68
4200	44651	I know my way around the hospital better than I do the stadium.	I know my way around the hospital better than I do the stadium.	2128989	1471979172960	1471979173095	 	32
4200	44651	I know my way around the hospital better than I do the stadium.	I know my way around the hospital better than I do the stadium.	2128994	1471979173117	1471979173217	t	84
4200	44651	I know my way around the hospital better than I do the stadium.	I know my way around the hospital better than I do the stadium.	2128996	1471979173196	1471979173275	h	72
4200	44651	I know my way around the hospital better than I do the stadium.	I know my way around the hospital better than I do the stadium.	2128997	1471979173297	1471979173424	e	69
4200	44651	I know my way around the hospital better than I do the stadium.	I know my way around the hospital better than I do the stadium.	2129097	1471979173410	1471979173533	 	32
4200	44651	I know my way around the hospital better than I do the stadium.	I know my way around the hospital better than I do the stadium.	2129100	1471979173713	1471979173815	h	72
4200	44651	I know my way around the hospital better than I do the stadium.	I know my way around the hospital better than I do the stadium.	2129101	1471979174085	1471979174174	o	79
4200	44651	I know my way around the hospital better than I do the stadium.	I know my way around the hospital better than I do the stadium.	2129102	1471979174276	1471979174377	s	83
4200	44651	I know my way around the hospital better than I do the stadium.	I know my way around the hospital better than I do the stadium.	2129103	1471979174467	1471979174568	p	80
4200	44651	I know my way around the hospital better than I do the stadium.	I know my way around the hospital better than I do the stadium.	2129104	1471979174782	1471979174883	i	73
4200	44651	I know my way around the hospital better than I do the stadium.	I know my way around the hospital better than I do the stadium.	2129148	1471979174940	1471979175041	t	84
4200	44651	I know my way around the hospital better than I do the stadium.	I know my way around the hospital better than I do the stadium.	2129150	1471979175142	1471979175255	a	65
4200	44651	I know my way around the hospital better than I do the stadium.	I know my way around the hospital better than I do the stadium.	2129152	1471979175277	1471979175378	l	76
4200	44651	I know my way around the hospital better than I do the stadium.	I know my way around the hospital better than I do the stadium.	2129154	1471979175502	1471979175637	 	32
4200	44651	I know my way around the hospital better than I do the stadium.	I know my way around the hospital better than I do the stadium.	2129158	1471979175693	1471979175783	b	66
4200	44651	I know my way around the hospital better than I do the stadium.	I know my way around the hospital better than I do the stadium.	2129179	1471979175896	1471979176007	e	69
4200	44651	I know my way around the hospital better than I do the stadium.	I know my way around the hospital better than I do the stadium.	2129181	1471979176087	1471979176166	t	84
4200	44651	I know my way around the hospital better than I do the stadium.	I know my way around the hospital better than I do the stadium.	2129183	1471979176233	1471979176312	t	84
4200	44651	I know my way around the hospital better than I do the stadium.	I know my way around the hospital better than I do the stadium.	2129187	1471979176391	1471979176526	e	69
4200	44651	I know my way around the hospital better than I do the stadium.	I know my way around the hospital better than I do the stadium.	2129237	1471979176458	1471979176560	r	82
4200	44651	I know my way around the hospital better than I do the stadium.	I know my way around the hospital better than I do the stadium.	2129240	1471979177032	1471979177167	 	32
4200	44651	I know my way around the hospital better than I do the stadium.	I know my way around the hospital better than I do the stadium.	2129245	1471979177257	1471979177352	t	84
4200	44651	I know my way around the hospital better than I do the stadium.	I know my way around the hospital better than I do the stadium.	2129250	1471979177325	1471979177381	h	72
4200	44651	I know my way around the hospital better than I do the stadium.	I know my way around the hospital better than I do the stadium.	2129255	1471979177437	1471979177561	a	65
4200	44651	I know my way around the hospital better than I do the stadium.	I know my way around the hospital better than I do the stadium.	2129260	1471979177583	1471979177662	n	78
4200	44651	I know my way around the hospital better than I do the stadium.	I know my way around the hospital better than I do the stadium.	2129341	1471979178057	1471979178191	 	32
4200	44651	I know my way around the hospital better than I do the stadium.	I know my way around the hospital better than I do the stadium.	2129352	1471979178528	1471979178741	SHIFT	16
4200	44651	I know my way around the hospital better than I do the stadium.	I know my way around the hospital better than I do the stadium.	2129346	1471979178641	1471979178731	I	73
4200	44651	I know my way around the hospital better than I do the stadium.	I know my way around the hospital better than I do the stadium.	2129358	1471979178810	1471979178956	 	32
4200	44651	I know my way around the hospital better than I do the stadium.	I know my way around the hospital better than I do the stadium.	2129365	1471979178911	1471979179035	d	68
4200	44651	I know my way around the hospital better than I do the stadium.	I know my way around the hospital better than I do the stadium.	2129371	1471979179080	1471979179191	o	79
4200	44651	I know my way around the hospital better than I do the stadium.	I know my way around the hospital better than I do the stadium.	2129400	1471979179316	1471979179429	 	32
4200	44651	I know my way around the hospital better than I do the stadium.	I know my way around the hospital better than I do the stadium.	2129404	1471979179496	1471979179619	t	84
4200	44651	I know my way around the hospital better than I do the stadium.	I know my way around the hospital better than I do the stadium.	2129407	1471979179609	1471979179698	h	72
4200	44651	I know my way around the hospital better than I do the stadium.	I know my way around the hospital better than I do the stadium.	2129414	1471979179732	1471979179866	e	69
4200	44651	I know my way around the hospital better than I do the stadium.	I know my way around the hospital better than I do the stadium.	2129498	1471979179834	1471979179935	 	32
4200	44651	I know my way around the hospital better than I do the stadium.	I know my way around the hospital better than I do the stadium.	2129499	1471979180271	1471979180373	s	83
4200	44651	I know my way around the hospital better than I do the stadium.	I know my way around the hospital better than I do the stadium.	2129501	1471979180542	1471979180643	t	84
4200	44651	I know my way around the hospital better than I do the stadium.	I know my way around the hospital better than I do the stadium.	2129504	1471979180744	1471979180868	a	65
4200	44651	I know my way around the hospital better than I do the stadium.	I know my way around the hospital better than I do the stadium.	2129507	1471979180936	1471979181048	d	68
4200	44651	I know my way around the hospital better than I do the stadium.	I know my way around the hospital better than I do the stadium.	2129510	1471979181296	1471979181396	i	73
4200	44651	I know my way around the hospital better than I do the stadium.	I know my way around the hospital better than I do the stadium.	2129579	1471979181532	1471979181600	u	85
4200	44651	I know my way around the hospital better than I do the stadium.	I know my way around the hospital better than I do the stadium.	2129582	1471979181847	1471979181960	m	77
4200	44651	I know my way around the hospital better than I do the stadium.	I know my way around the hospital better than I do the stadium.	2129584	1471979182365	1471979182500	.	190
4200	44670	I think that will help.	I think that will help.	2129775	1471979185650	1471979185841	SHIFT	16
4200	44670	I think that will help.	I think that will help.	2129771	1471979185717	1471979185819	I	73
4200	44670	I think that will help.	I think that will help.	2129776	1471979185886	1471979186009	 	32
4200	44670	I think that will help.	I think that will help.	2129779	1471979186032	1471979186134	t	84
4200	44670	I think that will help.	I think that will help.	2129783	1471979186066	1471979186155	h	72
4200	44670	I think that will help.	I think that will help.	2129788	1471979186212	1471979186336	i	73
4200	44670	I think that will help.	I think that will help.	2129835	1471979186302	1471979186415	n	78
4200	44670	I think that will help.	I think that will help.	2129839	1471979186674	1471979186774	k	75
4200	44670	I think that will help.	I think that will help.	2129843	1471979186876	1471979187067	 	32
4200	44670	I think that will help.	I think that will help.	2129846	1471979187068	1471979187169	t	84
4200	44670	I think that will help.	I think that will help.	2129849	1471979187124	1471979187201	h	72
4200	44670	I think that will help.	I think that will help.	2129852	1471979187247	1471979187382	a	65
4200	44670	I think that will help.	I think that will help.	2129884	1471979187439	1471979187540	t	84
4200	44670	I think that will help.	I think that will help.	2129890	1471979187551	1471979187675	 	32
4200	44670	I think that will help.	I think that will help.	2129897	1471979187720	1471979187843	w	87
4200	44670	I think that will help.	I think that will help.	2129901	1471979187854	1471979187899	i	73
4200	44670	I think that will help.	I think that will help.	2129906	1471979188023	1471979188079	l	76
4200	44670	I think that will help.	I think that will help.	2129951	1471979188136	1471979188237	l	76
4200	44670	I think that will help.	I think that will help.	2129953	1471979188271	1471979188383	 	32
4200	44670	I think that will help.	I think that will help.	2129956	1471979188439	1471979188552	h	72
4200	44670	I think that will help.	I think that will help.	2129959	1471979188609	1471979188709	e	69
4200	44670	I think that will help.	I think that will help.	2129964	1471979188754	1471979188956	l	76
4200	44670	I think that will help.	I think that will help.	2130128	1471979188945	1471979189058	p	80
4200	44670	I think that will help.	I think that will help.	2130132	1471979189430	1471979189564	.	190
4200	44670	I think that will help.	I think that will help.	2130136	1471979189677	1471979189801	'	222
4200	44670	I think that will help.	I think that will help.	2130139	1471979190644	1471979190757	BKSP	8
4200	44680	Add a Star Trek convention and sports memorabilia show to the mix.	Add a Star Trek convention and sports memorabilia show to the mix	2130284	1471979193435	1471979193851	SHIFT	16
4200	44680	Add a Star Trek convention and sports memorabilia show to the mix.	Add a Star Trek convention and sports memorabilia show to the mix	2130279	1471979193705	1471979193805	A	65
4200	44680	Add a Star Trek convention and sports memorabilia show to the mix.	Add a Star Trek convention and sports memorabilia show to the mix	2130286	1471979193985	1471979194053	d	68
4200	44680	Add a Star Trek convention and sports memorabilia show to the mix.	Add a Star Trek convention and sports memorabilia show to the mix	2130291	1471979194155	1471979194244	d	68
4200	44680	Add a Star Trek convention and sports memorabilia show to the mix.	Add a Star Trek convention and sports memorabilia show to the mix	2130296	1471979194324	1471979194447	 	32
4200	44680	Add a Star Trek convention and sports memorabilia show to the mix.	Add a Star Trek convention and sports memorabilia show to the mix	2130302	1471979194469	1471979194582	a	65
4200	44680	Add a Star Trek convention and sports memorabilia show to the mix.	Add a Star Trek convention and sports memorabilia show to the mix	2130369	1471979194627	1471979194750	 	32
4200	44680	Add a Star Trek convention and sports memorabilia show to the mix.	Add a Star Trek convention and sports memorabilia show to the mix	2130372	1471979194774	1471979194885	s	83
4200	44680	Add a Star Trek convention and sports memorabilia show to the mix.	Add a Star Trek convention and sports memorabilia show to the mix	2130375	1471979195189	1471979195269	BKSP	8
4200	44680	Add a Star Trek convention and sports memorabilia show to the mix.	Add a Star Trek convention and sports memorabilia show to the mix	2130383	1471979195538	1471979195752	SHIFT	16
4200	44680	Add a Star Trek convention and sports memorabilia show to the mix.	Add a Star Trek convention and sports memorabilia show to the mix	2130379	1471979195595	1471979195718	S	83
4200	44680	Add a Star Trek convention and sports memorabilia show to the mix.	Add a Star Trek convention and sports memorabilia show to the mix	2130387	1471979196045	1471979196168	t	84
4200	44680	Add a Star Trek convention and sports memorabilia show to the mix.	Add a Star Trek convention and sports memorabilia show to the mix	2130391	1471979196293	1471979196415	a	65
4200	44680	Add a Star Trek convention and sports memorabilia show to the mix.	Add a Star Trek convention and sports memorabilia show to the mix	2130415	1471979196506	1471979196607	r	82
4200	44680	Add a Star Trek convention and sports memorabilia show to the mix.	Add a Star Trek convention and sports memorabilia show to the mix	2130419	1471979196720	1471979196832	 	32
4200	44680	Add a Star Trek convention and sports memorabilia show to the mix.	Add a Star Trek convention and sports memorabilia show to the mix	2130430	1471979196945	1471979197124	SHIFT	16
4200	44680	Add a Star Trek convention and sports memorabilia show to the mix.	Add a Star Trek convention and sports memorabilia show to the mix	2130424	1471979197023	1471979197113	T	84
4200	44680	Add a Star Trek convention and sports memorabilia show to the mix.	Add a Star Trek convention and sports memorabilia show to the mix	2130434	1471979197226	1471979197372	r	82
4200	44680	Add a Star Trek convention and sports memorabilia show to the mix.	Add a Star Trek convention and sports memorabilia show to the mix	2130479	1471979197328	1471979197451	e	69
4200	44680	Add a Star Trek convention and sports memorabilia show to the mix.	Add a Star Trek convention and sports memorabilia show to the mix	2130483	1471979197575	1471979197675	k	75
4200	44680	Add a Star Trek convention and sports memorabilia show to the mix.	Add a Star Trek convention and sports memorabilia show to the mix	2130486	1471979197834	1471979197958	 	32
4200	44680	Add a Star Trek convention and sports memorabilia show to the mix.	Add a Star Trek convention and sports memorabilia show to the mix	2130489	1471979198249	1471979198362	c	67
4200	44680	Add a Star Trek convention and sports memorabilia show to the mix.	Add a Star Trek convention and sports memorabilia show to the mix	2130492	1471979198430	1471979198519	o	79
4200	44680	Add a Star Trek convention and sports memorabilia show to the mix.	Add a Star Trek convention and sports memorabilia show to the mix	2130497	1471979198633	1471979198723	n	78
4200	44680	Add a Star Trek convention and sports memorabilia show to the mix.	Add a Star Trek convention and sports memorabilia show to the mix	2130539	1471979198890	1471979198992	v	86
4200	44680	Add a Star Trek convention and sports memorabilia show to the mix.	Add a Star Trek convention and sports memorabilia show to the mix	2130542	1471979199329	1471979199453	e	69
4200	44680	Add a Star Trek convention and sports memorabilia show to the mix.	Add a Star Trek convention and sports memorabilia show to the mix	2130549	1471979199566	1471979199678	n	78
4200	44680	Add a Star Trek convention and sports memorabilia show to the mix.	Add a Star Trek convention and sports memorabilia show to the mix	2130552	1471979199689	1471979199790	t	84
4200	44680	Add a Star Trek convention and sports memorabilia show to the mix.	Add a Star Trek convention and sports memorabilia show to the mix	2130556	1471979199814	1471979199948	i	73
4200	44680	Add a Star Trek convention and sports memorabilia show to the mix.	Add a Star Trek convention and sports memorabilia show to the mix	2130601	1471979199904	1471979200060	o	79
4200	44680	Add a Star Trek convention and sports memorabilia show to the mix.	Add a Star Trek convention and sports memorabilia show to the mix	2130604	1471979200297	1471979200420	n	78
4200	44680	Add a Star Trek convention and sports memorabilia show to the mix.	Add a Star Trek convention and sports memorabilia show to the mix	2130607	1471979200567	1471979200694	 	32
4200	44680	Add a Star Trek convention and sports memorabilia show to the mix.	Add a Star Trek convention and sports memorabilia show to the mix	2130609	1471979200747	1471979200837	a	65
4200	44680	Add a Star Trek convention and sports memorabilia show to the mix.	Add a Star Trek convention and sports memorabilia show to the mix	2130612	1471979200804	1471979200938	n	78
4200	44680	Add a Star Trek convention and sports memorabilia show to the mix.	Add a Star Trek convention and sports memorabilia show to the mix	2130615	1471979200961	1471979201039	d	68
4200	44680	Add a Star Trek convention and sports memorabilia show to the mix.	Add a Star Trek convention and sports memorabilia show to the mix	2130663	1471979201489	1471979201613	 	32
4200	44680	Add a Star Trek convention and sports memorabilia show to the mix.	Add a Star Trek convention and sports memorabilia show to the mix	2130665	1471979201805	1471979201917	s	83
4200	44680	Add a Star Trek convention and sports memorabilia show to the mix.	Add a Star Trek convention and sports memorabilia show to the mix	2130667	1471979201907	1471979202007	p	80
4200	44680	Add a Star Trek convention and sports memorabilia show to the mix.	Add a Star Trek convention and sports memorabilia show to the mix	2130670	1471979202143	1471979202243	o	79
4200	44680	Add a Star Trek convention and sports memorabilia show to the mix.	Add a Star Trek convention and sports memorabilia show to the mix	2130675	1471979202278	1471979202389	r	82
4200	44680	Add a Star Trek convention and sports memorabilia show to the mix.	Add a Star Trek convention and sports memorabilia show to the mix	2130720	1471979202503	1471979202603	t	84
4200	44680	Add a Star Trek convention and sports memorabilia show to the mix.	Add a Star Trek convention and sports memorabilia show to the mix	2130725	1471979202750	1471979202873	s	83
4200	44680	Add a Star Trek convention and sports memorabilia show to the mix.	Add a Star Trek convention and sports memorabilia show to the mix	2130733	1471979202964	1471979203064	 	32
4200	44680	Add a Star Trek convention and sports memorabilia show to the mix.	Add a Star Trek convention and sports memorabilia show to the mix	2130741	1471979203144	1471979203289	m	77
4200	44680	Add a Star Trek convention and sports memorabilia show to the mix.	Add a Star Trek convention and sports memorabilia show to the mix	2130785	1471979203279	1471979203379	e	69
4200	44680	Add a Star Trek convention and sports memorabilia show to the mix.	Add a Star Trek convention and sports memorabilia show to the mix	2130787	1471979203470	1471979203582	m	77
4200	44680	Add a Star Trek convention and sports memorabilia show to the mix.	Add a Star Trek convention and sports memorabilia show to the mix	2130790	1471979203695	1471979203807	o	79
4200	44680	Add a Star Trek convention and sports memorabilia show to the mix.	Add a Star Trek convention and sports memorabilia show to the mix	2130793	1471979203819	1471979203919	r	82
4200	44680	Add a Star Trek convention and sports memorabilia show to the mix.	Add a Star Trek convention and sports memorabilia show to the mix	2130795	1471979204235	1471979204381	a	65
4200	44680	Add a Star Trek convention and sports memorabilia show to the mix.	Add a Star Trek convention and sports memorabilia show to the mix	2130797	1471979204483	1471979204572	b	66
4200	44680	Add a Star Trek convention and sports memorabilia show to the mix.	Add a Star Trek convention and sports memorabilia show to the mix	2130867	1471979204742	1471979204831	i	73
4200	44680	Add a Star Trek convention and sports memorabilia show to the mix.	Add a Star Trek convention and sports memorabilia show to the mix	2130872	1471979204944	1471979205022	l	76
4200	44680	Add a Star Trek convention and sports memorabilia show to the mix.	Add a Star Trek convention and sports memorabilia show to the mix	2130879	1471979205168	1471979205269	i	73
4200	44680	Add a Star Trek convention and sports memorabilia show to the mix.	Add a Star Trek convention and sports memorabilia show to the mix	2130881	1471979205383	1471979205472	a	65
4200	44680	Add a Star Trek convention and sports memorabilia show to the mix.	Add a Star Trek convention and sports memorabilia show to the mix	2130883	1471979205944	1471979206068	 	32
4200	44680	Add a Star Trek convention and sports memorabilia show to the mix.	Add a Star Trek convention and sports memorabilia show to the mix	2130919	1471979206338	1471979206473	s	83
4200	44680	Add a Star Trek convention and sports memorabilia show to the mix.	Add a Star Trek convention and sports memorabilia show to the mix	2130920	1471979206440	1471979206529	h	72
4200	44680	Add a Star Trek convention and sports memorabilia show to the mix.	Add a Star Trek convention and sports memorabilia show to the mix	2130921	1471979206575	1471979206664	o	79
4200	44680	Add a Star Trek convention and sports memorabilia show to the mix.	Add a Star Trek convention and sports memorabilia show to the mix	2130923	1471979206699	1471979206799	w	87
4200	44680	Add a Star Trek convention and sports memorabilia show to the mix.	Add a Star Trek convention and sports memorabilia show to the mix	2130926	1471979206901	1471979207014	 	32
4200	44680	Add a Star Trek convention and sports memorabilia show to the mix.	Add a Star Trek convention and sports memorabilia show to the mix	2130944	1471979207217	1471979207339	t	84
4200	44680	Add a Star Trek convention and sports memorabilia show to the mix.	Add a Star Trek convention and sports memorabilia show to the mix	2130945	1471979207318	1471979207418	o	79
4200	44680	Add a Star Trek convention and sports memorabilia show to the mix.	Add a Star Trek convention and sports memorabilia show to the mix	2130947	1471979207475	1471979207587	 	32
4200	44680	Add a Star Trek convention and sports memorabilia show to the mix.	Add a Star Trek convention and sports memorabilia show to the mix	2130949	1471979207598	1471979207722	t	84
4200	44680	Add a Star Trek convention and sports memorabilia show to the mix.	Add a Star Trek convention and sports memorabilia show to the mix	2130963	1471979207666	1471979207767	h	72
4200	44680	Add a Star Trek convention and sports memorabilia show to the mix.	Add a Star Trek convention and sports memorabilia show to the mix	2130967	1471979207801	1471979207951	e	69
4200	44680	Add a Star Trek convention and sports memorabilia show to the mix.	Add a Star Trek convention and sports memorabilia show to the mix	2130970	1471979207924	1471979208048	 	32
4200	44680	Add a Star Trek convention and sports memorabilia show to the mix.	Add a Star Trek convention and sports memorabilia show to the mix	2130973	1471979208149	1471979208251	m	77
4200	44680	Add a Star Trek convention and sports memorabilia show to the mix.	Add a Star Trek convention and sports memorabilia show to the mix	2130978	1471979208297	1471979208386	i	73
4200	44680	Add a Star Trek convention and sports memorabilia show to the mix.	Add a Star Trek convention and sports memorabilia show to the mix	2130980	1471979208477	1471979208611	x	88
4200	44699	Here's your Gas Daily pricing.	Here's your Gas Daily pricing.	2131138	1471979209173	1471979209218	 	13
4200	44699	Here's your Gas Daily pricing.	Here's your Gas Daily pricing.	2131140	1471979210872	1471979211042	SHIFT	16
4200	44699	Here's your Gas Daily pricing.	Here's your Gas Daily pricing.	2131143	1471979210962	1471979211052	H	72
4200	44699	Here's your Gas Daily pricing.	Here's your Gas Daily pricing.	2131147	1471979211177	1471979211322	e	69
4200	44699	Here's your Gas Daily pricing.	Here's your Gas Daily pricing.	2131150	1471979211267	1471979211356	r	82
4200	44699	Here's your Gas Daily pricing.	Here's your Gas Daily pricing.	2131152	1471979211491	1471979211603	e	69
4200	44699	Here's your Gas Daily pricing.	Here's your Gas Daily pricing.	2131235	1471979212627	1471979212717	s	83
4200	44699	Here's your Gas Daily pricing.	Here's your Gas Daily pricing.	2131239	1471979212930	1471979213426	 	32
4200	44699	Here's your Gas Daily pricing.	Here's your Gas Daily pricing.	2131244	1471979213426	1471979213440	y	89
4200	44699	Here's your Gas Daily pricing.	Here's your Gas Daily pricing.	2131247	1471979213441	1471979213516	o	79
4200	44699	Here's your Gas Daily pricing.	Here's your Gas Daily pricing.	2131322	1471979213471	1471979213538	u	85
4200	44699	Here's your Gas Daily pricing.	Here's your Gas Daily pricing.	2131324	1471979213708	1471979213831	r	82
4200	44699	Here's your Gas Daily pricing.	Here's your Gas Daily pricing.	2131328	1471979213842	1471979213966	 	32
4200	44699	Here's your Gas Daily pricing.	Here's your Gas Daily pricing.	2131330	1471979214045	1471979214225	SHIFT	16
4200	44699	Here's your Gas Daily pricing.	Here's your Gas Daily pricing.	2131332	1471979214146	1471979214236	G	71
4200	44699	Here's your Gas Daily pricing.	Here's your Gas Daily pricing.	2131335	1471979214327	1471979214461	a	65
4200	44699	Here's your Gas Daily pricing.	Here's your Gas Daily pricing.	2131338	1471979214551	1471979214652	s	83
4200	44699	Here's your Gas Daily pricing.	Here's your Gas Daily pricing.	2131427	1471979214743	1471979214843	 	32
4200	44699	Here's your Gas Daily pricing.	Here's your Gas Daily pricing.	2131437	1471979214967	1471979215338	SHIFT	16
4200	44699	Here's your Gas Daily pricing.	Here's your Gas Daily pricing.	2131433	1471979215215	1471979215316	D	68
4200	44699	Here's your Gas Daily pricing.	Here's your Gas Daily pricing.	2131443	1471979215497	1471979215597	a	65
4200	44699	Here's your Gas Daily pricing.	Here's your Gas Daily pricing.	2131449	1471979215654	1471979215721	i	73
4200	44699	Here's your Gas Daily pricing.	Here's your Gas Daily pricing.	2131457	1471979216116	1471979216238	l	76
4200	44699	Here's your Gas Daily pricing.	Here's your Gas Daily pricing.	2131500	1471979216442	1471979216509	y	89
4200	44699	Here's your Gas Daily pricing.	Here's your Gas Daily pricing.	2131505	1471979216712	1471979216846	 	32
4200	44699	Here's your Gas Daily pricing.	Here's your Gas Daily pricing.	2131510	1471979216892	1471979216970	p	80
4200	44699	Here's your Gas Daily pricing.	Here's your Gas Daily pricing.	2131516	1471979217049	1471979217138	r	82
4200	44699	Here's your Gas Daily pricing.	Here's your Gas Daily pricing.	2131524	1471979217151	1471979217240	i	73
4200	44699	Here's your Gas Daily pricing.	Here's your Gas Daily pricing.	2131729	1471979217319	1471979217420	c	67
4200	44699	Here's your Gas Daily pricing.	Here's your Gas Daily pricing.	2131734	1471979217431	1471979217600	i	73
4200	44699	Here's your Gas Daily pricing.	Here's your Gas Daily pricing.	2131739	1471979217522	1471979217667	n	78
4200	44699	Here's your Gas Daily pricing.	Here's your Gas Daily pricing.	2131743	1471979217678	1471979217746	g	71
4200	44699	Here's your Gas Daily pricing.	Here's your Gas Daily pricing.	2131746	1471979221538	1471979221602	'	222
4200	44699	Here's your Gas Daily pricing.	Here's your Gas Daily pricing.	2131927	1471979225509	1471979225655	.	190
4200	44719	She said it would probably be after Jan.	She said it would probably be after Jan.	2132066	1471979227421	1471979227556	SHIFT	16
4200	44719	She said it would probably be after Jan.	She said it would probably be after Jan.	2132074	1471979227511	1471979227624	S	83
4200	44719	She said it would probably be after Jan.	She said it would probably be after Jan.	2132083	1471979227613	1471979227691	h	72
4200	44719	She said it would probably be after Jan.	She said it would probably be after Jan.	2132090	1471979227737	1471979227849	e	69
4200	44719	She said it would probably be after Jan.	She said it would probably be after Jan.	2132099	1471979227905	1471979228046	 	32
4200	44719	She said it would probably be after Jan.	She said it would probably be after Jan.	2132105	1471979228074	1471979228208	s	83
4200	44719	She said it would probably be after Jan.	She said it would probably be after Jan.	2132158	1471979228344	1471979228444	a	65
4200	44719	She said it would probably be after Jan.	She said it would probably be after Jan.	2132162	1471979228456	1471979228545	i	73
4200	44719	She said it would probably be after Jan.	She said it would probably be after Jan.	2132164	1471979228557	1471979228681	d	68
4200	44719	She said it would probably be after Jan.	She said it would probably be after Jan.	2132166	1471979228817	1471979228951	 	32
4200	44719	She said it would probably be after Jan.	She said it would probably be after Jan.	2132167	1471979228962	1471979229052	i	73
4200	44719	She said it would probably be after Jan.	She said it would probably be after Jan.	2132172	1471979229075	1471979229198	t	84
4200	44719	She said it would probably be after Jan.	She said it would probably be after Jan.	2132176	1471979229188	1471979229300	 	32
4200	44719	She said it would probably be after Jan.	She said it would probably be after Jan.	2132183	1471979229324	1471979229503	o	79
4200	44719	She said it would probably be after Jan.	She said it would probably be after Jan.	2132179	1471979229356	1471979229457	w	87
4200	44719	She said it would probably be after Jan.	She said it would probably be after Jan.	2132303	1471979229469	1471979229559	u	85
4200	44719	She said it would probably be after Jan.	She said it would probably be after Jan.	2132309	1471979229637	1471979229772	l	76
4200	44719	She said it would probably be after Jan.	She said it would probably be after Jan.	2132314	1471979229761	1471979229874	d	68
4200	44719	She said it would probably be after Jan.	She said it would probably be after Jan.	2132318	1471979230369	1471979230436	BKSP	8
4200	44719	She said it would probably be after Jan.	She said it would probably be after Jan.	2132321	1471979230504	1471979230549	BKSP	8
4200	44719	She said it would probably be after Jan.	She said it would probably be after Jan.	2132324	1471979230594	1471979230650	BKSP	8
4200	44719	She said it would probably be after Jan.	She said it would probably be after Jan.	2132327	1471979230706	1471979230762	BKSP	8
4200	44719	She said it would probably be after Jan.	She said it would probably be after Jan.	2132329	1471979230841	1471979230868	BKSP	8
4200	44719	She said it would probably be after Jan.	She said it would probably be after Jan.	2132330	1471979231280	1471979231381	w	87
4200	44719	She said it would probably be after Jan.	She said it would probably be after Jan.	2132332	1471979231426	1471979231572	o	79
4200	44719	She said it would probably be after Jan.	She said it would probably be after Jan.	2132409	1471979231551	1471979231617	u	85
4200	44719	She said it would probably be after Jan.	She said it would probably be after Jan.	2132411	1471979231686	1471979231831	l	76
4200	44719	She said it would probably be after Jan.	She said it would probably be after Jan.	2132414	1471979231797	1471979231932	d	68
4200	44719	She said it would probably be after Jan.	She said it would probably be after Jan.	2132416	1471979232014	1471979232135	 	32
4200	44719	She said it would probably be after Jan.	She said it would probably be after Jan.	2132418	1471979232259	1471979232315	b	66
4200	44719	She said it would probably be after Jan.	She said it would probably be after Jan.	2132420	1471979232607	1471979232664	BKSP	8
4200	44719	She said it would probably be after Jan.	She said it would probably be after Jan.	2132424	1471979233564	1471979233620	p	80
4200	44719	She said it would probably be after Jan.	She said it would probably be after Jan.	2132457	1471979233744	1471979233834	r	82
4200	44719	She said it would probably be after Jan.	She said it would probably be after Jan.	2132460	1471979233879	1471979233934	o	79
4200	44719	She said it would probably be after Jan.	She said it would probably be after Jan.	2132462	1471979234149	1471979234238	b	66
4200	44719	She said it would probably be after Jan.	She said it would probably be after Jan.	2132465	1471979234318	1471979234430	a	65
4200	44719	She said it would probably be after Jan.	She said it would probably be after Jan.	2132467	1471979234610	1471979234722	b	66
4200	44719	She said it would probably be after Jan.	She said it would probably be after Jan.	2132505	1471979234801	1471979234914	l	76
4200	44719	She said it would probably be after Jan.	She said it would probably be after Jan.	2132509	1471979235128	1471979235206	y	89
4200	44719	She said it would probably be after Jan.	She said it would probably be after Jan.	2132511	1471979235330	1471979235453	 	32
4200	44719	She said it would probably be after Jan.	She said it would probably be after Jan.	2132516	1471979235476	1471979235566	b	66
4200	44719	She said it would probably be after Jan.	She said it would probably be after Jan.	2132522	1471979235656	1471979235791	e	69
4200	44719	She said it would probably be after Jan.	She said it would probably be after Jan.	2132565	1471979235780	1471979235904	 	32
4200	44719	She said it would probably be after Jan.	She said it would probably be after Jan.	2132567	1471979236208	1471979236320	a	65
4200	44719	She said it would probably be after Jan.	She said it would probably be after Jan.	2132569	1471979236399	1471979236489	f	70
4200	44719	She said it would probably be after Jan.	She said it would probably be after Jan.	2132571	1471979236590	1471979236703	t	84
4200	44719	She said it would probably be after Jan.	She said it would probably be after Jan.	2132572	1471979236781	1471979236928	e	69
4200	44719	She said it would probably be after Jan.	She said it would probably be after Jan.	2132640	1471979236872	1471979236962	r	82
4200	44719	She said it would probably be after Jan.	She said it would probably be after Jan.	2132644	1471979237119	1471979237208	 	32
4200	44719	She said it would probably be after Jan.	She said it would probably be after Jan.	2132647	1471979237231	1471979237423	SHIFT	16
4200	44719	She said it would probably be after Jan.	She said it would probably be after Jan.	2132648	1471979237366	1471979237479	J	74
4200	44719	She said it would probably be after Jan.	She said it would probably be after Jan.	2132649	1471979237535	1471979237658	a	65
4200	44719	She said it would probably be after Jan.	She said it would probably be after Jan.	2132650	1471979237636	1471979237715	n	78
4200	44719	She said it would probably be after Jan.	She said it would probably be after Jan.	2132651	1471979238098	1471979238244	.	190
4200	44733	What do you think about Tracy and Jim?	What do you think about Tracy and Jim?	2132884	1471979241371	1471979241529	SHIFT	16
4200	44733	What do you think about Tracy and Jim?	What do you think about Tracy and Jim?	2132889	1471979241473	1471979241563	W	87
4200	44733	What do you think about Tracy and Jim?	What do you think about Tracy and Jim?	2132895	1471979241664	1471979241754	a	65
4200	44733	What do you think about Tracy and Jim?	What do you think about Tracy and Jim?	2132901	1471979241844	1471979241911	h	72
4200	44733	What do you think about Tracy and Jim?	What do you think about Tracy and Jim?	2132907	1471979242215	1471979242260	BKSP	8
4200	44733	What do you think about Tracy and Jim?	What do you think about Tracy and Jim?	2132911	1471979242305	1471979242361	BKSP	8
4200	44733	What do you think about Tracy and Jim?	What do you think about Tracy and Jim?	2132917	1471979242541	1471979242609	h	72
4200	44733	What do you think about Tracy and Jim?	What do you think about Tracy and Jim?	2132918	1471979242620	1471979242733	a	65
4200	44733	What do you think about Tracy and Jim?	What do you think about Tracy and Jim?	2132933	1471979242834	1471979242923	t	84
4200	44733	What do you think about Tracy and Jim?	What do you think about Tracy and Jim?	2132935	1471979242980	1471979243203	 	32
4200	44733	What do you think about Tracy and Jim?	What do you think about Tracy and Jim?	2132939	1471979243204	1471979243242	d	68
4200	44733	What do you think about Tracy and Jim?	What do you think about Tracy and Jim?	2132945	1471979243234	1471979243329	o	79
4200	44733	What do you think about Tracy and Jim?	What do you think about Tracy and Jim?	2132950	1471979243419	1471979243509	 	32
4200	44733	What do you think about Tracy and Jim?	What do you think about Tracy and Jim?	2132977	1471979243576	1471979243655	y	89
4200	44733	What do you think about Tracy and Jim?	What do you think about Tracy and Jim?	2132979	1471979243689	1471979243824	o	79
4200	44733	What do you think about Tracy and Jim?	What do you think about Tracy and Jim?	2132983	1471979243790	1471979243880	u	85
4200	44733	What do you think about Tracy and Jim?	What do you think about Tracy and Jim?	2132990	1471979243993	1471979244105	 	32
4200	44733	What do you think about Tracy and Jim?	What do you think about Tracy and Jim?	2132995	1471979244151	1471979244251	t	84
4200	44733	What do you think about Tracy and Jim?	What do you think about Tracy and Jim?	2133072	1471979244330	1471979244488	i	73
4200	44733	What do you think about Tracy and Jim?	What do you think about Tracy and Jim?	2133074	1471979244499	1471979244554	n	78
4200	44733	What do you think about Tracy and Jim?	What do you think about Tracy and Jim?	2133078	1471979244882	1471979244927	BKSP	8
4200	44733	What do you think about Tracy and Jim?	What do you think about Tracy and Jim?	2133082	1471979245242	1471979245332	BKSP	8
4200	44733	What do you think about Tracy and Jim?	What do you think about Tracy and Jim?	2133085	1471979245568	1471979245646	h	72
4200	44733	What do you think about Tracy and Jim?	What do you think about Tracy and Jim?	2133087	1471979245782	1471979245928	i	73
4200	44733	What do you think about Tracy and Jim?	What do you think about Tracy and Jim?	2133105	1471979245894	1471979245995	n	78
4200	44733	What do you think about Tracy and Jim?	What do you think about Tracy and Jim?	2133108	1471979246040	1471979246164	k	75
4200	44733	What do you think about Tracy and Jim?	What do you think about Tracy and Jim?	2133110	1471979246288	1471979246378	 	32
4200	44733	What do you think about Tracy and Jim?	What do you think about Tracy and Jim?	2133113	1471979246479	1471979246580	a	65
4200	44733	What do you think about Tracy and Jim?	What do you think about Tracy and Jim?	2133120	1471979246659	1471979246752	b	66
4200	44733	What do you think about Tracy and Jim?	What do you think about Tracy and Jim?	2133168	1471979246727	1471979246849	o	79
4200	44733	What do you think about Tracy and Jim?	What do you think about Tracy and Jim?	2133172	1471979246805	1471979246895	u	85
4200	44733	What do you think about Tracy and Jim?	What do you think about Tracy and Jim?	2133176	1471979246985	1471979247098	t	84
4200	44733	What do you think about Tracy and Jim?	What do you think about Tracy and Jim?	2133179	1471979247132	1471979247244	 	32
4200	44733	What do you think about Tracy and Jim?	What do you think about Tracy and Jim?	2133182	1471979247390	1471979247548	SHIFT	16
4200	44733	What do you think about Tracy and Jim?	What do you think about Tracy and Jim?	2133185	1471979247469	1471979247570	T	84
4200	44733	What do you think about Tracy and Jim?	What do you think about Tracy and Jim?	2133191	1471979247739	1471979247863	r	82
4200	44733	What do you think about Tracy and Jim?	What do you think about Tracy and Jim?	2133223	1471979247953	1471979248088	a	65
4200	44733	What do you think about Tracy and Jim?	What do you think about Tracy and Jim?	2133225	1471979248155	1471979248279	c	67
4200	44733	What do you think about Tracy and Jim?	What do you think about Tracy and Jim?	2133228	1471979248493	1471979248583	y	89
4200	44733	What do you think about Tracy and Jim?	What do you think about Tracy and Jim?	2133233	1471979248695	1471979248796	 	32
4200	44733	What do you think about Tracy and Jim?	What do you think about Tracy and Jim?	2133266	1471979248785	1471979248908	a	65
4200	44733	What do you think about Tracy and Jim?	What do you think about Tracy and Jim?	2133271	1471979248898	1471979249009	n	78
4200	44733	What do you think about Tracy and Jim?	What do you think about Tracy and Jim?	2133274	1471979248988	1471979249089	d	68
4200	44733	What do you think about Tracy and Jim?	What do you think about Tracy and Jim?	2133277	1471979249078	1471979249190	 	32
4200	44733	What do you think about Tracy and Jim?	What do you think about Tracy and Jim?	2133283	1471979249280	1471979249504	SHIFT	16
4200	44733	What do you think about Tracy and Jim?	What do you think about Tracy and Jim?	2133280	1471979249404	1471979249472	J	74
4200	44733	What do you think about Tracy and Jim?	What do you think about Tracy and Jim?	2133286	1471979249585	1471979249662	u	85
4200	44733	What do you think about Tracy and Jim?	What do you think about Tracy and Jim?	2133455	1471979250000	1471979250056	BKSP	8
4200	44733	What do you think about Tracy and Jim?	What do you think about Tracy and Jim?	2133459	1471979250214	1471979250293	i	73
4200	44733	What do you think about Tracy and Jim?	What do you think about Tracy and Jim?	2133463	1471979250428	1471979250517	m	77
4200	44733	What do you think about Tracy and Jim?	What do you think about Tracy and Jim?	2133468	1471979251238	1471979251992	SHIFT	16
4200	44733	What do you think about Tracy and Jim?	What do you think about Tracy and Jim?	2133465	1471979251800	1471979251913	?	191
4200	44749	Do not send small, unsuspecting children to check on my progress.	Do not send small, unsuspecting children to check on my progress.	2133782	1471979257516	1471979257696	SHIFT	16
4200	44749	Do not send small, unsuspecting children to check on my progress.	Do not send small, unsuspecting children to check on my progress.	2133787	1471979257606	1471979257728	D	68
4200	44749	Do not send small, unsuspecting children to check on my progress.	Do not send small, unsuspecting children to check on my progress.	2133795	1471979257853	1471979257932	o	79
4200	44749	Do not send small, unsuspecting children to check on my progress.	Do not send small, unsuspecting children to check on my progress.	2133802	1471979258269	1471979258371	 	32
4200	44749	Do not send small, unsuspecting children to check on my progress.	Do not send small, unsuspecting children to check on my progress.	2133807	1471979258438	1471979258567	n	78
4200	44749	Do not send small, unsuspecting children to check on my progress.	Do not send small, unsuspecting children to check on my progress.	2133867	1471979258551	1471979258674	o	79
4200	44749	Do not send small, unsuspecting children to check on my progress.	Do not send small, unsuspecting children to check on my progress.	2133870	1471979258787	1471979258911	t	84
4200	44749	Do not send small, unsuspecting children to check on my progress.	Do not send small, unsuspecting children to check on my progress.	2133873	1471979258933	1471979259022	 	32
4200	44749	Do not send small, unsuspecting children to check on my progress.	Do not send small, unsuspecting children to check on my progress.	2133876	1471979259192	1471979259316	s	83
4200	44749	Do not send small, unsuspecting children to check on my progress.	Do not send small, unsuspecting children to check on my progress.	2133878	1471979259428	1471979259563	e	69
4200	44749	Do not send small, unsuspecting children to check on my progress.	Do not send small, unsuspecting children to check on my progress.	2133884	1471979259586	1471979259709	n	78
4200	44749	Do not send small, unsuspecting children to check on my progress.	Do not send small, unsuspecting children to check on my progress.	2133968	1471979259687	1471979259799	d	68
4200	44749	Do not send small, unsuspecting children to check on my progress.	Do not send small, unsuspecting children to check on my progress.	2133971	1471979259889	1471979259991	 	32
4200	44749	Do not send small, unsuspecting children to check on my progress.	Do not send small, unsuspecting children to check on my progress.	2133975	1471979260407	1471979260508	s	83
4200	44749	Do not send small, unsuspecting children to check on my progress.	Do not send small, unsuspecting children to check on my progress.	2133976	1471979260643	1471979260767	m	77
4200	44749	Do not send small, unsuspecting children to check on my progress.	Do not send small, unsuspecting children to check on my progress.	2133979	1471979260823	1471979260936	a	65
4200	44749	Do not send small, unsuspecting children to check on my progress.	Do not send small, unsuspecting children to check on my progress.	2133980	1471979261082	1471979261138	l	76
4200	44749	Do not send small, unsuspecting children to check on my progress.	Do not send small, unsuspecting children to check on my progress.	2134056	1471979261228	1471979261272	l	76
4200	44749	Do not send small, unsuspecting children to check on my progress.	Do not send small, unsuspecting children to check on my progress.	2134058	1471979261588	1471979261734	,	188
4200	44749	Do not send small, unsuspecting children to check on my progress.	Do not send small, unsuspecting children to check on my progress.	2134063	1471979261836	1471979261937	 	32
4200	44749	Do not send small, unsuspecting children to check on my progress.	Do not send small, unsuspecting children to check on my progress.	2134066	1471979262038	1471979262117	u	85
4200	44749	Do not send small, unsuspecting children to check on my progress.	Do not send small, unsuspecting children to check on my progress.	2134069	1471979262331	1471979262454	n	78
4200	44749	Do not send small, unsuspecting children to check on my progress.	Do not send small, unsuspecting children to check on my progress.	2134159	1471979262826	1471979262948	s	83
4200	44749	Do not send small, unsuspecting children to check on my progress.	Do not send small, unsuspecting children to check on my progress.	2134162	1471979263174	1471979263242	u	85
4200	44749	Do not send small, unsuspecting children to check on my progress.	Do not send small, unsuspecting children to check on my progress.	2134166	1471979263411	1471979263512	s	83
4200	44749	Do not send small, unsuspecting children to check on my progress.	Do not send small, unsuspecting children to check on my progress.	2134168	1471979263658	1471979263758	p	80
4200	44749	Do not send small, unsuspecting children to check on my progress.	Do not send small, unsuspecting children to check on my progress.	2134170	1471979263906	1471979264029	e	69
4200	44749	Do not send small, unsuspecting children to check on my progress.	Do not send small, unsuspecting children to check on my progress.	2134183	1471979264131	1471979264232	c	67
4200	44749	Do not send small, unsuspecting children to check on my progress.	Do not send small, unsuspecting children to check on my progress.	2134186	1471979264344	1471979264422	t	84
4200	44749	Do not send small, unsuspecting children to check on my progress.	Do not send small, unsuspecting children to check on my progress.	2134187	1471979264401	1471979264626	i	73
4200	44749	Do not send small, unsuspecting children to check on my progress.	Do not send small, unsuspecting children to check on my progress.	2134189	1471979264513	1471979264659	n	78
4200	44749	Do not send small, unsuspecting children to check on my progress.	Do not send small, unsuspecting children to check on my progress.	2134235	1471979264637	1471979264738	g	71
4200	44749	Do not send small, unsuspecting children to check on my progress.	Do not send small, unsuspecting children to check on my progress.	2134238	1471979264952	1471979265075	 	32
4200	44749	Do not send small, unsuspecting children to check on my progress.	Do not send small, unsuspecting children to check on my progress.	2134241	1471979265143	1471979265255	c	67
4200	44749	Do not send small, unsuspecting children to check on my progress.	Do not send small, unsuspecting children to check on my progress.	2134243	1471979265211	1471979265301	h	72
4200	44749	Do not send small, unsuspecting children to check on my progress.	Do not send small, unsuspecting children to check on my progress.	2134246	1471979265346	1471979265447	i	73
4200	44749	Do not send small, unsuspecting children to check on my progress.	Do not send small, unsuspecting children to check on my progress.	2134251	1471979265526	1471979265660	l	76
4200	44749	Do not send small, unsuspecting children to check on my progress.	Do not send small, unsuspecting children to check on my progress.	2134312	1471979265987	1471979266110	d	68
4200	44749	Do not send small, unsuspecting children to check on my progress.	Do not send small, unsuspecting children to check on my progress.	2134314	1471979266246	1471979266382	r	82
4200	44749	Do not send small, unsuspecting children to check on my progress.	Do not send small, unsuspecting children to check on my progress.	2134319	1471979266370	1471979266436	e	69
4200	44749	Do not send small, unsuspecting children to check on my progress.	Do not send small, unsuspecting children to check on my progress.	2134323	1471979266741	1471979266876	n	78
4200	44749	Do not send small, unsuspecting children to check on my progress.	Do not send small, unsuspecting children to check on my progress.	2134326	1471979266943	1471979267067	 	32
4200	44749	Do not send small, unsuspecting children to check on my progress.	Do not send small, unsuspecting children to check on my progress.	2134354	1471979267056	1471979267183	t	84
4200	44749	Do not send small, unsuspecting children to check on my progress.	Do not send small, unsuspecting children to check on my progress.	2134357	1471979267168	1471979267284	o	79
4200	44749	Do not send small, unsuspecting children to check on my progress.	Do not send small, unsuspecting children to check on my progress.	2134361	1471979267258	1471979267371	 	32
4200	44749	Do not send small, unsuspecting children to check on my progress.	Do not send small, unsuspecting children to check on my progress.	2134365	1471979267506	1471979267600	c	67
4200	44749	Do not send small, unsuspecting children to check on my progress.	Do not send small, unsuspecting children to check on my progress.	2134369	1471979267573	1471979267640	h	72
4200	44749	Do not send small, unsuspecting children to check on my progress.	Do not send small, unsuspecting children to check on my progress.	2134371	1471979267742	1471979267866	e	69
4200	44749	Do not send small, unsuspecting children to check on my progress.	Do not send small, unsuspecting children to check on my progress.	2134394	1471979267978	1471979268136	c	67
4200	44749	Do not send small, unsuspecting children to check on my progress.	Do not send small, unsuspecting children to check on my progress.	2134395	1471979268192	1471979268315	k	75
4200	44749	Do not send small, unsuspecting children to check on my progress.	Do not send small, unsuspecting children to check on my progress.	2134396	1471979268451	1471979268551	 	32
4200	44749	Do not send small, unsuspecting children to check on my progress.	Do not send small, unsuspecting children to check on my progress.	2134398	1471979268575	1471979268720	o	79
4200	44749	Do not send small, unsuspecting children to check on my progress.	Do not send small, unsuspecting children to check on my progress.	2134435	1471979268710	1471979268810	n	78
4200	44749	Do not send small, unsuspecting children to check on my progress.	Do not send small, unsuspecting children to check on my progress.	2134438	1471979268867	1471979268957	 	32
4200	44749	Do not send small, unsuspecting children to check on my progress.	Do not send small, unsuspecting children to check on my progress.	2134441	1471979269047	1471979269160	m	77
4200	44749	Do not send small, unsuspecting children to check on my progress.	Do not send small, unsuspecting children to check on my progress.	2134443	1471979269306	1471979269395	y	89
4200	44749	Do not send small, unsuspecting children to check on my progress.	Do not send small, unsuspecting children to check on my progress.	2134446	1471979269542	1471979269679	 	32
4200	44749	Do not send small, unsuspecting children to check on my progress.	Do not send small, unsuspecting children to check on my progress.	2134492	1471979269666	1471979269755	p	80
4200	44749	Do not send small, unsuspecting children to check on my progress.	Do not send small, unsuspecting children to check on my progress.	2134494	1471979269936	1471979270047	r	82
4200	44749	Do not send small, unsuspecting children to check on my progress.	Do not send small, unsuspecting children to check on my progress.	2134496	1471979270318	1471979270407	o	79
4200	44749	Do not send small, unsuspecting children to check on my progress.	Do not send small, unsuspecting children to check on my progress.	2134500	1471979270498	1471979270587	g	71
4200	44749	Do not send small, unsuspecting children to check on my progress.	Do not send small, unsuspecting children to check on my progress.	2134502	1471979270701	1471979270812	r	82
4200	44749	Do not send small, unsuspecting children to check on my progress.	Do not send small, unsuspecting children to check on my progress.	2134504	1471979270870	1471979270959	e	69
4200	44749	Do not send small, unsuspecting children to check on my progress.	Do not send small, unsuspecting children to check on my progress.	2134546	1471979271027	1471979271116	e	69
4200	44749	Do not send small, unsuspecting children to check on my progress.	Do not send small, unsuspecting children to check on my progress.	2134547	1471979271308	1471979271410	s	83
4200	44749	Do not send small, unsuspecting children to check on my progress.	Do not send small, unsuspecting children to check on my progress.	2134550	1471979271758	1471979271791	BKSP	8
4200	44749	Do not send small, unsuspecting children to check on my progress.	Do not send small, unsuspecting children to check on my progress.	2134551	1471979271848	1471979271915	BKSP	8
4200	44749	Do not send small, unsuspecting children to check on my progress.	Do not send small, unsuspecting children to check on my progress.	2134553	1471979271950	1471979272072	s	83
4200	44749	Do not send small, unsuspecting children to check on my progress.	Do not send small, unsuspecting children to check on my progress.	2134554	1471979272422	1471979272546	s	83
4200	44749	Do not send small, unsuspecting children to check on my progress.	Do not send small, unsuspecting children to check on my progress.	2134556	1471979272714	1471979272849	.	190
4200	44773	I'm very sorry about that mix up.	I'm very sorry about that mix up.	2134770	1471979274605	1471979274829	SHIFT	16
4200	44773	I'm very sorry about that mix up.	I'm very sorry about that mix up.	2134768	1471979274716	1471979274818	I	73
4200	44773	I'm very sorry about that mix up.	I'm very sorry about that mix up.	2134773	1471979276956	1471979277046	'	222
4200	44773	I'm very sorry about that mix up.	I'm very sorry about that mix up.	2134776	1471979277215	1471979277326	m	77
4200	44773	I'm very sorry about that mix up.	I'm very sorry about that mix up.	2134779	1471979277485	1471979278129	 	32
4200	44773	I'm very sorry about that mix up.	I'm very sorry about that mix up.	2134781	1471979278130	1471979278140	v	86
4200	44773	I'm very sorry about that mix up.	I'm very sorry about that mix up.	2134814	1471979278141	1471979278158	r	69
4200	44773	I'm very sorry about that mix up.	I'm very sorry about that mix up.	2134815	1471979278250	1471979278339	y	89
4200	44773	I'm very sorry about that mix up.	I'm very sorry about that mix up.	2134816	1471979278531	1471979278631	 	32
4200	44773	I'm very sorry about that mix up.	I'm very sorry about that mix up.	2134817	1471979278902	1471979279025	s	83
4200	44773	I'm very sorry about that mix up.	I'm very sorry about that mix up.	2134878	1471979279004	1471979279081	o	79
4200	44773	I'm very sorry about that mix up.	I'm very sorry about that mix up.	2134880	1471979279150	1471979279216	r	82
4200	44773	I'm very sorry about that mix up.	I'm very sorry about that mix up.	2134882	1471979279285	1471979279363	r	82
4200	44773	I'm very sorry about that mix up.	I'm very sorry about that mix up.	2134884	1471979279476	1471979279566	t	84
4200	44773	I'm very sorry about that mix up.	I'm very sorry about that mix up.	2134885	1471979279993	1471979280060	BKSP	8
4200	44773	I'm very sorry about that mix up.	I'm very sorry about that mix up.	2134886	1471979280297	1471979280375	y	89
4200	44773	I'm very sorry about that mix up.	I'm very sorry about that mix up.	2134887	1471979280522	1471979280623	 	32
4200	44773	I'm very sorry about that mix up.	I'm very sorry about that mix up.	2134906	1471979280634	1471979280746	a	65
4200	44773	I'm very sorry about that mix up.	I'm very sorry about that mix up.	2134908	1471979280815	1471979280917	b	66
4200	44773	I'm very sorry about that mix up.	I'm very sorry about that mix up.	2134910	1471979280894	1471979281039	o	79
4200	44773	I'm very sorry about that mix up.	I'm very sorry about that mix up.	2134912	1471979280995	1471979281073	u	85
4200	44773	I'm very sorry about that mix up.	I'm very sorry about that mix up.	2134914	1471979281209	1471979281331	t	84
4200	44773	I'm very sorry about that mix up.	I'm very sorry about that mix up.	2134942	1471979281366	1471979281466	 	32
4200	44773	I'm very sorry about that mix up.	I'm very sorry about that mix up.	2134946	1471979281501	1471979281624	t	84
4200	44773	I'm very sorry about that mix up.	I'm very sorry about that mix up.	2134951	1471979281580	1471979281669	h	72
4200	44773	I'm very sorry about that mix up.	I'm very sorry about that mix up.	2134954	1471979281827	1471979281928	a	65
4200	44773	I'm very sorry about that mix up.	I'm very sorry about that mix up.	2134957	1471979282064	1471979282165	t	84
4200	44773	I'm very sorry about that mix up.	I'm very sorry about that mix up.	2135014	1471979282199	1471979282310	 	32
4200	44773	I'm very sorry about that mix up.	I'm very sorry about that mix up.	2135016	1471979282378	1471979282456	m	77
4200	44773	I'm very sorry about that mix up.	I'm very sorry about that mix up.	2135018	1471979282469	1471979282580	i	73
4200	44773	I'm very sorry about that mix up.	I'm very sorry about that mix up.	2135022	1471979282952	1471979283087	x	88
4200	44773	I'm very sorry about that mix up.	I'm very sorry about that mix up.	2135024	1471979283211	1471979283324	 	32
4200	44773	I'm very sorry about that mix up.	I'm very sorry about that mix up.	2135072	1471979283391	1471979283525	u	85
4200	44773	I'm very sorry about that mix up.	I'm very sorry about that mix up.	2135073	1471979283504	1471979283626	p	80
4200	44773	I'm very sorry about that mix up.	I'm very sorry about that mix up.	2135074	1471979284280	1471979284403	.	190
4200	44782	Sorry for any inconvenience.	Sorry for any inconvenience.	2135185	1471979286248	1471979286360	SHIFT	16
4200	44782	Sorry for any inconvenience.	Sorry for any inconvenience.	2135186	1471979286326	1471979286428	S	83
4200	44782	Sorry for any inconvenience.	Sorry for any inconvenience.	2135188	1471979286507	1471979286585	o	79
4200	44782	Sorry for any inconvenience.	Sorry for any inconvenience.	2135192	1471979286643	1471979286709	r	82
4200	44782	Sorry for any inconvenience.	Sorry for any inconvenience.	2135195	1471979286789	1471979286878	r	82
4200	44782	Sorry for any inconvenience.	Sorry for any inconvenience.	2135198	1471979286980	1471979287081	y	89
4200	44782	Sorry for any inconvenience.	Sorry for any inconvenience.	2135212	1471979287194	1471979287305	 	32
4200	44782	Sorry for any inconvenience.	Sorry for any inconvenience.	2135215	1471979287363	1471979287440	f	70
4200	44782	Sorry for any inconvenience.	Sorry for any inconvenience.	2135219	1471979287407	1471979287508	o	79
4200	44782	Sorry for any inconvenience.	Sorry for any inconvenience.	2135221	1471979287531	1471979287632	r	82
4200	44782	Sorry for any inconvenience.	Sorry for any inconvenience.	2135222	1471979287666	1471979287778	 	32
4200	44782	Sorry for any inconvenience.	Sorry for any inconvenience.	2135242	1471979287858	1471979288004	a	65
4200	44782	Sorry for any inconvenience.	Sorry for any inconvenience.	2135244	1471979287981	1471979288093	n	78
4200	44782	Sorry for any inconvenience.	Sorry for any inconvenience.	2135248	1471979288229	1471979288340	y	89
4200	44782	Sorry for any inconvenience.	Sorry for any inconvenience.	2135251	1471979288454	1471979288554	 	32
4200	44782	Sorry for any inconvenience.	Sorry for any inconvenience.	2135253	1471979288589	1471979288712	i	73
4200	44782	Sorry for any inconvenience.	Sorry for any inconvenience.	2135327	1471979288668	1471979288790	n	78
4200	44782	Sorry for any inconvenience.	Sorry for any inconvenience.	2135332	1471979289129	1471979289184	b	66
4200	44782	Sorry for any inconvenience.	Sorry for any inconvenience.	2135336	1471979289478	1471979289533	BKSP	8
4200	44782	Sorry for any inconvenience.	Sorry for any inconvenience.	2135340	1471979289624	1471979289735	c	67
4200	44782	Sorry for any inconvenience.	Sorry for any inconvenience.	2135343	1471979289793	1471979289949	o	79
4200	44782	Sorry for any inconvenience.	Sorry for any inconvenience.	2135346	1471979289894	1471979290017	n	78
4200	44782	Sorry for any inconvenience.	Sorry for any inconvenience.	2135347	1471979290288	1471979290422	v	86
4200	44782	Sorry for any inconvenience.	Sorry for any inconvenience.	2135388	1471979290895	1471979291007	e	69
4200	44782	Sorry for any inconvenience.	Sorry for any inconvenience.	2135390	1471979291210	1471979291277	n	78
4200	44782	Sorry for any inconvenience.	Sorry for any inconvenience.	2135392	1471979291401	1471979291490	i	73
4200	44782	Sorry for any inconvenience.	Sorry for any inconvenience.	2135394	1471979291559	1471979291659	e	69
4200	44782	Sorry for any inconvenience.	Sorry for any inconvenience.	2135396	1471979291795	1471979291895	n	78
4200	44782	Sorry for any inconvenience.	Sorry for any inconvenience.	2135430	1471979292166	1471979292289	c	67
4200	44782	Sorry for any inconvenience.	Sorry for any inconvenience.	2135432	1471979292268	1471979292379	e	69
4200	44782	Sorry for any inconvenience.	Sorry for any inconvenience.	2135433	1471979292705	1471979292818	.	190
4200	44791	If so Whitt is done.	If so Whitt is done.	2135548	1471979294775	1471979294989	SHIFT	16
4200	44791	If so Whitt is done.	If so Whitt is done.	2135546	1471979294888	1471979294945	I	73
4200	44791	If so Whitt is done.	If so Whitt is done.	2135549	1471979295429	1471979295540	f	70
4200	44791	If so Whitt is done.	If so Whitt is done.	2135552	1471979295608	1471979295720	 	32
4200	44791	If so Whitt is done.	If so Whitt is done.	2135557	1471979295778	1471979295931	s	83
4200	44791	If so Whitt is done.	If so Whitt is done.	2135601	1471979295922	1471979295962	o	79
4200	44791	If so Whitt is done.	If so Whitt is done.	2135604	1471979296035	1471979296137	 	32
4200	44791	If so Whitt is done.	If so Whitt is done.	2135607	1471979296317	1471979296474	SHIFT	16
4200	44791	If so Whitt is done.	If so Whitt is done.	2135610	1471979296419	1471979296519	W	87
4200	44791	If so Whitt is done.	If so Whitt is done.	2135612	1471979296576	1471979296643	h	72
4200	44791	If so Whitt is done.	If so Whitt is done.	2135613	1471979296723	1471979296800	i	73
4200	44791	If so Whitt is done.	If so Whitt is done.	2135614	1471979296948	1471979297014	t	84
4200	44791	If so Whitt is done.	If so Whitt is done.	2135629	1471979297083	1471979297183	t	84
4200	44791	If so Whitt is done.	If so Whitt is done.	2135634	1471979297252	1471979297341	 	32
4200	44791	If so Whitt is done.	If so Whitt is done.	2135638	1471979297374	1471979297453	i	73
4200	44791	If so Whitt is done.	If so Whitt is done.	2135642	1471979297498	1471979297588	s	83
4200	44791	If so Whitt is done.	If so Whitt is done.	2135644	1471979297623	1471979297712	 	32
4200	44791	If so Whitt is done.	If so Whitt is done.	2135678	1471979297768	1471979297881	d	68
4200	44791	If so Whitt is done.	If so Whitt is done.	2135679	1471979297835	1471979297993	o	79
4200	44791	If so Whitt is done.	If so Whitt is done.	2135680	1471979297970	1471979298102	n	78
4200	44791	If so Whitt is done.	If so Whitt is done.	2135681	1471979298072	1471979298196	e	69
4200	44791	If so Whitt is done.	If so Whitt is done.	2135682	1471979298534	1471979298657	.	190
4200	44796	The volumes tie, so the pricing must be off somewhere.	The volumes tie, so the pricing must be off somewhere.	2135784	1471979300277	1471979300412	SHIFT	16
4200	44796	The volumes tie, so the pricing must be off somewhere.	The volumes tie, so the pricing must be off somewhere.	2135788	1471979300378	1471979300491	T	84
4200	44796	The volumes tie, so the pricing must be off somewhere.	The volumes tie, so the pricing must be off somewhere.	2135791	1471979300468	1471979300536	h	72
4200	44796	The volumes tie, so the pricing must be off somewhere.	The volumes tie, so the pricing must be off somewhere.	2135796	1471979300593	1471979300781	e	69
4200	44796	The volumes tie, so the pricing must be off somewhere.	The volumes tie, so the pricing must be off somewhere.	2135800	1471979300717	1471979300839	 	32
4200	44796	The volumes tie, so the pricing must be off somewhere.	The volumes tie, so the pricing must be off somewhere.	2135804	1471979300941	1471979301064	v	86
4200	44796	The volumes tie, so the pricing must be off somewhere.	The volumes tie, so the pricing must be off somewhere.	2135831	1471979301087	1471979301188	o	79
4200	44796	The volumes tie, so the pricing must be off somewhere.	The volumes tie, so the pricing must be off somewhere.	2135832	1471979301458	1471979301627	l	76
4200	44796	The volumes tie, so the pricing must be off somewhere.	The volumes tie, so the pricing must be off somewhere.	2135833	1471979301729	1471979301784	u	85
4200	44796	The volumes tie, so the pricing must be off somewhere.	The volumes tie, so the pricing must be off somewhere.	2135835	1471979301943	1471979302077	m	77
4200	44796	The volumes tie, so the pricing must be off somewhere.	The volumes tie, so the pricing must be off somewhere.	2135837	1471979302088	1471979302178	e	69
4200	44796	The volumes tie, so the pricing must be off somewhere.	The volumes tie, so the pricing must be off somewhere.	2135895	1471979302302	1471979302403	s	83
4200	44796	The volumes tie, so the pricing must be off somewhere.	The volumes tie, so the pricing must be off somewhere.	2135897	1471979302697	1471979302808	 	32
4200	44796	The volumes tie, so the pricing must be off somewhere.	The volumes tie, so the pricing must be off somewhere.	2135898	1471979302967	1471979303078	t	84
4200	44796	The volumes tie, so the pricing must be off somewhere.	The volumes tie, so the pricing must be off somewhere.	2135899	1471979303089	1471979303134	i	73
4200	44796	The volumes tie, so the pricing must be off somewhere.	The volumes tie, so the pricing must be off somewhere.	2135900	1471979303213	1471979303337	e	69
4200	44796	The volumes tie, so the pricing must be off somewhere.	The volumes tie, so the pricing must be off somewhere.	2135936	1471979303450	1471979303596	,	188
4200	44796	The volumes tie, so the pricing must be off somewhere.	The volumes tie, so the pricing must be off somewhere.	2135939	1471979303765	1471979303888	 	32
4200	44796	The volumes tie, so the pricing must be off somewhere.	The volumes tie, so the pricing must be off somewhere.	2135942	1471979303922	1471979304049	s	83
4200	44796	The volumes tie, so the pricing must be off somewhere.	The volumes tie, so the pricing must be off somewhere.	2135943	1471979304034	1471979304113	o	79
4200	44796	The volumes tie, so the pricing must be off somewhere.	The volumes tie, so the pricing must be off somewhere.	2135945	1471979304182	1471979304316	 	32
4200	44796	The volumes tie, so the pricing must be off somewhere.	The volumes tie, so the pricing must be off somewhere.	2135976	1471979304349	1471979304473	t	84
4200	44796	The volumes tie, so the pricing must be off somewhere.	The volumes tie, so the pricing must be off somewhere.	2135978	1471979304428	1471979304496	h	72
4200	44796	The volumes tie, so the pricing must be off somewhere.	The volumes tie, so the pricing must be off somewhere.	2135981	1471979304563	1471979304732	e	69
4200	44796	The volumes tie, so the pricing must be off somewhere.	The volumes tie, so the pricing must be off somewhere.	2135983	1471979304687	1471979304856	 	32
4200	44796	The volumes tie, so the pricing must be off somewhere.	The volumes tie, so the pricing must be off somewhere.	2135985	1471979304901	1471979305024	p	80
4200	44796	The volumes tie, so the pricing must be off somewhere.	The volumes tie, so the pricing must be off somewhere.	2135999	1471979305058	1471979305171	r	82
4200	44796	The volumes tie, so the pricing must be off somewhere.	The volumes tie, so the pricing must be off somewhere.	2136001	1471979305182	1471979305294	i	73
4200	44796	The volumes tie, so the pricing must be off somewhere.	The volumes tie, so the pricing must be off somewhere.	2136002	1471979305373	1471979305486	c	67
4200	44796	The volumes tie, so the pricing must be off somewhere.	The volumes tie, so the pricing must be off somewhere.	2136004	1471979305564	1471979305688	i	73
4200	44796	The volumes tie, so the pricing must be off somewhere.	The volumes tie, so the pricing must be off somewhere.	2136048	1471979305632	1471979305789	n	78
4200	44796	The volumes tie, so the pricing must be off somewhere.	The volumes tie, so the pricing must be off somewhere.	2136051	1471979305858	1471979305981	g	71
4200	44796	The volumes tie, so the pricing must be off somewhere.	The volumes tie, so the pricing must be off somewhere.	2136055	1471979306273	1471979306386	 	32
4200	44796	The volumes tie, so the pricing must be off somewhere.	The volumes tie, so the pricing must be off somewhere.	2136058	1471979306464	1471979306554	m	77
4200	44796	The volumes tie, so the pricing must be off somewhere.	The volumes tie, so the pricing must be off somewhere.	2136061	1471979306667	1471979306746	u	85
4200	44796	The volumes tie, so the pricing must be off somewhere.	The volumes tie, so the pricing must be off somewhere.	2136063	1471979306768	1471979306869	s	83
4200	44796	The volumes tie, so the pricing must be off somewhere.	The volumes tie, so the pricing must be off somewhere.	2136107	1471979306993	1471979307094	t	84
4200	44796	The volumes tie, so the pricing must be off somewhere.	The volumes tie, so the pricing must be off somewhere.	2136109	1471979307106	1471979307229	 	32
4200	44796	The volumes tie, so the pricing must be off somewhere.	The volumes tie, so the pricing must be off somewhere.	2136110	1471979307286	1471979307353	b	66
4200	44796	The volumes tie, so the pricing must be off somewhere.	The volumes tie, so the pricing must be off somewhere.	2136111	1471979307454	1471979307578	e	69
4200	44796	The volumes tie, so the pricing must be off somewhere.	The volumes tie, so the pricing must be off somewhere.	2136112	1471979307974	1471979308073	 	32
4200	44796	The volumes tie, so the pricing must be off somewhere.	The volumes tie, so the pricing must be off somewhere.	2136145	1471979308118	1471979308231	o	79
4200	44796	The volumes tie, so the pricing must be off somewhere.	The volumes tie, so the pricing must be off somewhere.	2136147	1471979308310	1471979308377	f	70
4200	44796	The volumes tie, so the pricing must be off somewhere.	The volumes tie, so the pricing must be off somewhere.	2136149	1471979308456	1471979308534	f	70
4200	44796	The volumes tie, so the pricing must be off somewhere.	The volumes tie, so the pricing must be off somewhere.	2136153	1471979308636	1471979308692	 	32
4200	44796	The volumes tie, so the pricing must be off somewhere.	The volumes tie, so the pricing must be off somewhere.	2136157	1471979308782	1471979308917	s	83
4200	44796	The volumes tie, so the pricing must be off somewhere.	The volumes tie, so the pricing must be off somewhere.	2136262	1471979308906	1471979309052	o	79
4200	44796	The volumes tie, so the pricing must be off somewhere.	The volumes tie, so the pricing must be off somewhere.	2136266	1471979309074	1471979309187	m	77
4200	44796	The volumes tie, so the pricing must be off somewhere.	The volumes tie, so the pricing must be off somewhere.	2136271	1471979309142	1471979309243	e	69
4200	44796	The volumes tie, so the pricing must be off somewhere.	The volumes tie, so the pricing must be off somewhere.	2136276	1471979309649	1471979309750	h	72
4200	44796	The volumes tie, so the pricing must be off somewhere.	The volumes tie, so the pricing must be off somewhere.	2136280	1471979310110	1471979310211	BKSP	8
4200	44796	The volumes tie, so the pricing must be off somewhere.	The volumes tie, so the pricing must be off somewhere.	2136283	1471979311012	1471979311132	w	87
4200	44796	The volumes tie, so the pricing must be off somewhere.	The volumes tie, so the pricing must be off somewhere.	2136286	1471979311178	1471979311246	h	72
4200	44796	The volumes tie, so the pricing must be off somewhere.	The volumes tie, so the pricing must be off somewhere.	2136352	1471979311718	1471979311865	e	69
4200	44796	The volumes tie, so the pricing must be off somewhere.	The volumes tie, so the pricing must be off somewhere.	2136356	1471979311797	1471979311898	r	82
4200	44796	The volumes tie, so the pricing must be off somewhere.	The volumes tie, so the pricing must be off somewhere.	2136358	1471979311955	1471979312033	e	69
4200	44796	The volumes tie, so the pricing must be off somewhere.	The volumes tie, so the pricing must be off somewhere.	2136361	1471979312427	1471979312551	.	190
4200	44809	My husband and I are on a waiting list to give blood.	My husband and I are on a waiting list to give blood.	2136440	1471979314610	1471979314812	SHIFT	16
4200	44809	My husband and I are on a waiting list to give blood.	My husband and I are on a waiting list to give blood.	2136442	1471979314700	1471979314823	M	77
4200	44809	My husband and I are on a waiting list to give blood.	My husband and I are on a waiting list to give blood.	2136444	1471979314947	1471979315049	y	89
4200	44809	My husband and I are on a waiting list to give blood.	My husband and I are on a waiting list to give blood.	2136446	1471979315183	1471979315273	 	32
4200	44809	My husband and I are on a waiting list to give blood.	My husband and I are on a waiting list to give blood.	2136450	1471979315330	1471979315408	h	72
4200	44809	My husband and I are on a waiting list to give blood.	My husband and I are on a waiting list to give blood.	2136453	1471979315521	1471979315600	u	85
4200	44809	My husband and I are on a waiting list to give blood.	My husband and I are on a waiting list to give blood.	2136484	1471979315656	1471979315757	s	83
4200	44809	My husband and I are on a waiting list to give blood.	My husband and I are on a waiting list to give blood.	2136488	1471979315892	1471979315982	b	66
4200	44809	My husband and I are on a waiting list to give blood.	My husband and I are on a waiting list to give blood.	2136491	1471979316050	1471979316172	a	65
4200	44809	My husband and I are on a waiting list to give blood.	My husband and I are on a waiting list to give blood.	2136496	1471979316151	1471979316252	n	78
4200	44809	My husband and I are on a waiting list to give blood.	My husband and I are on a waiting list to give blood.	2136499	1471979316263	1471979316382	d	68
4200	44809	My husband and I are on a waiting list to give blood.	My husband and I are on a waiting list to give blood.	2136547	1471979316331	1471979316455	 	32
4200	44809	My husband and I are on a waiting list to give blood.	My husband and I are on a waiting list to give blood.	2136552	1471979316522	1471979316623	a	65
4200	44809	My husband and I are on a waiting list to give blood.	My husband and I are on a waiting list to give blood.	2136557	1471979316635	1471979316757	n	78
4200	44809	My husband and I are on a waiting list to give blood.	My husband and I are on a waiting list to give blood.	2136561	1471979316736	1471979316826	d	68
4200	44809	My husband and I are on a waiting list to give blood.	My husband and I are on a waiting list to give blood.	2136567	1471979316972	1471979317096	 	32
4200	44809	My husband and I are on a waiting list to give blood.	My husband and I are on a waiting list to give blood.	2136610	1471979317557	1471979317760	SHIFT	16
4200	44809	My husband and I are on a waiting list to give blood.	My husband and I are on a waiting list to give blood.	2136575	1471979317658	1471979317737	I	73
4200	44809	My husband and I are on a waiting list to give blood.	My husband and I are on a waiting list to give blood.	2136615	1471979317827	1471979317928	 	32
4200	44809	My husband and I are on a waiting list to give blood.	My husband and I are on a waiting list to give blood.	2136622	1471979317940	1471979318030	a	65
4200	44809	My husband and I are on a waiting list to give blood.	My husband and I are on a waiting list to give blood.	2136627	1471979318142	1471979318254	r	82
4200	44809	My husband and I are on a waiting list to give blood.	My husband and I are on a waiting list to give blood.	2136632	1471979318232	1471979318367	e	69
4200	44809	My husband and I are on a waiting list to give blood.	My husband and I are on a waiting list to give blood.	2136636	1471979318457	1471979318581	 	32
4200	44809	My husband and I are on a waiting list to give blood.	My husband and I are on a waiting list to give blood.	2136650	1471979318603	1471979318749	o	79
4200	44809	My husband and I are on a waiting list to give blood.	My husband and I are on a waiting list to give blood.	2136652	1471979318727	1471979318851	n	78
4200	44809	My husband and I are on a waiting list to give blood.	My husband and I are on a waiting list to give blood.	2136656	1471979318874	1471979318986	 	32
4200	44809	My husband and I are on a waiting list to give blood.	My husband and I are on a waiting list to give blood.	2136660	1471979319009	1471979319132	a	65
4200	44809	My husband and I are on a waiting list to give blood.	My husband and I are on a waiting list to give blood.	2136665	1471979319155	1471979319256	 	32
4200	44809	My husband and I are on a waiting list to give blood.	My husband and I are on a waiting list to give blood.	2136708	1471979319357	1471979319470	w	87
4200	44809	My husband and I are on a waiting list to give blood.	My husband and I are on a waiting list to give blood.	2136710	1471979319571	1471979319706	a	65
4200	44809	My husband and I are on a waiting list to give blood.	My husband and I are on a waiting list to give blood.	2136712	1471979319728	1471979319796	i	73
4200	44809	My husband and I are on a waiting list to give blood.	My husband and I are on a waiting list to give blood.	2136714	1471979320100	1471979320235	t	84
4200	44809	My husband and I are on a waiting list to give blood.	My husband and I are on a waiting list to give blood.	2136716	1471979320246	1471979320404	i	73
4200	44809	My husband and I are on a waiting list to give blood.	My husband and I are on a waiting list to give blood.	2136753	1471979320325	1471979320437	n	78
4200	44809	My husband and I are on a waiting list to give blood.	My husband and I are on a waiting list to give blood.	2136757	1471979320505	1471979320617	g	71
4200	44809	My husband and I are on a waiting list to give blood.	My husband and I are on a waiting list to give blood.	2136759	1471979320786	1471979320910	 	32
4200	44809	My husband and I are on a waiting list to give blood.	My husband and I are on a waiting list to give blood.	2136761	1471979320944	1471979321021	l	76
4200	44809	My husband and I are on a waiting list to give blood.	My husband and I are on a waiting list to give blood.	2136763	1471979321112	1471979321202	i	73
4200	44809	My husband and I are on a waiting list to give blood.	My husband and I are on a waiting list to give blood.	2136765	1471979321259	1471979321360	s	83
4200	44809	My husband and I are on a waiting list to give blood.	My husband and I are on a waiting list to give blood.	2136801	1471979321484	1471979321585	t	84
4200	44809	My husband and I are on a waiting list to give blood.	My husband and I are on a waiting list to give blood.	2136808	1471979321607	1471979321731	 	32
4200	44809	My husband and I are on a waiting list to give blood.	My husband and I are on a waiting list to give blood.	2136813	1471979321799	1471979321933	t	84
4200	44809	My husband and I are on a waiting list to give blood.	My husband and I are on a waiting list to give blood.	2136819	1471979321911	1471979322013	o	79
4200	44809	My husband and I are on a waiting list to give blood.	My husband and I are on a waiting list to give blood.	2136824	1471979322035	1471979322147	 	32
4200	44809	My husband and I are on a waiting list to give blood.	My husband and I are on a waiting list to give blood.	2136860	1471979322226	1471979322331	g	71
4200	44809	My husband and I are on a waiting list to give blood.	My husband and I are on a waiting list to give blood.	2136863	1471979322316	1471979322429	i	73
4200	44809	My husband and I are on a waiting list to give blood.	My husband and I are on a waiting list to give blood.	2136866	1471979322485	1471979322586	v	86
4200	44809	My husband and I are on a waiting list to give blood.	My husband and I are on a waiting list to give blood.	2136870	1471979322687	1471979322800	e	69
4200	44809	My husband and I are on a waiting list to give blood.	My husband and I are on a waiting list to give blood.	2136872	1471979323104	1471979323239	 	32
4200	44809	My husband and I are on a waiting list to give blood.	My husband and I are on a waiting list to give blood.	2136941	1471979323599	1471979323689	b	66
4200	44809	My husband and I are on a waiting list to give blood.	My husband and I are on a waiting list to give blood.	2136943	1471979323835	1471979323925	l	76
4200	44809	My husband and I are on a waiting list to give blood.	My husband and I are on a waiting list to give blood.	2136946	1471979324071	1471979324116	o	79
4200	44809	My husband and I are on a waiting list to give blood.	My husband and I are on a waiting list to give blood.	2136948	1471979324195	1471979324274	o	79
4200	44809	My husband and I are on a waiting list to give blood.	My husband and I are on a waiting list to give blood.	2136950	1471979324386	1471979324487	d	68
4200	44809	My husband and I are on a waiting list to give blood.	My husband and I are on a waiting list to give blood.	2136966	1471979324814	1471979324926	.	190
