PARTICIPANT_ID	TEST_SECTION_ID	SENTENCE	USER_INPUT	KEYSTROKE_ID	PRESS_TIME	RELEASE_TIME	LETTER	KEYCODE
4215	44849	Michael was great this AM.	Michael was great this AM.	2138683	1471979364034	1471979364263	SHIFT	16
4215	44849	Michael was great this AM.	Michael was great this AM.	2138679	1471979364137	1471979364239	M	77
4215	44849	Michael was great this AM.	Michael was great this AM.	2138687	1471979364338	1471979364420	i	73
4215	44849	Michael was great this AM.	Michael was great this AM.	2138691	1471979364562	1471979364670	c	67
4215	44849	Michael was great this AM.	Michael was great this AM.	2138696	1471979364658	1471979364729	h	72
4215	44849	Michael was great this AM.	Michael was great this AM.	2138702	1471979364991	1471979365109	a	65
4215	44849	Michael was great this AM.	Michael was great this AM.	2138711	1471979365116	1471979365198	e	69
4215	44849	Michael was great this AM.	Michael was great this AM.	2138712	1471979365187	1471979365294	l	76
4215	44849	Michael was great this AM.	Michael was great this AM.	2138713	1471979365343	1471979365439	 	32
4215	44849	Michael was great this AM.	Michael was great this AM.	2138714	1471979365413	1471979365490	w	87
4215	44849	Michael was great this AM.	Michael was great this AM.	2138715	1471979365584	1471979365660	a	65
4215	44849	Michael was great this AM.	Michael was great this AM.	2138729	1471979365648	1471979365804	s	83
4215	44849	Michael was great this AM.	Michael was great this AM.	2138731	1471979365746	1471979365844	 	32
4215	44849	Michael was great this AM.	Michael was great this AM.	2138736	1471979365851	1471979365893	g	71
4215	44849	Michael was great this AM.	Michael was great this AM.	2138743	1471979365969	1471979366078	r	82
4215	44849	Michael was great this AM.	Michael was great this AM.	2138747	1471979365997	1471979366128	e	69
4215	44849	Michael was great this AM.	Michael was great this AM.	2138759	1471979366090	1471979366222	a	65
4215	44849	Michael was great this AM.	Michael was great this AM.	2138761	1471979366165	1471979366272	t	84
4215	44849	Michael was great this AM.	Michael was great this AM.	2138767	1471979366251	1471979366312	 	32
4215	44849	Michael was great this AM.	Michael was great this AM.	2138772	1471979366351	1471979366453	t	84
4215	44849	Michael was great this AM.	Michael was great this AM.	2138776	1471979366440	1471979366543	h	72
4215	44849	Michael was great this AM.	Michael was great this AM.	2138821	1471979366505	1471979366636	i	73
4215	44849	Michael was great this AM.	Michael was great this AM.	2138824	1471979366581	1471979366692	s	83
4215	44849	Michael was great this AM.	Michael was great this AM.	2138826	1471979366671	1471979366766	 	32
4215	44849	Michael was great this AM.	Michael was great this AM.	2138842	1471979366964	1471979367954	SHIFT	16
4215	44849	Michael was great this AM.	Michael was great this AM.	2138833	1471979367111	1471979367234	A	65
4215	44849	Michael was great this AM.	Michael was great this AM.	2138836	1471979367281	1471979367354	M	77
4215	44849	Michael was great this AM.	Michael was great this AM.	2138838	1471979367779	1471979367834	.	190
4215	44858	I have a touch of food poisoning this morning but I may be in later.	I have a touch of food poisoning this morning but I may be in later.	2139174	1471979376466	1471979376628	SHIFT	16
4215	44858	I have a touch of food poisoning this morning but I may be in later.	I have a touch of food poisoning this morning but I may be in later.	2139170	1471979376536	1471979376613	I	73
4215	44858	I have a touch of food poisoning this morning but I may be in later.	I have a touch of food poisoning this morning but I may be in later.	2139178	1471979376717	1471979376799	 	32
4215	44858	I have a touch of food poisoning this morning but I may be in later.	I have a touch of food poisoning this morning but I may be in later.	2139182	1471979376813	1471979376888	h	72
4215	44858	I have a touch of food poisoning this morning but I may be in later.	I have a touch of food poisoning this morning but I may be in later.	2139185	1471979376911	1471979376998	a	65
4215	44858	I have a touch of food poisoning this morning but I may be in later.	I have a touch of food poisoning this morning but I may be in later.	2139205	1471979376977	1471979377099	v	86
4215	44858	I have a touch of food poisoning this morning but I may be in later.	I have a touch of food poisoning this morning but I may be in later.	2139207	1471979377061	1471979377168	e	69
4215	44858	I have a touch of food poisoning this morning but I may be in later.	I have a touch of food poisoning this morning but I may be in later.	2139210	1471979377154	1471979377214	 	32
4215	44858	I have a touch of food poisoning this morning but I may be in later.	I have a touch of food poisoning this morning but I may be in later.	2139213	1471979377268	1471979377304	t	84
4215	44858	I have a touch of food poisoning this morning but I may be in later.	I have a touch of food poisoning this morning but I may be in later.	2139216	1471979377522	1471979377600	BKSP	8
4215	44858	I have a touch of food poisoning this morning but I may be in later.	I have a touch of food poisoning this morning but I may be in later.	2139218	1471979377578	1471979377640	a	65
4215	44858	I have a touch of food poisoning this morning but I may be in later.	I have a touch of food poisoning this morning but I may be in later.	2139220	1471979377728	1471979377795	 	32
4215	44858	I have a touch of food poisoning this morning but I may be in later.	I have a touch of food poisoning this morning but I may be in later.	2139240	1471979377818	1471979377892	t	84
4215	44858	I have a touch of food poisoning this morning but I may be in later.	I have a touch of food poisoning this morning but I may be in later.	2139244	1471979378057	1471979378170	o	79
4215	44858	I have a touch of food poisoning this morning but I may be in later.	I have a touch of food poisoning this morning but I may be in later.	2139251	1471979378128	1471979378224	u	85
4215	44858	I have a touch of food poisoning this morning but I may be in later.	I have a touch of food poisoning this morning but I may be in later.	2139255	1471979378208	1471979378310	c	67
4215	44858	I have a touch of food poisoning this morning but I may be in later.	I have a touch of food poisoning this morning but I may be in later.	2139261	1471979378323	1471979378392	h	72
4215	44858	I have a touch of food poisoning this morning but I may be in later.	I have a touch of food poisoning this morning but I may be in later.	2139270	1471979378399	1471979378476	 	32
4215	44858	I have a touch of food poisoning this morning but I may be in later.	I have a touch of food poisoning this morning but I may be in later.	2139274	1471979378516	1471979378588	o	79
4215	44858	I have a touch of food poisoning this morning but I may be in later.	I have a touch of food poisoning this morning but I may be in later.	2139280	1471979378571	1471979378653	f	70
4215	44858	I have a touch of food poisoning this morning but I may be in later.	I have a touch of food poisoning this morning but I may be in later.	2139284	1471979378631	1471979378719	 	32
4215	44858	I have a touch of food poisoning this morning but I may be in later.	I have a touch of food poisoning this morning but I may be in later.	2139290	1471979378737	1471979378810	f	70
4215	44858	I have a touch of food poisoning this morning but I may be in later.	I have a touch of food poisoning this morning but I may be in later.	2139295	1471979378852	1471979378923	o	79
4215	44858	I have a touch of food poisoning this morning but I may be in later.	I have a touch of food poisoning this morning but I may be in later.	2139298	1471979378966	1471979379058	o	79
4215	44858	I have a touch of food poisoning this morning but I may be in later.	I have a touch of food poisoning this morning but I may be in later.	2139301	1471979379036	1471979379128	d	68
4215	44858	I have a touch of food poisoning this morning but I may be in later.	I have a touch of food poisoning this morning but I may be in later.	2139303	1471979379090	1471979379203	 	32
4215	44858	I have a touch of food poisoning this morning but I may be in later.	I have a touch of food poisoning this morning but I may be in later.	2139321	1471979379190	1471979379279	p	80
4215	44858	I have a touch of food poisoning this morning but I may be in later.	I have a touch of food poisoning this morning but I may be in later.	2139325	1471979379378	1471979379525	o	79
4215	44858	I have a touch of food poisoning this morning but I may be in later.	I have a touch of food poisoning this morning but I may be in later.	2139328	1471979379448	1471979379569	i	73
4215	44858	I have a touch of food poisoning this morning but I may be in later.	I have a touch of food poisoning this morning but I may be in later.	2139330	1471979379593	1471979379696	s	83
4215	44858	I have a touch of food poisoning this morning but I may be in later.	I have a touch of food poisoning this morning but I may be in later.	2139334	1471979379790	1471979379877	o	79
4215	44858	I have a touch of food poisoning this morning but I may be in later.	I have a touch of food poisoning this morning but I may be in later.	2139337	1471979379906	1471979379969	n	78
4215	44858	I have a touch of food poisoning this morning but I may be in later.	I have a touch of food poisoning this morning but I may be in later.	2139352	1471979380033	1471979380134	i	73
4215	44858	I have a touch of food poisoning this morning but I may be in later.	I have a touch of food poisoning this morning but I may be in later.	2139356	1471979380092	1471979380204	n	78
4215	44858	I have a touch of food poisoning this morning but I may be in later.	I have a touch of food poisoning this morning but I may be in later.	2139359	1471979380170	1471979380249	g	71
4215	44858	I have a touch of food poisoning this morning but I may be in later.	I have a touch of food poisoning this morning but I may be in later.	2139361	1471979380268	1471979380349	 	32
4215	44858	I have a touch of food poisoning this morning but I may be in later.	I have a touch of food poisoning this morning but I may be in later.	2139362	1471979380373	1471979380441	t	84
4215	44858	I have a touch of food poisoning this morning but I may be in later.	I have a touch of food poisoning this morning but I may be in later.	2139376	1471979380428	1471979380540	h	72
4215	44858	I have a touch of food poisoning this morning but I may be in later.	I have a touch of food poisoning this morning but I may be in later.	2139377	1471979380498	1471979380610	i	73
4215	44858	I have a touch of food poisoning this morning but I may be in later.	I have a touch of food poisoning this morning but I may be in later.	2139380	1471979380558	1471979380659	s	83
4215	44858	I have a touch of food poisoning this morning but I may be in later.	I have a touch of food poisoning this morning but I may be in later.	2139383	1471979380628	1471979380715	 	32
4215	44858	I have a touch of food poisoning this morning but I may be in later.	I have a touch of food poisoning this morning but I may be in later.	2139386	1471979380764	1471979380826	m	77
4215	44858	I have a touch of food poisoning this morning but I may be in later.	I have a touch of food poisoning this morning but I may be in later.	2139389	1471979380889	1471979380970	o	79
4215	44858	I have a touch of food poisoning this morning but I may be in later.	I have a touch of food poisoning this morning but I may be in later.	2139408	1471979380951	1471979381025	r	82
4215	44858	I have a touch of food poisoning this morning but I may be in later.	I have a touch of food poisoning this morning but I may be in later.	2139410	1471979381069	1471979381135	n	78
4215	44858	I have a touch of food poisoning this morning but I may be in later.	I have a touch of food poisoning this morning but I may be in later.	2139413	1471979381143	1471979381257	i	73
4215	44858	I have a touch of food poisoning this morning but I may be in later.	I have a touch of food poisoning this morning but I may be in later.	2139416	1471979381232	1471979381312	n	78
4215	44858	I have a touch of food poisoning this morning but I may be in later.	I have a touch of food poisoning this morning but I may be in later.	2139419	1471979381299	1471979381381	g	71
4215	44858	I have a touch of food poisoning this morning but I may be in later.	I have a touch of food poisoning this morning but I may be in later.	2139424	1471979381430	1471979381522	 	32
4215	44858	I have a touch of food poisoning this morning but I may be in later.	I have a touch of food poisoning this morning but I may be in later.	2139447	1471979381641	1471979381678	b	66
4215	44858	I have a touch of food poisoning this morning but I may be in later.	I have a touch of food poisoning this morning but I may be in later.	2139448	1471979381707	1471979381788	u	85
4215	44858	I have a touch of food poisoning this morning but I may be in later.	I have a touch of food poisoning this morning but I may be in later.	2139450	1471979381807	1471979381874	t	84
4215	44858	I have a touch of food poisoning this morning but I may be in later.	I have a touch of food poisoning this morning but I may be in later.	2139452	1471979381862	1471979381943	 	32
4215	44858	I have a touch of food poisoning this morning but I may be in later.	I have a touch of food poisoning this morning but I may be in later.	2139456	1471979382054	1471979382204	SHIFT	16
4215	44858	I have a touch of food poisoning this morning but I may be in later.	I have a touch of food poisoning this morning but I may be in later.	2139490	1471979382159	1471979382219	I	73
4215	44858	I have a touch of food poisoning this morning but I may be in later.	I have a touch of food poisoning this morning but I may be in later.	2139493	1471979382649	1471979382740	 	32
4215	44858	I have a touch of food poisoning this morning but I may be in later.	I have a touch of food poisoning this morning but I may be in later.	2139495	1471979382889	1471979382984	m	77
4215	44858	I have a touch of food poisoning this morning but I may be in later.	I have a touch of food poisoning this morning but I may be in later.	2139498	1471979383041	1471979383119	a	65
4215	44858	I have a touch of food poisoning this morning but I may be in later.	I have a touch of food poisoning this morning but I may be in later.	2139500	1471979383126	1471979383178	y	89
4215	44858	I have a touch of food poisoning this morning but I may be in later.	I have a touch of food poisoning this morning but I may be in later.	2139501	1471979383214	1471979383283	 	32
4215	44858	I have a touch of food poisoning this morning but I may be in later.	I have a touch of food poisoning this morning but I may be in later.	2139507	1471979383329	1471979383385	b	66
4215	44858	I have a touch of food poisoning this morning but I may be in later.	I have a touch of food poisoning this morning but I may be in later.	2139509	1471979383419	1471979383513	e	69
4215	44858	I have a touch of food poisoning this morning but I may be in later.	I have a touch of food poisoning this morning but I may be in later.	2139512	1471979383535	1471979383607	 	32
4215	44858	I have a touch of food poisoning this morning but I may be in later.	I have a touch of food poisoning this morning but I may be in later.	2139514	1471979383625	1471979383708	i	73
4215	44858	I have a touch of food poisoning this morning but I may be in later.	I have a touch of food poisoning this morning but I may be in later.	2139530	1471979383655	1471979383768	n	78
4215	44858	I have a touch of food poisoning this morning but I may be in later.	I have a touch of food poisoning this morning but I may be in later.	2139531	1471979383741	1471979383818	 	32
4215	44858	I have a touch of food poisoning this morning but I may be in later.	I have a touch of food poisoning this morning but I may be in later.	2139532	1471979383887	1471979383964	l	76
4215	44858	I have a touch of food poisoning this morning but I may be in later.	I have a touch of food poisoning this morning but I may be in later.	2139533	1471979383946	1471979384062	a	65
4215	44858	I have a touch of food poisoning this morning but I may be in later.	I have a touch of food poisoning this morning but I may be in later.	2139534	1471979384026	1471979384092	t	84
4215	44858	I have a touch of food poisoning this morning but I may be in later.	I have a touch of food poisoning this morning but I may be in later.	2139535	1471979384122	1471979384213	e	69
4215	44858	I have a touch of food poisoning this morning but I may be in later.	I have a touch of food poisoning this morning but I may be in later.	2139559	1471979384156	1471979384233	r	82
4215	44858	I have a touch of food poisoning this morning but I may be in later.	I have a touch of food poisoning this morning but I may be in later.	2139566	1471979384276	1471979384419	SHIFT	16
4215	44858	I have a touch of food poisoning this morning but I may be in later.	I have a touch of food poisoning this morning but I may be in later.	2139563	1471979384351	1471979384408	.	190
4215	44873	See client Help for more information.	See client Help for more information.	2139703	1471979387919	1471979388135	SHIFT	16
4215	44873	See client Help for more information.	See client Help for more information.	2139704	1471979388049	1471979388155	S	83
4215	44873	See client Help for more information.	See client Help for more information.	2139706	1471979388254	1471979388296	e	69
4215	44873	See client Help for more information.	See client Help for more information.	2139708	1471979388387	1471979388423	e	69
4215	44873	See client Help for more information.	See client Help for more information.	2139711	1471979388522	1471979388608	 	32
4215	44873	See client Help for more information.	See client Help for more information.	2139714	1471979388667	1471979388729	c	67
4215	44873	See client Help for more information.	See client Help for more information.	2139723	1471979388793	1471979388876	l	76
4215	44873	See client Help for more information.	See client Help for more information.	2139725	1471979388838	1471979388935	i	73
4215	44873	See client Help for more information.	See client Help for more information.	2139727	1471979388907	1471979388964	e	69
4215	44873	See client Help for more information.	See client Help for more information.	2139730	1471979389013	1471979389092	n	78
4215	44873	See client Help for more information.	See client Help for more information.	2139735	1471979389100	1471979389155	t	84
4215	44873	See client Help for more information.	See client Help for more information.	2139750	1471979389178	1471979389282	 	32
4215	44873	See client Help for more information.	See client Help for more information.	2139756	1471979389264	1471979389436	SHIFT	16
4215	44873	See client Help for more information.	See client Help for more information.	2139753	1471979389338	1471979389396	H	72
4215	44873	See client Help for more information.	See client Help for more information.	2139762	1471979389574	1471979389636	e	69
4215	44873	See client Help for more information.	See client Help for more information.	2139766	1471979389644	1471979389786	l	76
4215	44873	See client Help for more information.	See client Help for more information.	2139775	1471979389744	1471979389856	p	80
4215	44873	See client Help for more information.	See client Help for more information.	2139776	1471979389890	1471979389967	 	32
4215	44873	See client Help for more information.	See client Help for more information.	2139777	1471979389990	1471979390052	f	70
4215	44873	See client Help for more information.	See client Help for more information.	2139779	1471979390112	1471979390170	o	79
4215	44873	See client Help for more information.	See client Help for more information.	2139782	1471979390158	1471979390241	r	82
4215	44873	See client Help for more information.	See client Help for more information.	2139785	1471979390259	1471979390354	 	32
4215	44873	See client Help for more information.	See client Help for more information.	2139804	1471979390294	1471979390364	m	77
4215	44873	See client Help for more information.	See client Help for more information.	2139805	1471979390447	1471979390523	o	79
4215	44873	See client Help for more information.	See client Help for more information.	2139807	1471979390532	1471979390613	r	82
4215	44873	See client Help for more information.	See client Help for more information.	2139809	1471979390577	1471979390658	e	69
4215	44873	See client Help for more information.	See client Help for more information.	2139811	1471979390727	1471979390838	 	32
4215	44873	See client Help for more information.	See client Help for more information.	2139814	1471979390846	1471979390948	i	73
4215	44873	See client Help for more information.	See client Help for more information.	2139826	1471979390891	1471979390989	n	78
4215	44873	See client Help for more information.	See client Help for more information.	2139828	1471979390972	1471979391039	f	70
4215	44873	See client Help for more information.	See client Help for more information.	2139829	1471979391071	1471979391161	o	79
4215	44873	See client Help for more information.	See client Help for more information.	2139832	1471979391150	1471979391242	r	82
4215	44873	See client Help for more information.	See client Help for more information.	2139835	1471979391250	1471979391342	m	77
4215	44873	See client Help for more information.	See client Help for more information.	2139839	1471979391350	1471979391451	a	65
4215	44873	See client Help for more information.	See client Help for more information.	2139900	1471979391407	1471979391491	t	84
4215	44873	See client Help for more information.	See client Help for more information.	2139904	1471979391514	1471979391591	i	73
4215	44873	See client Help for more information.	See client Help for more information.	2139906	1471979391535	1471979391651	o	79
4215	44873	See client Help for more information.	See client Help for more information.	2139909	1471979391610	1471979391707	n	78
4215	44873	See client Help for more information.	See client Help for more information.	2139914	1471979391720	1471979391923	SHIFT	16
4215	44873	See client Help for more information.	See client Help for more information.	2139911	1471979391825	1471979391892	.	190
4215	44878	It's all about making the whole story public.	It's all about making the whole story public.	2140100	1471979396745	1471979396967	SHIFT	16
4215	44878	It's all about making the whole story public.	It's all about making the whole story public.	2140096	1471979396870	1471979396947	I	73
4215	44878	It's all about making the whole story public.	It's all about making the whole story public.	2140104	1471979397055	1471979397123	t	84
4215	44878	It's all about making the whole story public.	It's all about making the whole story public.	2140110	1471979397207	1471979397331	'	52
4215	44878	It's all about making the whole story public.	It's all about making the whole story public.	2140117	1471979397298	1471979397395	s	83
4215	44878	It's all about making the whole story public.	It's all about making the whole story public.	2140123	1471979397403	1471979397491	 	32
4215	44878	It's all about making the whole story public.	It's all about making the whole story public.	2140133	1471979397525	1471979397591	a	65
4215	44878	It's all about making the whole story public.	It's all about making the whole story public.	2140134	1471979397631	1471979397678	l	76
4215	44878	It's all about making the whole story public.	It's all about making the whole story public.	2140135	1471979397731	1471979397807	l	76
4215	44878	It's all about making the whole story public.	It's all about making the whole story public.	2140136	1471979397795	1471979397863	 	32
4215	44878	It's all about making the whole story public.	It's all about making the whole story public.	2140137	1471979397931	1471979398048	a	65
4215	44878	It's all about making the whole story public.	It's all about making the whole story public.	2140152	1471979398036	1471979398102	b	66
4215	44878	It's all about making the whole story public.	It's all about making the whole story public.	2140154	1471979398126	1471979398245	o	79
4215	44878	It's all about making the whole story public.	It's all about making the whole story public.	2140157	1471979398193	1471979398301	u	85
4215	44878	It's all about making the whole story public.	It's all about making the whole story public.	2140160	1471979398253	1471979398319	t	84
4215	44878	It's all about making the whole story public.	It's all about making the whole story public.	2140162	1471979398307	1471979398389	 	32
4215	44878	It's all about making the whole story public.	It's all about making the whole story public.	2140166	1471979398403	1471979398486	m	77
4215	44878	It's all about making the whole story public.	It's all about making the whole story public.	2140180	1471979398468	1471979398539	a	65
4215	44878	It's all about making the whole story public.	It's all about making the whole story public.	2140182	1471979398573	1471979398625	k	75
4215	44878	It's all about making the whole story public.	It's all about making the whole story public.	2140186	1471979398708	1471979398840	i	73
4215	44878	It's all about making the whole story public.	It's all about making the whole story public.	2140187	1471979398757	1471979398864	n	78
4215	44878	It's all about making the whole story public.	It's all about making the whole story public.	2140189	1471979398823	1471979398890	g	71
4215	44878	It's all about making the whole story public.	It's all about making the whole story public.	2140191	1471979398897	1471979398990	 	32
4215	44878	It's all about making the whole story public.	It's all about making the whole story public.	2140195	1471979399013	1471979399080	t	84
4215	44878	It's all about making the whole story public.	It's all about making the whole story public.	2140197	1471979399063	1471979399131	h	72
4215	44878	It's all about making the whole story public.	It's all about making the whole story public.	2140198	1471979399164	1471979399256	e	69
4215	44878	It's all about making the whole story public.	It's all about making the whole story public.	2140199	1471979399231	1471979399315	 	32
4215	44878	It's all about making the whole story public.	It's all about making the whole story public.	2140201	1471979399303	1471979399395	w	87
4215	44878	It's all about making the whole story public.	It's all about making the whole story public.	2140204	1471979399363	1471979399449	h	72
4215	44878	It's all about making the whole story public.	It's all about making the whole story public.	2140206	1471979399423	1471979399503	o	79
4215	44878	It's all about making the whole story public.	It's all about making the whole story public.	2140208	1471979399572	1471979399639	l	76
4215	44878	It's all about making the whole story public.	It's all about making the whole story public.	2140210	1471979399647	1471979399728	e	69
4215	44878	It's all about making the whole story public.	It's all about making the whole story public.	2140228	1471979399716	1471979399794	 	32
4215	44878	It's all about making the whole story public.	It's all about making the whole story public.	2140231	1471979399937	1471979399969	t	84
4215	44878	It's all about making the whole story public.	It's all about making the whole story public.	2140234	1471979400223	1471979400290	BKSP	8
4215	44878	It's all about making the whole story public.	It's all about making the whole story public.	2140236	1471979400279	1471979400376	s	83
4215	44878	It's all about making the whole story public.	It's all about making the whole story public.	2140239	1471979400334	1471979400412	t	84
4215	44878	It's all about making the whole story public.	It's all about making the whole story public.	2140242	1471979400436	1471979400506	o	79
4215	44878	It's all about making the whole story public.	It's all about making the whole story public.	2140243	1471979400549	1471979400615	r	82
4215	44878	It's all about making the whole story public.	It's all about making the whole story public.	2140263	1471979400639	1471979400712	y	89
4215	44878	It's all about making the whole story public.	It's all about making the whole story public.	2140265	1471979400815	1471979400911	 	32
4215	44878	It's all about making the whole story public.	It's all about making the whole story public.	2140266	1471979400996	1471979401118	p	80
4215	44878	It's all about making the whole story public.	It's all about making the whole story public.	2140268	1471979401105	1471979401183	u	85
4215	44878	It's all about making the whole story public.	It's all about making the whole story public.	2140270	1471979401216	1471979401297	b	66
4215	44878	It's all about making the whole story public.	It's all about making the whole story public.	2140290	1471979401314	1471979401431	l	76
4215	44878	It's all about making the whole story public.	It's all about making the whole story public.	2140293	1471979401384	1471979401481	i	73
4215	44878	It's all about making the whole story public.	It's all about making the whole story public.	2140296	1471979401449	1471979401519	c	67
4215	44878	It's all about making the whole story public.	It's all about making the whole story public.	2140299	1471979401582	1471979401715	SHIFT	16
4215	44878	It's all about making the whole story public.	It's all about making the whole story public.	2140298	1471979401618	1471979401675	.	190
4215	44886	Our schedule now calls for critical communication in the afternoons.	Our schedule now calls for critical communication in the afternoons.	2140491	1471979406619	1471979406766	SHIFT	16
4215	44886	Our schedule now calls for critical communication in the afternoons.	Our schedule now calls for critical communication in the afternoons.	2140488	1471979406704	1471979406755	O	79
4215	44886	Our schedule now calls for critical communication in the afternoons.	Our schedule now calls for critical communication in the afternoons.	2140493	1471979406955	1471979407036	u	85
4215	44886	Our schedule now calls for critical communication in the afternoons.	Our schedule now calls for critical communication in the afternoons.	2140494	1471979407061	1471979407151	r	82
4215	44886	Our schedule now calls for critical communication in the afternoons.	Our schedule now calls for critical communication in the afternoons.	2140496	1471979407160	1471979407251	 	32
4215	44886	Our schedule now calls for critical communication in the afternoons.	Our schedule now calls for critical communication in the afternoons.	2140498	1471979407347	1471979407436	s	83
4215	44886	Our schedule now calls for critical communication in the afternoons.	Our schedule now calls for critical communication in the afternoons.	2140506	1471979407596	1471979407676	c	67
4215	44886	Our schedule now calls for critical communication in the afternoons.	Our schedule now calls for critical communication in the afternoons.	2140507	1471979407690	1471979407742	h	72
4215	44886	Our schedule now calls for critical communication in the afternoons.	Our schedule now calls for critical communication in the afternoons.	2140508	1471979407771	1471979407818	e	69
4215	44886	Our schedule now calls for critical communication in the afternoons.	Our schedule now calls for critical communication in the afternoons.	2140509	1471979407881	1471979407968	d	68
4215	44886	Our schedule now calls for critical communication in the afternoons.	Our schedule now calls for critical communication in the afternoons.	2140510	1471979407976	1471979408023	u	85
4215	44886	Our schedule now calls for critical communication in the afternoons.	Our schedule now calls for critical communication in the afternoons.	2140519	1471979408097	1471979408163	l	76
4215	44886	Our schedule now calls for critical communication in the afternoons.	Our schedule now calls for critical communication in the afternoons.	2140521	1471979408171	1471979408253	e	69
4215	44886	Our schedule now calls for critical communication in the afternoons.	Our schedule now calls for critical communication in the afternoons.	2140523	1471979408232	1471979408329	 	32
4215	44886	Our schedule now calls for critical communication in the afternoons.	Our schedule now calls for critical communication in the afternoons.	2140525	1471979408337	1471979408410	n	78
4215	44886	Our schedule now calls for critical communication in the afternoons.	Our schedule now calls for critical communication in the afternoons.	2140541	1471979408374	1471979408474	o	79
4215	44886	Our schedule now calls for critical communication in the afternoons.	Our schedule now calls for critical communication in the afternoons.	2140543	1471979408463	1471979408540	w	87
4215	44886	Our schedule now calls for critical communication in the afternoons.	Our schedule now calls for critical communication in the afternoons.	2140544	1471979408563	1471979408650	 	32
4215	44886	Our schedule now calls for critical communication in the afternoons.	Our schedule now calls for critical communication in the afternoons.	2140546	1471979408691	1471979408773	c	67
4215	44886	Our schedule now calls for critical communication in the afternoons.	Our schedule now calls for critical communication in the afternoons.	2140548	1471979408856	1471979408897	a	65
4215	44886	Our schedule now calls for critical communication in the afternoons.	Our schedule now calls for critical communication in the afternoons.	2140550	1471979408937	1471979408978	l	76
4215	44886	Our schedule now calls for critical communication in the afternoons.	Our schedule now calls for critical communication in the afternoons.	2140561	1471979409031	1471979409109	l	76
4215	44886	Our schedule now calls for critical communication in the afternoons.	Our schedule now calls for critical communication in the afternoons.	2140563	1471979409117	1471979409209	s	83
4215	44886	Our schedule now calls for critical communication in the afternoons.	Our schedule now calls for critical communication in the afternoons.	2140565	1471979409167	1471979409244	 	32
4215	44886	Our schedule now calls for critical communication in the afternoons.	Our schedule now calls for critical communication in the afternoons.	2140567	1471979409253	1471979409304	f	70
4215	44886	Our schedule now calls for critical communication in the afternoons.	Our schedule now calls for critical communication in the afternoons.	2140571	1471979409450	1471979409512	o	79
4215	44886	Our schedule now calls for critical communication in the afternoons.	Our schedule now calls for critical communication in the afternoons.	2140610	1471979409632	1471979409730	r	82
4215	44886	Our schedule now calls for critical communication in the afternoons.	Our schedule now calls for critical communication in the afternoons.	2140612	1471979409714	1471979409800	 	32
4215	44886	Our schedule now calls for critical communication in the afternoons.	Our schedule now calls for critical communication in the afternoons.	2140614	1471979410079	1471979410146	c	67
4215	44886	Our schedule now calls for critical communication in the afternoons.	Our schedule now calls for critical communication in the afternoons.	2140616	1471979410249	1471979410312	r	82
4215	44886	Our schedule now calls for critical communication in the afternoons.	Our schedule now calls for critical communication in the afternoons.	2140620	1471979410369	1471979410445	i	73
4215	44886	Our schedule now calls for critical communication in the afternoons.	Our schedule now calls for critical communication in the afternoons.	2140642	1471979410453	1471979410499	t	84
4215	44886	Our schedule now calls for critical communication in the afternoons.	Our schedule now calls for critical communication in the afternoons.	2140645	1471979410582	1471979410660	i	73
4215	44886	Our schedule now calls for critical communication in the afternoons.	Our schedule now calls for critical communication in the afternoons.	2140648	1471979410701	1471979410791	c	67
4215	44886	Our schedule now calls for critical communication in the afternoons.	Our schedule now calls for critical communication in the afternoons.	2140651	1471979410934	1471979411002	a	65
4215	44886	Our schedule now calls for critical communication in the afternoons.	Our schedule now calls for critical communication in the afternoons.	2140655	1471979411039	1471979411126	l	76
4215	44886	Our schedule now calls for critical communication in the afternoons.	Our schedule now calls for critical communication in the afternoons.	2140672	1471979411135	1471979411206	 	32
4215	44886	Our schedule now calls for critical communication in the afternoons.	Our schedule now calls for critical communication in the afternoons.	2140674	1471979411290	1471979411361	c	67
4215	44886	Our schedule now calls for critical communication in the afternoons.	Our schedule now calls for critical communication in the afternoons.	2140676	1471979411406	1471979411469	o	79
4215	44886	Our schedule now calls for critical communication in the afternoons.	Our schedule now calls for critical communication in the afternoons.	2140680	1471979411567	1471979411614	m	77
4215	44886	Our schedule now calls for critical communication in the afternoons.	Our schedule now calls for critical communication in the afternoons.	2140685	1471979411682	1471979411741	m	77
4215	44886	Our schedule now calls for critical communication in the afternoons.	Our schedule now calls for critical communication in the afternoons.	2140707	1471979411810	1471979411861	u	85
4215	44886	Our schedule now calls for critical communication in the afternoons.	Our schedule now calls for critical communication in the afternoons.	2140708	1471979411979	1471979412051	n	78
4215	44886	Our schedule now calls for critical communication in the afternoons.	Our schedule now calls for critical communication in the afternoons.	2140710	1471979412070	1471979412157	i	73
4215	44886	Our schedule now calls for critical communication in the afternoons.	Our schedule now calls for critical communication in the afternoons.	2140713	1471979412265	1471979412343	c	67
4215	44886	Our schedule now calls for critical communication in the afternoons.	Our schedule now calls for critical communication in the afternoons.	2140716	1471979412411	1471979412522	a	65
4215	44886	Our schedule now calls for critical communication in the afternoons.	Our schedule now calls for critical communication in the afternoons.	2140737	1471979412479	1471979412546	t	84
4215	44886	Our schedule now calls for critical communication in the afternoons.	Our schedule now calls for critical communication in the afternoons.	2140740	1471979412529	1471979412661	i	73
4215	44886	Our schedule now calls for critical communication in the afternoons.	Our schedule now calls for critical communication in the afternoons.	2140747	1471979412559	1471979412693	o	79
4215	44886	Our schedule now calls for critical communication in the afternoons.	Our schedule now calls for critical communication in the afternoons.	2140750	1471979412634	1471979412743	n	78
4215	44886	Our schedule now calls for critical communication in the afternoons.	Our schedule now calls for critical communication in the afternoons.	2140755	1471979412750	1471979412839	 	32
4215	44886	Our schedule now calls for critical communication in the afternoons.	Our schedule now calls for critical communication in the afternoons.	2140759	1471979412918	1471979413039	i	73
4215	44886	Our schedule now calls for critical communication in the afternoons.	Our schedule now calls for critical communication in the afternoons.	2140763	1471979412972	1471979413084	n	78
4215	44886	Our schedule now calls for critical communication in the afternoons.	Our schedule now calls for critical communication in the afternoons.	2140769	1471979413067	1471979413139	 	32
4215	44886	Our schedule now calls for critical communication in the afternoons.	Our schedule now calls for critical communication in the afternoons.	2140776	1471979413167	1471979413234	t	84
4215	44886	Our schedule now calls for critical communication in the afternoons.	Our schedule now calls for critical communication in the afternoons.	2140780	1471979413243	1471979413310	h	72
4215	44886	Our schedule now calls for critical communication in the afternoons.	Our schedule now calls for critical communication in the afternoons.	2140786	1471979413328	1471979413389	e	69
4215	44886	Our schedule now calls for critical communication in the afternoons.	Our schedule now calls for critical communication in the afternoons.	2140802	1471979413362	1471979413454	 	32
4215	44886	Our schedule now calls for critical communication in the afternoons.	Our schedule now calls for critical communication in the afternoons.	2140805	1471979413500	1471979413602	a	65
4215	44886	Our schedule now calls for critical communication in the afternoons.	Our schedule now calls for critical communication in the afternoons.	2140808	1471979413580	1471979413657	f	70
4215	44886	Our schedule now calls for critical communication in the afternoons.	Our schedule now calls for critical communication in the afternoons.	2140812	1471979413758	1471979413817	t	84
4215	44886	Our schedule now calls for critical communication in the afternoons.	Our schedule now calls for critical communication in the afternoons.	2140815	1471979413882	1471979413973	e	69
4215	44886	Our schedule now calls for critical communication in the afternoons.	Our schedule now calls for critical communication in the afternoons.	2140829	1471979413921	1471979414018	r	82
4215	44886	Our schedule now calls for critical communication in the afternoons.	Our schedule now calls for critical communication in the afternoons.	2140831	1471979414042	1471979414140	n	78
4215	44886	Our schedule now calls for critical communication in the afternoons.	Our schedule now calls for critical communication in the afternoons.	2140833	1471979414108	1471979414185	o	79
4215	44886	Our schedule now calls for critical communication in the afternoons.	Our schedule now calls for critical communication in the afternoons.	2140835	1471979414258	1471979414320	o	79
4215	44886	Our schedule now calls for critical communication in the afternoons.	Our schedule now calls for critical communication in the afternoons.	2140838	1471979414403	1471979414493	n	78
4215	44886	Our schedule now calls for critical communication in the afternoons.	Our schedule now calls for critical communication in the afternoons.	2140845	1471979414511	1471979414572	s	83
4215	44886	Our schedule now calls for critical communication in the afternoons.	Our schedule now calls for critical communication in the afternoons.	2140861	1471979414636	1471979414769	SHIFT	16
4215	44886	Our schedule now calls for critical communication in the afternoons.	Our schedule now calls for critical communication in the afternoons.	2140855	1471979414696	1471979414754	.	190
4215	44896	Can you call me at home?	Cany ou call me at home?	2140934	1471979416736	1471979416908	SHIFT	16
4215	44896	Can you call me at home?	Cany ou call me at home?	2140936	1471979416897	1471979417009	C	67
4215	44896	Can you call me at home?	Cany ou call me at home?	2140939	1471979417192	1471979417249	n	78
4215	44896	Can you call me at home?	Cany ou call me at home?	2140942	1471979417398	1471979417484	BKSP	8
4215	44896	Can you call me at home?	Cany ou call me at home?	2140944	1471979417504	1471979417589	a	65
4215	44896	Can you call me at home?	Cany ou call me at home?	2140946	1471979417617	1471979417688	n	78
4215	44896	Can you call me at home?	Cany ou call me at home?	2140948	1471979417718	1471979417773	y	89
4215	44896	Can you call me at home?	Cany ou call me at home?	2140950	1471979417807	1471979417892	 	32
4215	44896	Can you call me at home?	Cany ou call me at home?	2140954	1471979417830	1471979417927	o	79
4215	44896	Can you call me at home?	Cany ou call me at home?	2140957	1471979417880	1471979417992	u	85
4215	44896	Can you call me at home?	Cany ou call me at home?	2140961	1471979417980	1471979418057	 	32
4215	44896	Can you call me at home?	Cany ou call me at home?	2140965	1471979418176	1471979418298	c	67
4215	44896	Can you call me at home?	Cany ou call me at home?	2140984	1471979418241	1471979418308	a	65
4215	44896	Can you call me at home?	Cany ou call me at home?	2140987	1471979418336	1471979418388	l	76
4215	44896	Can you call me at home?	Cany ou call me at home?	2140992	1471979418442	1471979418519	l	76
4215	44896	Can you call me at home?	Cany ou call me at home?	2140997	1471979418584	1471979418646	 	32
4215	44896	Can you call me at home?	Cany ou call me at home?	2141001	1471979418685	1471979418772	m	77
4215	44896	Can you call me at home?	Cany ou call me at home?	2141005	1471979418793	1471979418881	e	69
4215	44896	Can you call me at home?	Cany ou call me at home?	2141021	1471979418856	1471979418930	 	32
4215	44896	Can you call me at home?	Cany ou call me at home?	2141026	1471979419024	1471979419142	a	65
4215	44896	Can you call me at home?	Cany ou call me at home?	2141037	1471979419098	1471979419194	t	84
4215	44896	Can you call me at home?	Cany ou call me at home?	2141041	1471979419170	1471979419238	 	32
4215	44896	Can you call me at home?	Cany ou call me at home?	2141047	1471979419277	1471979419360	h	72
4215	44896	Can you call me at home?	Cany ou call me at home?	2141061	1471979419337	1471979419399	o	79
4215	44896	Can you call me at home?	Cany ou call me at home?	2141066	1471979419473	1471979419569	m	77
4215	44896	Can you call me at home?	Cany ou call me at home?	2141071	1471979419532	1471979419604	e	69
4215	44896	Can you call me at home?	Cany ou call me at home?	2141082	1471979419671	1471979419793	SHIFT	16
4215	44896	Can you call me at home?	Cany ou call me at home?	2141076	1471979419711	1471979419769	?	188
4215	44905	This has now become the most pressing story in the capital.	This has now become the most pressing story in the capital.	2141261	1471979422996	1471979423209	SHIFT	16
4215	44905	This has now become the most pressing story in the capital.	This has now become the most pressing story in the capital.	2141260	1471979423097	1471979423178	T	84
4215	44905	This has now become the most pressing story in the capital.	This has now become the most pressing story in the capital.	2141262	1471979423157	1471979423218	H	72
4215	44905	This has now become the most pressing story in the capital.	This has now become the most pressing story in the capital.	2141263	1471979423377	1471979423479	i	73
4215	44905	This has now become the most pressing story in the capital.	This has now become the most pressing story in the capital.	2141264	1471979423497	1471979423569	s	83
4215	44905	This has now become the most pressing story in the capital.	This has now become the most pressing story in the capital.	2141265	1471979423650	1471979423722	BKSP	8
4215	44905	This has now become the most pressing story in the capital.	This has now become the most pressing story in the capital.	2141266	1471979423775	1471979423837	BKSP	8
4215	44905	This has now become the most pressing story in the capital.	This has now become the most pressing story in the capital.	2141268	1471979423891	1471979423960	BKSP	8
4215	44905	This has now become the most pressing story in the capital.	This has now become the most pressing story in the capital.	2141270	1471979424104	1471979424190	h	72
4215	44905	This has now become the most pressing story in the capital.	This has now become the most pressing story in the capital.	2141276	1471979424149	1471979424281	i	73
4215	44905	This has now become the most pressing story in the capital.	This has now become the most pressing story in the capital.	2141280	1471979424235	1471979424336	s	83
4215	44905	This has now become the most pressing story in the capital.	This has now become the most pressing story in the capital.	2141285	1471979424300	1471979424396	 	32
4215	44905	This has now become the most pressing story in the capital.	This has now become the most pressing story in the capital.	2141292	1471979424414	1471979424481	h	72
4215	44905	This has now become the most pressing story in the capital.	This has now become the most pressing story in the capital.	2141297	1471979424470	1471979424571	a	65
4215	44905	This has now become the most pressing story in the capital.	This has now become the most pressing story in the capital.	2141315	1471979424554	1471979424682	s	83
4215	44905	This has now become the most pressing story in the capital.	This has now become the most pressing story in the capital.	2141319	1471979424635	1471979424737	 	32
4215	44905	This has now become the most pressing story in the capital.	This has now become the most pressing story in the capital.	2141324	1471979424705	1471979424812	n	78
4215	44905	This has now become the most pressing story in the capital.	This has now become the most pressing story in the capital.	2141331	1471979424765	1471979424857	o	79
4215	44905	This has now become the most pressing story in the capital.	This has now become the most pressing story in the capital.	2141336	1471979424825	1471979424934	w	87
4215	44905	This has now become the most pressing story in the capital.	This has now become the most pressing story in the capital.	2141349	1471979424921	1471979424995	 	32
4215	44905	This has now become the most pressing story in the capital.	This has now become the most pressing story in the capital.	2141351	1471979425049	1471979425101	b	66
4215	44905	This has now become the most pressing story in the capital.	This has now become the most pressing story in the capital.	2141353	1471979425160	1471979425227	e	69
4215	44905	This has now become the most pressing story in the capital.	This has now become the most pressing story in the capital.	2141354	1471979425310	1471979425392	c	67
4215	44905	This has now become the most pressing story in the capital.	This has now become the most pressing story in the capital.	2141355	1471979425355	1471979425407	o	79
4215	44905	This has now become the most pressing story in the capital.	This has now become the most pressing story in the capital.	2141356	1471979425461	1471979425553	m	77
4215	44905	This has now become the most pressing story in the capital.	This has now become the most pressing story in the capital.	2141358	1471979425561	1471979425632	e	69
4215	44905	This has now become the most pressing story in the capital.	This has now become the most pressing story in the capital.	2141362	1471979425611	1471979425697	 	32
4215	44905	This has now become the most pressing story in the capital.	This has now become the most pressing story in the capital.	2141366	1471979425705	1471979425779	t	84
4215	44905	This has now become the most pressing story in the capital.	This has now become the most pressing story in the capital.	2141370	1471979425767	1471979425829	h	72
4215	44905	This has now become the most pressing story in the capital.	This has now become the most pressing story in the capital.	2141374	1471979425847	1471979425933	e	69
4215	44905	This has now become the most pressing story in the capital.	This has now become the most pressing story in the capital.	2141398	1471979425896	1471979425991	 	32
4215	44905	This has now become the most pressing story in the capital.	This has now become the most pressing story in the capital.	2141402	1471979425941	1471979426006	m	77
4215	44905	This has now become the most pressing story in the capital.	This has now become the most pressing story in the capital.	2141405	1471979426070	1471979426143	o	79
4215	44905	This has now become the most pressing story in the capital.	This has now become the most pressing story in the capital.	2141410	1471979426151	1471979426273	s	83
4215	44905	This has now become the most pressing story in the capital.	This has now become the most pressing story in the capital.	2141417	1471979426226	1471979426307	t	84
4215	44905	This has now become the most pressing story in the capital.	This has now become the most pressing story in the capital.	2141423	1471979426315	1471979426393	 	32
4215	44905	This has now become the most pressing story in the capital.	This has now become the most pressing story in the capital.	2141438	1471979426461	1471979426568	p	80
4215	44905	This has now become the most pressing story in the capital.	This has now become the most pressing story in the capital.	2141441	1471979426545	1471979426647	r	82
4215	44905	This has now become the most pressing story in the capital.	This has now become the most pressing story in the capital.	2141443	1471979426585	1471979426680	e	69
4215	44905	This has now become the most pressing story in the capital.	This has now become the most pressing story in the capital.	2141445	1471979426657	1471979426721	s	83
4215	44905	This has now become the most pressing story in the capital.	This has now become the most pressing story in the capital.	2141446	1471979426801	1471979426867	s	83
4215	44905	This has now become the most pressing story in the capital.	This has now become the most pressing story in the capital.	2141451	1471979426918	1471979427039	i	73
4215	44905	This has now become the most pressing story in the capital.	This has now become the most pressing story in the capital.	2141454	1471979426970	1471979427079	n	78
4215	44905	This has now become the most pressing story in the capital.	This has now become the most pressing story in the capital.	2141463	1471979427022	1471979427099	g	71
4215	44905	This has now become the most pressing story in the capital.	This has now become the most pressing story in the capital.	2141473	1471979427107	1471979427189	 	32
4215	44905	This has now become the most pressing story in the capital.	This has now become the most pressing story in the capital.	2141482	1471979427197	1471979427338	s	83
4215	44905	This has now become the most pressing story in the capital.	This has now become the most pressing story in the capital.	2141510	1471979427302	1471979427348	t	84
4215	44905	This has now become the most pressing story in the capital.	This has now become the most pressing story in the capital.	2141513	1471979427327	1471979427439	o	79
4215	44905	This has now become the most pressing story in the capital.	This has now become the most pressing story in the capital.	2141517	1471979427497	1471979427564	r	82
4215	44905	This has now become the most pressing story in the capital.	This has now become the most pressing story in the capital.	2141524	1471979427578	1471979427659	y	89
4215	44905	This has now become the most pressing story in the capital.	This has now become the most pressing story in the capital.	2141528	1471979427678	1471979427764	 	32
4215	44905	This has now become the most pressing story in the capital.	This has now become the most pressing story in the capital.	2141532	1471979427772	1471979427880	i	73
4215	44905	This has now become the most pressing story in the capital.	This has now become the most pressing story in the capital.	2141549	1471979427807	1471979427914	n	78
4215	44905	This has now become the most pressing story in the capital.	This has now become the most pressing story in the capital.	2141552	1471979427867	1471979427950	 	32
4215	44905	This has now become the most pressing story in the capital.	This has now become the most pressing story in the capital.	2141558	1471979427985	1471979428078	t	84
4215	44905	This has now become the most pressing story in the capital.	This has now become the most pressing story in the capital.	2141567	1471979428067	1471979428144	h	72
4215	44905	This has now become the most pressing story in the capital.	This has now become the most pressing story in the capital.	2141572	1471979428152	1471979428228	e	69
4215	44905	This has now become the most pressing story in the capital.	This has now become the most pressing story in the capital.	2141575	1471979428192	1471979428284	 	32
4215	44905	This has now become the most pressing story in the capital.	This has now become the most pressing story in the capital.	2141579	1471979428368	1471979428449	c	67
4215	44905	This has now become the most pressing story in the capital.	This has now become the most pressing story in the capital.	2141582	1471979428477	1471979428580	a	65
4215	44905	This has now become the most pressing story in the capital.	This has now become the most pressing story in the capital.	2141586	1471979428568	1471979428680	p	80
4215	44905	This has now become the most pressing story in the capital.	This has now become the most pressing story in the capital.	2141589	1471979428653	1471979428757	i	73
4215	44905	This has now become the most pressing story in the capital.	This has now become the most pressing story in the capital.	2141593	1471979428745	1471979428842	t	84
4215	44905	This has now become the most pressing story in the capital.	This has now become the most pressing story in the capital.	2141600	1471979428850	1471979428892	a	65
4215	44905	This has now become the most pressing story in the capital.	This has now become the most pressing story in the capital.	2141612	1471979428906	1471979428985	l	76
4215	44905	This has now become the most pressing story in the capital.	This has now become the most pressing story in the capital.	2141617	1471979429033	1471979429165	SHIFT	16
4215	44905	This has now become the most pressing story in the capital.	This has now become the most pressing story in the capital.	2141614	1471979429108	1471979429155	.	190
4215	44914	I didn't hear from Ginger this week.	I didn't hear from Ginger this week.	2141751	1471979431561	1471979431773	SHIFT	16
4215	44914	I didn't hear from Ginger this week.	I didn't hear from Ginger this week.	2141746	1471979431687	1471979431762	I	73
4215	44914	I didn't hear from Ginger this week.	I didn't hear from Ginger this week.	2141757	1471979431816	1471979431912	 	32
4215	44914	I didn't hear from Ginger this week.	I didn't hear from Ginger this week.	2141763	1471979431900	1471979431985	d	68
4215	44914	I didn't hear from Ginger this week.	I didn't hear from Ginger this week.	2141768	1471979431971	1471979432054	i	73
4215	44914	I didn't hear from Ginger this week.	I didn't hear from Ginger this week.	2141773	1471979432063	1471979432139	d	68
4215	44914	I didn't hear from Ginger this week.	I didn't hear from Ginger this week.	2141792	1471979432193	1471979432265	n	78
4215	44914	I didn't hear from Ginger this week.	I didn't hear from Ginger this week.	2141794	1471979432373	1471979432500	'	52
4215	44914	I didn't hear from Ginger this week.	I didn't hear from Ginger this week.	2141796	1471979432438	1471979432535	t	84
4215	44914	I didn't hear from Ginger this week.	I didn't hear from Ginger this week.	2141798	1471979432564	1471979432656	 	32
4215	44914	I didn't hear from Ginger this week.	I didn't hear from Ginger this week.	2141800	1471979432760	1471979432833	h	72
4215	44914	I didn't hear from Ginger this week.	I didn't hear from Ginger this week.	2141805	1471979432921	1471979433060	e	69
4215	44914	I didn't hear from Ginger this week.	I didn't hear from Ginger this week.	2141807	1471979432976	1471979433111	a	65
4215	44914	I didn't hear from Ginger this week.	I didn't hear from Ginger this week.	2141809	1471979433045	1471979433166	r	82
4215	44914	I didn't hear from Ginger this week.	I didn't hear from Ginger this week.	2141810	1471979433154	1471979433221	 	32
4215	44914	I didn't hear from Ginger this week.	I didn't hear from Ginger this week.	2141813	1471979433259	1471979433332	f	70
4215	44914	I didn't hear from Ginger this week.	I didn't hear from Ginger this week.	2141843	1471979433430	1471979433477	r	82
4215	44914	I didn't hear from Ginger this week.	I didn't hear from Ginger this week.	2141845	1471979433545	1471979433602	o	79
4215	44914	I didn't hear from Ginger this week.	I didn't hear from Ginger this week.	2141847	1471979433672	1471979433763	m	77
4215	44914	I didn't hear from Ginger this week.	I didn't hear from Ginger this week.	2141848	1471979433751	1471979433843	 	32
4215	44914	I didn't hear from Ginger this week.	I didn't hear from Ginger this week.	2141884	1471979433851	1471979434101	SHIFT	16
4215	44914	I didn't hear from Ginger this week.	I didn't hear from Ginger this week.	2141850	1471979433971	1471979434057	G	71
4215	44914	I didn't hear from Ginger this week.	I didn't hear from Ginger this week.	2141889	1471979434155	1471979434282	i	73
4215	44914	I didn't hear from Ginger this week.	I didn't hear from Ginger this week.	2141893	1471979434244	1471979434341	n	78
4215	44914	I didn't hear from Ginger this week.	I didn't hear from Ginger this week.	2141896	1471979434350	1471979434401	g	71
4215	44914	I didn't hear from Ginger this week.	I didn't hear from Ginger this week.	2141898	1471979434460	1471979434587	e	69
4215	44914	I didn't hear from Ginger this week.	I didn't hear from Ginger this week.	2141904	1471979434510	1471979434597	r	82
4215	44914	I didn't hear from Ginger this week.	I didn't hear from Ginger this week.	2141908	1471979434575	1471979434662	 	32
4215	44914	I didn't hear from Ginger this week.	I didn't hear from Ginger this week.	2141911	1471979434685	1471979434762	t	84
4215	44914	I didn't hear from Ginger this week.	I didn't hear from Ginger this week.	2141915	1471979434751	1471979434846	h	72
4215	44914	I didn't hear from Ginger this week.	I didn't hear from Ginger this week.	2141917	1471979434813	1471979434911	i	73
4215	44914	I didn't hear from Ginger this week.	I didn't hear from Ginger this week.	2141918	1471979434880	1471979434976	s	83
4215	44914	I didn't hear from Ginger this week.	I didn't hear from Ginger this week.	2141940	1471979434955	1471979435021	 	32
4215	44914	I didn't hear from Ginger this week.	I didn't hear from Ginger this week.	2141943	1471979435106	1471979435220	w	87
4215	44914	I didn't hear from Ginger this week.	I didn't hear from Ginger this week.	2141947	1471979435192	1471979435260	e	69
4215	44914	I didn't hear from Ginger this week.	I didn't hear from Ginger this week.	2141952	1471979435333	1471979435385	e	69
4215	44914	I didn't hear from Ginger this week.	I didn't hear from Ginger this week.	2141955	1471979435454	1471979435526	k	75
4215	44914	I didn't hear from Ginger this week.	I didn't hear from Ginger this week.	2141950	1471979435548	1471979435735	SHIFT	16
4215	44914	I didn't hear from Ginger this week.	I didn't hear from Ginger this week.	2141958	1471979435628	1471979435696	.	190
4215	44923	Once you do, you can never go back.	Once you do, you can never go back.	2142028	1471979437106	1471979437310	SHIFT	16
4215	44923	Once you do, you can never go back.	Once you do, you can never go back.	2142027	1471979437204	1471979437285	O	79
4215	44923	Once you do, you can never go back.	Once you do, you can never go back.	2142029	1471979437330	1471979437417	n	78
4215	44923	Once you do, you can never go back.	Once you do, you can never go back.	2142031	1471979437445	1471979437507	c	67
4215	44923	Once you do, you can never go back.	Once you do, you can never go back.	2142035	1471979437585	1471979437658	e	69
4215	44923	Once you do, you can never go back.	Once you do, you can never go back.	2142045	1471979437635	1471979437732	 	32
4215	44923	Once you do, you can never go back.	Once you do, you can never go back.	2142048	1471979437776	1471979437856	y	89
4215	44923	Once you do, you can never go back.	Once you do, you can never go back.	2142051	1471979437842	1471979437938	o	79
4215	44923	Once you do, you can never go back.	Once you do, you can never go back.	2142054	1471979437876	1471979437978	u	85
4215	44923	Once you do, you can never go back.	Once you do, you can never go back.	2142058	1471979437966	1471979438053	 	32
4215	44923	Once you do, you can never go back.	Once you do, you can never go back.	2142077	1471979438042	1471979438131	d	68
4215	44923	Once you do, you can never go back.	Once you do, you can never go back.	2142083	1471979438140	1471979438195	o	79
4215	44923	Once you do, you can never go back.	Once you do, you can never go back.	2142085	1471979438305	1471979438352	,	188
4215	44923	Once you do, you can never go back.	Once you do, you can never go back.	2142090	1471979438415	1471979438493	 	32
4215	44923	Once you do, you can never go back.	Once you do, you can never go back.	2142093	1471979438627	1471979438705	y	89
4215	44923	Once you do, you can never go back.	Once you do, you can never go back.	2142095	1471979438713	1471979438821	o	79
4215	44923	Once you do, you can never go back.	Once you do, you can never go back.	2142102	1471979438759	1471979438878	u	85
4215	44923	Once you do, you can never go back.	Once you do, you can never go back.	2142104	1471979438854	1471979438942	 	32
4215	44923	Once you do, you can never go back.	Once you do, you can never go back.	2142106	1471979439041	1471979439147	c	67
4215	44923	Once you do, you can never go back.	Once you do, you can never go back.	2142107	1471979439135	1471979439226	a	65
4215	44923	Once you do, you can never go back.	Once you do, you can never go back.	2142108	1471979439234	1471979439291	n	78
4215	44923	Once you do, you can never go back.	Once you do, you can never go back.	2142158	1471979439279	1471979439360	 	32
4215	44923	Once you do, you can never go back.	Once you do, you can never go back.	2142163	1471979439390	1471979439476	n	78
4215	44923	Once you do, you can never go back.	Once you do, you can never go back.	2142172	1471979439484	1471979439531	e	69
4215	44923	Once you do, you can never go back.	Once you do, you can never go back.	2142180	1471979439655	1471979439747	e	69
4215	44923	Once you do, you can never go back.	Once you do, you can never go back.	2142188	1471979440133	1471979440207	BKSP	8
4215	44923	Once you do, you can never go back.	Once you do, you can never go back.	2142196	1471979440214	1471979440280	v	86
4215	44923	Once you do, you can never go back.	Once you do, you can never go back.	2142201	1471979440328	1471979440440	e	69
4215	44923	Once you do, you can never go back.	Once you do, you can never go back.	2142205	1471979440384	1471979440475	r	82
4215	44923	Once you do, you can never go back.	Once you do, you can never go back.	2142206	1471979440464	1471979440521	 	32
4215	44923	Once you do, you can never go back.	Once you do, you can never go back.	2142208	1471979440539	1471979440616	g	71
4215	44923	Once you do, you can never go back.	Once you do, you can never go back.	2142210	1471979440629	1471979440711	o	79
4215	44923	Once you do, you can never go back.	Once you do, you can never go back.	2142213	1471979440719	1471979440766	 	32
4215	44923	Once you do, you can never go back.	Once you do, you can never go back.	2142216	1471979440824	1471979440913	b	66
4215	44923	Once you do, you can never go back.	Once you do, you can never go back.	2142226	1471979440874	1471979440955	a	65
4215	44923	Once you do, you can never go back.	Once you do, you can never go back.	2142228	1471979440983	1471979441080	c	67
4215	44923	Once you do, you can never go back.	Once you do, you can never go back.	2142230	1471979441088	1471979441134	k	75
4215	44923	Once you do, you can never go back.	Once you do, you can never go back.	2142232	1471979441166	1471979441277	SHIFT	16
4215	44923	Once you do, you can never go back.	Once you do, you can never go back.	2142235	1471979441241	1471979441287	.	190
4215	44930	Rookie Kevin Swayne will move into the starting lineup.	Rokkie Kevin Swayne will move into the starting lineup.	2142484	1471979445830	1471979446011	SHIFT	16
4215	44930	Rookie Kevin Swayne will move into the starting lineup.	Rokkie Kevin Swayne will move into the starting lineup.	2142486	1471979445953	1471979446036	R	82
4215	44930	Rookie Kevin Swayne will move into the starting lineup.	Rokkie Kevin Swayne will move into the starting lineup.	2142489	1471979446070	1471979446137	o	79
4215	44930	Rookie Kevin Swayne will move into the starting lineup.	Rokkie Kevin Swayne will move into the starting lineup.	2142492	1471979446227	1471979446284	k	75
4215	44930	Rookie Kevin Swayne will move into the starting lineup.	Rokkie Kevin Swayne will move into the starting lineup.	2142495	1471979446326	1471979446388	k	75
4215	44930	Rookie Kevin Swayne will move into the starting lineup.	Rokkie Kevin Swayne will move into the starting lineup.	2142498	1471979446467	1471979446544	i	73
4215	44930	Rookie Kevin Swayne will move into the starting lineup.	Rokkie Kevin Swayne will move into the starting lineup.	2142506	1471979446552	1471979446639	e	69
4215	44930	Rookie Kevin Swayne will move into the starting lineup.	Rokkie Kevin Swayne will move into the starting lineup.	2142508	1471979446602	1471979446699	 	32
4215	44930	Rookie Kevin Swayne will move into the starting lineup.	Rokkie Kevin Swayne will move into the starting lineup.	2142511	1471979446707	1471979446889	SHIFT	16
4215	44930	Rookie Kevin Swayne will move into the starting lineup.	Rokkie Kevin Swayne will move into the starting lineup.	2142515	1471979446807	1471979446899	K	75
4215	44930	Rookie Kevin Swayne will move into the starting lineup.	Rokkie Kevin Swayne will move into the starting lineup.	2142519	1471979446952	1471979447029	e	69
4215	44930	Rookie Kevin Swayne will move into the starting lineup.	Rokkie Kevin Swayne will move into the starting lineup.	2142522	1471979447052	1471979447133	v	86
4215	44930	Rookie Kevin Swayne will move into the starting lineup.	Rokkie Kevin Swayne will move into the starting lineup.	2142558	1471979447141	1471979447273	i	73
4215	44930	Rookie Kevin Swayne will move into the starting lineup.	Rokkie Kevin Swayne will move into the starting lineup.	2142560	1471979447196	1471979447303	n	78
4215	44930	Rookie Kevin Swayne will move into the starting lineup.	Rokkie Kevin Swayne will move into the starting lineup.	2142563	1471979447282	1471979447387	 	32
4215	44930	Rookie Kevin Swayne will move into the starting lineup.	Rokkie Kevin Swayne will move into the starting lineup.	2142566	1471979447395	1471979447597	SHIFT	16
4215	44930	Rookie Kevin Swayne will move into the starting lineup.	Rokkie Kevin Swayne will move into the starting lineup.	2142568	1471979447520	1471979447612	S	83
4215	44930	Rookie Kevin Swayne will move into the starting lineup.	Rokkie Kevin Swayne will move into the starting lineup.	2142571	1471979447736	1471979447798	w	87
4215	44930	Rookie Kevin Swayne will move into the starting lineup.	Rokkie Kevin Swayne will move into the starting lineup.	2142603	1471979447911	1471979447988	a	65
4215	44930	Rookie Kevin Swayne will move into the starting lineup.	Rokkie Kevin Swayne will move into the starting lineup.	2142606	1471979448178	1471979448230	y	89
4215	44930	Rookie Kevin Swayne will move into the starting lineup.	Rokkie Kevin Swayne will move into the starting lineup.	2142609	1471979448344	1471979448416	n	78
4215	44930	Rookie Kevin Swayne will move into the starting lineup.	Rokkie Kevin Swayne will move into the starting lineup.	2142614	1471979448431	1471979448508	e	69
4215	44930	Rookie Kevin Swayne will move into the starting lineup.	Rokkie Kevin Swayne will move into the starting lineup.	2142617	1471979448541	1471979448647	 	32
4215	44930	Rookie Kevin Swayne will move into the starting lineup.	Rokkie Kevin Swayne will move into the starting lineup.	2142629	1471979448625	1471979448708	w	87
4215	44930	Rookie Kevin Swayne will move into the starting lineup.	Rokkie Kevin Swayne will move into the starting lineup.	2142631	1471979448691	1471979448747	i	73
4215	44930	Rookie Kevin Swayne will move into the starting lineup.	Rokkie Kevin Swayne will move into the starting lineup.	2142635	1471979448836	1471979448888	l	76
4215	44930	Rookie Kevin Swayne will move into the starting lineup.	Rokkie Kevin Swayne will move into the starting lineup.	2142640	1471979448936	1471979448993	l	76
4215	44930	Rookie Kevin Swayne will move into the starting lineup.	Rokkie Kevin Swayne will move into the starting lineup.	2142644	1471979449040	1471979449117	 	32
4215	44930	Rookie Kevin Swayne will move into the starting lineup.	Rokkie Kevin Swayne will move into the starting lineup.	2142652	1471979449100	1471979449167	m	77
4215	44930	Rookie Kevin Swayne will move into the starting lineup.	Rokkie Kevin Swayne will move into the starting lineup.	2142654	1471979449235	1471979449301	o	79
4215	44930	Rookie Kevin Swayne will move into the starting lineup.	Rokkie Kevin Swayne will move into the starting lineup.	2142657	1471979449290	1471979449377	v	86
4215	44930	Rookie Kevin Swayne will move into the starting lineup.	Rokkie Kevin Swayne will move into the starting lineup.	2142659	1471979449329	1471979449417	e	69
4215	44930	Rookie Kevin Swayne will move into the starting lineup.	Rokkie Kevin Swayne will move into the starting lineup.	2142661	1471979449399	1471979449482	 	32
4215	44930	Rookie Kevin Swayne will move into the starting lineup.	Rokkie Kevin Swayne will move into the starting lineup.	2142672	1471979449455	1471979449546	i	73
4215	44930	Rookie Kevin Swayne will move into the starting lineup.	Rokkie Kevin Swayne will move into the starting lineup.	2142674	1471979449505	1471979449591	n	78
4215	44930	Rookie Kevin Swayne will move into the starting lineup.	Rokkie Kevin Swayne will move into the starting lineup.	2142679	1471979449605	1471979449692	t	84
4215	44930	Rookie Kevin Swayne will move into the starting lineup.	Rokkie Kevin Swayne will move into the starting lineup.	2142683	1471979449787	1471979449878	o	79
4215	44930	Rookie Kevin Swayne will move into the starting lineup.	Rokkie Kevin Swayne will move into the starting lineup.	2142686	1471979449898	1471979449970	 	32
4215	44930	Rookie Kevin Swayne will move into the starting lineup.	Rokkie Kevin Swayne will move into the starting lineup.	2142690	1471979450084	1471979450156	t	84
4215	44930	Rookie Kevin Swayne will move into the starting lineup.	Rokkie Kevin Swayne will move into the starting lineup.	2142696	1471979450165	1471979450236	h	72
4215	44930	Rookie Kevin Swayne will move into the starting lineup.	Rokkie Kevin Swayne will move into the starting lineup.	2142698	1471979450245	1471979450319	e	69
4215	44930	Rookie Kevin Swayne will move into the starting lineup.	Rokkie Kevin Swayne will move into the starting lineup.	2142700	1471979450305	1471979450378	 	32
4215	44930	Rookie Kevin Swayne will move into the starting lineup.	Rokkie Kevin Swayne will move into the starting lineup.	2142702	1471979450386	1471979450499	s	83
4215	44930	Rookie Kevin Swayne will move into the starting lineup.	Rokkie Kevin Swayne will move into the starting lineup.	2142714	1471979450476	1471979450544	t	84
4215	44930	Rookie Kevin Swayne will move into the starting lineup.	Rokkie Kevin Swayne will move into the starting lineup.	2142717	1471979450587	1471979450704	a	65
4215	44930	Rookie Kevin Swayne will move into the starting lineup.	Rokkie Kevin Swayne will move into the starting lineup.	2142719	1471979450637	1471979450714	r	82
4215	44930	Rookie Kevin Swayne will move into the starting lineup.	Rokkie Kevin Swayne will move into the starting lineup.	2142721	1471979450777	1471979450845	t	84
4215	44930	Rookie Kevin Swayne will move into the starting lineup.	Rokkie Kevin Swayne will move into the starting lineup.	2142724	1471979450823	1471979450954	i	73
4215	44930	Rookie Kevin Swayne will move into the starting lineup.	Rokkie Kevin Swayne will move into the starting lineup.	2142732	1471979450883	1471979450999	n	78
4215	44930	Rookie Kevin Swayne will move into the starting lineup.	Rokkie Kevin Swayne will move into the starting lineup.	2142734	1471979450963	1471979451051	g	71
4215	44930	Rookie Kevin Swayne will move into the starting lineup.	Rokkie Kevin Swayne will move into the starting lineup.	2142735	1471979451038	1471979451094	 	32
4215	44930	Rookie Kevin Swayne will move into the starting lineup.	Rokkie Kevin Swayne will move into the starting lineup.	2142737	1471979451177	1471979451239	l	76
4215	44930	Rookie Kevin Swayne will move into the starting lineup.	Rokkie Kevin Swayne will move into the starting lineup.	2142738	1471979451337	1471979451490	i	73
4215	44930	Rookie Kevin Swayne will move into the starting lineup.	Rokkie Kevin Swayne will move into the starting lineup.	2142748	1471979451413	1471979451515	n	78
4215	44930	Rookie Kevin Swayne will move into the starting lineup.	Rokkie Kevin Swayne will move into the starting lineup.	2142750	1471979451529	1471979451591	e	69
4215	44930	Rookie Kevin Swayne will move into the starting lineup.	Rokkie Kevin Swayne will move into the starting lineup.	2142752	1471979451666	1471979451752	u	85
4215	44930	Rookie Kevin Swayne will move into the starting lineup.	Rokkie Kevin Swayne will move into the starting lineup.	2142754	1471979451690	1471979451807	p	80
4215	44930	Rookie Kevin Swayne will move into the starting lineup.	Rokkie Kevin Swayne will move into the starting lineup.	2142760	1471979451822	1471979451993	SHIFT	16
4215	44930	Rookie Kevin Swayne will move into the starting lineup.	Rokkie Kevin Swayne will move into the starting lineup.	2142757	1471979451926	1471979451983	.	190
4215	44941	Later works dealt with ethical concerns in the modern world.	Later works dealt with ethical concerns in the modern world.	2143122	1471979462128	1471979462296	SHIFT	16
4215	44941	Later works dealt with ethical concerns in the modern world.	Later works dealt with ethical concerns in the modern world.	2143124	1471979462223	1471979462311	L	76
4215	44941	Later works dealt with ethical concerns in the modern world.	Later works dealt with ethical concerns in the modern world.	2143126	1471979462421	1471979462535	a	65
4215	44941	Later works dealt with ethical concerns in the modern world.	Later works dealt with ethical concerns in the modern world.	2143128	1471979462507	1471979462589	t	84
4215	44941	Later works dealt with ethical concerns in the modern world.	Later works dealt with ethical concerns in the modern world.	2143130	1471979462603	1471979462725	e	69
4215	44941	Later works dealt with ethical concerns in the modern world.	Later works dealt with ethical concerns in the modern world.	2143139	1471979462684	1471979462755	r	82
4215	44941	Later works dealt with ethical concerns in the modern world.	Later works dealt with ethical concerns in the modern world.	2143140	1471979462743	1471979462800	 	32
4215	44941	Later works dealt with ethical concerns in the modern world.	Later works dealt with ethical concerns in the modern world.	2143142	1471979462809	1471979462880	w	87
4215	44941	Later works dealt with ethical concerns in the modern world.	Later works dealt with ethical concerns in the modern world.	2143143	1471979462869	1471979462945	o	79
4215	44941	Later works dealt with ethical concerns in the modern world.	Later works dealt with ethical concerns in the modern world.	2143145	1471979462959	1471979463026	r	82
4215	44941	Later works dealt with ethical concerns in the modern world.	Later works dealt with ethical concerns in the modern world.	2143148	1471979463034	1471979463141	k	75
4215	44941	Later works dealt with ethical concerns in the modern world.	Later works dealt with ethical concerns in the modern world.	2143156	1471979463129	1471979463230	s	83
4215	44941	Later works dealt with ethical concerns in the modern world.	Later works dealt with ethical concerns in the modern world.	2143157	1471979463218	1471979463281	 	32
4215	44941	Later works dealt with ethical concerns in the modern world.	Later works dealt with ethical concerns in the modern world.	2143158	1471979463288	1471979463354	d	68
4215	44941	Later works dealt with ethical concerns in the modern world.	Later works dealt with ethical concerns in the modern world.	2143159	1471979463419	1471979463540	e	69
4215	44941	Later works dealt with ethical concerns in the modern world.	Later works dealt with ethical concerns in the modern world.	2143160	1471979463488	1471979463585	a	65
4215	44941	Later works dealt with ethical concerns in the modern world.	Later works dealt with ethical concerns in the modern world.	2143161	1471979463644	1471979463731	l	76
4215	44941	Later works dealt with ethical concerns in the modern world.	Later works dealt with ethical concerns in the modern world.	2143177	1471979463719	1471979463816	t	84
4215	44941	Later works dealt with ethical concerns in the modern world.	Later works dealt with ethical concerns in the modern world.	2143180	1471979463824	1471979463912	 	32
4215	44941	Later works dealt with ethical concerns in the modern world.	Later works dealt with ethical concerns in the modern world.	2143183	1471979463919	1471979464012	w	87
4215	44941	Later works dealt with ethical concerns in the modern world.	Later works dealt with ethical concerns in the modern world.	2143186	1471979464030	1471979464112	i	73
4215	44941	Later works dealt with ethical concerns in the modern world.	Later works dealt with ethical concerns in the modern world.	2143189	1471979464120	1471979464193	t	84
4215	44941	Later works dealt with ethical concerns in the modern world.	Later works dealt with ethical concerns in the modern world.	2143192	1471979464208	1471979464282	h	72
4215	44941	Later works dealt with ethical concerns in the modern world.	Later works dealt with ethical concerns in the modern world.	2143223	1471979464265	1471979464357	 	32
4215	44941	Later works dealt with ethical concerns in the modern world.	Later works dealt with ethical concerns in the modern world.	2143226	1471979464370	1471979464467	e	69
4215	44941	Later works dealt with ethical concerns in the modern world.	Later works dealt with ethical concerns in the modern world.	2143229	1471979464548	1471979464620	t	84
4215	44941	Later works dealt with ethical concerns in the modern world.	Later works dealt with ethical concerns in the modern world.	2143231	1471979464634	1471979464756	h	72
4215	44941	Later works dealt with ethical concerns in the modern world.	Later works dealt with ethical concerns in the modern world.	2143233	1471979464714	1471979464841	i	73
4215	44941	Later works dealt with ethical concerns in the modern world.	Later works dealt with ethical concerns in the modern world.	2143235	1471979464860	1471979464976	c	67
4215	44941	Later works dealt with ethical concerns in the modern world.	Later works dealt with ethical concerns in the modern world.	2143245	1471979464955	1471979465036	a	65
4215	44941	Later works dealt with ethical concerns in the modern world.	Later works dealt with ethical concerns in the modern world.	2143246	1471979465070	1471979465177	l	76
4215	44941	Later works dealt with ethical concerns in the modern world.	Later works dealt with ethical concerns in the modern world.	2143249	1471979465145	1471979465218	 	32
4215	44941	Later works dealt with ethical concerns in the modern world.	Later works dealt with ethical concerns in the modern world.	2143252	1471979465289	1471979465361	c	67
4215	44941	Later works dealt with ethical concerns in the modern world.	Later works dealt with ethical concerns in the modern world.	2143256	1471979465369	1471979465470	o	79
4215	44941	Later works dealt with ethical concerns in the modern world.	Later works dealt with ethical concerns in the modern world.	2143272	1471979465419	1471979465526	n	78
4215	44941	Later works dealt with ethical concerns in the modern world.	Later works dealt with ethical concerns in the modern world.	2143275	1471979465534	1471979465580	c	67
4215	44941	Later works dealt with ethical concerns in the modern world.	Later works dealt with ethical concerns in the modern world.	2143281	1471979465769	1471979465890	e	69
4215	44941	Later works dealt with ethical concerns in the modern world.	Later works dealt with ethical concerns in the modern world.	2143286	1471979466029	1471979466107	r	82
4215	44941	Later works dealt with ethical concerns in the modern world.	Later works dealt with ethical concerns in the modern world.	2143290	1471979466164	1471979466267	n	78
4215	44941	Later works dealt with ethical concerns in the modern world.	Later works dealt with ethical concerns in the modern world.	2143296	1471979466240	1471979466340	s	83
4215	44941	Later works dealt with ethical concerns in the modern world.	Later works dealt with ethical concerns in the modern world.	2143299	1471979466348	1471979466416	 	32
4215	44941	Later works dealt with ethical concerns in the modern world.	Later works dealt with ethical concerns in the modern world.	2143302	1471979466434	1471979466574	i	73
4215	44941	Later works dealt with ethical concerns in the modern world.	Later works dealt with ethical concerns in the modern world.	2143305	1471979466499	1471979466603	n	78
4215	44941	Later works dealt with ethical concerns in the modern world.	Later works dealt with ethical concerns in the modern world.	2143308	1471979466562	1471979466634	 	32
4215	44941	Later works dealt with ethical concerns in the modern world.	Later works dealt with ethical concerns in the modern world.	2143310	1471979466652	1471979466759	t	84
4215	44941	Later works dealt with ethical concerns in the modern world.	Later works dealt with ethical concerns in the modern world.	2143324	1471979466748	1471979466835	h	72
4215	44941	Later works dealt with ethical concerns in the modern world.	Later works dealt with ethical concerns in the modern world.	2143325	1471979466818	1471979466890	e	69
4215	44941	Later works dealt with ethical concerns in the modern world.	Later works dealt with ethical concerns in the modern world.	2143327	1471979466868	1471979466970	 	32
4215	44941	Later works dealt with ethical concerns in the modern world.	Later works dealt with ethical concerns in the modern world.	2143328	1471979466979	1471979467045	w	87
4215	44941	Later works dealt with ethical concerns in the modern world.	Later works dealt with ethical concerns in the modern world.	2143330	1471979467335	1471979467392	BKSP	8
4215	44941	Later works dealt with ethical concerns in the modern world.	Later works dealt with ethical concerns in the modern world.	2143331	1471979467502	1471979467562	m	77
4215	44941	Later works dealt with ethical concerns in the modern world.	Later works dealt with ethical concerns in the modern world.	2143332	1471979467641	1471979467723	o	79
4215	44941	Later works dealt with ethical concerns in the modern world.	Later works dealt with ethical concerns in the modern world.	2143343	1471979467690	1471979467758	d	68
4215	44941	Later works dealt with ethical concerns in the modern world.	Later works dealt with ethical concerns in the modern world.	2143346	1471979467812	1471979467909	e	69
4215	44941	Later works dealt with ethical concerns in the modern world.	Later works dealt with ethical concerns in the modern world.	2143347	1471979467866	1471979467970	r	82
4215	44941	Later works dealt with ethical concerns in the modern world.	Later works dealt with ethical concerns in the modern world.	2143349	1471979467956	1471979468058	n	78
4215	44941	Later works dealt with ethical concerns in the modern world.	Later works dealt with ethical concerns in the modern world.	2143350	1471979468046	1471979468133	 	32
4215	44941	Later works dealt with ethical concerns in the modern world.	Later works dealt with ethical concerns in the modern world.	2143352	1471979468192	1471979468243	w	87
4215	44941	Later works dealt with ethical concerns in the modern world.	Later works dealt with ethical concerns in the modern world.	2143376	1471979468252	1471979468319	o	79
4215	44941	Later works dealt with ethical concerns in the modern world.	Later works dealt with ethical concerns in the modern world.	2143380	1471979468352	1471979468430	r	82
4215	44941	Later works dealt with ethical concerns in the modern world.	Later works dealt with ethical concerns in the modern world.	2143384	1471979468448	1471979468505	l	76
4215	44941	Later works dealt with ethical concerns in the modern world.	Later works dealt with ethical concerns in the modern world.	2143388	1471979468533	1471979468603	d	68
4215	44941	Later works dealt with ethical concerns in the modern world.	Later works dealt with ethical concerns in the modern world.	2143394	1471979468707	1471979468904	SHIFT	16
4215	44941	Later works dealt with ethical concerns in the modern world.	Later works dealt with ethical concerns in the modern world.	2143393	1471979468797	1471979468865	.	190
4215	44957	Do you have a number for him?	Do you have a number for him?	2143469	1471979470395	1471979470692	SHIFT	16
4215	44957	Do you have a number for him?	Do you have a number for him?	2143467	1471979470567	1471979470661	D	68
4215	44957	Do you have a number for him?	Do you have a number for him?	2143471	1471979470670	1471979470746	O	79
4215	44957	Do you have a number for him?	Do you have a number for him?	2143476	1471979470811	1471979470868	 	32
4215	44957	Do you have a number for him?	Do you have a number for him?	2143480	1471979470910	1471979470978	y	89
4215	44957	Do you have a number for him?	Do you have a number for him?	2143524	1471979470961	1471979471079	o	79
4215	44957	Do you have a number for him?	Do you have a number for him?	2143526	1471979471023	1471979471143	u	85
4215	44957	Do you have a number for him?	Do you have a number for him?	2143527	1471979471133	1471979471209	 	32
4215	44957	Do you have a number for him?	Do you have a number for him?	2143528	1471979471499	1471979471551	BKSP	8
4215	44957	Do you have a number for him?	Do you have a number for him?	2143529	1471979471626	1471979471691	BKSP	8
4215	44957	Do you have a number for him?	Do you have a number for him?	2143530	1471979471735	1471979471807	BKSP	8
4215	44957	Do you have a number for him?	Do you have a number for him?	2143531	1471979471860	1471979471937	BKSP	8
4215	44957	Do you have a number for him?	Do you have a number for him?	2143532	1471979471981	1471979472048	BKSP	8
4215	44957	Do you have a number for him?	Do you have a number for him?	2143533	1471979472101	1471979472183	BKSP	8
4215	44957	Do you have a number for him?	Do you have a number for him?	2143534	1471979472282	1471979472339	o	79
4215	44957	Do you have a number for him?	Do you have a number for him?	2143535	1471979472359	1471979472435	 	32
4215	44957	Do you have a number for him?	Do you have a number for him?	2143537	1471979472488	1471979472575	y	89
4215	44957	Do you have a number for him?	Do you have a number for him?	2143536	1471979472523	1471979472651	o	79
4215	44957	Do you have a number for him?	Do you have a number for him?	2143539	1471979472583	1471979472692	u	85
4215	44957	Do you have a number for him?	Do you have a number for him?	2143541	1471979472680	1471979472757	 	32
4215	44957	Do you have a number for him?	Do you have a number for him?	2143543	1471979472812	1471979472868	a	72
4215	44957	Do you have a number for him?	Do you have a number for him?	2143546	1471979472901	1471979472998	v	86
4215	44957	Do you have a number for him?	Do you have a number for him?	2143547	1471979472971	1471979473063	e	69
4215	44957	Do you have a number for him?	Do you have a number for him?	2143548	1471979473041	1471979473128	 	32
4215	44957	Do you have a number for him?	Do you have a number for him?	2143550	1471979473137	1471979473218	a	65
4215	44957	Do you have a number for him?	Do you have a number for him?	2143552	1471979473227	1471979473299	 	32
4215	44957	Do you have a number for him?	Do you have a number for him?	2143581	1471979473272	1471979473340	n	78
4215	44957	Do you have a number for him?	Do you have a number for him?	2143585	1471979473447	1471979473513	u	85
4215	44957	Do you have a number for him?	Do you have a number for him?	2143593	1471979473568	1471979473654	m	77
4215	44957	Do you have a number for him?	Do you have a number for him?	2143596	1471979473668	1471979473732	b	66
4215	44957	Do you have a number for him?	Do you have a number for him?	2143598	1471979473800	1471979473897	e	69
4215	44957	Do you have a number for him?	Do you have a number for him?	2143616	1471979473865	1471979473928	r	82
4215	44957	Do you have a number for him?	Do you have a number for him?	2143620	1471979474111	1471979474209	 	32
4215	44957	Do you have a number for him?	Do you have a number for him?	2143623	1471979474362	1471979474424	f	70
4215	44957	Do you have a number for him?	Do you have a number for him?	2143626	1471979474477	1471979474509	o	79
4215	44957	Do you have a number for him?	Do you have a number for him?	2143632	1471979474714	1471979474801	r	82
4215	44957	Do you have a number for him?	Do you have a number for him?	2143648	1471979474789	1471979474872	 	32
4215	44957	Do you have a number for him?	Do you have a number for him?	2143651	1471979475125	1471979475202	h	72
4215	44957	Do you have a number for him?	Do you have a number for him?	2143655	1471979475175	1471979475262	i	73
4215	44957	Do you have a number for him?	Do you have a number for him?	2143659	1471979475356	1471979475422	m	77
4215	44957	Do you have a number for him?	Do you have a number for him?	2143670	1471979475464	1471979475691	SHIFT	16
4215	44957	Do you have a number for him?	Do you have a number for him?	2143664	1471979475594	1471979475656	?	188
4215	44963	Let me know if you have any problems.	Let me know if you have any problems.	2143754	1471979477918	1471979478094	SHIFT	16
4215	44963	Let me know if you have any problems.	Let me know if you have any problems.	2143756	1471979478022	1471979478104	L	76
4215	44963	Let me know if you have any problems.	Let me know if you have any problems.	2143758	1471979478173	1471979478291	e	69
4215	44963	Let me know if you have any problems.	Let me know if you have any problems.	2143763	1471979478228	1471979478321	t	84
4215	44963	Let me know if you have any problems.	Let me know if you have any problems.	2143769	1471979478309	1471979478386	 	32
4215	44963	Let me know if you have any problems.	Let me know if you have any problems.	2143792	1471979478373	1471979478489	m	77
4215	44963	Let me know if you have any problems.	Let me know if you have any problems.	2143794	1471979478463	1471979478560	e	69
4215	44963	Let me know if you have any problems.	Let me know if you have any problems.	2143796	1471979478523	1471979478615	 	32
4215	44963	Let me know if you have any problems.	Let me know if you have any problems.	2143799	1471979478629	1471979478740	k	75
4215	44963	Let me know if you have any problems.	Let me know if you have any problems.	2143803	1471979478710	1471979478796	n	78
4215	44963	Let me know if you have any problems.	Let me know if you have any problems.	2143805	1471979478805	1471979478902	o	79
4215	44963	Let me know if you have any problems.	Let me know if you have any problems.	2143809	1471979478910	1471979479008	w	87
4215	44963	Let me know if you have any problems.	Let me know if you have any problems.	2143811	1471979478975	1471979479042	 	32
4215	44963	Let me know if you have any problems.	Let me know if you have any problems.	2143813	1471979479056	1471979479172	i	73
4215	44963	Let me know if you have any problems.	Let me know if you have any problems.	2143815	1471979479180	1471979479268	f	70
4215	44963	Let me know if you have any problems.	Let me know if you have any problems.	2143847	1471979479256	1471979479322	 	32
4215	44963	Let me know if you have any problems.	Let me know if you have any problems.	2143849	1471979479396	1471979479481	t	84
4215	44963	Let me know if you have any problems.	Let me know if you have any problems.	2143852	1471979479446	1471979479542	o	79
4215	44963	Let me know if you have any problems.	Let me know if you have any problems.	2143854	1471979479503	1471979479591	u	85
4215	44963	Let me know if you have any problems.	Let me know if you have any problems.	2143856	1471979479708	1471979479769	BKSP	8
4215	44963	Let me know if you have any problems.	Let me know if you have any problems.	2143860	1471979479826	1471979479889	BKSP	8
4215	44963	Let me know if you have any problems.	Let me know if you have any problems.	2143862	1471979479941	1471979480034	BKSP	8
4215	44963	Let me know if you have any problems.	Let me know if you have any problems.	2143863	1471979480041	1471979480134	y	89
4215	44963	Let me know if you have any problems.	Let me know if you have any problems.	2143865	1471979480142	1471979480239	o	79
4215	44963	Let me know if you have any problems.	Let me know if you have any problems.	2143870	1471979480182	1471979480279	u	85
4215	44963	Let me know if you have any problems.	Let me know if you have any problems.	2143872	1471979480258	1471979480354	 	32
4215	44963	Let me know if you have any problems.	Let me know if you have any problems.	2143878	1471979480397	1471979480477	h	72
4215	44963	Let me know if you have any problems.	Let me know if you have any problems.	2143880	1471979480423	1471979480518	a	65
4215	44963	Let me know if you have any problems.	Let me know if you have any problems.	2143883	1471979480501	1471979480588	v	86
4215	44963	Let me know if you have any problems.	Let me know if you have any problems.	2143886	1471979480596	1471979480678	e	69
4215	44963	Let me know if you have any problems.	Let me know if you have any problems.	2143903	1471979480645	1471979480744	 	32
4215	44963	Let me know if you have any problems.	Let me know if you have any problems.	2143904	1471979480771	1471979480846	a	65
4215	44963	Let me know if you have any problems.	Let me know if you have any problems.	2143907	1471979480830	1471979480907	n	78
4215	44963	Let me know if you have any problems.	Let me know if you have any problems.	2143908	1471979481000	1471979481087	y	89
4215	44963	Let me know if you have any problems.	Let me know if you have any problems.	2143912	1471979481095	1471979481172	 	32
4215	44963	Let me know if you have any problems.	Let me know if you have any problems.	2143914	1471979481191	1471979481263	p	80
4215	44963	Let me know if you have any problems.	Let me know if you have any problems.	2143926	1471979481271	1471979481328	r	82
4215	44963	Let me know if you have any problems.	Let me know if you have any problems.	2143927	1471979481367	1471979481439	o	79
4215	44963	Let me know if you have any problems.	Let me know if you have any problems.	2143929	1471979481447	1471979481493	b	66
4215	44963	Let me know if you have any problems.	Let me know if you have any problems.	2143931	1471979481551	1471979481618	l	76
4215	44963	Let me know if you have any problems.	Let me know if you have any problems.	2143934	1471979481645	1471979481703	e	69
4215	44963	Let me know if you have any problems.	Let me know if you have any problems.	2143948	1471979481748	1471979481832	m	77
4215	44963	Let me know if you have any problems.	Let me know if you have any problems.	2143950	1471979481820	1471979481887	s	83
4215	44963	Let me know if you have any problems.	Let me know if you have any problems.	2143952	1471979481949	1471979482087	SHIFT	16
4215	44963	Let me know if you have any problems.	Let me know if you have any problems.	2143951	1471979482019	1471979482077	.	190
4215	44967	Juppe arrived in Washington on Wednesday.	Juppe arrived in Washington on Wednesday.	2144003	1471979483289	1471979483588	SHIFT	16
4215	44967	Juppe arrived in Washington on Wednesday.	Juppe arrived in Washington on Wednesday.	2144001	1471979483464	1471979483539	J	74
4215	44967	Juppe arrived in Washington on Wednesday.	Juppe arrived in Washington on Wednesday.	2144005	1471979483637	1471979483705	u	85
4215	44967	Juppe arrived in Washington on Wednesday.	Juppe arrived in Washington on Wednesday.	2144007	1471979483728	1471979483760	p	80
4215	44967	Juppe arrived in Washington on Wednesday.	Juppe arrived in Washington on Wednesday.	2144010	1471979483844	1471979483897	p	80
4215	44967	Juppe arrived in Washington on Wednesday.	Juppe arrived in Washington on Wednesday.	2144013	1471979483991	1471979484088	e	69
4215	44967	Juppe arrived in Washington on Wednesday.	Juppe arrived in Washington on Wednesday.	2144044	1471979484046	1471979484143	 	32
4215	44967	Juppe arrived in Washington on Wednesday.	Juppe arrived in Washington on Wednesday.	2144047	1471979484167	1471979484269	a	65
4215	44967	Juppe arrived in Washington on Wednesday.	Juppe arrived in Washington on Wednesday.	2144052	1471979484317	1471979484384	r	82
4215	44967	Juppe arrived in Washington on Wednesday.	Juppe arrived in Washington on Wednesday.	2144056	1471979484439	1471979484520	r	82
4215	44967	Juppe arrived in Washington on Wednesday.	Juppe arrived in Washington on Wednesday.	2144059	1471979484538	1471979484633	i	73
4215	44967	Juppe arrived in Washington on Wednesday.	Juppe arrived in Washington on Wednesday.	2144062	1471979484642	1471979484688	v	86
4215	44967	Juppe arrived in Washington on Wednesday.	Juppe arrived in Washington on Wednesday.	2144072	1471979484740	1471979484803	e	69
4215	44967	Juppe arrived in Washington on Wednesday.	Juppe arrived in Washington on Wednesday.	2144075	1471979484869	1471979484971	d	68
4215	44967	Juppe arrived in Washington on Wednesday.	Juppe arrived in Washington on Wednesday.	2144079	1471979484934	1471979485031	 	32
4215	44967	Juppe arrived in Washington on Wednesday.	Juppe arrived in Washington on Wednesday.	2144083	1471979485055	1471979485187	i	73
4215	44967	Juppe arrived in Washington on Wednesday.	Juppe arrived in Washington on Wednesday.	2144113	1471979485125	1471979485227	n	78
4215	44967	Juppe arrived in Washington on Wednesday.	Juppe arrived in Washington on Wednesday.	2144114	1471979485209	1471979485296	 	32
4215	44967	Juppe arrived in Washington on Wednesday.	Juppe arrived in Washington on Wednesday.	2144119	1471979485326	1471979486238	SHIFT	16
4215	44967	Juppe arrived in Washington on Wednesday.	Juppe arrived in Washington on Wednesday.	2144115	1471979485551	1471979485745	S	83
4215	44967	Juppe arrived in Washington on Wednesday.	Juppe arrived in Washington on Wednesday.	2144116	1471979485955	1471979486038	BKSP	8
4215	44967	Juppe arrived in Washington on Wednesday.	Juppe arrived in Washington on Wednesday.	2144117	1471979486081	1471979486208	W	87
4215	44967	Juppe arrived in Washington on Wednesday.	Juppe arrived in Washington on Wednesday.	2144121	1471979486387	1471979486458	a	65
4215	44967	Juppe arrived in Washington on Wednesday.	Juppe arrived in Washington on Wednesday.	2144124	1471979486567	1471979486628	s	83
4215	44967	Juppe arrived in Washington on Wednesday.	Juppe arrived in Washington on Wednesday.	2144148	1471979486647	1471979486695	h	72
4215	44967	Juppe arrived in Washington on Wednesday.	Juppe arrived in Washington on Wednesday.	2144153	1471979486707	1471979486849	i	73
4215	44967	Juppe arrived in Washington on Wednesday.	Juppe arrived in Washington on Wednesday.	2144157	1471979486825	1471979486880	n	78
4215	44967	Juppe arrived in Washington on Wednesday.	Juppe arrived in Washington on Wednesday.	2144161	1471979486988	1471979487095	g	71
4215	44967	Juppe arrived in Washington on Wednesday.	Juppe arrived in Washington on Wednesday.	2144165	1471979487229	1471979487351	t	84
4215	44967	Juppe arrived in Washington on Wednesday.	Juppe arrived in Washington on Wednesday.	2144192	1471979487334	1471979487441	o	79
4215	44967	Juppe arrived in Washington on Wednesday.	Juppe arrived in Washington on Wednesday.	2144198	1471979487379	1471979487501	n	78
4215	44967	Juppe arrived in Washington on Wednesday.	Juppe arrived in Washington on Wednesday.	2144202	1471979487795	1471979487893	 	32
4215	44967	Juppe arrived in Washington on Wednesday.	Juppe arrived in Washington on Wednesday.	2144208	1471979487922	1471979488029	o	79
4215	44967	Juppe arrived in Washington on Wednesday.	Juppe arrived in Washington on Wednesday.	2144213	1471979487967	1471979488084	n	78
4215	44967	Juppe arrived in Washington on Wednesday.	Juppe arrived in Washington on Wednesday.	2144246	1471979488072	1471979488174	 	32
4215	44967	Juppe arrived in Washington on Wednesday.	Juppe arrived in Washington on Wednesday.	2144249	1471979488407	1471979488881	SHIFT	16
4215	44967	Juppe arrived in Washington on Wednesday.	Juppe arrived in Washington on Wednesday.	2144247	1471979488667	1471979488824	W	87
4215	44967	Juppe arrived in Washington on Wednesday.	Juppe arrived in Washington on Wednesday.	2144251	1471979488986	1471979489043	e	69
4215	44967	Juppe arrived in Washington on Wednesday.	Juppe arrived in Washington on Wednesday.	2144255	1471979489142	1471979489239	d	68
4215	44967	Juppe arrived in Washington on Wednesday.	Juppe arrived in Washington on Wednesday.	2144258	1471979489348	1471979489469	n	78
4215	44967	Juppe arrived in Washington on Wednesday.	Juppe arrived in Washington on Wednesday.	2144262	1471979489478	1471979489605	e	69
4215	44967	Juppe arrived in Washington on Wednesday.	Juppe arrived in Washington on Wednesday.	2144295	1471979489537	1471979489645	s	83
4215	44967	Juppe arrived in Washington on Wednesday.	Juppe arrived in Washington on Wednesday.	2144298	1471979489742	1471979489872	d	68
4215	44967	Juppe arrived in Washington on Wednesday.	Juppe arrived in Washington on Wednesday.	2144302	1471979489881	1471979489946	a	65
4215	44967	Juppe arrived in Washington on Wednesday.	Juppe arrived in Washington on Wednesday.	2144307	1471979489985	1471979490032	y	89
4215	44967	Juppe arrived in Washington on Wednesday.	Juppe arrived in Washington on Wednesday.	2144312	1471979490310	1471979490487	SHIFT	16
4215	44967	Juppe arrived in Washington on Wednesday.	Juppe arrived in Washington on Wednesday.	2144319	1471979490689	1471979490864	SHIFT	16
4215	44967	Juppe arrived in Washington on Wednesday.	Juppe arrived in Washington on Wednesday.	2144317	1471979490758	1471979490830	.	190
4215	44976	Hours are listed in 24hr format central time.	Hours are listed in 24hr format central time.	2144569	1471979498157	1471979498364	SHIFT	16
4215	44976	Hours are listed in 24hr format central time.	Hours are listed in 24hr format central time.	2144567	1471979498272	1471979498324	H	72
4215	44976	Hours are listed in 24hr format central time.	Hours are listed in 24hr format central time.	2144571	1471979498423	1471979498544	o	79
4215	44976	Hours are listed in 24hr format central time.	Hours are listed in 24hr format central time.	2144573	1471979498487	1471979498594	u	85
4215	44976	Hours are listed in 24hr format central time.	Hours are listed in 24hr format central time.	2144575	1471979498552	1471979498654	r	82
4215	44976	Hours are listed in 24hr format central time.	Hours are listed in 24hr format central time.	2144588	1471979498642	1471979498737	s	83
4215	44976	Hours are listed in 24hr format central time.	Hours are listed in 24hr format central time.	2144591	1471979498724	1471979498818	 	32
4215	44976	Hours are listed in 24hr format central time.	Hours are listed in 24hr format central time.	2144596	1471979498936	1471979499061	a	65
4215	44976	Hours are listed in 24hr format central time.	Hours are listed in 24hr format central time.	2144600	1471979499022	1471979499146	r	82
4215	44976	Hours are listed in 24hr format central time.	Hours are listed in 24hr format central time.	2144604	1471979499094	1471979499207	e	69
4215	44976	Hours are listed in 24hr format central time.	Hours are listed in 24hr format central time.	2144614	1471979499179	1471979499261	 	32
4215	44976	Hours are listed in 24hr format central time.	Hours are listed in 24hr format central time.	2144616	1471979499300	1471979499397	l	76
4215	44976	Hours are listed in 24hr format central time.	Hours are listed in 24hr format central time.	2144619	1471979499355	1471979499477	i	73
4215	44976	Hours are listed in 24hr format central time.	Hours are listed in 24hr format central time.	2144622	1471979499445	1471979499587	s	83
4215	44976	Hours are listed in 24hr format central time.	Hours are listed in 24hr format central time.	2144638	1471979499515	1471979499603	t	84
4215	44976	Hours are listed in 24hr format central time.	Hours are listed in 24hr format central time.	2144640	1471979499575	1471979499647	e	69
4215	44976	Hours are listed in 24hr format central time.	Hours are listed in 24hr format central time.	2144642	1471979499721	1471979499820	d	68
4215	44976	Hours are listed in 24hr format central time.	Hours are listed in 24hr format central time.	2144643	1471979499809	1471979499911	 	32
4215	44976	Hours are listed in 24hr format central time.	Hours are listed in 24hr format central time.	2144644	1471979499940	1471979500072	i	73
4215	44976	Hours are listed in 24hr format central time.	Hours are listed in 24hr format central time.	2144645	1471979499991	1471979500101	n	78
4215	44976	Hours are listed in 24hr format central time.	Hours are listed in 24hr format central time.	2144810	1471979500079	1471979500161	 	32
4215	44976	Hours are listed in 24hr format central time.	Hours are listed in 24hr format central time.	2144813	1471979500475	1471979500616	CAPS_LOCK	20
4215	44976	Hours are listed in 24hr format central time.	Hours are listed in 24hr format central time.	2144818	1471979500604	1471979500722	2	50
4215	44976	Hours are listed in 24hr format central time.	Hours are listed in 24hr format central time.	2144822	1471979500807	1471979500914	5	53
4215	44976	Hours are listed in 24hr format central time.	Hours are listed in 24hr format central time.	2144824	1471979500923	1471979501001	CAPS_LOCK	20
4215	44976	Hours are listed in 24hr format central time.	Hours are listed in 24hr format central time.	2144828	1471979501275	1471979501356	BKSP	8
4215	44976	Hours are listed in 24hr format central time.	Hours are listed in 24hr format central time.	2144832	1471979501424	1471979501541	CAPS_LOCK	20
4215	44976	Hours are listed in 24hr format central time.	Hours are listed in 24hr format central time.	2144836	1471979501615	1471979501722	CAPS_LOCK	20
4215	44976	Hours are listed in 24hr format central time.	Hours are listed in 24hr format central time.	2144838	1471979502005	1471979502195	CAPS_LOCK	20
4215	44976	Hours are listed in 24hr format central time.	Hours are listed in 24hr format central time.	2144840	1471979502290	1471979502361	BKSP	8
4215	44976	Hours are listed in 24hr format central time.	Hours are listed in 24hr format central time.	2144842	1471979502400	1471979502533	4	52
4215	44976	Hours are listed in 24hr format central time.	Hours are listed in 24hr format central time.	2144844	1471979502746	1471979502825	BKSP	8
4215	44976	Hours are listed in 24hr format central time.	Hours are listed in 24hr format central time.	2144845	1471979503460	1471979503553	2	98
4215	44976	Hours are listed in 24hr format central time.	Hours are listed in 24hr format central time.	2144846	1471979503640	1471979503712	4	100
4215	44976	Hours are listed in 24hr format central time.	Hours are listed in 24hr format central time.	2144888	1471979503927	1471979503999	 	32
4215	44976	Hours are listed in 24hr format central time.	Hours are listed in 24hr format central time.	2144890	1471979504213	1471979504260	H	72
4215	44976	Hours are listed in 24hr format central time.	Hours are listed in 24hr format central time.	2144892	1471979504603	1471979504676	BKSP	8
4215	44976	Hours are listed in 24hr format central time.	Hours are listed in 24hr format central time.	2144894	1471979504725	1471979504828	CAPS_LOCK	20
4215	44976	Hours are listed in 24hr format central time.	Hours are listed in 24hr format central time.	2144897	1471979504799	1471979504861	h	72
4215	44976	Hours are listed in 24hr format central time.	Hours are listed in 24hr format central time.	2144900	1471979505077	1471979505141	BKSP	8
4215	44976	Hours are listed in 24hr format central time.	Hours are listed in 24hr format central time.	2144902	1471979505194	1471979505281	BKSP	8
4215	44976	Hours are listed in 24hr format central time.	Hours are listed in 24hr format central time.	2144904	1471979505326	1471979505407	h	72
4215	44976	Hours are listed in 24hr format central time.	Hours are listed in 24hr format central time.	2144906	1471979505430	1471979505552	r	82
4215	44976	Hours are listed in 24hr format central time.	Hours are listed in 24hr format central time.	2144908	1471979505526	1471979505613	 	32
4215	44976	Hours are listed in 24hr format central time.	Hours are listed in 24hr format central time.	2144909	1471979505676	1471979505757	f	70
4215	44976	Hours are listed in 24hr format central time.	Hours are listed in 24hr format central time.	2144910	1471979505801	1471979505870	o	79
4215	44976	Hours are listed in 24hr format central time.	Hours are listed in 24hr format central time.	2144911	1471979505877	1471979505960	r	82
4215	44976	Hours are listed in 24hr format central time.	Hours are listed in 24hr format central time.	2144912	1471979505968	1471979506069	m	77
4215	44976	Hours are listed in 24hr format central time.	Hours are listed in 24hr format central time.	2144929	1471979506038	1471979506156	a	65
4215	44976	Hours are listed in 24hr format central time.	Hours are listed in 24hr format central time.	2144933	1471979506101	1471979506180	t	84
4215	44976	Hours are listed in 24hr format central time.	Hours are listed in 24hr format central time.	2144936	1471979506163	1471979506241	 	32
4215	44976	Hours are listed in 24hr format central time.	Hours are listed in 24hr format central time.	2144939	1471979506280	1471979506341	c	67
4215	44976	Hours are listed in 24hr format central time.	Hours are listed in 24hr format central time.	2144940	1471979506431	1471979506518	e	69
4215	44976	Hours are listed in 24hr format central time.	Hours are listed in 24hr format central time.	2144950	1471979506501	1471979506593	n	78
4215	44976	Hours are listed in 24hr format central time.	Hours are listed in 24hr format central time.	2144953	1471979506577	1471979506655	t	84
4215	44976	Hours are listed in 24hr format central time.	Hours are listed in 24hr format central time.	2144956	1471979506713	1471979506829	r	82
4215	44976	Hours are listed in 24hr format central time.	Hours are listed in 24hr format central time.	2144958	1471979506778	1471979506868	a	65
4215	44976	Hours are listed in 24hr format central time.	Hours are listed in 24hr format central time.	2144959	1471979506874	1471979506955	l	76
4215	44976	Hours are listed in 24hr format central time.	Hours are listed in 24hr format central time.	2144961	1471979506963	1471979507040	 	32
4215	44976	Hours are listed in 24hr format central time.	Hours are listed in 24hr format central time.	2144969	1471979507094	1471979507190	t	84
4215	44976	Hours are listed in 24hr format central time.	Hours are listed in 24hr format central time.	2144975	1471979507178	1471979507264	i	73
4215	44976	Hours are listed in 24hr format central time.	Hours are listed in 24hr format central time.	2144978	1471979507248	1471979507345	m	77
4215	44976	Hours are listed in 24hr format central time.	Hours are listed in 24hr format central time.	2144983	1471979507323	1471979507420	e	69
4215	44976	Hours are listed in 24hr format central time.	Hours are listed in 24hr format central time.	2144981	1471979507428	1471979507555	SHIFT	16
4215	44976	Hours are listed in 24hr format central time.	Hours are listed in 24hr format central time.	2144988	1471979507483	1471979507530	.	190
