PARTICIPANT_ID	TEST_SECTION_ID	SENTENCE	USER_INPUT	KEYSTROKE_ID	PRESS_TIME	RELEASE_TIME	LETTER	KEYCODE
4256	45163	We would have waited up all night to see them.	WE would have waited up all night to see them.	2152692	1472069160071	1472069160231	SHIFT	16
4256	45163	We would have waited up all night to see them.	WE would have waited up all night to see them.	2152697	1472069160142	1472069160285	W	87
4256	45163	We would have waited up all night to see them.	WE would have waited up all night to see them.	2152704	1472069160206	1472069160350	E	69
4256	45163	We would have waited up all night to see them.	WE would have waited up all night to see them.	2152708	1472069160350	1472069160510	 	32
4256	45163	We would have waited up all night to see them.	WE would have waited up all night to see them.	2152712	1472069160510	1472069160646	w	87
4256	45163	We would have waited up all night to see them.	WE would have waited up all night to see them.	2152722	1472069160614	1472069160694	o	79
4256	45163	We would have waited up all night to see them.	WE would have waited up all night to see them.	2152724	1472069160670	1472069160766	u	85
4256	45163	We would have waited up all night to see them.	WE would have waited up all night to see them.	2152727	1472069160870	1472069160990	l	76
4256	45163	We would have waited up all night to see them.	WE would have waited up all night to see them.	2152730	1472069160926	1472069161053	d	68
4256	45163	We would have waited up all night to see them.	WE would have waited up all night to see them.	2152733	1472069160990	1472069161126	 	32
4256	45163	We would have waited up all night to see them.	WE would have waited up all night to see them.	2152750	1472069161110	1472069161222	h	72
4256	45163	We would have waited up all night to see them.	WE would have waited up all night to see them.	2152753	1472069161158	1472069161277	a	65
4256	45163	We would have waited up all night to see them.	WE would have waited up all night to see them.	2152755	1472069161318	1472069161382	v	86
4256	45163	We would have waited up all night to see them.	WE would have waited up all night to see them.	2152759	1472069161429	1472069161589	e	69
4256	45163	We would have waited up all night to see them.	WE would have waited up all night to see them.	2152762	1472069161526	1472069161646	 	32
4256	45163	We would have waited up all night to see them.	WE would have waited up all night to see them.	2152763	1472069161646	1472069161813	w	87
4256	45163	We would have waited up all night to see them.	WE would have waited up all night to see them.	2152785	1472069161817	1472069162029	i	65
4256	45163	We would have waited up all night to see them.	WE would have waited up all night to see them.	2152788	1472069162061	1472069162157	t	84
4256	45163	We would have waited up all night to see them.	WE would have waited up all night to see them.	2152791	1472069162133	1472069162221	e	69
4256	45163	We would have waited up all night to see them.	WE would have waited up all night to see them.	2152794	1472069162333	1472069162502	d	68
4256	45163	We would have waited up all night to see them.	WE would have waited up all night to see them.	2152804	1472069162406	1472069162557	 	32
4256	45163	We would have waited up all night to see them.	WE would have waited up all night to see them.	2152807	1472069162534	1472069162694	u	85
4256	45163	We would have waited up all night to see them.	WE would have waited up all night to see them.	2152812	1472069162638	1472069162798	p	80
4256	45163	We would have waited up all night to see them.	WE would have waited up all night to see them.	2152816	1472069162766	1472069162918	 	32
4256	45163	We would have waited up all night to see them.	WE would have waited up all night to see them.	2152841	1472069162941	1472069163093	a	65
4256	45163	We would have waited up all night to see them.	WE would have waited up all night to see them.	2152822	1472069163029	1472069163078	l	76
4256	45163	We would have waited up all night to see them.	WE would have waited up all night to see them.	2152845	1472069163181	1472069163277	l	76
4256	45163	We would have waited up all night to see them.	WE would have waited up all night to see them.	2152847	1472069163278	1472069163381	 	32
4256	45163	We would have waited up all night to see them.	WE would have waited up all night to see them.	2152849	1472069163413	1472069163477	n	78
4256	45163	We would have waited up all night to see them.	WE would have waited up all night to see them.	2152851	1472069163590	1472069163678	i	73
4256	45163	We would have waited up all night to see them.	WE would have waited up all night to see them.	2152866	1472069163622	1472069163725	g	71
4256	45163	We would have waited up all night to see them.	WE would have waited up all night to see them.	2152871	1472069163805	1472069163862	h	72
4256	45163	We would have waited up all night to see them.	WE would have waited up all night to see them.	2152875	1472069163838	1472069163933	t	84
4256	45163	We would have waited up all night to see them.	WE would have waited up all night to see them.	2152877	1472069163934	1472069164038	 	32
4256	45163	We would have waited up all night to see them.	WE would have waited up all night to see them.	2152879	1472069164038	1472069164141	t	84
4256	45163	We would have waited up all night to see them.	WE would have waited up all night to see them.	2152912	1472069164086	1472069164205	o	79
4256	45163	We would have waited up all night to see them.	WE would have waited up all night to see them.	2152915	1472069164181	1472069164293	 	32
4256	45163	We would have waited up all night to see them.	WE would have waited up all night to see them.	2152920	1472069164253	1472069164390	s	83
4256	45163	We would have waited up all night to see them.	WE would have waited up all night to see them.	2152921	1472069164341	1472069164413	e	69
4256	45163	We would have waited up all night to see them.	WE would have waited up all night to see them.	2152923	1472069164494	1472069164613	e	69
4256	45163	We would have waited up all night to see them.	WE would have waited up all night to see them.	2152925	1472069164693	1472069164822	 	32
4256	45163	We would have waited up all night to see them.	WE would have waited up all night to see them.	2152951	1472069164825	1472069164933	t	84
4256	45163	We would have waited up all night to see them.	WE would have waited up all night to see them.	2152957	1472069164894	1472069164982	h	72
4256	45163	We would have waited up all night to see them.	WE would have waited up all night to see them.	2152961	1472069164982	1472069165150	e	69
4256	45163	We would have waited up all night to see them.	WE would have waited up all night to see them.	2152965	1472069165150	1472069165229	m	77
4256	45163	We would have waited up all night to see them.	WE would have waited up all night to see them.	2152967	1472069165382	1472069165485	.	190
4256	45179	But thank you for the offer.	But thank you for the offer.	2153290	1472069171437	1472069171654	SHIFT	16
4256	45179	But thank you for the offer.	But thank you for the offer.	2153292	1472069171581	1472069171654	B	66
4256	45179	But thank you for the offer.	But thank you for the offer.	2153299	1472069171789	1472069171861	u	85
4256	45179	But thank you for the offer.	But thank you for the offer.	2153303	1472069171893	1472069171997	t	84
4256	45179	But thank you for the offer.	But thank you for the offer.	2153311	1472069171973	1472069172117	 	32
4256	45179	But thank you for the offer.	But thank you for the offer.	2153320	1472069172118	1472069172245	t	84
4256	45179	But thank you for the offer.	But thank you for the offer.	2153349	1472069172189	1472069172269	h	72
4256	45179	But thank you for the offer.	But thank you for the offer.	2153352	1472069172293	1472069172454	a	65
4256	45179	But thank you for the offer.	But thank you for the offer.	2153357	1472069172381	1472069172454	n	78
4256	45179	But thank you for the offer.	But thank you for the offer.	2153363	1472069172549	1472069172645	k	75
4256	45179	But thank you for the offer.	But thank you for the offer.	2153369	1472069172597	1472069172781	 	32
4256	45179	But thank you for the offer.	But thank you for the offer.	2153373	1472069172813	1472069172893	y	89
4256	45179	But thank you for the offer.	But thank you for the offer.	2153391	1472069172965	1472069173077	o	79
4256	45179	But thank you for the offer.	But thank you for the offer.	2153396	1472069173061	1472069173173	u	85
4256	45179	But thank you for the offer.	But thank you for the offer.	2153402	1472069173101	1472069173261	 	32
4256	45179	But thank you for the offer.	But thank you for the offer.	2153405	1472069173221	1472069173357	f	70
4256	45179	But thank you for the offer.	But thank you for the offer.	2153409	1472069173358	1472069173477	o	79
4256	45179	But thank you for the offer.	But thank you for the offer.	2153422	1472069173481	1472069173590	r	82
4256	45179	But thank you for the offer.	But thank you for the offer.	2153424	1472069173565	1472069173685	 	32
4256	45179	But thank you for the offer.	But thank you for the offer.	2153429	1472069173686	1472069173821	t	84
4256	45179	But thank you for the offer.	But thank you for the offer.	2153433	1472069173741	1472069173861	h	72
4256	45179	But thank you for the offer.	But thank you for the offer.	2153464	1472069173822	1472069173933	e	69
4256	45179	But thank you for the offer.	But thank you for the offer.	2153468	1472069173871	1472069173981	 	32
4256	45179	But thank you for the offer.	But thank you for the offer.	2153473	1472069174021	1472069174133	o	79
4256	45179	But thank you for the offer.	But thank you for the offer.	2153475	1472069174173	1472069174213	f	70
4256	45179	But thank you for the offer.	But thank you for the offer.	2153478	1472069174293	1472069174397	f	70
4256	45179	But thank you for the offer.	But thank you for the offer.	2153483	1472069174517	1472069174685	e	69
4256	45179	But thank you for the offer.	But thank you for the offer.	2153540	1472069174605	1472069174733	r	82
4256	45179	But thank you for the offer.	But thank you for the offer.	2153542	1472069175341	1472069175485	.	190
4256	45190	The Columbia mission takes off from the Kennedy space centre.	The Columbia Mission takes off from the Kennedy space centre.	2153834	1472069180661	1472069180765	SHIFT	16
4256	45190	The Columbia mission takes off from the Kennedy space centre.	The Columbia Mission takes off from the Kennedy space centre.	2153840	1472069180701	1472069180829	T	84
4256	45190	The Columbia mission takes off from the Kennedy space centre.	The Columbia Mission takes off from the Kennedy space centre.	2153846	1472069180893	1472069180989	h	72
4256	45190	The Columbia mission takes off from the Kennedy space centre.	The Columbia Mission takes off from the Kennedy space centre.	2153850	1472069180949	1472069181069	e	69
4256	45190	The Columbia mission takes off from the Kennedy space centre.	The Columbia Mission takes off from the Kennedy space centre.	2153852	1472069181070	1472069181157	 	32
4256	45190	The Columbia mission takes off from the Kennedy space centre.	The Columbia Mission takes off from the Kennedy space centre.	2153855	1472069181373	1472069181509	SHIFT	16
4256	45190	The Columbia mission takes off from the Kennedy space centre.	The Columbia Mission takes off from the Kennedy space centre.	2153931	1472069181445	1472069181605	C	67
4256	45190	The Columbia mission takes off from the Kennedy space centre.	The Columbia Mission takes off from the Kennedy space centre.	2153933	1472069181677	1472069181765	o	79
4256	45190	The Columbia mission takes off from the Kennedy space centre.	The Columbia Mission takes off from the Kennedy space centre.	2153934	1472069182277	1472069182397	l	76
4256	45190	The Columbia mission takes off from the Kennedy space centre.	The Columbia Mission takes off from the Kennedy space centre.	2153935	1472069182461	1472069182533	u	85
4256	45190	The Columbia mission takes off from the Kennedy space centre.	The Columbia Mission takes off from the Kennedy space centre.	2153936	1472069182701	1472069182765	m	77
4256	45190	The Columbia mission takes off from the Kennedy space centre.	The Columbia Mission takes off from the Kennedy space centre.	2153937	1472069182901	1472069182941	b	66
4256	45190	The Columbia mission takes off from the Kennedy space centre.	The Columbia Mission takes off from the Kennedy space centre.	2154010	1472069183093	1472069183165	i	73
4256	45190	The Columbia mission takes off from the Kennedy space centre.	The Columbia Mission takes off from the Kennedy space centre.	2154015	1472069183261	1472069183421	a	65
4256	45190	The Columbia mission takes off from the Kennedy space centre.	The Columbia Mission takes off from the Kennedy space centre.	2154021	1472069183381	1472069183517	 	32
4256	45190	The Columbia mission takes off from the Kennedy space centre.	The Columbia Mission takes off from the Kennedy space centre.	2154027	1472069184125	1472069184278	SHIFT	16
4256	45190	The Columbia mission takes off from the Kennedy space centre.	The Columbia Mission takes off from the Kennedy space centre.	2154033	1472069184197	1472069184278	M	77
4256	45190	The Columbia mission takes off from the Kennedy space centre.	The Columbia Mission takes off from the Kennedy space centre.	2154039	1472069184349	1472069184437	i	73
4256	45190	The Columbia mission takes off from the Kennedy space centre.	The Columbia Mission takes off from the Kennedy space centre.	2154085	1472069184441	1472069184493	s	83
4256	45190	The Columbia mission takes off from the Kennedy space centre.	The Columbia Mission takes off from the Kennedy space centre.	2154089	1472069184645	1472069184757	s	83
4256	45190	The Columbia mission takes off from the Kennedy space centre.	The Columbia Mission takes off from the Kennedy space centre.	2154092	1472069185085	1472069185277	i	73
4256	45190	The Columbia mission takes off from the Kennedy space centre.	The Columbia Mission takes off from the Kennedy space centre.	2154097	1472069185221	1472069185341	o	79
4256	45190	The Columbia mission takes off from the Kennedy space centre.	The Columbia Mission takes off from the Kennedy space centre.	2154101	1472069185437	1472069185557	n	78
4256	45190	The Columbia mission takes off from the Kennedy space centre.	The Columbia Mission takes off from the Kennedy space centre.	2154129	1472069185493	1472069185621	 	32
4256	45190	The Columbia mission takes off from the Kennedy space centre.	The Columbia Mission takes off from the Kennedy space centre.	2154133	1472069185560	1472069185693	t	84
4256	45190	The Columbia mission takes off from the Kennedy space centre.	The Columbia Mission takes off from the Kennedy space centre.	2154139	1472069185693	1472069185869	a	65
4256	45190	The Columbia mission takes off from the Kennedy space centre.	The Columbia Mission takes off from the Kennedy space centre.	2154142	1472069185741	1472069185870	k	75
4256	45190	The Columbia mission takes off from the Kennedy space centre.	The Columbia Mission takes off from the Kennedy space centre.	2154144	1472069185870	1472069186045	e	69
4256	45190	The Columbia mission takes off from the Kennedy space centre.	The Columbia Mission takes off from the Kennedy space centre.	2154173	1472069185989	1472069186141	s	83
4256	45190	The Columbia mission takes off from the Kennedy space centre.	The Columbia Mission takes off from the Kennedy space centre.	2154177	1472069186061	1472069186173	 	32
4256	45190	The Columbia mission takes off from the Kennedy space centre.	The Columbia Mission takes off from the Kennedy space centre.	2154181	1472069186205	1472069186285	o	79
4256	45190	The Columbia mission takes off from the Kennedy space centre.	The Columbia Mission takes off from the Kennedy space centre.	2154186	1472069186301	1472069186381	f	70
4256	45190	The Columbia mission takes off from the Kennedy space centre.	The Columbia Mission takes off from the Kennedy space centre.	2154190	1472069186461	1472069186565	f	70
4256	45190	The Columbia mission takes off from the Kennedy space centre.	The Columbia Mission takes off from the Kennedy space centre.	2154216	1472069186517	1472069186669	 	32
4256	45190	The Columbia mission takes off from the Kennedy space centre.	The Columbia Mission takes off from the Kennedy space centre.	2154221	1472069186701	1472069186813	f	70
4256	45190	The Columbia mission takes off from the Kennedy space centre.	The Columbia Mission takes off from the Kennedy space centre.	2154225	1472069186893	1472069187005	r	82
4256	45190	The Columbia mission takes off from the Kennedy space centre.	The Columbia Mission takes off from the Kennedy space centre.	2154231	1472069186927	1472069187005	o	79
4256	45190	The Columbia mission takes off from the Kennedy space centre.	The Columbia Mission takes off from the Kennedy space centre.	2154234	1472069187109	1472069187253	m	77
4256	45190	The Columbia mission takes off from the Kennedy space centre.	The Columbia Mission takes off from the Kennedy space centre.	2154261	1472069187189	1472069187293	 	32
4256	45190	The Columbia mission takes off from the Kennedy space centre.	The Columbia Mission takes off from the Kennedy space centre.	2154267	1472069187256	1472069187388	t	84
4256	45190	The Columbia mission takes off from the Kennedy space centre.	The Columbia Mission takes off from the Kennedy space centre.	2154271	1472069187373	1472069187477	h	72
4256	45190	The Columbia mission takes off from the Kennedy space centre.	The Columbia Mission takes off from the Kennedy space centre.	2154275	1472069187469	1472069187573	e	69
4256	45190	The Columbia mission takes off from the Kennedy space centre.	The Columbia Mission takes off from the Kennedy space centre.	2154280	1472069187501	1472069187605	 	32
4256	45190	The Columbia mission takes off from the Kennedy space centre.	The Columbia Mission takes off from the Kennedy space centre.	2154282	1472069187741	1472069187869	SHIFT	16
4256	45190	The Columbia mission takes off from the Kennedy space centre.	The Columbia Mission takes off from the Kennedy space centre.	2154313	1472069187813	1472069187925	K	75
4256	45190	The Columbia mission takes off from the Kennedy space centre.	The Columbia Mission takes off from the Kennedy space centre.	2154316	1472069188069	1472069188221	e	69
4256	45190	The Columbia mission takes off from the Kennedy space centre.	The Columbia Mission takes off from the Kennedy space centre.	2154319	1472069188285	1472069188365	n	78
4256	45190	The Columbia mission takes off from the Kennedy space centre.	The Columbia Mission takes off from the Kennedy space centre.	2154324	1472069188669	1472069188773	n	78
4256	45190	The Columbia mission takes off from the Kennedy space centre.	The Columbia Mission takes off from the Kennedy space centre.	2154329	1472069188797	1472069188901	e	69
4256	45190	The Columbia mission takes off from the Kennedy space centre.	The Columbia Mission takes off from the Kennedy space centre.	2154334	1472069189037	1472069189181	d	68
4256	45190	The Columbia mission takes off from the Kennedy space centre.	The Columbia Mission takes off from the Kennedy space centre.	2154365	1472069189184	1472069189261	y	89
4256	45190	The Columbia mission takes off from the Kennedy space centre.	The Columbia Mission takes off from the Kennedy space centre.	2154366	1472069189317	1472069189469	 	32
4256	45190	The Columbia mission takes off from the Kennedy space centre.	The Columbia Mission takes off from the Kennedy space centre.	2154367	1472069189957	1472069190062	s	83
4256	45190	The Columbia mission takes off from the Kennedy space centre.	The Columbia Mission takes off from the Kennedy space centre.	2154368	1472069190045	1472069190165	p	80
4256	45190	The Columbia mission takes off from the Kennedy space centre.	The Columbia Mission takes off from the Kennedy space centre.	2154399	1472069190125	1472069190316	a	65
4256	45190	The Columbia mission takes off from the Kennedy space centre.	The Columbia Mission takes off from the Kennedy space centre.	2154405	1472069190356	1472069190485	c	67
4256	45190	The Columbia mission takes off from the Kennedy space centre.	The Columbia Mission takes off from the Kennedy space centre.	2154410	1472069190485	1472069190590	e	69
4256	45190	The Columbia mission takes off from the Kennedy space centre.	The Columbia Mission takes off from the Kennedy space centre.	2154412	1472069190565	1472069190693	 	32
4256	45190	The Columbia mission takes off from the Kennedy space centre.	The Columbia Mission takes off from the Kennedy space centre.	2154414	1472069190813	1472069190925	c	67
4256	45190	The Columbia mission takes off from the Kennedy space centre.	The Columbia Mission takes off from the Kennedy space centre.	2154415	1472069190925	1472069191077	e	69
4256	45190	The Columbia mission takes off from the Kennedy space centre.	The Columbia Mission takes off from the Kennedy space centre.	2154455	1472069191005	1472069191141	n	78
4256	45190	The Columbia mission takes off from the Kennedy space centre.	The Columbia Mission takes off from the Kennedy space centre.	2154456	1472069191221	1472069191333	t	84
4256	45190	The Columbia mission takes off from the Kennedy space centre.	The Columbia Mission takes off from the Kennedy space centre.	2154458	1472069191501	1472069191613	r	82
4256	45190	The Columbia mission takes off from the Kennedy space centre.	The Columbia Mission takes off from the Kennedy space centre.	2154460	1472069191597	1472069191700	e	69
4256	45190	The Columbia mission takes off from the Kennedy space centre.	The Columbia Mission takes off from the Kennedy space centre.	2154462	1472069192093	1472069192229	.	190
4256	45212	Did you talk to Ava this morning?	Did you talk to Ava this morning?	2154662	1472069196453	1472069196596	SHIFT	16
4256	45212	Did you talk to Ava this morning?	Did you talk to Ava this morning?	2154664	1472069196540	1472069196716	D	68
4256	45212	Did you talk to Ava this morning?	Did you talk to Ava this morning?	2154666	1472069196748	1472069196836	i	73
4256	45212	Did you talk to Ava this morning?	Did you talk to Ava this morning?	2154668	1472069196852	1472069197020	d	68
4256	45212	Did you talk to Ava this morning?	Did you talk to Ava this morning?	2154671	1472069196956	1472069197133	 	32
4256	45212	Did you talk to Ava this morning?	Did you talk to Ava this morning?	2154675	1472069197133	1472069197212	y	89
4256	45212	Did you talk to Ava this morning?	Did you talk to Ava this morning?	2154694	1472069197268	1472069197412	o	79
4256	45212	Did you talk to Ava this morning?	Did you talk to Ava this morning?	2154695	1472069197372	1472069197527	u	85
4256	45212	Did you talk to Ava this morning?	Did you talk to Ava this morning?	2154699	1472069197445	1472069197620	 	32
4256	45212	Did you talk to Ava this morning?	Did you talk to Ava this morning?	2154702	1472069197621	1472069197748	t	84
4256	45212	Did you talk to Ava this morning?	Did you talk to Ava this morning?	2154718	1472069197724	1472069197925	a	65
4256	45212	Did you talk to Ava this morning?	Did you talk to Ava this morning?	2154719	1472069197780	1472069197925	l	76
4256	45212	Did you talk to Ava this morning?	Did you talk to Ava this morning?	2154720	1472069197926	1472069198037	k	75
4256	45212	Did you talk to Ava this morning?	Did you talk to Ava this morning?	2154722	1472069197980	1472069198116	 	32
4256	45212	Did you talk to Ava this morning?	Did you talk to Ava this morning?	2154724	1472069198156	1472069198301	t	84
4256	45212	Did you talk to Ava this morning?	Did you talk to Ava this morning?	2154753	1472069198236	1472069198364	o	79
4256	45212	Did you talk to Ava this morning?	Did you talk to Ava this morning?	2154755	1472069198304	1472069198428	 	32
4256	45212	Did you talk to Ava this morning?	Did you talk to Ava this morning?	2154758	1472069198597	1472069198764	SHIFT	16
4256	45212	Did you talk to Ava this morning?	Did you talk to Ava this morning?	2154757	1472069198636	1472069198740	A	65
4256	45212	Did you talk to Ava this morning?	Did you talk to Ava this morning?	2154760	1472069198812	1472069198892	v	86
4256	45212	Did you talk to Ava this morning?	Did you talk to Ava this morning?	2154762	1472069199052	1472069199204	a	65
4256	45212	Did you talk to Ava this morning?	Did you talk to Ava this morning?	2154764	1472069199388	1472069199508	 	32
4256	45212	Did you talk to Ava this morning?	Did you talk to Ava this morning?	2154772	1472069199596	1472069199700	t	84
4256	45212	Did you talk to Ava this morning?	Did you talk to Ava this morning?	2154776	1472069199677	1472069199780	h	72
4256	45212	Did you talk to Ava this morning?	Did you talk to Ava this morning?	2154779	1472069199781	1472069199892	i	73
4256	45212	Did you talk to Ava this morning?	Did you talk to Ava this morning?	2154783	1472069199860	1472069199997	s	83
4256	45212	Did you talk to Ava this morning?	Did you talk to Ava this morning?	2154814	1472069199964	1472069200100	 	32
4256	45212	Did you talk to Ava this morning?	Did you talk to Ava this morning?	2154818	1472069200124	1472069200244	m	77
4256	45212	Did you talk to Ava this morning?	Did you talk to Ava this morning?	2154822	1472069200292	1472069200380	o	79
4256	45212	Did you talk to Ava this morning?	Did you talk to Ava this morning?	2154825	1472069200364	1472069200484	r	82
4256	45212	Did you talk to Ava this morning?	Did you talk to Ava this morning?	2154828	1472069200564	1472069200644	n	78
4256	45212	Did you talk to Ava this morning?	Did you talk to Ava this morning?	2154830	1472069200789	1472069200832	i	73
4256	45212	Did you talk to Ava this morning?	Did you talk to Ava this morning?	2154877	1472069200956	1472069201044	n	78
4256	45212	Did you talk to Ava this morning?	Did you talk to Ava this morning?	2154880	1472069201068	1472069201164	g	71
4256	45212	Did you talk to Ava this morning?	Did you talk to Ava this morning?	2154883	1472069201340	1472069201516	SHIFT	16
4256	45212	Did you talk to Ava this morning?	Did you talk to Ava this morning?	2154884	1472069201428	1472069201572	?	191
4256	45223	It's still going on - quite boring though.	it's still going on - quite boring though. 	2155155	1472069206508	1472069206700	SHIFT	16
4256	45223	It's still going on - quite boring though.	it's still going on - quite boring though. 	2155157	1472069206701	1472069206796	i	73
4256	45223	It's still going on - quite boring though.	it's still going on - quite boring though. 	2155159	1472069206820	1472069206940	t	84
4256	45223	It's still going on - quite boring though.	it's still going on - quite boring though. 	2155162	1472069206964	1472069207036	'	222
4256	45223	It's still going on - quite boring though.	it's still going on - quite boring though. 	2155165	1472069207076	1472069207188	s	83
4256	45223	It's still going on - quite boring though.	it's still going on - quite boring though. 	2155184	1472069207156	1472069207308	 	32
4256	45223	It's still going on - quite boring though.	it's still going on - quite boring though. 	2155187	1472069207309	1472069207500	s	83
4256	45223	It's still going on - quite boring though.	it's still going on - quite boring though. 	2155190	1472069207444	1472069207572	t	84
4256	45223	It's still going on - quite boring though.	it's still going on - quite boring though. 	2155193	1472069207501	1472069207573	i	73
4256	45223	It's still going on - quite boring though.	it's still going on - quite boring though. 	2155196	1472069207684	1472069207740	l	76
4256	45223	It's still going on - quite boring though.	it's still going on - quite boring though. 	2155201	1472069207844	1472069207956	l	76
4256	45223	It's still going on - quite boring though.	it's still going on - quite boring though. 	2155229	1472069207916	1472069208076	 	32
4256	45223	It's still going on - quite boring though.	it's still going on - quite boring though. 	2155231	1472069208060	1472069208180	g	71
4256	45223	It's still going on - quite boring though.	it's still going on - quite boring though. 	2155233	1472069208140	1472069208252	o	79
4256	45223	It's still going on - quite boring though.	it's still going on - quite boring though. 	2155234	1472069208212	1472069208276	i	73
4256	45223	It's still going on - quite boring though.	it's still going on - quite boring though. 	2155235	1472069208404	1472069208524	n	78
4256	45223	It's still going on - quite boring though.	it's still going on - quite boring though. 	2155294	1472069208484	1472069208580	g	71
4256	45223	It's still going on - quite boring though.	it's still going on - quite boring though. 	2155296	1472069208564	1472069208692	 	32
4256	45223	It's still going on - quite boring though.	it's still going on - quite boring though. 	2155299	1472069208724	1472069208812	o	79
4256	45223	It's still going on - quite boring though.	it's still going on - quite boring though. 	2155302	1472069208924	1472069208996	n	78
4256	45223	It's still going on - quite boring though.	it's still going on - quite boring though. 	2155305	1472069209460	1472069209580	 	32
4256	45223	It's still going on - quite boring though.	it's still going on - quite boring though. 	2155311	1472069209788	1472069209884	-	189
4256	45223	It's still going on - quite boring though.	it's still going on - quite boring though. 	2155389	1472069210068	1472069210172	 	32
4256	45223	It's still going on - quite boring though.	it's still going on - quite boring though. 	2155390	1472069210868	1472069211100	q	81
4256	45223	It's still going on - quite boring though.	it's still going on - quite boring though. 	2155391	1472069211396	1472069211484	u	85
4256	45223	It's still going on - quite boring though.	it's still going on - quite boring though. 	2155392	1472069211652	1472069211740	i	73
4256	45223	It's still going on - quite boring though.	it's still going on - quite boring though. 	2155394	1472069211772	1472069211900	t	84
4256	45223	It's still going on - quite boring though.	it's still going on - quite boring though. 	2155458	1472069211876	1472069212012	e	69
4256	45223	It's still going on - quite boring though.	it's still going on - quite boring though. 	2155463	1472069211988	1472069212124	 	32
4256	45223	It's still going on - quite boring though.	it's still going on - quite boring though. 	2155469	1472069212492	1472069212564	b	66
4256	45223	It's still going on - quite boring though.	it's still going on - quite boring though. 	2155472	1472069212660	1472069212748	o	79
4256	45223	It's still going on - quite boring though.	it's still going on - quite boring though. 	2155478	1472069212732	1472069212861	r	82
4256	45223	It's still going on - quite boring though.	it's still going on - quite boring though. 	2155494	1472069212836	1472069212900	i	73
4256	45223	It's still going on - quite boring though.	it's still going on - quite boring though. 	2155497	1472069213012	1472069213100	n	78
4256	45223	It's still going on - quite boring though.	it's still going on - quite boring though. 	2155501	1472069213084	1472069213180	g	71
4256	45223	It's still going on - quite boring though.	it's still going on - quite boring though. 	2155506	1472069213164	1472069213284	 	32
4256	45223	It's still going on - quite boring though.	it's still going on - quite boring though. 	2155511	1472069213285	1472069213380	t	84
4256	45223	It's still going on - quite boring though.	it's still going on - quite boring though. 	2155527	1472069213311	1472069213396	h	72
4256	45223	It's still going on - quite boring though.	it's still going on - quite boring though. 	2155530	1472069213476	1472069213551	o	79
4256	45223	It's still going on - quite boring though.	it's still going on - quite boring though. 	2155532	1472069213524	1472069213612	u	85
4256	45223	It's still going on - quite boring though.	it's still going on - quite boring though. 	2155534	1472069213636	1472069213756	g	71
4256	45223	It's still going on - quite boring though.	it's still going on - quite boring though. 	2155536	1472069213757	1472069213820	h	72
4256	45223	It's still going on - quite boring though.	it's still going on - quite boring though. 	2155538	1472069213980	1472069214108	.	190
4256	45223	It's still going on - quite boring though.	it's still going on - quite boring though. 	2155554	1472069214388	1472069214524	 	32
4256	45235	We will get you a copy.	We will get you a copy. 	2155680	1472069217492	1472069217620	SHIFT	16
4256	45235	We will get you a copy.	We will get you a copy. 	2155681	1472069217564	1472069217716	W	87
4256	45235	We will get you a copy.	We will get you a copy. 	2155683	1472069217684	1472069217788	e	69
4256	45235	We will get you a copy.	We will get you a copy. 	2155685	1472069217812	1472069217964	 	32
4256	45235	We will get you a copy.	We will get you a copy. 	2155687	1472069217964	1472069218124	w	87
4256	45235	We will get you a copy.	We will get you a copy. 	2155712	1472069218052	1472069218127	i	73
4256	45235	We will get you a copy.	We will get you a copy. 	2155715	1472069218260	1472069218284	l	76
4256	45235	We will get you a copy.	We will get you a copy. 	2155720	1472069218380	1472069218532	l	76
4256	45235	We will get you a copy.	We will get you a copy. 	2155727	1472069218476	1472069218628	 	32
4256	45235	We will get you a copy.	We will get you a copy. 	2155733	1472069218629	1472069218700	g	71
4256	45235	We will get you a copy.	We will get you a copy. 	2155738	1472069218820	1472069218980	e	69
4256	45235	We will get you a copy.	We will get you a copy. 	2155750	1472069218900	1472069219020	t	84
4256	45235	We will get you a copy.	We will get you a copy. 	2155754	1472069218983	1472069219148	 	32
4256	45235	We will get you a copy.	We will get you a copy. 	2155759	1472069219276	1472069219364	y	89
4256	45235	We will get you a copy.	We will get you a copy. 	2155764	1472069219428	1472069219548	o	79
4256	45235	We will get you a copy.	We will get you a copy. 	2155769	1472069219500	1472069219612	u	85
4256	45235	We will get you a copy.	We will get you a copy. 	2155793	1472069219549	1472069219660	 	32
4256	45235	We will get you a copy.	We will get you a copy. 	2155798	1472069219660	1472069219788	a	65
4256	45235	We will get you a copy.	We will get you a copy. 	2155803	1472069219772	1472069219900	 	32
4256	45235	We will get you a copy.	We will get you a copy. 	2155810	1472069219948	1472069220108	c	67
4256	45235	We will get you a copy.	We will get you a copy. 	2155816	1472069219980	1472069220148	o	79
4256	45235	We will get you a copy.	We will get you a copy. 	2155825	1472069220148	1472069220244	p	80
4256	45235	We will get you a copy.	We will get you a copy. 	2155898	1472069220324	1472069220428	y	89
4256	45235	We will get you a copy.	We will get you a copy. 	2155905	1472069220620	1472069220772	.	190
4256	45235	We will get you a copy.	We will get you a copy. 	2155915	1472069220796	1472069220908	 	32
4256	45240	Please call tomorrow if possible.	Please call tomorrow if possible. 	2156215	1472069224644	1472069224868	SHIFT	16
4256	45240	Please call tomorrow if possible.	Please call tomorrow if possible. 	2156217	1472069224820	1472069224939	P	80
4256	45240	Please call tomorrow if possible.	Please call tomorrow if possible. 	2156220	1472069225108	1472069225220	l	76
4256	45240	Please call tomorrow if possible.	Please call tomorrow if possible. 	2156223	1472069225252	1472069225395	e	69
4256	45240	Please call tomorrow if possible.	Please call tomorrow if possible. 	2156225	1472069225524	1472069225692	a	65
4256	45240	Please call tomorrow if possible.	Please call tomorrow if possible. 	2156226	1472069225692	1472069225851	s	83
4256	45240	Please call tomorrow if possible.	Please call tomorrow if possible. 	2156251	1472069225751	1472069225924	e	69
4256	45240	Please call tomorrow if possible.	Please call tomorrow if possible. 	2156254	1472069225956	1472069226091	 	32
4256	45240	Please call tomorrow if possible.	Please call tomorrow if possible. 	2156256	1472069226219	1472069226299	c	67
4256	45240	Please call tomorrow if possible.	Please call tomorrow if possible. 	2156259	1472069226268	1472069226427	a	65
4256	45240	Please call tomorrow if possible.	Please call tomorrow if possible. 	2156258	1472069226348	1472069226404	l	76
4256	45240	Please call tomorrow if possible.	Please call tomorrow if possible. 	2156262	1472069226516	1472069226596	l	76
4256	45240	Please call tomorrow if possible.	Please call tomorrow if possible. 	2156287	1472069226580	1472069226731	 	32
4256	45240	Please call tomorrow if possible.	Please call tomorrow if possible. 	2156289	1472069226884	1472069227012	t	84
4256	45240	Please call tomorrow if possible.	Please call tomorrow if possible. 	2156292	1472069226956	1472069227147	o	79
4256	45240	Please call tomorrow if possible.	Please call tomorrow if possible. 	2156295	1472069227148	1472069227236	m	77
4256	45240	Please call tomorrow if possible.	Please call tomorrow if possible. 	2156298	1472069227308	1472069227390	o	79
4256	45240	Please call tomorrow if possible.	Please call tomorrow if possible. 	2156335	1472069227372	1472069227451	r	82
4256	45240	Please call tomorrow if possible.	Please call tomorrow if possible. 	2156341	1472069227531	1472069227643	r	82
4256	45240	Please call tomorrow if possible.	Please call tomorrow if possible. 	2156345	1472069227612	1472069227691	o	79
4256	45240	Please call tomorrow if possible.	Please call tomorrow if possible. 	2156347	1472069227763	1472069227899	w	87
4256	45240	Please call tomorrow if possible.	Please call tomorrow if possible. 	2156349	1472069227844	1472069227955	 	32
4256	45240	Please call tomorrow if possible.	Please call tomorrow if possible. 	2156350	1472069228035	1472069228115	i	73
4256	45240	Please call tomorrow if possible.	Please call tomorrow if possible. 	2156395	1472069228132	1472069228260	f	70
4256	45240	Please call tomorrow if possible.	Please call tomorrow if possible. 	2156397	1472069228236	1472069228363	 	32
4256	45240	Please call tomorrow if possible.	Please call tomorrow if possible. 	2156398	1472069228523	1472069228659	p	80
4256	45240	Please call tomorrow if possible.	Please call tomorrow if possible. 	2156400	1472069228763	1472069228871	o	79
4256	45240	Please call tomorrow if possible.	Please call tomorrow if possible. 	2156430	1472069228851	1472069228931	s	83
4256	45240	Please call tomorrow if possible.	Please call tomorrow if possible. 	2156436	1472069229003	1472069229156	s	83
4256	45240	Please call tomorrow if possible.	Please call tomorrow if possible. 	2156441	1472069229092	1472069229171	i	73
4256	45240	Please call tomorrow if possible.	Please call tomorrow if possible. 	2156446	1472069229323	1472069229387	b	66
4256	45240	Please call tomorrow if possible.	Please call tomorrow if possible. 	2156452	1472069229515	1472069229595	l	76
4256	45240	Please call tomorrow if possible.	Please call tomorrow if possible. 	2156482	1472069229572	1472069229699	e	69
4256	45240	Please call tomorrow if possible.	Please call tomorrow if possible. 	2156485	1472069229779	1472069229923	.	190
4256	45240	Please call tomorrow if possible.	Please call tomorrow if possible. 	2156488	1472069229939	1472069230051	 	32
4256	45253	The local forecasters are showing rain for Thanksgiving here.	The local forecasters are showing rain for Thanksgiving here. 	2156725	1472069234371	1472069234467	SHIFT	16
4256	45253	The local forecasters are showing rain for Thanksgiving here.	The local forecasters are showing rain for Thanksgiving here. 	2156728	1472069234435	1472069234555	T	84
4256	45253	The local forecasters are showing rain for Thanksgiving here.	The local forecasters are showing rain for Thanksgiving here. 	2156731	1472069234635	1472069234724	h	72
4256	45253	The local forecasters are showing rain for Thanksgiving here.	The local forecasters are showing rain for Thanksgiving here. 	2156733	1472069234724	1472069234859	e	69
4256	45253	The local forecasters are showing rain for Thanksgiving here.	The local forecasters are showing rain for Thanksgiving here. 	2156736	1472069234811	1472069234931	 	32
4256	45253	The local forecasters are showing rain for Thanksgiving here.	The local forecasters are showing rain for Thanksgiving here. 	2156740	1472069234947	1472069235043	l	76
4256	45253	The local forecasters are showing rain for Thanksgiving here.	The local forecasters are showing rain for Thanksgiving here. 	2156752	1472069235147	1472069235229	o	79
4256	45253	The local forecasters are showing rain for Thanksgiving here.	The local forecasters are showing rain for Thanksgiving here. 	2156757	1472069235211	1472069235347	c	67
4256	45253	The local forecasters are showing rain for Thanksgiving here.	The local forecasters are showing rain for Thanksgiving here. 	2156762	1472069235307	1472069235467	a	65
4256	45253	The local forecasters are showing rain for Thanksgiving here.	The local forecasters are showing rain for Thanksgiving here. 	2156767	1472069235403	1472069235523	l	76
4256	45253	The local forecasters are showing rain for Thanksgiving here.	The local forecasters are showing rain for Thanksgiving here. 	2156872	1472069235499	1472069235635	 	32
4256	45253	The local forecasters are showing rain for Thanksgiving here.	The local forecasters are showing rain for Thanksgiving here. 	2156876	1472069235755	1472069235875	f	70
4256	45253	The local forecasters are showing rain for Thanksgiving here.	The local forecasters are showing rain for Thanksgiving here. 	2156883	1472069235876	1472069235987	o	79
4256	45253	The local forecasters are showing rain for Thanksgiving here.	The local forecasters are showing rain for Thanksgiving here. 	2156889	1472069235963	1472069236099	r	82
4256	45253	The local forecasters are showing rain for Thanksgiving here.	The local forecasters are showing rain for Thanksgiving here. 	2156896	1472069236259	1472069236387	e	69
4256	45253	The local forecasters are showing rain for Thanksgiving here.	The local forecasters are showing rain for Thanksgiving here. 	2156898	1472069236859	1472069236963	c	67
4256	45253	The local forecasters are showing rain for Thanksgiving here.	The local forecasters are showing rain for Thanksgiving here. 	2156907	1472069236967	1472069237131	a	65
4256	45253	The local forecasters are showing rain for Thanksgiving here.	The local forecasters are showing rain for Thanksgiving here. 	2156909	1472069237059	1472069237219	s	83
4256	45253	The local forecasters are showing rain for Thanksgiving here.	The local forecasters are showing rain for Thanksgiving here. 	2156912	1472069237211	1472069237315	t	84
4256	45253	The local forecasters are showing rain for Thanksgiving here.	The local forecasters are showing rain for Thanksgiving here. 	2156915	1472069237363	1472069237491	e	69
4256	45253	The local forecasters are showing rain for Thanksgiving here.	The local forecasters are showing rain for Thanksgiving here. 	2156947	1472069237435	1472069237579	r	82
4256	45253	The local forecasters are showing rain for Thanksgiving here.	The local forecasters are showing rain for Thanksgiving here. 	2156950	1472069237619	1472069237795	s	83
4256	45253	The local forecasters are showing rain for Thanksgiving here.	The local forecasters are showing rain for Thanksgiving here. 	2156957	1472069237771	1472069237899	 	32
4256	45253	The local forecasters are showing rain for Thanksgiving here.	The local forecasters are showing rain for Thanksgiving here. 	2156962	1472069237939	1472069238059	a	65
4256	45253	The local forecasters are showing rain for Thanksgiving here.	The local forecasters are showing rain for Thanksgiving here. 	2156969	1472069238011	1472069238139	r	82
4256	45253	The local forecasters are showing rain for Thanksgiving here.	The local forecasters are showing rain for Thanksgiving here. 	2156997	1472069238091	1472069238211	e	69
4256	45253	The local forecasters are showing rain for Thanksgiving here.	The local forecasters are showing rain for Thanksgiving here. 	2156999	1472069238171	1472069238299	 	32
4256	45253	The local forecasters are showing rain for Thanksgiving here.	The local forecasters are showing rain for Thanksgiving here. 	2157003	1472069238331	1472069238467	s	83
4256	45253	The local forecasters are showing rain for Thanksgiving here.	The local forecasters are showing rain for Thanksgiving here. 	2157007	1472069238419	1472069238523	h	72
4256	45253	The local forecasters are showing rain for Thanksgiving here.	The local forecasters are showing rain for Thanksgiving here. 	2157010	1472069238555	1472069238699	o	79
4256	45253	The local forecasters are showing rain for Thanksgiving here.	The local forecasters are showing rain for Thanksgiving here. 	2157034	1472069238581	1472069238747	w	87
4256	45253	The local forecasters are showing rain for Thanksgiving here.	The local forecasters are showing rain for Thanksgiving here. 	2157038	1472069238675	1472069238763	i	73
4256	45253	The local forecasters are showing rain for Thanksgiving here.	The local forecasters are showing rain for Thanksgiving here. 	2157044	1472069238875	1472069238995	n	78
4256	45253	The local forecasters are showing rain for Thanksgiving here.	The local forecasters are showing rain for Thanksgiving here. 	2157048	1472069238947	1472069239059	g	71
4256	45253	The local forecasters are showing rain for Thanksgiving here.	The local forecasters are showing rain for Thanksgiving here. 	2157053	1472069239028	1472069239139	 	32
4256	45253	The local forecasters are showing rain for Thanksgiving here.	The local forecasters are showing rain for Thanksgiving here. 	2157057	1472069239187	1472069239315	r	82
4256	45253	The local forecasters are showing rain for Thanksgiving here.	The local forecasters are showing rain for Thanksgiving here. 	2157118	1472069239316	1472069239427	i	65
4256	45253	The local forecasters are showing rain for Thanksgiving here.	The local forecasters are showing rain for Thanksgiving here. 	2157121	1472069239507	1472069239635	n	78
4256	45253	The local forecasters are showing rain for Thanksgiving here.	The local forecasters are showing rain for Thanksgiving here. 	2157125	1472069240011	1472069240139	 	32
4256	45253	The local forecasters are showing rain for Thanksgiving here.	The local forecasters are showing rain for Thanksgiving here. 	2157132	1472069240339	1472069240427	f	70
4256	45253	The local forecasters are showing rain for Thanksgiving here.	The local forecasters are showing rain for Thanksgiving here. 	2157136	1472069240428	1472069240523	o	79
4256	45253	The local forecasters are showing rain for Thanksgiving here.	The local forecasters are showing rain for Thanksgiving here. 	2157138	1472069240524	1472069240611	r	82
4256	45253	The local forecasters are showing rain for Thanksgiving here.	The local forecasters are showing rain for Thanksgiving here. 	2157185	1472069240615	1472069240731	 	32
4256	45253	The local forecasters are showing rain for Thanksgiving here.	The local forecasters are showing rain for Thanksgiving here. 	2157188	1472069241379	1472069241507	SHIFT	16
4256	45253	The local forecasters are showing rain for Thanksgiving here.	The local forecasters are showing rain for Thanksgiving here. 	2157193	1472069241443	1472069241563	T	84
4256	45253	The local forecasters are showing rain for Thanksgiving here.	The local forecasters are showing rain for Thanksgiving here. 	2157199	1472069241683	1472069241755	h	72
4256	45253	The local forecasters are showing rain for Thanksgiving here.	The local forecasters are showing rain for Thanksgiving here. 	2157204	1472069241756	1472069241915	a	65
4256	45253	The local forecasters are showing rain for Thanksgiving here.	The local forecasters are showing rain for Thanksgiving here. 	2157336	1472069241899	1472069241980	n	78
4256	45253	The local forecasters are showing rain for Thanksgiving here.	The local forecasters are showing rain for Thanksgiving here. 	2157341	1472069242075	1472069242131	k	75
4256	45253	The local forecasters are showing rain for Thanksgiving here.	The local forecasters are showing rain for Thanksgiving here. 	2157345	1472069242243	1472069242315	i	73
4256	45253	The local forecasters are showing rain for Thanksgiving here.	The local forecasters are showing rain for Thanksgiving here. 	2157347	1472069242891	1472069242971	BKSP	8
4256	45253	The local forecasters are showing rain for Thanksgiving here.	The local forecasters are showing rain for Thanksgiving here. 	2157350	1472069242972	1472069243123	s	83
4256	45253	The local forecasters are showing rain for Thanksgiving here.	The local forecasters are showing rain for Thanksgiving here. 	2157353	1472069243195	1472069243283	i	73
4256	45253	The local forecasters are showing rain for Thanksgiving here.	The local forecasters are showing rain for Thanksgiving here. 	2157357	1472069243739	1472069243827	BKSP	8
4256	45253	The local forecasters are showing rain for Thanksgiving here.	The local forecasters are showing rain for Thanksgiving here. 	2157358	1472069243923	1472069244019	g	71
4256	45253	The local forecasters are showing rain for Thanksgiving here.	The local forecasters are showing rain for Thanksgiving here. 	2157382	1472069244075	1472069244155	i	73
4256	45253	The local forecasters are showing rain for Thanksgiving here.	The local forecasters are showing rain for Thanksgiving here. 	2157386	1472069244179	1472069244307	v	86
4256	45253	The local forecasters are showing rain for Thanksgiving here.	The local forecasters are showing rain for Thanksgiving here. 	2157392	1472069244275	1472069244339	i	73
4256	45253	The local forecasters are showing rain for Thanksgiving here.	The local forecasters are showing rain for Thanksgiving here. 	2157395	1472069244451	1472069244539	n	78
4256	45253	The local forecasters are showing rain for Thanksgiving here.	The local forecasters are showing rain for Thanksgiving here. 	2157399	1472069244563	1472069244643	g	71
4256	45253	The local forecasters are showing rain for Thanksgiving here.	The local forecasters are showing rain for Thanksgiving here. 	2157434	1472069244691	1472069244819	 	32
4256	45253	The local forecasters are showing rain for Thanksgiving here.	The local forecasters are showing rain for Thanksgiving here. 	2157437	1472069244955	1472069245059	h	72
4256	45253	The local forecasters are showing rain for Thanksgiving here.	The local forecasters are showing rain for Thanksgiving here. 	2157442	1472069245027	1472069245131	e	69
4256	45253	The local forecasters are showing rain for Thanksgiving here.	The local forecasters are showing rain for Thanksgiving here. 	2157448	1472069245123	1472069245227	r	82
4256	45253	The local forecasters are showing rain for Thanksgiving here.	The local forecasters are showing rain for Thanksgiving here. 	2157453	1472069245228	1472069245363	e	69
4256	45253	The local forecasters are showing rain for Thanksgiving here.	The local forecasters are showing rain for Thanksgiving here. 	2157465	1472069245355	1472069245491	.	190
4256	45253	The local forecasters are showing rain for Thanksgiving here.	The local forecasters are showing rain for Thanksgiving here. 	2157467	1472069245492	1472069245611	 	32
4256	45273	Tests Monday showed no structural damage to his shoulder.	Tests Monday showed no Structural damage to his shoulder. 	2157857	1472069251187	1472069251315	SHIFT	16
4256	45273	Tests Monday showed no structural damage to his shoulder.	Tests Monday showed no Structural damage to his shoulder. 	2157863	1472069251283	1472069251411	T	84
4256	45273	Tests Monday showed no structural damage to his shoulder.	Tests Monday showed no Structural damage to his shoulder. 	2157870	1472069251763	1472069251875	e	69
4256	45273	Tests Monday showed no structural damage to his shoulder.	Tests Monday showed no Structural damage to his shoulder. 	2157874	1472069251876	1472069252020	s	83
4256	45273	Tests Monday showed no structural damage to his shoulder.	Tests Monday showed no Structural damage to his shoulder. 	2157877	1472069251995	1472069252131	t	84
4256	45273	Tests Monday showed no structural damage to his shoulder.	Tests Monday showed no Structural damage to his shoulder. 	2157930	1472069252107	1472069252283	s	83
4256	45273	Tests Monday showed no structural damage to his shoulder.	Tests Monday showed no Structural damage to his shoulder. 	2157933	1472069252267	1472069252379	 	32
4256	45273	Tests Monday showed no structural damage to his shoulder.	Tests Monday showed no Structural damage to his shoulder. 	2157943	1472069252611	1472069252811	SHIFT	16
4256	45273	Tests Monday showed no structural damage to his shoulder.	Tests Monday showed no Structural damage to his shoulder. 	2157939	1472069252683	1472069252787	M	77
4256	45273	Tests Monday showed no structural damage to his shoulder.	Tests Monday showed no Structural damage to his shoulder. 	2157947	1472069252851	1472069252915	o	79
4256	45273	Tests Monday showed no structural damage to his shoulder.	Tests Monday showed no Structural damage to his shoulder. 	2157952	1472069253027	1472069253123	n	78
4256	45273	Tests Monday showed no structural damage to his shoulder.	Tests Monday showed no Structural damage to his shoulder. 	2157978	1472069253099	1472069253259	d	68
4256	45273	Tests Monday showed no structural damage to his shoulder.	Tests Monday showed no Structural damage to his shoulder. 	2157983	1472069253227	1472069253371	a	65
4256	45273	Tests Monday showed no structural damage to his shoulder.	Tests Monday showed no Structural damage to his shoulder. 	2157987	1472069253307	1472069253403	y	89
4256	45273	Tests Monday showed no structural damage to his shoulder.	Tests Monday showed no Structural damage to his shoulder. 	2157991	1472069253419	1472069253555	 	32
4256	45273	Tests Monday showed no structural damage to his shoulder.	Tests Monday showed no Structural damage to his shoulder. 	2157994	1472069253499	1472069253643	s	83
4256	45273	Tests Monday showed no structural damage to his shoulder.	Tests Monday showed no Structural damage to his shoulder. 	2158014	1472069253563	1472069253646	h	72
4256	45273	Tests Monday showed no structural damage to his shoulder.	Tests Monday showed no Structural damage to his shoulder. 	2158018	1472069253699	1472069253811	o	79
4256	45273	Tests Monday showed no structural damage to his shoulder.	Tests Monday showed no Structural damage to his shoulder. 	2158022	1472069253771	1472069253907	w	87
4256	45273	Tests Monday showed no structural damage to his shoulder.	Tests Monday showed no Structural damage to his shoulder. 	2158028	1472069253859	1472069253963	e	69
4256	45273	Tests Monday showed no structural damage to his shoulder.	Tests Monday showed no Structural damage to his shoulder. 	2158034	1472069254067	1472069254211	d	68
4256	45273	Tests Monday showed no structural damage to his shoulder.	Tests Monday showed no Structural damage to his shoulder. 	2158075	1472069254115	1472069254283	 	32
4256	45273	Tests Monday showed no structural damage to his shoulder.	Tests Monday showed no Structural damage to his shoulder. 	2158079	1472069254283	1472069254355	n	78
4256	45273	Tests Monday showed no structural damage to his shoulder.	Tests Monday showed no Structural damage to his shoulder. 	2158082	1472069254419	1472069254539	o	79
4256	45273	Tests Monday showed no structural damage to his shoulder.	Tests Monday showed no Structural damage to his shoulder. 	2158086	1472069254499	1472069254635	 	32
4256	45273	Tests Monday showed no structural damage to his shoulder.	Tests Monday showed no Structural damage to his shoulder. 	2158090	1472069254755	1472069254955	SHIFT	16
4256	45273	Tests Monday showed no structural damage to his shoulder.	Tests Monday showed no Structural damage to his shoulder. 	2158093	1472069254851	1472069254980	S	83
4256	45273	Tests Monday showed no structural damage to his shoulder.	Tests Monday showed no Structural damage to his shoulder. 	2158159	1472069254956	1472069255051	t	84
4256	45273	Tests Monday showed no structural damage to his shoulder.	Tests Monday showed no Structural damage to his shoulder. 	2158161	1472069255163	1472069255251	r	82
4256	45273	Tests Monday showed no structural damage to his shoulder.	Tests Monday showed no Structural damage to his shoulder. 	2158164	1472069255859	1472069255955	u	85
4256	45273	Tests Monday showed no structural damage to his shoulder.	Tests Monday showed no Structural damage to his shoulder. 	2158167	1472069255995	1472069256075	c	67
4256	45273	Tests Monday showed no structural damage to his shoulder.	Tests Monday showed no Structural damage to his shoulder. 	2158170	1472069256483	1472069256571	t	84
4256	45273	Tests Monday showed no structural damage to his shoulder.	Tests Monday showed no Structural damage to his shoulder. 	2158172	1472069256723	1472069256810	u	85
4256	45273	Tests Monday showed no structural damage to his shoulder.	Tests Monday showed no Structural damage to his shoulder. 	2158193	1472069256907	1472069257067	r	82
4256	45273	Tests Monday showed no structural damage to his shoulder.	Tests Monday showed no Structural damage to his shoulder. 	2158194	1472069257067	1472069257243	a	65
4256	45273	Tests Monday showed no structural damage to his shoulder.	Tests Monday showed no Structural damage to his shoulder. 	2158195	1472069257147	1472069257290	l	76
4256	45273	Tests Monday showed no structural damage to his shoulder.	Tests Monday showed no Structural damage to his shoulder. 	2158196	1472069257243	1472069257394	 	32
4256	45273	Tests Monday showed no structural damage to his shoulder.	Tests Monday showed no Structural damage to his shoulder. 	2158198	1472069257450	1472069257578	d	68
4256	45273	Tests Monday showed no structural damage to his shoulder.	Tests Monday showed no Structural damage to his shoulder. 	2158231	1472069257563	1472069257675	a	65
4256	45273	Tests Monday showed no structural damage to his shoulder.	Tests Monday showed no Structural damage to his shoulder. 	2158235	1472069257676	1472069257779	m	77
4256	45273	Tests Monday showed no structural damage to his shoulder.	Tests Monday showed no Structural damage to his shoulder. 	2158242	1472069257755	1472069257842	a	65
4256	45273	Tests Monday showed no structural damage to his shoulder.	Tests Monday showed no Structural damage to his shoulder. 	2158251	1472069257874	1472069257978	g	71
4256	45273	Tests Monday showed no structural damage to his shoulder.	Tests Monday showed no Structural damage to his shoulder. 	2158260	1472069258042	1472069258154	e	69
4256	45273	Tests Monday showed no structural damage to his shoulder.	Tests Monday showed no Structural damage to his shoulder. 	2158301	1472069258115	1472069258258	 	32
4256	45273	Tests Monday showed no structural damage to his shoulder.	Tests Monday showed no Structural damage to his shoulder. 	2158305	1472069258275	1472069258427	t	84
4256	45273	Tests Monday showed no structural damage to his shoulder.	Tests Monday showed no Structural damage to his shoulder. 	2158309	1472069258339	1472069258459	o	79
4256	45273	Tests Monday showed no structural damage to his shoulder.	Tests Monday showed no Structural damage to his shoulder. 	2158314	1472069258427	1472069258563	 	32
4256	45273	Tests Monday showed no structural damage to his shoulder.	Tests Monday showed no Structural damage to his shoulder. 	2158324	1472069258538	1472069258627	h	72
4256	45273	Tests Monday showed no structural damage to his shoulder.	Tests Monday showed no Structural damage to his shoulder. 	2158328	1472069258666	1472069258770	i	73
4256	45273	Tests Monday showed no structural damage to his shoulder.	Tests Monday showed no Structural damage to his shoulder. 	2158344	1472069258746	1472069258868	s	83
4256	45273	Tests Monday showed no structural damage to his shoulder.	Tests Monday showed no Structural damage to his shoulder. 	2158347	1472069258842	1472069258970	 	32
4256	45273	Tests Monday showed no structural damage to his shoulder.	Tests Monday showed no Structural damage to his shoulder. 	2158349	1472069259011	1472069259146	h	83
4256	45273	Tests Monday showed no structural damage to his shoulder.	Tests Monday showed no Structural damage to his shoulder. 	2158351	1472069259162	1472069259282	o	79
4256	45273	Tests Monday showed no structural damage to his shoulder.	Tests Monday showed no Structural damage to his shoulder. 	2158381	1472069259250	1472069259378	u	85
4256	45273	Tests Monday showed no structural damage to his shoulder.	Tests Monday showed no Structural damage to his shoulder. 	2158382	1472069259459	1472069259619	l	76
4256	45273	Tests Monday showed no structural damage to his shoulder.	Tests Monday showed no Structural damage to his shoulder. 	2158383	1472069259538	1472069259634	d	68
4256	45273	Tests Monday showed no structural damage to his shoulder.	Tests Monday showed no Structural damage to his shoulder. 	2158384	1472069259730	1472069259866	e	69
4256	45273	Tests Monday showed no structural damage to his shoulder.	Tests Monday showed no Structural damage to his shoulder. 	2158385	1472069259827	1472069259986	r	82
4256	45273	Tests Monday showed no structural damage to his shoulder.	Tests Monday showed no Structural damage to his shoulder. 	2158397	1472069259914	1472069260050	.	190
4256	45273	Tests Monday showed no structural damage to his shoulder.	Tests Monday showed no Structural damage to his shoulder. 	2158399	1472069260098	1472069260250	 	32
4256	45298	We're not adversarial in this, but we want to know what's going on.	We'e not adversarial in this, but we want to know what's going on. 	2158829	1472069266154	1472069266347	SHIFT	16
4256	45298	We're not adversarial in this, but we want to know what's going on.	We'e not adversarial in this, but we want to know what's going on. 	2158833	1472069266202	1472069266354	W	87
4256	45298	We're not adversarial in this, but we want to know what's going on.	We'e not adversarial in this, but we want to know what's going on. 	2158838	1472069266347	1472069266458	e	69
4256	45298	We're not adversarial in this, but we want to know what's going on.	We'e not adversarial in this, but we want to know what's going on. 	2158843	1472069266634	1472069266754	'	222
4256	45298	We're not adversarial in this, but we want to know what's going on.	We'e not adversarial in this, but we want to know what's going on. 	2158850	1472069266802	1472069266962	e	69
4256	45298	We're not adversarial in this, but we want to know what's going on.	We'e not adversarial in this, but we want to know what's going on. 	2158856	1472069266963	1472069267106	 	32
4256	45298	We're not adversarial in this, but we want to know what's going on.	We'e not adversarial in this, but we want to know what's going on. 	2158909	1472069267162	1472069267242	n	78
4256	45298	We're not adversarial in this, but we want to know what's going on.	We'e not adversarial in this, but we want to know what's going on. 	2158914	1472069267346	1472069267466	o	79
4256	45298	We're not adversarial in this, but we want to know what's going on.	We'e not adversarial in this, but we want to know what's going on. 	2158918	1472069267410	1472069267530	t	84
4256	45298	We're not adversarial in this, but we want to know what's going on.	We'e not adversarial in this, but we want to know what's going on. 	2158921	1472069267492	1472069267602	 	32
4256	45298	We're not adversarial in this, but we want to know what's going on.	We'e not adversarial in this, but we want to know what's going on. 	2158924	1472069267634	1472069267794	a	65
4256	45298	We're not adversarial in this, but we want to know what's going on.	We'e not adversarial in this, but we want to know what's going on. 	2158968	1472069267754	1472069267874	d	68
4256	45298	We're not adversarial in this, but we want to know what's going on.	We'e not adversarial in this, but we want to know what's going on. 	2158973	1472069267978	1472069268074	v	86
4256	45298	We're not adversarial in this, but we want to know what's going on.	We'e not adversarial in this, but we want to know what's going on. 	2158980	1472069268146	1472069268314	e	69
4256	45298	We're not adversarial in this, but we want to know what's going on.	We'e not adversarial in this, but we want to know what's going on. 	2158986	1472069268227	1472069268354	r	82
4256	45298	We're not adversarial in this, but we want to know what's going on.	We'e not adversarial in this, but we want to know what's going on. 	2158989	1472069268442	1472069268570	s	83
4256	45298	We're not adversarial in this, but we want to know what's going on.	We'e not adversarial in this, but we want to know what's going on. 	2158993	1472069268610	1472069268786	a	65
4256	45298	We're not adversarial in this, but we want to know what's going on.	We'e not adversarial in this, but we want to know what's going on. 	2159038	1472069268770	1472069268930	r	82
4256	45298	We're not adversarial in this, but we want to know what's going on.	We'e not adversarial in this, but we want to know what's going on. 	2159041	1472069269002	1472069269130	i	73
4256	45298	We're not adversarial in this, but we want to know what's going on.	We'e not adversarial in this, but we want to know what's going on. 	2159046	1472069269106	1472069269282	a	65
4256	45298	We're not adversarial in this, but we want to know what's going on.	We'e not adversarial in this, but we want to know what's going on. 	2159051	1472069269306	1472069269434	l	76
4256	45298	We're not adversarial in this, but we want to know what's going on.	We'e not adversarial in this, but we want to know what's going on. 	2159058	1472069269386	1472069269554	 	32
4256	45298	We're not adversarial in this, but we want to know what's going on.	We'e not adversarial in this, but we want to know what's going on. 	2159062	1472069269555	1472069269627	i	73
4256	45298	We're not adversarial in this, but we want to know what's going on.	We'e not adversarial in this, but we want to know what's going on. 	2159086	1472069269754	1472069269867	n	78
4256	45298	We're not adversarial in this, but we want to know what's going on.	We'e not adversarial in this, but we want to know what's going on. 	2159090	1472069269802	1472069269962	 	32
4256	45298	We're not adversarial in this, but we want to know what's going on.	We'e not adversarial in this, but we want to know what's going on. 	2159096	1472069269938	1472069270090	t	84
4256	45298	We're not adversarial in this, but we want to know what's going on.	We'e not adversarial in this, but we want to know what's going on. 	2159102	1472069270002	1472069270091	h	72
4256	45298	We're not adversarial in this, but we want to know what's going on.	We'e not adversarial in this, but we want to know what's going on. 	2159112	1472069270114	1472069270226	i	73
4256	45298	We're not adversarial in this, but we want to know what's going on.	We'e not adversarial in this, but we want to know what's going on. 	2159175	1472069270230	1472069270378	s	83
4256	45298	We're not adversarial in this, but we want to know what's going on.	We'e not adversarial in this, but we want to know what's going on. 	2159181	1472069270602	1472069270730	,	188
4256	45298	We're not adversarial in this, but we want to know what's going on.	We'e not adversarial in this, but we want to know what's going on. 	2159188	1472069270731	1472069270850	 	32
4256	45298	We're not adversarial in this, but we want to know what's going on.	We'e not adversarial in this, but we want to know what's going on. 	2159198	1472069270914	1472069270986	b	66
4256	45298	We're not adversarial in this, but we want to know what's going on.	We'e not adversarial in this, but we want to know what's going on. 	2159207	1472069271122	1472069271213	u	85
4256	45298	We're not adversarial in this, but we want to know what's going on.	We'e not adversarial in this, but we want to know what's going on. 	2159257	1472069271274	1472069271354	t	84
4256	45298	We're not adversarial in this, but we want to know what's going on.	We'e not adversarial in this, but we want to know what's going on. 	2159262	1472069271466	1472069271610	 	32
4256	45298	We're not adversarial in this, but we want to know what's going on.	We'e not adversarial in this, but we want to know what's going on. 	2159267	1472069271722	1472069271882	w	87
4256	45298	We're not adversarial in this, but we want to know what's going on.	We'e not adversarial in this, but we want to know what's going on. 	2159275	1472069271794	1472069271938	e	69
4256	45298	We're not adversarial in this, but we want to know what's going on.	We'e not adversarial in this, but we want to know what's going on. 	2159278	1472069271939	1472069272042	 	32
4256	45298	We're not adversarial in this, but we want to know what's going on.	We'e not adversarial in this, but we want to know what's going on. 	2159316	1472069272178	1472069272338	w	87
4256	45298	We're not adversarial in this, but we want to know what's going on.	We'e not adversarial in this, but we want to know what's going on. 	2159322	1472069272282	1472069272418	a	65
4256	45298	We're not adversarial in this, but we want to know what's going on.	We'e not adversarial in this, but we want to know what's going on. 	2159327	1472069272370	1472069272458	n	78
4256	45298	We're not adversarial in this, but we want to know what's going on.	We'e not adversarial in this, but we want to know what's going on. 	2159330	1472069272459	1472069272562	t	84
4256	45298	We're not adversarial in this, but we want to know what's going on.	We'e not adversarial in this, but we want to know what's going on. 	2159332	1472069272586	1472069272682	 	32
4256	45298	We're not adversarial in this, but we want to know what's going on.	We'e not adversarial in this, but we want to know what's going on. 	2159378	1472069272658	1472069272778	t	84
4256	45298	We're not adversarial in this, but we want to know what's going on.	We'e not adversarial in this, but we want to know what's going on. 	2159384	1472069272779	1472069272890	o	79
4256	45298	We're not adversarial in this, but we want to know what's going on.	We'e not adversarial in this, but we want to know what's going on. 	2159392	1472069272850	1472069273002	 	32
4256	45298	We're not adversarial in this, but we want to know what's going on.	We'e not adversarial in this, but we want to know what's going on. 	2159402	1472069273042	1472069273138	k	75
4256	45298	We're not adversarial in this, but we want to know what's going on.	We'e not adversarial in this, but we want to know what's going on. 	2159404	1472069273234	1472069273307	n	78
4256	45298	We're not adversarial in this, but we want to know what's going on.	We'e not adversarial in this, but we want to know what's going on. 	2159409	1472069273354	1472069273458	o	79
4256	45298	We're not adversarial in this, but we want to know what's going on.	We'e not adversarial in this, but we want to know what's going on. 	2159416	1472069273386	1472069273522	w	87
4256	45298	We're not adversarial in this, but we want to know what's going on.	We'e not adversarial in this, but we want to know what's going on. 	2159419	1472069273546	1472069273658	 	32
4256	45298	We're not adversarial in this, but we want to know what's going on.	We'e not adversarial in this, but we want to know what's going on. 	2159422	1472069273659	1472069273794	w	87
4256	45298	We're not adversarial in this, but we want to know what's going on.	We'e not adversarial in this, but we want to know what's going on. 	2159426	1472069273722	1472069273818	h	72
4256	45298	We're not adversarial in this, but we want to know what's going on.	We'e not adversarial in this, but we want to know what's going on. 	2159430	1472069273819	1472069274002	a	65
4256	45298	We're not adversarial in this, but we want to know what's going on.	We'e not adversarial in this, but we want to know what's going on. 	2159453	1472069273938	1472069274066	t	84
4256	45298	We're not adversarial in this, but we want to know what's going on.	We'e not adversarial in this, but we want to know what's going on. 	2159454	1472069274067	1472069274186	'	222
4256	45298	We're not adversarial in this, but we want to know what's going on.	We'e not adversarial in this, but we want to know what's going on. 	2159455	1472069274187	1472069274314	s	83
4256	45298	We're not adversarial in this, but we want to know what's going on.	We'e not adversarial in this, but we want to know what's going on. 	2159457	1472069274315	1472069274426	 	32
4256	45298	We're not adversarial in this, but we want to know what's going on.	We'e not adversarial in this, but we want to know what's going on. 	2159461	1472069274570	1472069274690	g	71
4256	45298	We're not adversarial in this, but we want to know what's going on.	We'e not adversarial in this, but we want to know what's going on. 	2159505	1472069274666	1472069274770	o	79
4256	45298	We're not adversarial in this, but we want to know what's going on.	We'e not adversarial in this, but we want to know what's going on. 	2159510	1472069274730	1472069274842	i	73
4256	45298	We're not adversarial in this, but we want to know what's going on.	We'e not adversarial in this, but we want to know what's going on. 	2159517	1472069274954	1472069275074	n	78
4256	45298	We're not adversarial in this, but we want to know what's going on.	We'e not adversarial in this, but we want to know what's going on. 	2159520	1472069275026	1472069275162	g	71
4256	45298	We're not adversarial in this, but we want to know what's going on.	We'e not adversarial in this, but we want to know what's going on. 	2159524	1472069275114	1472069275218	 	32
4256	45298	We're not adversarial in this, but we want to know what's going on.	We'e not adversarial in this, but we want to know what's going on. 	2159629	1472069275194	1472069275306	o	79
4256	45298	We're not adversarial in this, but we want to know what's going on.	We'e not adversarial in this, but we want to know what's going on. 	2159632	1472069275402	1472069275498	n	78
4256	45298	We're not adversarial in this, but we want to know what's going on.	We'e not adversarial in this, but we want to know what's going on. 	2159635	1472069275626	1472069275746	.	190
4256	45298	We're not adversarial in this, but we want to know what's going on.	We'e not adversarial in this, but we want to know what's going on. 	2159637	1472069275747	1472069275882	 	32
4256	45317	I can't seem to find it.	I can't seem to find it. 	2159831	1472069279066	1472069279218	SHIFT	16
4256	45317	I can't seem to find it.	I can't seem to find it. 	2159833	1472069279202	1472069279322	I	73
4256	45317	I can't seem to find it.	I can't seem to find it. 	2159836	1472069279298	1472069279434	 	32
4256	45317	I can't seem to find it.	I can't seem to find it. 	2159839	1472069279402	1472069279546	c	67
4256	45317	I can't seem to find it.	I can't seem to find it. 	2159886	1472069279514	1472069279642	a	65
4256	45317	I can't seem to find it.	I can't seem to find it. 	2159841	1472069279554	1472069279610	n	78
4256	45317	I can't seem to find it.	I can't seem to find it. 	2159890	1472069279722	1472069279834	'	222
4256	45317	I can't seem to find it.	I can't seem to find it. 	2159893	1472069279818	1472069279938	t	84
4256	45317	I can't seem to find it.	I can't seem to find it. 	2159896	1472069279906	1472069280018	 	32
4256	45317	I can't seem to find it.	I can't seem to find it. 	2159899	1472069280418	1472069280522	s	83
4256	45317	I can't seem to find it.	I can't seem to find it. 	2159901	1472069280546	1472069280634	e	69
4256	45317	I can't seem to find it.	I can't seem to find it. 	2159924	1472069280706	1472069280866	e	69
4256	45317	I can't seem to find it.	I can't seem to find it. 	2159927	1472069280874	1472069281026	m	77
4256	45317	I can't seem to find it.	I can't seem to find it. 	2159930	1472069280986	1472069281138	 	32
4256	45317	I can't seem to find it.	I can't seem to find it. 	2159935	1472069281090	1472069281218	t	84
4256	45317	I can't seem to find it.	I can't seem to find it. 	2159958	1472069281202	1472069281298	o	79
4256	45317	I can't seem to find it.	I can't seem to find it. 	2159965	1472069281250	1472069281410	 	32
4256	45317	I can't seem to find it.	I can't seem to find it. 	2159978	1472069281411	1472069281514	f	70
4256	45317	I can't seem to find it.	I can't seem to find it. 	2159985	1472069281450	1472069281515	i	73
4256	45317	I can't seem to find it.	I can't seem to find it. 	2159993	1472069281658	1472069281754	n	78
4256	45317	I can't seem to find it.	I can't seem to find it. 	2160033	1472069281706	1472069281850	d	68
4256	45317	I can't seem to find it.	I can't seem to find it. 	2160035	1472069281850	1472069281970	 	32
4256	45317	I can't seem to find it.	I can't seem to find it. 	2160037	1472069281994	1472069282074	i	73
4256	45317	I can't seem to find it.	I can't seem to find it. 	2160040	1472069282106	1472069282226	t	84
4256	45317	I can't seem to find it.	I can't seem to find it. 	2160043	1472069282290	1472069282434	.	190
4256	45317	I can't seem to find it.	I can't seem to find it. 	2160047	1472069282570	1472069282682	 	32
4256	45323	Weinke could have a big game.	Weinke could have a big game.	2160337	1472069286922	1472069287138	SHIFT	16
4256	45323	Weinke could have a big game.	Weinke could have a big game.	2160343	1472069287049	1472069287193	W	87
4256	45323	Weinke could have a big game.	Weinke could have a big game.	2160348	1472069287514	1472069287650	e	69
4256	45323	Weinke could have a big game.	Weinke could have a big game.	2160352	1472069287618	1472069287682	i	73
4256	45323	Weinke could have a big game.	Weinke could have a big game.	2160357	1472069287834	1472069287914	n	78
4256	45323	Weinke could have a big game.	Weinke could have a big game.	2160360	1472069288010	1472069288098	k	75
4256	45323	Weinke could have a big game.	Weinke could have a big game.	2160415	1472069288122	1472069288258	e	69
4256	45323	Weinke could have a big game.	Weinke could have a big game.	2160420	1472069288330	1472069288378	 	32
4256	45323	Weinke could have a big game.	Weinke could have a big game.	2160423	1472069288890	1472069289049	c	67
4256	45323	Weinke could have a big game.	Weinke could have a big game.	2160426	1472069288986	1472069289089	o	79
4256	45323	Weinke could have a big game.	Weinke could have a big game.	2160443	1472069289073	1472069289169	u	85
4256	45323	Weinke could have a big game.	Weinke could have a big game.	2160447	1472069289282	1472069289441	l	76
4256	45323	Weinke could have a big game.	Weinke could have a big game.	2160451	1472069289378	1472069289505	d	68
4256	45323	Weinke could have a big game.	Weinke could have a big game.	2160454	1472069289425	1472069289593	 	32
4256	45323	Weinke could have a big game.	Weinke could have a big game.	2160456	1472069289577	1472069289681	h	72
4256	45323	Weinke could have a big game.	Weinke could have a big game.	2160485	1472069289617	1472069289738	a	65
4256	45323	Weinke could have a big game.	Weinke could have a big game.	2160490	1472069289777	1472069289881	v	86
4256	45323	Weinke could have a big game.	Weinke could have a big game.	2160496	1472069289922	1472069290050	e	69
4256	45323	Weinke could have a big game.	Weinke could have a big game.	2160506	1472069289994	1472069290105	 	32
4256	45323	Weinke could have a big game.	Weinke could have a big game.	2160512	1472069290121	1472069290258	a	65
4256	45323	Weinke could have a big game.	Weinke could have a big game.	2160555	1472069290226	1472069290313	 	32
4256	45323	Weinke could have a big game.	Weinke could have a big game.	2160561	1472069290354	1472069290441	b	66
4256	45323	Weinke could have a big game.	Weinke could have a big game.	2160564	1472069290554	1472069290641	i	73
4256	45323	Weinke could have a big game.	Weinke could have a big game.	2160569	1472069290618	1472069290745	g	71
4256	45323	Weinke could have a big game.	Weinke could have a big game.	2160571	1472069290929	1472069291028	 	32
4256	45323	Weinke could have a big game.	Weinke could have a big game.	2160575	1472069291129	1472069291266	g	71
4256	45323	Weinke could have a big game.	Weinke could have a big game.	2160682	1472069291269	1472069291425	a	65
4256	45323	Weinke could have a big game.	Weinke could have a big game.	2160678	1472069291299	1472069291385	i	73
4256	45323	Weinke could have a big game.	Weinke could have a big game.	2160686	1472069291537	1472069291618	m	77
4256	45323	Weinke could have a big game.	Weinke could have a big game.	2160690	1472069292034	1472069292098	BKSP	8
4256	45323	Weinke could have a big game.	Weinke could have a big game.	2160693	1472069292226	1472069292305	BKSP	8
4256	45323	Weinke could have a big game.	Weinke could have a big game.	2160695	1472069292482	1472069292578	m	77
4256	45323	Weinke could have a big game.	Weinke could have a big game.	2160698	1472069292578	1472069292721	e	69
4256	45323	Weinke could have a big game.	Weinke could have a big game.	2160779	1472069292778	1472069292834	.	191
4256	45323	Weinke could have a big game.	Weinke could have a big game.	2160784	1472069293410	1472069293473	BKSP	8
4256	45323	Weinke could have a big game.	Weinke could have a big game.	2160788	1472069293602	1472069293681	BKSP	8
4256	45323	Weinke could have a big game.	Weinke could have a big game.	2160792	1472069293881	1472069294001	.	190
4256	45345	China replaced three ministers on Thursday.	China replaced three ministers on Thursday. 	2161050	1472069297449	1472069297681	SHIFT	16
4256	45345	China replaced three ministers on Thursday.	China replaced three ministers on Thursday. 	2161053	1472069297609	1472069297769	C	67
4256	45345	China replaced three ministers on Thursday.	China replaced three ministers on Thursday. 	2161063	1472069297825	1472069297913	h	72
4256	45345	China replaced three ministers on Thursday.	China replaced three ministers on Thursday. 	2161070	1472069297977	1472069298041	i	73
4256	45345	China replaced three ministers on Thursday.	China replaced three ministers on Thursday. 	2161076	1472069298153	1472069298257	n	78
4256	45345	China replaced three ministers on Thursday.	China replaced three ministers on Thursday. 	2161079	1472069298258	1472069298401	a	65
4256	45345	China replaced three ministers on Thursday.	China replaced three ministers on Thursday. 	2161106	1472069298353	1472069298497	 	32
4256	45345	China replaced three ministers on Thursday.	China replaced three ministers on Thursday. 	2161109	1472069298673	1472069298850	r	82
4256	45345	China replaced three ministers on Thursday.	China replaced three ministers on Thursday. 	2161110	1472069298769	1472069298881	e	69
4256	45345	China replaced three ministers on Thursday.	China replaced three ministers on Thursday. 	2161113	1472069298850	1472069298937	p	80
4256	45345	China replaced three ministers on Thursday.	China replaced three ministers on Thursday. 	2161114	1472069299065	1472069299201	l	76
4256	45345	China replaced three ministers on Thursday.	China replaced three ministers on Thursday. 	2161149	1472069299106	1472069299225	a	65
4256	45345	China replaced three ministers on Thursday.	China replaced three ministers on Thursday. 	2161152	1472069299249	1472069299353	c	67
4256	45345	China replaced three ministers on Thursday.	China replaced three ministers on Thursday. 	2161155	1472069299377	1472069299481	e	69
4256	45345	China replaced three ministers on Thursday.	China replaced three ministers on Thursday. 	2161156	1472069299577	1472069299681	d	68
4256	45345	China replaced three ministers on Thursday.	China replaced three ministers on Thursday. 	2161158	1472069299625	1472069299761	 	32
4256	45345	China replaced three ministers on Thursday.	China replaced three ministers on Thursday. 	2161161	1472069299817	1472069299929	t	84
4256	45345	China replaced three ministers on Thursday.	China replaced three ministers on Thursday. 	2161203	1472069299897	1472069300049	h	72
4256	45345	China replaced three ministers on Thursday.	China replaced three ministers on Thursday. 	2161207	1472069300050	1472069300153	r	82
4256	45345	China replaced three ministers on Thursday.	China replaced three ministers on Thursday. 	2161214	1472069300129	1472069300201	e	69
4256	45345	China replaced three ministers on Thursday.	China replaced three ministers on Thursday. 	2161223	1472069300281	1472069300409	e	69
4256	45345	China replaced three ministers on Thursday.	China replaced three ministers on Thursday. 	2161230	1472069300377	1472069300505	 	32
4256	45345	China replaced three ministers on Thursday.	China replaced three ministers on Thursday. 	2161236	1472069300633	1472069300785	m	77
4256	45345	China replaced three ministers on Thursday.	China replaced three ministers on Thursday. 	2161272	1472069300913	1472069300939	i	73
4256	45345	China replaced three ministers on Thursday.	China replaced three ministers on Thursday. 	2161275	1472069301049	1472069301137	n	78
4256	45345	China replaced three ministers on Thursday.	China replaced three ministers on Thursday. 	2161281	1472069301217	1472069301321	i	73
4256	45345	China replaced three ministers on Thursday.	China replaced three ministers on Thursday. 	2161284	1472069301322	1472069301425	s	83
4256	45345	China replaced three ministers on Thursday.	China replaced three ministers on Thursday. 	2161289	1472069301426	1472069301513	t	84
4256	45345	China replaced three ministers on Thursday.	China replaced three ministers on Thursday. 	2161318	1472069301569	1472069301706	e	69
4256	45345	China replaced three ministers on Thursday.	China replaced three ministers on Thursday. 	2161323	1472069301625	1472069301753	r	82
4256	45345	China replaced three ministers on Thursday.	China replaced three ministers on Thursday. 	2161331	1472069301769	1472069301977	s	83
4256	45345	China replaced three ministers on Thursday.	China replaced three ministers on Thursday. 	2161336	1472069301857	1472069302001	 	32
4256	45345	China replaced three ministers on Thursday.	China replaced three ministers on Thursday. 	2161340	1472069302002	1472069302089	o	79
4256	45345	China replaced three ministers on Thursday.	China replaced three ministers on Thursday. 	2161400	1472069302193	1472069302313	n	78
4256	45345	China replaced three ministers on Thursday.	China replaced three ministers on Thursday. 	2161405	1472069302289	1472069302393	 	32
4256	45345	China replaced three ministers on Thursday.	China replaced three ministers on Thursday. 	2161409	1472069302433	1472069302569	SHIFT	16
4256	45345	China replaced three ministers on Thursday.	China replaced three ministers on Thursday. 	2161415	1472069302513	1472069302633	T	84
4256	45345	China replaced three ministers on Thursday.	China replaced three ministers on Thursday. 	2161420	1472069302713	1472069302777	h	72
4256	45345	China replaced three ministers on Thursday.	China replaced three ministers on Thursday. 	2161423	1472069302881	1472069302961	u	85
4256	45345	China replaced three ministers on Thursday.	China replaced three ministers on Thursday. 	2161478	1472069302921	1472069303041	r	82
4256	45345	China replaced three ministers on Thursday.	China replaced three ministers on Thursday. 	2161483	1472069303161	1472069303297	s	83
4256	45345	China replaced three ministers on Thursday.	China replaced three ministers on Thursday. 	2161490	1472069303353	1472069303505	d	68
4256	45345	China replaced three ministers on Thursday.	China replaced three ministers on Thursday. 	2161495	1472069303465	1472069303673	a	65
4256	45345	China replaced three ministers on Thursday.	China replaced three ministers on Thursday. 	2161500	1472069303569	1472069303675	y	89
4256	45345	China replaced three ministers on Thursday.	China replaced three ministers on Thursday. 	2161505	1472069303929	1472069304057	.	190
4256	45345	China replaced three ministers on Thursday.	China replaced three ministers on Thursday. 	2161510	1472069304089	1472069304209	 	32
4256	45360	Opposition leaders have urged him to call off the visit.	Opposition leaders have urged him to call off the visit. 	2161976	1472069308593	1472069308817	SHIFT	16
4256	45360	Opposition leaders have urged him to call off the visit.	Opposition leaders have urged him to call off the visit. 	2161981	1472069308777	1472069308889	O	79
4256	45360	Opposition leaders have urged him to call off the visit.	Opposition leaders have urged him to call off the visit. 	2161989	1472069309033	1472069309097	p	80
4256	45360	Opposition leaders have urged him to call off the visit.	Opposition leaders have urged him to call off the visit. 	2161999	1472069309225	1472069309329	p	80
4256	45360	Opposition leaders have urged him to call off the visit.	Opposition leaders have urged him to call off the visit. 	2162008	1472069309505	1472069309593	o	79
4256	45360	Opposition leaders have urged him to call off the visit.	Opposition leaders have urged him to call off the visit. 	2162017	1472069309993	1472069310145	s	83
4256	45360	Opposition leaders have urged him to call off the visit.	Opposition leaders have urged him to call off the visit. 	2162057	1472069310089	1472069310193	i	73
4256	45360	Opposition leaders have urged him to call off the visit.	Opposition leaders have urged him to call off the visit. 	2162062	1472069310385	1472069310529	t	84
4256	45360	Opposition leaders have urged him to call off the visit.	Opposition leaders have urged him to call off the visit. 	2162068	1472069310505	1472069310737	i	73
4256	45360	Opposition leaders have urged him to call off the visit.	Opposition leaders have urged him to call off the visit. 	2162073	1472069310641	1472069310769	o	79
4256	45360	Opposition leaders have urged him to call off the visit.	Opposition leaders have urged him to call off the visit. 	2162075	1472069310865	1472069311001	n	78
4256	45360	Opposition leaders have urged him to call off the visit.	Opposition leaders have urged him to call off the visit. 	2162111	1472069310961	1472069311097	 	32
4256	45360	Opposition leaders have urged him to call off the visit.	Opposition leaders have urged him to call off the visit. 	2162117	1472069311153	1472069311329	l	76
4256	45360	Opposition leaders have urged him to call off the visit.	Opposition leaders have urged him to call off the visit. 	2162123	1472069311209	1472069311330	e	69
4256	45360	Opposition leaders have urged him to call off the visit.	Opposition leaders have urged him to call off the visit. 	2162128	1472069311305	1472069311465	a	65
4256	45360	Opposition leaders have urged him to call off the visit.	Opposition leaders have urged him to call off the visit. 	2162134	1472069311466	1472069311561	d	68
4256	45360	Opposition leaders have urged him to call off the visit.	Opposition leaders have urged him to call off the visit. 	2162140	1472069311633	1472069311761	e	69
4256	45360	Opposition leaders have urged him to call off the visit.	Opposition leaders have urged him to call off the visit. 	2162179	1472069311721	1472069311841	r	82
4256	45360	Opposition leaders have urged him to call off the visit.	Opposition leaders have urged him to call off the visit. 	2162186	1472069311881	1472069312009	s	83
4256	45360	Opposition leaders have urged him to call off the visit.	Opposition leaders have urged him to call off the visit. 	2162192	1472069311945	1472069312057	 	32
4256	45360	Opposition leaders have urged him to call off the visit.	Opposition leaders have urged him to call off the visit. 	2162200	1472069312097	1472069312209	h	72
4256	45360	Opposition leaders have urged him to call off the visit.	Opposition leaders have urged him to call off the visit. 	2162203	1472069312137	1472069312257	a	65
4256	45360	Opposition leaders have urged him to call off the visit.	Opposition leaders have urged him to call off the visit. 	2162206	1472069312353	1472069312425	v	86
4256	45360	Opposition leaders have urged him to call off the visit.	Opposition leaders have urged him to call off the visit. 	2162251	1472069312481	1472069312633	e	69
4256	45360	Opposition leaders have urged him to call off the visit.	Opposition leaders have urged him to call off the visit. 	2162258	1472069312609	1472069312721	 	32
4256	45360	Opposition leaders have urged him to call off the visit.	Opposition leaders have urged him to call off the visit. 	2162264	1472069312769	1472069312873	u	85
4256	45360	Opposition leaders have urged him to call off the visit.	Opposition leaders have urged him to call off the visit. 	2162268	1472069312841	1472069312929	r	82
4256	45360	Opposition leaders have urged him to call off the visit.	Opposition leaders have urged him to call off the visit. 	2162271	1472069313049	1472069313129	g	71
4256	45360	Opposition leaders have urged him to call off the visit.	Opposition leaders have urged him to call off the visit. 	2162305	1472069313201	1472069313297	e	69
4256	45360	Opposition leaders have urged him to call off the visit.	Opposition leaders have urged him to call off the visit. 	2162310	1472069313393	1472069313561	d	68
4256	45360	Opposition leaders have urged him to call off the visit.	Opposition leaders have urged him to call off the visit. 	2162315	1472069313521	1472069313641	 	32
4256	45360	Opposition leaders have urged him to call off the visit.	Opposition leaders have urged him to call off the visit. 	2162319	1472069313753	1472069313857	h	72
4256	45360	Opposition leaders have urged him to call off the visit.	Opposition leaders have urged him to call off the visit. 	2162323	1472069313858	1472069313937	i	73
4256	45360	Opposition leaders have urged him to call off the visit.	Opposition leaders have urged him to call off the visit. 	2162337	1472069314052	1472069314169	m	77
4256	45360	Opposition leaders have urged him to call off the visit.	Opposition leaders have urged him to call off the visit. 	2162341	1472069314121	1472069314241	 	32
4256	45360	Opposition leaders have urged him to call off the visit.	Opposition leaders have urged him to call off the visit. 	2162345	1472069314242	1472069314353	t	84
4256	45360	Opposition leaders have urged him to call off the visit.	Opposition leaders have urged him to call off the visit. 	2162351	1472069314313	1472069314425	o	79
4256	45360	Opposition leaders have urged him to call off the visit.	Opposition leaders have urged him to call off the visit. 	2162383	1472069314393	1472069314505	 	32
4256	45360	Opposition leaders have urged him to call off the visit.	Opposition leaders have urged him to call off the visit. 	2162384	1472069314537	1472069314617	c	67
4256	45360	Opposition leaders have urged him to call off the visit.	Opposition leaders have urged him to call off the visit. 	2162393	1472069314617	1472069314769	a	65
4256	45360	Opposition leaders have urged him to call off the visit.	Opposition leaders have urged him to call off the visit. 	2162387	1472069314657	1472069314721	l	76
4256	45360	Opposition leaders have urged him to call off the visit.	Opposition leaders have urged him to call off the visit. 	2162399	1472069314817	1472069314905	l	76
4256	45360	Opposition leaders have urged him to call off the visit.	Opposition leaders have urged him to call off the visit. 	2162405	1472069314906	1472069315049	 	32
4256	45360	Opposition leaders have urged him to call off the visit.	Opposition leaders have urged him to call off the visit. 	2162441	1472069315089	1472069315201	o	79
4256	45360	Opposition leaders have urged him to call off the visit.	Opposition leaders have urged him to call off the visit. 	2162446	1472069315202	1472069315297	f	70
4256	45360	Opposition leaders have urged him to call off the visit.	Opposition leaders have urged him to call off the visit. 	2162450	1472069315377	1472069315521	f	70
4256	45360	Opposition leaders have urged him to call off the visit.	Opposition leaders have urged him to call off the visit. 	2162453	1472069315497	1472069315641	 	32
4256	45360	Opposition leaders have urged him to call off the visit.	Opposition leaders have urged him to call off the visit. 	2162455	1472069315657	1472069315801	t	84
4256	45360	Opposition leaders have urged him to call off the visit.	Opposition leaders have urged him to call off the visit. 	2162489	1472069315713	1472069315804	h	72
4256	45360	Opposition leaders have urged him to call off the visit.	Opposition leaders have urged him to call off the visit. 	2162493	1472069315841	1472069315929	e	69
4256	45360	Opposition leaders have urged him to call off the visit.	Opposition leaders have urged him to call off the visit. 	2162498	1472069315929	1472069316025	 	32
4256	45360	Opposition leaders have urged him to call off the visit.	Opposition leaders have urged him to call off the visit. 	2162503	1472069316097	1472069316209	v	86
4256	45360	Opposition leaders have urged him to call off the visit.	Opposition leaders have urged him to call off the visit. 	2162508	1472069316129	1472069316225	i	73
4256	45360	Opposition leaders have urged him to call off the visit.	Opposition leaders have urged him to call off the visit. 	2162514	1472069316281	1472069316465	s	83
4256	45360	Opposition leaders have urged him to call off the visit.	Opposition leaders have urged him to call off the visit. 	2162564	1472069316393	1472069316489	i	73
4256	45360	Opposition leaders have urged him to call off the visit.	Opposition leaders have urged him to call off the visit. 	2162570	1472069316537	1472069316673	t	84
4256	45360	Opposition leaders have urged him to call off the visit.	Opposition leaders have urged him to call off the visit. 	2162576	1472069316753	1472069316889	.	190
4256	45360	Opposition leaders have urged him to call off the visit.	Opposition leaders have urged him to call off the visit. 	2162581	1472069316993	1472069317081	 	32
4256	45383	The Senate vote undercut him the day before the Geneva talks.	The Senate vote undercut him the day before the Geneva talks. 	2163007	1472069322633	1472069322785	SHIFT	16
4256	45383	The Senate vote undercut him the day before the Geneva talks.	The Senate vote undercut him the day before the Geneva talks. 	2163012	1472069322728	1472069322840	T	84
4256	45383	The Senate vote undercut him the day before the Geneva talks.	The Senate vote undercut him the day before the Geneva talks. 	2163020	1472069322968	1472069323049	h	72
4256	45383	The Senate vote undercut him the day before the Geneva talks.	The Senate vote undercut him the day before the Geneva talks. 	2163027	1472069323025	1472069323144	e	69
4256	45383	The Senate vote undercut him the day before the Geneva talks.	The Senate vote undercut him the day before the Geneva talks. 	2163037	1472069323176	1472069323288	 	32
4256	45383	The Senate vote undercut him the day before the Geneva talks.	The Senate vote undercut him the day before the Geneva talks. 	2163043	1472069323504	1472069323665	SHIFT	16
4256	45383	The Senate vote undercut him the day before the Geneva talks.	The Senate vote undercut him the day before the Geneva talks. 	2163066	1472069323552	1472069323705	S	83
4256	45383	The Senate vote undercut him the day before the Geneva talks.	The Senate vote undercut him the day before the Geneva talks. 	2163071	1472069323668	1472069323809	e	69
4256	45383	The Senate vote undercut him the day before the Geneva talks.	The Senate vote undercut him the day before the Geneva talks. 	2163076	1472069323856	1472069323952	n	78
4256	45383	The Senate vote undercut him the day before the Geneva talks.	The Senate vote undercut him the day before the Geneva talks. 	2163083	1472069323976	1472069324088	a	65
4256	45383	The Senate vote undercut him the day before the Geneva talks.	The Senate vote undercut him the day before the Geneva talks. 	2163088	1472069324041	1472069324216	t	84
4256	45383	The Senate vote undercut him the day before the Geneva talks.	The Senate vote undercut him the day before the Geneva talks. 	2163156	1472069324168	1472069324304	e	69
4256	45383	The Senate vote undercut him the day before the Geneva talks.	The Senate vote undercut him the day before the Geneva talks. 	2163160	1472069324289	1472069324408	 	32
4256	45383	The Senate vote undercut him the day before the Geneva talks.	The Senate vote undercut him the day before the Geneva talks. 	2163163	1472069324592	1472069324712	v	86
4256	45383	The Senate vote undercut him the day before the Geneva talks.	The Senate vote undercut him the day before the Geneva talks. 	2163166	1472069324688	1472069324784	o	79
4256	45383	The Senate vote undercut him the day before the Geneva talks.	The Senate vote undercut him the day before the Geneva talks. 	2163169	1472069324856	1472069325001	t	84
4256	45383	The Senate vote undercut him the day before the Geneva talks.	The Senate vote undercut him the day before the Geneva talks. 	2163171	1472069325001	1472069325129	e	69
4256	45383	The Senate vote undercut him the day before the Geneva talks.	The Senate vote undercut him the day before the Geneva talks. 	2163209	1472069325104	1472069325192	 	32
4256	45383	The Senate vote undercut him the day before the Geneva talks.	The Senate vote undercut him the day before the Geneva talks. 	2163213	1472069325248	1472069325313	u	85
4256	45383	The Senate vote undercut him the day before the Geneva talks.	The Senate vote undercut him the day before the Geneva talks. 	2163218	1472069325456	1472069325601	n	78
4256	45383	The Senate vote undercut him the day before the Geneva talks.	The Senate vote undercut him the day before the Geneva talks. 	2163224	1472069325537	1472069325640	d	68
4256	45383	The Senate vote undercut him the day before the Geneva talks.	The Senate vote undercut him the day before the Geneva talks. 	2163229	1472069325737	1472069325857	e	69
4256	45383	The Senate vote undercut him the day before the Geneva talks.	The Senate vote undercut him the day before the Geneva talks. 	2163255	1472069325809	1472069325928	r	82
4256	45383	The Senate vote undercut him the day before the Geneva talks.	The Senate vote undercut him the day before the Geneva talks. 	2163256	1472069326104	1472069326217	c	67
4256	45383	The Senate vote undercut him the day before the Geneva talks.	The Senate vote undercut him the day before the Geneva talks. 	2163257	1472069326176	1472069326272	u	85
4256	45383	The Senate vote undercut him the day before the Geneva talks.	The Senate vote undercut him the day before the Geneva talks. 	2163258	1472069326360	1472069326489	t	84
4256	45383	The Senate vote undercut him the day before the Geneva talks.	The Senate vote undercut him the day before the Geneva talks. 	2163259	1472069326465	1472069326593	 	32
4256	45383	The Senate vote undercut him the day before the Geneva talks.	The Senate vote undercut him the day before the Geneva talks. 	2163260	1472069326593	1472069326689	h	72
4256	45383	The Senate vote undercut him the day before the Geneva talks.	The Senate vote undercut him the day before the Geneva talks. 	2163280	1472069326692	1472069326768	i	73
4256	45383	The Senate vote undercut him the day before the Geneva talks.	The Senate vote undercut him the day before the Geneva talks. 	2163284	1472069326888	1472069327016	m	77
4256	45383	The Senate vote undercut him the day before the Geneva talks.	The Senate vote undercut him the day before the Geneva talks. 	2163289	1472069326968	1472069327080	 	32
4256	45383	The Senate vote undercut him the day before the Geneva talks.	The Senate vote undercut him the day before the Geneva talks. 	2163296	1472069327040	1472069327168	t	84
4256	45383	The Senate vote undercut him the day before the Geneva talks.	The Senate vote undercut him the day before the Geneva talks. 	2163314	1472069327152	1472069327248	h	72
4256	45383	The Senate vote undercut him the day before the Geneva talks.	The Senate vote undercut him the day before the Geneva talks. 	2163319	1472069327209	1472069327288	e	69
4256	45383	The Senate vote undercut him the day before the Geneva talks.	The Senate vote undercut him the day before the Geneva talks. 	2163323	1472069327312	1472069327416	 	32
4256	45383	The Senate vote undercut him the day before the Geneva talks.	The Senate vote undercut him the day before the Geneva talks. 	2163329	1472069327417	1472069327529	d	68
4256	45383	The Senate vote undercut him the day before the Geneva talks.	The Senate vote undercut him the day before the Geneva talks. 	2163334	1472069327529	1472069327697	a	65
4256	45383	The Senate vote undercut him the day before the Geneva talks.	The Senate vote undercut him the day before the Geneva talks. 	2163375	1472069327592	1472069327700	y	89
4256	45383	The Senate vote undercut him the day before the Geneva talks.	The Senate vote undercut him the day before the Geneva talks. 	2163381	1472069327701	1472069327840	 	32
4256	45383	The Senate vote undercut him the day before the Geneva talks.	The Senate vote undercut him the day before the Geneva talks. 	2163387	1472069327944	1472069328040	b	66
4256	45383	The Senate vote undercut him the day before the Geneva talks.	The Senate vote undercut him the day before the Geneva talks. 	2163395	1472069328016	1472069328112	e	69
4256	45383	The Senate vote undercut him the day before the Geneva talks.	The Senate vote undercut him the day before the Geneva talks. 	2163399	1472069328225	1472069328336	f	70
4256	45383	The Senate vote undercut him the day before the Geneva talks.	The Senate vote undercut him the day before the Geneva talks. 	2163429	1472069328296	1472069328400	o	79
4256	45383	The Senate vote undercut him the day before the Geneva talks.	The Senate vote undercut him the day before the Geneva talks. 	2163434	1472069328440	1472069328592	r	82
4256	45383	The Senate vote undercut him the day before the Geneva talks.	The Senate vote undercut him the day before the Geneva talks. 	2163437	1472069328520	1472069328624	e	69
4256	45383	The Senate vote undercut him the day before the Geneva talks.	The Senate vote undercut him the day before the Geneva talks. 	2163439	1472069328593	1472069328737	 	32
4256	45383	The Senate vote undercut him the day before the Geneva talks.	The Senate vote undercut him the day before the Geneva talks. 	2163443	1472069328737	1472069328856	t	84
4256	45383	The Senate vote undercut him the day before the Geneva talks.	The Senate vote undercut him the day before the Geneva talks. 	2163499	1472069328808	1472069328912	h	72
4256	45383	The Senate vote undercut him the day before the Geneva talks.	The Senate vote undercut him the day before the Geneva talks. 	2163503	1472069328913	1472069329040	e	69
4256	45383	The Senate vote undercut him the day before the Geneva talks.	The Senate vote undercut him the day before the Geneva talks. 	2163507	1472069329000	1472069329072	 	32
4256	45383	The Senate vote undercut him the day before the Geneva talks.	The Senate vote undercut him the day before the Geneva talks. 	2163511	1472069329136	1472069329297	SHIFT	16
4256	45383	The Senate vote undercut him the day before the Geneva talks.	The Senate vote undercut him the day before the Geneva talks. 	2163515	1472069329216	1472069329297	G	71
4256	45383	The Senate vote undercut him the day before the Geneva talks.	The Senate vote undercut him the day before the Geneva talks. 	2163520	1472069329376	1472069329504	e	69
4256	45383	The Senate vote undercut him the day before the Geneva talks.	The Senate vote undercut him the day before the Geneva talks. 	2163524	1472069329560	1472069329648	n	78
4256	45383	The Senate vote undercut him the day before the Geneva talks.	The Senate vote undercut him the day before the Geneva talks. 	2163587	1472069329800	1472069329936	e	69
4256	45383	The Senate vote undercut him the day before the Geneva talks.	The Senate vote undercut him the day before the Geneva talks. 	2163591	1472069330336	1472069330464	v	86
4256	45383	The Senate vote undercut him the day before the Geneva talks.	The Senate vote undercut him the day before the Geneva talks. 	2163594	1472069330512	1472069330672	a	65
4256	45383	The Senate vote undercut him the day before the Geneva talks.	The Senate vote undercut him the day before the Geneva talks. 	2163596	1472069330656	1472069330768	 	32
4256	45383	The Senate vote undercut him the day before the Geneva talks.	The Senate vote undercut him the day before the Geneva talks. 	2163598	1472069330856	1472069330992	t	84
4256	45383	The Senate vote undercut him the day before the Geneva talks.	The Senate vote undercut him the day before the Geneva talks. 	2163640	1472069330984	1472069331152	a	65
4256	45383	The Senate vote undercut him the day before the Geneva talks.	The Senate vote undercut him the day before the Geneva talks. 	2163645	1472069331048	1472069331192	l	76
4256	45383	The Senate vote undercut him the day before the Geneva talks.	The Senate vote undercut him the day before the Geneva talks. 	2163649	1472069331153	1472069331256	k	75
4256	45383	The Senate vote undercut him the day before the Geneva talks.	The Senate vote undercut him the day before the Geneva talks. 	2163653	1472069331272	1472069331424	s	83
4256	45383	The Senate vote undercut him the day before the Geneva talks.	The Senate vote undercut him the day before the Geneva talks. 	2163658	1472069331448	1472069331592	.	190
4256	45383	The Senate vote undercut him the day before the Geneva talks.	The Senate vote undercut him the day before the Geneva talks. 	2163663	1472069331696	1472069331816	 	32
