PARTICIPANT_ID	TEST_SECTION_ID	SENTENCE	USER_INPUT	KEYSTROKE_ID	PRESS_TIME	RELEASE_TIME	LETTER	KEYCODE
4313	45736	Japan's first man in space was a journalist.	Japan's first man in space was a journalist.	2180095	1471980107797	1471980108063	SHIFT	16
4313	45736	Japan's first man in space was a journalist.	Japan's first man in space was a journalist.	2180088	1471980107957	1471980108043	J	74
4313	45736	Japan's first man in space was a journalist.	Japan's first man in space was a journalist.	2180099	1471980108453	1471980108567	a	65
4313	45736	Japan's first man in space was a journalist.	Japan's first man in space was a journalist.	2180104	1471980109024	1471980109151	p	80
4313	45736	Japan's first man in space was a journalist.	Japan's first man in space was a journalist.	2180109	1471980109181	1471980109270	a	65
4313	45736	Japan's first man in space was a journalist.	Japan's first man in space was a journalist.	2180114	1471980109300	1471980109387	n	78
4313	45736	Japan's first man in space was a journalist.	Japan's first man in space was a journalist.	2180242	1471980109894	1471980109971	'	192
4313	45736	Japan's first man in space was a journalist.	Japan's first man in space was a journalist.	2180244	1471980110121	1471980110204	s	83
4313	45736	Japan's first man in space was a journalist.	Japan's first man in space was a journalist.	2180247	1471980110234	1471980110361	 	32
4313	45736	Japan's first man in space was a journalist.	Japan's first man in space was a journalist.	2180253	1471980110771	1471980110864	f	70
4313	45736	Japan's first man in space was a journalist.	Japan's first man in space was a journalist.	2180259	1471980111194	1471980111321	i	73
4313	45736	Japan's first man in space was a journalist.	Japan's first man in space was a journalist.	2180319	1471980111433	1471980111474	r	82
4313	45736	Japan's first man in space was a journalist.	Japan's first man in space was a journalist.	2180322	1471980111927	1471980112014	s	83
4313	45736	Japan's first man in space was a journalist.	Japan's first man in space was a journalist.	2180327	1471980112024	1471980112154	t	84
4313	45736	Japan's first man in space was a journalist.	Japan's first man in space was a journalist.	2180333	1471980112164	1471980112264	 	32
4313	45736	Japan's first man in space was a journalist.	Japan's first man in space was a journalist.	2180338	1471980112334	1471980112457	m	77
4313	45736	Japan's first man in space was a journalist.	Japan's first man in space was a journalist.	2180363	1471980112411	1471980112548	a	65
4313	45736	Japan's first man in space was a journalist.	Japan's first man in space was a journalist.	2180366	1471980112558	1471980112703	n	78
4313	45736	Japan's first man in space was a journalist.	Japan's first man in space was a journalist.	2180368	1471980112713	1471980112897	 	32
4313	45736	Japan's first man in space was a journalist.	Japan's first man in space was a journalist.	2180373	1471980112854	1471980112990	i	73
4313	45736	Japan's first man in space was a journalist.	Japan's first man in space was a journalist.	2180383	1471980112967	1471980113111	n	78
4313	45736	Japan's first man in space was a journalist.	Japan's first man in space was a journalist.	2180452	1471980113047	1471980113223	 	32
4313	45736	Japan's first man in space was a journalist.	Japan's first man in space was a journalist.	2180455	1471980113263	1471980113343	s	83
4313	45736	Japan's first man in space was a journalist.	Japan's first man in space was a journalist.	2180458	1471980113373	1471980113551	p	80
4313	45736	Japan's first man in space was a journalist.	Japan's first man in space was a journalist.	2180463	1471980113532	1471980113662	a	65
4313	45736	Japan's first man in space was a journalist.	Japan's first man in space was a journalist.	2180467	1471980113922	1471980114003	c	67
4313	45736	Japan's first man in space was a journalist.	Japan's first man in space was a journalist.	2180473	1471980114113	1471980114227	e	69
4313	45736	Japan's first man in space was a journalist.	Japan's first man in space was a journalist.	2180536	1471980114237	1471980114387	 	32
4313	45736	Japan's first man in space was a journalist.	Japan's first man in space was a journalist.	2180540	1471980114688	1471980114825	w	87
4313	45736	Japan's first man in space was a journalist.	Japan's first man in space was a journalist.	2180544	1471980114807	1471980114964	a	65
4313	45736	Japan's first man in space was a journalist.	Japan's first man in space was a journalist.	2180548	1471980114884	1471980115044	s	83
4313	45736	Japan's first man in space was a journalist.	Japan's first man in space was a journalist.	2180552	1471980115074	1471980115124	 	32
4313	45736	Japan's first man in space was a journalist.	Japan's first man in space was a journalist.	2180636	1471980115156	1471980115284	a	65
4313	45736	Japan's first man in space was a journalist.	Japan's first man in space was a journalist.	2180639	1471980115234	1471980115404	 	32
4313	45736	Japan's first man in space was a journalist.	Japan's first man in space was a journalist.	2180643	1471980115847	1471980115944	j	74
4313	45736	Japan's first man in space was a journalist.	Japan's first man in space was a journalist.	2180649	1471980116164	1471980116283	u	85
4313	45736	Japan's first man in space was a journalist.	Japan's first man in space was a journalist.	2180654	1471980116703	1471980116821	o	79
4313	45736	Japan's first man in space was a journalist.	Japan's first man in space was a journalist.	2180746	1471980117193	1471980117251	BKSP	8
4313	45736	Japan's first man in space was a journalist.	Japan's first man in space was a journalist.	2180751	1471980117321	1471980117364	BKSP	8
4313	45736	Japan's first man in space was a journalist.	Japan's first man in space was a journalist.	2180758	1471980117544	1471980117672	o	79
4313	45736	Japan's first man in space was a journalist.	Japan's first man in space was a journalist.	2180763	1471980117621	1471980117750	u	85
4313	45736	Japan's first man in space was a journalist.	Japan's first man in space was a journalist.	2180770	1471980117820	1471980117904	r	82
4313	45736	Japan's first man in space was a journalist.	Japan's first man in space was a journalist.	2180776	1471980118014	1471980118137	n	78
4313	45736	Japan's first man in space was a journalist.	Japan's first man in space was a journalist.	2180783	1471980118207	1471980118287	a	65
4313	45736	Japan's first man in space was a journalist.	Japan's first man in space was a journalist.	2180938	1471980118439	1471980118557	l	76
4313	45736	Japan's first man in space was a journalist.	Japan's first man in space was a journalist.	2180944	1471980118627	1471980118794	i	73
4313	45736	Japan's first man in space was a journalist.	Japan's first man in space was a journalist.	2180948	1471980119095	1471980119181	s	83
4313	45736	Japan's first man in space was a journalist.	Japan's first man in space was a journalist.	2180954	1471980119321	1471980119404	t	84
4313	45736	Japan's first man in space was a journalist.	Japan's first man in space was a journalist.	2180961	1471980120233	1471980120324	/	190
4313	45736	Japan's first man in space was a journalist.	Japan's first man in space was a journalist.	2181071	1471980120746	1471980120831	BKSP	8
4313	45761	New York's Supreme Court upheld a lower court decision.	New York's Supreme Court upheld a lower court decision.	2181280	1471980123996	1471980124117	SHIFT	16
4313	45761	New York's Supreme Court upheld a lower court decision.	New York's Supreme Court upheld a lower court decision.	2181283	1471980124066	1471980124207	N	78
4313	45761	New York's Supreme Court upheld a lower court decision.	New York's Supreme Court upheld a lower court decision.	2181287	1471980124684	1471980124813	e	69
4313	45761	New York's Supreme Court upheld a lower court decision.	New York's Supreme Court upheld a lower court decision.	2181291	1471980124761	1471980124883	w	87
4313	45761	New York's Supreme Court upheld a lower court decision.	New York's Supreme Court upheld a lower court decision.	2181297	1471980124913	1471980125040	 	32
4313	45761	New York's Supreme Court upheld a lower court decision.	New York's Supreme Court upheld a lower court decision.	2181301	1471980125190	1471980125351	CAPS_LOCK	20
4313	45761	New York's Supreme Court upheld a lower court decision.	New York's Supreme Court upheld a lower court decision.	2181623	1471980125270	1471980125393	Y	89
4313	45761	New York's Supreme Court upheld a lower court decision.	New York's Supreme Court upheld a lower court decision.	2181627	1471980126318	1471980126431	O	79
4313	45761	New York's Supreme Court upheld a lower court decision.	New York's Supreme Court upheld a lower court decision.	2181635	1471980126581	1471980126671	R	82
4313	45761	New York's Supreme Court upheld a lower court decision.	New York's Supreme Court upheld a lower court decision.	2181641	1471980126971	1471980127054	BKSP	8
4313	45761	New York's Supreme Court upheld a lower court decision.	New York's Supreme Court upheld a lower court decision.	2181647	1471980127125	1471980127204	BKSP	8
4313	45761	New York's Supreme Court upheld a lower court decision.	New York's Supreme Court upheld a lower court decision.	2181653	1471980127274	1471980127334	CAPS_LOCK	20
4313	45761	New York's Supreme Court upheld a lower court decision.	New York's Supreme Court upheld a lower court decision.	2181659	1471980127594	1471980127684	CAPS_LOCK	20
4313	45761	New York's Supreme Court upheld a lower court decision.	New York's Supreme Court upheld a lower court decision.	2181661	1471980127827	1471980127951	O	79
4313	45761	New York's Supreme Court upheld a lower court decision.	New York's Supreme Court upheld a lower court decision.	2181664	1471980128171	1471980128254	R	82
4313	45761	New York's Supreme Court upheld a lower court decision.	New York's Supreme Court upheld a lower court decision.	2181667	1471980128444	1471980128527	BKSP	8
4313	45761	New York's Supreme Court upheld a lower court decision.	New York's Supreme Court upheld a lower court decision.	2181670	1471980128557	1471980128647	BKSP	8
4313	45761	New York's Supreme Court upheld a lower court decision.	New York's Supreme Court upheld a lower court decision.	2181676	1471980128717	1471980128777	CAPS_LOCK	20
4313	45761	New York's Supreme Court upheld a lower court decision.	New York's Supreme Court upheld a lower court decision.	2181684	1471980128757	1471980128897	SHIFT	16
4313	45761	New York's Supreme Court upheld a lower court decision.	New York's Supreme Court upheld a lower court decision.	2181689	1471980129151	1471980129277	o	79
4313	45761	New York's Supreme Court upheld a lower court decision.	New York's Supreme Court upheld a lower court decision.	2181828	1471980129419	1471980129520	r	82
4313	45761	New York's Supreme Court upheld a lower court decision.	New York's Supreme Court upheld a lower court decision.	2181832	1471980130043	1471980130122	k	75
4313	45761	New York's Supreme Court upheld a lower court decision.	New York's Supreme Court upheld a lower court decision.	2181838	1471980130850	1471980130931	'	192
4313	45761	New York's Supreme Court upheld a lower court decision.	New York's Supreme Court upheld a lower court decision.	2181844	1471980131121	1471980131247	s	83
4313	45761	New York's Supreme Court upheld a lower court decision.	New York's Supreme Court upheld a lower court decision.	2181847	1471980131267	1471980131404	 	32
4313	45761	New York's Supreme Court upheld a lower court decision.	New York's Supreme Court upheld a lower court decision.	2181980	1471980131695	1471980132160	SHIFT	16
4313	45761	New York's Supreme Court upheld a lower court decision.	New York's Supreme Court upheld a lower court decision.	2181982	1471980132272	1471980132478	SHIFT	16
4313	45761	New York's Supreme Court upheld a lower court decision.	New York's Supreme Court upheld a lower court decision.	2181987	1471980132422	1471980132551	S	83
4313	45761	New York's Supreme Court upheld a lower court decision.	New York's Supreme Court upheld a lower court decision.	2181993	1471980132851	1471980133012	u	85
4313	45761	New York's Supreme Court upheld a lower court decision.	New York's Supreme Court upheld a lower court decision.	2181997	1471980133306	1471980133438	p	80
4313	45761	New York's Supreme Court upheld a lower court decision.	New York's Supreme Court upheld a lower court decision.	2182001	1471980133578	1471980133665	r	82
4313	45761	New York's Supreme Court upheld a lower court decision.	New York's Supreme Court upheld a lower court decision.	2182004	1471980133775	1471980133865	e	69
4313	45761	New York's Supreme Court upheld a lower court decision.	New York's Supreme Court upheld a lower court decision.	2182069	1471980133897	1471980134022	m	77
4313	45761	New York's Supreme Court upheld a lower court decision.	New York's Supreme Court upheld a lower court decision.	2182078	1471980134012	1471980134094	e	69
4313	45761	New York's Supreme Court upheld a lower court decision.	New York's Supreme Court upheld a lower court decision.	2182087	1471980134235	1471980134402	 	32
4313	45761	New York's Supreme Court upheld a lower court decision.	New York's Supreme Court upheld a lower court decision.	2182090	1471980134514	1471980134638	c	67
4313	45761	New York's Supreme Court upheld a lower court decision.	New York's Supreme Court upheld a lower court decision.	2182095	1471980134898	1471980134982	BKSP	8
4313	45761	New York's Supreme Court upheld a lower court decision.	New York's Supreme Court upheld a lower court decision.	2182100	1471980135132	1471980135306	SHIFT	16
4313	45761	New York's Supreme Court upheld a lower court decision.	New York's Supreme Court upheld a lower court decision.	2182210	1471980135282	1471980135331	C	67
4313	45761	New York's Supreme Court upheld a lower court decision.	New York's Supreme Court upheld a lower court decision.	2182216	1471980135701	1471980135878	o	79
4313	45761	New York's Supreme Court upheld a lower court decision.	New York's Supreme Court upheld a lower court decision.	2182222	1471980135858	1471980135984	u	85
4313	45761	New York's Supreme Court upheld a lower court decision.	New York's Supreme Court upheld a lower court decision.	2182226	1471980136094	1471980136172	r	82
4313	45761	New York's Supreme Court upheld a lower court decision.	New York's Supreme Court upheld a lower court decision.	2182232	1471980136440	1471980136558	t	84
4313	45761	New York's Supreme Court upheld a lower court decision.	New York's Supreme Court upheld a lower court decision.	2182238	1471980136748	1471980136912	 	32
4313	45761	New York's Supreme Court upheld a lower court decision.	New York's Supreme Court upheld a lower court decision.	2182298	1471980137204	1471980137324	u	85
4313	45761	New York's Supreme Court upheld a lower court decision.	New York's Supreme Court upheld a lower court decision.	2182302	1471980137354	1471980137518	p	80
4313	45761	New York's Supreme Court upheld a lower court decision.	New York's Supreme Court upheld a lower court decision.	2182306	1471980137738	1471980137832	h	72
4313	45761	New York's Supreme Court upheld a lower court decision.	New York's Supreme Court upheld a lower court decision.	2182312	1471980138012	1471980138108	e	69
4313	45761	New York's Supreme Court upheld a lower court decision.	New York's Supreme Court upheld a lower court decision.	2182317	1471980138178	1471980138262	l	76
4313	45761	New York's Supreme Court upheld a lower court decision.	New York's Supreme Court upheld a lower court decision.	2182360	1471980138364	1471980138484	d	68
4313	45761	New York's Supreme Court upheld a lower court decision.	New York's Supreme Court upheld a lower court decision.	2182362	1471980138494	1471980138612	 	32
4313	45761	New York's Supreme Court upheld a lower court decision.	New York's Supreme Court upheld a lower court decision.	2182364	1471980138642	1471980138765	a	65
4313	45761	New York's Supreme Court upheld a lower court decision.	New York's Supreme Court upheld a lower court decision.	2182367	1471980138765	1471980138842	 	32
4313	45761	New York's Supreme Court upheld a lower court decision.	New York's Supreme Court upheld a lower court decision.	2182370	1471980139292	1471980139342	l	76
4313	45761	New York's Supreme Court upheld a lower court decision.	New York's Supreme Court upheld a lower court decision.	2182460	1471980139444	1471980139532	o	79
4313	45761	New York's Supreme Court upheld a lower court decision.	New York's Supreme Court upheld a lower court decision.	2182468	1471980140111	1471980140265	w	87
4313	45761	New York's Supreme Court upheld a lower court decision.	New York's Supreme Court upheld a lower court decision.	2182473	1471980140178	1471980140382	e	69
4313	45761	New York's Supreme Court upheld a lower court decision.	New York's Supreme Court upheld a lower court decision.	2182477	1471980140335	1471980140502	r	82
4313	45761	New York's Supreme Court upheld a lower court decision.	New York's Supreme Court upheld a lower court decision.	2182484	1471980140532	1471980140661	 	32
4313	45761	New York's Supreme Court upheld a lower court decision.	New York's Supreme Court upheld a lower court decision.	2182553	1471980141033	1471980141155	c	67
4313	45761	New York's Supreme Court upheld a lower court decision.	New York's Supreme Court upheld a lower court decision.	2182556	1471980141165	1471980141352	o	79
4313	45761	New York's Supreme Court upheld a lower court decision.	New York's Supreme Court upheld a lower court decision.	2182559	1471980141298	1471980141422	u	85
4313	45761	New York's Supreme Court upheld a lower court decision.	New York's Supreme Court upheld a lower court decision.	2182562	1471980141542	1471980141672	r	82
4313	45761	New York's Supreme Court upheld a lower court decision.	New York's Supreme Court upheld a lower court decision.	2182569	1471980141774	1471980141865	t	84
4313	45761	New York's Supreme Court upheld a lower court decision.	New York's Supreme Court upheld a lower court decision.	2182631	1471980141937	1471980142095	 	32
4313	45761	New York's Supreme Court upheld a lower court decision.	New York's Supreme Court upheld a lower court decision.	2182633	1471980142467	1471980142552	d	68
4313	45761	New York's Supreme Court upheld a lower court decision.	New York's Supreme Court upheld a lower court decision.	2182634	1471980142662	1471980142745	e	69
4313	45761	New York's Supreme Court upheld a lower court decision.	New York's Supreme Court upheld a lower court decision.	2182635	1471980142895	1471980143012	c	67
4313	45761	New York's Supreme Court upheld a lower court decision.	New York's Supreme Court upheld a lower court decision.	2182637	1471980143042	1471980143138	i	73
4313	45761	New York's Supreme Court upheld a lower court decision.	New York's Supreme Court upheld a lower court decision.	2182677	1471980143439	1471980143512	s	83
4313	45761	New York's Supreme Court upheld a lower court decision.	New York's Supreme Court upheld a lower court decision.	2182678	1471980143582	1471980143777	i	73
4313	45761	New York's Supreme Court upheld a lower court decision.	New York's Supreme Court upheld a lower court decision.	2182680	1471980143702	1471980143868	o	79
4313	45761	New York's Supreme Court upheld a lower court decision.	New York's Supreme Court upheld a lower court decision.	2182684	1471980143817	1471980143908	n	78
4313	45761	New York's Supreme Court upheld a lower court decision.	New York's Supreme Court upheld a lower court decision.	2182687	1471980144098	1471980144182	.	190
4313	45761	New York's Supreme Court upheld a lower court decision.	New York's Supreme Court upheld a lower court decision.	2182750	1471980144213	1471980144278	.	190
4313	45761	New York's Supreme Court upheld a lower court decision.	New York's Supreme Court upheld a lower court decision.	2182751	1471980145038	1471980145122	BKSP	8
4313	45797	We want a little May madness of our own.	We want a little May madness of our own.	2182934	1471980147645	1471980147862	SHIFT	16
4313	45797	We want a little May madness of our own.	We want a little May madness of our own.	2182929	1471980147755	1471980147842	W	87
4313	45797	We want a little May madness of our own.	We want a little May madness of our own.	2182938	1471980147982	1471980148102	e	69
4313	45797	We want a little May madness of our own.	We want a little May madness of our own.	2182942	1471980148142	1471980148308	 	32
4313	45797	We want a little May madness of our own.	We want a little May madness of our own.	2182946	1471980148378	1471980148495	w	87
4313	45797	We want a little May madness of our own.	We want a little May madness of our own.	2183037	1471980148565	1471980148687	n	65
4313	45797	We want a little May madness of our own.	We want a little May madness of our own.	2183046	1471980148877	1471980149005	t	84
4313	45797	We want a little May madness of our own.	We want a little May madness of our own.	2183054	1471980149075	1471980149241	 	32
4313	45797	We want a little May madness of our own.	We want a little May madness of our own.	2183063	1471980149301	1471980149417	a	65
4313	45797	We want a little May madness of our own.	We want a little May madness of our own.	2183071	1471980149427	1471980149511	 	32
4313	45797	We want a little May madness of our own.	We want a little May madness of our own.	2183078	1471980149541	1471980149702	l	76
4313	45797	We want a little May madness of our own.	We want a little May madness of our own.	2183117	1471980149647	1471980149774	i	73
4313	45797	We want a little May madness of our own.	We want a little May madness of our own.	2183122	1471980149884	1471980149975	t	84
4313	45797	We want a little May madness of our own.	We want a little May madness of our own.	2183128	1471980150045	1471980150118	t	84
4313	45797	We want a little May madness of our own.	We want a little May madness of our own.	2183138	1471980150158	1471980150278	l	76
4313	45797	We want a little May madness of our own.	We want a little May madness of our own.	2183143	1471980150308	1471980150394	e	69
4313	45797	We want a little May madness of our own.	We want a little May madness of our own.	2183147	1471980150464	1471980150580	 	32
4313	45797	We want a little May madness of our own.	We want a little May madness of our own.	2183266	1471980150631	1471980150766	m	77
4313	45797	We want a little May madness of our own.	We want a little May madness of our own.	2183268	1471980150745	1471980150838	a	65
4313	45797	We want a little May madness of our own.	We want a little May madness of our own.	2183269	1471980151058	1471980151142	BKSP	8
4313	45797	We want a little May madness of our own.	We want a little May madness of our own.	2183271	1471980151443	1471980151522	BKSP	8
4313	45797	We want a little May madness of our own.	We want a little May madness of our own.	2183277	1471980151562	1471980151794	SHIFT	16
4313	45797	We want a little May madness of our own.	We want a little May madness of our own.	2183275	1471980151712	1471980151774	<	188
4313	45797	We want a little May madness of our own.	We want a little May madness of our own.	2183280	1471980152264	1471980152348	BKSP	8
4313	45797	We want a little May madness of our own.	We want a little May madness of our own.	2183288	1471980152418	1471980152695	SHIFT	16
4313	45797	We want a little May madness of our own.	We want a little May madness of our own.	2183284	1471980152529	1471980152615	M	77
4313	45797	We want a little May madness of our own.	We want a little May madness of our own.	2183292	1471980152917	1471980153045	a	65
4313	45797	We want a little May madness of our own.	We want a little May madness of our own.	2183342	1471980153159	1471980153278	y	89
4313	45797	We want a little May madness of our own.	We want a little May madness of our own.	2183347	1471980153308	1471980153468	 	32
4313	45797	We want a little May madness of our own.	We want a little May madness of our own.	2183354	1471980153538	1471980153635	m	77
4313	45797	We want a little May madness of our own.	We want a little May madness of our own.	2183357	1471980153612	1471980153698	a	65
4313	45797	We want a little May madness of our own.	We want a little May madness of our own.	2183363	1471980153998	1471980154088	d	68
4313	45797	We want a little May madness of our own.	We want a little May madness of our own.	2183444	1471980154380	1471980154472	n	78
4313	45797	We want a little May madness of our own.	We want a little May madness of our own.	2183445	1471980154582	1471980154625	e	69
4313	45797	We want a little May madness of our own.	We want a little May madness of our own.	2183447	1471980154805	1471980154895	s	83
4313	45797	We want a little May madness of our own.	We want a little May madness of our own.	2183448	1471980154965	1471980155088	s	83
4313	45797	We want a little May madness of our own.	We want a little May madness of our own.	2183450	1471980155098	1471980155248	 	32
4313	45797	We want a little May madness of our own.	We want a little May madness of our own.	2183495	1471980155198	1471980155340	o	79
4313	45797	We want a little May madness of our own.	We want a little May madness of our own.	2183498	1471980155320	1471980155411	f	70
4313	45797	We want a little May madness of our own.	We want a little May madness of our own.	2183501	1471980155441	1471980155563	 	32
4313	45797	We want a little May madness of our own.	We want a little May madness of our own.	2183504	1471980155683	1471980155852	o	79
4313	45797	We want a little May madness of our own.	We want a little May madness of our own.	2183507	1471980155825	1471980155955	u	85
4313	45797	We want a little May madness of our own.	We want a little May madness of our own.	2183511	1471980155985	1471980156075	t	84
4313	45797	We want a little May madness of our own.	We want a little May madness of our own.	2183573	1471980156085	1471980156205	 	32
4313	45797	We want a little May madness of our own.	We want a little May madness of our own.	2183576	1471980156575	1471980156665	BKSP	8
4313	45797	We want a little May madness of our own.	We want a little May madness of our own.	2183581	1471980156695	1471980156858	BKSP	8
4313	45797	We want a little May madness of our own.	We want a little May madness of our own.	2183588	1471980156888	1471980156978	r	82
4313	45797	We want a little May madness of our own.	We want a little May madness of our own.	2183594	1471980157008	1471980157128	 	32
4313	45797	We want a little May madness of our own.	We want a little May madness of our own.	2183599	1471980157158	1471980157381	o	79
4313	45797	We want a little May madness of our own.	We want a little May madness of our own.	2183666	1471980157354	1471980157478	w	87
4313	45797	We want a little May madness of our own.	We want a little May madness of our own.	2183669	1471980157508	1471980157594	n	78
4313	45797	We want a little May madness of our own.	We want a little May madness of our own.	2183674	1471980157744	1471980157822	.	190
4313	45818	Derivatives are not new.	Derivatives are not new.	2183885	1471980160812	1471980161008	SHIFT	16
4313	45818	Derivatives are not new.	Derivatives are not new.	2183887	1471980160962	1471980161048	D	68
4313	45818	Derivatives are not new.	Derivatives are not new.	2183889	1471980161231	1471980161282	e	69
4313	45818	Derivatives are not new.	Derivatives are not new.	2183892	1471980161773	1471980161855	r	82
4313	45818	Derivatives are not new.	Derivatives are not new.	2183896	1471980162035	1471980162085	i	73
4313	45818	Derivatives are not new.	Derivatives are not new.	2183901	1471980162457	1471980162549	v	86
4313	45818	Derivatives are not new.	Derivatives are not new.	2183943	1471980162731	1471980162822	a	65
4313	45818	Derivatives are not new.	Derivatives are not new.	2183947	1471980162932	1471980163015	t	84
4313	45818	Derivatives are not new.	Derivatives are not new.	2183951	1471980163025	1471980163135	i	73
4313	45818	Derivatives are not new.	Derivatives are not new.	2183955	1471980163205	1471980163368	v	86
4313	45818	Derivatives are not new.	Derivatives are not new.	2183992	1471980163318	1471980163409	e	69
4313	45818	Derivatives are not new.	Derivatives are not new.	2183995	1471980163590	1471980163708	s	83
4313	45818	Derivatives are not new.	Derivatives are not new.	2183999	1471980163718	1471980163832	 	32
4313	45818	Derivatives are not new.	Derivatives are not new.	2184003	1471980163862	1471980164029	a	65
4313	45818	Derivatives are not new.	Derivatives are not new.	2184009	1471980164039	1471980164192	r	82
4313	45818	Derivatives are not new.	Derivatives are not new.	2184051	1471980164138	1471980164232	e	69
4313	45818	Derivatives are not new.	Derivatives are not new.	2184054	1471980164192	1471980164312	 	32
4313	45818	Derivatives are not new.	Derivatives are not new.	2184058	1471980164342	1471980164498	n	78
4313	45818	Derivatives are not new.	Derivatives are not new.	2184062	1471980164448	1471980164594	o	79
4313	45818	Derivatives are not new.	Derivatives are not new.	2184065	1471980164568	1471980164705	t	84
4313	45818	Derivatives are not new.	Derivatives are not new.	2184067	1471980164705	1471980164778	 	32
4313	45818	Derivatives are not new.	Derivatives are not new.	2184149	1471980164850	1471980164972	n	78
4313	45818	Derivatives are not new.	Derivatives are not new.	2184153	1471980164962	1471980165158	e	69
4313	45818	Derivatives are not new.	Derivatives are not new.	2184156	1471980165115	1471980165248	w	87
4313	45818	Derivatives are not new.	Derivatives are not new.	2184159	1471980165438	1471980165562	.	190
4313	45825	Should we email this to you or fax to your house?	Should we email this to you or fax to your house?	2184295	1471980168025	1471980168178	SHIFT	16
4313	45825	Should we email this to you or fax to your house?	Should we email this to you or fax to your house?	2184301	1471980168155	1471980168214	S	83
4313	45825	Should we email this to you or fax to your house?	Should we email this to you or fax to your house?	2184306	1471980168354	1471980168428	h	72
4313	45825	Should we email this to you or fax to your house?	Should we email this to you or fax to your house?	2184311	1471980168438	1471980168599	o	79
4313	45825	Should we email this to you or fax to your house?	Should we email this to you or fax to your house?	2184316	1471980168589	1471980168706	u	85
4313	45825	Should we email this to you or fax to your house?	Should we email this to you or fax to your house?	2184319	1471980168716	1471980168831	l	76
4313	45825	Should we email this to you or fax to your house?	Should we email this to you or fax to your house?	2184366	1471980169314	1471980169404	d	68
4313	45825	Should we email this to you or fax to your house?	Should we email this to you or fax to your house?	2184371	1471980169474	1471980169595	 	32
4313	45825	Should we email this to you or fax to your house?	Should we email this to you or fax to your house?	2184376	1471980169665	1471980169835	w	87
4313	45825	Should we email this to you or fax to your house?	Should we email this to you or fax to your house?	2184379	1471980169785	1471980169905	e	69
4313	45825	Should we email this to you or fax to your house?	Should we email this to you or fax to your house?	2184382	1471980169915	1471980170019	 	32
4313	45825	Should we email this to you or fax to your house?	Should we email this to you or fax to your house?	2184438	1471980170280	1471980170335	e	69
4313	45825	Should we email this to you or fax to your house?	Should we email this to you or fax to your house?	2184444	1471980170437	1471980170559	m	77
4313	45825	Should we email this to you or fax to your house?	Should we email this to you or fax to your house?	2184449	1471980170589	1471980170760	a	65
4313	45825	Should we email this to you or fax to your house?	Should we email this to you or fax to your house?	2184452	1471980170770	1471980170988	i	73
4313	45825	Should we email this to you or fax to your house?	Should we email this to you or fax to your house?	2184499	1471980170899	1471980171120	l	76
4313	45825	Should we email this to you or fax to your house?	Should we email this to you or fax to your house?	2184501	1471980171130	1471980171315	 	32
4313	45825	Should we email this to you or fax to your house?	Should we email this to you or fax to your house?	2184502	1471980171385	1471980171473	t	84
4313	45825	Should we email this to you or fax to your house?	Should we email this to you or fax to your house?	2184503	1471980171483	1471980171552	h	72
4313	45825	Should we email this to you or fax to your house?	Should we email this to you or fax to your house?	2184504	1471980171582	1471980171665	i	73
4313	45825	Should we email this to you or fax to your house?	Should we email this to you or fax to your house?	2184506	1471980171735	1471980171862	s	83
4313	45825	Should we email this to you or fax to your house?	Should we email this to you or fax to your house?	2184551	1471980172194	1471980172323	 	32
4313	45825	Should we email this to you or fax to your house?	Should we email this to you or fax to your house?	2184552	1471980172463	1471980172515	t	84
4313	45825	Should we email this to you or fax to your house?	Should we email this to you or fax to your house?	2184553	1471980172525	1471980172635	o	79
4313	45825	Should we email this to you or fax to your house?	Should we email this to you or fax to your house?	2184554	1471980172645	1471980172712	 	32
4313	45825	Should we email this to you or fax to your house?	Should we email this to you or fax to your house?	2184555	1471980172742	1471980172792	t	84
4313	45825	Should we email this to you or fax to your house?	Should we email this to you or fax to your house?	2184707	1471980172894	1471980172982	y	89
4313	45825	Should we email this to you or fax to your house?	Should we email this to you or fax to your house?	2184712	1471980172992	1471980173142	o	79
4313	45825	Should we email this to you or fax to your house?	Should we email this to you or fax to your house?	2184722	1471980173088	1471980173262	u	85
4313	45825	Should we email this to you or fax to your house?	Should we email this to you or fax to your house?	2184729	1471980173482	1471980173525	BKSP	8
4313	45825	Should we email this to you or fax to your house?	Should we email this to you or fax to your house?	2184736	1471980173635	1471980173681	BKSP	8
4313	45825	Should we email this to you or fax to your house?	Should we email this to you or fax to your house?	2184742	1471980173791	1471980173832	BKSP	8
4313	45825	Should we email this to you or fax to your house?	Should we email this to you or fax to your house?	2184748	1471980173902	1471980173984	BKSP	8
4313	45825	Should we email this to you or fax to your house?	Should we email this to you or fax to your house?	2184753	1471980174284	1471980174452	o	79
4313	45825	Should we email this to you or fax to your house?	Should we email this to you or fax to your house?	2184761	1471980174752	1471980174829	BKSP	8
4313	45825	Should we email this to you or fax to your house?	Should we email this to you or fax to your house?	2184768	1471980175069	1471980175156	y	89
4313	45825	Should we email this to you or fax to your house?	Should we email this to you or fax to your house?	2184802	1471980175108	1471980175246	o	79
4313	45825	Should we email this to you or fax to your house?	Should we email this to you or fax to your house?	2184806	1471980175218	1471980175422	u	85
4313	45825	Should we email this to you or fax to your house?	Should we email this to you or fax to your house?	2184809	1471980175342	1471980175502	 	32
4313	45825	Should we email this to you or fax to your house?	Should we email this to you or fax to your house?	2184810	1471980175682	1471980175775	o	79
4313	45825	Should we email this to you or fax to your house?	Should we email this to you or fax to your house?	2184812	1471980175805	1471980175889	r	82
4313	45825	Should we email this to you or fax to your house?	Should we email this to you or fax to your house?	2184816	1471980175919	1471980176048	 	32
4313	45825	Should we email this to you or fax to your house?	Should we email this to you or fax to your house?	2184897	1471980176310	1471980176439	d	68
4313	45825	Should we email this to you or fax to your house?	Should we email this to you or fax to your house?	2184902	1471980176659	1471980176748	BKSP	8
4313	45825	Should we email this to you or fax to your house?	Should we email this to you or fax to your house?	2184908	1471980176728	1471980176902	f	70
4313	45825	Should we email this to you or fax to your house?	Should we email this to you or fax to your house?	2184912	1471980176852	1471980176982	a	65
4313	45825	Should we email this to you or fax to your house?	Should we email this to you or fax to your house?	2184920	1471980177162	1471980177274	c	67
4313	45825	Should we email this to you or fax to your house?	Should we email this to you or fax to your house?	2184925	1471980177394	1471980177562	 	32
4313	45825	Should we email this to you or fax to your house?	Should we email this to you or fax to your house?	2185002	1471980178035	1471980178096	BKSP	8
4313	45825	Should we email this to you or fax to your house?	Should we email this to you or fax to your house?	2185004	1471980178158	1471980178244	BKSP	8
4313	45825	Should we email this to you or fax to your house?	Should we email this to you or fax to your house?	2185008	1471980178394	1471980178519	x	88
4313	45825	Should we email this to you or fax to your house?	Should we email this to you or fax to your house?	2185010	1471980178549	1471980178662	 	32
4313	45825	Should we email this to you or fax to your house?	Should we email this to you or fax to your house?	2185014	1471980178822	1471980178895	t	84
4313	45825	Should we email this to you or fax to your house?	Should we email this to you or fax to your house?	2185017	1471980178915	1471980178974	o	79
4313	45825	Should we email this to you or fax to your house?	Should we email this to you or fax to your house?	2185021	1471980179014	1471980179129	 	32
4313	45825	Should we email this to you or fax to your house?	Should we email this to you or fax to your house?	2185045	1471980179280	1471980179369	y	89
4313	45825	Should we email this to you or fax to your house?	Should we email this to you or fax to your house?	2185048	1471980179315	1471980179473	o	79
4313	45825	Should we email this to you or fax to your house?	Should we email this to you or fax to your house?	2185052	1471980179449	1471980179572	u	85
4313	45825	Should we email this to you or fax to your house?	Should we email this to you or fax to your house?	2185056	1471980179602	1471980179685	r	82
4313	45825	Should we email this to you or fax to your house?	Should we email this to you or fax to your house?	2185061	1471980179725	1471980179846	 	32
4313	45825	Should we email this to you or fax to your house?	Should we email this to you or fax to your house?	2185083	1471980180011	1471980180084	h	72
4313	45825	Should we email this to you or fax to your house?	Should we email this to you or fax to your house?	2185085	1471980180094	1471980180325	o	79
4313	45825	Should we email this to you or fax to your house?	Should we email this to you or fax to your house?	2185091	1471980180272	1471980180365	u	85
4313	45825	Should we email this to you or fax to your house?	Should we email this to you or fax to your house?	2185098	1471980180435	1471980180559	s	83
4313	45825	Should we email this to you or fax to your house?	Should we email this to you or fax to your house?	2185177	1471980180505	1471980180641	e	69
4313	45825	Should we email this to you or fax to your house?	Should we email this to you or fax to your house?	2185183	1471980180972	1471980181292	SHIFT	16
4313	45825	Should we email this to you or fax to your house?	Should we email this to you or fax to your house?	2185180	1471980181132	1471980181252	?	191
4313	45851	There were 75 evacuees on one plane and 73 on the other.	There were 75 evacuees on one plane and 73 on the other.	2185362	1471980183849	1471980183999	SHIFT	16
4313	45851	There were 75 evacuees on one plane and 73 on the other.	There were 75 evacuees on one plane and 73 on the other.	2185366	1471980184219	1471980184382	SHIFT	16
4313	45851	There were 75 evacuees on one plane and 73 on the other.	There were 75 evacuees on one plane and 73 on the other.	2185370	1471980184339	1471980184462	T	84
4313	45851	There were 75 evacuees on one plane and 73 on the other.	There were 75 evacuees on one plane and 73 on the other.	2185373	1471980184572	1471980184625	h	72
4313	45851	There were 75 evacuees on one plane and 73 on the other.	There were 75 evacuees on one plane and 73 on the other.	2185378	1471980184645	1471980184765	e	69
4313	45851	There were 75 evacuees on one plane and 73 on the other.	There were 75 evacuees on one plane and 73 on the other.	2185381	1471980184722	1471980184815	r	82
4313	45851	There were 75 evacuees on one plane and 73 on the other.	There were 75 evacuees on one plane and 73 on the other.	2185386	1471980184845	1471980184928	e	69
4313	45851	There were 75 evacuees on one plane and 73 on the other.	There were 75 evacuees on one plane and 73 on the other.	2185433	1471980185000	1471980185128	 	32
4313	45851	There were 75 evacuees on one plane and 73 on the other.	There were 75 evacuees on one plane and 73 on the other.	2185439	1471980185532	1471980185659	w	87
4313	45851	There were 75 evacuees on one plane and 73 on the other.	There were 75 evacuees on one plane and 73 on the other.	2185450	1471980185608	1471980185782	e	69
4313	45851	There were 75 evacuees on one plane and 73 on the other.	There were 75 evacuees on one plane and 73 on the other.	2185460	1471980185689	1471980185902	r	82
4313	45851	There were 75 evacuees on one plane and 73 on the other.	There were 75 evacuees on one plane and 73 on the other.	2185468	1471980185932	1471980186098	 	32
4313	45851	There were 75 evacuees on one plane and 73 on the other.	There were 75 evacuees on one plane and 73 on the other.	2185590	1471980186349	1471980186429	BKSP	8
4313	45851	There were 75 evacuees on one plane and 73 on the other.	There were 75 evacuees on one plane and 73 on the other.	2185592	1471980186469	1471980186599	e	69
4313	45851	There were 75 evacuees on one plane and 73 on the other.	There were 75 evacuees on one plane and 73 on the other.	2185597	1471980186619	1471980186745	 	32
4313	45851	There were 75 evacuees on one plane and 73 on the other.	There were 75 evacuees on one plane and 73 on the other.	2185599	1471980187349	1471980187472	7	55
4313	45851	There were 75 evacuees on one plane and 73 on the other.	There were 75 evacuees on one plane and 73 on the other.	2185606	1471980187622	1471980187699	5	53
4313	45851	There were 75 evacuees on one plane and 73 on the other.	There were 75 evacuees on one plane and 73 on the other.	2185612	1471980187930	1471980188085	 	32
4313	45851	There were 75 evacuees on one plane and 73 on the other.	There were 75 evacuees on one plane and 73 on the other.	2185725	1471980188346	1471980188392	e	69
4313	45851	There were 75 evacuees on one plane and 73 on the other.	There were 75 evacuees on one plane and 73 on the other.	2185728	1471980188952	1471980189079	v	86
4313	45851	There were 75 evacuees on one plane and 73 on the other.	There were 75 evacuees on one plane and 73 on the other.	2185732	1471980189379	1471980189505	a	65
4313	45851	There were 75 evacuees on one plane and 73 on the other.	There were 75 evacuees on one plane and 73 on the other.	2185734	1471980189725	1471980189815	c	67
4313	45851	There were 75 evacuees on one plane and 73 on the other.	There were 75 evacuees on one plane and 73 on the other.	2185736	1471980190107	1471980190199	u	85
4313	45851	There were 75 evacuees on one plane and 73 on the other.	There were 75 evacuees on one plane and 73 on the other.	2185846	1471980190381	1471980190547	s	83
4313	45851	There were 75 evacuees on one plane and 73 on the other.	There were 75 evacuees on one plane and 73 on the other.	2185851	1471980190917	1471980190994	BKSP	8
4313	45851	There were 75 evacuees on one plane and 73 on the other.	There were 75 evacuees on one plane and 73 on the other.	2185859	1471980191074	1471980191155	e	69
4313	45851	There were 75 evacuees on one plane and 73 on the other.	There were 75 evacuees on one plane and 73 on the other.	2185864	1471980191275	1471980191355	e	69
4313	45851	There were 75 evacuees on one plane and 73 on the other.	There were 75 evacuees on one plane and 73 on the other.	2185868	1471980191425	1471980191582	s	83
4313	45851	There were 75 evacuees on one plane and 73 on the other.	There were 75 evacuees on one plane and 73 on the other.	2185871	1471980191622	1471980191785	 	32
4313	45851	There were 75 evacuees on one plane and 73 on the other.	There were 75 evacuees on one plane and 73 on the other.	2185891	1471980191817	1471980191936	o	79
4313	45851	There were 75 evacuees on one plane and 73 on the other.	There were 75 evacuees on one plane and 73 on the other.	2185893	1471980191889	1471980192032	n	78
4313	45851	There were 75 evacuees on one plane and 73 on the other.	There were 75 evacuees on one plane and 73 on the other.	2185899	1471980191989	1471980192112	 	32
4313	45851	There were 75 evacuees on one plane and 73 on the other.	There were 75 evacuees on one plane and 73 on the other.	2185904	1471980192282	1471980192401	o	79
4313	45851	There were 75 evacuees on one plane and 73 on the other.	There were 75 evacuees on one plane and 73 on the other.	2185996	1471980192354	1471980192525	n	78
4313	45851	There were 75 evacuees on one plane and 73 on the other.	There were 75 evacuees on one plane and 73 on the other.	2186000	1471980192470	1471980192604	 	32
4313	45851	There were 75 evacuees on one plane and 73 on the other.	There were 75 evacuees on one plane and 73 on the other.	2186004	1471980192894	1471980192985	BKSP	8
4313	45851	There were 75 evacuees on one plane and 73 on the other.	There were 75 evacuees on one plane and 73 on the other.	2186008	1471980193006	1471980193102	e	69
4313	45851	There were 75 evacuees on one plane and 73 on the other.	There were 75 evacuees on one plane and 73 on the other.	2186012	1471980193132	1471980193249	 	32
4313	45851	There were 75 evacuees on one plane and 73 on the other.	There were 75 evacuees on one plane and 73 on the other.	2186015	1471980193479	1471980193602	p	80
4313	45851	There were 75 evacuees on one plane and 73 on the other.	There were 75 evacuees on one plane and 73 on the other.	2186085	1471980193518	1471980193724	l	76
4313	45851	There were 75 evacuees on one plane and 73 on the other.	There were 75 evacuees on one plane and 73 on the other.	2186088	1471980193714	1471980193829	a	65
4313	45851	There were 75 evacuees on one plane and 73 on the other.	There were 75 evacuees on one plane and 73 on the other.	2186093	1471980194050	1471980194136	e	69
4313	45851	There were 75 evacuees on one plane and 73 on the other.	There were 75 evacuees on one plane and 73 on the other.	2186098	1471980194146	1471980194263	n	78
4313	45851	There were 75 evacuees on one plane and 73 on the other.	There were 75 evacuees on one plane and 73 on the other.	2186100	1471980194473	1471980194564	BKSP	8
4313	45851	There were 75 evacuees on one plane and 73 on the other.	There were 75 evacuees on one plane and 73 on the other.	2186104	1471980194594	1471980194705	BKSP	8
4313	45851	There were 75 evacuees on one plane and 73 on the other.	There were 75 evacuees on one plane and 73 on the other.	2186108	1471980194845	1471980194965	n	78
4313	45851	There were 75 evacuees on one plane and 73 on the other.	There were 75 evacuees on one plane and 73 on the other.	2186116	1471980195005	1471980195085	e	69
4313	45851	There were 75 evacuees on one plane and 73 on the other.	There were 75 evacuees on one plane and 73 on the other.	2186163	1471980195095	1471980195205	 	32
4313	45851	There were 75 evacuees on one plane and 73 on the other.	There were 75 evacuees on one plane and 73 on the other.	2186171	1471980195195	1471980195285	a	65
4313	45851	There were 75 evacuees on one plane and 73 on the other.	There were 75 evacuees on one plane and 73 on the other.	2186176	1471980195315	1471980195392	n	78
4313	45851	There were 75 evacuees on one plane and 73 on the other.	There were 75 evacuees on one plane and 73 on the other.	2186183	1471980195482	1471980195604	d	68
4313	45851	There were 75 evacuees on one plane and 73 on the other.	There were 75 evacuees on one plane and 73 on the other.	2186188	1471980195824	1471980195985	 	32
4313	45851	There were 75 evacuees on one plane and 73 on the other.	There were 75 evacuees on one plane and 73 on the other.	2186275	1471980196662	1471980196752	7	55
4313	45851	There were 75 evacuees on one plane and 73 on the other.	There were 75 evacuees on one plane and 73 on the other.	2186284	1471980196892	1471980196981	3	51
4313	45851	There were 75 evacuees on one plane and 73 on the other.	There were 75 evacuees on one plane and 73 on the other.	2186291	1471980197476	1471980197595	 	32
4313	45851	There were 75 evacuees on one plane and 73 on the other.	There were 75 evacuees on one plane and 73 on the other.	2186298	1471980197585	1471980197715	o	79
4313	45851	There were 75 evacuees on one plane and 73 on the other.	There were 75 evacuees on one plane and 73 on the other.	2186354	1471980197705	1471980197832	n	78
4313	45851	There were 75 evacuees on one plane and 73 on the other.	There were 75 evacuees on one plane and 73 on the other.	2186369	1471980197862	1471980197995	 	32
4313	45851	There were 75 evacuees on one plane and 73 on the other.	There were 75 evacuees on one plane and 73 on the other.	2186363	1471980197902	1471980197975	t	84
4313	45851	There were 75 evacuees on one plane and 73 on the other.	There were 75 evacuees on one plane and 73 on the other.	2186374	1471980198015	1471980198142	h	72
4313	45851	There were 75 evacuees on one plane and 73 on the other.	There were 75 evacuees on one plane and 73 on the other.	2186379	1471980198172	1471980198232	e	69
4313	45851	There were 75 evacuees on one plane and 73 on the other.	There were 75 evacuees on one plane and 73 on the other.	2186383	1471980198292	1471980198485	 	32
4313	45851	There were 75 evacuees on one plane and 73 on the other.	There were 75 evacuees on one plane and 73 on the other.	2186480	1471980198506	1471980198633	o	79
4313	45851	There were 75 evacuees on one plane and 73 on the other.	There were 75 evacuees on one plane and 73 on the other.	2186483	1471980198773	1471980198904	h	72
4313	45851	There were 75 evacuees on one plane and 73 on the other.	There were 75 evacuees on one plane and 73 on the other.	2186487	1471980199539	1471980199635	BKSP	8
4313	45851	There were 75 evacuees on one plane and 73 on the other.	There were 75 evacuees on one plane and 73 on the other.	2186499	1471980199735	1471980199819	t	84
4313	45851	There were 75 evacuees on one plane and 73 on the other.	There were 75 evacuees on one plane and 73 on the other.	2186507	1471980199829	1471980199909	h	72
4313	45851	There were 75 evacuees on one plane and 73 on the other.	There were 75 evacuees on one plane and 73 on the other.	2186520	1471980199939	1471980200018	e	69
4313	45851	There were 75 evacuees on one plane and 73 on the other.	There were 75 evacuees on one plane and 73 on the other.	2186561	1471980199974	1471980200061	r	82
4313	45851	There were 75 evacuees on one plane and 73 on the other.	There were 75 evacuees on one plane and 73 on the other.	2186566	1471980200202	1471980200291	.	190
4313	45882	I can return earlier.	I can return earlier.	2186712	1471980202702	1471980202819	SHIFT	16
4313	45882	I can return earlier.	I can return earlier.	2186718	1471980202732	1471980202859	I	73
4313	45882	I can return earlier.	I can return earlier.	2186724	1471980202869	1471980203012	 	32
4313	45882	I can return earlier.	I can return earlier.	2186732	1471980203193	1471980203319	c	67
4313	45882	I can return earlier.	I can return earlier.	2186739	1471980203271	1471980203442	a	65
4313	45882	I can return earlier.	I can return earlier.	2186797	1471980203399	1471980203552	n	78
4313	45882	I can return earlier.	I can return earlier.	2186799	1471980203464	1471980203632	 	32
4313	45882	I can return earlier.	I can return earlier.	2186801	1471980203742	1471980203868	r	82
4313	45882	I can return earlier.	I can return earlier.	2186803	1471980203819	1471980203938	e	69
4313	45882	I can return earlier.	I can return earlier.	2186806	1471980204088	1471980204172	t	84
4313	45882	I can return earlier.	I can return earlier.	2186809	1471980204252	1471980204382	u	85
4313	45882	I can return earlier.	I can return earlier.	2186905	1471980204454	1471980204495	r	82
4313	45882	I can return earlier.	I can return earlier.	2186908	1471980204826	1471980204996	n	78
4313	45882	I can return earlier.	I can return earlier.	2186911	1471980204949	1471980205106	 	32
4313	45882	I can return earlier.	I can return earlier.	2186914	1471980205328	1471980205454	e	69
4313	45882	I can return earlier.	I can return earlier.	2186919	1471980205484	1471980205574	a	65
4313	45882	I can return earlier.	I can return earlier.	2187008	1471980205796	1471980205877	r	82
4313	45882	I can return earlier.	I can return earlier.	2187013	1471980205987	1471980206179	l	76
4313	45882	I can return earlier.	I can return earlier.	2187016	1471980206155	1471980206282	i	73
4313	45882	I can return earlier.	I can return earlier.	2187020	1471980206739	1471980206901	e	69
4313	45882	I can return earlier.	I can return earlier.	2187131	1471980206849	1471980206934	r	82
4313	45882	I can return earlier.	I can return earlier.	2187135	1471980207234	1471980207322	.	190
4313	45893	The group is making a pilgrimage to the Catholic shrine of Fatima.	The group is making a pilgrimage to the Catholic shrine of Fatima.	2187318	1471980210112	1471980210295	SHIFT	16
4313	45893	The group is making a pilgrimage to the Catholic shrine of Fatima.	The group is making a pilgrimage to the Catholic shrine of Fatima.	2187325	1471980210273	1471980210348	T	84
4313	45893	The group is making a pilgrimage to the Catholic shrine of Fatima.	The group is making a pilgrimage to the Catholic shrine of Fatima.	2187332	1471980210418	1471980210502	h	72
4313	45893	The group is making a pilgrimage to the Catholic shrine of Fatima.	The group is making a pilgrimage to the Catholic shrine of Fatima.	2187338	1471980210532	1471980210667	e	69
4313	45893	The group is making a pilgrimage to the Catholic shrine of Fatima.	The group is making a pilgrimage to the Catholic shrine of Fatima.	2187345	1471980210609	1471980210735	r	82
4313	45893	The group is making a pilgrimage to the Catholic shrine of Fatima.	The group is making a pilgrimage to the Catholic shrine of Fatima.	2187523	1471980210688	1471980210866	 	32
4313	45893	The group is making a pilgrimage to the Catholic shrine of Fatima.	The group is making a pilgrimage to the Catholic shrine of Fatima.	2187527	1471980211036	1471980211164	g	71
4313	45893	The group is making a pilgrimage to the Catholic shrine of Fatima.	The group is making a pilgrimage to the Catholic shrine of Fatima.	2187530	1471980211464	1471980211529	BKSP	8
4313	45893	The group is making a pilgrimage to the Catholic shrine of Fatima.	The group is making a pilgrimage to the Catholic shrine of Fatima.	2187532	1471980211599	1471980211681	BKSP	8
4313	45893	The group is making a pilgrimage to the Catholic shrine of Fatima.	The group is making a pilgrimage to the Catholic shrine of Fatima.	2187535	1471980211761	1471980211832	BKSP	8
4313	45893	The group is making a pilgrimage to the Catholic shrine of Fatima.	The group is making a pilgrimage to the Catholic shrine of Fatima.	2187538	1471980211952	1471980212115	 	32
4313	45893	The group is making a pilgrimage to the Catholic shrine of Fatima.	The group is making a pilgrimage to the Catholic shrine of Fatima.	2187541	1471980212634	1471980212679	g	71
4313	45893	The group is making a pilgrimage to the Catholic shrine of Fatima.	The group is making a pilgrimage to the Catholic shrine of Fatima.	2187544	1471980212839	1471980212919	r	82
4313	45893	The group is making a pilgrimage to the Catholic shrine of Fatima.	The group is making a pilgrimage to the Catholic shrine of Fatima.	2187547	1471980212989	1471980213185	o	79
4313	45893	The group is making a pilgrimage to the Catholic shrine of Fatima.	The group is making a pilgrimage to the Catholic shrine of Fatima.	2187627	1471980214059	1471980214179	u	85
4313	45893	The group is making a pilgrimage to the Catholic shrine of Fatima.	The group is making a pilgrimage to the Catholic shrine of Fatima.	2187632	1471980214289	1471980214369	p	80
4313	45893	The group is making a pilgrimage to the Catholic shrine of Fatima.	The group is making a pilgrimage to the Catholic shrine of Fatima.	2187637	1471980214589	1471980214722	 	32
4313	45893	The group is making a pilgrimage to the Catholic shrine of Fatima.	The group is making a pilgrimage to the Catholic shrine of Fatima.	2187642	1471980214762	1471980214848	i	73
4313	45893	The group is making a pilgrimage to the Catholic shrine of Fatima.	The group is making a pilgrimage to the Catholic shrine of Fatima.	2187647	1471980214918	1471980215002	s	83
4313	45893	The group is making a pilgrimage to the Catholic shrine of Fatima.	The group is making a pilgrimage to the Catholic shrine of Fatima.	2187662	1471980214952	1471980215124	 	32
4313	45893	The group is making a pilgrimage to the Catholic shrine of Fatima.	The group is making a pilgrimage to the Catholic shrine of Fatima.	2187664	1471980215154	1471980215250	m	77
4313	45893	The group is making a pilgrimage to the Catholic shrine of Fatima.	The group is making a pilgrimage to the Catholic shrine of Fatima.	2187666	1471980215222	1471980215351	a	65
4313	45893	The group is making a pilgrimage to the Catholic shrine of Fatima.	The group is making a pilgrimage to the Catholic shrine of Fatima.	2187671	1471980215305	1471980215431	k	75
4313	45893	The group is making a pilgrimage to the Catholic shrine of Fatima.	The group is making a pilgrimage to the Catholic shrine of Fatima.	2187676	1471980215504	1471980215627	e	69
4313	45893	The group is making a pilgrimage to the Catholic shrine of Fatima.	The group is making a pilgrimage to the Catholic shrine of Fatima.	2187799	1471980215575	1471980215750	i	73
4313	45893	The group is making a pilgrimage to the Catholic shrine of Fatima.	The group is making a pilgrimage to the Catholic shrine of Fatima.	2187801	1471980215962	1471980216062	BKSP	8
4313	45893	The group is making a pilgrimage to the Catholic shrine of Fatima.	The group is making a pilgrimage to the Catholic shrine of Fatima.	2187804	1471980216113	1471980216208	BKSP	8
4313	45893	The group is making a pilgrimage to the Catholic shrine of Fatima.	The group is making a pilgrimage to the Catholic shrine of Fatima.	2187807	1471980216349	1471980216435	i	73
4313	45893	The group is making a pilgrimage to the Catholic shrine of Fatima.	The group is making a pilgrimage to the Catholic shrine of Fatima.	2187813	1471980216394	1471980216515	n	78
4313	45893	The group is making a pilgrimage to the Catholic shrine of Fatima.	The group is making a pilgrimage to the Catholic shrine of Fatima.	2187818	1471980216935	1471980217069	g	71
4313	45893	The group is making a pilgrimage to the Catholic shrine of Fatima.	The group is making a pilgrimage to the Catholic shrine of Fatima.	2187827	1471980217079	1471980217219	 	32
4313	45893	The group is making a pilgrimage to the Catholic shrine of Fatima.	The group is making a pilgrimage to the Catholic shrine of Fatima.	2187833	1471980217239	1471980217362	a	65
4313	45893	The group is making a pilgrimage to the Catholic shrine of Fatima.	The group is making a pilgrimage to the Catholic shrine of Fatima.	2187972	1471980217315	1471980217444	 	32
4313	45893	The group is making a pilgrimage to the Catholic shrine of Fatima.	The group is making a pilgrimage to the Catholic shrine of Fatima.	2187976	1471980217545	1471980217625	p	80
4313	45893	The group is making a pilgrimage to the Catholic shrine of Fatima.	The group is making a pilgrimage to the Catholic shrine of Fatima.	2187981	1471980218209	1471980218325	i	73
4313	45893	The group is making a pilgrimage to the Catholic shrine of Fatima.	The group is making a pilgrimage to the Catholic shrine of Fatima.	2187988	1471980218475	1471980218552	l	76
4313	45893	The group is making a pilgrimage to the Catholic shrine of Fatima.	The group is making a pilgrimage to the Catholic shrine of Fatima.	2187993	1471980219189	1471980219286	g	71
4313	45893	The group is making a pilgrimage to the Catholic shrine of Fatima.	The group is making a pilgrimage to the Catholic shrine of Fatima.	2187996	1471980219546	1471980219595	r	82
4313	45893	The group is making a pilgrimage to the Catholic shrine of Fatima.	The group is making a pilgrimage to the Catholic shrine of Fatima.	2188055	1471980219737	1471980219864	i	73
4313	45893	The group is making a pilgrimage to the Catholic shrine of Fatima.	The group is making a pilgrimage to the Catholic shrine of Fatima.	2188057	1471980219809	1471980219949	m	77
4313	45893	The group is making a pilgrimage to the Catholic shrine of Fatima.	The group is making a pilgrimage to the Catholic shrine of Fatima.	2188064	1471980219969	1471980220099	a	65
4313	45893	The group is making a pilgrimage to the Catholic shrine of Fatima.	The group is making a pilgrimage to the Catholic shrine of Fatima.	2188073	1471980220390	1471980220521	g	71
4313	45893	The group is making a pilgrimage to the Catholic shrine of Fatima.	The group is making a pilgrimage to the Catholic shrine of Fatima.	2188082	1471980220591	1471980220665	e	69
4313	45893	The group is making a pilgrimage to the Catholic shrine of Fatima.	The group is making a pilgrimage to the Catholic shrine of Fatima.	2188105	1471980220707	1471980220792	 	32
4313	45893	The group is making a pilgrimage to the Catholic shrine of Fatima.	The group is making a pilgrimage to the Catholic shrine of Fatima.	2188112	1471980220782	1471980220869	t	84
4313	45893	The group is making a pilgrimage to the Catholic shrine of Fatima.	The group is making a pilgrimage to the Catholic shrine of Fatima.	2188117	1471980220879	1471980220984	o	79
4313	45893	The group is making a pilgrimage to the Catholic shrine of Fatima.	The group is making a pilgrimage to the Catholic shrine of Fatima.	2188122	1471980220939	1471980221062	 	32
4313	45893	The group is making a pilgrimage to the Catholic shrine of Fatima.	The group is making a pilgrimage to the Catholic shrine of Fatima.	2188209	1471980221014	1471980221104	t	84
4313	45893	The group is making a pilgrimage to the Catholic shrine of Fatima.	The group is making a pilgrimage to the Catholic shrine of Fatima.	2188215	1471980221114	1471980221219	h	72
4313	45893	The group is making a pilgrimage to the Catholic shrine of Fatima.	The group is making a pilgrimage to the Catholic shrine of Fatima.	2188220	1471980221172	1471980221259	e	69
4313	45893	The group is making a pilgrimage to the Catholic shrine of Fatima.	The group is making a pilgrimage to the Catholic shrine of Fatima.	2188225	1471980221269	1471980221379	 	32
4313	45893	The group is making a pilgrimage to the Catholic shrine of Fatima.	The group is making a pilgrimage to the Catholic shrine of Fatima.	2188229	1471980221600	1471980221735	c	67
4313	45893	The group is making a pilgrimage to the Catholic shrine of Fatima.	The group is making a pilgrimage to the Catholic shrine of Fatima.	2188232	1471980221955	1471980222005	BKSP	8
4313	45893	The group is making a pilgrimage to the Catholic shrine of Fatima.	The group is making a pilgrimage to the Catholic shrine of Fatima.	2188237	1471980222265	1471980222469	SHIFT	16
4313	45893	The group is making a pilgrimage to the Catholic shrine of Fatima.	The group is making a pilgrimage to the Catholic shrine of Fatima.	2188308	1471980222375	1471980222511	C	67
4313	45893	The group is making a pilgrimage to the Catholic shrine of Fatima.	The group is making a pilgrimage to the Catholic shrine of Fatima.	2188311	1471980222621	1471980222747	a	65
4313	45893	The group is making a pilgrimage to the Catholic shrine of Fatima.	The group is making a pilgrimage to the Catholic shrine of Fatima.	2188314	1471980222919	1471980223009	t	84
4313	45893	The group is making a pilgrimage to the Catholic shrine of Fatima.	The group is making a pilgrimage to the Catholic shrine of Fatima.	2188317	1471980223119	1471980223242	h	72
4313	45893	The group is making a pilgrimage to the Catholic shrine of Fatima.	The group is making a pilgrimage to the Catholic shrine of Fatima.	2188325	1471980223613	1471980223702	o	79
4313	45893	The group is making a pilgrimage to the Catholic shrine of Fatima.	The group is making a pilgrimage to the Catholic shrine of Fatima.	2188332	1471980223812	1471980223872	l	76
4313	45893	The group is making a pilgrimage to the Catholic shrine of Fatima.	The group is making a pilgrimage to the Catholic shrine of Fatima.	2188410	1471980224053	1471980224141	i	73
4313	45893	The group is making a pilgrimage to the Catholic shrine of Fatima.	The group is making a pilgrimage to the Catholic shrine of Fatima.	2188417	1471980224241	1471980224335	c	67
4313	45893	The group is making a pilgrimage to the Catholic shrine of Fatima.	The group is making a pilgrimage to the Catholic shrine of Fatima.	2188425	1471980224486	1471980224644	 	32
4313	45893	The group is making a pilgrimage to the Catholic shrine of Fatima.	The group is making a pilgrimage to the Catholic shrine of Fatima.	2188430	1471980225059	1471980225145	s	83
4313	45893	The group is making a pilgrimage to the Catholic shrine of Fatima.	The group is making a pilgrimage to the Catholic shrine of Fatima.	2188436	1471980225285	1471980225369	h	72
4313	45893	The group is making a pilgrimage to the Catholic shrine of Fatima.	The group is making a pilgrimage to the Catholic shrine of Fatima.	2188562	1471980225482	1471980225559	i	73
4313	45893	The group is making a pilgrimage to the Catholic shrine of Fatima.	The group is making a pilgrimage to the Catholic shrine of Fatima.	2188566	1471980225829	1471980225955	BKSP	8
4313	45893	The group is making a pilgrimage to the Catholic shrine of Fatima.	The group is making a pilgrimage to the Catholic shrine of Fatima.	2188569	1471980225935	1471980226035	r	82
4313	45893	The group is making a pilgrimage to the Catholic shrine of Fatima.	The group is making a pilgrimage to the Catholic shrine of Fatima.	2188572	1471980226175	1471980226339	n	78
4313	45893	The group is making a pilgrimage to the Catholic shrine of Fatima.	The group is making a pilgrimage to the Catholic shrine of Fatima.	2188576	1471980226369	1471980226493	e	69
4313	45893	The group is making a pilgrimage to the Catholic shrine of Fatima.	The group is making a pilgrimage to the Catholic shrine of Fatima.	2188583	1471980227059	1471980227145	BKSP	8
4313	45893	The group is making a pilgrimage to the Catholic shrine of Fatima.	The group is making a pilgrimage to the Catholic shrine of Fatima.	2188587	1471980227215	1471980227262	BKSP	8
4313	45893	The group is making a pilgrimage to the Catholic shrine of Fatima.	The group is making a pilgrimage to the Catholic shrine of Fatima.	2188593	1471980227442	1471980227591	i	73
4313	45893	The group is making a pilgrimage to the Catholic shrine of Fatima.	The group is making a pilgrimage to the Catholic shrine of Fatima.	2188631	1471980227565	1471980227698	n	78
4313	45893	The group is making a pilgrimage to the Catholic shrine of Fatima.	The group is making a pilgrimage to the Catholic shrine of Fatima.	2188633	1471980227768	1471980227852	e	69
4313	45893	The group is making a pilgrimage to the Catholic shrine of Fatima.	The group is making a pilgrimage to the Catholic shrine of Fatima.	2188641	1471980227922	1471980228049	 	32
4313	45893	The group is making a pilgrimage to the Catholic shrine of Fatima.	The group is making a pilgrimage to the Catholic shrine of Fatima.	2188646	1471980228230	1471980228315	o	79
4313	45893	The group is making a pilgrimage to the Catholic shrine of Fatima.	The group is making a pilgrimage to the Catholic shrine of Fatima.	2188652	1471980228385	1471980228465	f	70
4313	45893	The group is making a pilgrimage to the Catholic shrine of Fatima.	The group is making a pilgrimage to the Catholic shrine of Fatima.	2188657	1471980228497	1471980228623	 	32
4313	45893	The group is making a pilgrimage to the Catholic shrine of Fatima.	The group is making a pilgrimage to the Catholic shrine of Fatima.	2188692	1471980228925	1471980229121	SHIFT	16
4313	45893	The group is making a pilgrimage to the Catholic shrine of Fatima.	The group is making a pilgrimage to the Catholic shrine of Fatima.	2188694	1471980229035	1471980229161	F	70
4313	45893	The group is making a pilgrimage to the Catholic shrine of Fatima.	The group is making a pilgrimage to the Catholic shrine of Fatima.	2188696	1471980229311	1471980229433	a	65
4313	45893	The group is making a pilgrimage to the Catholic shrine of Fatima.	The group is making a pilgrimage to the Catholic shrine of Fatima.	2188698	1471980229583	1471980229660	t	84
4313	45893	The group is making a pilgrimage to the Catholic shrine of Fatima.	The group is making a pilgrimage to the Catholic shrine of Fatima.	2188700	1471980229690	1471980229871	i	73
4313	45893	The group is making a pilgrimage to the Catholic shrine of Fatima.	The group is making a pilgrimage to the Catholic shrine of Fatima.	2188834	1471980229846	1471980229976	m	77
4313	45893	The group is making a pilgrimage to the Catholic shrine of Fatima.	The group is making a pilgrimage to the Catholic shrine of Fatima.	2188835	1471980230126	1471980230239	a	65
4313	45893	The group is making a pilgrimage to the Catholic shrine of Fatima.	The group is making a pilgrimage to the Catholic shrine of Fatima.	2188836	1471980230429	1471980230535	.	190
4313	45929	Don't forget the wood.	Don't forget the wood.	2189012	1471980233120	1471980233390	SHIFT	16
4313	45929	Don't forget the wood.	Don't forget the wood.	2189008	1471980233280	1471980233370	C	67
4313	45929	Don't forget the wood.	Don't forget the wood.	2189018	1471980233701	1471980233786	BKSP	8
4313	45929	Don't forget the wood.	Don't forget the wood.	2189024	1471980233936	1471980234109	SHIFT	16
4313	45929	Don't forget the wood.	Don't forget the wood.	2189029	1471980234086	1471980234130	D	68
4313	45929	Don't forget the wood.	Don't forget the wood.	2189034	1471980234311	1471980234443	o	79
4313	45929	Don't forget the wood.	Don't forget the wood.	2189039	1471980234473	1471980234559	n	78
4313	45929	Don't forget the wood.	Don't forget the wood.	2189042	1471980234859	1471980234943	'	192
4313	45929	Don't forget the wood.	Don't forget the wood.	2189060	1471980235015	1471980235061	t	84
4313	45929	Don't forget the wood.	Don't forget the wood.	2189065	1471980235169	1471980235293	 	32
4313	45929	Don't forget the wood.	Don't forget the wood.	2189069	1471980235393	1471980235456	f	70
4313	45929	Don't forget the wood.	Don't forget the wood.	2189073	1471980235466	1471980235569	o	79
4313	45929	Don't forget the wood.	Don't forget the wood.	2189078	1471980235600	1471980235682	r	82
4313	45929	Don't forget the wood.	Don't forget the wood.	2189122	1471980235873	1471980235949	g	71
4313	45929	Don't forget the wood.	Don't forget the wood.	2189126	1471980236139	1471980236270	e	69
4313	45929	Don't forget the wood.	Don't forget the wood.	2189130	1471980236216	1471980236300	t	84
4313	45929	Don't forget the wood.	Don't forget the wood.	2189133	1471980236330	1471980236475	 	32
4313	45929	Don't forget the wood.	Don't forget the wood.	2189161	1471980236450	1471980236537	t	84
4313	45929	Don't forget the wood.	Don't forget the wood.	2189166	1471980236567	1471980236709	h	72
4313	45929	Don't forget the wood.	Don't forget the wood.	2189170	1471980236689	1471980236740	e	69
4313	45929	Don't forget the wood.	Don't forget the wood.	2189175	1471980236810	1471980236900	 	32
4313	45929	Don't forget the wood.	Don't forget the wood.	2189177	1471980236970	1471980237050	w	87
4313	45929	Don't forget the wood.	Don't forget the wood.	2189180	1471980237080	1471980237130	o	79
4313	45929	Don't forget the wood.	Don't forget the wood.	2189317	1471980237202	1471980237283	o	79
4313	45929	Don't forget the wood.	Don't forget the wood.	2189323	1471980237503	1471980237556	d	68
4313	45929	Don't forget the wood.	Don't forget the wood.	2189329	1471980237858	1471980237923	/	190
4313	45929	Don't forget the wood.	Don't forget the wood.	2189335	1471980238713	1471980238768	BKSP	8
4313	45934	We have been working on clay for four weeks.	We have been working on clay for four weeks.	2189455	1471980241296	1471980241446	SHIFT	16
4313	45934	We have been working on clay for four weeks.	We have been working on clay for four weeks.	2189458	1471980241396	1471980241486	W	87
4313	45934	We have been working on clay for four weeks.	We have been working on clay for four weeks.	2189463	1471980241626	1471980241750	e	69
4313	45934	We have been working on clay for four weeks.	We have been working on clay for four weeks.	2189466	1471980241820	1471980241943	 	32
4313	45934	We have been working on clay for four weeks.	We have been working on clay for four weeks.	2189470	1471980242053	1471980242180	h	72
4313	45934	We have been working on clay for four weeks.	We have been working on clay for four weeks.	2189537	1471980242123	1471980242252	a	65
4313	45934	We have been working on clay for four weeks.	We have been working on clay for four weeks.	2189546	1471980242282	1471980242446	v	86
4313	45934	We have been working on clay for four weeks.	We have been working on clay for four weeks.	2189554	1471980242405	1471980242488	e	69
4313	45934	We have been working on clay for four weeks.	We have been working on clay for four weeks.	2189562	1471980242456	1471980242603	 	32
4313	45934	We have been working on clay for four weeks.	We have been working on clay for four weeks.	2189567	1471980242721	1471980242766	b	66
4313	45934	We have been working on clay for four weeks.	We have been working on clay for four weeks.	2189572	1471980243140	1471980243226	e	69
4313	45934	We have been working on clay for four weeks.	We have been working on clay for four weeks.	2189596	1471980243298	1471980243416	e	69
4313	45934	We have been working on clay for four weeks.	We have been working on clay for four weeks.	2189601	1471980243446	1471980243623	n	78
4313	45934	We have been working on clay for four weeks.	We have been working on clay for four weeks.	2189604	1471980243562	1471980243703	 	32
4313	45934	We have been working on clay for four weeks.	We have been working on clay for four weeks.	2189607	1471980243803	1471980243899	w	87
4313	45934	We have been working on clay for four weeks.	We have been working on clay for four weeks.	2189611	1471980243909	1471980244013	o	79
4313	45934	We have been working on clay for four weeks.	We have been working on clay for four weeks.	2189657	1471980244045	1471980244132	r	82
4313	45934	We have been working on clay for four weeks.	We have been working on clay for four weeks.	2189662	1471980244352	1471980244406	k	75
4313	45934	We have been working on clay for four weeks.	We have been working on clay for four weeks.	2189668	1471980244507	1471980244646	i	73
4313	45934	We have been working on clay for four weeks.	We have been working on clay for four weeks.	2189670	1471980244624	1471980244744	n	78
4313	45934	We have been working on clay for four weeks.	We have been working on clay for four weeks.	2189674	1471980244784	1471980244900	g	71
4313	45934	We have been working on clay for four weeks.	We have been working on clay for four weeks.	2189751	1471980244932	1471980245100	 	32
4313	45934	We have been working on clay for four weeks.	We have been working on clay for four weeks.	2189753	1471980245170	1471980245253	i	73
4313	45934	We have been working on clay for four weeks.	We have been working on clay for four weeks.	2189755	1471980245886	1471980245948	BKSP	8
4313	45934	We have been working on clay for four weeks.	We have been working on clay for four weeks.	2189756	1471980246272	1471980246445	o	79
4313	45934	We have been working on clay for four weeks.	We have been working on clay for four weeks.	2189757	1471980246390	1471980246553	n	78
4313	45934	We have been working on clay for four weeks.	We have been working on clay for four weeks.	2189790	1471980246515	1471980246635	 	32
4313	45934	We have been working on clay for four weeks.	We have been working on clay for four weeks.	2189793	1471980246705	1471980246826	c	67
4313	45934	We have been working on clay for four weeks.	We have been working on clay for four weeks.	2189798	1471980246837	1471980246926	l	76
4313	45934	We have been working on clay for four weeks.	We have been working on clay for four weeks.	2189805	1471980247026	1471980247150	a	65
4313	45934	We have been working on clay for four weeks.	We have been working on clay for four weeks.	2189814	1471980247340	1471980247470	y	89
4313	45934	We have been working on clay for four weeks.	We have been working on clay for four weeks.	2189833	1471980247428	1471980247552	 	32
4313	45934	We have been working on clay for four weeks.	We have been working on clay for four weeks.	2189835	1471980247622	1471980247683	t	84
4313	45934	We have been working on clay for four weeks.	We have been working on clay for four weeks.	2189838	1471980247934	1471980248075	BKSP	8
4313	45934	We have been working on clay for four weeks.	We have been working on clay for four weeks.	2189841	1471980248055	1471980248096	f	70
4313	45934	We have been working on clay for four weeks.	We have been working on clay for four weeks.	2189844	1471980248216	1471980248320	o	79
4313	45934	We have been working on clay for four weeks.	We have been working on clay for four weeks.	2189848	1471980248293	1471980248380	r	82
4313	45934	We have been working on clay for four weeks.	We have been working on clay for four weeks.	2189896	1471980248336	1471980248492	 	32
4313	45934	We have been working on clay for four weeks.	We have been working on clay for four weeks.	2189899	1471980248532	1471980248580	t	84
4313	45934	We have been working on clay for four weeks.	We have been working on clay for four weeks.	2189904	1471980249022	1471980249110	BKSP	8
4313	45934	We have been working on clay for four weeks.	We have been working on clay for four weeks.	2189910	1471980249150	1471980249226	f	70
4313	45934	We have been working on clay for four weeks.	We have been working on clay for four weeks.	2189919	1471980249306	1471980249480	o	79
4313	45934	We have been working on clay for four weeks.	We have been working on clay for four weeks.	2189915	1471980249386	1471980249460	r	82
4313	45934	We have been working on clay for four weeks.	We have been working on clay for four weeks.	2189922	1471980249530	1471980249660	u	85
4313	45934	We have been working on clay for four weeks.	We have been working on clay for four weeks.	2189974	1471980249914	1471980249999	BKSP	8
4313	45934	We have been working on clay for four weeks.	We have been working on clay for four weeks.	2189975	1471980250079	1471980250156	BKSP	8
4313	45934	We have been working on clay for four weeks.	We have been working on clay for four weeks.	2189977	1471980250307	1471980250426	u	85
4313	45934	We have been working on clay for four weeks.	We have been working on clay for four weeks.	2189978	1471980250456	1471980250540	r	82
4313	45934	We have been working on clay for four weeks.	We have been working on clay for four weeks.	2189979	1471980250550	1471980250622	 	32
4313	45934	We have been working on clay for four weeks.	We have been working on clay for four weeks.	2189980	1471980250732	1471980250865	w	87
4313	45934	We have been working on clay for four weeks.	We have been working on clay for four weeks.	2189982	1471980250965	1471980251053	e	69
4313	45934	We have been working on clay for four weeks.	We have been working on clay for four weeks.	2190058	1471980251125	1471980251213	e	69
4313	45934	We have been working on clay for four weeks.	We have been working on clay for four weeks.	2190062	1471980251283	1471980251400	k	75
4313	45934	We have been working on clay for four weeks.	We have been working on clay for four weeks.	2190065	1471980251740	1471980251817	s	83
4313	45934	We have been working on clay for four weeks.	We have been working on clay for four weeks.	2190068	1471980251937	1471980252015	.	190
4313	45954	I was going to call you but I hate to bother your holiday.	I was going to call you but I hate to bother your holiday.	2190234	1471980254346	1471980254817	SHIFT	16
4313	45954	I was going to call you but I hate to bother your holiday.	I was going to call you but I hate to bother your holiday.	2190230	1471980254694	1471980254767	I	73
4313	45954	I was going to call you but I hate to bother your holiday.	I was going to call you but I hate to bother your holiday.	2190237	1471980254917	1471980255034	 	32
4313	45954	I was going to call you but I hate to bother your holiday.	I was going to call you but I hate to bother your holiday.	2190240	1471980255304	1471980255440	w	87
4313	45954	I was going to call you but I hate to bother your holiday.	I was going to call you but I hate to bother your holiday.	2190243	1471980255417	1471980255581	a	65
4313	45954	I was going to call you but I hate to bother your holiday.	I was going to call you but I hate to bother your holiday.	2190274	1471980255540	1471980255663	s	83
4313	45954	I was going to call you but I hate to bother your holiday.	I was going to call you but I hate to bother your holiday.	2190281	1471980255673	1471980255774	 	32
4313	45954	I was going to call you but I hate to bother your holiday.	I was going to call you but I hate to bother your holiday.	2190288	1471980255844	1471980255934	g	71
4313	45954	I was going to call you but I hate to bother your holiday.	I was going to call you but I hate to bother your holiday.	2190294	1471980255954	1471980256087	o	79
4313	45954	I was going to call you but I hate to bother your holiday.	I was going to call you but I hate to bother your holiday.	2190296	1471980256047	1471980256247	i	73
4313	45954	I was going to call you but I hate to bother your holiday.	I was going to call you but I hate to bother your holiday.	2190326	1471980256237	1471980256356	n	78
4313	45954	I was going to call you but I hate to bother your holiday.	I was going to call you but I hate to bother your holiday.	2190329	1471980256396	1471980256477	g	71
4313	45954	I was going to call you but I hate to bother your holiday.	I was going to call you but I hate to bother your holiday.	2190334	1471980256487	1471980256617	 	32
4313	45954	I was going to call you but I hate to bother your holiday.	I was going to call you but I hate to bother your holiday.	2190342	1471980256837	1471980256919	t	84
4313	45954	I was going to call you but I hate to bother your holiday.	I was going to call you but I hate to bother your holiday.	2190351	1471980256929	1471980257039	o	79
4313	45954	I was going to call you but I hate to bother your holiday.	I was going to call you but I hate to bother your holiday.	2190390	1471980256991	1471980257124	 	32
4313	45954	I was going to call you but I hate to bother your holiday.	I was going to call you but I hate to bother your holiday.	2190391	1471980257384	1471980257507	c	67
4313	45954	I was going to call you but I hate to bother your holiday.	I was going to call you but I hate to bother your holiday.	2190394	1471980257451	1471980257587	a	65
4313	45954	I was going to call you but I hate to bother your holiday.	I was going to call you but I hate to bother your holiday.	2190397	1471980257597	1471980257667	l	76
4313	45954	I was going to call you but I hate to bother your holiday.	I was going to call you but I hate to bother your holiday.	2190403	1471980257737	1471980257834	l	76
4313	45954	I was going to call you but I hate to bother your holiday.	I was going to call you but I hate to bother your holiday.	2190446	1471980257771	1471980257916	 	32
4313	45954	I was going to call you but I hate to bother your holiday.	I was going to call you but I hate to bother your holiday.	2190452	1471980258089	1471980258171	y	89
4313	45954	I was going to call you but I hate to bother your holiday.	I was going to call you but I hate to bother your holiday.	2190456	1471980258135	1471980258336	o	79
4313	45954	I was going to call you but I hate to bother your holiday.	I was going to call you but I hate to bother your holiday.	2190461	1471980258291	1471980258407	u	85
4313	45954	I was going to call you but I hate to bother your holiday.	I was going to call you but I hate to bother your holiday.	2190465	1471980258346	1471980258497	 	32
4313	45954	I was going to call you but I hate to bother your holiday.	I was going to call you but I hate to bother your holiday.	2190469	1471980258597	1471980258687	b	66
4313	45954	I was going to call you but I hate to bother your holiday.	I was going to call you but I hate to bother your holiday.	2190527	1471980258729	1471980258851	u	85
4313	45954	I was going to call you but I hate to bother your holiday.	I was going to call you but I hate to bother your holiday.	2190529	1471980258922	1471980259011	t	84
4313	45954	I was going to call you but I hate to bother your holiday.	I was going to call you but I hate to bother your holiday.	2190532	1471980259031	1471980259157	 	32
4313	45954	I was going to call you but I hate to bother your holiday.	I was going to call you but I hate to bother your holiday.	2190534	1471980259227	1471980259281	i	73
4313	45954	I was going to call you but I hate to bother your holiday.	I was going to call you but I hate to bother your holiday.	2190536	1471980259611	1471980259664	BKSP	8
4313	45954	I was going to call you but I hate to bother your holiday.	I was going to call you but I hate to bother your holiday.	2190539	1471980259694	1471980259898	SHIFT	16
4313	45954	I was going to call you but I hate to bother your holiday.	I was going to call you but I hate to bother your holiday.	2190634	1471980259844	1471980259930	I	73
4313	45954	I was going to call you but I hate to bother your holiday.	I was going to call you but I hate to bother your holiday.	2190636	1471980259940	1471980260051	 	32
4313	45954	I was going to call you but I hate to bother your holiday.	I was going to call you but I hate to bother your holiday.	2190640	1471980260384	1471980260551	a	65
4313	45954	I was going to call you but I hate to bother your holiday.	I was going to call you but I hate to bother your holiday.	2190645	1471980260851	1471980260934	BKSP	8
4313	45954	I was going to call you but I hate to bother your holiday.	I was going to call you but I hate to bother your holiday.	2190651	1471980261075	1471980261216	h	72
4313	45954	I was going to call you but I hate to bother your holiday.	I was going to call you but I hate to bother your holiday.	2190655	1471980261191	1471980261313	a	65
4313	45954	I was going to call you but I hate to bother your holiday.	I was going to call you but I hate to bother your holiday.	2190659	1471980261353	1471980261514	t	84
4313	45954	I was going to call you but I hate to bother your holiday.	I was going to call you but I hate to bother your holiday.	2190705	1471980261463	1471980261596	e	69
4313	45954	I was going to call you but I hate to bother your holiday.	I was going to call you but I hate to bother your holiday.	2190707	1471980261626	1471980261744	 	32
4313	45954	I was going to call you but I hate to bother your holiday.	I was going to call you but I hate to bother your holiday.	2190711	1471980262119	1471980262204	t	84
4313	45954	I was going to call you but I hate to bother your holiday.	I was going to call you but I hate to bother your holiday.	2190714	1471980262204	1471980262337	o	79
4313	45954	I was going to call you but I hate to bother your holiday.	I was going to call you but I hate to bother your holiday.	2190718	1471980262294	1471980262427	 	32
4313	45954	I was going to call you but I hate to bother your holiday.	I was going to call you but I hate to bother your holiday.	2190721	1471980262497	1471980262577	b	66
4313	45954	I was going to call you but I hate to bother your holiday.	I was going to call you but I hate to bother your holiday.	2190756	1471980263030	1471980263121	o	79
4313	45954	I was going to call you but I hate to bother your holiday.	I was going to call you but I hate to bother your holiday.	2190759	1471980263151	1471980263273	t	84
4313	45954	I was going to call you but I hate to bother your holiday.	I was going to call you but I hate to bother your holiday.	2190760	1471980263343	1471980263477	e	69
4313	45954	I was going to call you but I hate to bother your holiday.	I was going to call you but I hate to bother your holiday.	2190764	1471980263477	1471980263557	r	82
4313	45954	I was going to call you but I hate to bother your holiday.	I was going to call you but I hate to bother your holiday.	2190861	1471980263514	1471980263587	h	72
4313	45954	I was going to call you but I hate to bother your holiday.	I was going to call you but I hate to bother your holiday.	2190866	1471980263727	1471980263851	 	32
4313	45954	I was going to call you but I hate to bother your holiday.	I was going to call you but I hate to bother your holiday.	2190869	1471980264031	1471980264081	BKSP	8
4313	45954	I was going to call you but I hate to bother your holiday.	I was going to call you but I hate to bother your holiday.	2190875	1471980264171	1471980264254	BKSP	8
4313	45954	I was going to call you but I hate to bother your holiday.	I was going to call you but I hate to bother your holiday.	2190878	1471980264324	1471980264371	BKSP	8
4313	45954	I was going to call you but I hate to bother your holiday.	I was going to call you but I hate to bother your holiday.	2190881	1471980264441	1471980264521	BKSP	8
4313	45954	I was going to call you but I hate to bother your holiday.	I was going to call you but I hate to bother your holiday.	2190885	1471980264701	1471980264808	h	72
4313	45954	I was going to call you but I hate to bother your holiday.	I was going to call you but I hate to bother your holiday.	2190890	1471980264784	1471980264904	e	69
4313	45954	I was going to call you but I hate to bother your holiday.	I was going to call you but I hate to bother your holiday.	2190894	1471980264861	1471980264987	r	82
4313	45954	I was going to call you but I hate to bother your holiday.	I was going to call you but I hate to bother your holiday.	2190915	1471980264944	1471980265068	 	32
4313	45954	I was going to call you but I hate to bother your holiday.	I was going to call you but I hate to bother your holiday.	2190917	1471980265248	1471980265337	y	89
4313	45954	I was going to call you but I hate to bother your holiday.	I was going to call you but I hate to bother your holiday.	2190921	1471980265357	1471980265468	o	79
4313	45954	I was going to call you but I hate to bother your holiday.	I was going to call you but I hate to bother your holiday.	2190925	1471980265444	1471980265574	u	85
4313	45954	I was going to call you but I hate to bother your holiday.	I was going to call you but I hate to bother your holiday.	2190929	1471980265604	1471980265724	r	82
4313	45954	I was going to call you but I hate to bother your holiday.	I was going to call you but I hate to bother your holiday.	2191034	1471980265677	1471980265816	 	32
4313	45954	I was going to call you but I hate to bother your holiday.	I was going to call you but I hate to bother your holiday.	2191038	1471980265946	1471980266038	g	71
4313	45954	I was going to call you but I hate to bother your holiday.	I was going to call you but I hate to bother your holiday.	2191043	1471980266048	1471980266117	o	79
4313	45954	I was going to call you but I hate to bother your holiday.	I was going to call you but I hate to bother your holiday.	2191048	1471980266229	1471980266391	l	76
4313	45954	I was going to call you but I hate to bother your holiday.	I was going to call you but I hate to bother your holiday.	2191055	1471980266641	1471980266727	BKSP	8
4313	45954	I was going to call you but I hate to bother your holiday.	I was going to call you but I hate to bother your holiday.	2191061	1471980266797	1471980266854	BKSP	8
4313	45954	I was going to call you but I hate to bother your holiday.	I was going to call you but I hate to bother your holiday.	2191070	1471980266874	1471980267013	BKSP	8
4313	45954	I was going to call you but I hate to bother your holiday.	I was going to call you but I hate to bother your holiday.	2191076	1471980267184	1471980267317	h	72
4313	45954	I was going to call you but I hate to bother your holiday.	I was going to call you but I hate to bother your holiday.	2191081	1471980267764	1471980267884	o	79
4313	45954	I was going to call you but I hate to bother your holiday.	I was going to call you but I hate to bother your holiday.	2191096	1471980268000	1471980268157	l	76
4313	45954	I was going to call you but I hate to bother your holiday.	I was going to call you but I hate to bother your holiday.	2191099	1471980268107	1471980268237	i	73
4313	45954	I was going to call you but I hate to bother your holiday.	I was going to call you but I hate to bother your holiday.	2191103	1471980268427	1471980268521	d	68
4313	45954	I was going to call you but I hate to bother your holiday.	I was going to call you but I hate to bother your holiday.	2191107	1471980268551	1471980268707	a	65
4313	45954	I was going to call you but I hate to bother your holiday.	I was going to call you but I hate to bother your holiday.	2191110	1471980268747	1471980268837	y	89
4313	45954	I was going to call you but I hate to bother your holiday.	I was going to call you but I hate to bother your holiday.	2191168	1471980268983	1471980269104	.	190
4313	45978	The charges also cover his relations with advertising companies.	The charges also cover his relations with advertising companies.	2191375	1471980271696	1471980271826	SHIFT	16
4313	45978	The charges also cover his relations with advertising companies.	The charges also cover his relations with advertising companies.	2191378	1471980271816	1471980271904	T	84
4313	45978	The charges also cover his relations with advertising companies.	The charges also cover his relations with advertising companies.	2191383	1471980272014	1471980272064	h	72
4313	45978	The charges also cover his relations with advertising companies.	The charges also cover his relations with advertising companies.	2191388	1471980272094	1471980272217	e	69
4313	45978	The charges also cover his relations with advertising companies.	The charges also cover his relations with advertising companies.	2191394	1471980272227	1471980272361	 	32
4313	45978	The charges also cover his relations with advertising companies.	The charges also cover his relations with advertising companies.	2191398	1471980272742	1471980272823	c	67
4313	45978	The charges also cover his relations with advertising companies.	The charges also cover his relations with advertising companies.	2191440	1471980272865	1471980272954	h	72
4313	45978	The charges also cover his relations with advertising companies.	The charges also cover his relations with advertising companies.	2191441	1471980272944	1471980273061	a	65
4313	45978	The charges also cover his relations with advertising companies.	The charges also cover his relations with advertising companies.	2191442	1471980273101	1471980273177	r	82
4313	45978	The charges also cover his relations with advertising companies.	The charges also cover his relations with advertising companies.	2191443	1471980273557	1471980273647	g	71
4313	45978	The charges also cover his relations with advertising companies.	The charges also cover his relations with advertising companies.	2191445	1471980273747	1471980273878	e	69
4313	45978	The charges also cover his relations with advertising companies.	The charges also cover his relations with advertising companies.	2191535	1471980273827	1471980273950	r	82
4313	45978	The charges also cover his relations with advertising companies.	The charges also cover his relations with advertising companies.	2191538	1471980274250	1471980274367	BKSP	8
4313	45978	The charges also cover his relations with advertising companies.	The charges also cover his relations with advertising companies.	2191544	1471980274407	1471980274487	s	83
4313	45978	The charges also cover his relations with advertising companies.	The charges also cover his relations with advertising companies.	2191548	1471980274557	1471980274684	 	32
4313	45978	The charges also cover his relations with advertising companies.	The charges also cover his relations with advertising companies.	2191552	1471980274794	1471980274924	a	65
4313	45978	The charges also cover his relations with advertising companies.	The charges also cover his relations with advertising companies.	2191558	1471980274924	1471980275001	l	76
4313	45978	The charges also cover his relations with advertising companies.	The charges also cover his relations with advertising companies.	2191564	1471980275101	1471980275184	s	83
4313	45978	The charges also cover his relations with advertising companies.	The charges also cover his relations with advertising companies.	2191611	1471980275216	1471980275344	o	79
4313	45978	The charges also cover his relations with advertising companies.	The charges also cover his relations with advertising companies.	2191613	1471980275374	1471980275534	 	32
4313	45978	The charges also cover his relations with advertising companies.	The charges also cover his relations with advertising companies.	2191616	1471980275726	1471980275891	c	67
4313	45978	The charges also cover his relations with advertising companies.	The charges also cover his relations with advertising companies.	2191620	1471980275901	1471980276003	o	79
4313	45978	The charges also cover his relations with advertising companies.	The charges also cover his relations with advertising companies.	2191624	1471980276304	1471980276357	b	66
4313	45978	The charges also cover his relations with advertising companies.	The charges also cover his relations with advertising companies.	2191726	1471980276649	1471980276767	e	69
4313	45978	The charges also cover his relations with advertising companies.	The charges also cover his relations with advertising companies.	2191730	1471980276957	1471980277007	BKSP	8
4313	45978	The charges also cover his relations with advertising companies.	The charges also cover his relations with advertising companies.	2191734	1471980277077	1471980277212	BKSP	8
4313	45978	The charges also cover his relations with advertising companies.	The charges also cover his relations with advertising companies.	2191739	1471980277191	1471980277320	v	86
4313	45978	The charges also cover his relations with advertising companies.	The charges also cover his relations with advertising companies.	2191743	1471980277266	1471980277501	e	69
4313	45978	The charges also cover his relations with advertising companies.	The charges also cover his relations with advertising companies.	2191748	1471980277511	1471980277557	r	82
4313	45978	The charges also cover his relations with advertising companies.	The charges also cover his relations with advertising companies.	2191752	1471980277731	1471980277851	 	32
4313	45978	The charges also cover his relations with advertising companies.	The charges also cover his relations with advertising companies.	2191790	1471980277922	1471980278051	h	72
4313	45978	The charges also cover his relations with advertising companies.	The charges also cover his relations with advertising companies.	2191794	1471980278061	1471980278141	i	73
4313	45978	The charges also cover his relations with advertising companies.	The charges also cover his relations with advertising companies.	2191799	1471980278120	1471980278204	s	83
4313	45978	The charges also cover his relations with advertising companies.	The charges also cover his relations with advertising companies.	2191801	1471980278244	1471980278374	 	32
4313	45978	The charges also cover his relations with advertising companies.	The charges also cover his relations with advertising companies.	2191806	1471980278514	1471980278637	r	82
4313	45978	The charges also cover his relations with advertising companies.	The charges also cover his relations with advertising companies.	2191821	1471980278594	1471980278717	e	69
4313	45978	The charges also cover his relations with advertising companies.	The charges also cover his relations with advertising companies.	2191823	1471980278727	1471980278841	l	76
4313	45978	The charges also cover his relations with advertising companies.	The charges also cover his relations with advertising companies.	2191825	1471980278821	1471980278916	a	65
4313	45978	The charges also cover his relations with advertising companies.	The charges also cover his relations with advertising companies.	2191830	1471980278986	1471980279067	t	84
4313	45978	The charges also cover his relations with advertising companies.	The charges also cover his relations with advertising companies.	2191836	1471980279097	1471980279270	i	73
4313	45978	The charges also cover his relations with advertising companies.	The charges also cover his relations with advertising companies.	2191875	1471980279217	1471980279347	o	79
4313	45978	The charges also cover his relations with advertising companies.	The charges also cover his relations with advertising companies.	2191880	1471980279293	1471980279387	n	78
4313	45978	The charges also cover his relations with advertising companies.	The charges also cover his relations with advertising companies.	2191888	1471980279457	1471980279537	s	83
4313	45978	The charges also cover his relations with advertising companies.	The charges also cover his relations with advertising companies.	2191894	1471980279617	1471980279779	 	32
4313	45978	The charges also cover his relations with advertising companies.	The charges also cover his relations with advertising companies.	2191898	1471980279839	1471980279924	w	87
4313	45978	The charges also cover his relations with advertising companies.	The charges also cover his relations with advertising companies.	2191903	1471980279954	1471980280043	i	73
4313	45978	The charges also cover his relations with advertising companies.	The charges also cover his relations with advertising companies.	2191978	1471980280226	1471980280311	t	84
4313	45978	The charges also cover his relations with advertising companies.	The charges also cover his relations with advertising companies.	2191979	1471980280341	1471980280470	h	72
4313	45978	The charges also cover his relations with advertising companies.	The charges also cover his relations with advertising companies.	2191980	1471980280417	1471980280590	 	32
4313	45978	The charges also cover his relations with advertising companies.	The charges also cover his relations with advertising companies.	2191982	1471980280770	1471980280892	a	65
4313	45978	The charges also cover his relations with advertising companies.	The charges also cover his relations with advertising companies.	2191984	1471980281687	1471980281771	d	68
4313	45978	The charges also cover his relations with advertising companies.	The charges also cover his relations with advertising companies.	2192027	1471980281913	1471980281994	v	86
4313	45978	The charges also cover his relations with advertising companies.	The charges also cover his relations with advertising companies.	2192030	1471980282154	1471980282281	e	69
4313	45978	The charges also cover his relations with advertising companies.	The charges also cover his relations with advertising companies.	2192034	1471980282238	1471980282361	r	82
4313	45978	The charges also cover his relations with advertising companies.	The charges also cover his relations with advertising companies.	2192038	1471980282539	1471980282673	t	84
4313	45978	The charges also cover his relations with advertising companies.	The charges also cover his relations with advertising companies.	2192045	1471980282773	1471980282861	i	73
4313	45978	The charges also cover his relations with advertising companies.	The charges also cover his relations with advertising companies.	2192116	1471980283233	1471980283321	s	83
4313	45978	The charges also cover his relations with advertising companies.	The charges also cover his relations with advertising companies.	2192119	1471980283391	1471980283477	i	73
4313	45978	The charges also cover his relations with advertising companies.	The charges also cover his relations with advertising companies.	2192120	1471980283627	1471980283716	n	78
4313	45978	The charges also cover his relations with advertising companies.	The charges also cover his relations with advertising companies.	2192122	1471980283827	1471980283901	g	71
4313	45978	The charges also cover his relations with advertising companies.	The charges also cover his relations with advertising companies.	2192123	1471980283941	1471980284063	 	32
4313	45978	The charges also cover his relations with advertising companies.	The charges also cover his relations with advertising companies.	2192156	1471980284225	1471980284309	c	67
4313	45978	The charges also cover his relations with advertising companies.	The charges also cover his relations with advertising companies.	2192162	1471980284339	1471980284454	o	79
4313	45978	The charges also cover his relations with advertising companies.	The charges also cover his relations with advertising companies.	2192167	1471980284406	1471980284614	m	77
4313	45978	The charges also cover his relations with advertising companies.	The charges also cover his relations with advertising companies.	2192174	1471980284574	1471980284694	p	80
4313	45978	The charges also cover his relations with advertising companies.	The charges also cover his relations with advertising companies.	2192184	1471980284724	1471980284804	a	65
4313	45978	The charges also cover his relations with advertising companies.	The charges also cover his relations with advertising companies.	2192260	1471980285216	1471980285305	i	73
4313	45978	The charges also cover his relations with advertising companies.	The charges also cover his relations with advertising companies.	2192264	1471980285605	1471980285694	BKSP	8
4313	45978	The charges also cover his relations with advertising companies.	The charges also cover his relations with advertising companies.	2192269	1471980285814	1471980285931	n	78
4313	45978	The charges also cover his relations with advertising companies.	The charges also cover his relations with advertising companies.	2192275	1471980285884	1471980286011	i	73
4313	45978	The charges also cover his relations with advertising companies.	The charges also cover his relations with advertising companies.	2192281	1471980286081	1471980286250	e	69
4313	45978	The charges also cover his relations with advertising companies.	The charges also cover his relations with advertising companies.	2192343	1471980286240	1471980286321	s	83
4313	45978	The charges also cover his relations with advertising companies.	The charges also cover his relations with advertising companies.	2192348	1471980286391	1471980286477	.	190
4313	46004	As for your second question, bench Mike Anderson.	As for your second question, bench Mike Anderson.	2192553	1471980288811	1471980288972	SHIFT	16
4313	46004	As for your second question, bench Mike Anderson.	As for your second question, bench Mike Anderson.	2192556	1471980288921	1471980289007	A	65
4313	46004	As for your second question, bench Mike Anderson.	As for your second question, bench Mike Anderson.	2192563	1471980289187	1471980289277	s	83
4313	46004	As for your second question, bench Mike Anderson.	As for your second question, bench Mike Anderson.	2192570	1471980289407	1471980289517	 	32
4313	46004	As for your second question, bench Mike Anderson.	As for your second question, bench Mike Anderson.	2192577	1471980289597	1471980289683	f	70
4313	46004	As for your second question, bench Mike Anderson.	As for your second question, bench Mike Anderson.	2192584	1471980289693	1471980289757	o	79
4313	46004	As for your second question, bench Mike Anderson.	As for your second question, bench Mike Anderson.	2192594	1471980289799	1471980289893	r	82
4313	46004	As for your second question, bench Mike Anderson.	As for your second question, bench Mike Anderson.	2192596	1471980289903	1471980289963	 	32
4313	46004	As for your second question, bench Mike Anderson.	As for your second question, bench Mike Anderson.	2192599	1471980290073	1471980290200	y	89
4313	46004	As for your second question, bench Mike Anderson.	As for your second question, bench Mike Anderson.	2192601	1471980290210	1471980290323	o	79
4313	46004	As for your second question, bench Mike Anderson.	As for your second question, bench Mike Anderson.	2192669	1471980290303	1471980290446	u	85
4313	46004	As for your second question, bench Mike Anderson.	As for your second question, bench Mike Anderson.	2192672	1471980290423	1471980290584	r	82
4313	46004	As for your second question, bench Mike Anderson.	As for your second question, bench Mike Anderson.	2192675	1471980290594	1471980290817	 	32
4313	46004	As for your second question, bench Mike Anderson.	As for your second question, bench Mike Anderson.	2192676	1471980290967	1471980291051	s	83
4313	46004	As for your second question, bench Mike Anderson.	As for your second question, bench Mike Anderson.	2192680	1471980291121	1471980291204	e	69
4313	46004	As for your second question, bench Mike Anderson.	As for your second question, bench Mike Anderson.	2192682	1471980291385	1471980291477	c	67
4313	46004	As for your second question, bench Mike Anderson.	As for your second question, bench Mike Anderson.	2192729	1471980291579	1471980291711	o	79
4313	46004	As for your second question, bench Mike Anderson.	As for your second question, bench Mike Anderson.	2192732	1471980291701	1471980291823	n	78
4313	46004	As for your second question, bench Mike Anderson.	As for your second question, bench Mike Anderson.	2192734	1471980292007	1471980292097	d	68
4313	46004	As for your second question, bench Mike Anderson.	As for your second question, bench Mike Anderson.	2192737	1471980292117	1471980292211	 	32
4313	46004	As for your second question, bench Mike Anderson.	As for your second question, bench Mike Anderson.	2192742	1471980292431	1471980292561	w	87
4313	46004	As for your second question, bench Mike Anderson.	As for your second question, bench Mike Anderson.	2192840	1471980292812	1471980292915	BKSP	8
4313	46004	As for your second question, bench Mike Anderson.	As for your second question, bench Mike Anderson.	2192843	1471980292894	1471980292983	q	81
4313	46004	As for your second question, bench Mike Anderson.	As for your second question, bench Mike Anderson.	2192846	1471980293083	1471980293166	u	85
4313	46004	As for your second question, bench Mike Anderson.	As for your second question, bench Mike Anderson.	2192850	1471980293276	1471980293361	e	69
4313	46004	As for your second question, bench Mike Anderson.	As for your second question, bench Mike Anderson.	2192853	1471980293702	1471980293817	s	83
4313	46004	As for your second question, bench Mike Anderson.	As for your second question, bench Mike Anderson.	2192857	1471980294047	1471980294137	t	84
4313	46004	As for your second question, bench Mike Anderson.	As for your second question, bench Mike Anderson.	2192951	1471980294279	1471980294441	o	79
4313	46004	As for your second question, bench Mike Anderson.	As for your second question, bench Mike Anderson.	2192954	1471980294391	1471980294501	n	78
4313	46004	As for your second question, bench Mike Anderson.	As for your second question, bench Mike Anderson.	2192958	1471980294791	1471980294841	BKSP	8
4313	46004	As for your second question, bench Mike Anderson.	As for your second question, bench Mike Anderson.	2192962	1471980294911	1471980294997	BKSP	8
4313	46004	As for your second question, bench Mike Anderson.	As for your second question, bench Mike Anderson.	2192966	1471980295177	1471980295338	i	73
4313	46004	As for your second question, bench Mike Anderson.	As for your second question, bench Mike Anderson.	2192970	1471980295294	1471980295407	o	79
4313	46004	As for your second question, bench Mike Anderson.	As for your second question, bench Mike Anderson.	2193057	1471980295383	1471980295541	n	78
4313	46004	As for your second question, bench Mike Anderson.	As for your second question, bench Mike Anderson.	2193062	1471980295801	1471980295964	,	188
4313	46004	As for your second question, bench Mike Anderson.	As for your second question, bench Mike Anderson.	2193066	1471980295914	1471980296084	 	32
4313	46004	As for your second question, bench Mike Anderson.	As for your second question, bench Mike Anderson.	2193073	1471980296274	1471980296351	b	66
4313	46004	As for your second question, bench Mike Anderson.	As for your second question, bench Mike Anderson.	2193077	1471980296653	1471980296744	e	69
4313	46004	As for your second question, bench Mike Anderson.	As for your second question, bench Mike Anderson.	2193082	1471980296774	1471980296856	n	78
4313	46004	As for your second question, bench Mike Anderson.	As for your second question, bench Mike Anderson.	2193147	1471980297047	1471980297164	c	67
4313	46004	As for your second question, bench Mike Anderson.	As for your second question, bench Mike Anderson.	2193150	1471980297284	1471980297437	h	72
4313	46004	As for your second question, bench Mike Anderson.	As for your second question, bench Mike Anderson.	2193154	1471980297391	1471980297557	 	32
4313	46004	As for your second question, bench Mike Anderson.	As for your second question, bench Mike Anderson.	2193160	1471980297737	1471980297903	SHIFT	16
4313	46004	As for your second question, bench Mike Anderson.	As for your second question, bench Mike Anderson.	2193165	1471980297857	1471980297983	M	77
4313	46004	As for your second question, bench Mike Anderson.	As for your second question, bench Mike Anderson.	2193169	1471980298093	1471980298206	i	73
4313	46004	As for your second question, bench Mike Anderson.	As for your second question, bench Mike Anderson.	2193228	1471980298387	1471980298477	k	75
4313	46004	As for your second question, bench Mike Anderson.	As for your second question, bench Mike Anderson.	2193230	1471980298547	1471980298639	e	69
4313	46004	As for your second question, bench Mike Anderson.	As for your second question, bench Mike Anderson.	2193235	1471980298669	1471980298744	 	32
4313	46004	As for your second question, bench Mike Anderson.	As for your second question, bench Mike Anderson.	2193242	1471980298864	1471980298984	SHIFT	16
4313	46004	As for your second question, bench Mike Anderson.	As for your second question, bench Mike Anderson.	2193247	1471980298974	1471980299071	A	65
4313	46004	As for your second question, bench Mike Anderson.	As for your second question, bench Mike Anderson.	2193252	1471980299142	1471980299256	n	78
4313	46004	As for your second question, bench Mike Anderson.	As for your second question, bench Mike Anderson.	2193319	1471980299704	1471980299790	d	68
4313	46004	As for your second question, bench Mike Anderson.	As for your second question, bench Mike Anderson.	2193325	1471980299940	1471980300064	e	69
4313	46004	As for your second question, bench Mike Anderson.	As for your second question, bench Mike Anderson.	2193334	1471980300011	1471980300134	r	82
4313	46004	As for your second question, bench Mike Anderson.	As for your second question, bench Mike Anderson.	2193340	1471980300294	1471980300415	s	83
4313	46004	As for your second question, bench Mike Anderson.	As for your second question, bench Mike Anderson.	2193412	1471980300367	1471980300505	o	79
4313	46004	As for your second question, bench Mike Anderson.	As for your second question, bench Mike Anderson.	2193416	1471980300477	1471980300561	n	78
4313	46004	As for your second question, bench Mike Anderson.	As for your second question, bench Mike Anderson.	2193420	1471980300912	1471980301010	.	190
4313	46028	Keep him in mind as a No.	Keep him in mind as a No.	2193622	1471980303558	1471980303728	SHIFT	16
4313	46028	Keep him in mind as a No.	Keep him in mind as a No.	2193625	1471980303678	1471980303757	K	75
4313	46028	Keep him in mind as a No.	Keep him in mind as a No.	2193628	1471980304107	1471980304223	e	69
4313	46028	Keep him in mind as a No.	Keep him in mind as a No.	2193629	1471980304333	1471980304416	e	69
4313	46028	Keep him in mind as a No.	Keep him in mind as a No.	2193631	1471980304526	1471980304691	p	80
4313	46028	Keep him in mind as a No.	Keep him in mind as a No.	2193634	1471980304781	1471980304947	 	32
4313	46028	Keep him in mind as a No.	Keep him in mind as a No.	2193667	1471980305019	1471980305131	h	72
4313	46028	Keep him in mind as a No.	Keep him in mind as a No.	2193670	1471980305084	1471980305287	i	73
4313	46028	Keep him in mind as a No.	Keep him in mind as a No.	2193678	1471980305251	1471980305404	m	77
4313	46028	Keep him in mind as a No.	Keep him in mind as a No.	2193680	1471980305357	1471980305484	 	32
4313	46028	Keep him in mind as a No.	Keep him in mind as a No.	2193686	1471980305514	1471980305612	i	73
4313	46028	Keep him in mind as a No.	Keep him in mind as a No.	2193737	1471980305590	1471980305756	n	78
4313	46028	Keep him in mind as a No.	Keep him in mind as a No.	2193738	1471980305707	1471980305840	 	32
4313	46028	Keep him in mind as a No.	Keep him in mind as a No.	2193740	1471980305940	1471980306033	m	77
4313	46028	Keep him in mind as a No.	Keep him in mind as a No.	2193742	1471980306033	1471980306146	i	73
4313	46028	Keep him in mind as a No.	Keep him in mind as a No.	2193744	1471980306176	1471980306261	n	78
4313	46028	Keep him in mind as a No.	Keep him in mind as a No.	2193750	1471980306602	1471980306687	d	68
4313	46028	Keep him in mind as a No.	Keep him in mind as a No.	2193838	1471980306759	1471980306877	 	32
4313	46028	Keep him in mind as a No.	Keep him in mind as a No.	2193842	1471980307097	1471980307303	a	65
4313	46028	Keep him in mind as a No.	Keep him in mind as a No.	2193845	1471980307556	1471980307680	s	83
4313	46028	Keep him in mind as a No.	Keep him in mind as a No.	2193849	1471980307750	1471980307867	 	32
4313	46028	Keep him in mind as a No.	Keep him in mind as a No.	2193852	1471980307907	1471980308003	a	65
4313	46028	Keep him in mind as a No.	Keep him in mind as a No.	2193969	1471980308013	1471980308155	 	32
4313	46028	Keep him in mind as a No.	Keep him in mind as a No.	2193972	1471980308375	1471980308527	SHIFT	16
4313	46028	Keep him in mind as a No.	Keep him in mind as a No.	2193977	1471980308445	1471980308567	N	78
4313	46028	Keep him in mind as a No.	Keep him in mind as a No.	2193982	1471980308637	1471980308737	o	79
4313	46028	Keep him in mind as a No.	Keep him in mind as a No.	2193988	1471980308957	1471980309043	.	190
4313	46037	I'll call you in the morning.	I'll call you in the morning.	2194211	1471980311331	1471980311490	SHIFT	16
4313	46037	I'll call you in the morning.	I'll call you in the morning.	2194214	1471980311441	1471980311533	I	73
4313	46037	I'll call you in the morning.	I'll call you in the morning.	2194218	1471980311794	1471980311917	'	192
4313	46037	I'll call you in the morning.	I'll call you in the morning.	2194223	1471980312480	1471980312531	l	76
4313	46037	I'll call you in the morning.	I'll call you in the morning.	2194224	1471980312641	1471980312716	l	76
4313	46037	I'll call you in the morning.	I'll call you in the morning.	2194225	1471980312838	1471980312993	 	32
4313	46037	I'll call you in the morning.	I'll call you in the morning.	2194246	1471980313215	1471980313306	c	67
4313	46037	I'll call you in the morning.	I'll call you in the morning.	2194249	1471980313376	1471980313486	a	65
4313	46037	I'll call you in the morning.	I'll call you in the morning.	2194252	1471980313526	1471980313571	l	76
4313	46037	I'll call you in the morning.	I'll call you in the morning.	2194255	1471980313643	1471980313768	l	76
4313	46037	I'll call you in the morning.	I'll call you in the morning.	2194258	1471980313778	1471980313886	 	32
4313	46037	I'll call you in the morning.	I'll call you in the morning.	2194299	1471980313989	1471980314043	y	89
4313	46037	I'll call you in the morning.	I'll call you in the morning.	2194306	1471980314053	1471980314239	o	79
4313	46037	I'll call you in the morning.	I'll call you in the morning.	2194313	1471980314229	1471980314312	u	85
4313	46037	I'll call you in the morning.	I'll call you in the morning.	2194318	1471980314322	1471980314432	 	32
4313	46037	I'll call you in the morning.	I'll call you in the morning.	2194324	1471980314652	1471980314774	i	73
4313	46037	I'll call you in the morning.	I'll call you in the morning.	2194350	1471980314726	1471980314893	n	78
4313	46037	I'll call you in the morning.	I'll call you in the morning.	2194352	1471980314839	1471980315003	 	32
4313	46037	I'll call you in the morning.	I'll call you in the morning.	2194354	1471980315043	1471980315163	t	84
4313	46037	I'll call you in the morning.	I'll call you in the morning.	2194356	1471980315081	1471980315183	h	72
4313	46037	I'll call you in the morning.	I'll call you in the morning.	2194360	1471980315193	1471980315256	 	69
4313	46037	I'll call you in the morning.	I'll call you in the morning.	2194427	1471980315399	1471980315562	m	77
4313	46037	I'll call you in the morning.	I'll call you in the morning.	2194429	1471980315515	1471980315642	o	79
4313	46037	I'll call you in the morning.	I'll call you in the morning.	2194430	1471980315662	1471980315764	r	82
4313	46037	I'll call you in the morning.	I'll call you in the morning.	2194431	1471980315904	1471980316069	n	78
4313	46037	I'll call you in the morning.	I'll call you in the morning.	2194433	1471980316079	1471980316188	i	73
4313	46037	I'll call you in the morning.	I'll call you in the morning.	2194613	1471980316138	1471980316300	n	78
4313	46037	I'll call you in the morning.	I'll call you in the morning.	2194616	1471980316330	1471980316373	g	71
4313	46037	I'll call you in the morning.	I'll call you in the morning.	2194621	1471980316952	1471980317026	/	191
4313	46037	I'll call you in the morning.	I'll call you in the morning.	2194628	1471980317523	1471980317602	BKSP	8
4313	46037	I'll call you in the morning.	I'll call you in the morning.	2194630	1471980317973	1471980318069	.	190
