PARTICIPANT_ID	TEST_SECTION_ID	SENTENCE	USER_INPUT	KEYSTROKE_ID	PRESS_TIME	RELEASE_TIME	LETTER	KEYCODE
4347	46057	Do we need to do anything here?	Do we need to do anything here?	2195243	1471980326148	1471980328308	SHIFT	16
4347	46057	Do we need to do anything here?	Do we need to do anything here?	2195248	1471980328268	1471980328403	D	68
4347	46057	Do we need to do anything here?	Do we need to do anything here?	2195256	1471980328404	1471980328516	o	79
4347	46057	Do we need to do anything here?	Do we need to do anything here?	2195263	1471980328531	1471980328651	 	32
4347	46057	Do we need to do anything here?	Do we need to do anything here?	2195266	1471980328587	1471980328691	w	87
4347	46057	Do we need to do anything here?	Do we need to do anything here?	2195270	1471980328779	1471980328852	e	69
4347	46057	Do we need to do anything here?	Do we need to do anything here?	2195353	1471980328855	1471980328955	 	32
4347	46057	Do we need to do anything here?	Do we need to do anything here?	2195361	1471980329680	1471980329767	n	78
4347	46057	Do we need to do anything here?	Do we need to do anything here?	2195365	1471980329799	1471980329896	e	69
4347	46057	Do we need to do anything here?	Do we need to do anything here?	2195369	1471980329967	1471980330047	e	69
4347	46057	Do we need to do anything here?	Do we need to do anything here?	2195374	1471980330111	1471980330207	d	68
4347	46057	Do we need to do anything here?	Do we need to do anything here?	2195424	1471980330239	1471980330352	 	32
4347	46057	Do we need to do anything here?	Do we need to do anything here?	2195429	1471980330831	1471980330936	t	84
4347	46057	Do we need to do anything here?	Do we need to do anything here?	2195437	1471980330951	1471980331095	o	79
4347	46057	Do we need to do anything here?	Do we need to do anything here?	2195443	1471980331056	1471980331207	 	32
4347	46057	Do we need to do anything here?	Do we need to do anything here?	2195451	1471980331208	1471980331352	d	68
4347	46057	Do we need to do anything here?	Do we need to do anything here?	2195506	1471980331335	1471980331480	o	79
4347	46057	Do we need to do anything here?	Do we need to do anything here?	2195510	1471980331447	1471980331608	 	32
4347	46057	Do we need to do anything here?	Do we need to do anything here?	2195514	1471980331663	1471980331791	a	65
4347	46057	Do we need to do anything here?	Do we need to do anything here?	2195519	1471980331879	1471980331976	n	78
4347	46057	Do we need to do anything here?	Do we need to do anything here?	2195523	1471980332096	1471980332175	y	89
4347	46057	Do we need to do anything here?	Do we need to do anything here?	2195526	1471980332255	1471980332319	t	84
4347	46057	Do we need to do anything here?	Do we need to do anything here?	2195561	1471980332392	1471980332480	h	72
4347	46057	Do we need to do anything here?	Do we need to do anything here?	2195565	1471980332527	1471980332608	i	73
4347	46057	Do we need to do anything here?	Do we need to do anything here?	2195570	1471980332688	1471980332768	n	78
4347	46057	Do we need to do anything here?	Do we need to do anything here?	2195575	1471980332856	1471980332927	g	71
4347	46057	Do we need to do anything here?	Do we need to do anything here?	2195580	1471980333056	1471980333159	 	32
4347	46057	Do we need to do anything here?	Do we need to do anything here?	2195631	1471980333232	1471980333312	h	72
4347	46057	Do we need to do anything here?	Do we need to do anything here?	2195636	1471980333367	1471980333471	e	69
4347	46057	Do we need to do anything here?	Do we need to do anything here?	2195641	1471980333551	1471980333631	r	82
4347	46057	Do we need to do anything here?	Do we need to do anything here?	2195646	1471980333728	1471980333816	e	69
4347	46057	Do we need to do anything here?	Do we need to do anything here?	2195651	1471980333976	1471980334039	CTRL	17
4347	46057	Do we need to do anything here?	Do we need to do anything here?	2195657	1471980333976	1471980334192	SHIFT	16
4347	46057	Do we need to do anything here?	Do we need to do anything here?	2195694	1471980334127	1471980334239	?	191
4347	46078	Opening on the back nine she birdied the 11th and bogeyed the next.	Opening on the back nine she birdied the 11th and bogeyed the next	2195911	1471980337783	1471980338272	SHIFT	16
4347	46078	Opening on the back nine she birdied the 11th and bogeyed the next.	Opening on the back nine she birdied the 11th and bogeyed the next	2195917	1471980338232	1471980338367	O	79
4347	46078	Opening on the back nine she birdied the 11th and bogeyed the next.	Opening on the back nine she birdied the 11th and bogeyed the next	2195921	1471980338327	1471980338440	p	80
4347	46078	Opening on the back nine she birdied the 11th and bogeyed the next.	Opening on the back nine she birdied the 11th and bogeyed the next	2195928	1471980338415	1471980338520	e	69
4347	46078	Opening on the back nine she birdied the 11th and bogeyed the next.	Opening on the back nine she birdied the 11th and bogeyed the next	2195935	1471980338520	1471980338648	n	78
4347	46078	Opening on the back nine she birdied the 11th and bogeyed the next.	Opening on the back nine she birdied the 11th and bogeyed the next	2195942	1471980338728	1471980338800	i	85
4347	46078	Opening on the back nine she birdied the 11th and bogeyed the next.	Opening on the back nine she birdied the 11th and bogeyed the next	2196061	1471980339232	1471980339327	BKSP	8
4347	46078	Opening on the back nine she birdied the 11th and bogeyed the next.	Opening on the back nine she birdied the 11th and bogeyed the next	2196066	1471980339400	1471980339455	BKSP	8
4347	46078	Opening on the back nine she birdied the 11th and bogeyed the next.	Opening on the back nine she birdied the 11th and bogeyed the next	2196071	1471980339936	1471980339999	i	73
4347	46078	Opening on the back nine she birdied the 11th and bogeyed the next.	Opening on the back nine she birdied the 11th and bogeyed the next	2196074	1471980340071	1471980340159	n	78
4347	46078	Opening on the back nine she birdied the 11th and bogeyed the next.	Opening on the back nine she birdied the 11th and bogeyed the next	2196078	1471980340247	1471980340312	g	71
4347	46078	Opening on the back nine she birdied the 11th and bogeyed the next.	Opening on the back nine she birdied the 11th and bogeyed the next	2196082	1471980340359	1471980340487	 	32
4347	46078	Opening on the back nine she birdied the 11th and bogeyed the next.	Opening on the back nine she birdied the 11th and bogeyed the next	2196086	1471980340488	1471980340575	o	79
4347	46078	Opening on the back nine she birdied the 11th and bogeyed the next.	Opening on the back nine she birdied the 11th and bogeyed the next	2196120	1471980340695	1471980340799	n	78
4347	46078	Opening on the back nine she birdied the 11th and bogeyed the next.	Opening on the back nine she birdied the 11th and bogeyed the next	2196128	1471980340839	1471980340959	 	32
4347	46078	Opening on the back nine she birdied the 11th and bogeyed the next.	Opening on the back nine she birdied the 11th and bogeyed the next	2196135	1471980340991	1471980341071	t	84
4347	46078	Opening on the back nine she birdied the 11th and bogeyed the next.	Opening on the back nine she birdied the 11th and bogeyed the next	2196142	1471980341144	1471980341247	h	72
4347	46078	Opening on the back nine she birdied the 11th and bogeyed the next.	Opening on the back nine she birdied the 11th and bogeyed the next	2196200	1471980341224	1471980341335	e	69
4347	46078	Opening on the back nine she birdied the 11th and bogeyed the next.	Opening on the back nine she birdied the 11th and bogeyed the next	2196203	1471980341304	1471980341415	 	32
4347	46078	Opening on the back nine she birdied the 11th and bogeyed the next.	Opening on the back nine she birdied the 11th and bogeyed the next	2196208	1471980341592	1471980341688	b	66
4347	46078	Opening on the back nine she birdied the 11th and bogeyed the next.	Opening on the back nine she birdied the 11th and bogeyed the next	2196212	1471980341711	1471980341808	a	65
4347	46078	Opening on the back nine she birdied the 11th and bogeyed the next.	Opening on the back nine she birdied the 11th and bogeyed the next	2196217	1471980341848	1471980342000	c	67
4347	46078	Opening on the back nine she birdied the 11th and bogeyed the next.	Opening on the back nine she birdied the 11th and bogeyed the next	2196222	1471980342000	1471980342136	k	75
4347	46078	Opening on the back nine she birdied the 11th and bogeyed the next.	Opening on the back nine she birdied the 11th and bogeyed the next	2196298	1471980342138	1471980342264	 	32
4347	46078	Opening on the back nine she birdied the 11th and bogeyed the next.	Opening on the back nine she birdied the 11th and bogeyed the next	2196304	1471980342480	1471980342592	n	78
4347	46078	Opening on the back nine she birdied the 11th and bogeyed the next.	Opening on the back nine she birdied the 11th and bogeyed the next	2196307	1471980342632	1471980342768	i	73
4347	46078	Opening on the back nine she birdied the 11th and bogeyed the next.	Opening on the back nine she birdied the 11th and bogeyed the next	2196310	1471980343096	1471980343192	n	78
4347	46078	Opening on the back nine she birdied the 11th and bogeyed the next.	Opening on the back nine she birdied the 11th and bogeyed the next	2196311	1471980343224	1471980343344	s	83
4347	46078	Opening on the back nine she birdied the 11th and bogeyed the next.	Opening on the back nine she birdied the 11th and bogeyed the next	2196398	1471980343576	1471980343655	=	8
4347	46078	Opening on the back nine she birdied the 11th and bogeyed the next.	Opening on the back nine she birdied the 11th and bogeyed the next	2196401	1471980343783	1471980343928	 	32
4347	46078	Opening on the back nine she birdied the 11th and bogeyed the next.	Opening on the back nine she birdied the 11th and bogeyed the next	2196403	1471980344024	1471980344096	BKSP	8
4347	46078	Opening on the back nine she birdied the 11th and bogeyed the next.	Opening on the back nine she birdied the 11th and bogeyed the next	2196409	1471980344168	1471980344256	BKSP	8
4347	46078	Opening on the back nine she birdied the 11th and bogeyed the next.	Opening on the back nine she birdied the 11th and bogeyed the next	2196413	1471980344312	1471980344416	e	69
4347	46078	Opening on the back nine she birdied the 11th and bogeyed the next.	Opening on the back nine she birdied the 11th and bogeyed the next	2196415	1471980344416	1471980344520	 	32
4347	46078	Opening on the back nine she birdied the 11th and bogeyed the next.	Opening on the back nine she birdied the 11th and bogeyed the next	2196420	1471980344976	1471980345119	s	83
4347	46078	Opening on the back nine she birdied the 11th and bogeyed the next.	Opening on the back nine she birdied the 11th and bogeyed the next	2196459	1471980345144	1471980345287	h	72
4347	46078	Opening on the back nine she birdied the 11th and bogeyed the next.	Opening on the back nine she birdied the 11th and bogeyed the next	2196463	1471980345256	1471980345352	e	69
4347	46078	Opening on the back nine she birdied the 11th and bogeyed the next.	Opening on the back nine she birdied the 11th and bogeyed the next	2196466	1471980345367	1471980345480	 	32
4347	46078	Opening on the back nine she birdied the 11th and bogeyed the next.	Opening on the back nine she birdied the 11th and bogeyed the next	2196470	1471980346096	1471980346167	b	66
4347	46078	Opening on the back nine she birdied the 11th and bogeyed the next.	Opening on the back nine she birdied the 11th and bogeyed the next	2196471	1471980346272	1471980346407	i	73
4347	46078	Opening on the back nine she birdied the 11th and bogeyed the next.	Opening on the back nine she birdied the 11th and bogeyed the next	2196522	1471980346424	1471980346535	r	82
4347	46078	Opening on the back nine she birdied the 11th and bogeyed the next.	Opening on the back nine she birdied the 11th and bogeyed the next	2196523	1471980347119	1471980347264	d	68
4347	46078	Opening on the back nine she birdied the 11th and bogeyed the next.	Opening on the back nine she birdied the 11th and bogeyed the next	2196524	1471980347312	1471980347432	i	73
4347	46078	Opening on the back nine she birdied the 11th and bogeyed the next.	Opening on the back nine she birdied the 11th and bogeyed the next	2196526	1471980347433	1471980347568	e	69
4347	46078	Opening on the back nine she birdied the 11th and bogeyed the next.	Opening on the back nine she birdied the 11th and bogeyed the next	2196529	1471980347672	1471980347816	s	83
4347	46078	Opening on the back nine she birdied the 11th and bogeyed the next.	Opening on the back nine she birdied the 11th and bogeyed the next	2196636	1471980347848	1471980347976	 	32
4347	46078	Opening on the back nine she birdied the 11th and bogeyed the next.	Opening on the back nine she birdied the 11th and bogeyed the next	2196640	1471980348208	1471980348279	BKSP	8
4347	46078	Opening on the back nine she birdied the 11th and bogeyed the next.	Opening on the back nine she birdied the 11th and bogeyed the next	2196646	1471980348353	1471980348432	BKSP	8
4347	46078	Opening on the back nine she birdied the 11th and bogeyed the next.	Opening on the back nine she birdied the 11th and bogeyed the next	2196650	1471980348455	1471980348601	d	68
4347	46078	Opening on the back nine she birdied the 11th and bogeyed the next.	Opening on the back nine she birdied the 11th and bogeyed the next	2196654	1471980348602	1471980348672	 	32
4347	46078	Opening on the back nine she birdied the 11th and bogeyed the next.	Opening on the back nine she birdied the 11th and bogeyed the next	2196656	1471980349208	1471980349287	t	84
4347	46078	Opening on the back nine she birdied the 11th and bogeyed the next.	Opening on the back nine she birdied the 11th and bogeyed the next	2196658	1471980349359	1471980349440	h	72
4347	46078	Opening on the back nine she birdied the 11th and bogeyed the next.	Opening on the back nine she birdied the 11th and bogeyed the next	2196830	1471980349456	1471980349544	e	69
4347	46078	Opening on the back nine she birdied the 11th and bogeyed the next.	Opening on the back nine she birdied the 11th and bogeyed the next	2196833	1471980349560	1471980349655	 	32
4347	46078	Opening on the back nine she birdied the 11th and bogeyed the next.	Opening on the back nine she birdied the 11th and bogeyed the next	2196834	1471980350232	1471980350304	END	35
4347	46078	Opening on the back nine she birdied the 11th and bogeyed the next.	Opening on the back nine she birdied the 11th and bogeyed the next	2196836	1471980350367	1471980350464	END	35
4347	46078	Opening on the back nine she birdied the 11th and bogeyed the next.	Opening on the back nine she birdied the 11th and bogeyed the next	2196839	1471980350503	1471980350575	END	35
4347	46078	Opening on the back nine she birdied the 11th and bogeyed the next.	Opening on the back nine she birdied the 11th and bogeyed the next	2196843	1471980350928	1471980351024	1	49
4347	46078	Opening on the back nine she birdied the 11th and bogeyed the next.	Opening on the back nine she birdied the 11th and bogeyed the next	2196846	1471980351079	1471980351176	1	49
4347	46078	Opening on the back nine she birdied the 11th and bogeyed the next.	Opening on the back nine she birdied the 11th and bogeyed the next	2196851	1471980351616	1471980351672	t	84
4347	46078	Opening on the back nine she birdied the 11th and bogeyed the next.	Opening on the back nine she birdied the 11th and bogeyed the next	2196918	1471980351760	1471980351864	h	72
4347	46078	Opening on the back nine she birdied the 11th and bogeyed the next.	Opening on the back nine she birdied the 11th and bogeyed the next	2196922	1471980351864	1471980351976	 	32
4347	46078	Opening on the back nine she birdied the 11th and bogeyed the next.	Opening on the back nine she birdied the 11th and bogeyed the next	2196927	1471980352224	1471980352336	a	65
4347	46078	Opening on the back nine she birdied the 11th and bogeyed the next.	Opening on the back nine she birdied the 11th and bogeyed the next	2196932	1471980352400	1471980352504	n	78
4347	46078	Opening on the back nine she birdied the 11th and bogeyed the next.	Opening on the back nine she birdied the 11th and bogeyed the next	2196935	1471980352504	1471980352615	d	68
4347	46078	Opening on the back nine she birdied the 11th and bogeyed the next.	Opening on the back nine she birdied the 11th and bogeyed the next	2197051	1471980352632	1471980352735	 	32
4347	46078	Opening on the back nine she birdied the 11th and bogeyed the next.	Opening on the back nine she birdied the 11th and bogeyed the next	2197053	1471980352920	1471980352968	b	66
4347	46078	Opening on the back nine she birdied the 11th and bogeyed the next.	Opening on the back nine she birdied the 11th and bogeyed the next	2197058	1471980353424	1471980353527	o	79
4347	46078	Opening on the back nine she birdied the 11th and bogeyed the next.	Opening on the back nine she birdied the 11th and bogeyed the next	2197063	1471980353800	1471980353911	g	71
4347	46078	Opening on the back nine she birdied the 11th and bogeyed the next.	Opening on the back nine she birdied the 11th and bogeyed the next	2197070	1471980353968	1471980354079	e	69
4347	46078	Opening on the back nine she birdied the 11th and bogeyed the next.	Opening on the back nine she birdied the 11th and bogeyed the next	2197298	1471980355680	1471980355760	y	89
4347	46078	Opening on the back nine she birdied the 11th and bogeyed the next.	Opening on the back nine she birdied the 11th and bogeyed the next	2197299	1471980355840	1471980355920	e	69
4347	46078	Opening on the back nine she birdied the 11th and bogeyed the next.	Opening on the back nine she birdied the 11th and bogeyed the next	2197301	1471980356232	1471980356360	d	68
4347	46078	Opening on the back nine she birdied the 11th and bogeyed the next.	Opening on the back nine she birdied the 11th and bogeyed the next	2197303	1471980356400	1471980356512	 	32
4347	46078	Opening on the back nine she birdied the 11th and bogeyed the next.	Opening on the back nine she birdied the 11th and bogeyed the next	2197309	1471980356848	1471980356928	t	84
4347	46078	Opening on the back nine she birdied the 11th and bogeyed the next.	Opening on the back nine she birdied the 11th and bogeyed the next	2197343	1471980357000	1471980357096	h	72
4347	46078	Opening on the back nine she birdied the 11th and bogeyed the next.	Opening on the back nine she birdied the 11th and bogeyed the next	2197346	1471980357111	1471980357184	e	69
4347	46078	Opening on the back nine she birdied the 11th and bogeyed the next.	Opening on the back nine she birdied the 11th and bogeyed the next	2197351	1471980357185	1471980357272	 	32
4347	46078	Opening on the back nine she birdied the 11th and bogeyed the next.	Opening on the back nine she birdied the 11th and bogeyed the next	2197355	1471980357344	1471980357416	n	78
4347	46078	Opening on the back nine she birdied the 11th and bogeyed the next.	Opening on the back nine she birdied the 11th and bogeyed the next	2197360	1471980357472	1471980357535	e	69
4347	46078	Opening on the back nine she birdied the 11th and bogeyed the next.	Opening on the back nine she birdied the 11th and bogeyed the next	2197442	1471980357896	1471980357991	x	88
4347	46078	Opening on the back nine she birdied the 11th and bogeyed the next.	Opening on the back nine she birdied the 11th and bogeyed the next	2197445	1471980358064	1471980358128	t	84
4347	46078	Opening on the back nine she birdied the 11th and bogeyed the next.	Opening on the back nine she birdied the 11th and bogeyed the next	2197447	1471980358896	1471980358984	DELETE	46
4347	46123	Please feel free to add to it if I missed something.	Please feel free to add to it if I missed something.	2197740	1471980362328	1471980362960	SHIFT	16
4347	46123	Please feel free to add to it if I missed something.	Please feel free to add to it if I missed something.	2197735	1471980362816	1471980362863	P	80
4347	46123	Please feel free to add to it if I missed something.	Please feel free to add to it if I missed something.	2197744	1471980363000	1471980363128	l	76
4347	46123	Please feel free to add to it if I missed something.	Please feel free to add to it if I missed something.	2197750	1471980363129	1471980363256	e	69
4347	46123	Please feel free to add to it if I missed something.	Please feel free to add to it if I missed something.	2197755	1471980363312	1471980363504	a	65
4347	46123	Please feel free to add to it if I missed something.	Please feel free to add to it if I missed something.	2197851	1471980363488	1471980363600	s	83
4347	46123	Please feel free to add to it if I missed something.	Please feel free to add to it if I missed something.	2197856	1471980363704	1471980363800	e	69
4347	46123	Please feel free to add to it if I missed something.	Please feel free to add to it if I missed something.	2197863	1471980363864	1471980363936	 	32
4347	46123	Please feel free to add to it if I missed something.	Please feel free to add to it if I missed something.	2197869	1471980364401	1471980364504	f	70
4347	46123	Please feel free to add to it if I missed something.	Please feel free to add to it if I missed something.	2197874	1471980364616	1471980364712	e	69
4347	46123	Please feel free to add to it if I missed something.	Please feel free to add to it if I missed something.	2197880	1471980365080	1471980365208	e	69
4347	46123	Please feel free to add to it if I missed something.	Please feel free to add to it if I missed something.	2197965	1471980365248	1471980365384	l	76
4347	46123	Please feel free to add to it if I missed something.	Please feel free to add to it if I missed something.	2197970	1471980365416	1471980365544	 	32
4347	46123	Please feel free to add to it if I missed something.	Please feel free to add to it if I missed something.	2197978	1471980366025	1471980366111	f	70
4347	46123	Please feel free to add to it if I missed something.	Please feel free to add to it if I missed something.	2197986	1471980366264	1471980366336	r	82
4347	46123	Please feel free to add to it if I missed something.	Please feel free to add to it if I missed something.	2197998	1471980366544	1471980366584	e	69
4347	46123	Please feel free to add to it if I missed something.	Please feel free to add to it if I missed something.	2198055	1471980366656	1471980366744	e	69
4347	46123	Please feel free to add to it if I missed something.	Please feel free to add to it if I missed something.	2198061	1471980366792	1471980366912	 	32
4347	46123	Please feel free to add to it if I missed something.	Please feel free to add to it if I missed something.	2198066	1471980367048	1471980367168	t	84
4347	46123	Please feel free to add to it if I missed something.	Please feel free to add to it if I missed something.	2198071	1471980367216	1471980367352	o	79
4347	46123	Please feel free to add to it if I missed something.	Please feel free to add to it if I missed something.	2198163	1471980367328	1471980367481	 	32
4347	46123	Please feel free to add to it if I missed something.	Please feel free to add to it if I missed something.	2198169	1471980367481	1471980367600	a	65
4347	46123	Please feel free to add to it if I missed something.	Please feel free to add to it if I missed something.	2198175	1471980367856	1471980367952	d	68
4347	46123	Please feel free to add to it if I missed something.	Please feel free to add to it if I missed something.	2198180	1471980368024	1471980368128	d	68
4347	46123	Please feel free to add to it if I missed something.	Please feel free to add to it if I missed something.	2198184	1471980368151	1471980368280	 	32
4347	46123	Please feel free to add to it if I missed something.	Please feel free to add to it if I missed something.	2198188	1471980368416	1471980368560	t	84
4347	46123	Please feel free to add to it if I missed something.	Please feel free to add to it if I missed something.	2198259	1471980368608	1471980368768	p	80
4347	46123	Please feel free to add to it if I missed something.	Please feel free to add to it if I missed something.	2198261	1471980368712	1471980368880	 	32
4347	46123	Please feel free to add to it if I missed something.	Please feel free to add to it if I missed something.	2198265	1471980369160	1471980369264	i	73
4347	46123	Please feel free to add to it if I missed something.	Please feel free to add to it if I missed something.	2198273	1471980369336	1471980369441	t	84
4347	46123	Please feel free to add to it if I missed something.	Please feel free to add to it if I missed something.	2198284	1471980369456	1471980369576	 	32
4347	46123	Please feel free to add to it if I missed something.	Please feel free to add to it if I missed something.	2198511	1471980369640	1471980369784	a	65
4347	46123	Please feel free to add to it if I missed something.	Please feel free to add to it if I missed something.	2198516	1471980370000	1471980370088	BKSP	8
4347	46123	Please feel free to add to it if I missed something.	Please feel free to add to it if I missed something.	2198521	1471980370168	1471980370232	BKSP	8
4347	46123	Please feel free to add to it if I missed something.	Please feel free to add to it if I missed something.	2198529	1471980370320	1471980370384	BKSP	8
4347	46123	Please feel free to add to it if I missed something.	Please feel free to add to it if I missed something.	2198536	1471980370480	1471980370536	BKSP	8
4347	46123	Please feel free to add to it if I missed something.	Please feel free to add to it if I missed something.	2198539	1471980370624	1471980370680	BKSP	8
4347	46123	Please feel free to add to it if I missed something.	Please feel free to add to it if I missed something.	2198543	1471980370752	1471980370824	BKSP	8
4347	46123	Please feel free to add to it if I missed something.	Please feel free to add to it if I missed something.	2198546	1471980371184	1471980371272	o	79
4347	46123	Please feel free to add to it if I missed something.	Please feel free to add to it if I missed something.	2198549	1471980371328	1471980371456	 	32
4347	46123	Please feel free to add to it if I missed something.	Please feel free to add to it if I missed something.	2198552	1471980372096	1471980372216	i	73
4347	46123	Please feel free to add to it if I missed something.	Please feel free to add to it if I missed something.	2198557	1471980372217	1471980372304	t	84
4347	46123	Please feel free to add to it if I missed something.	Please feel free to add to it if I missed something.	2198624	1471980372328	1471980372432	 	32
4347	46123	Please feel free to add to it if I missed something.	Please feel free to add to it if I missed something.	2198630	1471980373025	1471980373096	i	73
4347	46123	Please feel free to add to it if I missed something.	Please feel free to add to it if I missed something.	2198636	1471980373176	1471980373273	f	70
4347	46123	Please feel free to add to it if I missed something.	Please feel free to add to it if I missed something.	2198639	1471980373273	1471980373376	 	32
4347	46123	Please feel free to add to it if I missed something.	Please feel free to add to it if I missed something.	2198641	1471980373496	1471980373568	i	73
4347	46123	Please feel free to add to it if I missed something.	Please feel free to add to it if I missed something.	2198763	1471980373832	1471980373928	BKSP	8
4347	46123	Please feel free to add to it if I missed something.	Please feel free to add to it if I missed something.	2198767	1471980373968	1471980374105	SHIFT	16
4347	46123	Please feel free to add to it if I missed something.	Please feel free to add to it if I missed something.	2198772	1471980374040	1471980374176	I	73
4347	46123	Please feel free to add to it if I missed something.	Please feel free to add to it if I missed something.	2198777	1471980374177	1471980374296	 	32
4347	46123	Please feel free to add to it if I missed something.	Please feel free to add to it if I missed something.	2198779	1471980374649	1471980374728	m	77
4347	46123	Please feel free to add to it if I missed something.	Please feel free to add to it if I missed something.	2198784	1471980374808	1471980374880	i	73
4347	46123	Please feel free to add to it if I missed something.	Please feel free to add to it if I missed something.	2198788	1471980375065	1471980375168	d	68
4347	46123	Please feel free to add to it if I missed something.	Please feel free to add to it if I missed something.	2198850	1471980375233	1471980375320	d	68
4347	46123	Please feel free to add to it if I missed something.	Please feel free to add to it if I missed something.	2198856	1471980375448	1471980375528	BKSP	8
4347	46123	Please feel free to add to it if I missed something.	Please feel free to add to it if I missed something.	2198860	1471980375600	1471980375672	BKSP	8
4347	46123	Please feel free to add to it if I missed something.	Please feel free to add to it if I missed something.	2198864	1471980375673	1471980375776	s	83
4347	46123	Please feel free to add to it if I missed something.	Please feel free to add to it if I missed something.	2198870	1471980375800	1471980375912	e	69
4347	46123	Please feel free to add to it if I missed something.	Please feel free to add to it if I missed something.	2198878	1471980375984	1471980376056	e	69
4347	46123	Please feel free to add to it if I missed something.	Please feel free to add to it if I missed something.	2198885	1471980376240	1471980376352	s	83
4347	46123	Please feel free to add to it if I missed something.	Please feel free to add to it if I missed something.	2199036	1471980376544	1471980376609	BKSP	8
4347	46123	Please feel free to add to it if I missed something.	Please feel free to add to it if I missed something.	2199038	1471980376672	1471980376744	BKSP	8
4347	46123	Please feel free to add to it if I missed something.	Please feel free to add to it if I missed something.	2199040	1471980376817	1471980376880	BKSP	8
4347	46123	Please feel free to add to it if I missed something.	Please feel free to add to it if I missed something.	2199043	1471980376848	1471980376960	s	83
4347	46123	Please feel free to add to it if I missed something.	Please feel free to add to it if I missed something.	2199046	1471980377048	1471980377144	e	69
4347	46123	Please feel free to add to it if I missed something.	Please feel free to add to it if I missed something.	2199048	1471980377224	1471980377328	d	68
4347	46123	Please feel free to add to it if I missed something.	Please feel free to add to it if I missed something.	2199052	1471980377376	1471980377472	 	32
4347	46123	Please feel free to add to it if I missed something.	Please feel free to add to it if I missed something.	2199059	1471980377888	1471980378017	s	83
4347	46123	Please feel free to add to it if I missed something.	Please feel free to add to it if I missed something.	2199217	1471980378019	1471980378080	o	79
4347	46123	Please feel free to add to it if I missed something.	Please feel free to add to it if I missed something.	2199223	1471980378152	1471980378233	m	77
4347	46123	Please feel free to add to it if I missed something.	Please feel free to add to it if I missed something.	2199227	1471980378704	1471980378808	e	69
4347	46123	Please feel free to add to it if I missed something.	Please feel free to add to it if I missed something.	2199231	1471980378920	1471980379040	t	84
4347	46123	Please feel free to add to it if I missed something.	Please feel free to add to it if I missed something.	2199235	1471980379561	1471980379640	BKSP	8
4347	46123	Please feel free to add to it if I missed something.	Please feel free to add to it if I missed something.	2199239	1471980380368	1471980380441	t	84
4347	46123	Please feel free to add to it if I missed something.	Please feel free to add to it if I missed something.	2199279	1471980380464	1471980380536	h	72
4347	46123	Please feel free to add to it if I missed something.	Please feel free to add to it if I missed something.	2199288	1471980380576	1471980380664	i	73
4347	46123	Please feel free to add to it if I missed something.	Please feel free to add to it if I missed something.	2199299	1471980380744	1471980380817	n	78
4347	46123	Please feel free to add to it if I missed something.	Please feel free to add to it if I missed something.	2199308	1471980380840	1471980380920	g	71
4347	46123	Please feel free to add to it if I missed something.	Please feel free to add to it if I missed something.	2199315	1471980381265	1471980381320	.	190
4347	46154	How can we get these answers?	How can we get these answers?	2199577	1471980384280	1471980384456	SHIFT	16
4347	46154	How can we get these answers?	How can we get these answers?	2199582	1471980384408	1471980384488	H	72
4347	46154	How can we get these answers?	How can we get these answers?	2199586	1471980384568	1471980384672	o	79
4347	46154	How can we get these answers?	How can we get these answers?	2199591	1471980384656	1471980384752	w	87
4347	46154	How can we get these answers?	How can we get these answers?	2199594	1471980384753	1471980384872	 	32
4347	46154	How can we get these answers?	How can we get these answers?	2199596	1471980385305	1471980385481	c	67
4347	46154	How can we get these answers?	How can we get these answers?	2199619	1471980385456	1471980385592	a	65
4347	46154	How can we get these answers?	How can we get these answers?	2199621	1471980385513	1471980385649	n	78
4347	46154	How can we get these answers?	How can we get these answers?	2199623	1471980385632	1471980385776	 	32
4347	46154	How can we get these answers?	How can we get these answers?	2199624	1471980385776	1471980385928	w	87
4347	46154	How can we get these answers?	How can we get these answers?	2199625	1471980386009	1471980386112	e	69
4347	46154	How can we get these answers?	How can we get these answers?	2199632	1471980386145	1471980386256	 	32
4347	46154	How can we get these answers?	How can we get these answers?	2199680	1471980386592	1471980386681	g	71
4347	46154	How can we get these answers?	How can we get these answers?	2199685	1471980386681	1471980386752	e	69
4347	46154	How can we get these answers?	How can we get these answers?	2199691	1471980386784	1471980386872	t	84
4347	46154	How can we get these answers?	How can we get these answers?	2199697	1471980386928	1471980387032	 	32
4347	46154	How can we get these answers?	How can we get these answers?	2199703	1471980387065	1471980387128	t	84
4347	46154	How can we get these answers?	How can we get these answers?	2199748	1471980387216	1471980387313	h	72
4347	46154	How can we get these answers?	How can we get these answers?	2199752	1471980387336	1471980387448	e	69
4347	46154	How can we get these answers?	How can we get these answers?	2199755	1471980387504	1471980387609	s	83
4347	46154	How can we get these answers?	How can we get these answers?	2199757	1471980387705	1471980387801	e	69
4347	46154	How can we get these answers?	How can we get these answers?	2199761	1471980387801	1471980387880	 	32
4347	46154	How can we get these answers?	How can we get these answers?	2199881	1471980388089	1471980388256	a	65
4347	46154	How can we get these answers?	How can we get these answers?	2199885	1471980388296	1471980388393	n	78
4347	46154	How can we get these answers?	How can we get these answers?	2199891	1471980388481	1471980388601	s	83
4347	46154	How can we get these answers?	How can we get these answers?	2199895	1471980389025	1471980389145	w	87
4347	46154	How can we get these answers?	How can we get these answers?	2199900	1471980389265	1471980389354	e	69
4347	46154	How can we get these answers?	How can we get these answers?	2200021	1471980389467	1471980389538	r	82
4347	46154	How can we get these answers?	How can we get these answers?	2200024	1471980389931	1471980389954	e	69
4347	46154	How can we get these answers?	How can we get these answers?	2200029	1471980390322	1471980390427	BKSP	8
4347	46154	How can we get these answers?	How can we get these answers?	2200034	1471980390427	1471980390498	s	83
4347	46154	How can we get these answers?	How can we get these answers?	2200038	1471980390828	1471980391011	SHIFT	16
4347	46154	How can we get these answers?	How can we get these answers?	2200043	1471980390946	1471980391074	?	191
4347	46175	We need this verified.	We need this verified.	2200281	1471980393795	1471980394003	SHIFT	16
4347	46175	We need this verified.	We need this verified.	2200288	1471980393954	1471980394066	W	87
4347	46175	We need this verified.	We need this verified.	2200295	1471980394154	1471980394242	e	69
4347	46175	We need this verified.	We need this verified.	2200303	1471980394322	1471980394427	 	32
4347	46175	We need this verified.	We need this verified.	2200311	1471980394898	1471980394931	n	66
4347	46175	We need this verified.	We need this verified.	2200446	1471980394979	1471980395066	e	69
4347	46175	We need this verified.	We need this verified.	2200450	1471980395131	1471980395219	e	69
4347	46175	We need this verified.	We need this verified.	2200456	1471980395451	1471980395530	BKSP	8
4347	46175	We need this verified.	We need this verified.	2200461	1471980395603	1471980395675	BKSP	8
4347	46175	We need this verified.	We need this verified.	2200467	1471980395738	1471980395795	BKSP	8
4347	46175	We need this verified.	We need this verified.	2200471	1471980395874	1471980395946	BKSP	8
4347	46175	We need this verified.	We need this verified.	2200476	1471980396371	1471980396442	n	78
4347	46175	We need this verified.	We need this verified.	2200480	1471980396507	1471980396603	e	69
4347	46175	We need this verified.	We need this verified.	2200484	1471980396666	1471980396738	e	69
4347	46175	We need this verified.	We need this verified.	2200505	1471980396835	1471980396946	d	68
4347	46175	We need this verified.	We need this verified.	2200511	1471980396978	1471980397066	 	32
4347	46175	We need this verified.	We need this verified.	2200517	1471980397139	1471980397211	t	84
4347	46175	We need this verified.	We need this verified.	2200523	1471980397299	1471980397395	h	72
4347	46175	We need this verified.	We need this verified.	2200528	1471980397395	1471980397515	i	73
4347	46175	We need this verified.	We need this verified.	2200567	1471980397499	1471980397603	s	83
4347	46175	We need this verified.	We need this verified.	2200573	1471980397603	1471980397690	 	32
4347	46175	We need this verified.	We need this verified.	2200579	1471980397858	1471980397938	v	86
4347	46175	We need this verified.	We need this verified.	2200586	1471980397978	1471980398059	e	69
4347	46175	We need this verified.	We need this verified.	2200590	1471980398162	1471980398267	r	82
4347	46175	We need this verified.	We need this verified.	2200595	1471980398307	1471980398395	i	73
4347	46175	We need this verified.	We need this verified.	2200690	1471980398547	1471980398658	f	70
4347	46175	We need this verified.	We need this verified.	2200694	1471980398706	1471980398835	i	73
4347	46175	We need this verified.	We need this verified.	2200697	1471980399307	1471980399450	e	69
4347	46175	We need this verified.	We need this verified.	2200700	1471980399562	1471980399667	d	68
4347	46175	We need this verified.	We need this verified.	2200704	1471980399866	1471980399978	.	190
4347	46192	Samantha's problems began 13 years.	Samantha's problems began 13 years.	2200994	1471980402835	1471980403475	SHIFT	16
4347	46192	Samantha's problems began 13 years.	Samantha's problems began 13 years.	2200988	1471980403203	1471980403282	S	83
4347	46192	Samantha's problems began 13 years.	Samantha's problems began 13 years.	2201001	1471980403499	1471980403730	SHIFT	16
4347	46192	Samantha's problems began 13 years.	Samantha's problems began 13 years.	2201007	1471980403835	1471980403938	a	65
4347	46192	Samantha's problems began 13 years.	Samantha's problems began 13 years.	2201013	1471980403986	1471980404147	n	78
4347	46192	Samantha's problems began 13 years.	Samantha's problems began 13 years.	2201023	1471980404148	1471980404211	e	87
4347	46192	Samantha's problems began 13 years.	Samantha's problems began 13 years.	2201276	1471980404619	1471980404690	BKSP	8
4347	46192	Samantha's problems began 13 years.	Samantha's problems began 13 years.	2201280	1471980404763	1471980404818	BKSP	8
4347	46192	Samantha's problems began 13 years.	Samantha's problems began 13 years.	2201285	1471980404891	1471980404955	BKSP	8
4347	46192	Samantha's problems began 13 years.	Samantha's problems began 13 years.	2201291	1471980405211	1471980405314	a	65
4347	46192	Samantha's problems began 13 years.	Samantha's problems began 13 years.	2201300	1471980405619	1471980405730	BKSP	8
4347	46192	Samantha's problems began 13 years.	Samantha's problems began 13 years.	2201307	1471980405858	1471980405955	m	77
4347	46192	Samantha's problems began 13 years.	Samantha's problems began 13 years.	2201318	1471980405971	1471980406083	a	65
4347	46192	Samantha's problems began 13 years.	Samantha's problems began 13 years.	2201327	1471980406419	1471980406515	n	78
4347	46192	Samantha's problems began 13 years.	Samantha's problems began 13 years.	2201472	1471980407299	1471980407354	r	84
4347	46192	Samantha's problems began 13 years.	Samantha's problems began 13 years.	2201475	1471980407442	1471980407539	h	72
4347	46192	Samantha's problems began 13 years.	Samantha's problems began 13 years.	2201479	1471980407570	1471980407690	a	65
4347	46192	Samantha's problems began 13 years.	Samantha's problems began 13 years.	2201484	1471980407875	1471980407946	BKSP	8
4347	46192	Samantha's problems began 13 years.	Samantha's problems began 13 years.	2201490	1471980408019	1471980408083	BKSP	8
4347	46192	Samantha's problems began 13 years.	Samantha's problems began 13 years.	2201498	1471980408163	1471980408203	BKSP	8
4347	46192	Samantha's problems began 13 years.	Samantha's problems began 13 years.	2201505	1471980408747	1471980408811	h	72
4347	46192	Samantha's problems began 13 years.	Samantha's problems began 13 years.	2201512	1471980408851	1471980408986	a	65
4347	46192	Samantha's problems began 13 years.	Samantha's problems began 13 years.	2201521	1471980409299	1471980409403	'	222
4347	46192	Samantha's problems began 13 years.	Samantha's problems began 13 years.	2201587	1471980409405	1471980409482	s	83
4347	46192	Samantha's problems began 13 years.	Samantha's problems began 13 years.	2201593	1471980409547	1471980409650	 	32
4347	46192	Samantha's problems began 13 years.	Samantha's problems began 13 years.	2201602	1471980410115	1471980410211	p	80
4347	46192	Samantha's problems began 13 years.	Samantha's problems began 13 years.	2201607	1471980410227	1471980410322	r	82
4347	46192	Samantha's problems began 13 years.	Samantha's problems began 13 years.	2201612	1471980410371	1471980410436	o	79
4347	46192	Samantha's problems began 13 years.	Samantha's problems began 13 years.	2201675	1471980410555	1471980410643	b	66
4347	46192	Samantha's problems began 13 years.	Samantha's problems began 13 years.	2201682	1471980410770	1471980410851	l	76
4347	46192	Samantha's problems began 13 years.	Samantha's problems began 13 years.	2201687	1471980410898	1471980410978	e	69
4347	46192	Samantha's problems began 13 years.	Samantha's problems began 13 years.	2201688	1471980410979	1471980411123	m	77
4347	46192	Samantha's problems began 13 years.	Samantha's problems began 13 years.	2201691	1471980411219	1471980411395	s	83
4347	46192	Samantha's problems began 13 years.	Samantha's problems began 13 years.	2201755	1471980411427	1471980411555	 	32
4347	46192	Samantha's problems began 13 years.	Samantha's problems began 13 years.	2201759	1471980412003	1471980412099	b	66
4347	46192	Samantha's problems began 13 years.	Samantha's problems began 13 years.	2201766	1471980412100	1471980412179	e	69
4347	46192	Samantha's problems began 13 years.	Samantha's problems began 13 years.	2201774	1471980412234	1471980412339	g	71
4347	46192	Samantha's problems began 13 years.	Samantha's problems began 13 years.	2201782	1471980412411	1471980412547	a	65
4347	46192	Samantha's problems began 13 years.	Samantha's problems began 13 years.	2201988	1471980412499	1471980412699	n	78
4347	46192	Samantha's problems began 13 years.	Samantha's problems began 13 years.	2201993	1471980412778	1471980412898	 	32
4347	46192	Samantha's problems began 13 years.	Samantha's problems began 13 years.	2201999	1471980413739	1471980413867	1	49
4347	46192	Samantha's problems began 13 years.	Samantha's problems began 13 years.	2202006	1471980414443	1471980414515	3	51
4347	46192	Samantha's problems began 13 years.	Samantha's problems began 13 years.	2202015	1471980414562	1471980414667	 	32
4347	46192	Samantha's problems began 13 years.	Samantha's problems began 13 years.	2202023	1471980414739	1471980414843	y	89
4347	46192	Samantha's problems began 13 years.	Samantha's problems began 13 years.	2202135	1471980414883	1471980414938	e	69
4347	46192	Samantha's problems began 13 years.	Samantha's problems began 13 years.	2202141	1471980415139	1471980415331	a	65
4347	46192	Samantha's problems began 13 years.	Samantha's problems began 13 years.	2202148	1471980415371	1471980415491	r	82
4347	46192	Samantha's problems began 13 years.	Samantha's problems began 13 years.	2202155	1471980415643	1471980415787	s	83
4347	46192	Samantha's problems began 13 years.	Samantha's problems began 13 years.	2202158	1471980416163	1471980416234	.	190
4347	46229	The four-city tour continues Friday in Kansas City, Missouri.	The four-city tour continues Friday in Kansas City, Missouri.	2204014	1471980437083	1471980437275	SHIFT	16
4347	46229	The four-city tour continues Friday in Kansas City, Missouri.	The four-city tour continues Friday in Kansas City, Missouri.	2204018	1471980437203	1471980437276	T	84
4347	46229	The four-city tour continues Friday in Kansas City, Missouri.	The four-city tour continues Friday in Kansas City, Missouri.	2204023	1471980437355	1471980437476	h	72
4347	46229	The four-city tour continues Friday in Kansas City, Missouri.	The four-city tour continues Friday in Kansas City, Missouri.	2204027	1471980437516	1471980437636	 	32
4347	46229	The four-city tour continues Friday in Kansas City, Missouri.	The four-city tour continues Friday in Kansas City, Missouri.	2204032	1471980437932	1471980438044	BKSP	8
4347	46229	The four-city tour continues Friday in Kansas City, Missouri.	The four-city tour continues Friday in Kansas City, Missouri.	2204039	1471980438044	1471980438140	e	69
4347	46229	The four-city tour continues Friday in Kansas City, Missouri.	The four-city tour continues Friday in Kansas City, Missouri.	2204044	1471980438171	1471980438283	 	32
4347	46229	The four-city tour continues Friday in Kansas City, Missouri.	The four-city tour continues Friday in Kansas City, Missouri.	2204130	1471980438819	1471980438892	f	70
4347	46229	The four-city tour continues Friday in Kansas City, Missouri.	The four-city tour continues Friday in Kansas City, Missouri.	2204137	1471980438892	1471980438995	o	79
4347	46229	The four-city tour continues Friday in Kansas City, Missouri.	The four-city tour continues Friday in Kansas City, Missouri.	2204143	1471980439323	1471980439403	u	85
4347	46229	The four-city tour continues Friday in Kansas City, Missouri.	The four-city tour continues Friday in Kansas City, Missouri.	2204148	1471980439443	1471980439523	r	82
4347	46229	The four-city tour continues Friday in Kansas City, Missouri.	The four-city tour continues Friday in Kansas City, Missouri.	2204150	1471980439531	1471980439651	 	32
4347	46229	The four-city tour continues Friday in Kansas City, Missouri.	The four-city tour continues Friday in Kansas City, Missouri.	2204284	1471980439907	1471980440035	BKSP	8
4347	46229	The four-city tour continues Friday in Kansas City, Missouri.	The four-city tour continues Friday in Kansas City, Missouri.	2204291	1471980440476	1471980440547	-	189
4347	46229	The four-city tour continues Friday in Kansas City, Missouri.	The four-city tour continues Friday in Kansas City, Missouri.	2204295	1471980440804	1471980440884	c	67
4347	46229	The four-city tour continues Friday in Kansas City, Missouri.	The four-city tour continues Friday in Kansas City, Missouri.	2204299	1471980440979	1471980441075	i	73
4347	46229	The four-city tour continues Friday in Kansas City, Missouri.	The four-city tour continues Friday in Kansas City, Missouri.	2204304	1471980441211	1471980441323	t	84
4347	46229	The four-city tour continues Friday in Kansas City, Missouri.	The four-city tour continues Friday in Kansas City, Missouri.	2204310	1471980441363	1471980441508	y	89
4347	46229	The four-city tour continues Friday in Kansas City, Missouri.	The four-city tour continues Friday in Kansas City, Missouri.	2204391	1471980441510	1471980441644	 	32
4347	46229	The four-city tour continues Friday in Kansas City, Missouri.	The four-city tour continues Friday in Kansas City, Missouri.	2204395	1471980442212	1471980442291	t	84
4347	46229	The four-city tour continues Friday in Kansas City, Missouri.	The four-city tour continues Friday in Kansas City, Missouri.	2204401	1471980442403	1471980442508	o	79
4347	46229	The four-city tour continues Friday in Kansas City, Missouri.	The four-city tour continues Friday in Kansas City, Missouri.	2204407	1471980442579	1471980442684	u	85
4347	46229	The four-city tour continues Friday in Kansas City, Missouri.	The four-city tour continues Friday in Kansas City, Missouri.	2204496	1471980442659	1471980442747	r	82
4347	46229	The four-city tour continues Friday in Kansas City, Missouri.	The four-city tour continues Friday in Kansas City, Missouri.	2204503	1471980442795	1471980442892	 	32
4347	46229	The four-city tour continues Friday in Kansas City, Missouri.	The four-city tour continues Friday in Kansas City, Missouri.	2204507	1471980443420	1471980443571	c	67
4347	46229	The four-city tour continues Friday in Kansas City, Missouri.	The four-city tour continues Friday in Kansas City, Missouri.	2204512	1471980443572	1471980443667	o	79
4347	46229	The four-city tour continues Friday in Kansas City, Missouri.	The four-city tour continues Friday in Kansas City, Missouri.	2204516	1471980443747	1471980443884	n	78
4347	46229	The four-city tour continues Friday in Kansas City, Missouri.	The four-city tour continues Friday in Kansas City, Missouri.	2204521	1471980443963	1471980444075	t	84
4347	46229	The four-city tour continues Friday in Kansas City, Missouri.	The four-city tour continues Friday in Kansas City, Missouri.	2204644	1471980445203	1471980445275	i	73
4347	46229	The four-city tour continues Friday in Kansas City, Missouri.	The four-city tour continues Friday in Kansas City, Missouri.	2204648	1471980445355	1471980445451	n	78
4347	46229	The four-city tour continues Friday in Kansas City, Missouri.	The four-city tour continues Friday in Kansas City, Missouri.	2204652	1471980445924	1471980445987	y	85
4347	46229	The four-city tour continues Friday in Kansas City, Missouri.	The four-city tour continues Friday in Kansas City, Missouri.	2204654	1471980446235	1471980446340	BKSP	8
4347	46229	The four-city tour continues Friday in Kansas City, Missouri.	The four-city tour continues Friday in Kansas City, Missouri.	2204657	1471980446451	1471980446548	u	85
4347	46229	The four-city tour continues Friday in Kansas City, Missouri.	The four-city tour continues Friday in Kansas City, Missouri.	2204725	1471980446551	1471980446691	e	69
4347	46229	The four-city tour continues Friday in Kansas City, Missouri.	The four-city tour continues Friday in Kansas City, Missouri.	2204728	1471980446747	1471980446884	s	83
4347	46229	The four-city tour continues Friday in Kansas City, Missouri.	The four-city tour continues Friday in Kansas City, Missouri.	2204733	1471980446964	1471980447027	BKSP	8
4347	46229	The four-city tour continues Friday in Kansas City, Missouri.	The four-city tour continues Friday in Kansas City, Missouri.	2204737	1471980447100	1471980447155	BKSP	8
4347	46229	The four-city tour continues Friday in Kansas City, Missouri.	The four-city tour continues Friday in Kansas City, Missouri.	2204743	1471980447228	1471980447291	BKSP	8
4347	46229	The four-city tour continues Friday in Kansas City, Missouri.	The four-city tour continues Friday in Kansas City, Missouri.	2204746	1471980447340	1471980447451	e	69
4347	46229	The four-city tour continues Friday in Kansas City, Missouri.	The four-city tour continues Friday in Kansas City, Missouri.	2204750	1471980447516	1471980447636	s	83
4347	46229	The four-city tour continues Friday in Kansas City, Missouri.	The four-city tour continues Friday in Kansas City, Missouri.	2204757	1471980447659	1471980447756	 	32
4347	46229	The four-city tour continues Friday in Kansas City, Missouri.	The four-city tour continues Friday in Kansas City, Missouri.	2204849	1471980448140	1471980448371	SHIFT	16
4347	46229	The four-city tour continues Friday in Kansas City, Missouri.	The four-city tour continues Friday in Kansas City, Missouri.	2204854	1471980448315	1471980448403	F	70
4347	46229	The four-city tour continues Friday in Kansas City, Missouri.	The four-city tour continues Friday in Kansas City, Missouri.	2204859	1471980448483	1471980448571	r	82
4347	46229	The four-city tour continues Friday in Kansas City, Missouri.	The four-city tour continues Friday in Kansas City, Missouri.	2204864	1471980448676	1471980448804	i	73
4347	46229	The four-city tour continues Friday in Kansas City, Missouri.	The four-city tour continues Friday in Kansas City, Missouri.	2204870	1471980448907	1471980449075	d	68
4347	46229	The four-city tour continues Friday in Kansas City, Missouri.	The four-city tour continues Friday in Kansas City, Missouri.	2204875	1471980449076	1471980449212	a	65
4347	46229	The four-city tour continues Friday in Kansas City, Missouri.	The four-city tour continues Friday in Kansas City, Missouri.	2204940	1471980449214	1471980449348	y	89
4347	46229	The four-city tour continues Friday in Kansas City, Missouri.	The four-city tour continues Friday in Kansas City, Missouri.	2204944	1471980449323	1471980449465	 	32
4347	46229	The four-city tour continues Friday in Kansas City, Missouri.	The four-city tour continues Friday in Kansas City, Missouri.	2204950	1471980449690	1471980449842	i	73
4347	46229	The four-city tour continues Friday in Kansas City, Missouri.	The four-city tour continues Friday in Kansas City, Missouri.	2204955	1471980449970	1471980450089	n	78
4347	46229	The four-city tour continues Friday in Kansas City, Missouri.	The four-city tour continues Friday in Kansas City, Missouri.	2204960	1471980450146	1471980450258	 	32
4347	46229	The four-city tour continues Friday in Kansas City, Missouri.	The four-city tour continues Friday in Kansas City, Missouri.	2205037	1471980450289	1471980450737	SHIFT	16
4347	46229	The four-city tour continues Friday in Kansas City, Missouri.	The four-city tour continues Friday in Kansas City, Missouri.	2205041	1471980450690	1471980450770	K	75
4347	46229	The four-city tour continues Friday in Kansas City, Missouri.	The four-city tour continues Friday in Kansas City, Missouri.	2205045	1471980450818	1471980450938	a	65
4347	46229	The four-city tour continues Friday in Kansas City, Missouri.	The four-city tour continues Friday in Kansas City, Missouri.	2205048	1471980450978	1471980451058	n	78
4347	46229	The four-city tour continues Friday in Kansas City, Missouri.	The four-city tour continues Friday in Kansas City, Missouri.	2205051	1471980451178	1471980451321	s	83
4347	46229	The four-city tour continues Friday in Kansas City, Missouri.	The four-city tour continues Friday in Kansas City, Missouri.	2205054	1471980451346	1471980451497	a	65
4347	46229	The four-city tour continues Friday in Kansas City, Missouri.	The four-city tour continues Friday in Kansas City, Missouri.	2205161	1471980451466	1471980451602	s	83
4347	46229	The four-city tour continues Friday in Kansas City, Missouri.	The four-city tour continues Friday in Kansas City, Missouri.	2205166	1471980451657	1471980451737	 	32
4347	46229	The four-city tour continues Friday in Kansas City, Missouri.	The four-city tour continues Friday in Kansas City, Missouri.	2205173	1471980452090	1471980452346	SHIFT	16
4347	46229	The four-city tour continues Friday in Kansas City, Missouri.	The four-city tour continues Friday in Kansas City, Missouri.	2205175	1471980452274	1471980452409	C	67
4347	46229	The four-city tour continues Friday in Kansas City, Missouri.	The four-city tour continues Friday in Kansas City, Missouri.	2205180	1471980452410	1471980452514	i	73
4347	46229	The four-city tour continues Friday in Kansas City, Missouri.	The four-city tour continues Friday in Kansas City, Missouri.	2205185	1471980452634	1471980452745	t	84
4347	46229	The four-city tour continues Friday in Kansas City, Missouri.	The four-city tour continues Friday in Kansas City, Missouri.	2205189	1471980452793	1471980452898	y	89
4347	46229	The four-city tour continues Friday in Kansas City, Missouri.	The four-city tour continues Friday in Kansas City, Missouri.	2205394	1471980454354	1471980454417	,	188
4347	46229	The four-city tour continues Friday in Kansas City, Missouri.	The four-city tour continues Friday in Kansas City, Missouri.	2205397	1471980454506	1471980454586	 	32
4347	46229	The four-city tour continues Friday in Kansas City, Missouri.	The four-city tour continues Friday in Kansas City, Missouri.	2205404	1471980454586	1471980454794	SHIFT	16
4347	46229	The four-city tour continues Friday in Kansas City, Missouri.	The four-city tour continues Friday in Kansas City, Missouri.	2205408	1471980454697	1471980454794	M	77
4347	46229	The four-city tour continues Friday in Kansas City, Missouri.	The four-city tour continues Friday in Kansas City, Missouri.	2205412	1471980455497	1471980455569	i	73
4347	46229	The four-city tour continues Friday in Kansas City, Missouri.	The four-city tour continues Friday in Kansas City, Missouri.	2205416	1471980455617	1471980455722	s	83
4347	46229	The four-city tour continues Friday in Kansas City, Missouri.	The four-city tour continues Friday in Kansas City, Missouri.	2205511	1471980455818	1471980455930	s	83
4347	46229	The four-city tour continues Friday in Kansas City, Missouri.	The four-city tour continues Friday in Kansas City, Missouri.	2205517	1471980456562	1471980456617	o	79
4347	46229	The four-city tour continues Friday in Kansas City, Missouri.	The four-city tour continues Friday in Kansas City, Missouri.	2205523	1471980456745	1471980456825	u	85
4347	46229	The four-city tour continues Friday in Kansas City, Missouri.	The four-city tour continues Friday in Kansas City, Missouri.	2205527	1471980457106	1471980457153	r	82
4347	46229	The four-city tour continues Friday in Kansas City, Missouri.	The four-city tour continues Friday in Kansas City, Missouri.	2205531	1471980457226	1471980457298	i	73
4347	46229	The four-city tour continues Friday in Kansas City, Missouri.	The four-city tour continues Friday in Kansas City, Missouri.	2205583	1471980457714	1471980457793	.	190
4347	46302	We are looking at military assistance.	We are looking at military assistance.	2205749	1471980459930	1471980460178	SHIFT	16
4347	46302	We are looking at military assistance.	We are looking at military assistance.	2205754	1471980460130	1471980460249	W	87
4347	46302	We are looking at military assistance.	We are looking at military assistance.	2205757	1471980460346	1471980460434	e	69
4347	46302	We are looking at military assistance.	We are looking at military assistance.	2205762	1471980460474	1471980460586	 	32
4347	46302	We are looking at military assistance.	We are looking at military assistance.	2205767	1471980460642	1471980460746	a	65
4347	46302	We are looking at military assistance.	We are looking at military assistance.	2205772	1471980460746	1471980460834	r	82
4347	46302	We are looking at military assistance.	We are looking at military assistance.	2205829	1471980460850	1471980460946	e	69
4347	46302	We are looking at military assistance.	We are looking at military assistance.	2205837	1471980460946	1471980461042	 	32
4347	46302	We are looking at military assistance.	We are looking at military assistance.	2205840	1471980461153	1471980461281	l	76
4347	46302	We are looking at military assistance.	We are looking at military assistance.	2205845	1471980461386	1471980461458	o	79
4347	46302	We are looking at military assistance.	We are looking at military assistance.	2205849	1471980461529	1471980461609	o	79
4347	46302	We are looking at military assistance.	We are looking at military assistance.	2205915	1471980461714	1471980461810	k	75
4347	46302	We are looking at military assistance.	We are looking at military assistance.	2205918	1471980461985	1471980462058	i	73
4347	46302	We are looking at military assistance.	We are looking at military assistance.	2205927	1471980462106	1471980462218	n	78
4347	46302	We are looking at military assistance.	We are looking at military assistance.	2205931	1471980462321	1471980462401	g	71
4347	46302	We are looking at military assistance.	We are looking at military assistance.	2205936	1471980462562	1471980462674	 	32
4347	46302	We are looking at military assistance.	We are looking at military assistance.	2206033	1471980462754	1471980462898	a	65
4347	46302	We are looking at military assistance.	We are looking at military assistance.	2206036	1471980463138	1471980463298	t	84
4347	46302	We are looking at military assistance.	We are looking at military assistance.	2206039	1471980463299	1471980463418	 	32
4347	46302	We are looking at military assistance.	We are looking at military assistance.	2206042	1471980463706	1471980463785	m	77
4347	46302	We are looking at military assistance.	We are looking at military assistance.	2206048	1471980463890	1471980463970	i	73
4347	46302	We are looking at military assistance.	We are looking at military assistance.	2206168	1471980464082	1471980464170	l	76
4347	46302	We are looking at military assistance.	We are looking at military assistance.	2206173	1471980464274	1471980464361	i	73
4347	46302	We are looking at military assistance.	We are looking at military assistance.	2206179	1471980464529	1471980464594	r	82
4347	46302	We are looking at military assistance.	We are looking at military assistance.	2206186	1471980465002	1471980465146	BKSP	8
4347	46302	We are looking at military assistance.	We are looking at military assistance.	2206191	1471980465178	1471980465330	t	84
4347	46302	We are looking at military assistance.	We are looking at military assistance.	2206196	1471980465426	1471980465594	a	65
4347	46302	We are looking at military assistance.	We are looking at military assistance.	2206389	1471980465609	1471980465754	r	82
4347	46302	We are looking at military assistance.	We are looking at military assistance.	2206394	1471980465777	1471980465978	t	84
4347	46302	We are looking at military assistance.	We are looking at military assistance.	2206397	1471980465979	1471980466098	 	32
4347	46302	We are looking at military assistance.	We are looking at military assistance.	2206401	1471980466386	1471980466449	BKSP	8
4347	46302	We are looking at military assistance.	We are looking at military assistance.	2206404	1471980466522	1471980466602	BKSP	8
4347	46302	We are looking at military assistance.	We are looking at military assistance.	2206408	1471980467234	1471980467338	BKSP	8
4347	46302	We are looking at military assistance.	We are looking at military assistance.	2206411	1471980468514	1471980468626	r	82
4347	46302	We are looking at military assistance.	We are looking at military assistance.	2206414	1471980468754	1471980468882	y	89
4347	46302	We are looking at military assistance.	We are looking at military assistance.	2206438	1471980468885	1471980468994	 	32
4347	46302	We are looking at military assistance.	We are looking at military assistance.	2206442	1471980469130	1471980469242	a	65
4347	46302	We are looking at military assistance.	We are looking at military assistance.	2206446	1471980469321	1471980469410	s	83
4347	46302	We are looking at military assistance.	We are looking at military assistance.	2206451	1471980469498	1471980469609	s	83
4347	46302	We are looking at military assistance.	We are looking at military assistance.	2206455	1471980469666	1471980469818	i	73
4347	46302	We are looking at military assistance.	We are looking at military assistance.	2206491	1471980469858	1471980469970	s	83
4347	46302	We are looking at military assistance.	We are looking at military assistance.	2206498	1471980470193	1471980470330	t	84
4347	46302	We are looking at military assistance.	We are looking at military assistance.	2206506	1471980470378	1471980470498	a	65
4347	46302	We are looking at military assistance.	We are looking at military assistance.	2206513	1471980470562	1471980470618	n	66
4347	46302	We are looking at military assistance.	We are looking at military assistance.	2206649	1471980470762	1471980470905	c	67
4347	46302	We are looking at military assistance.	We are looking at military assistance.	2206655	1471980471042	1471980471282	BKSP	8
4347	46302	We are looking at military assistance.	We are looking at military assistance.	2206662	1471980471355	1471980471490	BKSP	8
4347	46302	We are looking at military assistance.	We are looking at military assistance.	2206667	1471980471586	1471980471618	BKSP	8
4347	46302	We are looking at military assistance.	We are looking at military assistance.	2206672	1471980472138	1471980472234	n	78
4347	46302	We are looking at military assistance.	We are looking at military assistance.	2206676	1471980472250	1471980472426	c	67
4347	46302	We are looking at military assistance.	We are looking at military assistance.	2206681	1471980472346	1471980472522	e	69
4347	46302	We are looking at military assistance.	We are looking at military assistance.	2206684	1471980472666	1471980472754	.	190
4347	46323	Rio de Janeiro police freed him after a massive manhunt.	Rio de Janeiro police freed him after a massive manhunt	2206857	1471980474874	1471980475394	SHIFT	16
4347	46323	Rio de Janeiro police freed him after a massive manhunt.	Rio de Janeiro police freed him after a massive manhunt	2206860	1471980475346	1471980475506	R	82
4347	46323	Rio de Janeiro police freed him after a massive manhunt.	Rio de Janeiro police freed him after a massive manhunt	2206864	1471980475442	1471980475594	i	73
4347	46323	Rio de Janeiro police freed him after a massive manhunt.	Rio de Janeiro police freed him after a massive manhunt	2206869	1471980475682	1471980475890	o	79
4347	46323	Rio de Janeiro police freed him after a massive manhunt.	Rio de Janeiro police freed him after a massive manhunt	2206874	1471980475891	1471980475985	 	32
4347	46323	Rio de Janeiro police freed him after a massive manhunt.	Rio de Janeiro police freed him after a massive manhunt	2206882	1471980476154	1471980476218	a	65
4347	46323	Rio de Janeiro police freed him after a massive manhunt.	Rio de Janeiro police freed him after a massive manhunt	2207023	1471980476443	1471980476570	BKSP	8
4347	46323	Rio de Janeiro police freed him after a massive manhunt.	Rio de Janeiro police freed him after a massive manhunt	2207029	1471980476570	1471980476674	d	68
4347	46323	Rio de Janeiro police freed him after a massive manhunt.	Rio de Janeiro police freed him after a massive manhunt	2207034	1471980476746	1471980476850	e	69
4347	46323	Rio de Janeiro police freed him after a massive manhunt.	Rio de Janeiro police freed him after a massive manhunt	2207038	1471980476851	1471980476970	 	32
4347	46323	Rio de Janeiro police freed him after a massive manhunt.	Rio de Janeiro police freed him after a massive manhunt	2207041	1471980477418	1471980477490	BKSP	8
4347	46323	Rio de Janeiro police freed him after a massive manhunt.	Rio de Janeiro police freed him after a massive manhunt	2207045	1471980477594	1471980477634	BKSP	8
4347	46323	Rio de Janeiro police freed him after a massive manhunt.	Rio de Janeiro police freed him after a massive manhunt	2207049	1471980478170	1471980478290	e	69
4347	46323	Rio de Janeiro police freed him after a massive manhunt.	Rio de Janeiro police freed him after a massive manhunt	2207054	1471980478322	1471980478474	 	32
4347	46323	Rio de Janeiro police freed him after a massive manhunt.	Rio de Janeiro police freed him after a massive manhunt	2207164	1471980478626	1471980478746	j	74
4347	46323	Rio de Janeiro police freed him after a massive manhunt.	Rio de Janeiro police freed him after a massive manhunt	2207166	1471980478770	1471980478890	a	65
4347	46323	Rio de Janeiro police freed him after a massive manhunt.	Rio de Janeiro police freed him after a massive manhunt	2207170	1471980479450	1471980479523	BKSP	8
4347	46323	Rio de Janeiro police freed him after a massive manhunt.	Rio de Janeiro police freed him after a massive manhunt	2207175	1471980479603	1471980479667	BKSP	8
4347	46323	Rio de Janeiro police freed him after a massive manhunt.	Rio de Janeiro police freed him after a massive manhunt	2207179	1471980479683	1471980479899	SHIFT	16
4347	46323	Rio de Janeiro police freed him after a massive manhunt.	Rio de Janeiro police freed him after a massive manhunt	2207184	1471980479803	1471980479938	J	74
4347	46323	Rio de Janeiro police freed him after a massive manhunt.	Rio de Janeiro police freed him after a massive manhunt	2207191	1471980480010	1471980480130	a	65
4347	46323	Rio de Janeiro police freed him after a massive manhunt.	Rio de Janeiro police freed him after a massive manhunt	2207198	1471980480250	1471980480378	b	66
4347	46323	Rio de Janeiro police freed him after a massive manhunt.	Rio de Janeiro police freed him after a massive manhunt	2207725	1471980480994	1471980481067	BKSP	8
4347	46323	Rio de Janeiro police freed him after a massive manhunt.	Rio de Janeiro police freed him after a massive manhunt	2207729	1471980481443	1471980481546	n	78
4347	46323	Rio de Janeiro police freed him after a massive manhunt.	Rio de Janeiro police freed him after a massive manhunt	2207732	1471980481547	1471980481626	e	69
4347	46323	Rio de Janeiro police freed him after a massive manhunt.	Rio de Janeiro police freed him after a massive manhunt	2207735	1471980481722	1471980481834	r	82
4347	46323	Rio de Janeiro police freed him after a massive manhunt.	Rio de Janeiro police freed him after a massive manhunt	2207739	1471980482338	1471980482483	i	73
4347	46323	Rio de Janeiro police freed him after a massive manhunt.	Rio de Janeiro police freed him after a massive manhunt	2207747	1471980485626	1471980485706	BKSP	8
4347	46323	Rio de Janeiro police freed him after a massive manhunt.	Rio de Janeiro police freed him after a massive manhunt	2207754	1471980485810	1471980485890	BKSP	8
4347	46323	Rio de Janeiro police freed him after a massive manhunt.	Rio de Janeiro police freed him after a massive manhunt	2207763	1471980485978	1471980486042	BKSP	8
4347	46323	Rio de Janeiro police freed him after a massive manhunt.	Rio de Janeiro police freed him after a massive manhunt	2207772	1471980486122	1471980486210	BKSP	8
4347	46323	Rio de Janeiro police freed him after a massive manhunt.	Rio de Janeiro police freed him after a massive manhunt	2207780	1471980486282	1471980486362	BKSP	8
4347	46323	Rio de Janeiro police freed him after a massive manhunt.	Rio de Janeiro police freed him after a massive manhunt	2207788	1471980486450	1471980486555	BKSP	8
4347	46323	Rio de Janeiro police freed him after a massive manhunt.	Rio de Janeiro police freed him after a massive manhunt	2207797	1471980486786	1471980486874	BKSP	8
4347	46323	Rio de Janeiro police freed him after a massive manhunt.	Rio de Janeiro police freed him after a massive manhunt	2207805	1471980487523	1471980487626	 	32
4347	46323	Rio de Janeiro police freed him after a massive manhunt.	Rio de Janeiro police freed him after a massive manhunt	2207929	1471980488019	1471980488523	SHIFT	16
4347	46323	Rio de Janeiro police freed him after a massive manhunt.	Rio de Janeiro police freed him after a massive manhunt	2207933	1471980488483	1471980488562	J	74
4347	46323	Rio de Janeiro police freed him after a massive manhunt.	Rio de Janeiro police freed him after a massive manhunt	2207938	1471980488651	1471980488731	a	65
4347	46323	Rio de Janeiro police freed him after a massive manhunt.	Rio de Janeiro police freed him after a massive manhunt	2207944	1471980488771	1471980488850	n	78
4347	46323	Rio de Janeiro police freed him after a massive manhunt.	Rio de Janeiro police freed him after a massive manhunt	2207949	1471980489731	1471980489826	e	69
4347	46323	Rio de Janeiro police freed him after a massive manhunt.	Rio de Janeiro police freed him after a massive manhunt	2207951	1471980489962	1471980490034	r	82
4347	46323	Rio de Janeiro police freed him after a massive manhunt.	Rio de Janeiro police freed him after a massive manhunt	2208063	1471980490275	1471980490386	BKSP	8
4347	46323	Rio de Janeiro police freed him after a massive manhunt.	Rio de Janeiro police freed him after a massive manhunt	2208064	1471980490483	1471980490643	i	73
4347	46323	Rio de Janeiro police freed him after a massive manhunt.	Rio de Janeiro police freed him after a massive manhunt	2208067	1471980490706	1471980490834	r	82
4347	46323	Rio de Janeiro police freed him after a massive manhunt.	Rio de Janeiro police freed him after a massive manhunt	2208070	1471980490882	1471980491090	o	79
4347	46323	Rio de Janeiro police freed him after a massive manhunt.	Rio de Janeiro police freed him after a massive manhunt	2208077	1471980491067	1471980491178	 	32
4347	46323	Rio de Janeiro police freed him after a massive manhunt.	Rio de Janeiro police freed him after a massive manhunt	2208082	1471980492074	1471980492138	p	80
4347	46323	Rio de Janeiro police freed him after a massive manhunt.	Rio de Janeiro police freed him after a massive manhunt	2208109	1471980492202	1471980492267	o	79
4347	46323	Rio de Janeiro police freed him after a massive manhunt.	Rio de Janeiro police freed him after a massive manhunt	2208112	1471980492346	1471980492410	l	76
4347	46323	Rio de Janeiro police freed him after a massive manhunt.	Rio de Janeiro police freed him after a massive manhunt	2208115	1471980492490	1471980492597	i	73
4347	46323	Rio de Janeiro police freed him after a massive manhunt.	Rio de Janeiro police freed him after a massive manhunt	2208118	1471980492597	1471980492842	c	67
4347	46323	Rio de Janeiro police freed him after a massive manhunt.	Rio de Janeiro police freed him after a massive manhunt	2208201	1471980492763	1471980492914	e	69
4347	46323	Rio de Janeiro police freed him after a massive manhunt.	Rio de Janeiro police freed him after a massive manhunt	2208204	1471980492891	1471980493019	 	32
4347	46323	Rio de Janeiro police freed him after a massive manhunt.	Rio de Janeiro police freed him after a massive manhunt	2208206	1471980493618	1471980493738	f	70
4347	46323	Rio de Janeiro police freed him after a massive manhunt.	Rio de Janeiro police freed him after a massive manhunt	2208209	1471980493866	1471980493939	r	82
4347	46323	Rio de Janeiro police freed him after a massive manhunt.	Rio de Janeiro police freed him after a massive manhunt	2208213	1471980494090	1471980494170	e	69
4347	46323	Rio de Janeiro police freed him after a massive manhunt.	Rio de Janeiro police freed him after a massive manhunt	2208216	1471980494242	1471980494307	e	69
4347	46323	Rio de Janeiro police freed him after a massive manhunt.	Rio de Janeiro police freed him after a massive manhunt	2208376	1471980494418	1471980494530	d	68
4347	46323	Rio de Janeiro police freed him after a massive manhunt.	Rio de Janeiro police freed him after a massive manhunt	2208382	1471980494563	1471980494651	 	32
4347	46323	Rio de Janeiro police freed him after a massive manhunt.	Rio de Janeiro police freed him after a massive manhunt	2208386	1471980496154	1471980496242	h	72
4347	46323	Rio de Janeiro police freed him after a massive manhunt.	Rio de Janeiro police freed him after a massive manhunt	2208389	1471980496290	1471980496386	i	73
4347	46323	Rio de Janeiro police freed him after a massive manhunt.	Rio de Janeiro police freed him after a massive manhunt	2208392	1471980496443	1471980496594	m	77
4347	46323	Rio de Janeiro police freed him after a massive manhunt.	Rio de Janeiro police freed him after a massive manhunt	2208465	1471980496626	1471980496754	 	32
4347	46323	Rio de Janeiro police freed him after a massive manhunt.	Rio de Janeiro police freed him after a massive manhunt	2208469	1471980496882	1471980497026	a	65
4347	46323	Rio de Janeiro police freed him after a massive manhunt.	Rio de Janeiro police freed him after a massive manhunt	2208473	1471980497267	1471980497338	f	70
4347	46323	Rio de Janeiro police freed him after a massive manhunt.	Rio de Janeiro police freed him after a massive manhunt	2208478	1471980497435	1471980497515	t	84
4347	46323	Rio de Janeiro police freed him after a massive manhunt.	Rio de Janeiro police freed him after a massive manhunt	2208484	1471980497666	1471980497826	r	82
4347	46323	Rio de Janeiro police freed him after a massive manhunt.	Rio de Janeiro police freed him after a massive manhunt	2208614	1471980497874	1471980498002	 	32
4347	46323	Rio de Janeiro police freed him after a massive manhunt.	Rio de Janeiro police freed him after a massive manhunt	2208616	1471980498059	1471980498194	a	65
4347	46323	Rio de Janeiro police freed him after a massive manhunt.	Rio de Janeiro police freed him after a massive manhunt	2208619	1471980498914	1471980498979	BKSP	8
4347	46323	Rio de Janeiro police freed him after a massive manhunt.	Rio de Janeiro police freed him after a massive manhunt	2208620	1471980499059	1471980499122	BKSP	8
4347	46323	Rio de Janeiro police freed him after a massive manhunt.	Rio de Janeiro police freed him after a massive manhunt	2208622	1471980499187	1471980499275	BKSP	8
4347	46323	Rio de Janeiro police freed him after a massive manhunt.	Rio de Janeiro police freed him after a massive manhunt	2208625	1471980499458	1471980499563	e	69
4347	46323	Rio de Janeiro police freed him after a massive manhunt.	Rio de Janeiro police freed him after a massive manhunt	2208627	1471980499618	1471980499738	r	82
4347	46323	Rio de Janeiro police freed him after a massive manhunt.	Rio de Janeiro police freed him after a massive manhunt	2208629	1471980499762	1471980499866	 	32
4347	46323	Rio de Janeiro police freed him after a massive manhunt.	Rio de Janeiro police freed him after a massive manhunt	2208688	1471980499939	1471980500090	a	65
4347	46323	Rio de Janeiro police freed him after a massive manhunt.	Rio de Janeiro police freed him after a massive manhunt	2208694	1471980500458	1471980500546	 	32
4347	46323	Rio de Janeiro police freed him after a massive manhunt.	Rio de Janeiro police freed him after a massive manhunt	2208700	1471980500691	1471980500771	m	77
4347	46323	Rio de Janeiro police freed him after a massive manhunt.	Rio de Janeiro police freed him after a massive manhunt	2208704	1471980500755	1471980500899	a	65
4347	46323	Rio de Janeiro police freed him after a massive manhunt.	Rio de Janeiro police freed him after a massive manhunt	2208709	1471980500900	1471980501019	s	83
4347	46323	Rio de Janeiro police freed him after a massive manhunt.	Rio de Janeiro police freed him after a massive manhunt	2208815	1471980501099	1471980501210	s	83
4347	46323	Rio de Janeiro police freed him after a massive manhunt.	Rio de Janeiro police freed him after a massive manhunt	2208820	1471980501234	1471980501362	i	73
4347	46323	Rio de Janeiro police freed him after a massive manhunt.	Rio de Janeiro police freed him after a massive manhunt	2208827	1471980501435	1471980501570	c	67
4347	46323	Rio de Janeiro police freed him after a massive manhunt.	Rio de Janeiro police freed him after a massive manhunt	2208836	1471980501914	1471980502026	BKSP	8
4347	46323	Rio de Janeiro police freed him after a massive manhunt.	Rio de Janeiro police freed him after a massive manhunt	2208843	1471980502242	1471980502370	v	86
4347	46323	Rio de Janeiro police freed him after a massive manhunt.	Rio de Janeiro police freed him after a massive manhunt	2208849	1471980502515	1471980502643	e	69
4347	46323	Rio de Janeiro police freed him after a massive manhunt.	Rio de Janeiro police freed him after a massive manhunt	2208970	1471980502755	1471980502883	 	32
4347	46323	Rio de Janeiro police freed him after a massive manhunt.	Rio de Janeiro police freed him after a massive manhunt	2208972	1471980503843	1471980503923	m	77
4347	46323	Rio de Janeiro police freed him after a massive manhunt.	Rio de Janeiro police freed him after a massive manhunt	2208974	1471980503939	1471980504011	a	65
4347	46323	Rio de Janeiro police freed him after a massive manhunt.	Rio de Janeiro police freed him after a massive manhunt	2208978	1471980504011	1471980504082	n	78
4347	46323	Rio de Janeiro police freed him after a massive manhunt.	Rio de Janeiro police freed him after a massive manhunt	2208983	1471980504538	1471980504610	h	72
4347	46323	Rio de Janeiro police freed him after a massive manhunt.	Rio de Janeiro police freed him after a massive manhunt	2209105	1471980504675	1471980504754	u	85
4347	46323	Rio de Janeiro police freed him after a massive manhunt.	Rio de Janeiro police freed him after a massive manhunt	2209111	1471980504835	1471980504874	n	66
4347	46323	Rio de Janeiro police freed him after a massive manhunt.	Rio de Janeiro police freed him after a massive manhunt	2209121	1471980505019	1471980505091	t	84
4347	46323	Rio de Janeiro police freed him after a massive manhunt.	Rio de Janeiro police freed him after a massive manhunt	2209304	1471980506275	1471980506338	=	8
4347	46323	Rio de Janeiro police freed him after a massive manhunt.	Rio de Janeiro police freed him after a massive manhunt	2209306	1471980506427	1471980506507	BKSP	8
4347	46323	Rio de Janeiro police freed him after a massive manhunt.	Rio de Janeiro police freed him after a massive manhunt	2209313	1471980506578	1471980506651	BKSP	8
4347	46323	Rio de Janeiro police freed him after a massive manhunt.	Rio de Janeiro police freed him after a massive manhunt	2209318	1471980506738	1471980506803	BKSP	8
4347	46323	Rio de Janeiro police freed him after a massive manhunt.	Rio de Janeiro police freed him after a massive manhunt	2209324	1471980507379	1471980507458	n	78
4347	46323	Rio de Janeiro police freed him after a massive manhunt.	Rio de Janeiro police freed him after a massive manhunt	2209328	1471980507556	1471980507651	y	89
4347	46323	Rio de Janeiro police freed him after a massive manhunt.	Rio de Janeiro police freed him after a massive manhunt	2209333	1471980508291	1471980508355	BKSP	8
4347	46323	Rio de Janeiro police freed him after a massive manhunt.	Rio de Janeiro police freed him after a massive manhunt	2209337	1471980508395	1471980508498	t	84
4347	46323	Rio de Janeiro police freed him after a massive manhunt.	Rio de Janeiro police freed him after a massive manhunt	2209340	1471980508691	1471980508755	DELETE	46
4347	46375	He left the Jets  win over Miami in the second half on October.	He left the Jets win over Miami in the second half on October.	2209591	1471980512610	1471980512866	SHIFT	16
4347	46375	He left the Jets  win over Miami in the second half on October.	He left the Jets win over Miami in the second half on October.	2209595	1471980512851	1471980512946	H	72
4347	46375	He left the Jets  win over Miami in the second half on October.	He left the Jets win over Miami in the second half on October.	2209597	1471980512971	1471980513059	e	69
4347	46375	He left the Jets  win over Miami in the second half on October.	He left the Jets win over Miami in the second half on October.	2209601	1471980513060	1471980513139	 	32
4347	46375	He left the Jets  win over Miami in the second half on October.	He left the Jets win over Miami in the second half on October.	2209604	1471980513211	1471980513307	l	76
4347	46375	He left the Jets  win over Miami in the second half on October.	He left the Jets win over Miami in the second half on October.	2209607	1471980513618	1471980513698	e	69
4347	46375	He left the Jets  win over Miami in the second half on October.	He left the Jets win over Miami in the second half on October.	2209650	1471980513843	1471980513899	f	70
4347	46375	He left the Jets  win over Miami in the second half on October.	He left the Jets win over Miami in the second half on October.	2209652	1471980513939	1471980514059	t	84
4347	46375	He left the Jets  win over Miami in the second half on October.	He left the Jets win over Miami in the second half on October.	2209654	1471980514091	1471980514282	 	32
4347	46375	He left the Jets  win over Miami in the second half on October.	He left the Jets win over Miami in the second half on October.	2209657	1471980514379	1471980514483	t	84
4347	46375	He left the Jets  win over Miami in the second half on October.	He left the Jets win over Miami in the second half on October.	2209660	1471980514570	1471980514731	h	72
4347	46375	He left the Jets  win over Miami in the second half on October.	He left the Jets win over Miami in the second half on October.	2209684	1471980514675	1471980514771	e	69
4347	46375	He left the Jets  win over Miami in the second half on October.	He left the Jets win over Miami in the second half on October.	2209688	1471980514734	1471980514874	 	32
4347	46375	He left the Jets  win over Miami in the second half on October.	He left the Jets win over Miami in the second half on October.	2209692	1471980514915	1471980515147	SHIFT	16
4347	46375	He left the Jets  win over Miami in the second half on October.	He left the Jets win over Miami in the second half on October.	2209696	1471980515083	1471980515242	J	74
4347	46375	He left the Jets  win over Miami in the second half on October.	He left the Jets win over Miami in the second half on October.	2209702	1471980515243	1471980515339	e	69
4347	46375	He left the Jets  win over Miami in the second half on October.	He left the Jets win over Miami in the second half on October.	2209706	1471980515515	1471980515619	t	84
4347	46375	He left the Jets  win over Miami in the second half on October.	He left the Jets win over Miami in the second half on October.	2209712	1471980515619	1471980515747	s	83
4347	46375	He left the Jets  win over Miami in the second half on October.	He left the Jets win over Miami in the second half on October.	2209759	1471980515749	1471980515866	 	32
4347	46375	He left the Jets  win over Miami in the second half on October.	He left the Jets win over Miami in the second half on October.	2209763	1471980516347	1471980516507	w	87
4347	46375	He left the Jets  win over Miami in the second half on October.	He left the Jets win over Miami in the second half on October.	2209768	1471980516530	1471980516603	i	73
4347	46375	He left the Jets  win over Miami in the second half on October.	He left the Jets win over Miami in the second half on October.	2209772	1471980516675	1471980516826	n	78
4347	46375	He left the Jets  win over Miami in the second half on October.	He left the Jets win over Miami in the second half on October.	2209778	1471980516875	1471980517011	 	32
4347	46375	He left the Jets  win over Miami in the second half on October.	He left the Jets win over Miami in the second half on October.	2209870	1471980518251	1471980518315	o	79
4347	46375	He left the Jets  win over Miami in the second half on October.	He left the Jets win over Miami in the second half on October.	2209872	1471980518483	1471980518523	v	86
4347	46375	He left the Jets  win over Miami in the second half on October.	He left the Jets win over Miami in the second half on October.	2209874	1471980518778	1471980518891	e	69
4347	46375	He left the Jets  win over Miami in the second half on October.	He left the Jets win over Miami in the second half on October.	2209879	1471980518963	1471980519074	r	82
4347	46375	He left the Jets  win over Miami in the second half on October.	He left the Jets win over Miami in the second half on October.	2209883	1471980519123	1471980519171	 	32
4347	46375	He left the Jets  win over Miami in the second half on October.	He left the Jets win over Miami in the second half on October.	2209938	1471980519747	1471980519955	SHIFT	16
4347	46375	He left the Jets  win over Miami in the second half on October.	He left the Jets win over Miami in the second half on October.	2209939	1471980519899	1471980519986	M	77
4347	46375	He left the Jets  win over Miami in the second half on October.	He left the Jets win over Miami in the second half on October.	2209940	1471980520043	1471980520123	i	73
4347	46375	He left the Jets  win over Miami in the second half on October.	He left the Jets win over Miami in the second half on October.	2209941	1471980520125	1471980520259	a	65
4347	46375	He left the Jets  win over Miami in the second half on October.	He left the Jets win over Miami in the second half on October.	2209943	1471980520291	1471980520467	m	77
4347	46375	He left the Jets  win over Miami in the second half on October.	He left the Jets win over Miami in the second half on October.	2209946	1471980520683	1471980520803	i	73
4347	46375	He left the Jets  win over Miami in the second half on October.	He left the Jets win over Miami in the second half on October.	2210065	1471980521227	1471980521315	 	32
4347	46375	He left the Jets  win over Miami in the second half on October.	He left the Jets win over Miami in the second half on October.	2210069	1471980521459	1471980521578	i	85
4347	46375	He left the Jets  win over Miami in the second half on October.	He left the Jets win over Miami in the second half on October.	2210072	1471980521947	1471980522059	BKSP	8
4347	46375	He left the Jets  win over Miami in the second half on October.	He left the Jets win over Miami in the second half on October.	2210078	1471980522114	1471980522203	BKSP	8
4347	46375	He left the Jets  win over Miami in the second half on October.	He left the Jets win over Miami in the second half on October.	2210084	1471980522683	1471980522731	i	73
4347	46375	He left the Jets  win over Miami in the second half on October.	He left the Jets win over Miami in the second half on October.	2210091	1471980522835	1471980522923	n	78
4347	46375	He left the Jets  win over Miami in the second half on October.	He left the Jets win over Miami in the second half on October.	2210113	1471980522963	1471980523075	 	32
4347	46375	He left the Jets  win over Miami in the second half on October.	He left the Jets win over Miami in the second half on October.	2210114	1471980523114	1471980523211	t	84
4347	46375	He left the Jets  win over Miami in the second half on October.	He left the Jets win over Miami in the second half on October.	2210115	1471980523283	1471980523411	h	72
4347	46375	He left the Jets  win over Miami in the second half on October.	He left the Jets win over Miami in the second half on October.	2210116	1471980523355	1471980523475	e	69
4347	46375	He left the Jets  win over Miami in the second half on October.	He left the Jets win over Miami in the second half on October.	2210187	1471980523427	1471980523579	 	32
4347	46375	He left the Jets  win over Miami in the second half on October.	He left the Jets win over Miami in the second half on October.	2210189	1471980523835	1471980523963	s	83
4347	46375	He left the Jets  win over Miami in the second half on October.	He left the Jets win over Miami in the second half on October.	2210194	1471980523987	1471980524108	e	69
4347	46375	He left the Jets  win over Miami in the second half on October.	He left the Jets win over Miami in the second half on October.	2210196	1471980524203	1471980524331	c	67
4347	46375	He left the Jets  win over Miami in the second half on October.	He left the Jets win over Miami in the second half on October.	2210202	1471980524362	1471980524443	o	79
4347	46375	He left the Jets  win over Miami in the second half on October.	He left the Jets win over Miami in the second half on October.	2210208	1471980524539	1471980524651	n	78
4347	46375	He left the Jets  win over Miami in the second half on October.	He left the Jets win over Miami in the second half on October.	2210307	1471980524691	1471980524835	f	70
4347	46375	He left the Jets  win over Miami in the second half on October.	He left the Jets win over Miami in the second half on October.	2210309	1471980524836	1471980524955	 	32
4347	46375	He left the Jets  win over Miami in the second half on October.	He left the Jets win over Miami in the second half on October.	2210312	1471980525077	1471980525154	h	71
4347	46375	He left the Jets  win over Miami in the second half on October.	He left the Jets win over Miami in the second half on October.	2210315	1471980525443	1471980525507	BKSP	8
4347	46375	He left the Jets  win over Miami in the second half on October.	He left the Jets win over Miami in the second half on October.	2210320	1471980525587	1471980525651	BKSP	8
4347	46375	He left the Jets  win over Miami in the second half on October.	He left the Jets win over Miami in the second half on October.	2210326	1471980525733	1471980525779	BKSP	8
4347	46375	He left the Jets  win over Miami in the second half on October.	He left the Jets win over Miami in the second half on October.	2210333	1471980525859	1471980525931	BKSP	8
4347	46375	He left the Jets  win over Miami in the second half on October.	He left the Jets win over Miami in the second half on October.	2210341	1471980526339	1471980526499	d	68
4347	46375	He left the Jets  win over Miami in the second half on October.	He left the Jets win over Miami in the second half on October.	2210441	1471980526531	1471980526635	 	32
4347	46375	He left the Jets  win over Miami in the second half on October.	He left the Jets win over Miami in the second half on October.	2210443	1471980526755	1471980526811	h	72
4347	46375	He left the Jets  win over Miami in the second half on October.	He left the Jets win over Miami in the second half on October.	2210444	1471980526812	1471980526915	a	65
4347	46375	He left the Jets  win over Miami in the second half on October.	He left the Jets win over Miami in the second half on October.	2210445	1471980527763	1471980527843	l	76
4347	46375	He left the Jets  win over Miami in the second half on October.	He left the Jets win over Miami in the second half on October.	2210446	1471980528276	1471980528323	 	32
4347	46375	He left the Jets  win over Miami in the second half on October.	He left the Jets win over Miami in the second half on October.	2210530	1471980528651	1471980528747	BKSP	8
4347	46375	He left the Jets  win over Miami in the second half on October.	He left the Jets win over Miami in the second half on October.	2210531	1471980528715	1471980528827	f	70
4347	46375	He left the Jets  win over Miami in the second half on October.	He left the Jets win over Miami in the second half on October.	2210533	1471980528851	1471980528939	 	32
4347	46375	He left the Jets  win over Miami in the second half on October.	He left the Jets win over Miami in the second half on October.	2210536	1471980529075	1471980529219	o	79
4347	46375	He left the Jets  win over Miami in the second half on October.	He left the Jets win over Miami in the second half on October.	2210543	1471980529819	1471980529915	n	78
4347	46375	He left the Jets  win over Miami in the second half on October.	He left the Jets win over Miami in the second half on October.	2210551	1471980529947	1471980530035	 	32
4347	46375	He left the Jets  win over Miami in the second half on October.	He left the Jets win over Miami in the second half on October.	2210611	1471980530003	1471980530155	SHIFT	16
4347	46375	He left the Jets  win over Miami in the second half on October.	He left the Jets win over Miami in the second half on October.	2210614	1471980530131	1471980530227	O	79
4347	46375	He left the Jets  win over Miami in the second half on October.	He left the Jets win over Miami in the second half on October.	2210617	1471980530283	1471980530419	c	67
4347	46375	He left the Jets  win over Miami in the second half on October.	He left the Jets win over Miami in the second half on October.	2210622	1471980530571	1471980530691	t	84
4347	46375	He left the Jets  win over Miami in the second half on October.	He left the Jets win over Miami in the second half on October.	2210626	1471980530715	1471980530795	o	79
4347	46375	He left the Jets  win over Miami in the second half on October.	He left the Jets win over Miami in the second half on October.	2210629	1471980530915	1471980531019	b	66
4347	46375	He left the Jets  win over Miami in the second half on October.	He left the Jets win over Miami in the second half on October.	2210700	1471980531022	1471980531123	e	69
4347	46375	He left the Jets  win over Miami in the second half on October.	He left the Jets win over Miami in the second half on October.	2210702	1471980531195	1471980531315	r	82
4347	46375	He left the Jets  win over Miami in the second half on October.	He left the Jets win over Miami in the second half on October.	2210705	1471980532387	1471980532467	.	190
4347	46405	Did you mean Oxley?	Did you mean Oxley?\	2211011	1471980535547	1471980536307	SHIFT	16
4347	46405	Did you mean Oxley?	Did you mean Oxley?\	2211014	1471980536259	1471980536371	D	68
4347	46405	Did you mean Oxley?	Did you mean Oxley?\	2211017	1471980536395	1471980536491	i	73
4347	46405	Did you mean Oxley?	Did you mean Oxley?\	2211022	1471980536604	1471980536675	d	68
4347	46405	Did you mean Oxley?	Did you mean Oxley?\	2211028	1471980536732	1471980536827	 	32
4347	46405	Did you mean Oxley?	Did you mean Oxley?\	2211033	1471980537259	1471980537339	y	89
4347	46405	Did you mean Oxley?	Did you mean Oxley?\	2211053	1471980537427	1471980537515	o	79
4347	46405	Did you mean Oxley?	Did you mean Oxley?\	2211059	1471980537595	1471980537692	u	85
4347	46405	Did you mean Oxley?	Did you mean Oxley?\	2211066	1471980537723	1471980537835	 	32
4347	46405	Did you mean Oxley?	Did you mean Oxley?\	2211071	1471980537812	1471980537923	m	77
4347	46405	Did you mean Oxley?	Did you mean Oxley?\	2211079	1471980537924	1471980538043	e	69
4347	46405	Did you mean Oxley?	Did you mean Oxley?\	2211206	1471980538243	1471980538395	a	65
4347	46405	Did you mean Oxley?	Did you mean Oxley?\	2211208	1471980538411	1471980538531	n	66
4347	46405	Did you mean Oxley?	Did you mean Oxley?\	2211210	1471980539108	1471980539195	BKSP	8
4347	46405	Did you mean Oxley?	Did you mean Oxley?\	2211212	1471980539443	1471980539484	BKSP	8
4347	46405	Did you mean Oxley?	Did you mean Oxley?\	2211214	1471980539604	1471980539659	BKSP	8
4347	46405	Did you mean Oxley?	Did you mean Oxley?\	2211216	1471980540203	1471980540323	a	65
4347	46405	Did you mean Oxley?	Did you mean Oxley?\	2211219	1471980540324	1471980540396	n	78
4347	46405	Did you mean Oxley?	Did you mean Oxley?\	2211290	1471980540459	1471980540539	 	32
4347	46405	Did you mean Oxley?	Did you mean Oxley?\	2211291	1471980540644	1471980541155	SHIFT	16
4347	46405	Did you mean Oxley?	Did you mean Oxley?\	2211294	1471980541100	1471980541179	O	79
4347	46405	Did you mean Oxley?	Did you mean Oxley?\	2211296	1471980541347	1471980541443	x	88
4347	46405	Did you mean Oxley?	Did you mean Oxley?\	2211297	1471980541531	1471980541619	l	76
4347	46405	Did you mean Oxley?	Did you mean Oxley?\	2211300	1471980541675	1471980541772	e	69
4347	46405	Did you mean Oxley?	Did you mean Oxley?\	2211445	1471980541819	1471980541891	y	89
4347	46405	Did you mean Oxley?	Did you mean Oxley?\	2211453	1471980542852	1471980543163	SHIFT	16
4347	46405	Did you mean Oxley?	Did you mean Oxley?\	2211449	1471980542995	1471980543148	?	191
4347	46405	Did you mean Oxley?	Did you mean Oxley?\	2211457	1471980543276	1471980543396	\	220
4347	46418	If you have questions, please send an email to Enron.	If you have questions, please send an email to Enron.	2211793	1471980547276	1471980548027	SHIFT	16
4347	46418	If you have questions, please send an email to Enron.	If you have questions, please send an email to Enron.	2211795	1471980548003	1471980548091	I	73
4347	46418	If you have questions, please send an email to Enron.	If you have questions, please send an email to Enron.	2211800	1471980548228	1471980548316	f	70
4347	46418	If you have questions, please send an email to Enron.	If you have questions, please send an email to Enron.	2211802	1471980548363	1471980548451	 	32
4347	46418	If you have questions, please send an email to Enron.	If you have questions, please send an email to Enron.	2211804	1471980548531	1471980548604	y	89
4347	46418	If you have questions, please send an email to Enron.	If you have questions, please send an email to Enron.	2211806	1471980548692	1471980548764	o	79
4347	46418	If you have questions, please send an email to Enron.	If you have questions, please send an email to Enron.	2211826	1471980548804	1471980548940	u	85
4347	46418	If you have questions, please send an email to Enron.	If you have questions, please send an email to Enron.	2211828	1471980548941	1471980549084	 	32
4347	46418	If you have questions, please send an email to Enron.	If you have questions, please send an email to Enron.	2211831	1471980549084	1471980549188	h	71
4347	46418	If you have questions, please send an email to Enron.	If you have questions, please send an email to Enron.	2211835	1471980549219	1471980549347	a	65
4347	46418	If you have questions, please send an email to Enron.	If you have questions, please send an email to Enron.	2211908	1471980549667	1471980549715	BKSP	8
4347	46418	If you have questions, please send an email to Enron.	If you have questions, please send an email to Enron.	2211913	1471980549787	1471980549843	BKSP	8
4347	46418	If you have questions, please send an email to Enron.	If you have questions, please send an email to Enron.	2211916	1471980549907	1471980549963	BKSP	8
4347	46418	If you have questions, please send an email to Enron.	If you have questions, please send an email to Enron.	2211922	1471980550411	1471980550491	h	72
4347	46418	If you have questions, please send an email to Enron.	If you have questions, please send an email to Enron.	2211928	1471980550531	1471980550636	a	65
4347	46418	If you have questions, please send an email to Enron.	If you have questions, please send an email to Enron.	2211932	1471980550627	1471980550724	c	86
4347	46418	If you have questions, please send an email to Enron.	If you have questions, please send an email to Enron.	2212088	1471980550707	1471980550827	e	69
4347	46418	If you have questions, please send an email to Enron.	If you have questions, please send an email to Enron.	2212092	1471980550852	1471980550972	 	32
4347	46418	If you have questions, please send an email to Enron.	If you have questions, please send an email to Enron.	2212095	1471980551083	1471980551140	BKSP	8
4347	46418	If you have questions, please send an email to Enron.	If you have questions, please send an email to Enron.	2212100	1471980551228	1471980551276	BKSP	8
4347	46418	If you have questions, please send an email to Enron.	If you have questions, please send an email to Enron.	2212103	1471980551356	1471980551419	BKSP	8
4347	46418	If you have questions, please send an email to Enron.	If you have questions, please send an email to Enron.	2212108	1471980551484	1471980551620	e	69
4347	46418	If you have questions, please send an email to Enron.	If you have questions, please send an email to Enron.	2212113	1471980551621	1471980551707	 	32
4347	46418	If you have questions, please send an email to Enron.	If you have questions, please send an email to Enron.	2212117	1471980552499	1471980552636	q	81
4347	46418	If you have questions, please send an email to Enron.	If you have questions, please send an email to Enron.	2212122	1471980552675	1471980552787	u	85
4347	46418	If you have questions, please send an email to Enron.	If you have questions, please send an email to Enron.	2212263	1471980553083	1471980553188	e	69
4347	46418	If you have questions, please send an email to Enron.	If you have questions, please send an email to Enron.	2212270	1471980553556	1471980553676	s	83
4347	46418	If you have questions, please send an email to Enron.	If you have questions, please send an email to Enron.	2212276	1471980554180	1471980554251	t	84
4347	46418	If you have questions, please send an email to Enron.	If you have questions, please send an email to Enron.	2212282	1471980554539	1471980554667	i	73
4347	46418	If you have questions, please send an email to Enron.	If you have questions, please send an email to Enron.	2212370	1471980554611	1471980554732	o	79
4347	46418	If you have questions, please send an email to Enron.	If you have questions, please send an email to Enron.	2212373	1471980554819	1471980554955	n	78
4347	46418	If you have questions, please send an email to Enron.	If you have questions, please send an email to Enron.	2212378	1471980555012	1471980555148	s	83
4347	46418	If you have questions, please send an email to Enron.	If you have questions, please send an email to Enron.	2212385	1471980555812	1471980555875	,	188
4347	46418	If you have questions, please send an email to Enron.	If you have questions, please send an email to Enron.	2212391	1471980555972	1471980556035	 	32
4347	46418	If you have questions, please send an email to Enron.	If you have questions, please send an email to Enron.	2212395	1471980556132	1471980556211	p	80
4347	46418	If you have questions, please send an email to Enron.	If you have questions, please send an email to Enron.	2212440	1471980556251	1471980556363	l	76
4347	46418	If you have questions, please send an email to Enron.	If you have questions, please send an email to Enron.	2212443	1471980556451	1471980556604	e	69
4347	46418	If you have questions, please send an email to Enron.	If you have questions, please send an email to Enron.	2212446	1471980556524	1471980556788	a	65
4347	46418	If you have questions, please send an email to Enron.	If you have questions, please send an email to Enron.	2212449	1471980556732	1471980556900	s	83
4347	46418	If you have questions, please send an email to Enron.	If you have questions, please send an email to Enron.	2212453	1471980556980	1471980557108	e	69
4347	46418	If you have questions, please send an email to Enron.	If you have questions, please send an email to Enron.	2212482	1471980557124	1471980557228	 	32
4347	46418	If you have questions, please send an email to Enron.	If you have questions, please send an email to Enron.	2212486	1471980557451	1471980557531	s	83
4347	46418	If you have questions, please send an email to Enron.	If you have questions, please send an email to Enron.	2212490	1471980557627	1471980557716	e	69
4347	46418	If you have questions, please send an email to Enron.	If you have questions, please send an email to Enron.	2212493	1471980557747	1471980557859	n	78
4347	46418	If you have questions, please send an email to Enron.	If you have questions, please send an email to Enron.	2212559	1471980557827	1471980557987	d	68
4347	46418	If you have questions, please send an email to Enron.	If you have questions, please send an email to Enron.	2212563	1471980557988	1471980558100	 	32
4347	46418	If you have questions, please send an email to Enron.	If you have questions, please send an email to Enron.	2212568	1471980558123	1471980558254	a	65
4347	46418	If you have questions, please send an email to Enron.	If you have questions, please send an email to Enron.	2212578	1471980558254	1471980558396	n	78
4347	46418	If you have questions, please send an email to Enron.	If you have questions, please send an email to Enron.	2212583	1471980558397	1471980558524	 	32
4347	46418	If you have questions, please send an email to Enron.	If you have questions, please send an email to Enron.	2212587	1471980558804	1471980558859	e	69
4347	46418	If you have questions, please send an email to Enron.	If you have questions, please send an email to Enron.	2212668	1471980559068	1471980559220	m	77
4347	46418	If you have questions, please send an email to Enron.	If you have questions, please send an email to Enron.	2212672	1471980559276	1471980559403	a	65
4347	46418	If you have questions, please send an email to Enron.	If you have questions, please send an email to Enron.	2212678	1471980559404	1471980559499	i	73
4347	46418	If you have questions, please send an email to Enron.	If you have questions, please send an email to Enron.	2212685	1471980559611	1471980559724	l	76
4347	46418	If you have questions, please send an email to Enron.	If you have questions, please send an email to Enron.	2212691	1471980559772	1471980559900	 	32
4347	46418	If you have questions, please send an email to Enron.	If you have questions, please send an email to Enron.	2212741	1471980560027	1471980560180	t	84
4347	46418	If you have questions, please send an email to Enron.	If you have questions, please send an email to Enron.	2212747	1471980560163	1471980560331	o	79
4347	46418	If you have questions, please send an email to Enron.	If you have questions, please send an email to Enron.	2212752	1471980560291	1471980560436	 	32
4347	46418	If you have questions, please send an email to Enron.	If you have questions, please send an email to Enron.	2212760	1471980560611	1471980560827	SHIFT	16
4347	46418	If you have questions, please send an email to Enron.	If you have questions, please send an email to Enron.	2212767	1471980560787	1471980560924	E	69
4347	46418	If you have questions, please send an email to Enron.	If you have questions, please send an email to Enron.	2212956	1471980560852	1471980560980	n	78
4347	46418	If you have questions, please send an email to Enron.	If you have questions, please send an email to Enron.	2212960	1471980561212	1471980561323	r	82
4347	46418	If you have questions, please send an email to Enron.	If you have questions, please send an email to Enron.	2212964	1471980561324	1471980561419	o	79
4347	46418	If you have questions, please send an email to Enron.	If you have questions, please send an email to Enron.	2212970	1471980561516	1471980561611	n	78
4347	46418	If you have questions, please send an email to Enron.	If you have questions, please send an email to Enron.	2212974	1471980562764	1471980562940	.	190
4347	46451	It's going to be ludicrous.	It's going to be ludicrous	2213388	1471980566676	1471980567188	SHIFT	16
4347	46451	It's going to be ludicrous.	It's going to be ludicrous	2213384	1471980567044	1471980567115	I	73
4347	46451	It's going to be ludicrous.	It's going to be ludicrous	2213393	1471980567243	1471980567323	t	84
4347	46451	It's going to be ludicrous.	It's going to be ludicrous	2213399	1471980568020	1471980568115	'	222
4347	46451	It's going to be ludicrous.	It's going to be ludicrous	2213405	1471980568148	1471980568252	s	83
4347	46451	It's going to be ludicrous.	It's going to be ludicrous	2213503	1471980568228	1471980568348	 	32
4347	46451	It's going to be ludicrous.	It's going to be ludicrous	2213509	1471980568828	1471980568916	g	71
4347	46451	It's going to be ludicrous.	It's going to be ludicrous	2213517	1471980569035	1471980569132	o	79
4347	46451	It's going to be ludicrous.	It's going to be ludicrous	2213527	1471980569164	1471980569252	i	73
4347	46451	It's going to be ludicrous.	It's going to be ludicrous	2213540	1471980569356	1471980569428	n	78
4347	46451	It's going to be ludicrous.	It's going to be ludicrous	2213550	1471980569531	1471980569611	g	71
4347	46451	It's going to be ludicrous.	It's going to be ludicrous	2213593	1471980569676	1471980569788	 	32
4347	46451	It's going to be ludicrous.	It's going to be ludicrous	2213600	1471980569889	1471980570009	t	84
4347	46451	It's going to be ludicrous.	It's going to be ludicrous	2213607	1471980569945	1471980570138	o	79
4347	46451	It's going to be ludicrous.	It's going to be ludicrous	2213617	1471980570147	1471980570225	 	32
4347	46451	It's going to be ludicrous.	It's going to be ludicrous	2213624	1471980570288	1471980570417	b	66
4347	46451	It's going to be ludicrous.	It's going to be ludicrous	2213770	1471980570401	1471980570536	e	69
4347	46451	It's going to be ludicrous.	It's going to be ludicrous	2213774	1471980570553	1471980570641	 	32
4347	46451	It's going to be ludicrous.	It's going to be ludicrous	2213780	1471980571353	1471980571417	l	76
4347	46451	It's going to be ludicrous.	It's going to be ludicrous	2213786	1471980571536	1471980571616	u	85
4347	46451	It's going to be ludicrous.	It's going to be ludicrous	2213790	1471980571777	1471980571905	d	68
4347	46451	It's going to be ludicrous.	It's going to be ludicrous	2213800	1471980571921	1471980572017	i	73
4347	46451	It's going to be ludicrous.	It's going to be ludicrous	2213934	1471980572065	1471980572225	c	67
4347	46451	It's going to be ludicrous.	It's going to be ludicrous	2213939	1471980573089	1471980573265	r	82
4347	46451	It's going to be ludicrous.	It's going to be ludicrous	2213948	1471980573266	1471980573361	o	79
4347	46451	It's going to be ludicrous.	It's going to be ludicrous	2213959	1471980573457	1471980573569	u	85
4347	46451	It's going to be ludicrous.	It's going to be ludicrous	2213967	1471980573945	1471980574089	s	83
4347	46467	Brian is working this.	Brain is working this.	2214176	1471980576233	1471980576697	SHIFT	16
4347	46467	Brian is working this.	Brain is working this.	2214177	1471980576649	1471980576729	B	66
4347	46467	Brian is working this.	Brain is working this.	2214179	1471980576824	1471980576952	r	82
4347	46467	Brian is working this.	Brain is working this.	2214180	1471980577057	1471980577185	a	65
4347	46467	Brian is working this.	Brain is working this.	2214182	1471980577154	1471980577240	i	73
4347	46467	Brian is working this.	Brain is working this.	2214188	1471980577321	1471980577441	b	66
4347	46467	Brian is working this.	Brain is working this.	2214283	1471980577857	1471980577961	BKSP	8
4347	46467	Brian is working this.	Brain is working this.	2214287	1471980578129	1471980578233	n	78
4347	46467	Brian is working this.	Brain is working this.	2214295	1471980578305	1471980578425	 	32
4347	46467	Brian is working this.	Brain is working this.	2214299	1471980578721	1471980578913	i	73
4347	46467	Brian is working this.	Brain is working this.	2214305	1471980578865	1471980578993	s	83
4347	46467	Brian is working this.	Brain is working this.	2214513	1471980578953	1471980579081	 	32
4347	46467	Brian is working this.	Brain is working this.	2214514	1471980579121	1471980579289	w	87
4347	46467	Brian is working this.	Brain is working this.	2214516	1471980579385	1471980579545	o	79
4347	46467	Brian is working this.	Brain is working this.	2214518	1471980579841	1471980580001	r	82
4347	46467	Brian is working this.	Brain is working this.	2214521	1471980580609	1471980580649	j	74
4347	46467	Brian is working this.	Brain is working this.	2214524	1471980580961	1471980581049	BKSP	8
4347	46467	Brian is working this.	Brain is working this.	2214527	1471980581185	1471980581265	k	75
4347	46467	Brian is working this.	Brain is working this.	2214557	1471980581345	1471980581409	i	73
4347	46467	Brian is working this.	Brain is working this.	2214564	1471980581505	1471980581577	n	78
4347	46467	Brian is working this.	Brain is working this.	2214575	1471980581705	1471980581745	h	71
4347	46467	Brian is working this.	Brain is working this.	2214586	1471980581929	1471980582041	 	32
4347	46467	Brian is working this.	Brain is working this.	2214772	1471980582305	1471980582353	BKSP	8
4347	46467	Brian is working this.	Brain is working this.	2214774	1471980582449	1471980582521	BKSP	8
4347	46467	Brian is working this.	Brain is working this.	2214776	1471980582665	1471980582793	 	32
4347	46467	Brian is working this.	Brain is working this.	2214779	1471980583465	1471980583553	t	84
4347	46467	Brian is working this.	Brain is working this.	2214783	1471980583649	1471980583825	h	72
4347	46467	Brian is working this.	Brain is working this.	2214787	1471980583793	1471980583969	i	73
4347	46467	Brian is working this.	Brain is working this.	2214918	1471980583905	1471980584017	s	83
4347	46467	Brian is working this.	Brain is working this.	2214921	1471980585481	1471980585569	.	190
4347	46487	We are all fragile.	We are all fragile.	2215434	1471980589489	1471980590889	SHIFT	16
4347	46487	We are all fragile.	We are all fragile.	2215437	1471980590857	1471980590961	W	87
4347	46487	We are all fragile.	We are all fragile.	2215442	1471980591169	1471980591289	 	32
4347	46487	We are all fragile.	We are all fragile.	2215448	1471980591482	1471980591593	BKSP	8
4347	46487	We are all fragile.	We are all fragile.	2215456	1471980591665	1471980591785	e	69
4347	46487	We are all fragile.	We are all fragile.	2215462	1471980591786	1471980591889	 	32
4347	46487	We are all fragile.	We are all fragile.	2215467	1471980592009	1471980592154	a	65
4347	46487	We are all fragile.	We are all fragile.	2215510	1471980592209	1471980592345	r	82
4347	46487	We are all fragile.	We are all fragile.	2215512	1471980592433	1471980592601	e	69
4347	46487	We are all fragile.	We are all fragile.	2215516	1471980592617	1471980592721	 	32
4347	46487	We are all fragile.	We are all fragile.	2215520	1471980592898	1471980593001	a	65
4347	46487	We are all fragile.	We are all fragile.	2215651	1471980592986	1471980593065	l	76
4347	46487	We are all fragile.	We are all fragile.	2215657	1471980593154	1471980593241	l	76
4347	46487	We are all fragile.	We are all fragile.	2215662	1471980593322	1471980593425	 	32
4347	46487	We are all fragile.	We are all fragile.	2215668	1471980593673	1471980593809	f	70
4347	46487	We are all fragile.	We are all fragile.	2215670	1471980594129	1471980594281	r	82
4347	46487	We are all fragile.	We are all fragile.	2215672	1471980594282	1471980594417	a	65
4347	46487	We are all fragile.	We are all fragile.	2215792	1471980595154	1471980595234	g	71
4347	46487	We are all fragile.	We are all fragile.	2215795	1471980595273	1471980595353	i	73
4347	46487	We are all fragile.	We are all fragile.	2215798	1471980595449	1471980595537	l	76
4347	46487	We are all fragile.	We are all fragile.	2215802	1471980595497	1471980595609	e	69
4347	46487	We are all fragile.	We are all fragile.	2215806	1471980596194	1471980596265	.	190
