PARTICIPANT_ID	TEST_SECTION_ID	SENTENCE	USER_INPUT	KEYSTROKE_ID	PRESS_TIME	RELEASE_TIME	LETTER	KEYCODE
4350	46104	England star Paul Gascoigne was one of the recipients of the loans.	Englan star Paul Gascoigne was one of the recipients of the loans.	2196728	1471980338977	1471980339174	SHIFT	16
4350	46104	England star Paul Gascoigne was one of the recipients of the loans.	Englan star Paul Gascoigne was one of the recipients of the loans.	2196732	1471980339107	1471980339262	E	69
4350	46104	England star Paul Gascoigne was one of the recipients of the loans.	Englan star Paul Gascoigne was one of the recipients of the loans.	2196739	1471980339318	1471980339422	n	78
4350	46104	England star Paul Gascoigne was one of the recipients of the loans.	Englan star Paul Gascoigne was one of the recipients of the loans.	2196748	1471980339494	1471980339566	h	71
4350	46104	England star Paul Gascoigne was one of the recipients of the loans.	Englan star Paul Gascoigne was one of the recipients of the loans.	2196754	1471980339606	1471980339750	l	76
4350	46104	England star Paul Gascoigne was one of the recipients of the loans.	Englan star Paul Gascoigne was one of the recipients of the loans.	2196847	1471980340006	1471980340094	BKSP	8
4350	46104	England star Paul Gascoigne was one of the recipients of the loans.	Englan star Paul Gascoigne was one of the recipients of the loans.	2196852	1471980340150	1471980340238	BKSP	8
4350	46104	England star Paul Gascoigne was one of the recipients of the loans.	Englan star Paul Gascoigne was one of the recipients of the loans.	2196854	1471980340326	1471980340446	l	76
4350	46104	England star Paul Gascoigne was one of the recipients of the loans.	Englan star Paul Gascoigne was one of the recipients of the loans.	2196856	1471980340494	1471980340606	a	65
4350	46104	England star Paul Gascoigne was one of the recipients of the loans.	Englan star Paul Gascoigne was one of the recipients of the loans.	2196859	1471980340542	1471980340694	n	78
4350	46104	England star Paul Gascoigne was one of the recipients of the loans.	Englan star Paul Gascoigne was one of the recipients of the loans.	2196866	1471980340726	1471980340862	 	32
4350	46104	England star Paul Gascoigne was one of the recipients of the loans.	Englan star Paul Gascoigne was one of the recipients of the loans.	2196874	1471980340863	1471980340990	s	83
4350	46104	England star Paul Gascoigne was one of the recipients of the loans.	Englan star Paul Gascoigne was one of the recipients of the loans.	2196925	1471980340994	1471980341102	t	84
4350	46104	England star Paul Gascoigne was one of the recipients of the loans.	Englan star Paul Gascoigne was one of the recipients of the loans.	2196930	1471980341126	1471980341246	a	65
4350	46104	England star Paul Gascoigne was one of the recipients of the loans.	Englan star Paul Gascoigne was one of the recipients of the loans.	2196937	1471980341182	1471980341294	r	82
4350	46104	England star Paul Gascoigne was one of the recipients of the loans.	Englan star Paul Gascoigne was one of the recipients of the loans.	2196942	1471980341454	1471980341598	 	32
4350	46104	England star Paul Gascoigne was one of the recipients of the loans.	Englan star Paul Gascoigne was one of the recipients of the loans.	2196946	1471980341470	1471980341742	SHIFT	16
4350	46104	England star Paul Gascoigne was one of the recipients of the loans.	Englan star Paul Gascoigne was one of the recipients of the loans.	2197007	1471980341694	1471980341830	P	80
4350	46104	England star Paul Gascoigne was one of the recipients of the loans.	Englan star Paul Gascoigne was one of the recipients of the loans.	2197011	1471980341854	1471980341974	a	65
4350	46104	England star Paul Gascoigne was one of the recipients of the loans.	Englan star Paul Gascoigne was one of the recipients of the loans.	2197014	1471980341942	1471980342070	u	85
4350	46104	England star Paul Gascoigne was one of the recipients of the loans.	Englan star Paul Gascoigne was one of the recipients of the loans.	2197018	1471980342078	1471980342206	l	76
4350	46104	England star Paul Gascoigne was one of the recipients of the loans.	Englan star Paul Gascoigne was one of the recipients of the loans.	2197024	1471980342214	1471980342342	 	32
4350	46104	England star Paul Gascoigne was one of the recipients of the loans.	Englan star Paul Gascoigne was one of the recipients of the loans.	2197028	1471980342302	1471980342526	SHIFT	16
4350	46104	England star Paul Gascoigne was one of the recipients of the loans.	Englan star Paul Gascoigne was one of the recipients of the loans.	2197057	1471980342470	1471980342654	G	71
4350	46104	England star Paul Gascoigne was one of the recipients of the loans.	Englan star Paul Gascoigne was one of the recipients of the loans.	2197061	1471980342614	1471980342814	a	65
4350	46104	England star Paul Gascoigne was one of the recipients of the loans.	Englan star Paul Gascoigne was one of the recipients of the loans.	2197067	1471980342766	1471980342878	s	83
4350	46104	England star Paul Gascoigne was one of the recipients of the loans.	Englan star Paul Gascoigne was one of the recipients of the loans.	2197073	1471980342958	1471980343038	c	67
4350	46104	England star Paul Gascoigne was one of the recipients of the loans.	Englan star Paul Gascoigne was one of the recipients of the loans.	2197079	1471980343054	1471980343214	o	79
4350	46104	England star Paul Gascoigne was one of the recipients of the loans.	Englan star Paul Gascoigne was one of the recipients of the loans.	2197177	1471980343150	1471980343262	i	73
4350	46104	England star Paul Gascoigne was one of the recipients of the loans.	Englan star Paul Gascoigne was one of the recipients of the loans.	2197182	1471980343374	1471980343470	h	72
4350	46104	England star Paul Gascoigne was one of the recipients of the loans.	Englan star Paul Gascoigne was one of the recipients of the loans.	2197189	1471980343630	1471980343694	n	78
4350	46104	England star Paul Gascoigne was one of the recipients of the loans.	Englan star Paul Gascoigne was one of the recipients of the loans.	2197193	1471980343926	1471980344006	BKSP	8
4350	46104	England star Paul Gascoigne was one of the recipients of the loans.	Englan star Paul Gascoigne was one of the recipients of the loans.	2197195	1471980344070	1471980344158	BKSP	8
4350	46104	England star Paul Gascoigne was one of the recipients of the loans.	Englan star Paul Gascoigne was one of the recipients of the loans.	2197198	1471980344406	1471980344510	g	71
4350	46104	England star Paul Gascoigne was one of the recipients of the loans.	Englan star Paul Gascoigne was one of the recipients of the loans.	2197200	1471980344526	1471980344638	n	78
4350	46104	England star Paul Gascoigne was one of the recipients of the loans.	Englan star Paul Gascoigne was one of the recipients of the loans.	2197202	1471980344662	1471980344782	e	69
4350	46104	England star Paul Gascoigne was one of the recipients of the loans.	Englan star Paul Gascoigne was one of the recipients of the loans.	2197246	1471980344758	1471980344870	 	32
4350	46104	England star Paul Gascoigne was one of the recipients of the loans.	Englan star Paul Gascoigne was one of the recipients of the loans.	2197251	1471980344918	1471980345062	w	87
4350	46104	England star Paul Gascoigne was one of the recipients of the loans.	Englan star Paul Gascoigne was one of the recipients of the loans.	2197258	1471980345038	1471980345182	a	65
4350	46104	England star Paul Gascoigne was one of the recipients of the loans.	Englan star Paul Gascoigne was one of the recipients of the loans.	2197262	1471980345110	1471980345262	s	83
4350	46104	England star Paul Gascoigne was one of the recipients of the loans.	Englan star Paul Gascoigne was one of the recipients of the loans.	2197269	1471980345270	1471980345454	o	79
4350	46104	England star Paul Gascoigne was one of the recipients of the loans.	Englan star Paul Gascoigne was one of the recipients of the loans.	2197322	1471980345366	1471980345470	n	78
4350	46104	England star Paul Gascoigne was one of the recipients of the loans.	Englan star Paul Gascoigne was one of the recipients of the loans.	2197326	1471980345710	1471980345790	BKSP	8
4350	46104	England star Paul Gascoigne was one of the recipients of the loans.	Englan star Paul Gascoigne was one of the recipients of the loans.	2197330	1471980345846	1471980345926	BKSP	8
4350	46104	England star Paul Gascoigne was one of the recipients of the loans.	Englan star Paul Gascoigne was one of the recipients of the loans.	2197335	1471980345942	1471980346062	 	32
4350	46104	England star Paul Gascoigne was one of the recipients of the loans.	Englan star Paul Gascoigne was one of the recipients of the loans.	2197340	1471980346038	1471980346174	o	79
4350	46104	England star Paul Gascoigne was one of the recipients of the loans.	Englan star Paul Gascoigne was one of the recipients of the loans.	2197344	1471980346126	1471980346270	n	78
4350	46104	England star Paul Gascoigne was one of the recipients of the loans.	Englan star Paul Gascoigne was one of the recipients of the loans.	2197348	1471980346214	1471980346342	e	69
4350	46104	England star Paul Gascoigne was one of the recipients of the loans.	Englan star Paul Gascoigne was one of the recipients of the loans.	2197365	1471980346310	1471980346430	 	32
4350	46104	England star Paul Gascoigne was one of the recipients of the loans.	Englan star Paul Gascoigne was one of the recipients of the loans.	2197371	1471980346350	1471980346542	o	79
4350	46104	England star Paul Gascoigne was one of the recipients of the loans.	Englan star Paul Gascoigne was one of the recipients of the loans.	2197377	1471980346438	1471980346550	f	70
4350	46104	England star Paul Gascoigne was one of the recipients of the loans.	Englan star Paul Gascoigne was one of the recipients of the loans.	2197381	1471980346518	1471980346630	 	32
4350	46104	England star Paul Gascoigne was one of the recipients of the loans.	Englan star Paul Gascoigne was one of the recipients of the loans.	2197384	1471980346614	1471980346782	t	84
4350	46104	England star Paul Gascoigne was one of the recipients of the loans.	Englan star Paul Gascoigne was one of the recipients of the loans.	2197421	1471980346638	1471980346790	h	72
4350	46104	England star Paul Gascoigne was one of the recipients of the loans.	Englan star Paul Gascoigne was one of the recipients of the loans.	2197424	1471980346694	1471980346846	e	69
4350	46104	England star Paul Gascoigne was one of the recipients of the loans.	Englan star Paul Gascoigne was one of the recipients of the loans.	2197428	1471980346742	1471980346870	 	32
4350	46104	England star Paul Gascoigne was one of the recipients of the loans.	Englan star Paul Gascoigne was one of the recipients of the loans.	2197430	1471980346918	1471980347054	r	82
4350	46104	England star Paul Gascoigne was one of the recipients of the loans.	Englan star Paul Gascoigne was one of the recipients of the loans.	2197432	1471980346990	1471980347134	e	69
4350	46104	England star Paul Gascoigne was one of the recipients of the loans.	Englan star Paul Gascoigne was one of the recipients of the loans.	2197433	1471980347135	1471980347286	c	67
4350	46104	England star Paul Gascoigne was one of the recipients of the loans.	Englan star Paul Gascoigne was one of the recipients of the loans.	2197434	1471980347238	1471980347342	i	73
4350	46104	England star Paul Gascoigne was one of the recipients of the loans.	Englan star Paul Gascoigne was one of the recipients of the loans.	2197435	1471980347406	1471980347534	p	80
4350	46104	England star Paul Gascoigne was one of the recipients of the loans.	Englan star Paul Gascoigne was one of the recipients of the loans.	2197461	1471980347758	1471980347870	i	73
4350	46104	England star Paul Gascoigne was one of the recipients of the loans.	Englan star Paul Gascoigne was one of the recipients of the loans.	2197464	1471980347894	1471980348070	e	69
4350	46104	England star Paul Gascoigne was one of the recipients of the loans.	Englan star Paul Gascoigne was one of the recipients of the loans.	2197469	1471980348022	1471980348134	n	78
4350	46104	England star Paul Gascoigne was one of the recipients of the loans.	Englan star Paul Gascoigne was one of the recipients of the loans.	2197475	1471980348166	1471980348310	t	84
4350	46104	England star Paul Gascoigne was one of the recipients of the loans.	Englan star Paul Gascoigne was one of the recipients of the loans.	2197480	1471980348311	1471980348446	s	83
4350	46104	England star Paul Gascoigne was one of the recipients of the loans.	Englan star Paul Gascoigne was one of the recipients of the loans.	2197509	1471980348390	1471980348510	 	32
4350	46104	England star Paul Gascoigne was one of the recipients of the loans.	Englan star Paul Gascoigne was one of the recipients of the loans.	2197511	1471980348478	1471980348633	o	79
4350	46104	England star Paul Gascoigne was one of the recipients of the loans.	Englan star Paul Gascoigne was one of the recipients of the loans.	2197515	1471980348558	1471980348686	f	70
4350	46104	England star Paul Gascoigne was one of the recipients of the loans.	Englan star Paul Gascoigne was one of the recipients of the loans.	2197518	1471980348614	1471980348734	 	32
4350	46104	England star Paul Gascoigne was one of the recipients of the loans.	Englan star Paul Gascoigne was one of the recipients of the loans.	2197521	1471980348782	1471980348977	t	84
4350	46104	England star Paul Gascoigne was one of the recipients of the loans.	Englan star Paul Gascoigne was one of the recipients of the loans.	2197588	1471980348830	1471980348982	h	72
4350	46104	England star Paul Gascoigne was one of the recipients of the loans.	Englan star Paul Gascoigne was one of the recipients of the loans.	2197590	1471980348902	1471980349062	e	69
4350	46104	England star Paul Gascoigne was one of the recipients of the loans.	Englan star Paul Gascoigne was one of the recipients of the loans.	2197595	1471980348958	1471980349090	 	32
4350	46104	England star Paul Gascoigne was one of the recipients of the loans.	Englan star Paul Gascoigne was one of the recipients of the loans.	2197599	1471980349070	1471980349174	l	76
4350	46104	England star Paul Gascoigne was one of the recipients of the loans.	Englan star Paul Gascoigne was one of the recipients of the loans.	2197602	1471980349230	1471980349374	o	79
4350	46104	England star Paul Gascoigne was one of the recipients of the loans.	Englan star Paul Gascoigne was one of the recipients of the loans.	2197605	1471980349414	1471980349566	a	65
4350	46104	England star Paul Gascoigne was one of the recipients of the loans.	Englan star Paul Gascoigne was one of the recipients of the loans.	2197611	1471980349678	1471980349766	n	78
4350	46104	England star Paul Gascoigne was one of the recipients of the loans.	Englan star Paul Gascoigne was one of the recipients of the loans.	2197616	1471980349990	1471980350126	s	83
4350	46104	England star Paul Gascoigne was one of the recipients of the loans.	Englan star Paul Gascoigne was one of the recipients of the loans.	2197620	1471980350142	1471980350222	.	190
4350	46127	Avoid starting either back in Week 10 if at all possible.	Avoid starting either back in Week 10 if at all possible.	2197772	1471980352238	1471980352430	SHIFT	16
4350	46127	Avoid starting either back in Week 10 if at all possible.	Avoid starting either back in Week 10 if at all possible.	2197775	1471980352350	1471980352470	A	65
4350	46127	Avoid starting either back in Week 10 if at all possible.	Avoid starting either back in Week 10 if at all possible.	2197780	1471980352558	1471980352670	v	86
4350	46127	Avoid starting either back in Week 10 if at all possible.	Avoid starting either back in Week 10 if at all possible.	2197783	1471980352654	1471980352822	o	79
4350	46127	Avoid starting either back in Week 10 if at all possible.	Avoid starting either back in Week 10 if at all possible.	2197785	1471980352742	1471980352862	i	73
4350	46127	Avoid starting either back in Week 10 if at all possible.	Avoid starting either back in Week 10 if at all possible.	2197787	1471980352870	1471980352982	d	68
4350	46127	Avoid starting either back in Week 10 if at all possible.	Avoid starting either back in Week 10 if at all possible.	2197813	1471980352974	1471980353102	 	32
4350	46127	Avoid starting either back in Week 10 if at all possible.	Avoid starting either back in Week 10 if at all possible.	2197816	1471980353086	1471980353214	s	83
4350	46127	Avoid starting either back in Week 10 if at all possible.	Avoid starting either back in Week 10 if at all possible.	2197818	1471980353198	1471980353294	t	84
4350	46127	Avoid starting either back in Week 10 if at all possible.	Avoid starting either back in Week 10 if at all possible.	2197823	1471980353295	1471980353438	a	65
4350	46127	Avoid starting either back in Week 10 if at all possible.	Avoid starting either back in Week 10 if at all possible.	2197832	1471980353374	1471980353470	r	82
4350	46127	Avoid starting either back in Week 10 if at all possible.	Avoid starting either back in Week 10 if at all possible.	2197837	1471980353526	1471980353646	t	84
4350	46127	Avoid starting either back in Week 10 if at all possible.	Avoid starting either back in Week 10 if at all possible.	2197855	1471980353670	1471980353798	i	73
4350	46127	Avoid starting either back in Week 10 if at all possible.	Avoid starting either back in Week 10 if at all possible.	2197858	1471980353734	1471980353878	n	78
4350	46127	Avoid starting either back in Week 10 if at all possible.	Avoid starting either back in Week 10 if at all possible.	2197864	1471980353814	1471980353918	g	71
4350	46127	Avoid starting either back in Week 10 if at all possible.	Avoid starting either back in Week 10 if at all possible.	2197871	1471980353879	1471980353982	 	32
4350	46127	Avoid starting either back in Week 10 if at all possible.	Avoid starting either back in Week 10 if at all possible.	2197876	1471980354134	1471980354262	e	69
4350	46127	Avoid starting either back in Week 10 if at all possible.	Avoid starting either back in Week 10 if at all possible.	2197885	1471980354238	1471980354358	i	73
4350	46127	Avoid starting either back in Week 10 if at all possible.	Avoid starting either back in Week 10 if at all possible.	2197887	1471980354342	1471980354454	t	84
4350	46127	Avoid starting either back in Week 10 if at all possible.	Avoid starting either back in Week 10 if at all possible.	2197888	1471980354414	1471980354542	h	72
4350	46127	Avoid starting either back in Week 10 if at all possible.	Avoid starting either back in Week 10 if at all possible.	2197891	1471980354478	1471980354614	e	69
4350	46127	Avoid starting either back in Week 10 if at all possible.	Avoid starting either back in Week 10 if at all possible.	2197927	1471980354543	1471980354646	r	82
4350	46127	Avoid starting either back in Week 10 if at all possible.	Avoid starting either back in Week 10 if at all possible.	2197933	1471980354578	1471980354694	 	32
4350	46127	Avoid starting either back in Week 10 if at all possible.	Avoid starting either back in Week 10 if at all possible.	2197936	1471980354678	1471980354798	b	66
4350	46127	Avoid starting either back in Week 10 if at all possible.	Avoid starting either back in Week 10 if at all possible.	2197941	1471980354774	1471980354894	a	65
4350	46127	Avoid starting either back in Week 10 if at all possible.	Avoid starting either back in Week 10 if at all possible.	2197945	1471980354830	1471980354966	c	67
4350	46127	Avoid starting either back in Week 10 if at all possible.	Avoid starting either back in Week 10 if at all possible.	2197949	1471980354902	1471980355054	k	75
4350	46127	Avoid starting either back in Week 10 if at all possible.	Avoid starting either back in Week 10 if at all possible.	2197962	1471980355006	1471980355142	 	32
4350	46127	Avoid starting either back in Week 10 if at all possible.	Avoid starting either back in Week 10 if at all possible.	2197967	1471980355142	1471980355278	i	73
4350	46127	Avoid starting either back in Week 10 if at all possible.	Avoid starting either back in Week 10 if at all possible.	2197973	1471980355222	1471980355358	n	78
4350	46127	Avoid starting either back in Week 10 if at all possible.	Avoid starting either back in Week 10 if at all possible.	2197981	1471980355294	1471980355422	 	32
4350	46127	Avoid starting either back in Week 10 if at all possible.	Avoid starting either back in Week 10 if at all possible.	2197993	1471980355390	1471980355510	SHIFT	16
4350	46127	Avoid starting either back in Week 10 if at all possible.	Avoid starting either back in Week 10 if at all possible.	2198003	1471980355462	1471980355606	W	87
4350	46127	Avoid starting either back in Week 10 if at all possible.	Avoid starting either back in Week 10 if at all possible.	2198085	1471980355574	1471980355694	e	69
4350	46127	Avoid starting either back in Week 10 if at all possible.	Avoid starting either back in Week 10 if at all possible.	2198088	1471980355750	1471980355870	e	69
4350	46127	Avoid starting either back in Week 10 if at all possible.	Avoid starting either back in Week 10 if at all possible.	2198092	1471980355862	1471980356014	k	75
4350	46127	Avoid starting either back in Week 10 if at all possible.	Avoid starting either back in Week 10 if at all possible.	2198095	1471980356014	1471980356158	 	32
4350	46127	Avoid starting either back in Week 10 if at all possible.	Avoid starting either back in Week 10 if at all possible.	2198098	1471980356502	1471980356606	1	97
4350	46127	Avoid starting either back in Week 10 if at all possible.	Avoid starting either back in Week 10 if at all possible.	2198102	1471980356654	1471980356766	0	96
4350	46127	Avoid starting either back in Week 10 if at all possible.	Avoid starting either back in Week 10 if at all possible.	2198154	1471980356798	1471980356918	 	32
4350	46127	Avoid starting either back in Week 10 if at all possible.	Avoid starting either back in Week 10 if at all possible.	2198160	1471980357002	1471980357110	o	79
4350	46127	Avoid starting either back in Week 10 if at all possible.	Avoid starting either back in Week 10 if at all possible.	2198165	1471980357126	1471980357238	f	70
4350	46127	Avoid starting either back in Week 10 if at all possible.	Avoid starting either back in Week 10 if at all possible.	2198171	1471980357190	1471980357334	 	32
4350	46127	Avoid starting either back in Week 10 if at all possible.	Avoid starting either back in Week 10 if at all possible.	2198178	1471980357390	1471980357542	a	65
4350	46127	Avoid starting either back in Week 10 if at all possible.	Avoid starting either back in Week 10 if at all possible.	2198267	1471980357718	1471980357806	BKSP	8
4350	46127	Avoid starting either back in Week 10 if at all possible.	Avoid starting either back in Week 10 if at all possible.	2198274	1471980357862	1471980357950	BKSP	8
4350	46127	Avoid starting either back in Week 10 if at all possible.	Avoid starting either back in Week 10 if at all possible.	2198285	1471980358014	1471980358094	BKSP	8
4350	46127	Avoid starting either back in Week 10 if at all possible.	Avoid starting either back in Week 10 if at all possible.	2198294	1471980358170	1471980358257	BKSP	8
4350	46127	Avoid starting either back in Week 10 if at all possible.	Avoid starting either back in Week 10 if at all possible.	2198306	1471980358366	1471980358474	i	73
4350	46127	Avoid starting either back in Week 10 if at all possible.	Avoid starting either back in Week 10 if at all possible.	2198313	1471980358446	1471980358538	f	70
4350	46127	Avoid starting either back in Week 10 if at all possible.	Avoid starting either back in Week 10 if at all possible.	2198319	1471980358502	1471980358638	 	32
4350	46127	Avoid starting either back in Week 10 if at all possible.	Avoid starting either back in Week 10 if at all possible.	2198325	1471980358610	1471980358734	a	65
4350	46127	Avoid starting either back in Week 10 if at all possible.	Avoid starting either back in Week 10 if at all possible.	2198339	1471980358678	1471980358806	t	84
4350	46127	Avoid starting either back in Week 10 if at all possible.	Avoid starting either back in Week 10 if at all possible.	2198342	1471980358806	1471980358926	 	32
4350	46127	Avoid starting either back in Week 10 if at all possible.	Avoid starting either back in Week 10 if at all possible.	2198345	1471980358870	1471980359002	a	65
4350	46127	Avoid starting either back in Week 10 if at all possible.	Avoid starting either back in Week 10 if at all possible.	2198349	1471980358982	1471980359062	l	76
4350	46127	Avoid starting either back in Week 10 if at all possible.	Avoid starting either back in Week 10 if at all possible.	2198353	1471980359102	1471980359206	l	76
4350	46127	Avoid starting either back in Week 10 if at all possible.	Avoid starting either back in Week 10 if at all possible.	2198379	1471980359162	1471980359286	 	32
4350	46127	Avoid starting either back in Week 10 if at all possible.	Avoid starting either back in Week 10 if at all possible.	2198381	1471980359298	1471980359445	p	80
4350	46127	Avoid starting either back in Week 10 if at all possible.	Avoid starting either back in Week 10 if at all possible.	2198386	1471980359362	1471980359506	o	79
4350	46127	Avoid starting either back in Week 10 if at all possible.	Avoid starting either back in Week 10 if at all possible.	2198390	1471980359434	1471980359525	s	83
4350	46127	Avoid starting either back in Week 10 if at all possible.	Avoid starting either back in Week 10 if at all possible.	2198394	1471980359578	1471980359686	s	83
4350	46127	Avoid starting either back in Week 10 if at all possible.	Avoid starting either back in Week 10 if at all possible.	2198441	1471980359650	1471980359738	i	73
4350	46127	Avoid starting either back in Week 10 if at all possible.	Avoid starting either back in Week 10 if at all possible.	2198445	1471980359750	1471980359858	b	66
4350	46127	Avoid starting either back in Week 10 if at all possible.	Avoid starting either back in Week 10 if at all possible.	2198448	1471980359886	1471980359981	l	76
4350	46127	Avoid starting either back in Week 10 if at all possible.	Avoid starting either back in Week 10 if at all possible.	2198451	1471980359970	1471980360070	e	69
4350	46127	Avoid starting either back in Week 10 if at all possible.	Avoid starting either back in Week 10 if at all possible.	2198455	1471980360070	1471980360158	.	190
4350	46142	Thanks, I think we have taken care of this.	Thanks, I think we have taken care of this.	2198631	1471980362186	1471980362330	SHIFT	16
4350	46142	Thanks, I think we have taken care of this.	Thanks, I think we have taken care of this.	2198634	1471980362282	1471980362394	T	84
4350	46142	Thanks, I think we have taken care of this.	Thanks, I think we have taken care of this.	2198638	1471980362353	1471980362474	h	72
4350	46142	Thanks, I think we have taken care of this.	Thanks, I think we have taken care of this.	2198642	1471980362441	1471980362570	a	65
4350	46142	Thanks, I think we have taken care of this.	Thanks, I think we have taken care of this.	2198644	1471980362545	1471980362650	n	78
4350	46142	Thanks, I think we have taken care of this.	Thanks, I think we have taken care of this.	2198680	1471980362626	1471980362753	k	75
4350	46142	Thanks, I think we have taken care of this.	Thanks, I think we have taken care of this.	2198682	1471980362754	1471980362866	s	83
4350	46142	Thanks, I think we have taken care of this.	Thanks, I think we have taken care of this.	2198685	1471980362881	1471980363017	,	188
4350	46142	Thanks, I think we have taken care of this.	Thanks, I think we have taken care of this.	2198692	1471980363025	1471980363177	 	32
4350	46142	Thanks, I think we have taken care of this.	Thanks, I think we have taken care of this.	2198701	1471980363178	1471980363321	SHIFT	16
4350	46142	Thanks, I think we have taken care of this.	Thanks, I think we have taken care of this.	2198708	1471980363257	1471980363410	I	73
4350	46142	Thanks, I think we have taken care of this.	Thanks, I think we have taken care of this.	2198739	1471980363353	1471980363473	 	32
4350	46142	Thanks, I think we have taken care of this.	Thanks, I think we have taken care of this.	2198744	1471980363569	1471980363682	t	84
4350	46142	Thanks, I think we have taken care of this.	Thanks, I think we have taken care of this.	2198751	1471980363618	1471980363730	h	72
4350	46142	Thanks, I think we have taken care of this.	Thanks, I think we have taken care of this.	2198754	1471980363682	1471980363809	i	73
4350	46142	Thanks, I think we have taken care of this.	Thanks, I think we have taken care of this.	2198758	1471980363801	1471980364002	n	78
4350	46142	Thanks, I think we have taken care of this.	Thanks, I think we have taken care of this.	2198780	1471980363858	1471980364009	k	75
4350	46142	Thanks, I think we have taken care of this.	Thanks, I think we have taken care of this.	2198783	1471980363962	1471980364097	 	32
4350	46142	Thanks, I think we have taken care of this.	Thanks, I think we have taken care of this.	2198789	1471980364057	1471980364170	w	87
4350	46142	Thanks, I think we have taken care of this.	Thanks, I think we have taken care of this.	2198791	1471980364105	1471980364234	e	69
4350	46142	Thanks, I think we have taken care of this.	Thanks, I think we have taken care of this.	2198795	1471980364185	1471980364297	 	32
4350	46142	Thanks, I think we have taken care of this.	Thanks, I think we have taken care of this.	2198799	1471980364265	1471980364409	h	72
4350	46142	Thanks, I think we have taken care of this.	Thanks, I think we have taken care of this.	2198815	1471980364321	1471980364457	a	65
4350	46142	Thanks, I think we have taken care of this.	Thanks, I think we have taken care of this.	2198818	1471980364378	1471980364514	v	86
4350	46142	Thanks, I think we have taken care of this.	Thanks, I think we have taken care of this.	2198821	1471980364465	1471980364617	 	69
4350	46142	Thanks, I think we have taken care of this.	Thanks, I think we have taken care of this.	2198825	1471980364633	1471980364753	t	84
4350	46142	Thanks, I think we have taken care of this.	Thanks, I think we have taken care of this.	2198829	1471980364714	1471980364873	a	65
4350	46142	Thanks, I think we have taken care of this.	Thanks, I think we have taken care of this.	2198852	1471980364793	1471980364913	k	75
4350	46142	Thanks, I think we have taken care of this.	Thanks, I think we have taken care of this.	2198858	1471980364945	1471980365081	e	69
4350	46142	Thanks, I think we have taken care of this.	Thanks, I think we have taken care of this.	2198867	1471980365074	1471980365217	n	78
4350	46142	Thanks, I think we have taken care of this.	Thanks, I think we have taken care of this.	2198872	1471980365169	1471980365297	 	32
4350	46142	Thanks, I think we have taken care of this.	Thanks, I think we have taken care of this.	2198877	1471980365257	1471980365393	c	67
4350	46142	Thanks, I think we have taken care of this.	Thanks, I think we have taken care of this.	2198945	1471980365345	1471980365497	a	65
4350	46142	Thanks, I think we have taken care of this.	Thanks, I think we have taken care of this.	2198951	1471980365498	1471980365705	r	82
4350	46142	Thanks, I think we have taken care of this.	Thanks, I think we have taken care of this.	2198954	1471980365761	1471980365881	e	69
4350	46142	Thanks, I think we have taken care of this.	Thanks, I think we have taken care of this.	2198961	1471980365905	1471980366025	 	32
4350	46142	Thanks, I think we have taken care of this.	Thanks, I think we have taken care of this.	2198967	1471980366001	1471980366145	o	79
4350	46142	Thanks, I think we have taken care of this.	Thanks, I think we have taken care of this.	2198977	1471980366097	1471980366193	f	70
4350	46142	Thanks, I think we have taken care of this.	Thanks, I think we have taken care of this.	2198981	1471980366149	1471980366265	 	32
4350	46142	Thanks, I think we have taken care of this.	Thanks, I think we have taken care of this.	2198988	1471980366249	1471980366369	t	84
4350	46142	Thanks, I think we have taken care of this.	Thanks, I think we have taken care of this.	2198995	1471980366281	1471980366417	h	72
4350	46142	Thanks, I think we have taken care of this.	Thanks, I think we have taken care of this.	2199002	1471980366337	1471980366481	i	73
4350	46142	Thanks, I think we have taken care of this.	Thanks, I think we have taken care of this.	2199024	1471980366433	1471980366553	s	83
4350	46142	Thanks, I think we have taken care of this.	Thanks, I think we have taken care of this.	2199027	1471980366569	1471980366665	.	190
4350	46152	Neal, can you help with this?	Neal, can you help with this?	2199189	1471980368361	1471980368513	SHIFT	16
4350	46152	Neal, can you help with this?	Neal, can you help with this?	2199198	1471980368465	1471980368585	N	78
4350	46152	Neal, can you help with this?	Neal, can you help with this?	2199205	1471980368609	1471980368753	e	69
4350	46152	Neal, can you help with this?	Neal, can you help with this?	2199211	1471980368737	1471980368889	a	65
4350	46152	Neal, can you help with this?	Neal, can you help with this?	2199215	1471980368929	1471980369033	l	76
4350	46152	Neal, can you help with this?	Neal, can you help with this?	2199221	1471980369121	1471980369265	,	188
4350	46152	Neal, can you help with this?	Neal, can you help with this?	2199240	1471980369209	1471980369345	 	32
4350	46152	Neal, can you help with this?	Neal, can you help with this?	2199243	1471980369353	1471980369473	c	67
4350	46152	Neal, can you help with this?	Neal, can you help with this?	2199245	1471980369433	1471980369569	a	65
4350	46152	Neal, can you help with this?	Neal, can you help with this?	2199247	1471980369505	1471980369603	n	78
4350	46152	Neal, can you help with this?	Neal, can you help with this?	2199249	1471980369585	1471980369721	 	32
4350	46152	Neal, can you help with this?	Neal, can you help with this?	2199270	1471980369697	1471980369801	y	89
4350	46152	Neal, can you help with this?	Neal, can you help with this?	2199275	1471980369769	1471980369921	o	79
4350	46152	Neal, can you help with this?	Neal, can you help with this?	2199284	1471980369857	1471980369985	u	85
4350	46152	Neal, can you help with this?	Neal, can you help with this?	2199294	1471980369913	1471980370041	 	32
4350	46152	Neal, can you help with this?	Neal, can you help with this?	2199304	1471980370065	1471980370185	h	72
4350	46152	Neal, can you help with this?	Neal, can you help with this?	2199310	1471980370201	1471980370313	e	69
4350	46152	Neal, can you help with this?	Neal, can you help with this?	2199340	1471980370337	1471980370497	l	76
4350	46152	Neal, can you help with this?	Neal, can you help with this?	2199343	1471980370433	1471980370553	p	80
4350	46152	Neal, can you help with this?	Neal, can you help with this?	2199345	1471980370641	1471980370789	 	32
4350	46152	Neal, can you help with this?	Neal, can you help with this?	2199347	1471980370769	1471980370893	w	87
4350	46152	Neal, can you help with this?	Neal, can you help with this?	2199359	1471980370801	1471980370929	i	73
4350	46152	Neal, can you help with this?	Neal, can you help with this?	2199362	1471980370833	1471980370969	t	84
4350	46152	Neal, can you help with this?	Neal, can you help with this?	2199367	1471980370873	1471980371017	h	72
4350	46152	Neal, can you help with this?	Neal, can you help with this?	2199370	1471980370970	1471980371097	 	32
4350	46152	Neal, can you help with this?	Neal, can you help with this?	2199372	1471980371057	1471980371193	t	84
4350	46152	Neal, can you help with this?	Neal, can you help with this?	2199375	1471980371098	1471980371257	h	72
4350	46152	Neal, can you help with this?	Neal, can you help with this?	2199378	1471980371169	1471980371297	i	73
4350	46152	Neal, can you help with this?	Neal, can you help with this?	2199388	1471980371265	1471980371377	s	83
4350	46152	Neal, can you help with this?	Neal, can you help with this?	2199389	1471980371425	1471980371601	SHIFT	16
4350	46152	Neal, can you help with this?	Neal, can you help with this?	2199392	1471980371505	1471980371657	?	191
4350	46158	He agrees that they are not showing the correct equation.	He agrees that they are not showing the correct equation.	2199560	1471980373249	1471980373393	SHIFT	16
4350	46158	He agrees that they are not showing the correct equation.	He agrees that they are not showing the correct equation.	2199563	1471980373337	1471980373449	H	72
4350	46158	He agrees that they are not showing the correct equation.	He agrees that they are not showing the correct equation.	2199567	1471980373521	1471980373665	 	32
4350	46158	He agrees that they are not showing the correct equation.	He agrees that they are not showing the correct equation.	2199573	1471980373873	1471980373969	BKSP	8
4350	46158	He agrees that they are not showing the correct equation.	He agrees that they are not showing the correct equation.	2199578	1471980373970	1471980374097	e	69
4350	46158	He agrees that they are not showing the correct equation.	He agrees that they are not showing the correct equation.	2199584	1471980374057	1471980374177	 	32
4350	46158	He agrees that they are not showing the correct equation.	He agrees that they are not showing the correct equation.	2199587	1471980374185	1471980374321	a	65
4350	46158	He agrees that they are not showing the correct equation.	He agrees that they are not showing the correct equation.	2199626	1471980374281	1471980374393	g	71
4350	46158	He agrees that they are not showing the correct equation.	He agrees that they are not showing the correct equation.	2199630	1471980374473	1471980374609	r	82
4350	46158	He agrees that they are not showing the correct equation.	He agrees that they are not showing the correct equation.	2199639	1471980374545	1471980374841	e	69
4350	46158	He agrees that they are not showing the correct equation.	He agrees that they are not showing the correct equation.	2199645	1471980375145	1471980375273	e	69
4350	46158	He agrees that they are not showing the correct equation.	He agrees that they are not showing the correct equation.	2199649	1471980375249	1471980375369	s	83
4350	46158	He agrees that they are not showing the correct equation.	He agrees that they are not showing the correct equation.	2199654	1471980375370	1471980375474	 	32
4350	46158	He agrees that they are not showing the correct equation.	He agrees that they are not showing the correct equation.	2199673	1471980375441	1471980375537	t	84
4350	46158	He agrees that they are not showing the correct equation.	He agrees that they are not showing the correct equation.	2199676	1471980375521	1471980375645	h	72
4350	46158	He agrees that they are not showing the correct equation.	He agrees that they are not showing the correct equation.	2199679	1471980375561	1471980375697	a	65
4350	46158	He agrees that they are not showing the correct equation.	He agrees that they are not showing the correct equation.	2199683	1471980375625	1471980375761	t	84
4350	46158	He agrees that they are not showing the correct equation.	He agrees that they are not showing the correct equation.	2199690	1471980375698	1471980375793	 	32
4350	46158	He agrees that they are not showing the correct equation.	He agrees that they are not showing the correct equation.	2199696	1471980375953	1471980376053	t	84
4350	46158	He agrees that they are not showing the correct equation.	He agrees that they are not showing the correct equation.	2199708	1471980376033	1471980376129	h	72
4350	46158	He agrees that they are not showing the correct equation.	He agrees that they are not showing the correct equation.	2199710	1471980376121	1471980376233	e	69
4350	46158	He agrees that they are not showing the correct equation.	He agrees that they are not showing the correct equation.	2199716	1471980376209	1471980376313	y	89
4350	46158	He agrees that they are not showing the correct equation.	He agrees that they are not showing the correct equation.	2199723	1471980376265	1471980376385	 	32
4350	46158	He agrees that they are not showing the correct equation.	He agrees that they are not showing the correct equation.	2199728	1471980376353	1471980376449	a	65
4350	46158	He agrees that they are not showing the correct equation.	He agrees that they are not showing the correct equation.	2199743	1471980376393	1471980376545	r	82
4350	46158	He agrees that they are not showing the correct equation.	He agrees that they are not showing the correct equation.	2199747	1471980376485	1471980376617	e	69
4350	46158	He agrees that they are not showing the correct equation.	He agrees that they are not showing the correct equation.	2199751	1471980376546	1471980376650	 	32
4350	46158	He agrees that they are not showing the correct equation.	He agrees that they are not showing the correct equation.	2199754	1471980376618	1471980376761	n	78
4350	46158	He agrees that they are not showing the correct equation.	He agrees that they are not showing the correct equation.	2199756	1471980376705	1471980376837	o	79
4350	46158	He agrees that they are not showing the correct equation.	He agrees that they are not showing the correct equation.	2199776	1471980376817	1471980376937	t	84
4350	46158	He agrees that they are not showing the correct equation.	He agrees that they are not showing the correct equation.	2199781	1471980376938	1471980377041	 	32
4350	46158	He agrees that they are not showing the correct equation.	He agrees that they are not showing the correct equation.	2199787	1471980377089	1471980377209	s	83
4350	46158	He agrees that they are not showing the correct equation.	He agrees that they are not showing the correct equation.	2199794	1471980377161	1471980377273	h	72
4350	46158	He agrees that they are not showing the correct equation.	He agrees that they are not showing the correct equation.	2199804	1471980377265	1471980377389	o	79
4350	46158	He agrees that they are not showing the correct equation.	He agrees that they are not showing the correct equation.	2199822	1471980377369	1471980377473	w	87
4350	46158	He agrees that they are not showing the correct equation.	He agrees that they are not showing the correct equation.	2199830	1471980377465	1471980377601	i	73
4350	46158	He agrees that they are not showing the correct equation.	He agrees that they are not showing the correct equation.	2199837	1471980377553	1471980377673	n	78
4350	46158	He agrees that they are not showing the correct equation.	He agrees that they are not showing the correct equation.	2199842	1471980377593	1471980377689	g	71
4350	46158	He agrees that they are not showing the correct equation.	He agrees that they are not showing the correct equation.	2199846	1471980377657	1471980377785	 	32
4350	46158	He agrees that they are not showing the correct equation.	He agrees that they are not showing the correct equation.	2199857	1471980377753	1471980377905	t	84
4350	46158	He agrees that they are not showing the correct equation.	He agrees that they are not showing the correct equation.	2199861	1471980377801	1471980377945	h	72
4350	46158	He agrees that they are not showing the correct equation.	He agrees that they are not showing the correct equation.	2199867	1471980377841	1471980377993	e	69
4350	46158	He agrees that they are not showing the correct equation.	He agrees that they are not showing the correct equation.	2199871	1471980377889	1471980378017	 	32
4350	46158	He agrees that they are not showing the correct equation.	He agrees that they are not showing the correct equation.	2199874	1471980378025	1471980378137	c	67
4350	46158	He agrees that they are not showing the correct equation.	He agrees that they are not showing the correct equation.	2199919	1471980378089	1471980378185	o	79
4350	46158	He agrees that they are not showing the correct equation.	He agrees that they are not showing the correct equation.	2199922	1471980378241	1471980378321	r	82
4350	46158	He agrees that they are not showing the correct equation.	He agrees that they are not showing the correct equation.	2199928	1471980378385	1471980378505	r	82
4350	46158	He agrees that they are not showing the correct equation.	He agrees that they are not showing the correct equation.	2199933	1471980378465	1471980378625	e	69
4350	46158	He agrees that they are not showing the correct equation.	He agrees that they are not showing the correct equation.	2199935	1471980378577	1471980378649	c	67
4350	46158	He agrees that they are not showing the correct equation.	He agrees that they are not showing the correct equation.	2199938	1471980378729	1471980378857	t	84
4350	46158	He agrees that they are not showing the correct equation.	He agrees that they are not showing the correct equation.	2200053	1471980378833	1471980378945	 	32
4350	46158	He agrees that they are not showing the correct equation.	He agrees that they are not showing the correct equation.	2200057	1471980379001	1471980379113	d	68
4350	46158	He agrees that they are not showing the correct equation.	He agrees that they are not showing the correct equation.	2200060	1471980379377	1471980379457	BKSP	8
4350	46158	He agrees that they are not showing the correct equation.	He agrees that they are not showing the correct equation.	2200063	1471980379458	1471980379609	e	69
4350	46158	He agrees that they are not showing the correct equation.	He agrees that they are not showing the correct equation.	2200069	1471980379633	1471980379689	q	81
4350	46158	He agrees that they are not showing the correct equation.	He agrees that they are not showing the correct equation.	2200075	1471980380409	1471980380513	u	85
4350	46158	He agrees that they are not showing the correct equation.	He agrees that they are not showing the correct equation.	2200081	1471980380545	1471980380689	a	65
4350	46158	He agrees that they are not showing the correct equation.	He agrees that they are not showing the correct equation.	2200116	1471980380617	1471980380753	t	84
4350	46158	He agrees that they are not showing the correct equation.	He agrees that they are not showing the correct equation.	2200120	1471980380713	1471980380873	i	73
4350	46158	He agrees that they are not showing the correct equation.	He agrees that they are not showing the correct equation.	2200125	1471980380777	1471980380937	o	79
4350	46158	He agrees that they are not showing the correct equation.	He agrees that they are not showing the correct equation.	2200129	1471980380873	1471980381001	n	78
4350	46158	He agrees that they are not showing the correct equation.	He agrees that they are not showing the correct equation.	2200134	1471980381201	1471980381297	.	190
4350	46177	We don't recommend McNair this week as a result.	We dont recommend McNair this week as a result.	2200254	1471980383113	1471980383281	SHIFT	16
4350	46177	We don't recommend McNair this week as a result.	We dont recommend McNair this week as a result.	2200260	1471980383249	1471980383345	W	87
4350	46177	We don't recommend McNair this week as a result.	We dont recommend McNair this week as a result.	2200266	1471980383305	1471980383425	e	69
4350	46177	We don't recommend McNair this week as a result.	We dont recommend McNair this week as a result.	2200276	1471980383476	1471980383601	 	32
4350	46177	We don't recommend McNair this week as a result.	We dont recommend McNair this week as a result.	2200284	1471980383569	1471980383689	d	68
4350	46177	We don't recommend McNair this week as a result.	We dont recommend McNair this week as a result.	2200301	1471980383665	1471980383785	o	79
4350	46177	We don't recommend McNair this week as a result.	We dont recommend McNair this week as a result.	2200308	1471980383721	1471980383841	n	78
4350	46177	We don't recommend McNair this week as a result.	We dont recommend McNair this week as a result.	2200315	1471980383785	1471980383904	t	84
4350	46177	We don't recommend McNair this week as a result.	We dont recommend McNair this week as a result.	2200320	1471980383905	1471980384025	 	32
4350	46177	We don't recommend McNair this week as a result.	We dont recommend McNair this week as a result.	2200329	1471980384001	1471980384129	r	82
4350	46177	We don't recommend McNair this week as a result.	We dont recommend McNair this week as a result.	2200379	1471980384073	1471980384217	e	69
4350	46177	We don't recommend McNair this week as a result.	We dont recommend McNair this week as a result.	2200384	1471980384233	1471980384361	c	67
4350	46177	We don't recommend McNair this week as a result.	We dont recommend McNair this week as a result.	2200387	1471980384337	1471980384449	o	79
4350	46177	We don't recommend McNair this week as a result.	We dont recommend McNair this week as a result.	2200389	1471980384545	1471980384625	m	77
4350	46177	We don't recommend McNair this week as a result.	We dont recommend McNair this week as a result.	2200394	1471980384689	1471980384777	m	77
4350	46177	We don't recommend McNair this week as a result.	We dont recommend McNair this week as a result.	2200397	1471980384784	1471980384889	e	69
4350	46177	We don't recommend McNair this week as a result.	We dont recommend McNair this week as a result.	2200437	1471980384905	1471980385001	n	78
4350	46177	We don't recommend McNair this week as a result.	We dont recommend McNair this week as a result.	2200442	1471980385016	1471980385129	d	68
4350	46177	We don't recommend McNair this week as a result.	We dont recommend McNair this week as a result.	2200447	1471980385145	1471980385257	 	32
4350	46177	We don't recommend McNair this week as a result.	We dont recommend McNair this week as a result.	2200454	1471980385265	1471980385441	SHIFT	16
4350	46177	We don't recommend McNair this week as a result.	We dont recommend McNair this week as a result.	2200459	1471980385385	1471980385473	M	77
4350	46177	We don't recommend McNair this week as a result.	We dont recommend McNair this week as a result.	2200463	1471980385597	1471980385697	c	67
4350	46177	We don't recommend McNair this week as a result.	We dont recommend McNair this week as a result.	2200525	1471980386029	1471980386153	SHIFT	16
4350	46177	We don't recommend McNair this week as a result.	We dont recommend McNair this week as a result.	2200530	1471980386117	1471980386217	N	78
4350	46177	We don't recommend McNair this week as a result.	We dont recommend McNair this week as a result.	2200534	1471980386224	1471980386353	a	65
4350	46177	We don't recommend McNair this week as a result.	We dont recommend McNair this week as a result.	2200539	1471980386333	1471980386433	i	73
4350	46177	We don't recommend McNair this week as a result.	We dont recommend McNair this week as a result.	2200544	1471980386449	1471980386537	r	82
4350	46177	We don't recommend McNair this week as a result.	We dont recommend McNair this week as a result.	2200547	1471980386649	1471980386757	 	32
4350	46177	We don't recommend McNair this week as a result.	We dont recommend McNair this week as a result.	2200555	1471980386733	1471980386849	t	84
4350	46177	We don't recommend McNair this week as a result.	We dont recommend McNair this week as a result.	2200556	1471980386793	1471980386913	h	72
4350	46177	We don't recommend McNair this week as a result.	We dont recommend McNair this week as a result.	2200558	1471980386865	1471980387001	i	73
4350	46177	We don't recommend McNair this week as a result.	We dont recommend McNair this week as a result.	2200560	1471980386969	1471980387073	s	83
4350	46177	We don't recommend McNair this week as a result.	We dont recommend McNair this week as a result.	2200564	1471980387041	1471980387172	 	32
4350	46177	We don't recommend McNair this week as a result.	We dont recommend McNair this week as a result.	2200597	1471980387161	1471980387293	w	87
4350	46177	We don't recommend McNair this week as a result.	We dont recommend McNair this week as a result.	2200598	1471980387229	1471980387329	e	69
4350	46177	We don't recommend McNair this week as a result.	We dont recommend McNair this week as a result.	2200600	1471980387389	1471980387497	e	69
4350	46177	We don't recommend McNair this week as a result.	We dont recommend McNair this week as a result.	2200602	1471980387465	1471980387637	k	75
4350	46177	We don't recommend McNair this week as a result.	We dont recommend McNair this week as a result.	2200604	1471980387601	1471980387748	 	32
4350	46177	We don't recommend McNair this week as a result.	We dont recommend McNair this week as a result.	2200679	1471980387737	1471980387873	a	65
4350	46177	We don't recommend McNair this week as a result.	We dont recommend McNair this week as a result.	2200684	1471980387809	1471980387960	s	83
4350	46177	We don't recommend McNair this week as a result.	We dont recommend McNair this week as a result.	2200686	1471980388401	1471980388524	 	32
4350	46177	We don't recommend McNair this week as a result.	We dont recommend McNair this week as a result.	2200689	1471980388517	1471980388661	a	65
4350	46177	We don't recommend McNair this week as a result.	We dont recommend McNair this week as a result.	2200693	1471980388621	1471980388740	 	32
4350	46177	We don't recommend McNair this week as a result.	We dont recommend McNair this week as a result.	2200695	1471980388741	1471980388885	r	82
4350	46177	We don't recommend McNair this week as a result.	We dont recommend McNair this week as a result.	2200748	1471980388805	1471980388965	e	69
4350	46177	We don't recommend McNair this week as a result.	We dont recommend McNair this week as a result.	2200754	1471980389008	1471980389165	s	83
4350	46177	We don't recommend McNair this week as a result.	We dont recommend McNair this week as a result.	2200759	1471980389117	1471980389273	u	85
4350	46177	We don't recommend McNair this week as a result.	We dont recommend McNair this week as a result.	2200760	1471980389184	1471980389324	l	76
4350	46177	We don't recommend McNair this week as a result.	We dont recommend McNair this week as a result.	2200761	1471980389388	1471980389509	t	84
4350	46177	We don't recommend McNair this week as a result.	We dont recommend McNair this week as a result.	2200762	1471980389572	1471980389685	.	190
4350	46193	Probably need to check with HR group providing services.	Probably need to check the HR group providing services.	2200939	1471980391237	1471980391389	SHIFT	16
4350	46193	Probably need to check with HR group providing services.	Probably need to check the HR group providing services.	2200942	1471980391316	1471980391500	P	80
4350	46193	Probably need to check with HR group providing services.	Probably need to check the HR group providing services.	2200946	1471980391501	1471980391628	r	82
4350	46193	Probably need to check with HR group providing services.	Probably need to check the HR group providing services.	2200948	1471980391605	1471980391676	o	79
4350	46193	Probably need to check with HR group providing services.	Probably need to check the HR group providing services.	2200950	1471980392164	1471980392260	b	66
4350	46193	Probably need to check with HR group providing services.	Probably need to check the HR group providing services.	2200952	1471980392284	1471980392412	a	65
4350	46193	Probably need to check with HR group providing services.	Probably need to check the HR group providing services.	2200986	1471980392373	1471980392460	b	66
4350	46193	Probably need to check with HR group providing services.	Probably need to check the HR group providing services.	2200991	1471980392508	1471980392612	l	76
4350	46193	Probably need to check with HR group providing services.	Probably need to check the HR group providing services.	2201000	1471980392660	1471980392764	y	89
4350	46193	Probably need to check with HR group providing services.	Probably need to check the HR group providing services.	2201005	1471980392724	1471980392852	 	32
4350	46193	Probably need to check with HR group providing services.	Probably need to check the HR group providing services.	2201014	1471980392956	1471980393052	n	78
4350	46193	Probably need to check with HR group providing services.	Probably need to check the HR group providing services.	2201022	1471980393140	1471980393236	e	69
4350	46193	Probably need to check with HR group providing services.	Probably need to check the HR group providing services.	2201047	1471980393276	1471980393380	e	69
4350	46193	Probably need to check with HR group providing services.	Probably need to check the HR group providing services.	2201052	1471980393436	1471980393516	d	68
4350	46193	Probably need to check with HR group providing services.	Probably need to check the HR group providing services.	2201059	1471980393476	1471980393588	 	32
4350	46193	Probably need to check with HR group providing services.	Probably need to check the HR group providing services.	2201066	1471980393548	1471980393676	t	84
4350	46193	Probably need to check with HR group providing services.	Probably need to check the HR group providing services.	2201097	1471980393636	1471980393756	o	79
4350	46193	Probably need to check with HR group providing services.	Probably need to check the HR group providing services.	2201103	1471980393684	1471980393796	 	32
4350	46193	Probably need to check with HR group providing services.	Probably need to check the HR group providing services.	2201110	1471980393788	1471980393916	c	67
4350	46193	Probably need to check with HR group providing services.	Probably need to check the HR group providing services.	2201115	1471980393860	1471980393956	h	72
4350	46193	Probably need to check with HR group providing services.	Probably need to check the HR group providing services.	2201120	1471980393932	1471980394092	e	69
4350	46193	Probably need to check with HR group providing services.	Probably need to check the HR group providing services.	2201133	1471980394036	1471980394140	c	67
4350	46193	Probably need to check with HR group providing services.	Probably need to check the HR group providing services.	2201139	1471980394060	1471980394212	k	75
4350	46193	Probably need to check with HR group providing services.	Probably need to check the HR group providing services.	2201142	1471980394172	1471980394284	 	32
4350	46193	Probably need to check with HR group providing services.	Probably need to check the HR group providing services.	2201147	1471980394260	1471980394444	t	84
4350	46193	Probably need to check with HR group providing services.	Probably need to check the HR group providing services.	2201247	1471980394316	1471980394448	h	72
4350	46193	Probably need to check with HR group providing services.	Probably need to check the HR group providing services.	2201248	1471980394348	1471980394492	e	69
4350	46193	Probably need to check with HR group providing services.	Probably need to check the HR group providing services.	2201251	1471980394396	1471980394532	 	32
4350	46193	Probably need to check with HR group providing services.	Probably need to check the HR group providing services.	2201259	1471980394588	1471980394884	SHIFT	16
4350	46193	Probably need to check with HR group providing services.	Probably need to check the HR group providing services.	2201254	1471980394676	1471980394788	H	72
4350	46193	Probably need to check with HR group providing services.	Probably need to check the HR group providing services.	2201261	1471980395084	1471980395564	SHIFT	16
4350	46193	Probably need to check with HR group providing services.	Probably need to check the HR group providing services.	2201264	1471980395476	1471980395596	R	82
4350	46193	Probably need to check with HR group providing services.	Probably need to check the HR group providing services.	2201269	1471980395604	1471980395716	 	32
4350	46193	Probably need to check with HR group providing services.	Probably need to check the HR group providing services.	2201273	1471980395676	1471980395764	g	71
4350	46193	Probably need to check with HR group providing services.	Probably need to check the HR group providing services.	2201278	1471980395812	1471980395932	r	82
4350	46193	Probably need to check with HR group providing services.	Probably need to check the HR group providing services.	2201282	1471980395868	1471980396044	o	79
4350	46193	Probably need to check with HR group providing services.	Probably need to check the HR group providing services.	2201287	1471980395936	1471980396068	u	85
4350	46193	Probably need to check with HR group providing services.	Probably need to check the HR group providing services.	2201292	1471980396028	1471980396172	p	80
4350	46193	Probably need to check with HR group providing services.	Probably need to check the HR group providing services.	2201302	1471980396140	1471980396252	 	32
4350	46193	Probably need to check with HR group providing services.	Probably need to check the HR group providing services.	2201308	1471980396308	1471980396444	p	80
4350	46193	Probably need to check with HR group providing services.	Probably need to check the HR group providing services.	2201355	1471980396412	1471980396532	r	82
4350	46193	Probably need to check with HR group providing services.	Probably need to check the HR group providing services.	2201357	1471980396524	1471980396636	o	79
4350	46193	Probably need to check with HR group providing services.	Probably need to check the HR group providing services.	2201362	1471980396628	1471980396740	v	86
4350	46193	Probably need to check with HR group providing services.	Probably need to check the HR group providing services.	2201366	1471980396724	1471980396852	i	73
4350	46193	Probably need to check with HR group providing services.	Probably need to check the HR group providing services.	2201373	1471980396828	1471980396948	d	68
4350	46193	Probably need to check with HR group providing services.	Probably need to check the HR group providing services.	2201380	1471980396949	1471980397124	i	73
4350	46193	Probably need to check with HR group providing services.	Probably need to check the HR group providing services.	2201429	1471980397052	1471980397172	n	78
4350	46193	Probably need to check with HR group providing services.	Probably need to check the HR group providing services.	2201432	1471980397140	1471980397252	g	71
4350	46193	Probably need to check with HR group providing services.	Probably need to check the HR group providing services.	2201437	1471980397468	1471980397596	 	32
4350	46193	Probably need to check with HR group providing services.	Probably need to check the HR group providing services.	2201442	1471980397628	1471980397788	s	83
4350	46193	Probably need to check with HR group providing services.	Probably need to check the HR group providing services.	2201448	1471980397748	1471980397916	e	69
4350	46193	Probably need to check with HR group providing services.	Probably need to check the HR group providing services.	2201467	1471980397820	1471980397940	r	82
4350	46193	Probably need to check with HR group providing services.	Probably need to check the HR group providing services.	2201471	1471980398004	1471980398108	v	86
4350	46193	Probably need to check with HR group providing services.	Probably need to check the HR group providing services.	2201476	1471980398092	1471980398204	i	73
4350	46193	Probably need to check with HR group providing services.	Probably need to check the HR group providing services.	2201480	1471980398180	1471980398384	c	67
4350	46193	Probably need to check with HR group providing services.	Probably need to check the HR group providing services.	2201506	1471980398276	1471980398420	e	69
4350	46193	Probably need to check with HR group providing services.	Probably need to check the HR group providing services.	2201513	1471980398364	1471980398492	s	83
4350	46193	Probably need to check with HR group providing services.	Probably need to check the HR group providing services.	2201520	1471980398484	1471980398588	.	190
4350	46213	The Senate vote undercut him the day before the Geneva talks.	The Senate vote undercut him the day before the Geneva talks.	2201713	1471980400324	1471980400476	SHIFT	16
4350	46213	The Senate vote undercut him the day before the Geneva talks.	The Senate vote undercut him the day before the Geneva talks.	2201717	1471980400444	1471980400572	T	84
4350	46213	The Senate vote undercut him the day before the Geneva talks.	The Senate vote undercut him the day before the Geneva talks.	2201722	1471980400556	1471980400668	h	72
4350	46213	The Senate vote undercut him the day before the Geneva talks.	The Senate vote undercut him the day before the Geneva talks.	2201723	1471980400644	1471980400772	e	69
4350	46213	The Senate vote undercut him the day before the Geneva talks.	The Senate vote undercut him the day before the Geneva talks.	2201729	1471980400773	1471980400892	 	32
4350	46213	The Senate vote undercut him the day before the Geneva talks.	The Senate vote undercut him the day before the Geneva talks.	2201735	1471980401068	1471980401188	SHIFT	16
4350	46213	The Senate vote undercut him the day before the Geneva talks.	The Senate vote undercut him the day before the Geneva talks.	2201785	1471980401116	1471980401308	S	83
4350	46213	The Senate vote undercut him the day before the Geneva talks.	The Senate vote undercut him the day before the Geneva talks.	2201788	1471980401268	1471980401412	e	69
4350	46213	The Senate vote undercut him the day before the Geneva talks.	The Senate vote undercut him the day before the Geneva talks.	2201790	1471980401388	1471980401492	n	78
4350	46213	The Senate vote undercut him the day before the Geneva talks.	The Senate vote undercut him the day before the Geneva talks.	2201793	1471980401540	1471980401676	a	65
4350	46213	The Senate vote undercut him the day before the Geneva talks.	The Senate vote undercut him the day before the Geneva talks.	2201799	1471980401620	1471980401772	t	84
4350	46213	The Senate vote undercut him the day before the Geneva talks.	The Senate vote undercut him the day before the Geneva talks.	2201839	1471980401724	1471980401868	e	69
4350	46213	The Senate vote undercut him the day before the Geneva talks.	The Senate vote undercut him the day before the Geneva talks.	2201843	1471980401869	1471980401988	 	32
4350	46213	The Senate vote undercut him the day before the Geneva talks.	The Senate vote undercut him the day before the Geneva talks.	2201852	1471980401980	1471980402100	v	86
4350	46213	The Senate vote undercut him the day before the Geneva talks.	The Senate vote undercut him the day before the Geneva talks.	2201859	1471980402116	1471980402276	o	79
4350	46213	The Senate vote undercut him the day before the Geneva talks.	The Senate vote undercut him the day before the Geneva talks.	2201961	1471980402228	1471980402316	u	73
4350	46213	The Senate vote undercut him the day before the Geneva talks.	The Senate vote undercut him the day before the Geneva talks.	2201966	1471980402548	1471980402636	BKSP	8
4350	46213	The Senate vote undercut him the day before the Geneva talks.	The Senate vote undercut him the day before the Geneva talks.	2201972	1471980402716	1471980402812	BKSP	8
4350	46213	The Senate vote undercut him the day before the Geneva talks.	The Senate vote undercut him the day before the Geneva talks.	2201976	1471980402852	1471980402964	t	84
4350	46213	The Senate vote undercut him the day before the Geneva talks.	The Senate vote undercut him the day before the Geneva talks.	2201979	1471980402924	1471980403052	e	69
4350	46213	The Senate vote undercut him the day before the Geneva talks.	The Senate vote undercut him the day before the Geneva talks.	2201982	1471980403044	1471980403148	 	32
4350	46213	The Senate vote undercut him the day before the Geneva talks.	The Senate vote undercut him the day before the Geneva talks.	2201985	1471980403212	1471980403324	u	85
4350	46213	The Senate vote undercut him the day before the Geneva talks.	The Senate vote undercut him the day before the Geneva talks.	2201989	1471980403396	1471980403492	n	78
4350	46213	The Senate vote undercut him the day before the Geneva talks.	The Senate vote undercut him the day before the Geneva talks.	2202059	1471980403452	1471980403532	d	68
4350	46213	The Senate vote undercut him the day before the Geneva talks.	The Senate vote undercut him the day before the Geneva talks.	2202063	1471980403612	1471980403756	e	69
4350	46213	The Senate vote undercut him the day before the Geneva talks.	The Senate vote undercut him the day before the Geneva talks.	2202068	1471980403660	1471980403780	r	82
4350	46213	The Senate vote undercut him the day before the Geneva talks.	The Senate vote undercut him the day before the Geneva talks.	2202071	1471980403876	1471980404020	c	67
4350	46213	The Senate vote undercut him the day before the Geneva talks.	The Senate vote undercut him the day before the Geneva talks.	2202072	1471980404268	1471980404388	u	85
4350	46213	The Senate vote undercut him the day before the Geneva talks.	The Senate vote undercut him the day before the Geneva talks.	2202075	1471980404404	1471980404508	t	84
4350	46213	The Senate vote undercut him the day before the Geneva talks.	The Senate vote undercut him the day before the Geneva talks.	2202121	1471980404468	1471980404556	 	32
4350	46213	The Senate vote undercut him the day before the Geneva talks.	The Senate vote undercut him the day before the Geneva talks.	2202129	1471980404756	1471980404844	h	72
4350	46213	The Senate vote undercut him the day before the Geneva talks.	The Senate vote undercut him the day before the Geneva talks.	2202136	1471980404820	1471980404948	i	73
4350	46213	The Senate vote undercut him the day before the Geneva talks.	The Senate vote undercut him the day before the Geneva talks.	2202143	1471980405004	1471980405100	m	77
4350	46213	The Senate vote undercut him the day before the Geneva talks.	The Senate vote undercut him the day before the Geneva talks.	2202149	1471980405060	1471980405181	 	32
4350	46213	The Senate vote undercut him the day before the Geneva talks.	The Senate vote undercut him the day before the Geneva talks.	2202179	1471980405148	1471980405316	t	84
4350	46213	The Senate vote undercut him the day before the Geneva talks.	The Senate vote undercut him the day before the Geneva talks.	2202185	1471980405220	1471980405372	h	72
4350	46213	The Senate vote undercut him the day before the Geneva talks.	The Senate vote undercut him the day before the Geneva talks.	2202189	1471980405268	1471980405396	e	69
4350	46213	The Senate vote undercut him the day before the Geneva talks.	The Senate vote undercut him the day before the Geneva talks.	2202191	1471980405317	1471980405452	 	32
4350	46213	The Senate vote undercut him the day before the Geneva talks.	The Senate vote undercut him the day before the Geneva talks.	2202194	1471980405492	1471980405628	d	68
4350	46213	The Senate vote undercut him the day before the Geneva talks.	The Senate vote undercut him the day before the Geneva talks.	2202206	1471980405572	1471980405724	a	65
4350	46213	The Senate vote undercut him the day before the Geneva talks.	The Senate vote undercut him the day before the Geneva talks.	2202210	1471980405652	1471980405780	y	89
4350	46213	The Senate vote undercut him the day before the Geneva talks.	The Senate vote undercut him the day before the Geneva talks.	2202212	1471980405756	1471980405860	 	32
4350	46213	The Senate vote undercut him the day before the Geneva talks.	The Senate vote undercut him the day before the Geneva talks.	2202215	1471980405861	1471980405972	b	66
4350	46213	The Senate vote undercut him the day before the Geneva talks.	The Senate vote undercut him the day before the Geneva talks.	2202219	1471980405916	1471980406076	e	69
4350	46213	The Senate vote undercut him the day before the Geneva talks.	The Senate vote undercut him the day before the Geneva talks.	2202230	1471980406028	1471980406156	f	70
4350	46213	The Senate vote undercut him the day before the Geneva talks.	The Senate vote undercut him the day before the Geneva talks.	2202235	1471980406164	1471980406284	o	79
4350	46213	The Senate vote undercut him the day before the Geneva talks.	The Senate vote undercut him the day before the Geneva talks.	2202243	1471980406236	1471980406332	r	82
4350	46213	The Senate vote undercut him the day before the Geneva talks.	The Senate vote undercut him the day before the Geneva talks.	2202250	1471980406276	1471980406420	e	69
4350	46213	The Senate vote undercut him the day before the Geneva talks.	The Senate vote undercut him the day before the Geneva talks.	2202258	1471980406348	1471980406468	 	32
4350	46213	The Senate vote undercut him the day before the Geneva talks.	The Senate vote undercut him the day before the Geneva talks.	2202286	1471980406421	1471980406596	t	84
4350	46213	The Senate vote undercut him the day before the Geneva talks.	The Senate vote undercut him the day before the Geneva talks.	2202289	1471980406492	1471980406628	h	72
4350	46213	The Senate vote undercut him the day before the Geneva talks.	The Senate vote undercut him the day before the Geneva talks.	2202291	1471980406516	1471980406663	e	69
4350	46213	The Senate vote undercut him the day before the Geneva talks.	The Senate vote undercut him the day before the Geneva talks.	2202293	1471980406588	1471980406724	 	32
4350	46213	The Senate vote undercut him the day before the Geneva talks.	The Senate vote undercut him the day before the Geneva talks.	2202296	1471980406725	1471980406900	SHIFT	16
4350	46213	The Senate vote undercut him the day before the Geneva talks.	The Senate vote undercut him the day before the Geneva talks.	2202298	1471980406828	1471980406973	G	71
4350	46213	The Senate vote undercut him the day before the Geneva talks.	The Senate vote undercut him the day before the Geneva talks.	2202348	1471980406940	1471980407100	e	69
4350	46213	The Senate vote undercut him the day before the Geneva talks.	The Senate vote undercut him the day before the Geneva talks.	2202353	1471980407108	1471980407212	n	78
4350	46213	The Senate vote undercut him the day before the Geneva talks.	The Senate vote undercut him the day before the Geneva talks.	2202357	1471980407260	1471980407364	e	69
4350	46213	The Senate vote undercut him the day before the Geneva talks.	The Senate vote undercut him the day before the Geneva talks.	2202364	1471980407420	1471980407540	v	86
4350	46213	The Senate vote undercut him the day before the Geneva talks.	The Senate vote undercut him the day before the Geneva talks.	2202370	1471980407548	1471980407692	a	65
4350	46213	The Senate vote undercut him the day before the Geneva talks.	The Senate vote undercut him the day before the Geneva talks.	2202402	1471980407668	1471980407772	 	32
4350	46213	The Senate vote undercut him the day before the Geneva talks.	The Senate vote undercut him the day before the Geneva talks.	2202407	1471980407804	1471980407932	t	84
4350	46213	The Senate vote undercut him the day before the Geneva talks.	The Senate vote undercut him the day before the Geneva talks.	2202411	1471980407884	1471980408020	a	65
4350	46213	The Senate vote undercut him the day before the Geneva talks.	The Senate vote undercut him the day before the Geneva talks.	2202417	1471980407972	1471980408076	l	76
4350	46213	The Senate vote undercut him the day before the Geneva talks.	The Senate vote undercut him the day before the Geneva talks.	2202423	1471980408004	1471980408148	k	75
4350	46213	The Senate vote undercut him the day before the Geneva talks.	The Senate vote undercut him the day before the Geneva talks.	2202444	1471980408140	1471980408252	s	83
4350	46213	The Senate vote undercut him the day before the Geneva talks.	The Senate vote undercut him the day before the Geneva talks.	2202450	1471980408268	1471980408356	.	190
4350	46231	Have a good evening.	Have a good evening.	2202593	1471980410036	1471980410164	SHIFT	16
4350	46231	Have a good evening.	Have a good evening.	2202594	1471980410124	1471980410236	H	72
4350	46231	Have a good evening.	Have a good evening.	2202596	1471980410244	1471980410380	a	65
4350	46231	Have a good evening.	Have a good evening.	2202598	1471980410340	1471980410468	v	86
4350	46231	Have a good evening.	Have a good evening.	2202601	1471980410428	1471980410556	e	69
4350	46231	Have a good evening.	Have a good evening.	2202603	1471980410556	1471980410660	 	32
4350	46231	Have a good evening.	Have a good evening.	2202639	1471980410612	1471980410748	a	65
4350	46231	Have a good evening.	Have a good evening.	2202642	1471980410740	1471980410852	 	32
4350	46231	Have a good evening.	Have a good evening.	2202645	1471980410820	1471980410932	g	71
4350	46231	Have a good evening.	Have a good evening.	2202648	1471980410940	1471980411012	o	79
4350	46231	Have a good evening.	Have a good evening.	2202650	1471980411060	1471980411180	o	79
4350	46231	Have a good evening.	Have a good evening.	2202684	1471980411124	1471980411212	d	68
4350	46231	Have a good evening.	Have a good evening.	2202688	1471980411172	1471980411300	 	32
4350	46231	Have a good evening.	Have a good evening.	2202690	1471980411276	1471980411380	e	69
4350	46231	Have a good evening.	Have a good evening.	2202692	1471980411396	1471980411548	v	86
4350	46231	Have a good evening.	Have a good evening.	2202696	1471980411532	1471980411668	e	69
4350	46231	Have a good evening.	Have a good evening.	2202702	1471980411612	1471980411788	i	73
4350	46231	Have a good evening.	Have a good evening.	2202794	1471980411700	1471980411828	n	78
4350	46231	Have a good evening.	Have a good evening.	2202798	1471980411836	1471980411924	g	71
4350	46231	Have a good evening.	Have a good evening.	2202801	1471980412092	1471980412172	BKSP	8
4350	46231	Have a good evening.	Have a good evening.	2202805	1471980412236	1471980412319	BKSP	8
4350	46231	Have a good evening.	Have a good evening.	2202810	1471980412380	1471980412476	BKSP	8
4350	46231	Have a good evening.	Have a good evening.	2202813	1471980412612	1471980412692	n	78
4350	46231	Have a good evening.	Have a good evening.	2202818	1471980412724	1471980412852	i	73
4350	46231	Have a good evening.	Have a good evening.	2202821	1471980412820	1471980412908	n	78
4350	46231	Have a good evening.	Have a good evening.	2202819	1471980412884	1471980412980	g	71
4350	46231	Have a good evening.	Have a good evening.	2202822	1471980412995	1471980413076	.	190
4350	46240	The local forecasters are showing rain for Thanksgiving here.	The local forecasters are showing rain for Thanksgiving here.	2202930	1471980414684	1471980414868	SHIFT	16
4350	46240	The local forecasters are showing rain for Thanksgiving here.	The local forecasters are showing rain for Thanksgiving here.	2202933	1471980414823	1471980414952	T	84
4350	46240	The local forecasters are showing rain for Thanksgiving here.	The local forecasters are showing rain for Thanksgiving here.	2202937	1471980414932	1471980415035	h	72
4350	46240	The local forecasters are showing rain for Thanksgiving here.	The local forecasters are showing rain for Thanksgiving here.	2202941	1471980415004	1471980415116	e	69
4350	46240	The local forecasters are showing rain for Thanksgiving here.	The local forecasters are showing rain for Thanksgiving here.	2202946	1471980415108	1471980415232	 	32
4350	46240	The local forecasters are showing rain for Thanksgiving here.	The local forecasters are showing rain for Thanksgiving here.	2202949	1471980415243	1471980415332	l	76
4350	46240	The local forecasters are showing rain for Thanksgiving here.	The local forecasters are showing rain for Thanksgiving here.	2203002	1471980415392	1471980415524	o	79
4350	46240	The local forecasters are showing rain for Thanksgiving here.	The local forecasters are showing rain for Thanksgiving here.	2203005	1471980415452	1471980415579	c	67
4350	46240	The local forecasters are showing rain for Thanksgiving here.	The local forecasters are showing rain for Thanksgiving here.	2203011	1471980415572	1471980415772	a	65
4350	46240	The local forecasters are showing rain for Thanksgiving here.	The local forecasters are showing rain for Thanksgiving here.	2203015	1471980415832	1471980415996	l	76
4350	46240	The local forecasters are showing rain for Thanksgiving here.	The local forecasters are showing rain for Thanksgiving here.	2203094	1471980415948	1471980416083	 	32
4350	46240	The local forecasters are showing rain for Thanksgiving here.	The local forecasters are showing rain for Thanksgiving here.	2203099	1471980416103	1471980416220	f	70
4350	46240	The local forecasters are showing rain for Thanksgiving here.	The local forecasters are showing rain for Thanksgiving here.	2203104	1471980416184	1471980416299	o	79
4350	46240	The local forecasters are showing rain for Thanksgiving here.	The local forecasters are showing rain for Thanksgiving here.	2203109	1471980416300	1471980416435	r	82
4350	46240	The local forecasters are showing rain for Thanksgiving here.	The local forecasters are showing rain for Thanksgiving here.	2203113	1471980416683	1471980416808	e	69
4350	46240	The local forecasters are showing rain for Thanksgiving here.	The local forecasters are showing rain for Thanksgiving here.	2203117	1471980416903	1471980417036	c	67
4350	46240	The local forecasters are showing rain for Thanksgiving here.	The local forecasters are showing rain for Thanksgiving here.	2203173	1471980417000	1471980417143	a	65
4350	46240	The local forecasters are showing rain for Thanksgiving here.	The local forecasters are showing rain for Thanksgiving here.	2203181	1471980417280	1471980417404	t	84
4350	46240	The local forecasters are showing rain for Thanksgiving here.	The local forecasters are showing rain for Thanksgiving here.	2203185	1471980417640	1471980417723	BKSP	8
4350	46240	The local forecasters are showing rain for Thanksgiving here.	The local forecasters are showing rain for Thanksgiving here.	2203191	1471980417703	1471980417832	s	83
4350	46240	The local forecasters are showing rain for Thanksgiving here.	The local forecasters are showing rain for Thanksgiving here.	2203196	1471980417775	1471980417887	t	84
4350	46240	The local forecasters are showing rain for Thanksgiving here.	The local forecasters are showing rain for Thanksgiving here.	2203201	1471980417888	1471980418048	e	69
4350	46240	The local forecasters are showing rain for Thanksgiving here.	The local forecasters are showing rain for Thanksgiving here.	2203217	1471980417960	1471980418096	r	82
4350	46240	The local forecasters are showing rain for Thanksgiving here.	The local forecasters are showing rain for Thanksgiving here.	2203223	1471980418063	1471980418207	s	83
4350	46240	The local forecasters are showing rain for Thanksgiving here.	The local forecasters are showing rain for Thanksgiving here.	2203229	1471980418208	1471980418327	 	32
4350	46240	The local forecasters are showing rain for Thanksgiving here.	The local forecasters are showing rain for Thanksgiving here.	2203236	1471980418288	1471980418396	a	65
4350	46240	The local forecasters are showing rain for Thanksgiving here.	The local forecasters are showing rain for Thanksgiving here.	2203242	1471980418351	1471980418479	r	82
4350	46240	The local forecasters are showing rain for Thanksgiving here.	The local forecasters are showing rain for Thanksgiving here.	2203269	1471980418423	1471980418535	e	69
4350	46240	The local forecasters are showing rain for Thanksgiving here.	The local forecasters are showing rain for Thanksgiving here.	2203276	1471980418536	1471980418635	 	32
4350	46240	The local forecasters are showing rain for Thanksgiving here.	The local forecasters are showing rain for Thanksgiving here.	2203282	1471980418615	1471980418728	s	83
4350	46240	The local forecasters are showing rain for Thanksgiving here.	The local forecasters are showing rain for Thanksgiving here.	2203289	1471980418680	1471980418787	h	72
4350	46240	The local forecasters are showing rain for Thanksgiving here.	The local forecasters are showing rain for Thanksgiving here.	2203297	1471980418767	1471980418895	o	79
4350	46240	The local forecasters are showing rain for Thanksgiving here.	The local forecasters are showing rain for Thanksgiving here.	2203325	1471980418847	1471980418951	w	87
4350	46240	The local forecasters are showing rain for Thanksgiving here.	The local forecasters are showing rain for Thanksgiving here.	2203329	1471980418959	1471980419079	i	73
4350	46240	The local forecasters are showing rain for Thanksgiving here.	The local forecasters are showing rain for Thanksgiving here.	2203336	1471980419032	1471980419175	n	78
4350	46240	The local forecasters are showing rain for Thanksgiving here.	The local forecasters are showing rain for Thanksgiving here.	2203340	1471980419095	1471980419191	g	71
4350	46240	The local forecasters are showing rain for Thanksgiving here.	The local forecasters are showing rain for Thanksgiving here.	2203342	1471980419176	1471980419312	 	32
4350	46240	The local forecasters are showing rain for Thanksgiving here.	The local forecasters are showing rain for Thanksgiving here.	2203366	1471980419280	1471980419431	r	82
4350	46240	The local forecasters are showing rain for Thanksgiving here.	The local forecasters are showing rain for Thanksgiving here.	2203371	1471980419376	1471980419535	a	65
4350	46240	The local forecasters are showing rain for Thanksgiving here.	The local forecasters are showing rain for Thanksgiving here.	2203379	1471980419479	1471980419607	i	73
4350	46240	The local forecasters are showing rain for Thanksgiving here.	The local forecasters are showing rain for Thanksgiving here.	2203384	1471980419551	1471980419679	n	78
4350	46240	The local forecasters are showing rain for Thanksgiving here.	The local forecasters are showing rain for Thanksgiving here.	2203389	1471980419647	1471980419759	 	32
4350	46240	The local forecasters are showing rain for Thanksgiving here.	The local forecasters are showing rain for Thanksgiving here.	2203412	1471980419719	1471980419831	f	70
4350	46240	The local forecasters are showing rain for Thanksgiving here.	The local forecasters are showing rain for Thanksgiving here.	2203417	1471980419847	1471980419951	o	79
4350	46240	The local forecasters are showing rain for Thanksgiving here.	The local forecasters are showing rain for Thanksgiving here.	2203421	1471980419912	1471980420008	r	82
4350	46240	The local forecasters are showing rain for Thanksgiving here.	The local forecasters are showing rain for Thanksgiving here.	2203424	1471980419967	1471980420079	 	32
4350	46240	The local forecasters are showing rain for Thanksgiving here.	The local forecasters are showing rain for Thanksgiving here.	2203430	1471980420063	1471980420207	SHIFT	16
4350	46240	The local forecasters are showing rain for Thanksgiving here.	The local forecasters are showing rain for Thanksgiving here.	2203437	1471980420159	1471980420287	T	84
4350	46240	The local forecasters are showing rain for Thanksgiving here.	The local forecasters are showing rain for Thanksgiving here.	2203545	1471980420279	1471980420399	h	72
4350	46240	The local forecasters are showing rain for Thanksgiving here.	The local forecasters are showing rain for Thanksgiving here.	2203550	1471980420303	1471980420463	a	65
4350	46240	The local forecasters are showing rain for Thanksgiving here.	The local forecasters are showing rain for Thanksgiving here.	2203554	1471980420479	1471980420615	n	78
4350	46240	The local forecasters are showing rain for Thanksgiving here.	The local forecasters are showing rain for Thanksgiving here.	2203555	1471980420608	1471980420767	k	75
4350	46240	The local forecasters are showing rain for Thanksgiving here.	The local forecasters are showing rain for Thanksgiving here.	2203558	1471980421023	1471980421151	s	83
4350	46240	The local forecasters are showing rain for Thanksgiving here.	The local forecasters are showing rain for Thanksgiving here.	2203561	1471980421791	1471980421911	g	71
4350	46240	The local forecasters are showing rain for Thanksgiving here.	The local forecasters are showing rain for Thanksgiving here.	2203612	1471980421935	1471980422059	i	73
4350	46240	The local forecasters are showing rain for Thanksgiving here.	The local forecasters are showing rain for Thanksgiving here.	2203617	1471980422039	1471980422167	v	86
4350	46240	The local forecasters are showing rain for Thanksgiving here.	The local forecasters are showing rain for Thanksgiving here.	2203624	1471980422135	1471980422279	i	73
4350	46240	The local forecasters are showing rain for Thanksgiving here.	The local forecasters are showing rain for Thanksgiving here.	2203628	1471980422231	1471980422351	n	78
4350	46240	The local forecasters are showing rain for Thanksgiving here.	The local forecasters are showing rain for Thanksgiving here.	2203635	1471980422663	1471980422762	g	71
4350	46240	The local forecasters are showing rain for Thanksgiving here.	The local forecasters are showing rain for Thanksgiving here.	2203650	1471980422743	1471980422871	 	32
4350	46240	The local forecasters are showing rain for Thanksgiving here.	The local forecasters are showing rain for Thanksgiving here.	2203653	1471980422831	1471980422951	h	72
4350	46240	The local forecasters are showing rain for Thanksgiving here.	The local forecasters are showing rain for Thanksgiving here.	2203655	1471980422887	1471980422999	e	69
4350	46240	The local forecasters are showing rain for Thanksgiving here.	The local forecasters are showing rain for Thanksgiving here.	2203659	1471980422952	1471980423055	r	82
4350	46240	The local forecasters are showing rain for Thanksgiving here.	The local forecasters are showing rain for Thanksgiving here.	2203662	1471980423047	1471980423155	e	69
4350	46240	The local forecasters are showing rain for Thanksgiving here.	The local forecasters are showing rain for Thanksgiving here.	2203667	1471980423135	1471980423223	.	190
4350	46257	Arkansas called in 32 extra state police to the prison.	Arkansas called in 32 extra state police to the prison.	2203851	1471980424743	1471980424903	SHIFT	16
4350	46257	Arkansas called in 32 extra state police to the prison.	Arkansas called in 32 extra state police to the prison.	2203857	1471980424823	1471980424983	A	65
4350	46257	Arkansas called in 32 extra state police to the prison.	Arkansas called in 32 extra state police to the prison.	2203862	1471980425055	1471980425207	r	82
4350	46257	Arkansas called in 32 extra state police to the prison.	Arkansas called in 32 extra state police to the prison.	2203868	1471980425327	1471980425455	k	75
4350	46257	Arkansas called in 32 extra state police to the prison.	Arkansas called in 32 extra state police to the prison.	2203873	1471980425456	1471980425587	a	65
4350	46257	Arkansas called in 32 extra state police to the prison.	Arkansas called in 32 extra state police to the prison.	2203974	1471980425567	1471980425695	n	78
4350	46257	Arkansas called in 32 extra state police to the prison.	Arkansas called in 32 extra state police to the prison.	2203977	1471980425887	1471980426023	s	83
4350	46257	Arkansas called in 32 extra state police to the prison.	Arkansas called in 32 extra state police to the prison.	2203981	1471980425991	1471980426127	a	65
4350	46257	Arkansas called in 32 extra state police to the prison.	Arkansas called in 32 extra state police to the prison.	2203983	1471980426247	1471980426407	s	83
4350	46257	Arkansas called in 32 extra state police to the prison.	Arkansas called in 32 extra state police to the prison.	2203987	1471980426415	1471980426559	 	32
4350	46257	Arkansas called in 32 extra state police to the prison.	Arkansas called in 32 extra state police to the prison.	2203992	1471980426631	1471980426767	c	67
4350	46257	Arkansas called in 32 extra state police to the prison.	Arkansas called in 32 extra state police to the prison.	2204037	1471980426711	1471980426855	a	65
4350	46257	Arkansas called in 32 extra state police to the prison.	Arkansas called in 32 extra state police to the prison.	2204042	1471980426831	1471980426919	l	76
4350	46257	Arkansas called in 32 extra state police to the prison.	Arkansas called in 32 extra state police to the prison.	2204046	1471980426967	1471980427103	l	76
4350	46257	Arkansas called in 32 extra state police to the prison.	Arkansas called in 32 extra state police to the prison.	2204050	1471980427095	1471980427215	e	69
4350	46257	Arkansas called in 32 extra state police to the prison.	Arkansas called in 32 extra state police to the prison.	2204055	1471980427487	1471980427607	 	32
4350	46257	Arkansas called in 32 extra state police to the prison.	Arkansas called in 32 extra state police to the prison.	2204117	1471980427591	1471980427655	d	68
4350	46257	Arkansas called in 32 extra state police to the prison.	Arkansas called in 32 extra state police to the prison.	2204121	1471980427855	1471980427935	BKSP	8
4350	46257	Arkansas called in 32 extra state police to the prison.	Arkansas called in 32 extra state police to the prison.	2204124	1471980428007	1471980428099	BKSP	8
4350	46257	Arkansas called in 32 extra state police to the prison.	Arkansas called in 32 extra state police to the prison.	2204128	1471980428119	1471980428247	d	68
4350	46257	Arkansas called in 32 extra state police to the prison.	Arkansas called in 32 extra state police to the prison.	2204133	1471980428199	1471980428335	 	32
4350	46257	Arkansas called in 32 extra state police to the prison.	Arkansas called in 32 extra state police to the prison.	2204140	1471980428295	1471980428431	i	73
4350	46257	Arkansas called in 32 extra state police to the prison.	Arkansas called in 32 extra state police to the prison.	2204146	1471980428375	1471980428511	n	78
4350	46257	Arkansas called in 32 extra state police to the prison.	Arkansas called in 32 extra state police to the prison.	2204229	1471980428455	1471980428599	 	32
4350	46257	Arkansas called in 32 extra state police to the prison.	Arkansas called in 32 extra state police to the prison.	2204232	1471980429215	1471980429407	3	99
4350	46257	Arkansas called in 32 extra state police to the prison.	Arkansas called in 32 extra state police to the prison.	2204238	1471980429351	1471980429463	2	98
4350	46257	Arkansas called in 32 extra state police to the prison.	Arkansas called in 32 extra state police to the prison.	2204243	1471980429703	1471980429831	 	32
4350	46257	Arkansas called in 32 extra state police to the prison.	Arkansas called in 32 extra state police to the prison.	2204250	1471980429799	1471980429903	e	69
4350	46257	Arkansas called in 32 extra state police to the prison.	Arkansas called in 32 extra state police to the prison.	2204255	1471980429943	1471980430079	x	88
4350	46257	Arkansas called in 32 extra state police to the prison.	Arkansas called in 32 extra state police to the prison.	2204288	1471980430095	1471980430191	t	84
4350	46257	Arkansas called in 32 extra state police to the prison.	Arkansas called in 32 extra state police to the prison.	2204293	1471980430223	1471980430367	r	82
4350	46257	Arkansas called in 32 extra state police to the prison.	Arkansas called in 32 extra state police to the prison.	2204298	1471980430311	1471980430447	a	65
4350	46257	Arkansas called in 32 extra state police to the prison.	Arkansas called in 32 extra state police to the prison.	2204301	1471980430455	1471980430583	 	32
4350	46257	Arkansas called in 32 extra state police to the prison.	Arkansas called in 32 extra state police to the prison.	2204361	1471980430560	1471980430679	s	83
4350	46257	Arkansas called in 32 extra state police to the prison.	Arkansas called in 32 extra state police to the prison.	2204366	1471980430647	1471980430759	t	84
4350	46257	Arkansas called in 32 extra state police to the prison.	Arkansas called in 32 extra state police to the prison.	2204368	1471980430751	1471980430887	a	65
4350	46257	Arkansas called in 32 extra state police to the prison.	Arkansas called in 32 extra state police to the prison.	2204372	1471980430831	1471980431007	t	84
4350	46257	Arkansas called in 32 extra state police to the prison.	Arkansas called in 32 extra state police to the prison.	2204376	1471980431135	1471980431239	e	69
4350	46257	Arkansas called in 32 extra state police to the prison.	Arkansas called in 32 extra state police to the prison.	2204380	1471980431279	1471980431383	 	32
4350	46257	Arkansas called in 32 extra state police to the prison.	Arkansas called in 32 extra state police to the prison.	2204421	1471980431431	1471980431543	p	80
4350	46257	Arkansas called in 32 extra state police to the prison.	Arkansas called in 32 extra state police to the prison.	2204425	1471980431463	1471980431615	o	79
4350	46257	Arkansas called in 32 extra state police to the prison.	Arkansas called in 32 extra state police to the prison.	2204430	1471980431871	1471980432015	l	76
4350	46257	Arkansas called in 32 extra state police to the prison.	Arkansas called in 32 extra state police to the prison.	2204433	1471980431967	1471980432095	i	73
4350	46257	Arkansas called in 32 extra state police to the prison.	Arkansas called in 32 extra state police to the prison.	2204440	1471980432111	1471980432247	c	67
4350	46257	Arkansas called in 32 extra state police to the prison.	Arkansas called in 32 extra state police to the prison.	2204474	1471980432183	1471980432351	e	69
4350	46257	Arkansas called in 32 extra state police to the prison.	Arkansas called in 32 extra state police to the prison.	2204476	1471980432303	1471980432407	 	32
4350	46257	Arkansas called in 32 extra state police to the prison.	Arkansas called in 32 extra state police to the prison.	2204481	1471980432551	1471980432687	t	84
4350	46257	Arkansas called in 32 extra state police to the prison.	Arkansas called in 32 extra state police to the prison.	2204486	1471980432631	1471980432767	o	79
4350	46257	Arkansas called in 32 extra state police to the prison.	Arkansas called in 32 extra state police to the prison.	2204490	1471980432719	1471980432815	 	32
4350	46257	Arkansas called in 32 extra state police to the prison.	Arkansas called in 32 extra state police to the prison.	2204499	1471980432783	1471980432983	t	84
4350	46257	Arkansas called in 32 extra state police to the prison.	Arkansas called in 32 extra state police to the prison.	2204505	1471980432847	1471980432999	h	72
4350	46257	Arkansas called in 32 extra state police to the prison.	Arkansas called in 32 extra state police to the prison.	2204509	1471980432887	1471980433031	e	69
4350	46257	Arkansas called in 32 extra state police to the prison.	Arkansas called in 32 extra state police to the prison.	2204514	1471980432935	1471980433047	 	32
4350	46257	Arkansas called in 32 extra state police to the prison.	Arkansas called in 32 extra state police to the prison.	2204517	1471980433071	1471980433183	p	80
4350	46257	Arkansas called in 32 extra state police to the prison.	Arkansas called in 32 extra state police to the prison.	2204592	1471980433167	1471980433295	r	82
4350	46257	Arkansas called in 32 extra state police to the prison.	Arkansas called in 32 extra state police to the prison.	2204593	1471980433279	1471980433415	i	73
4350	46257	Arkansas called in 32 extra state police to the prison.	Arkansas called in 32 extra state police to the prison.	2204594	1471980433519	1471980433647	s	83
4350	46257	Arkansas called in 32 extra state police to the prison.	Arkansas called in 32 extra state police to the prison.	2204595	1471980433727	1471980433831	i	73
4350	46257	Arkansas called in 32 extra state police to the prison.	Arkansas called in 32 extra state police to the prison.	2204596	1471980433759	1471980433991	o	79
4350	46257	Arkansas called in 32 extra state police to the prison.	Arkansas called in 32 extra state police to the prison.	2204597	1471980434175	1471980434255	BKSP	8
4350	46257	Arkansas called in 32 extra state police to the prison.	Arkansas called in 32 extra state police to the prison.	2204599	1471980434319	1471980434399	BKSP	8
4350	46257	Arkansas called in 32 extra state police to the prison.	Arkansas called in 32 extra state police to the prison.	2204603	1471980434503	1471980434599	o	79
4350	46257	Arkansas called in 32 extra state police to the prison.	Arkansas called in 32 extra state police to the prison.	2204612	1471980434607	1471980434711	n	78
4350	46257	Arkansas called in 32 extra state police to the prison.	Arkansas called in 32 extra state police to the prison.	2204615	1471980434775	1471980434855	.	190
4350	46278	I will be there.	I will be there.	2204751	1471980436463	1471980436615	SHIFT	16
4350	46278	I will be there.	I will be there.	2204755	1471980436575	1471980436711	I	73
4350	46278	I will be there.	I will be there.	2204767	1471980436671	1471980436799	 	32
4350	46278	I will be there.	I will be there.	2204774	1471980436783	1471980436895	w	87
4350	46278	I will be there.	I will be there.	2204781	1471980436831	1471980436927	i	73
4350	46278	I will be there.	I will be there.	2204787	1471980436999	1471980437079	l	76
4350	46278	I will be there.	I will be there.	2204790	1471980437127	1471980437231	l	76
4350	46278	I will be there.	I will be there.	2204793	1471980437175	1471980437287	 	32
4350	46278	I will be there.	I will be there.	2204796	1471980437279	1471980437383	b	66
4350	46278	I will be there.	I will be there.	2204798	1471980437327	1471980437439	e	69
4350	46278	I will be there.	I will be there.	2204850	1471980437423	1471980437535	 	32
4350	46278	I will be there.	I will be there.	2204855	1471980437663	1471980437807	t	84
4350	46278	I will be there.	I will be there.	2204860	1471980437959	1471980438063	h	72
4350	46278	I will be there.	I will be there.	2204866	1471980438079	1471980438199	e	69
4350	46278	I will be there.	I will be there.	2204868	1471980438159	1471980438271	r	82
4350	46278	I will be there.	I will be there.	2204881	1471980438255	1471980438359	e	69
4350	46278	I will be there.	I will be there.	2204884	1471980438327	1471980438415	.	190
4350	46282	They have not issued an order yet.	They have no isused an order yet.	2205033	1471980440023	1471980440167	SHIFT	16
4350	46282	They have not issued an order yet.	They have no isused an order yet.	2205036	1471980440123	1471980440231	T	84
4350	46282	They have not issued an order yet.	They have no isused an order yet.	2205040	1471980440191	1471980440311	h	72
4350	46282	They have not issued an order yet.	They have no isused an order yet.	2205044	1471980440263	1471980440407	e	69
4350	46282	They have not issued an order yet.	They have no isused an order yet.	2205047	1471980440391	1471980440487	y	89
4350	46282	They have not issued an order yet.	They have no isused an order yet.	2205068	1471980440455	1471980440575	 	32
4350	46282	They have not issued an order yet.	They have no isused an order yet.	2205074	1471980440591	1471980440703	h	72
4350	46282	They have not issued an order yet.	They have no isused an order yet.	2205076	1471980440626	1471980440751	a	65
4350	46282	They have not issued an order yet.	They have no isused an order yet.	2205078	1471980440687	1471980440815	v	86
4350	46282	They have not issued an order yet.	They have no isused an order yet.	2205082	1471980440767	1471980440903	e	69
4350	46282	They have not issued an order yet.	They have no isused an order yet.	2205093	1471980440831	1471980440983	 	32
4350	46282	They have not issued an order yet.	They have no isused an order yet.	2205095	1471980440935	1471980441079	n	78
4350	46282	They have not issued an order yet.	They have no isused an order yet.	2205099	1471980441015	1471980441199	o	79
4350	46282	They have not issued an order yet.	They have no isused an order yet.	2205106	1471980441119	1471980441279	 	32
4350	46282	They have not issued an order yet.	They have no isused an order yet.	2205109	1471980441231	1471980441351	i	73
4350	46282	They have not issued an order yet.	They have no isused an order yet.	2205146	1471980441294	1471980441391	s	83
4350	46282	They have not issued an order yet.	They have no isused an order yet.	2205153	1471980441447	1471980441559	s	85
4350	46282	They have not issued an order yet.	They have no isused an order yet.	2205159	1471980441567	1471980441687	e	69
4350	46282	They have not issued an order yet.	They have no isused an order yet.	2205168	1471980441743	1471980441855	d	68
4350	46282	They have not issued an order yet.	They have no isused an order yet.	2205241	1471980441799	1471980441935	 	32
4350	46282	They have not issued an order yet.	They have no isused an order yet.	2205243	1471980441911	1471980442031	a	65
4350	46282	They have not issued an order yet.	They have no isused an order yet.	2205247	1471980442007	1471980442151	n	78
4350	46282	They have not issued an order yet.	They have no isused an order yet.	2205251	1471980442135	1471980442279	 	32
4350	46282	They have not issued an order yet.	They have no isused an order yet.	2205254	1471980442591	1471980442711	a	65
4350	46282	They have not issued an order yet.	They have no isused an order yet.	2205258	1471980442751	1471980442855	o	79
4350	46282	They have not issued an order yet.	They have no isused an order yet.	2205303	1471980443079	1471980443159	BKSP	8
4350	46282	They have not issued an order yet.	They have no isused an order yet.	2205307	1471980443207	1471980443291	BKSP	8
4350	46282	They have not issued an order yet.	They have no isused an order yet.	2205309	1471980443387	1471980443478	o	79
4350	46282	They have not issued an order yet.	They have no isused an order yet.	2205314	1471980443427	1471980443519	r	82
4350	46282	They have not issued an order yet.	They have no isused an order yet.	2205318	1471980443463	1471980443574	d	68
4350	46282	They have not issued an order yet.	They have no isused an order yet.	2205324	1471980443638	1471980443799	e	69
4350	46282	They have not issued an order yet.	They have no isused an order yet.	2205351	1471980443691	1471980443806	r	82
4350	46282	They have not issued an order yet.	They have no isused an order yet.	2205357	1471980443771	1471980443878	 	32
4350	46282	They have not issued an order yet.	They have no isused an order yet.	2205362	1471980443886	1471980443999	y	89
4350	46282	They have not issued an order yet.	They have no isused an order yet.	2205368	1471980443955	1471980444099	e	69
4350	46282	They have not issued an order yet.	They have no isused an order yet.	2205374	1471980444018	1471980444138	t	84
4350	46282	They have not issued an order yet.	They have no isused an order yet.	2205379	1471980444126	1471980444211	.	190
4350	46293	Let's wait until Monday.	Let's wait until Monday.	2205552	1471980446039	1471980446163	SHIFT	16
4350	46293	Let's wait until Monday.	Let's wait until Monday.	2205556	1471980446138	1471980446258	L	76
4350	46293	Let's wait until Monday.	Let's wait until Monday.	2205560	1471980446282	1471980446451	e	69
4350	46293	Let's wait until Monday.	Let's wait until Monday.	2205563	1471980446363	1471980446486	t	84
4350	46293	Let's wait until Monday.	Let's wait until Monday.	2205567	1471980446570	1471980446659	'	222
4350	46293	Let's wait until Monday.	Let's wait until Monday.	2205572	1471980446714	1471980446843	s	83
4350	46293	Let's wait until Monday.	Let's wait until Monday.	2205581	1471980446815	1471980446946	 	32
4350	46293	Let's wait until Monday.	Let's wait until Monday.	2205585	1471980446947	1471980447083	w	87
4350	46293	Let's wait until Monday.	Let's wait until Monday.	2205588	1471980447027	1471980447146	a	65
4350	46293	Let's wait until Monday.	Let's wait until Monday.	2205592	1471980447083	1471980447194	i	73
4350	46293	Let's wait until Monday.	Let's wait until Monday.	2205597	1471980447195	1471980447298	t	84
4350	46293	Let's wait until Monday.	Let's wait until Monday.	2205624	1471980447291	1471980447418	 	32
4350	46293	Let's wait until Monday.	Let's wait until Monday.	2205626	1471980447458	1471980447562	u	85
4350	46293	Let's wait until Monday.	Let's wait until Monday.	2205627	1471980447642	1471980447722	n	78
4350	46293	Let's wait until Monday.	Let's wait until Monday.	2205628	1471980447778	1471980447930	i	73
4350	46293	Let's wait until Monday.	Let's wait until Monday.	2205708	1471980447874	1471980448026	l	76
4350	46293	Let's wait until Monday.	Let's wait until Monday.	2205711	1471980447923	1471980448066	 	32
4350	46293	Let's wait until Monday.	Let's wait until Monday.	2205715	1471980448130	1471980448218	SHIFT	16
4350	46293	Let's wait until Monday.	Let's wait until Monday.	2205718	1471980448450	1471980448538	BKSP	8
4350	46293	Let's wait until Monday.	Let's wait until Monday.	2205722	1471980448594	1471980448682	BKSP	8
4350	46293	Let's wait until Monday.	Let's wait until Monday.	2205726	1471980448746	1471980448818	BKSP	8
4350	46293	Let's wait until Monday.	Let's wait until Monday.	2205731	1471980448922	1471980449050	t	84
4350	46293	Let's wait until Monday.	Let's wait until Monday.	2205739	1471980449058	1471980449170	i	73
4350	46293	Let's wait until Monday.	Let's wait until Monday.	2205745	1471980449162	1471980449282	l	76
4350	46293	Let's wait until Monday.	Let's wait until Monday.	2205750	1471980449202	1471980449346	 	32
4350	46293	Let's wait until Monday.	Let's wait until Monday.	2205797	1471980449290	1471980449426	SHIFT	16
4350	46293	Let's wait until Monday.	Let's wait until Monday.	2205790	1471980449338	1471980449418	M	77
4350	46293	Let's wait until Monday.	Let's wait until Monday.	2205802	1471980449427	1471980449522	o	79
4350	46293	Let's wait until Monday.	Let's wait until Monday.	2205812	1471980449538	1471980449666	n	78
4350	46293	Let's wait until Monday.	Let's wait until Monday.	2205819	1471980449658	1471980449794	d	68
4350	46293	Let's wait until Monday.	Let's wait until Monday.	2205827	1471980449746	1471980449866	a	65
4350	46293	Let's wait until Monday.	Let's wait until Monday.	2205834	1471980450170	1471980450274	y	89
4350	46293	Let's wait until Monday.	Let's wait until Monday.	2205832	1471980450410	1471980450498	.	190
4350	46305	Kim, here's the PSCO website address.	Kim, here;s the PSCO website address.	2206099	1471980452066	1471980452226	SHIFT	16
4350	46305	Kim, here's the PSCO website address.	Kim, here;s the PSCO website address.	2206102	1471980452170	1471980452266	K	75
4350	46305	Kim, here's the PSCO website address.	Kim, here;s the PSCO website address.	2206109	1471980452330	1471980452426	i	73
4350	46305	Kim, here's the PSCO website address.	Kim, here;s the PSCO website address.	2206118	1471980453162	1471980453242	n	78
4350	46305	Kim, here's the PSCO website address.	Kim, here;s the PSCO website address.	2206128	1471980453474	1471980453554	BKSP	8
4350	46305	Kim, here's the PSCO website address.	Kim, here;s the PSCO website address.	2206135	1471980453674	1471980453770	m	77
4350	46305	Kim, here's the PSCO website address.	Kim, here;s the PSCO website address.	2206143	1471980453842	1471980453970	,	188
4350	46305	Kim, here's the PSCO website address.	Kim, here;s the PSCO website address.	2206167	1471980453938	1471980454058	 	32
4350	46305	Kim, here's the PSCO website address.	Kim, here;s the PSCO website address.	2206174	1471980454059	1471980454179	h	72
4350	46305	Kim, here's the PSCO website address.	Kim, here;s the PSCO website address.	2206180	1471980454146	1471980454258	e	69
4350	46305	Kim, here's the PSCO website address.	Kim, here;s the PSCO website address.	2206185	1471980454218	1471980454314	r	82
4350	46305	Kim, here's the PSCO website address.	Kim, here;s the PSCO website address.	2206190	1471980454315	1471980454458	e	69
4350	46305	Kim, here's the PSCO website address.	Kim, here;s the PSCO website address.	2206195	1471980454498	1471980454602	;	186
4350	46305	Kim, here's the PSCO website address.	Kim, here;s the PSCO website address.	2206245	1471980454954	1471980455042	BKSP	8
4350	46305	Kim, here's the PSCO website address.	Kim, here;s the PSCO website address.	2206253	1471980455154	1471980455250	;	186
4350	46305	Kim, here's the PSCO website address.	Kim, here;s the PSCO website address.	2206259	1471980455290	1471980455402	s	83
4350	46305	Kim, here's the PSCO website address.	Kim, here;s the PSCO website address.	2206264	1471980455362	1471980455482	 	32
4350	46305	Kim, here's the PSCO website address.	Kim, here;s the PSCO website address.	2206268	1471980455442	1471980455602	t	84
4350	46305	Kim, here's the PSCO website address.	Kim, here;s the PSCO website address.	2206321	1471980455498	1471980455642	h	72
4350	46305	Kim, here's the PSCO website address.	Kim, here;s the PSCO website address.	2206322	1471980455554	1471980455706	e	69
4350	46305	Kim, here's the PSCO website address.	Kim, here;s the PSCO website address.	2206324	1471980455643	1471980455770	 	32
4350	46305	Kim, here's the PSCO website address.	Kim, here;s the PSCO website address.	2206354	1471980455858	1471980456642	SHIFT	16
4350	46305	Kim, here's the PSCO website address.	Kim, here;s the PSCO website address.	2206326	1471980455962	1471980456082	P	80
4350	46305	Kim, here's the PSCO website address.	Kim, here;s the PSCO website address.	2206328	1471980456090	1471980456218	S	83
4350	46305	Kim, here's the PSCO website address.	Kim, here;s the PSCO website address.	2206331	1471980456306	1471980456410	C	67
4350	46305	Kim, here's the PSCO website address.	Kim, here;s the PSCO website address.	2206333	1471980456482	1471980456586	O	79
4350	46305	Kim, here's the PSCO website address.	Kim, here;s the PSCO website address.	2206356	1471980456626	1471980456754	 	32
4350	46305	Kim, here's the PSCO website address.	Kim, here;s the PSCO website address.	2206358	1471980456906	1471980457058	w	87
4350	46305	Kim, here's the PSCO website address.	Kim, here;s the PSCO website address.	2206360	1471980456986	1471980457126	e	69
4350	46305	Kim, here's the PSCO website address.	Kim, here;s the PSCO website address.	2206363	1471980457106	1471980457186	b	66
4350	46305	Kim, here's the PSCO website address.	Kim, here;s the PSCO website address.	2206367	1471980457194	1471980457346	s	83
4350	46305	Kim, here's the PSCO website address.	Kim, here;s the PSCO website address.	2206375	1471980457282	1471980457394	i	73
4350	46305	Kim, here's the PSCO website address.	Kim, here;s the PSCO website address.	2206379	1471980457354	1471980457482	t	84
4350	46305	Kim, here's the PSCO website address.	Kim, here;s the PSCO website address.	2206383	1471980457410	1471980457562	e	69
4350	46305	Kim, here's the PSCO website address.	Kim, here;s the PSCO website address.	2206387	1471980457506	1471980457642	 	32
4350	46305	Kim, here's the PSCO website address.	Kim, here;s the PSCO website address.	2206392	1471980457618	1471980457770	a	65
4350	46305	Kim, here's the PSCO website address.	Kim, here;s the PSCO website address.	2206423	1471980457714	1471980457826	d	68
4350	46305	Kim, here's the PSCO website address.	Kim, here;s the PSCO website address.	2206424	1471980457874	1471980457994	d	68
4350	46305	Kim, here's the PSCO website address.	Kim, here;s the PSCO website address.	2206425	1471980458010	1471980458162	r	82
4350	46305	Kim, here's the PSCO website address.	Kim, here;s the PSCO website address.	2206426	1471980458085	1471980458218	e	69
4350	46305	Kim, here's the PSCO website address.	Kim, here;s the PSCO website address.	2206427	1471980458163	1471980458266	s	83
4350	46305	Kim, here's the PSCO website address.	Kim, here;s the PSCO website address.	2206428	1471980458306	1471980458418	s	83
4350	46305	Kim, here's the PSCO website address.	Kim, here;s the PSCO website address.	2206429	1471980458394	1471980458490	.	190
