PARTICIPANT_ID	TEST_SECTION_ID	SENTENCE	USER_INPUT	KEYSTROKE_ID	PRESS_TIME	RELEASE_TIME	LETTER	KEYCODE
4452	47269	Sheila please talk to Avashe.	Sheila please talk to Avashe.	2253580	1471981084445	1471981084572	CAPS_LOCK	20
4452	47269	Sheila please talk to Avashe.	Sheila please talk to Avashe.	2253582	1471981084884	1471981084972	S	83
4452	47269	Sheila please talk to Avashe.	Sheila please talk to Avashe.	2253587	1471981085112	1471981085222	CAPS_LOCK	20
4452	47269	Sheila please talk to Avashe.	Sheila please talk to Avashe.	2253593	1471981085491	1471981085604	h	72
4452	47269	Sheila please talk to Avashe.	Sheila please talk to Avashe.	2253597	1471981085729	1471981085838	e	69
4452	47269	Sheila please talk to Avashe.	Sheila please talk to Avashe.	2253602	1471981086260	1471981086334	i	73
4452	47269	Sheila please talk to Avashe.	Sheila please talk to Avashe.	2253607	1471981086489	1471981086532	l	76
4452	47269	Sheila please talk to Avashe.	Sheila please talk to Avashe.	2253639	1471981086596	1471981086736	a	65
4452	47269	Sheila please talk to Avashe.	Sheila please talk to Avashe.	2253643	1471981086767	1471981086903	 	32
4452	47269	Sheila please talk to Avashe.	Sheila please talk to Avashe.	2253647	1471981086965	1471981087057	p	80
4452	47269	Sheila please talk to Avashe.	Sheila please talk to Avashe.	2253654	1471981087228	1471981087307	l	76
4452	47269	Sheila please talk to Avashe.	Sheila please talk to Avashe.	2253660	1471981087478	1471981087589	e	69
4452	47269	Sheila please talk to Avashe.	Sheila please talk to Avashe.	2253693	1471981087731	1471981087876	a	65
4452	47269	Sheila please talk to Avashe.	Sheila please talk to Avashe.	2253698	1471981087938	1471981088048	s	83
4452	47269	Sheila please talk to Avashe.	Sheila please talk to Avashe.	2253704	1471981088157	1471981088255	e	69
4452	47269	Sheila please talk to Avashe.	Sheila please talk to Avashe.	2253706	1471981088286	1471981088419	 	32
4452	47269	Sheila please talk to Avashe.	Sheila please talk to Avashe.	2253708	1471981088561	1471981088640	t	84
4452	47269	Sheila please talk to Avashe.	Sheila please talk to Avashe.	2253736	1471981088689	1471981088835	a	65
4452	47269	Sheila please talk to Avashe.	Sheila please talk to Avashe.	2253742	1471981088835	1471981088891	l	76
4452	47269	Sheila please talk to Avashe.	Sheila please talk to Avashe.	2253746	1471981089016	1471981089121	k	75
4452	47269	Sheila please talk to Avashe.	Sheila please talk to Avashe.	2253751	1471981089153	1471981089301	 	32
4452	47269	Sheila please talk to Avashe.	Sheila please talk to Avashe.	2253756	1471981089379	1471981089489	t	84
4452	47269	Sheila please talk to Avashe.	Sheila please talk to Avashe.	2253847	1471981089522	1471981089635	o	79
4452	47269	Sheila please talk to Avashe.	Sheila please talk to Avashe.	2253851	1471981089650	1471981089786	 	32
4452	47269	Sheila please talk to Avashe.	Sheila please talk to Avashe.	2253855	1471981089817	1471981089937	a	65
4452	47269	Sheila please talk to Avashe.	Sheila please talk to Avashe.	2253857	1471981090327	1471981090407	BKSP	8
4452	47269	Sheila please talk to Avashe.	Sheila please talk to Avashe.	2253862	1471981090422	1471981090516	CAPS_LOCK	20
4452	47269	Sheila please talk to Avashe.	Sheila please talk to Avashe.	2253868	1471981090625	1471981090722	A	65
4452	47269	Sheila please talk to Avashe.	Sheila please talk to Avashe.	2253873	1471981090831	1471981090925	CAPS_LOCK	20
4452	47269	Sheila please talk to Avashe.	Sheila please talk to Avashe.	2253877	1471981091034	1471981091176	b	66
4452	47269	Sheila please talk to Avashe.	Sheila please talk to Avashe.	2254035	1471981091552	1471981091670	a	65
4452	47269	Sheila please talk to Avashe.	Sheila please talk to Avashe.	2254040	1471981091920	1471981092006	BKSP	8
4452	47269	Sheila please talk to Avashe.	Sheila please talk to Avashe.	2254045	1471981092099	1471981092189	BKSP	8
4452	47269	Sheila please talk to Avashe.	Sheila please talk to Avashe.	2254049	1471981092532	1471981092638	b	66
4452	47269	Sheila please talk to Avashe.	Sheila please talk to Avashe.	2254051	1471981093282	1471981093388	BKSP	8
4452	47269	Sheila please talk to Avashe.	Sheila please talk to Avashe.	2254053	1471981093559	1471981093633	v	86
4452	47269	Sheila please talk to Avashe.	Sheila please talk to Avashe.	2254056	1471981093695	1471981093737	a	65
4452	47269	Sheila please talk to Avashe.	Sheila please talk to Avashe.	2254059	1471981094210	1471981094322	s	83
4452	47269	Sheila please talk to Avashe.	Sheila please talk to Avashe.	2254116	1471981094543	1471981094670	h	72
4452	47269	Sheila please talk to Avashe.	Sheila please talk to Avashe.	2254123	1471981094717	1471981094806	e	69
4452	47269	Sheila please talk to Avashe.	Sheila please talk to Avashe.	2254131	1471981095071	1471981095173	.	190
4452	47290	Trust me, the men are the ones showing restraint.	Trust me, the men are the ones showing restraint.	2254306	1471981097049	1471981097176	CAPS_LOCK	20
4452	47290	Trust me, the men are the ones showing restraint.	Trust me, the men are the ones showing restraint.	2254312	1471981097316	1471981097406	T	84
4452	47290	Trust me, the men are the ones showing restraint.	Trust me, the men are the ones showing restraint.	2254316	1471981097500	1471981097624	CAPS_LOCK	20
4452	47290	Trust me, the men are the ones showing restraint.	Trust me, the men are the ones showing restraint.	2254324	1471981097874	1471981097987	r	82
4452	47290	Trust me, the men are the ones showing restraint.	Trust me, the men are the ones showing restraint.	2254331	1471981098080	1471981098185	u	85
4452	47290	Trust me, the men are the ones showing restraint.	Trust me, the men are the ones showing restraint.	2254339	1471981098142	1471981098239	s	83
4452	47290	Trust me, the men are the ones showing restraint.	Trust me, the men are the ones showing restraint.	2254344	1471981098364	1471981098477	t	84
4452	47290	Trust me, the men are the ones showing restraint.	Trust me, the men are the ones showing restraint.	2254440	1471981098461	1471981098588	 	32
4452	47290	Trust me, the men are the ones showing restraint.	Trust me, the men are the ones showing restraint.	2254445	1471981098635	1471981098793	m	77
4452	47290	Trust me, the men are the ones showing restraint.	Trust me, the men are the ones showing restraint.	2254448	1471981098777	1471981098888	e	69
4452	47290	Trust me, the men are the ones showing restraint.	Trust me, the men are the ones showing restraint.	2254454	1471981099139	1471981099253	.	190
4452	47290	Trust me, the men are the ones showing restraint.	Trust me, the men are the ones showing restraint.	2254458	1471981099472	1471981099556	 	32
4452	47290	Trust me, the men are the ones showing restraint.	Trust me, the men are the ones showing restraint.	2254463	1471981099775	1471981099842	BKSP	8
4452	47290	Trust me, the men are the ones showing restraint.	Trust me, the men are the ones showing restraint.	2254468	1471981099935	1471981100022	BKSP	8
4452	47290	Trust me, the men are the ones showing restraint.	Trust me, the men are the ones showing restraint.	2254473	1471981100178	1471981100288	,	188
4452	47290	Trust me, the men are the ones showing restraint.	Trust me, the men are the ones showing restraint.	2254552	1471981100399	1471981100520	 	32
4452	47290	Trust me, the men are the ones showing restraint.	Trust me, the men are the ones showing restraint.	2254557	1471981101241	1471981101339	t	84
4452	47290	Trust me, the men are the ones showing restraint.	Trust me, the men are the ones showing restraint.	2254562	1471981101432	1471981101528	h	72
4452	47290	Trust me, the men are the ones showing restraint.	Trust me, the men are the ones showing restraint.	2254569	1471981101528	1471981101623	e	69
4452	47290	Trust me, the men are the ones showing restraint.	Trust me, the men are the ones showing restraint.	2254576	1471981101623	1471981101738	 	32
4452	47290	Trust me, the men are the ones showing restraint.	Trust me, the men are the ones showing restraint.	2254635	1471981101833	1471981101938	m	77
4452	47290	Trust me, the men are the ones showing restraint.	Trust me, the men are the ones showing restraint.	2254638	1471981102110	1471981102238	e	69
4452	47290	Trust me, the men are the ones showing restraint.	Trust me, the men are the ones showing restraint.	2254642	1471981102488	1471981102619	n	78
4452	47290	Trust me, the men are the ones showing restraint.	Trust me, the men are the ones showing restraint.	2254645	1471981102619	1471981102771	 	32
4452	47290	Trust me, the men are the ones showing restraint.	Trust me, the men are the ones showing restraint.	2254649	1471981102771	1471981102902	a	65
4452	47290	Trust me, the men are the ones showing restraint.	Trust me, the men are the ones showing restraint.	2254673	1471981102950	1471981103055	r	82
4452	47290	Trust me, the men are the ones showing restraint.	Trust me, the men are the ones showing restraint.	2254676	1471981103102	1471981103235	e	69
4452	47290	Trust me, the men are the ones showing restraint.	Trust me, the men are the ones showing restraint.	2254680	1471981103235	1471981103322	 	32
4452	47290	Trust me, the men are the ones showing restraint.	Trust me, the men are the ones showing restraint.	2254683	1471981103322	1471981103455	t	84
4452	47290	Trust me, the men are the ones showing restraint.	Trust me, the men are the ones showing restraint.	2254687	1471981103455	1471981103574	h	72
4452	47290	Trust me, the men are the ones showing restraint.	Trust me, the men are the ones showing restraint.	2254713	1471981103508	1471981103622	e	69
4452	47290	Trust me, the men are the ones showing restraint.	Trust me, the men are the ones showing restraint.	2254716	1471981103606	1471981103736	 	32
4452	47290	Trust me, the men are the ones showing restraint.	Trust me, the men are the ones showing restraint.	2254720	1471981103767	1471981103903	o	79
4452	47290	Trust me, the men are the ones showing restraint.	Trust me, the men are the ones showing restraint.	2254725	1471981103903	1471981104040	n	78
4452	47290	Trust me, the men are the ones showing restraint.	Trust me, the men are the ones showing restraint.	2254728	1471981103990	1471981104102	e	69
4452	47290	Trust me, the men are the ones showing restraint.	Trust me, the men are the ones showing restraint.	2254737	1471981104197	1471981104305	s	83
4452	47290	Trust me, the men are the ones showing restraint.	Trust me, the men are the ones showing restraint.	2254756	1471981104305	1471981104406	 	32
4452	47290	Trust me, the men are the ones showing restraint.	Trust me, the men are the ones showing restraint.	2254763	1471981104499	1471981104574	s	83
4452	47290	Trust me, the men are the ones showing restraint.	Trust me, the men are the ones showing restraint.	2254769	1471981104574	1471981104672	h	72
4452	47290	Trust me, the men are the ones showing restraint.	Trust me, the men are the ones showing restraint.	2254773	1471981104703	1471981104825	o	79
4452	47290	Trust me, the men are the ones showing restraint.	Trust me, the men are the ones showing restraint.	2254840	1471981104789	1471981104889	w	87
4452	47290	Trust me, the men are the ones showing restraint.	Trust me, the men are the ones showing restraint.	2254844	1471981104920	1471981104990	i	73
4452	47290	Trust me, the men are the ones showing restraint.	Trust me, the men are the ones showing restraint.	2254849	1471981105052	1471981105186	n	78
4452	47290	Trust me, the men are the ones showing restraint.	Trust me, the men are the ones showing restraint.	2254852	1471981105201	1471981105321	g	71
4452	47290	Trust me, the men are the ones showing restraint.	Trust me, the men are the ones showing restraint.	2254854	1471981105305	1471981105452	 	32
4452	47290	Trust me, the men are the ones showing restraint.	Trust me, the men are the ones showing restraint.	2254858	1471981105780	1471981105874	r	82
4452	47290	Trust me, the men are the ones showing restraint.	Trust me, the men are the ones showing restraint.	2255138	1471981105907	1471981106051	e	69
4452	47290	Trust me, the men are the ones showing restraint.	Trust me, the men are the ones showing restraint.	2255142	1471981106239	1471981106401	s	83
4452	47290	Trust me, the men are the ones showing restraint.	Trust me, the men are the ones showing restraint.	2255146	1471981109067	1471981109157	t	82
4452	47290	Trust me, the men are the ones showing restraint.	Trust me, the men are the ones showing restraint.	2255151	1471981109846	1471981109908	BKSP	8
4452	47290	Trust me, the men are the ones showing restraint.	Trust me, the men are the ones showing restraint.	2255155	1471981110001	1471981110105	BKSP	8
4452	47290	Trust me, the men are the ones showing restraint.	Trust me, the men are the ones showing restraint.	2255160	1471981110105	1471981110173	t	84
4452	47290	Trust me, the men are the ones showing restraint.	Trust me, the men are the ones showing restraint.	2255210	1471981110300	1471981110411	r	82
4452	47290	Trust me, the men are the ones showing restraint.	Trust me, the men are the ones showing restraint.	2255215	1471981110864	1471981111002	a	65
4452	47290	Trust me, the men are the ones showing restraint.	Trust me, the men are the ones showing restraint.	2255217	1471981111049	1471981111108	i	73
4452	47290	Trust me, the men are the ones showing restraint.	Trust me, the men are the ones showing restraint.	2255224	1471981111201	1471981111336	n	78
4452	47290	Trust me, the men are the ones showing restraint.	Trust me, the men are the ones showing restraint.	2255230	1471981111352	1471981111469	t	84
4452	47290	Trust me, the men are the ones showing restraint.	Trust me, the men are the ones showing restraint.	2255256	1471981111643	1471981111785	.	190
4452	47313	I'll be up to nine or 10 by Saturday.	I'll be up to nine or 10 by saturday.	2255597	1471981113813	1471981113922	CAPS_LOCK	20
4452	47313	I'll be up to nine or 10 by Saturday.	I'll be up to nine or 10 by saturday.	2255598	1471981114222	1471981114339	I	73
4452	47313	I'll be up to nine or 10 by Saturday.	I'll be up to nine or 10 by saturday.	2255601	1471981114339	1471981114464	CAPS_LOCK	20
4452	47313	I'll be up to nine or 10 by Saturday.	I'll be up to nine or 10 by saturday.	2255604	1471981115811	1471981115969	'	222
4452	47313	I'll be up to nine or 10 by Saturday.	I'll be up to nine or 10 by saturday.	2255610	1471981116563	1471981116624	l	76
4452	47313	I'll be up to nine or 10 by Saturday.	I'll be up to nine or 10 by saturday.	2255619	1471981116733	1471981116838	l	76
4452	47313	I'll be up to nine or 10 by Saturday.	I'll be up to nine or 10 by saturday.	2255628	1471981117181	1471981117335	 	32
4452	47313	I'll be up to nine or 10 by Saturday.	I'll be up to nine or 10 by saturday.	2255683	1471981117538	1471981117669	b	66
4452	47313	I'll be up to nine or 10 by Saturday.	I'll be up to nine or 10 by saturday.	2255684	1471981117716	1471981117822	e	69
4452	47313	I'll be up to nine or 10 by Saturday.	I'll be up to nine or 10 by saturday.	2255687	1471981117822	1471981117939	 	32
4452	47313	I'll be up to nine or 10 by Saturday.	I'll be up to nine or 10 by saturday.	2255688	1471981118033	1471981118138	u	85
4452	47313	I'll be up to nine or 10 by Saturday.	I'll be up to nine or 10 by saturday.	2255690	1471981118232	1471981118385	p	80
4452	47313	I'll be up to nine or 10 by Saturday.	I'll be up to nine or 10 by saturday.	2255762	1471981118385	1471981118520	 	32
4452	47313	I'll be up to nine or 10 by Saturday.	I'll be up to nine or 10 by saturday.	2255764	1471981118754	1471981118871	t	84
4452	47313	I'll be up to nine or 10 by Saturday.	I'll be up to nine or 10 by saturday.	2255766	1471981118871	1471981119066	o	79
4452	47313	I'll be up to nine or 10 by Saturday.	I'll be up to nine or 10 by saturday.	2255770	1471981119160	1471981119302	 	32
4452	47313	I'll be up to nine or 10 by Saturday.	I'll be up to nine or 10 by saturday.	2255773	1471981119396	1471981119490	n	78
4452	47313	I'll be up to nine or 10 by Saturday.	I'll be up to nine or 10 by saturday.	2255817	1471981119555	1471981119671	i	73
4452	47313	I'll be up to nine or 10 by Saturday.	I'll be up to nine or 10 by saturday.	2255820	1471981119796	1471981119890	n	78
4452	47313	I'll be up to nine or 10 by Saturday.	I'll be up to nine or 10 by saturday.	2255825	1471981119921	1471981120047	e	69
4452	47313	I'll be up to nine or 10 by Saturday.	I'll be up to nine or 10 by saturday.	2255829	1471981120032	1471981120139	 	32
4452	47313	I'll be up to nine or 10 by Saturday.	I'll be up to nine or 10 by saturday.	2255834	1471981120186	1471981120351	o	79
4452	47313	I'll be up to nine or 10 by Saturday.	I'll be up to nine or 10 by saturday.	2255912	1471981120384	1471981120504	r	82
4452	47313	I'll be up to nine or 10 by Saturday.	I'll be up to nine or 10 by saturday.	2255918	1471981120504	1471981120605	 	32
4452	47313	I'll be up to nine or 10 by Saturday.	I'll be up to nine or 10 by saturday.	2255921	1471981120948	1471981121086	1	49
4452	47313	I'll be up to nine or 10 by Saturday.	I'll be up to nine or 10 by saturday.	2255923	1471981121289	1471981121357	0	48
4452	47313	I'll be up to nine or 10 by Saturday.	I'll be up to nine or 10 by saturday.	2255926	1471981121764	1471981121873	 	32
4452	47313	I'll be up to nine or 10 by Saturday.	I'll be up to nine or 10 by saturday.	2255999	1471981122124	1471981122207	b	66
4452	47313	I'll be up to nine or 10 by Saturday.	I'll be up to nine or 10 by saturday.	2256002	1471981122363	1471981122458	y	89
4452	47313	I'll be up to nine or 10 by Saturday.	I'll be up to nine or 10 by saturday.	2256005	1471981122583	1471981122688	 	32
4452	47313	I'll be up to nine or 10 by Saturday.	I'll be up to nine or 10 by saturday.	2256009	1471981122735	1471981122885	s	83
4452	47313	I'll be up to nine or 10 by Saturday.	I'll be up to nine or 10 by saturday.	2256015	1471981122979	1471981123104	a	65
4452	47313	I'll be up to nine or 10 by Saturday.	I'll be up to nine or 10 by saturday.	2256155	1471981123417	1471981123521	t	84
4452	47313	I'll be up to nine or 10 by Saturday.	I'll be up to nine or 10 by saturday.	2256158	1471981123677	1471981123819	u	85
4452	47313	I'll be up to nine or 10 by Saturday.	I'll be up to nine or 10 by saturday.	2256160	1471981123882	1471981123946	r	82
4452	47313	I'll be up to nine or 10 by Saturday.	I'll be up to nine or 10 by saturday.	2256161	1471981125013	1471981125090	d	68
4452	47313	I'll be up to nine or 10 by Saturday.	I'll be up to nine or 10 by saturday.	2256162	1471981125168	1471981125288	y	65
4452	47313	I'll be up to nine or 10 by Saturday.	I'll be up to nine or 10 by saturday.	2256190	1471981125476	1471981125556	.	190
4452	47331	See you on the third.	See you on the third.\	2256412	1471981127697	1471981127837	CAPS_LOCK	20
4452	47331	See you on the third.	See you on the third.\	2256415	1471981128057	1471981128139	S	83
4452	47331	See you on the third.	See you on the third.\	2256420	1471981128280	1471981128373	CAPS_LOCK	20
4452	47331	See you on the third.	See you on the third.\	2256424	1471981128641	1471981128697	e	69
4452	47331	See you on the third.	See you on the third.\	2256430	1471981128802	1471981128889	e	69
4452	47331	See you on the third.	See you on the third.\	2256434	1471981128936	1471981129006	 	32
4452	47331	See you on the third.	See you on the third.\	2256437	1471981129069	1471981129126	y	89
4452	47331	See you on the third.	See you on the third.\	2256501	1471981129326	1471981129418	o	79
4452	47331	See you on the third.	See you on the third.\	2256504	1471981129480	1471981129597	u	85
4452	47331	See you on the third.	See you on the third.\	2256507	1471981129738	1471981129879	 	32
4452	47331	See you on the third.	See you on the third.\	2256511	1471981129957	1471981130100	o	79
4452	47331	See you on the third.	See you on the third.\	2256518	1471981130131	1471981130247	n	78
4452	47331	See you on the third.	See you on the third.\	2256554	1471981130247	1471981130381	 	32
4452	47331	See you on the third.	See you on the third.\	2256555	1471981130475	1471981130612	t	84
4452	47331	See you on the third.	See you on the third.\	2256557	1471981130612	1471981130719	h	72
4452	47331	See you on the third.	See you on the third.\	2256559	1471981130684	1471981130783	e	69
4452	47331	See you on the third.	See you on the third.\	2256642	1471981130719	1471981130861	 	32
4452	47331	See you on the third.	See you on the third.\	2256647	1471981131080	1471981131212	t	84
4452	47331	See you on the third.	See you on the third.\	2256651	1471981131243	1471981131395	h	72
4452	47331	See you on the third.	See you on the third.\	2256655	1471981131629	1471981131778	i	73
4452	47331	See you on the third.	See you on the third.\	2256657	1471981131763	1471981131834	r	82
4452	47331	See you on the third.	See you on the third.\	2256659	1471981131974	1471981132082	d	68
4452	47331	See you on the third.	See you on the third.\	2256678	1471981132239	1471981132361	.	190
4452	47341	The Spanish federation has brought forward those fixtures.	The spanish federation has brought forward those fixtures.	2256873	1471981134396	1471981134521	CAPS_LOCK	20
4452	47341	The Spanish federation has brought forward those fixtures.	The spanish federation has brought forward those fixtures.	2256874	1471981134756	1471981134836	T	84
4452	47341	The Spanish federation has brought forward those fixtures.	The spanish federation has brought forward those fixtures.	2256876	1471981134930	1471981135039	CAPS_LOCK	20
4452	47341	The Spanish federation has brought forward those fixtures.	The spanish federation has brought forward those fixtures.	2256878	1471981135133	1471981135278	h	72
4452	47341	The Spanish federation has brought forward those fixtures.	The spanish federation has brought forward those fixtures.	2256880	1471981135278	1471981135401	e	69
4452	47341	The Spanish federation has brought forward those fixtures.	The spanish federation has brought forward those fixtures.	2256885	1471981135335	1471981135464	 	32
4452	47341	The Spanish federation has brought forward those fixtures.	The spanish federation has brought forward those fixtures.	2256890	1471981135542	1471981135700	s	83
4452	47341	The Spanish federation has brought forward those fixtures.	The spanish federation has brought forward those fixtures.	2257002	1471981135664	1471981135782	p	80
4452	47341	The Spanish federation has brought forward those fixtures.	The spanish federation has brought forward those fixtures.	2257008	1471981135891	1471981136014	a	65
4452	47341	The Spanish federation has brought forward those fixtures.	The spanish federation has brought forward those fixtures.	2257013	1471981137050	1471981137150	n	78
4452	47341	The Spanish federation has brought forward those fixtures.	The spanish federation has brought forward those fixtures.	2257018	1471981137197	1471981137316	i	73
4452	47341	The Spanish federation has brought forward those fixtures.	The spanish federation has brought forward those fixtures.	2257022	1471981137283	1471981137366	s	83
4452	47341	The Spanish federation has brought forward those fixtures.	The spanish federation has brought forward those fixtures.	2257026	1471981137381	1471981137483	h	72
4452	47341	The Spanish federation has brought forward those fixtures.	The spanish federation has brought forward those fixtures.	2257112	1471981137547	1471981137696	 	32
4452	47341	The Spanish federation has brought forward those fixtures.	The spanish federation has brought forward those fixtures.	2257116	1471981137852	1471981137951	f	70
4452	47341	The Spanish federation has brought forward those fixtures.	The spanish federation has brought forward those fixtures.	2257118	1471981138091	1471981138198	e	69
4452	47341	The Spanish federation has brought forward those fixtures.	The spanish federation has brought forward those fixtures.	2257119	1471981138370	1471981138496	d	68
4452	47341	The Spanish federation has brought forward those fixtures.	The spanish federation has brought forward those fixtures.	2257121	1471981138637	1471981138795	e	69
4452	47341	The Spanish federation has brought forward those fixtures.	The spanish federation has brought forward those fixtures.	2257167	1471981138828	1471981138963	r	82
4452	47341	The Spanish federation has brought forward those fixtures.	The spanish federation has brought forward those fixtures.	2257174	1471981139072	1471981139198	a	65
4452	47341	The Spanish federation has brought forward those fixtures.	The spanish federation has brought forward those fixtures.	2257181	1471981139276	1471981139350	t	84
4452	47341	The Spanish federation has brought forward those fixtures.	The spanish federation has brought forward those fixtures.	2257187	1471981139428	1471981139485	i	73
4452	47341	The Spanish federation has brought forward those fixtures.	The spanish federation has brought forward those fixtures.	2257194	1471981139594	1471981139715	o	79
4452	47341	The Spanish federation has brought forward those fixtures.	The spanish federation has brought forward those fixtures.	2257226	1471981139762	1471981139896	n	78
4452	47341	The Spanish federation has brought forward those fixtures.	The spanish federation has brought forward those fixtures.	2257229	1471981139896	1471981140030	 	32
4452	47341	The Spanish federation has brought forward those fixtures.	The spanish federation has brought forward those fixtures.	2257233	1471981140155	1471981140296	h	72
4452	47341	The Spanish federation has brought forward those fixtures.	The spanish federation has brought forward those fixtures.	2257237	1471981140280	1471981140367	a	65
4452	47341	The Spanish federation has brought forward those fixtures.	The spanish federation has brought forward those fixtures.	2257242	1471981140429	1471981140547	s	83
4452	47341	The Spanish federation has brought forward those fixtures.	The spanish federation has brought forward those fixtures.	2257289	1471981140595	1471981140714	 	32
4452	47341	The Spanish federation has brought forward those fixtures.	The spanish federation has brought forward those fixtures.	2257291	1471981140948	1471981141081	b	66
4452	47341	The Spanish federation has brought forward those fixtures.	The spanish federation has brought forward those fixtures.	2257295	1471981141096	1471981141230	r	82
4452	47341	The Spanish federation has brought forward those fixtures.	The spanish federation has brought forward those fixtures.	2257301	1471981141230	1471981141317	o	79
4452	47341	The Spanish federation has brought forward those fixtures.	The spanish federation has brought forward those fixtures.	2257305	1471981141411	1471981141515	u	85
4452	47341	The Spanish federation has brought forward those fixtures.	The spanish federation has brought forward those fixtures.	2257344	1471981141515	1471981141600	g	71
4452	47341	The Spanish federation has brought forward those fixtures.	The spanish federation has brought forward those fixtures.	2257347	1471981141631	1471981141763	h	72
4452	47341	The Spanish federation has brought forward those fixtures.	The spanish federation has brought forward those fixtures.	2257350	1471981141763	1471981141834	t	84
4452	47341	The Spanish federation has brought forward those fixtures.	The spanish federation has brought forward those fixtures.	2257353	1471981141834	1471981141965	 	32
4452	47341	The Spanish federation has brought forward those fixtures.	The spanish federation has brought forward those fixtures.	2257356	1471981142089	1471981142235	f	70
4452	47341	The Spanish federation has brought forward those fixtures.	The spanish federation has brought forward those fixtures.	2257443	1471981142167	1471981142346	o	79
4452	47341	The Spanish federation has brought forward those fixtures.	The spanish federation has brought forward those fixtures.	2257450	1471981142378	1471981142450	e	69
4452	47341	The Spanish federation has brought forward those fixtures.	The spanish federation has brought forward those fixtures.	2257459	1471981142856	1471981142950	BKSP	8
4452	47341	The Spanish federation has brought forward those fixtures.	The spanish federation has brought forward those fixtures.	2257463	1471981142950	1471981143083	r	82
4452	47341	The Spanish federation has brought forward those fixtures.	The spanish federation has brought forward those fixtures.	2257469	1471981143239	1471981143379	w	87
4452	47341	The Spanish federation has brought forward those fixtures.	The spanish federation has brought forward those fixtures.	2257476	1471981143441	1471981143595	a	65
4452	47341	The Spanish federation has brought forward those fixtures.	The spanish federation has brought forward those fixtures.	2257480	1471981143657	1471981143765	r	82
4452	47341	The Spanish federation has brought forward those fixtures.	The spanish federation has brought forward those fixtures.	2257517	1471981143891	1471981144004	d	68
4452	47341	The Spanish federation has brought forward those fixtures.	The spanish federation has brought forward those fixtures.	2257521	1471981144082	1471981144199	 	32
4452	47341	The Spanish federation has brought forward those fixtures.	The spanish federation has brought forward those fixtures.	2257530	1471981144433	1471981144548	t	84
4452	47341	The Spanish federation has brought forward those fixtures.	The spanish federation has brought forward those fixtures.	2257538	1471981144548	1471981144617	h	72
4452	47341	The Spanish federation has brought forward those fixtures.	The spanish federation has brought forward those fixtures.	2257545	1471981144648	1471981144849	o	79
4452	47341	The Spanish federation has brought forward those fixtures.	The spanish federation has brought forward those fixtures.	2257625	1471981144749	1471981144849	s	83
4452	47341	The Spanish federation has brought forward those fixtures.	The spanish federation has brought forward those fixtures.	2257627	1471981144943	1471981145032	e	69
4452	47341	The Spanish federation has brought forward those fixtures.	The spanish federation has brought forward those fixtures.	2257630	1471981145032	1471981145165	 	32
4452	47341	The Spanish federation has brought forward those fixtures.	The spanish federation has brought forward those fixtures.	2257635	1471981145556	1471981145571	d	68
4452	47341	The Spanish federation has brought forward those fixtures.	The spanish federation has brought forward those fixtures.	2257639	1471981146184	1471981146300	BKSP	8
4452	47341	The Spanish federation has brought forward those fixtures.	The spanish federation has brought forward those fixtures.	2257646	1471981146331	1471981146432	f	70
4452	47341	The Spanish federation has brought forward those fixtures.	The spanish federation has brought forward those fixtures.	2257653	1471981146432	1471981146548	i	73
4452	47341	The Spanish federation has brought forward those fixtures.	The spanish federation has brought forward those fixtures.	2257699	1471981146596	1471981146699	x	88
4452	47341	The Spanish federation has brought forward those fixtures.	The spanish federation has brought forward those fixtures.	2257701	1471981147075	1471981147172	t	84
4452	47341	The Spanish federation has brought forward those fixtures.	The spanish federation has brought forward those fixtures.	2257703	1471981147200	1471981147314	u	85
4452	47341	The Spanish federation has brought forward those fixtures.	The spanish federation has brought forward those fixtures.	2257704	1471981147298	1471981147382	r	82
4452	47341	The Spanish federation has brought forward those fixtures.	The spanish federation has brought forward those fixtures.	2257705	1471981147429	1471981147564	e	69
4452	47341	The Spanish federation has brought forward those fixtures.	The spanish federation has brought forward those fixtures.	2257744	1471981147659	1471981147796	s	83
4452	47341	The Spanish federation has brought forward those fixtures.	The spanish federation has brought forward those fixtures.	2257750	1471981147827	1471981147963	.	190
4452	47362	Binoche welcomed the movie industry to the French riviera.	Binoche welcomed the movie industry to the french riviera.	2258118	1471981152297	1471981152375	CAPS_LOCK	20
4452	47362	Binoche welcomed the movie industry to the French riviera.	Binoche welcomed the movie industry to the french riviera.	2258123	1471981152407	1471981152531	B	66
4452	47362	Binoche welcomed the movie industry to the French riviera.	Binoche welcomed the movie industry to the french riviera.	2258127	1471981152515	1471981152578	CAPS_LOCK	20
4452	47362	Binoche welcomed the movie industry to the French riviera.	Binoche welcomed the movie industry to the french riviera.	2258132	1471981152874	1471981152966	i	73
4452	47362	Binoche welcomed the movie industry to the French riviera.	Binoche welcomed the movie industry to the french riviera.	2258135	1471981153060	1471981153196	n	78
4452	47362	Binoche welcomed the movie industry to the French riviera.	Binoche welcomed the movie industry to the french riviera.	2258139	1471981153228	1471981153379	o	79
4452	47362	Binoche welcomed the movie industry to the French riviera.	Binoche welcomed the movie industry to the french riviera.	2258142	1471981153395	1471981153498	c	67
4452	47362	Binoche welcomed the movie industry to the French riviera.	Binoche welcomed the movie industry to the french riviera.	2258181	1471981153547	1471981153681	h	72
4452	47362	Binoche welcomed the movie industry to the French riviera.	Binoche welcomed the movie industry to the french riviera.	2258182	1471981153681	1471981153766	e	69
4452	47362	Binoche welcomed the movie industry to the French riviera.	Binoche welcomed the movie industry to the french riviera.	2258184	1471981153829	1471981153948	 	32
4452	47362	Binoche welcomed the movie industry to the French riviera.	Binoche welcomed the movie industry to the french riviera.	2258187	1471981154057	1471981154197	w	87
4452	47362	Binoche welcomed the movie industry to the French riviera.	Binoche welcomed the movie industry to the french riviera.	2258190	1471981154306	1471981154386	e	69
4452	47362	Binoche welcomed the movie industry to the French riviera.	Binoche welcomed the movie industry to the french riviera.	2258236	1471981154715	1471981154895	l	76
4452	47362	Binoche welcomed the movie industry to the French riviera.	Binoche welcomed the movie industry to the french riviera.	2258242	1471981155113	1471981155247	c	67
4452	47362	Binoche welcomed the movie industry to the French riviera.	Binoche welcomed the movie industry to the french riviera.	2258246	1471981155231	1471981155347	o	79
4452	47362	Binoche welcomed the movie industry to the French riviera.	Binoche welcomed the movie industry to the french riviera.	2258250	1471981155394	1471981155530	m	77
4452	47362	Binoche welcomed the movie industry to the French riviera.	Binoche welcomed the movie industry to the french riviera.	2258254	1471981155530	1471981155546	e	69
4452	47362	Binoche welcomed the movie industry to the French riviera.	Binoche welcomed the movie industry to the french riviera.	2258287	1471981155867	1471981155981	d	68
4452	47362	Binoche welcomed the movie industry to the French riviera.	Binoche welcomed the movie industry to the french riviera.	2258291	1471981156059	1471981156182	 	32
4452	47362	Binoche welcomed the movie industry to the French riviera.	Binoche welcomed the movie industry to the french riviera.	2258296	1471981156353	1471981156465	t	84
4452	47362	Binoche welcomed the movie industry to the French riviera.	Binoche welcomed the movie industry to the french riviera.	2258303	1471981156449	1471981156548	h	72
4452	47362	Binoche welcomed the movie industry to the French riviera.	Binoche welcomed the movie industry to the french riviera.	2258431	1471981156501	1471981156672	 	32
4452	47362	Binoche welcomed the movie industry to the French riviera.	Binoche welcomed the movie industry to the french riviera.	2258440	1471981156564	1471981156672	e	69
4452	47362	Binoche welcomed the movie industry to the French riviera.	Binoche welcomed the movie industry to the french riviera.	2258446	1471981156750	1471981156913	m	77
4452	47362	Binoche welcomed the movie industry to the French riviera.	Binoche welcomed the movie industry to the french riviera.	2258452	1471981157178	1471981157250	BKSP	8
4452	47362	Binoche welcomed the movie industry to the French riviera.	Binoche welcomed the movie industry to the french riviera.	2258457	1471981157375	1471981157419	BKSP	8
4452	47362	Binoche welcomed the movie industry to the French riviera.	Binoche welcomed the movie industry to the french riviera.	2258460	1471981157497	1471981157599	BKSP	8
4452	47362	Binoche welcomed the movie industry to the French riviera.	Binoche welcomed the movie industry to the french riviera.	2258463	1471981157615	1471981157700	e	69
4452	47362	Binoche welcomed the movie industry to the French riviera.	Binoche welcomed the movie industry to the french riviera.	2258465	1471981157747	1471981157881	 	32
4452	47362	Binoche welcomed the movie industry to the French riviera.	Binoche welcomed the movie industry to the french riviera.	2258467	1471981157975	1471981158194	m	77
4452	47362	Binoche welcomed the movie industry to the French riviera.	Binoche welcomed the movie industry to the french riviera.	2258526	1471981158194	1471981158314	o	79
4452	47362	Binoche welcomed the movie industry to the French riviera.	Binoche welcomed the movie industry to the french riviera.	2258529	1471981159159	1471981159248	v	86
4452	47362	Binoche welcomed the movie industry to the French riviera.	Binoche welcomed the movie industry to the french riviera.	2258531	1471981159295	1471981159403	i	73
4452	47362	Binoche welcomed the movie industry to the French riviera.	Binoche welcomed the movie industry to the french riviera.	2258534	1471981159352	1471981159449	e	69
4452	47362	Binoche welcomed the movie industry to the French riviera.	Binoche welcomed the movie industry to the french riviera.	2258536	1471981159465	1471981159629	 	32
4452	47362	Binoche welcomed the movie industry to the French riviera.	Binoche welcomed the movie industry to the french riviera.	2258616	1471981159880	1471981159951	i	73
4452	47362	Binoche welcomed the movie industry to the French riviera.	Binoche welcomed the movie industry to the french riviera.	2258618	1471981160044	1471981160148	n	78
4452	47362	Binoche welcomed the movie industry to the French riviera.	Binoche welcomed the movie industry to the french riviera.	2258625	1471981160382	1471981160497	d	68
4452	47362	Binoche welcomed the movie industry to the French riviera.	Binoche welcomed the movie industry to the french riviera.	2258633	1471981160716	1471981160848	u	85
4452	47362	Binoche welcomed the movie industry to the French riviera.	Binoche welcomed the movie industry to the french riviera.	2258641	1471981160910	1471981161015	s	83
4452	47362	Binoche welcomed the movie industry to the French riviera.	Binoche welcomed the movie industry to the french riviera.	2258701	1471981161188	1471981161284	t	84
4452	47362	Binoche welcomed the movie industry to the French riviera.	Binoche welcomed the movie industry to the french riviera.	2258705	1471981161362	1471981161482	r	82
4452	47362	Binoche welcomed the movie industry to the French riviera.	Binoche welcomed the movie industry to the french riviera.	2258712	1471981161513	1471981161631	y	89
4452	47362	Binoche welcomed the movie industry to the French riviera.	Binoche welcomed the movie industry to the french riviera.	2258713	1471981161709	1471981161832	 	32
4452	47362	Binoche welcomed the movie industry to the French riviera.	Binoche welcomed the movie industry to the french riviera.	2258714	1471981161863	1471981161966	t	84
4452	47362	Binoche welcomed the movie industry to the French riviera.	Binoche welcomed the movie industry to the french riviera.	2258734	1471981161966	1471981162129	o	79
4452	47362	Binoche welcomed the movie industry to the French riviera.	Binoche welcomed the movie industry to the french riviera.	2258740	1471981162113	1471981162216	 	32
4452	47362	Binoche welcomed the movie industry to the French riviera.	Binoche welcomed the movie industry to the french riviera.	2258747	1471981162201	1471981162332	t	84
4452	47362	Binoche welcomed the movie industry to the French riviera.	Binoche welcomed the movie industry to the french riviera.	2258755	1471981162348	1471981162469	h	72
4452	47362	Binoche welcomed the movie industry to the French riviera.	Binoche welcomed the movie industry to the french riviera.	2258813	1471981162433	1471981162534	e	69
4452	47362	Binoche welcomed the movie industry to the French riviera.	Binoche welcomed the movie industry to the french riviera.	2258817	1471981162534	1471981162665	 	32
4452	47362	Binoche welcomed the movie industry to the French riviera.	Binoche welcomed the movie industry to the french riviera.	2258825	1471981163214	1471981163299	f	70
4452	47362	Binoche welcomed the movie industry to the French riviera.	Binoche welcomed the movie industry to the french riviera.	2258834	1471981163424	1471981163532	r	82
4452	47362	Binoche welcomed the movie industry to the French riviera.	Binoche welcomed the movie industry to the french riviera.	2258842	1471981163610	1471981163700	e	69
4452	47362	Binoche welcomed the movie industry to the French riviera.	Binoche welcomed the movie industry to the french riviera.	2258851	1471981163809	1471981163884	e	69
4452	47362	Binoche welcomed the movie industry to the French riviera.	Binoche welcomed the movie industry to the french riviera.	2258957	1471981164026	1471981164163	n	78
4452	47362	Binoche welcomed the movie industry to the French riviera.	Binoche welcomed the movie industry to the french riviera.	2258960	1471981164429	1471981164516	BKSP	8
4452	47362	Binoche welcomed the movie industry to the French riviera.	Binoche welcomed the movie industry to the french riviera.	2258964	1471981164610	1471981164685	BKSP	8
4452	47362	Binoche welcomed the movie industry to the French riviera.	Binoche welcomed the movie industry to the french riviera.	2258969	1471981164841	1471981164995	n	78
4452	47362	Binoche welcomed the movie industry to the French riviera.	Binoche welcomed the movie industry to the french riviera.	2258971	1471981165026	1471981165101	c	67
4452	47362	Binoche welcomed the movie industry to the French riviera.	Binoche welcomed the movie industry to the french riviera.	2258975	1471981165132	1471981165263	h	72
4452	47362	Binoche welcomed the movie industry to the French riviera.	Binoche welcomed the movie industry to the french riviera.	2258980	1471981165341	1471981165465	 	32
4452	47362	Binoche welcomed the movie industry to the French riviera.	Binoche welcomed the movie industry to the french riviera.	2259093	1471981165623	1471981165732	r	82
4452	47362	Binoche welcomed the movie industry to the French riviera.	Binoche welcomed the movie industry to the french riviera.	2259096	1471981165937	1471981166048	i	73
4452	47362	Binoche welcomed the movie industry to the French riviera.	Binoche welcomed the movie industry to the french riviera.	2259099	1471981166219	1471981166301	v	86
4452	47362	Binoche welcomed the movie industry to the French riviera.	Binoche welcomed the movie industry to the french riviera.	2259109	1471981166975	1471981167082	i	73
4452	47362	Binoche welcomed the movie industry to the French riviera.	Binoche welcomed the movie industry to the french riviera.	2259116	1471981167441	1471981167580	e	69
4452	47362	Binoche welcomed the movie industry to the French riviera.	Binoche welcomed the movie industry to the french riviera.	2259170	1471981167580	1471981167713	r	82
4452	47362	Binoche welcomed the movie industry to the French riviera.	Binoche welcomed the movie industry to the french riviera.	2259176	1471981167744	1471981167895	a	65
4452	47362	Binoche welcomed the movie industry to the French riviera.	Binoche welcomed the movie industry to the french riviera.	2259178	1471981168098	1471981168183	.	190
4452	47394	Or are you going to be tied up with dinner?	Or are you going to be tied up with dinner	2259560	1471981172775	1471981172899	CAPS_LOCK	20
4452	47394	Or are you going to be tied up with dinner?	Or are you going to be tied up with dinner	2259562	1471981172915	1471981172999	O	79
4452	47394	Or are you going to be tied up with dinner?	Or are you going to be tied up with dinner	2259564	1471981173202	1471981173311	CAPS_LOCK	20
4452	47394	Or are you going to be tied up with dinner?	Or are you going to be tied up with dinner	2259565	1471981173658	1471981173766	r	82
4452	47394	Or are you going to be tied up with dinner?	Or are you going to be tied up with dinner	2259566	1471981173782	1471981173929	 	32
4452	47394	Or are you going to be tied up with dinner?	Or are you going to be tied up with dinner	2259568	1471981173992	1471981174131	a	65
4452	47394	Or are you going to be tied up with dinner?	Or are you going to be tied up with dinner	2259570	1471981174162	1471981174281	r	82
4452	47394	Or are you going to be tied up with dinner?	Or are you going to be tied up with dinner	2259590	1471981174330	1471981174416	e	69
4452	47394	Or are you going to be tied up with dinner?	Or are you going to be tied up with dinner	2259592	1471981174494	1471981174536	 	32
4452	47394	Or are you going to be tied up with dinner?	Or are you going to be tied up with dinner	2259596	1471981174615	1471981174717	y	89
4452	47394	Or are you going to be tied up with dinner?	Or are you going to be tied up with dinner	2259601	1471981174795	1471981174867	o	79
4452	47394	Or are you going to be tied up with dinner?	Or are you going to be tied up with dinner	2259604	1471981174945	1471981175033	u	85
4452	47394	Or are you going to be tied up with dinner?	Or are you going to be tied up with dinner	2259659	1471981175088	1471981175230	 	32
4452	47394	Or are you going to be tied up with dinner?	Or are you going to be tied up with dinner	2259661	1471981175230	1471981175332	g	71
4452	47394	Or are you going to be tied up with dinner?	Or are you going to be tied up with dinner	2259665	1471981175332	1471981175401	o	79
4452	47394	Or are you going to be tied up with dinner?	Or are you going to be tied up with dinner	2259668	1471981175479	1471981175551	i	73
4452	47394	Or are you going to be tied up with dinner?	Or are you going to be tied up with dinner	2259671	1471981175598	1471981175750	n	78
4452	47394	Or are you going to be tied up with dinner?	Or are you going to be tied up with dinner	2259730	1471981175683	1471981175766	g	71
4452	47394	Or are you going to be tied up with dinner?	Or are you going to be tied up with dinner	2259736	1471981175766	1471981175881	 	32
4452	47394	Or are you going to be tied up with dinner?	Or are you going to be tied up with dinner	2259739	1471981175881	1471981176002	t	84
4452	47394	Or are you going to be tied up with dinner?	Or are you going to be tied up with dinner	2259742	1471981175952	1471981176095	o	79
4452	47394	Or are you going to be tied up with dinner?	Or are you going to be tied up with dinner	2259745	1471981176095	1471981176183	 	32
4452	47394	Or are you going to be tied up with dinner?	Or are you going to be tied up with dinner	2259747	1471981176262	1471981176397	b	66
4452	47394	Or are you going to be tied up with dinner?	Or are you going to be tied up with dinner	2259817	1471981176397	1471981176483	e	69
4452	47394	Or are you going to be tied up with dinner?	Or are you going to be tied up with dinner	2259818	1471981176499	1471981176631	 	32
4452	47394	Or are you going to be tied up with dinner?	Or are you going to be tied up with dinner	2259819	1471981177074	1471981177182	t	84
4452	47394	Or are you going to be tied up with dinner?	Or are you going to be tied up with dinner	2259820	1471981177213	1471981177331	i	73
4452	47394	Or are you going to be tied up with dinner?	Or are you going to be tied up with dinner	2259821	1471981177424	1471981177518	r	82
4452	47394	Or are you going to be tied up with dinner?	Or are you going to be tied up with dinner	2259949	1471981177925	1471981177972	BKSP	8
4452	47394	Or are you going to be tied up with dinner?	Or are you going to be tied up with dinner	2259954	1471981178286	1471981178335	e	69
4452	47394	Or are you going to be tied up with dinner?	Or are you going to be tied up with dinner	2259959	1471981178444	1471981178518	d	68
4452	47394	Or are you going to be tied up with dinner?	Or are you going to be tied up with dinner	2259966	1471981178596	1471981178667	 	32
4452	47394	Or are you going to be tied up with dinner?	Or are you going to be tied up with dinner	2259973	1471981178745	1471981178866	u	85
4452	47394	Or are you going to be tied up with dinner?	Or are you going to be tied up with dinner	2259976	1471981178913	1471981179030	p	80
4452	47394	Or are you going to be tied up with dinner?	Or are you going to be tied up with dinner	2260000	1471981179078	1471981179229	 	32
4452	47394	Or are you going to be tied up with dinner?	Or are you going to be tied up with dinner	2260007	1471981179260	1471981179350	w	87
4452	47394	Or are you going to be tied up with dinner?	Or are you going to be tied up with dinner	2260013	1471981179350	1471981179434	i	73
4452	47394	Or are you going to be tied up with dinner?	Or are you going to be tied up with dinner	2260021	1471981179449	1471981179551	t	84
4452	47394	Or are you going to be tied up with dinner?	Or are you going to be tied up with dinner	2260064	1471981179509	1471981179630	h	72
4452	47394	Or are you going to be tied up with dinner?	Or are you going to be tied up with dinner	2260066	1471981179630	1471981179749	 	32
4452	47394	Or are you going to be tied up with dinner?	Or are you going to be tied up with dinner	2260071	1471981179780	1471981179850	d	68
4452	47394	Or are you going to be tied up with dinner?	Or are you going to be tied up with dinner	2260076	1471981179835	1471981179919	i	73
4452	47394	Or are you going to be tied up with dinner?	Or are you going to be tied up with dinner	2260081	1471981180012	1471981180053	n	78
4452	47394	Or are you going to be tied up with dinner?	Or are you going to be tied up with dinner	2260087	1471981180162	1471981180249	n	78
4452	47394	Or are you going to be tied up with dinner?	Or are you going to be tied up with dinner	2260114	1471981180282	1471981180382	e	69
4452	47394	Or are you going to be tied up with dinner?	Or are you going to be tied up with dinner	2260121	1471981180430	1471981180548	r	82
4452	47415	The second deal in question which needs to be resolved asap.	The second deal in question which needs to be resolved asap.	2260322	1471981182806	1471981182902	CAPS_LOCK	20
4452	47415	The second deal in question which needs to be resolved asap.	The second deal in question which needs to be resolved asap.	2260323	1471981183074	1471981183135	T	84
4452	47415	The second deal in question which needs to be resolved asap.	The second deal in question which needs to be resolved asap.	2260325	1471981183276	1471981183385	CAPS_LOCK	20
4452	47415	The second deal in question which needs to be resolved asap.	The second deal in question which needs to be resolved asap.	2260328	1471981183525	1471981183684	h	72
4452	47415	The second deal in question which needs to be resolved asap.	The second deal in question which needs to be resolved asap.	2260332	1471981183652	1471981183748	e	69
4452	47415	The second deal in question which needs to be resolved asap.	The second deal in question which needs to be resolved asap.	2260338	1471981183748	1471981183880	 	32
4452	47415	The second deal in question which needs to be resolved asap.	The second deal in question which needs to be resolved asap.	2260345	1471981183926	1471981184032	s	83
4452	47415	The second deal in question which needs to be resolved asap.	The second deal in question which needs to be resolved asap.	2260466	1471981184111	1471981184184	e	69
4452	47415	The second deal in question which needs to be resolved asap.	The second deal in question which needs to be resolved asap.	2260470	1471981184873	1471981184982	c	67
4452	47415	The second deal in question which needs to be resolved asap.	The second deal in question which needs to be resolved asap.	2260472	1471981185200	1471981185299	o	79
4452	47415	The second deal in question which needs to be resolved asap.	The second deal in question which needs to be resolved asap.	2260476	1471981185424	1471981185548	n	78
4452	47415	The second deal in question which needs to be resolved asap.	The second deal in question which needs to be resolved asap.	2260482	1471981185548	1471981185664	d	68
4452	47415	The second deal in question which needs to be resolved asap.	The second deal in question which needs to be resolved asap.	2260559	1471981185648	1471981185764	 	32
4452	47415	The second deal in question which needs to be resolved asap.	The second deal in question which needs to be resolved asap.	2260564	1471981186107	1471981186200	d	68
4452	47415	The second deal in question which needs to be resolved asap.	The second deal in question which needs to be resolved asap.	2260574	1471981186294	1471981186368	e	69
4452	47415	The second deal in question which needs to be resolved asap.	The second deal in question which needs to be resolved asap.	2260582	1471981186493	1471981186635	a	65
4452	47415	The second deal in question which needs to be resolved asap.	The second deal in question which needs to be resolved asap.	2260592	1471981186567	1471981186666	l	76
4452	47415	The second deal in question which needs to be resolved asap.	The second deal in question which needs to be resolved asap.	2260600	1471981186666	1471981186829	 	32
4452	47415	The second deal in question which needs to be resolved asap.	The second deal in question which needs to be resolved asap.	2260710	1471981186829	1471981186947	i	73
4452	47415	The second deal in question which needs to be resolved asap.	The second deal in question which needs to be resolved asap.	2260714	1471981187025	1471981187135	n	78
4452	47415	The second deal in question which needs to be resolved asap.	The second deal in question which needs to be resolved asap.	2260718	1471981187085	1471981187244	 	32
4452	47415	The second deal in question which needs to be resolved asap.	The second deal in question which needs to be resolved asap.	2260723	1471981187494	1471981187629	w	87
4452	47415	The second deal in question which needs to be resolved asap.	The second deal in question which needs to be resolved asap.	2260727	1471981187910	1471981188015	BKSP	8
4452	47415	The second deal in question which needs to be resolved asap.	The second deal in question which needs to be resolved asap.	2260735	1471981188077	1471981188217	q	81
4452	47415	The second deal in question which needs to be resolved asap.	The second deal in question which needs to be resolved asap.	2260791	1471981188135	1471981188266	u	85
4452	47415	The second deal in question which needs to be resolved asap.	The second deal in question which needs to be resolved asap.	2260793	1471981188359	1471981188449	e	69
4452	47415	The second deal in question which needs to be resolved asap.	The second deal in question which needs to be resolved asap.	2260798	1471981188590	1471981188668	s	83
4452	47415	The second deal in question which needs to be resolved asap.	The second deal in question which needs to be resolved asap.	2260802	1471981188824	1471981188885	t	84
4452	47415	The second deal in question which needs to be resolved asap.	The second deal in question which needs to be resolved asap.	2260807	1471981188932	1471981189018	i	73
4452	47415	The second deal in question which needs to be resolved asap.	The second deal in question which needs to be resolved asap.	2260812	1471981189064	1471981189181	o	79
4452	47415	The second deal in question which needs to be resolved asap.	The second deal in question which needs to be resolved asap.	2260862	1471981189196	1471981189346	n	78
4452	47415	The second deal in question which needs to be resolved asap.	The second deal in question which needs to be resolved asap.	2260866	1471981189379	1471981189483	 	32
4452	47415	The second deal in question which needs to be resolved asap.	The second deal in question which needs to be resolved asap.	2260869	1471981189515	1471981189634	w	87
4452	47415	The second deal in question which needs to be resolved asap.	The second deal in question which needs to be resolved asap.	2260877	1471981189618	1471981189748	h	72
4452	47415	The second deal in question which needs to be resolved asap.	The second deal in question which needs to be resolved asap.	2260886	1471981189810	1471981189901	i	73
4452	47415	The second deal in question which needs to be resolved asap.	The second deal in question which needs to be resolved asap.	2260949	1471981189901	1471981189955	v	86
4452	47415	The second deal in question which needs to be resolved asap.	The second deal in question which needs to be resolved asap.	2260960	1471981189970	1471981190068	h	72
4452	47415	The second deal in question which needs to be resolved asap.	The second deal in question which needs to be resolved asap.	2260968	1471981190427	1471981190502	BKSP	8
4452	47415	The second deal in question which needs to be resolved asap.	The second deal in question which needs to be resolved asap.	2260975	1471981190627	1471981190687	BKSP	8
4452	47415	The second deal in question which needs to be resolved asap.	The second deal in question which needs to be resolved asap.	2260982	1471981190733	1471981190818	c	67
4452	47415	The second deal in question which needs to be resolved asap.	The second deal in question which needs to be resolved asap.	2260984	1471981190803	1471981190916	h	72
4452	47415	The second deal in question which needs to be resolved asap.	The second deal in question which needs to be resolved asap.	2260989	1471981190963	1471981191083	 	32
4452	47415	The second deal in question which needs to be resolved asap.	The second deal in question which needs to be resolved asap.	2261115	1471981191319	1471981191419	n	77
4452	47415	The second deal in question which needs to be resolved asap.	The second deal in question which needs to be resolved asap.	2261122	1471981191857	1471981191952	BKSP	8
4452	47415	The second deal in question which needs to be resolved asap.	The second deal in question which needs to be resolved asap.	2261126	1471981192171	1471981192283	BKSP	8
4452	47415	The second deal in question which needs to be resolved asap.	The second deal in question which needs to be resolved asap.	2261132	1471981192439	1471981192550	n	78
4452	47415	The second deal in question which needs to be resolved asap.	The second deal in question which needs to be resolved asap.	2261135	1471981192597	1471981192669	e	69
4452	47415	The second deal in question which needs to be resolved asap.	The second deal in question which needs to be resolved asap.	2261139	1471981192763	1471981192851	e	69
4452	47415	The second deal in question which needs to be resolved asap.	The second deal in question which needs to be resolved asap.	2261177	1471981192960	1471981193051	d	68
4452	47415	The second deal in question which needs to be resolved asap.	The second deal in question which needs to be resolved asap.	2261181	1471981193176	1471981193269	s	83
4452	47415	The second deal in question which needs to be resolved asap.	The second deal in question which needs to be resolved asap.	2261186	1471981193331	1471981193465	 	32
4452	47415	The second deal in question which needs to be resolved asap.	The second deal in question which needs to be resolved asap.	2261191	1471981193512	1471981193648	t	84
4452	47415	The second deal in question which needs to be resolved asap.	The second deal in question which needs to be resolved asap.	2261195	1471981193648	1471981193752	o	79
4452	47415	The second deal in question which needs to be resolved asap.	The second deal in question which needs to be resolved asap.	2261232	1471981193767	1471981193914	 	32
4452	47415	The second deal in question which needs to be resolved asap.	The second deal in question which needs to be resolved asap.	2261235	1471981194007	1471981194164	b	66
4452	47415	The second deal in question which needs to be resolved asap.	The second deal in question which needs to be resolved asap.	2261238	1471981194164	1471981194236	e	69
4452	47415	The second deal in question which needs to be resolved asap.	The second deal in question which needs to be resolved asap.	2261244	1471981194283	1471981194399	 	32
4452	47415	The second deal in question which needs to be resolved asap.	The second deal in question which needs to be resolved asap.	2261250	1471981194493	1471981194601	r	82
4452	47415	The second deal in question which needs to be resolved asap.	The second deal in question which needs to be resolved asap.	2261325	1471981194665	1471981194767	e	69
4452	47415	The second deal in question which needs to be resolved asap.	The second deal in question which needs to be resolved asap.	2261330	1471981194938	1471981195050	s	83
4452	47415	The second deal in question which needs to be resolved asap.	The second deal in question which needs to be resolved asap.	2261332	1471981195113	1471981195232	o	79
4452	47415	The second deal in question which needs to be resolved asap.	The second deal in question which needs to be resolved asap.	2261338	1471981195373	1471981195546	l	76
4452	47415	The second deal in question which needs to be resolved asap.	The second deal in question which needs to be resolved asap.	2261343	1471981195717	1471981195801	v	86
4452	47415	The second deal in question which needs to be resolved asap.	The second deal in question which needs to be resolved asap.	2261406	1471981195897	1471981195977	e	69
4452	47415	The second deal in question which needs to be resolved asap.	The second deal in question which needs to be resolved asap.	2261407	1471981196086	1471981196185	d	68
4452	47415	The second deal in question which needs to be resolved asap.	The second deal in question which needs to be resolved asap.	2261410	1471981196278	1471981196446	 	32
4452	47415	The second deal in question which needs to be resolved asap.	The second deal in question which needs to be resolved asap.	2261415	1471981196493	1471981196600	a	65
4452	47415	The second deal in question which needs to be resolved asap.	The second deal in question which needs to be resolved asap.	2261420	1471981196725	1471981196851	s	83
4452	47415	The second deal in question which needs to be resolved asap.	The second deal in question which needs to be resolved asap.	2261526	1471981196946	1471981197067	a	65
4452	47415	The second deal in question which needs to be resolved asap.	The second deal in question which needs to be resolved asap.	2261532	1471981197145	1471981197266	p	80
4452	47415	The second deal in question which needs to be resolved asap.	The second deal in question which needs to be resolved asap.	2261540	1471981197800	1471981197886	.	190
4452	47441	Wish me luck with Linda.	Wish me luck with Linda.	2261900	1471981200501	1471981200673	CAPS_LOCK	20
4452	47441	Wish me luck with Linda.	Wish me luck with Linda.	2261904	1471981201520	1471981201632	W	87
4452	47441	Wish me luck with Linda.	Wish me luck with Linda.	2261908	1471981201710	1471981201850	CAPS_LOCK	20
4452	47441	Wish me luck with Linda.	Wish me luck with Linda.	2261913	1471981201882	1471981202046	i	73
4452	47441	Wish me luck with Linda.	Wish me luck with Linda.	2261917	1471981202155	1471981202266	s	83
4452	47441	Wish me luck with Linda.	Wish me luck with Linda.	2261924	1471981202266	1471981202398	h	72
4452	47441	Wish me luck with Linda.	Wish me luck with Linda.	2261928	1471981202429	1471981202581	 	32
4452	47441	Wish me luck with Linda.	Wish me luck with Linda.	2261987	1471981202629	1471981202771	m	77
4452	47441	Wish me luck with Linda.	Wish me luck with Linda.	2261992	1471981202733	1471981202854	e	69
4452	47441	Wish me luck with Linda.	Wish me luck with Linda.	2262000	1471981202818	1471981202948	 	32
4452	47441	Wish me luck with Linda.	Wish me luck with Linda.	2262007	1471981203057	1471981203168	l	76
4452	47441	Wish me luck with Linda.	Wish me luck with Linda.	2262016	1471981203309	1471981203433	u	85
4452	47441	Wish me luck with Linda.	Wish me luck with Linda.	2262059	1471981203482	1471981203584	c	67
4452	47441	Wish me luck with Linda.	Wish me luck with Linda.	2262064	1471981203615	1471981203764	k	75
4452	47441	Wish me luck with Linda.	Wish me luck with Linda.	2262070	1471981203811	1471981203917	 	32
4452	47441	Wish me luck with Linda.	Wish me luck with Linda.	2262077	1471981203995	1471981204121	w	87
4452	47441	Wish me luck with Linda.	Wish me luck with Linda.	2262152	1471981204084	1471981204186	i	73
4452	47441	Wish me luck with Linda.	Wish me luck with Linda.	2262158	1471981204217	1471981204321	t	84
4452	47441	Wish me luck with Linda.	Wish me luck with Linda.	2262161	1471981204293	1471981204399	h	72
4452	47441	Wish me luck with Linda.	Wish me luck with Linda.	2262165	1471981204415	1471981204549	 	32
4452	47441	Wish me luck with Linda.	Wish me luck with Linda.	2262170	1471981204627	1471981204751	CAPS_LOCK	20
4452	47441	Wish me luck with Linda.	Wish me luck with Linda.	2262175	1471981204751	1471981204868	L	76
4452	47441	Wish me luck with Linda.	Wish me luck with Linda.	2262182	1471981204962	1471981205104	CAPS_LOCK	20
4452	47441	Wish me luck with Linda.	Wish me luck with Linda.	2262252	1471981205055	1471981205183	i	73
4452	47441	Wish me luck with Linda.	Wish me luck with Linda.	2262258	1471981205230	1471981205349	n	78
4452	47441	Wish me luck with Linda.	Wish me luck with Linda.	2262264	1471981205365	1471981205436	d	68
4452	47441	Wish me luck with Linda.	Wish me luck with Linda.	2262269	1471981205514	1471981205679	a	65
4452	47441	Wish me luck with Linda.	Wish me luck with Linda.	2262276	1471981205929	1471981206111	.	190
4452	47456	The restart was a painful lesson regarding the rules of the race.	The restart was a painful lesson regarding the rules of the race.	2264979	1471981240542	1471981240682	CAPS_LOCK	20
4452	47456	The restart was a painful lesson regarding the rules of the race.	The restart was a painful lesson regarding the rules of the race.	2264987	1471981240807	1471981240854	T	82
4452	47456	The restart was a painful lesson regarding the rules of the race.	The restart was a painful lesson regarding the rules of the race.	2264992	1471981241166	1471981241291	CAPS_LOCK	20
4452	47456	The restart was a painful lesson regarding the rules of the race.	The restart was a painful lesson regarding the rules of the race.	2264999	1471981241670	1471981241752	BKSP	8
4452	47456	The restart was a painful lesson regarding the rules of the race.	The restart was a painful lesson regarding the rules of the race.	2265004	1471981241861	1471981241972	BKSP	8
4452	47456	The restart was a painful lesson regarding the rules of the race.	The restart was a painful lesson regarding the rules of the race.	2265012	1471981242112	1471981242253	CAPS_LOCK	20
4452	47456	The restart was a painful lesson regarding the rules of the race.	The restart was a painful lesson regarding the rules of the race.	2265018	1471981242656	1471981242781	CAPS_LOCK	20
4452	47456	The restart was a painful lesson regarding the rules of the race.	The restart was a painful lesson regarding the rules of the race.	2265023	1471981243362	1471981243520	CAPS_LOCK	20
4452	47456	The restart was a painful lesson regarding the rules of the race.	The restart was a painful lesson regarding the rules of the race.	2265027	1471981243676	1471981243768	T	84
4452	47456	The restart was a painful lesson regarding the rules of the race.	The restart was a painful lesson regarding the rules of the race.	2265034	1471981243861	1471981243971	CAPS_LOCK	20
4452	47456	The restart was a painful lesson regarding the rules of the race.	The restart was a painful lesson regarding the rules of the race.	2265038	1471981244395	1471981244532	h	72
4452	47456	The restart was a painful lesson regarding the rules of the race.	The restart was a painful lesson regarding the rules of the race.	2265159	1471981244516	1471981244621	e	69
4452	47456	The restart was a painful lesson regarding the rules of the race.	The restart was a painful lesson regarding the rules of the race.	2265161	1471981244570	1471981244730	 	32
4452	47456	The restart was a painful lesson regarding the rules of the race.	The restart was a painful lesson regarding the rules of the race.	2265163	1471981244839	1471981244967	r	82
4452	47456	The restart was a painful lesson regarding the rules of the race.	The restart was a painful lesson regarding the rules of the race.	2265166	1471981245029	1471981245165	e	69
4452	47456	The restart was a painful lesson regarding the rules of the race.	The restart was a painful lesson regarding the rules of the race.	2265168	1471981246388	1471981246499	s	83
4452	47456	The restart was a painful lesson regarding the rules of the race.	The restart was a painful lesson regarding the rules of the race.	2265171	1471981246797	1471981246931	t	84
4452	47456	The restart was a painful lesson regarding the rules of the race.	The restart was a painful lesson regarding the rules of the race.	2265226	1471981246979	1471981247115	a	65
4452	47456	The restart was a painful lesson regarding the rules of the race.	The restart was a painful lesson regarding the rules of the race.	2265229	1471981247177	1471981247283	r	82
4452	47456	The restart was a painful lesson regarding the rules of the race.	The restart was a painful lesson regarding the rules of the race.	2265234	1471981247393	1471981247485	t	84
4452	47456	The restart was a painful lesson regarding the rules of the race.	The restart was a painful lesson regarding the rules of the race.	2265239	1471981247563	1471981247730	 	32
4452	47456	The restart was a painful lesson regarding the rules of the race.	The restart was a painful lesson regarding the rules of the race.	2265242	1471981247730	1471981247849	w	87
4452	47456	The restart was a painful lesson regarding the rules of the race.	The restart was a painful lesson regarding the rules of the race.	2265272	1471981247929	1471981248018	a	65
4452	47456	The restart was a painful lesson regarding the rules of the race.	The restart was a painful lesson regarding the rules of the race.	2265274	1471981248081	1471981248199	s	83
4452	47456	The restart was a painful lesson regarding the rules of the race.	The restart was a painful lesson regarding the rules of the race.	2265280	1471981248261	1471981248419	 	32
4452	47456	The restart was a painful lesson regarding the rules of the race.	The restart was a painful lesson regarding the rules of the race.	2265281	1471981248450	1471981248550	a	65
4452	47456	The restart was a painful lesson regarding the rules of the race.	The restart was a painful lesson regarding the rules of the race.	2265282	1471981248597	1471981248701	 	32
4452	47456	The restart was a painful lesson regarding the rules of the race.	The restart was a painful lesson regarding the rules of the race.	2265334	1471981248875	1471981248999	p	80
4452	47456	The restart was a painful lesson regarding the rules of the race.	The restart was a painful lesson regarding the rules of the race.	2265338	1471981248999	1471981249117	a	65
4452	47456	The restart was a painful lesson regarding the rules of the race.	The restart was a painful lesson regarding the rules of the race.	2265340	1471981249117	1471981249202	i	73
4452	47456	The restart was a painful lesson regarding the rules of the race.	The restart was a painful lesson regarding the rules of the race.	2265343	1471981249296	1471981249415	n	78
4452	47456	The restart was a painful lesson regarding the rules of the race.	The restart was a painful lesson regarding the rules of the race.	2265348	1471981249604	1471981249717	f	70
4452	47456	The restart was a painful lesson regarding the rules of the race.	The restart was a painful lesson regarding the rules of the race.	2265425	1471981249684	1471981249752	u	85
4452	47456	The restart was a painful lesson regarding the rules of the race.	The restart was a painful lesson regarding the rules of the race.	2265428	1471981250095	1471981250201	l	76
4452	47456	The restart was a painful lesson regarding the rules of the race.	The restart was a painful lesson regarding the rules of the race.	2265434	1471981250326	1471981250465	 	32
4452	47456	The restart was a painful lesson regarding the rules of the race.	The restart was a painful lesson regarding the rules of the race.	2265438	1471981250621	1471981250763	l	76
4452	47456	The restart was a painful lesson regarding the rules of the race.	The restart was a painful lesson regarding the rules of the race.	2265443	1471981250795	1471981250898	e	69
4452	47456	The restart was a painful lesson regarding the rules of the race.	The restart was a painful lesson regarding the rules of the race.	2265448	1471981250992	1471981251052	s	83
4452	47456	The restart was a painful lesson regarding the rules of the race.	The restart was a painful lesson regarding the rules of the race.	2265490	1471981251147	1471981251249	s	83
4452	47456	The restart was a painful lesson regarding the rules of the race.	The restart was a painful lesson regarding the rules of the race.	2265495	1471981251296	1471981251414	o	79
4452	47456	The restart was a painful lesson regarding the rules of the race.	The restart was a painful lesson regarding the rules of the race.	2265498	1471981251476	1471981251588	n	78
4452	47456	The restart was a painful lesson regarding the rules of the race.	The restart was a painful lesson regarding the rules of the race.	2265499	1471981251588	1471981251731	 	32
4452	47456	The restart was a painful lesson regarding the rules of the race.	The restart was a painful lesson regarding the rules of the race.	2265502	1471981251809	1471981251915	r	82
4452	47456	The restart was a painful lesson regarding the rules of the race.	The restart was a painful lesson regarding the rules of the race.	2265535	1471981251995	1471981252099	e	69
4452	47456	The restart was a painful lesson regarding the rules of the race.	The restart was a painful lesson regarding the rules of the race.	2265539	1471981252273	1471981252399	g	71
4452	47456	The restart was a painful lesson regarding the rules of the race.	The restart was a painful lesson regarding the rules of the race.	2265544	1471981252462	1471981252581	a	65
4452	47456	The restart was a painful lesson regarding the rules of the race.	The restart was a painful lesson regarding the rules of the race.	2265548	1471981252612	1471981252732	r	82
4452	47456	The restart was a painful lesson regarding the rules of the race.	The restart was a painful lesson regarding the rules of the race.	2265555	1471981252858	1471981252965	d	68
4452	47456	The restart was a painful lesson regarding the rules of the race.	The restart was a painful lesson regarding the rules of the race.	2265593	1471981253044	1471981253133	i	73
4452	47456	The restart was a painful lesson regarding the rules of the race.	The restart was a painful lesson regarding the rules of the race.	2265596	1471981253196	1471981253314	n	78
4452	47456	The restart was a painful lesson regarding the rules of the race.	The restart was a painful lesson regarding the rules of the race.	2265598	1471981253314	1471981253384	g	71
4452	47456	The restart was a painful lesson regarding the rules of the race.	The restart was a painful lesson regarding the rules of the race.	2265601	1471981253369	1471981253483	 	32
4452	47456	The restart was a painful lesson regarding the rules of the race.	The restart was a painful lesson regarding the rules of the race.	2265604	1471981253514	1471981253636	t	84
4452	47456	The restart was a painful lesson regarding the rules of the race.	The restart was a painful lesson regarding the rules of the race.	2265671	1471981253584	1471981253715	h	72
4452	47456	The restart was a painful lesson regarding the rules of the race.	The restart was a painful lesson regarding the rules of the race.	2265677	1471981253731	1471981253878	e	69
4452	47456	The restart was a painful lesson regarding the rules of the race.	The restart was a painful lesson regarding the rules of the race.	2265682	1471981253926	1471981254100	 	32
4452	47456	The restart was a painful lesson regarding the rules of the race.	The restart was a painful lesson regarding the rules of the race.	2265686	1471981254215	1471981254348	r	82
4452	47456	The restart was a painful lesson regarding the rules of the race.	The restart was a painful lesson regarding the rules of the race.	2265693	1471981254379	1471981254482	u	85
4452	47456	The restart was a painful lesson regarding the rules of the race.	The restart was a painful lesson regarding the rules of the race.	2265695	1471981254606	1471981254731	l	76
4452	47456	The restart was a painful lesson regarding the rules of the race.	The restart was a painful lesson regarding the rules of the race.	2265718	1471981254715	1471981254833	e	69
4452	47456	The restart was a painful lesson regarding the rules of the race.	The restart was a painful lesson regarding the rules of the race.	2265726	1471981254879	1471981255066	s	83
4452	47456	The restart was a painful lesson regarding the rules of the race.	The restart was a painful lesson regarding the rules of the race.	2265734	1471981254968	1471981255098	 	32
4452	47456	The restart was a painful lesson regarding the rules of the race.	The restart was a painful lesson regarding the rules of the race.	2265739	1471981255098	1471981255235	o	79
4452	47456	The restart was a painful lesson regarding the rules of the race.	The restart was a painful lesson regarding the rules of the race.	2265749	1471981255183	1471981255300	f	70
4452	47456	The restart was a painful lesson regarding the rules of the race.	The restart was a painful lesson regarding the rules of the race.	2265788	1471981255282	1471981255398	 	32
4452	47456	The restart was a painful lesson regarding the rules of the race.	The restart was a painful lesson regarding the rules of the race.	2265793	1471981255398	1471981255515	t	84
4452	47456	The restart was a painful lesson regarding the rules of the race.	The restart was a painful lesson regarding the rules of the race.	2265800	1471981255515	1471981255651	h	72
4452	47456	The restart was a painful lesson regarding the rules of the race.	The restart was a painful lesson regarding the rules of the race.	2265806	1471981255585	1471981255700	e	69
4452	47456	The restart was a painful lesson regarding the rules of the race.	The restart was a painful lesson regarding the rules of the race.	2265813	1471981255667	1471981255812	 	32
4452	47456	The restart was a painful lesson regarding the rules of the race.	The restart was a painful lesson regarding the rules of the race.	2265818	1471981255859	1471981255981	r	82
4452	47456	The restart was a painful lesson regarding the rules of the race.	The restart was a painful lesson regarding the rules of the race.	2265922	1471981256030	1471981256164	a	65
4452	47456	The restart was a painful lesson regarding the rules of the race.	The restart was a painful lesson regarding the rules of the race.	2265923	1471981256211	1471981256316	v	86
4452	47456	The restart was a painful lesson regarding the rules of the race.	The restart was a painful lesson regarding the rules of the race.	2265925	1471981256440	1471981256580	e	69
4452	47456	The restart was a painful lesson regarding the rules of the race.	The restart was a painful lesson regarding the rules of the race.	2265927	1471981256830	1471981256870	BKSP	8
4452	47456	The restart was a painful lesson regarding the rules of the race.	The restart was a painful lesson regarding the rules of the race.	2265928	1471981256979	1471981257069	BKSP	8
4452	47456	The restart was a painful lesson regarding the rules of the race.	The restart was a painful lesson regarding the rules of the race.	2265929	1471981257012	1471981257116	c	67
4452	47456	The restart was a painful lesson regarding the rules of the race.	The restart was a painful lesson regarding the rules of the race.	2265930	1471981257178	1471981257299	e	69
4452	47456	The restart was a painful lesson regarding the rules of the race.	The restart was a painful lesson regarding the rules of the race.	2266037	1471981257299	1471981257336	l	76
4452	47456	The restart was a painful lesson regarding the rules of the race.	The restart was a painful lesson regarding the rules of the race.	2266040	1471981258230	1471981258302	BKSP	8
4452	47456	The restart was a painful lesson regarding the rules of the race.	The restart was a painful lesson regarding the rules of the race.	2266043	1471981258552	1471981258618	.	190
4452	47529	I'll call you in the morning.	I'll call you in the morning.	2266338	1471981260856	1471981260982	CAPS_LOCK	20
4452	47529	I'll call you in the morning.	I'll call you in the morning.	2266341	1471981261170	1471981261250	I	73
4452	47529	I'll call you in the morning.	I'll call you in the morning.	2266343	1471981261250	1471981261343	CAPS_LOCK	20
4452	47529	I'll call you in the morning.	I'll call you in the morning.	2266345	1471981262190	1471981262330	'	222
4452	47529	I'll call you in the morning.	I'll call you in the morning.	2266347	1471981262720	1471981262785	l	76
4452	47529	I'll call you in the morning.	I'll call you in the morning.	2266349	1471981262878	1471981262951	l	76
4452	47529	I'll call you in the morning.	I'll call you in the morning.	2266351	1471981263013	1471981263164	 	32
4452	47529	I'll call you in the morning.	I'll call you in the morning.	2266365	1471981263244	1471981263286	v	67
4452	47529	I'll call you in the morning.	I'll call you in the morning.	2266367	1471981263348	1471981263480	a	65
4452	47529	I'll call you in the morning.	I'll call you in the morning.	2266370	1471981263464	1471981263535	l	76
4452	47529	I'll call you in the morning.	I'll call you in the morning.	2266373	1471981263629	1471981263748	l	76
4452	47529	I'll call you in the morning.	I'll call you in the morning.	2266460	1471981264045	1471981264102	BKSP	8
4452	47529	I'll call you in the morning.	I'll call you in the morning.	2266465	1471981264211	1471981264285	BKSP	8
4452	47529	I'll call you in the morning.	I'll call you in the morning.	2266468	1471981264379	1471981264451	BKSP	8
4452	47529	I'll call you in the morning.	I'll call you in the morning.	2266471	1471981264545	1471981264617	BKSP	8
4452	47529	I'll call you in the morning.	I'll call you in the morning.	2266473	1471981264633	1471981264734	a	65
4452	47529	I'll call you in the morning.	I'll call you in the morning.	2266479	1471981264797	1471981264851	l	76
4452	47529	I'll call you in the morning.	I'll call you in the morning.	2266483	1471981264945	1471981265049	l	76
4452	47529	I'll call you in the morning.	I'll call you in the morning.	2266486	1471981265080	1471981265191	 	32
4452	47529	I'll call you in the morning.	I'll call you in the morning.	2266490	1471981265238	1471981265318	y	89
4452	47529	I'll call you in the morning.	I'll call you in the morning.	2266517	1471981265474	1471981265601	o	79
4452	47529	I'll call you in the morning.	I'll call you in the morning.	2266519	1471981265665	1471981265750	u	85
4452	47529	I'll call you in the morning.	I'll call you in the morning.	2266520	1471981265812	1471981265946	 	32
4452	47529	I'll call you in the morning.	I'll call you in the morning.	2266522	1471981265962	1471981266066	i	73
4452	47529	I'll call you in the morning.	I'll call you in the morning.	2266525	1471981266191	1471981266236	i	73
4452	47529	I'll call you in the morning.	I'll call you in the morning.	2266599	1471981266772	1471981266852	BKSP	8
4452	47529	I'll call you in the morning.	I'll call you in the morning.	2266603	1471981266992	1471981267115	n	78
4452	47529	I'll call you in the morning.	I'll call you in the morning.	2266608	1471981267146	1471981267295	 	32
4452	47529	I'll call you in the morning.	I'll call you in the morning.	2266612	1471981267295	1471981267417	t	84
4452	47529	I'll call you in the morning.	I'll call you in the morning.	2266616	1471981267417	1471981267536	h	72
4452	47529	I'll call you in the morning.	I'll call you in the morning.	2266657	1471981267503	1471981267615	e	69
4452	47529	I'll call you in the morning.	I'll call you in the morning.	2266661	1471981267646	1471981267764	 	32
4452	47529	I'll call you in the morning.	I'll call you in the morning.	2266664	1471981267796	1471981267931	m	77
4452	47529	I'll call you in the morning.	I'll call you in the morning.	2266668	1471981267962	1471981268084	r	82
4452	47529	I'll call you in the morning.	I'll call you in the morning.	2266671	1471981268019	1471981268162	o	79
4452	47529	I'll call you in the morning.	I'll call you in the morning.	2266673	1471981268256	1471981268365	i	73
4452	47529	I'll call you in the morning.	I'll call you in the morning.	2266785	1471981268445	1471981268596	n	78
4452	47529	I'll call you in the morning.	I'll call you in the morning.	2266787	1471981268580	1471981268666	g	71
4452	47529	I'll call you in the morning.	I'll call you in the morning.	2266790	1471981268729	1471981268786	 	32
4452	47529	I'll call you in the morning.	I'll call you in the morning.	2266792	1471981268895	1471981269016	.	190
4452	47529	I'll call you in the morning.	I'll call you in the morning.	2266794	1471981269266	1471981269336	BKSP	8
4452	47529	I'll call you in the morning.	I'll call you in the morning.	2266797	1471981269414	1471981269486	BKSP	8
4452	47529	I'll call you in the morning.	I'll call you in the morning.	2266801	1471981269580	1471981269667	BKSP	8
4452	47529	I'll call you in the morning.	I'll call you in the morning.	2266805	1471981269745	1471981269848	BKSP	8
4452	47529	I'll call you in the morning.	I'll call you in the morning.	2266809	1471981269895	1471981270002	BKSP	8
4452	47529	I'll call you in the morning.	I'll call you in the morning.	2266812	1471981270080	1471981270183	BKSP	8
4452	47529	I'll call you in the morning.	I'll call you in the morning.	2266815	1471981270230	1471981270364	BKSP	8
4452	47529	I'll call you in the morning.	I'll call you in the morning.	2266816	1471981270676	1471981270819	o	79
4452	47529	I'll call you in the morning.	I'll call you in the morning.	2266817	1471981270819	1471981270931	r	82
4452	47529	I'll call you in the morning.	I'll call you in the morning.	2266818	1471981271040	1471981271164	n	78
4452	47529	I'll call you in the morning.	I'll call you in the morning.	2266819	1471981271227	1471981271364	i	73
4452	47529	I'll call you in the morning.	I'll call you in the morning.	2266820	1471981271380	1471981271482	n	78
4452	47529	I'll call you in the morning.	I'll call you in the morning.	2266840	1471981271467	1471981271567	g	71
4452	47529	I'll call you in the morning.	I'll call you in the morning.	2266843	1471981272035	1471981272085	.	190
4452	47543	Antonio Guterres sent a message of condolences to Smith's widow.	Antonio guterres sent a meassage of condolences to smiths widow.	2267009	1471981274240	1471981274340	CAPS_LOCK	20
4452	47543	Antonio Guterres sent a message of condolences to Smith's widow.	Antonio guterres sent a meassage of condolences to smiths widow.	2267013	1471981274947	1471981275033	A	65
4452	47543	Antonio Guterres sent a message of condolences to Smith's widow.	Antonio guterres sent a meassage of condolences to smiths widow.	2267017	1471981275143	1471981275252	CAPS_LOCK	20
4452	47543	Antonio Guterres sent a message of condolences to Smith's widow.	Antonio guterres sent a meassage of condolences to smiths widow.	2267021	1471981275330	1471981275432	n	78
4452	47543	Antonio Guterres sent a message of condolences to Smith's widow.	Antonio guterres sent a meassage of condolences to smiths widow.	2267024	1471981275729	1471981275801	t	84
4452	47543	Antonio Guterres sent a message of condolences to Smith's widow.	Antonio guterres sent a meassage of condolences to smiths widow.	2267027	1471981275864	1471981275950	o	79
4452	47543	Antonio Guterres sent a message of condolences to Smith's widow.	Antonio guterres sent a meassage of condolences to smiths widow.	2267029	1471981276012	1471981276162	n	78
4452	47543	Antonio Guterres sent a message of condolences to Smith's widow.	Antonio guterres sent a meassage of condolences to smiths widow.	2267090	1471981276335	1471981276464	i	73
4452	47543	Antonio Guterres sent a message of condolences to Smith's widow.	Antonio guterres sent a meassage of condolences to smiths widow.	2267092	1471981276526	1471981276663	o	79
4452	47543	Antonio Guterres sent a message of condolences to Smith's widow.	Antonio guterres sent a meassage of condolences to smiths widow.	2267096	1471981276881	1471981277060	 	32
4452	47543	Antonio Guterres sent a message of condolences to Smith's widow.	Antonio guterres sent a meassage of condolences to smiths widow.	2267099	1471981277469	1471981277612	g	71
4452	47543	Antonio Guterres sent a message of condolences to Smith's widow.	Antonio guterres sent a meassage of condolences to smiths widow.	2267103	1471981277752	1471981277896	u	85
4452	47543	Antonio Guterres sent a message of condolences to Smith's widow.	Antonio guterres sent a meassage of condolences to smiths widow.	2267222	1471981278917	1471981279031	t	84
4452	47543	Antonio Guterres sent a message of condolences to Smith's widow.	Antonio guterres sent a meassage of condolences to smiths widow.	2267226	1471981279156	1471981279267	e	69
4452	47543	Antonio Guterres sent a message of condolences to Smith's widow.	Antonio guterres sent a meassage of condolences to smiths widow.	2267229	1471981279298	1471981279414	r	82
4452	47543	Antonio Guterres sent a message of condolences to Smith's widow.	Antonio guterres sent a meassage of condolences to smiths widow.	2267231	1471981279555	1471981279666	r	82
4452	47543	Antonio Guterres sent a message of condolences to Smith's widow.	Antonio guterres sent a meassage of condolences to smiths widow.	2267232	1471981279791	1471981279914	e	69
4452	47543	Antonio Guterres sent a message of condolences to Smith's widow.	Antonio guterres sent a meassage of condolences to smiths widow.	2267256	1471981279994	1471981280145	s	83
4452	47543	Antonio Guterres sent a message of condolences to Smith's widow.	Antonio guterres sent a meassage of condolences to smiths widow.	2267259	1471981280208	1471981280351	 	32
4452	47543	Antonio Guterres sent a message of condolences to Smith's widow.	Antonio guterres sent a meassage of condolences to smiths widow.	2267262	1471981280300	1471981280414	s	83
4452	47543	Antonio Guterres sent a message of condolences to Smith's widow.	Antonio guterres sent a meassage of condolences to smiths widow.	2267265	1471981280507	1471981280615	e	69
4452	47543	Antonio Guterres sent a message of condolences to Smith's widow.	Antonio guterres sent a meassage of condolences to smiths widow.	2267267	1471981280646	1471981280803	n	78
4452	47543	Antonio Guterres sent a message of condolences to Smith's widow.	Antonio guterres sent a meassage of condolences to smiths widow.	2267280	1471981280764	1471981280884	t	84
4452	47543	Antonio Guterres sent a message of condolences to Smith's widow.	Antonio guterres sent a meassage of condolences to smiths widow.	2267281	1471981280835	1471981280995	 	32
4452	47543	Antonio Guterres sent a message of condolences to Smith's widow.	Antonio guterres sent a meassage of condolences to smiths widow.	2267283	1471981281058	1471981281165	a	65
4452	47543	Antonio Guterres sent a message of condolences to Smith's widow.	Antonio guterres sent a meassage of condolences to smiths widow.	2267285	1471981281150	1471981281281	 	32
4452	47543	Antonio Guterres sent a message of condolences to Smith's widow.	Antonio guterres sent a meassage of condolences to smiths widow.	2267290	1471981281390	1471981281553	m	77
4452	47543	Antonio Guterres sent a message of condolences to Smith's widow.	Antonio guterres sent a meassage of condolences to smiths widow.	2267327	1471981281516	1471981281616	e	69
4452	47543	Antonio Guterres sent a message of condolences to Smith's widow.	Antonio guterres sent a meassage of condolences to smiths widow.	2267330	1471981281694	1471981281814	a	65
4452	47543	Antonio Guterres sent a message of condolences to Smith's widow.	Antonio guterres sent a meassage of condolences to smiths widow.	2267333	1471981281955	1471981282034	s	83
4452	47543	Antonio Guterres sent a message of condolences to Smith's widow.	Antonio guterres sent a meassage of condolences to smiths widow.	2267335	1471981282190	1471981282314	s	83
4452	47543	Antonio Guterres sent a message of condolences to Smith's widow.	Antonio guterres sent a meassage of condolences to smiths widow.	2267339	1471981282424	1471981282579	a	65
4452	47543	Antonio Guterres sent a message of condolences to Smith's widow.	Antonio guterres sent a meassage of condolences to smiths widow.	2267343	1471981282673	1471981282720	g	70
4452	47543	Antonio Guterres sent a message of condolences to Smith's widow.	Antonio guterres sent a meassage of condolences to smiths widow.	2267389	1471981282954	1471981283081	e	69
4452	47543	Antonio Guterres sent a message of condolences to Smith's widow.	Antonio guterres sent a meassage of condolences to smiths widow.	2267391	1471981283286	1471981283352	BKSP	8
4452	47543	Antonio Guterres sent a message of condolences to Smith's widow.	Antonio guterres sent a meassage of condolences to smiths widow.	2267394	1471981283492	1471981283525	BKSP	8
4452	47543	Antonio Guterres sent a message of condolences to Smith's widow.	Antonio guterres sent a meassage of condolences to smiths widow.	2267396	1471981283634	1471981283732	BKSP	8
4452	47543	Antonio Guterres sent a message of condolences to Smith's widow.	Antonio guterres sent a meassage of condolences to smiths widow.	2267398	1471981283732	1471981283832	f	70
4452	47543	Antonio Guterres sent a message of condolences to Smith's widow.	Antonio guterres sent a meassage of condolences to smiths widow.	2267400	1471981283878	1471981284018	e	69
4452	47543	Antonio Guterres sent a message of condolences to Smith's widow.	Antonio guterres sent a meassage of condolences to smiths widow.	2267403	1471981283952	1471981284127	 	32
4452	47543	Antonio Guterres sent a message of condolences to Smith's widow.	Antonio guterres sent a meassage of condolences to smiths widow.	2267407	1471981284158	1471981284282	o	79
4452	47543	Antonio Guterres sent a message of condolences to Smith's widow.	Antonio guterres sent a meassage of condolences to smiths widow.	2267455	1471981284454	1471981284520	BKSP	8
4452	47543	Antonio Guterres sent a message of condolences to Smith's widow.	Antonio guterres sent a meassage of condolences to smiths widow.	2267456	1471981284629	1471981284703	BKSP	8
4452	47543	Antonio Guterres sent a message of condolences to Smith's widow.	Antonio guterres sent a meassage of condolences to smiths widow.	2267460	1471981284812	1471981284869	BKSP	8
4452	47543	Antonio Guterres sent a message of condolences to Smith's widow.	Antonio guterres sent a meassage of condolences to smiths widow.	2267464	1471981284962	1471981285092	BKSP	8
4452	47543	Antonio Guterres sent a message of condolences to Smith's widow.	Antonio guterres sent a meassage of condolences to smiths widow.	2267470	1471981285049	1471981285152	g	71
4452	47543	Antonio Guterres sent a message of condolences to Smith's widow.	Antonio guterres sent a meassage of condolences to smiths widow.	2267479	1471981285217	1471981285348	e	69
4452	47543	Antonio Guterres sent a message of condolences to Smith's widow.	Antonio guterres sent a meassage of condolences to smiths widow.	2267486	1471981285300	1471981285416	 	32
4452	47543	Antonio Guterres sent a message of condolences to Smith's widow.	Antonio guterres sent a meassage of condolences to smiths widow.	2267493	1471981285431	1471981285544	o	79
4452	47543	Antonio Guterres sent a message of condolences to Smith's widow.	Antonio guterres sent a meassage of condolences to smiths widow.	2267498	1471981285576	1471981285667	f	70
4452	47543	Antonio Guterres sent a message of condolences to Smith's widow.	Antonio guterres sent a meassage of condolences to smiths widow.	2267560	1471981285667	1471981285783	 	32
4452	47543	Antonio Guterres sent a message of condolences to Smith's widow.	Antonio guterres sent a meassage of condolences to smiths widow.	2267564	1471981285829	1471981285966	t	84
4452	47543	Antonio Guterres sent a message of condolences to Smith's widow.	Antonio guterres sent a meassage of condolences to smiths widow.	2267569	1471981286402	1471981286547	BKSP	8
4452	47543	Antonio Guterres sent a message of condolences to Smith's widow.	Antonio guterres sent a meassage of condolences to smiths widow.	2267575	1471981286547	1471981286618	c	67
4452	47543	Antonio Guterres sent a message of condolences to Smith's widow.	Antonio guterres sent a meassage of condolences to smiths widow.	2267579	1471981287026	1471981287132	o	79
4452	47543	Antonio Guterres sent a message of condolences to Smith's widow.	Antonio guterres sent a meassage of condolences to smiths widow.	2267585	1471981287210	1471981287315	n	78
4452	47543	Antonio Guterres sent a message of condolences to Smith's widow.	Antonio guterres sent a meassage of condolences to smiths widow.	2267647	1471981287613	1471981287748	d	68
4452	47543	Antonio Guterres sent a message of condolences to Smith's widow.	Antonio guterres sent a meassage of condolences to smiths widow.	2267650	1471981287715	1471981287832	o	79
4452	47543	Antonio Guterres sent a message of condolences to Smith's widow.	Antonio guterres sent a meassage of condolences to smiths widow.	2267657	1471981287957	1471981288178	l	76
4452	47543	Antonio Guterres sent a message of condolences to Smith's widow.	Antonio guterres sent a meassage of condolences to smiths widow.	2267664	1471981288178	1471981288284	e	69
4452	47543	Antonio Guterres sent a message of condolences to Smith's widow.	Antonio guterres sent a meassage of condolences to smiths widow.	2267670	1471981288362	1471981288481	n	78
4452	47543	Antonio Guterres sent a message of condolences to Smith's widow.	Antonio guterres sent a meassage of condolences to smiths widow.	2267734	1471981288654	1471981288782	c	67
4452	47543	Antonio Guterres sent a message of condolences to Smith's widow.	Antonio guterres sent a meassage of condolences to smiths widow.	2267738	1471981288860	1471981288950	e	69
4452	47543	Antonio Guterres sent a message of condolences to Smith's widow.	Antonio guterres sent a meassage of condolences to smiths widow.	2267741	1471981289106	1471981289170	s	83
4452	47543	Antonio Guterres sent a message of condolences to Smith's widow.	Antonio guterres sent a meassage of condolences to smiths widow.	2267744	1471981289218	1471981289363	 	32
4452	47543	Antonio Guterres sent a message of condolences to Smith's widow.	Antonio guterres sent a meassage of condolences to smiths widow.	2267748	1471981289410	1471981289553	t	84
4452	47543	Antonio Guterres sent a message of condolences to Smith's widow.	Antonio guterres sent a meassage of condolences to smiths widow.	2267789	1471981289517	1471981289684	o	79
4452	47543	Antonio Guterres sent a message of condolences to Smith's widow.	Antonio guterres sent a meassage of condolences to smiths widow.	2267792	1471981289601	1471981289778	 	32
4452	47543	Antonio Guterres sent a message of condolences to Smith's widow.	Antonio guterres sent a meassage of condolences to smiths widow.	2267797	1471981289809	1471981289970	s	83
4452	47543	Antonio Guterres sent a message of condolences to Smith's widow.	Antonio guterres sent a meassage of condolences to smiths widow.	2267799	1471981289932	1471981290110	m	77
4452	47543	Antonio Guterres sent a message of condolences to Smith's widow.	Antonio guterres sent a meassage of condolences to smiths widow.	2267801	1471981290251	1471981290399	i	73
4452	47543	Antonio Guterres sent a message of condolences to Smith's widow.	Antonio guterres sent a meassage of condolences to smiths widow.	2267803	1471981290524	1471981290663	t	84
4452	47543	Antonio Guterres sent a message of condolences to Smith's widow.	Antonio guterres sent a meassage of condolences to smiths widow.	2267854	1471981290678	1471981290829	h	72
4452	47543	Antonio Guterres sent a message of condolences to Smith's widow.	Antonio guterres sent a meassage of condolences to smiths widow.	2267858	1471981290860	1471981290966	s	83
4452	47543	Antonio Guterres sent a message of condolences to Smith's widow.	Antonio guterres sent a meassage of condolences to smiths widow.	2267864	1471981291309	1471981291448	 	32
4452	47543	Antonio Guterres sent a message of condolences to Smith's widow.	Antonio guterres sent a meassage of condolences to smiths widow.	2267868	1471981291542	1471981291665	w	87
4452	47543	Antonio Guterres sent a message of condolences to Smith's widow.	Antonio guterres sent a meassage of condolences to smiths widow.	2267871	1471981291758	1471981291943	i	73
4452	47543	Antonio Guterres sent a message of condolences to Smith's widow.	Antonio guterres sent a meassage of condolences to smiths widow.	2267948	1471981292084	1471981292151	d	68
4452	47543	Antonio Guterres sent a message of condolences to Smith's widow.	Antonio guterres sent a meassage of condolences to smiths widow.	2267953	1471981292198	1471981292349	o	79
4452	47543	Antonio Guterres sent a message of condolences to Smith's widow.	Antonio guterres sent a meassage of condolences to smiths widow.	2267955	1471981292505	1471981292616	w	87
4452	47543	Antonio Guterres sent a message of condolences to Smith's widow.	Antonio guterres sent a meassage of condolences to smiths widow.	2267960	1471981293102	1471981293200	.	190
4452	47543	Antonio Guterres sent a message of condolences to Smith's widow.	Antonio guterres sent a meassage of condolences to smiths widow.	2267964	1471981293497	1471981293678	]	221
4452	47543	Antonio Guterres sent a message of condolences to Smith's widow.	Antonio guterres sent a meassage of condolences to smiths widow.	2267998	1471981294306	1471981294416	BKSP	8
4452	47570	My only constraint is Chad's soccer game at noon.	My only constraiint is chads soccer game at noon.	2268299	1471981298427	1471981298536	CAPS_LOCK	20
4452	47570	My only constraint is Chad's soccer game at noon.	My only constraiint is chads soccer game at noon.	2268300	1471981298536	1471981298602	M	77
4452	47570	My only constraint is Chad's soccer game at noon.	My only constraiint is chads soccer game at noon.	2268301	1471981298711	1471981298822	CAPS_LOCK	20
4452	47570	My only constraint is Chad's soccer game at noon.	My only constraiint is chads soccer game at noon.	2268303	1471981298773	1471981298869	y	89
4452	47570	My only constraint is Chad's soccer game at noon.	My only constraiint is chads soccer game at noon.	2268307	1471981299275	1471981299398	 	32
4452	47570	My only constraint is Chad's soccer game at noon.	My only constraiint is chads soccer game at noon.	2268311	1471981299413	1471981299533	o	79
4452	47570	My only constraint is Chad's soccer game at noon.	My only constraiint is chads soccer game at noon.	2268317	1471981299564	1471981299697	n	78
4452	47570	My only constraint is Chad's soccer game at noon.	My only constraiint is chads soccer game at noon.	2268372	1471981299760	1471981299834	l	76
4452	47570	My only constraint is Chad's soccer game at noon.	My only constraiint is chads soccer game at noon.	2268374	1471981300368	1471981300435	y	89
4452	47570	My only constraint is Chad's soccer game at noon.	My only constraiint is chads soccer game at noon.	2268379	1471981300840	1471981300996	 	32
4452	47570	My only constraint is Chad's soccer game at noon.	My only constraiint is chads soccer game at noon.	2268382	1471981300996	1471981301115	c	67
4452	47570	My only constraint is Chad's soccer game at noon.	My only constraiint is chads soccer game at noon.	2268446	1471981301099	1471981301184	o	79
4452	47570	My only constraint is Chad's soccer game at noon.	My only constraiint is chads soccer game at noon.	2268451	1471981301231	1471981301363	n	78
4452	47570	My only constraint is Chad's soccer game at noon.	My only constraiint is chads soccer game at noon.	2268456	1471981301534	1471981301679	s	83
4452	47570	My only constraint is Chad's soccer game at noon.	My only constraiint is chads soccer game at noon.	2268458	1471981302182	1471981302283	t	84
4452	47570	My only constraint is Chad's soccer game at noon.	My only constraiint is chads soccer game at noon.	2268463	1471981302392	1471981302530	r	82
4452	47570	My only constraint is Chad's soccer game at noon.	My only constraiint is chads soccer game at noon.	2268467	1471981302624	1471981302810	a	65
4452	47570	My only constraint is Chad's soccer game at noon.	My only constraiint is chads soccer game at noon.	2268529	1471981302859	1471981302919	i	73
4452	47570	My only constraint is Chad's soccer game at noon.	My only constraiint is chads soccer game at noon.	2268530	1471981303342	1471981303418	i	73
4452	47570	My only constraint is Chad's soccer game at noon.	My only constraiint is chads soccer game at noon.	2268531	1471981303527	1471981303647	n	78
4452	47570	My only constraint is Chad's soccer game at noon.	My only constraiint is chads soccer game at noon.	2268533	1471981303725	1471981303832	t	84
4452	47570	My only constraint is Chad's soccer game at noon.	My only constraiint is chads soccer game at noon.	2268535	1471981304175	1471981304313	 	32
4452	47570	My only constraint is Chad's soccer game at noon.	My only constraiint is chads soccer game at noon.	2268576	1471981304440	1471981304596	i	73
4452	47570	My only constraint is Chad's soccer game at noon.	My only constraiint is chads soccer game at noon.	2268578	1471981304596	1471981304736	s	83
4452	47570	My only constraint is Chad's soccer game at noon.	My only constraiint is chads soccer game at noon.	2268582	1471981304683	1471981304799	 	32
4452	47570	My only constraint is Chad's soccer game at noon.	My only constraiint is chads soccer game at noon.	2268586	1471981304861	1471981305028	c	67
4452	47570	My only constraint is Chad's soccer game at noon.	My only constraiint is chads soccer game at noon.	2268591	1471981305059	1471981305197	h	72
4452	47570	My only constraint is Chad's soccer game at noon.	My only constraiint is chads soccer game at noon.	2268625	1471981305197	1471981305252	a	65
4452	47570	My only constraint is Chad's soccer game at noon.	My only constraiint is chads soccer game at noon.	2268630	1471981305595	1471981305716	d	68
4452	47570	My only constraint is Chad's soccer game at noon.	My only constraiint is chads soccer game at noon.	2268636	1471981305794	1471981305977	s	83
4452	47570	My only constraint is Chad's soccer game at noon.	My only constraiint is chads soccer game at noon.	2268644	1471981306008	1471981306148	 	32
4452	47570	My only constraint is Chad's soccer game at noon.	My only constraiint is chads soccer game at noon.	2268651	1471981306179	1471981306298	s	83
4452	47570	My only constraint is Chad's soccer game at noon.	My only constraiint is chads soccer game at noon.	2268693	1471981306347	1471981306418	o	79
4452	47570	My only constraint is Chad's soccer game at noon.	My only constraiint is chads soccer game at noon.	2268699	1471981306574	1471981306713	c	67
4452	47570	My only constraint is Chad's soccer game at noon.	My only constraiint is chads soccer game at noon.	2268704	1471981306806	1471981306931	c	67
4452	47570	My only constraint is Chad's soccer game at noon.	My only constraiint is chads soccer game at noon.	2268708	1471981307024	1471981307149	e	69
4452	47570	My only constraint is Chad's soccer game at noon.	My only constraiint is chads soccer game at noon.	2268712	1471981307180	1471981307344	r	82
4452	47570	My only constraint is Chad's soccer game at noon.	My only constraiint is chads soccer game at noon.	2268779	1471981307438	1471981307565	 	32
4452	47570	My only constraint is Chad's soccer game at noon.	My only constraiint is chads soccer game at noon.	2268782	1471981307830	1471981307885	g	71
4452	47570	My only constraint is Chad's soccer game at noon.	My only constraiint is chads soccer game at noon.	2268785	1471981308435	1471981308579	a	65
4452	47570	My only constraint is Chad's soccer game at noon.	My only constraiint is chads soccer game at noon.	2268787	1471981308626	1471981308786	m	77
4452	47570	My only constraint is Chad's soccer game at noon.	My only constraiint is chads soccer game at noon.	2268846	1471981308747	1471981308881	e	69
4452	47570	My only constraint is Chad's soccer game at noon.	My only constraiint is chads soccer game at noon.	2268848	1471981308897	1471981308984	 	32
4452	47570	My only constraint is Chad's soccer game at noon.	My only constraiint is chads soccer game at noon.	2268852	1471981309000	1471981309133	a	65
4452	47570	My only constraint is Chad's soccer game at noon.	My only constraiint is chads soccer game at noon.	2268853	1471981309179	1471981309316	t	84
4452	47570	My only constraint is Chad's soccer game at noon.	My only constraiint is chads soccer game at noon.	2268857	1471981309266	1471981309368	 	32
4452	47570	My only constraint is Chad's soccer game at noon.	My only constraiint is chads soccer game at noon.	2268860	1471981309476	1471981309582	n	78
4452	47570	My only constraint is Chad's soccer game at noon.	My only constraiint is chads soccer game at noon.	2268948	1471981309850	1471981309949	o	79
4452	47570	My only constraint is Chad's soccer game at noon.	My only constraiint is chads soccer game at noon.	2268951	1471981310153	1471981310217	o	79
4452	47570	My only constraint is Chad's soccer game at noon.	My only constraiint is chads soccer game at noon.	2268955	1471981310327	1471981310447	n	78
4452	47570	My only constraint is Chad's soccer game at noon.	My only constraiint is chads soccer game at noon.	2268958	1471981310587	1471981310698	.	190
4452	47591	Normally we just eat and run.	Normally we just eat and run.	2269175	1471981313082	1471981313175	CAPS_LOCK	20
4452	47591	Normally we just eat and run.	Normally we just eat and run.	2269177	1471981313238	1471981313332	N	78
4452	47591	Normally we just eat and run.	Normally we just eat and run.	2269179	1471981313316	1471981313441	CAPS_LOCK	20
4452	47591	Normally we just eat and run.	Normally we just eat and run.	2269181	1471981313784	1471981313960	o	79
4452	47591	Normally we just eat and run.	Normally we just eat and run.	2269185	1471981313960	1471981314081	r	82
4452	47591	Normally we just eat and run.	Normally we just eat and run.	2269189	1471981314159	1471981314296	m	77
4452	47591	Normally we just eat and run.	Normally we just eat and run.	2269193	1471981314296	1471981314428	a	65
4452	47591	Normally we just eat and run.	Normally we just eat and run.	2269228	1471981314428	1471981314484	l	76
4452	47591	Normally we just eat and run.	Normally we just eat and run.	2269230	1471981314609	1471981314668	l	76
4452	47591	Normally we just eat and run.	Normally we just eat and run.	2269231	1471981314808	1471981314899	y	89
4452	47591	Normally we just eat and run.	Normally we just eat and run.	2269234	1471981315008	1471981315145	 	32
4452	47591	Normally we just eat and run.	Normally we just eat and run.	2269236	1471981315223	1471981315284	w	87
4452	47591	Normally we just eat and run.	Normally we just eat and run.	2269260	1471981315378	1471981315481	e	69
4452	47591	Normally we just eat and run.	Normally we just eat and run.	2269267	1471981315528	1471981315646	 	32
4452	47591	Normally we just eat and run.	Normally we just eat and run.	2269274	1471981315709	1471981315783	j	74
4452	47591	Normally we just eat and run.	Normally we just eat and run.	2269282	1471981315892	1471981316014	u	85
4452	47591	Normally we just eat and run.	Normally we just eat and run.	2269334	1471981315923	1471981316062	s	83
4452	47591	Normally we just eat and run.	Normally we just eat and run.	2269337	1471981316234	1471981316394	t	84
4452	47591	Normally we just eat and run.	Normally we just eat and run.	2269342	1471981316394	1471981316514	 	32
4452	47591	Normally we just eat and run.	Normally we just eat and run.	2269347	1471981316592	1471981316682	e	69
4452	47591	Normally we just eat and run.	Normally we just eat and run.	2269352	1471981316760	1471981316912	a	65
4452	47591	Normally we just eat and run.	Normally we just eat and run.	2269357	1471981317008	1471981317146	t	84
4452	47591	Normally we just eat and run.	Normally we just eat and run.	2269371	1471981317179	1471981317328	 	32
4452	47591	Normally we just eat and run.	Normally we just eat and run.	2269373	1471981317328	1471981317446	a	65
4452	47591	Normally we just eat and run.	Normally we just eat and run.	2269375	1471981317462	1471981317601	n	78
4452	47591	Normally we just eat and run.	Normally we just eat and run.	2269378	1471981317549	1471981317648	d	68
4452	47591	Normally we just eat and run.	Normally we just eat and run.	2269381	1471981317726	1471981317847	 	32
4452	47591	Normally we just eat and run.	Normally we just eat and run.	2269459	1471981317909	1471981318067	r	82
4452	47591	Normally we just eat and run.	Normally we just eat and run.	2269461	1471981318030	1471981318131	u	85
4452	47591	Normally we just eat and run.	Normally we just eat and run.	2269462	1471981318256	1471981318333	n	78
4452	47591	Normally we just eat and run.	Normally we just eat and run.	2269463	1471981319525	1471981319600	.	190
4452	47599	Watch for more details, coming soon.	Watch for more details, coming soon.	2269647	1471981321729	1471981321807	CAPS_LOCK	20
4452	47599	Watch for more details, coming soon.	Watch for more details, coming soon.	2269648	1471981322293	1471981322414	W	87
4452	47599	Watch for more details, coming soon.	Watch for more details, coming soon.	2269649	1471981322710	1471981322851	CAPS_LOCK	20
4452	47599	Watch for more details, coming soon.	Watch for more details, coming soon.	2269650	1471981323026	1471981323162	a	65
4452	47599	Watch for more details, coming soon.	Watch for more details, coming soon.	2269651	1471981323459	1471981323549	t	84
4452	47599	Watch for more details, coming soon.	Watch for more details, coming soon.	2269652	1471981323673	1471981323797	c	67
4452	47599	Watch for more details, coming soon.	Watch for more details, coming soon.	2269662	1471981323781	1471981323883	h	72
4452	47599	Watch for more details, coming soon.	Watch for more details, coming soon.	2269664	1471981323930	1471981324099	 	32
4452	47599	Watch for more details, coming soon.	Watch for more details, coming soon.	2269666	1471981324063	1471981324149	f	70
4452	47599	Watch for more details, coming soon.	Watch for more details, coming soon.	2269667	1471981324164	1471981324335	o	79
4452	47599	Watch for more details, coming soon.	Watch for more details, coming soon.	2269669	1471981324281	1471981324415	r	82
4452	47599	Watch for more details, coming soon.	Watch for more details, coming soon.	2269699	1471981324335	1471981324447	 	32
4452	47599	Watch for more details, coming soon.	Watch for more details, coming soon.	2269703	1471981324463	1471981324611	m	77
4452	47599	Watch for more details, coming soon.	Watch for more details, coming soon.	2269705	1471981324611	1471981324739	o	79
4452	47599	Watch for more details, coming soon.	Watch for more details, coming soon.	2269709	1471981324699	1471981324815	r	82
4452	47599	Watch for more details, coming soon.	Watch for more details, coming soon.	2269711	1471981324846	1471981324979	e	69
4452	47599	Watch for more details, coming soon.	Watch for more details, coming soon.	2269714	1471981324994	1471981325131	 	32
4452	47599	Watch for more details, coming soon.	Watch for more details, coming soon.	2269795	1471981325225	1471981325300	d	68
4452	47599	Watch for more details, coming soon.	Watch for more details, coming soon.	2269799	1471981325424	1471981325515	e	69
4452	47599	Watch for more details, coming soon.	Watch for more details, coming soon.	2269805	1471981325952	1471981326032	t	84
4452	47599	Watch for more details, coming soon.	Watch for more details, coming soon.	2269811	1471981326157	1471981326265	a	65
4452	47599	Watch for more details, coming soon.	Watch for more details, coming soon.	2269815	1471981326265	1471981326366	i	73
4452	47599	Watch for more details, coming soon.	Watch for more details, coming soon.	2269877	1471981326476	1471981326628	l	76
4452	47599	Watch for more details, coming soon.	Watch for more details, coming soon.	2269880	1471981326628	1471981326731	s	83
4452	47599	Watch for more details, coming soon.	Watch for more details, coming soon.	2269883	1471981326952	1471981327080	,	188
4452	47599	Watch for more details, coming soon.	Watch for more details, coming soon.	2269887	1471981327551	1471981327696	 	32
4452	47599	Watch for more details, coming soon.	Watch for more details, coming soon.	2269890	1471981327696	1471981327796	c	67
4452	47599	Watch for more details, coming soon.	Watch for more details, coming soon.	2269915	1471981327751	1471981327881	o	79
4452	47599	Watch for more details, coming soon.	Watch for more details, coming soon.	2269917	1471981327943	1471981328032	m	77
4452	47599	Watch for more details, coming soon.	Watch for more details, coming soon.	2269922	1471981328095	1471981328246	i	73
4452	47599	Watch for more details, coming soon.	Watch for more details, coming soon.	2269925	1471981328246	1471981328386	n	78
4452	47599	Watch for more details, coming soon.	Watch for more details, coming soon.	2269929	1471981328349	1471981328451	g	71
4452	47599	Watch for more details, coming soon.	Watch for more details, coming soon.	2269981	1471981328401	1471981328563	 	32
4452	47599	Watch for more details, coming soon.	Watch for more details, coming soon.	2269984	1471981328530	1471981328675	s	83
4452	47599	Watch for more details, coming soon.	Watch for more details, coming soon.	2269987	1471981328615	1471981328701	o	79
4452	47599	Watch for more details, coming soon.	Watch for more details, coming soon.	2269989	1471981328779	1471981328866	o	79
4452	47599	Watch for more details, coming soon.	Watch for more details, coming soon.	2269993	1471981328952	1471981329065	n	78
4452	47599	Watch for more details, coming soon.	Watch for more details, coming soon.	2269995	1471981329925	1471981330047	.	190
