PARTICIPANT_ID	TEST_SECTION_ID	SENTENCE	USER_INPUT	KEYSTROKE_ID	PRESS_TIME	RELEASE_TIME	LETTER	KEYCODE
4639	49361	Mansell has not forgotten what the ovals have meant to him, however.	Mansell has not forgotten what the ovals have meant to  him, however	2353745	1471982708292	1471982708584	SHIFT	16
4639	49361	Mansell has not forgotten what the ovals have meant to him, however.	Mansell has not forgotten what the ovals have meant to  him, however	2353755	1471982708534	1471982708644	M	77
4639	49361	Mansell has not forgotten what the ovals have meant to him, however.	Mansell has not forgotten what the ovals have meant to  him, however	2353763	1471982708726	1471982708877	a	65
4639	49361	Mansell has not forgotten what the ovals have meant to him, however.	Mansell has not forgotten what the ovals have meant to  him, however	2353771	1471982708996	1471982709097	n	78
4639	49361	Mansell has not forgotten what the ovals have meant to him, however.	Mansell has not forgotten what the ovals have meant to  him, however	2353774	1471982709621	1471982709733	s	83
4639	49361	Mansell has not forgotten what the ovals have meant to him, however.	Mansell has not forgotten what the ovals have meant to  him, however	2353778	1471982709883	1471982710003	e	69
4639	49361	Mansell has not forgotten what the ovals have meant to him, however.	Mansell has not forgotten what the ovals have meant to  him, however	2353909	1471982710620	1471982710671	l	76
4639	49361	Mansell has not forgotten what the ovals have meant to him, however.	Mansell has not forgotten what the ovals have meant to  him, however	2353913	1471982710773	1471982710833	l	76
4639	49361	Mansell has not forgotten what the ovals have meant to him, however.	Mansell has not forgotten what the ovals have meant to  him, however	2353919	1471982711023	1471982711143	 	32
4639	49361	Mansell has not forgotten what the ovals have meant to him, however.	Mansell has not forgotten what the ovals have meant to  him, however	2353925	1471982711850	1471982711960	h	72
4639	49361	Mansell has not forgotten what the ovals have meant to him, however.	Mansell has not forgotten what the ovals have meant to  him, however	2353932	1471982712010	1471982712120	a	65
4639	49361	Mansell has not forgotten what the ovals have meant to him, however.	Mansell has not forgotten what the ovals have meant to  him, however	2354050	1471982712212	1471982712323	s	83
4639	49361	Mansell has not forgotten what the ovals have meant to him, however.	Mansell has not forgotten what the ovals have meant to  him, however	2354058	1471982712325	1471982712445	 	32
4639	49361	Mansell has not forgotten what the ovals have meant to him, however.	Mansell has not forgotten what the ovals have meant to  him, however	2354068	1471982712767	1471982712848	n	78
4639	49361	Mansell has not forgotten what the ovals have meant to him, however.	Mansell has not forgotten what the ovals have meant to  him, however	2354077	1471982713048	1471982713204	o	79
4639	49361	Mansell has not forgotten what the ovals have meant to him, however.	Mansell has not forgotten what the ovals have meant to  him, however	2354086	1471982713343	1471982713476	t	84
4639	49361	Mansell has not forgotten what the ovals have meant to him, however.	Mansell has not forgotten what the ovals have meant to  him, however	2354780	1471982713586	1471982713718	 	32
4639	49361	Mansell has not forgotten what the ovals have meant to him, however.	Mansell has not forgotten what the ovals have meant to  him, however	2354782	1471982719514	1471982719644	f	70
4639	49361	Mansell has not forgotten what the ovals have meant to him, however.	Mansell has not forgotten what the ovals have meant to  him, however	2354784	1471982719767	1471982719886	o	79
4639	49361	Mansell has not forgotten what the ovals have meant to him, however.	Mansell has not forgotten what the ovals have meant to  him, however	2354789	1471982721247	1471982721328	r	69
4639	49361	Mansell has not forgotten what the ovals have meant to him, however.	Mansell has not forgotten what the ovals have meant to  him, however	2355180	1471982722240	1471982722249	PAUSE	19
4639	49361	Mansell has not forgotten what the ovals have meant to him, however.	Mansell has not forgotten what the ovals have meant to  him, however	2355188	1471982722257	1471982722288	BKSP	8
4639	49361	Mansell has not forgotten what the ovals have meant to him, however.	Mansell has not forgotten what the ovals have meant to  him, however	2355198	1471982722453	1471982722463	PAUSE	19
4639	49361	Mansell has not forgotten what the ovals have meant to him, however.	Mansell has not forgotten what the ovals have meant to  him, however	2355204	1471982723751	1471982723851	BKSP	8
4639	49361	Mansell has not forgotten what the ovals have meant to him, however.	Mansell has not forgotten what the ovals have meant to  him, however	2355210	1471982724091	1471982724182	r	82
4639	49361	Mansell has not forgotten what the ovals have meant to him, however.	Mansell has not forgotten what the ovals have meant to  him, however	2355216	1471982724948	1471982725078	g	71
4639	49361	Mansell has not forgotten what the ovals have meant to him, however.	Mansell has not forgotten what the ovals have meant to  him, however	2355222	1471982725877	1471982726017	o	79
4639	49361	Mansell has not forgotten what the ovals have meant to him, however.	Mansell has not forgotten what the ovals have meant to  him, however	2355224	1471982726167	1471982726239	t	84
4639	49361	Mansell has not forgotten what the ovals have meant to him, however.	Mansell has not forgotten what the ovals have meant to  him, however	2355230	1471982726309	1471982726422	t	84
4639	49361	Mansell has not forgotten what the ovals have meant to him, however.	Mansell has not forgotten what the ovals have meant to  him, however	2355316	1471982726562	1471982726755	e	69
4639	49361	Mansell has not forgotten what the ovals have meant to him, however.	Mansell has not forgotten what the ovals have meant to  him, however	2355323	1471982726757	1471982726865	n	78
4639	49361	Mansell has not forgotten what the ovals have meant to him, however.	Mansell has not forgotten what the ovals have meant to  him, however	2355329	1471982726984	1471982727125	 	32
4639	49361	Mansell has not forgotten what the ovals have meant to him, however.	Mansell has not forgotten what the ovals have meant to  him, however	2355332	1471982727569	1471982727689	w	87
4639	49361	Mansell has not forgotten what the ovals have meant to him, however.	Mansell has not forgotten what the ovals have meant to  him, however	2355340	1471982727831	1471982727982	h	72
4639	49361	Mansell has not forgotten what the ovals have meant to him, however.	Mansell has not forgotten what the ovals have meant to  him, however	2355433	1471982727962	1471982728142	a	65
4639	49361	Mansell has not forgotten what the ovals have meant to him, however.	Mansell has not forgotten what the ovals have meant to  him, however	2355436	1471982728194	1471982728277	t	84
4639	49361	Mansell has not forgotten what the ovals have meant to him, however.	Mansell has not forgotten what the ovals have meant to  him, however	2355442	1471982728499	1471982728609	 	32
4639	49361	Mansell has not forgotten what the ovals have meant to him, however.	Mansell has not forgotten what the ovals have meant to  him, however	2355447	1471982729012	1471982729152	t	84
4639	49361	Mansell has not forgotten what the ovals have meant to him, however.	Mansell has not forgotten what the ovals have meant to  him, however	2355452	1471982729155	1471982729264	h	72
4639	49361	Mansell has not forgotten what the ovals have meant to him, however.	Mansell has not forgotten what the ovals have meant to  him, however	2355458	1471982729294	1471982729486	e	69
4639	49361	Mansell has not forgotten what the ovals have meant to him, however.	Mansell has not forgotten what the ovals have meant to  him, however	2355634	1471982729489	1471982729616	 	32
4639	49361	Mansell has not forgotten what the ovals have meant to him, however.	Mansell has not forgotten what the ovals have meant to  him, however	2355636	1471982730342	1471982730444	o	79
4639	49361	Mansell has not forgotten what the ovals have meant to him, however.	Mansell has not forgotten what the ovals have meant to  him, however	2355639	1471982730684	1471982730826	v	86
4639	49361	Mansell has not forgotten what the ovals have meant to him, however.	Mansell has not forgotten what the ovals have meant to  him, however	2355642	1471982731756	1471982731877	a	65
4639	49361	Mansell has not forgotten what the ovals have meant to him, however.	Mansell has not forgotten what the ovals have meant to  him, however	2355645	1471982731987	1471982732107	l	76
4639	49361	Mansell has not forgotten what the ovals have meant to him, however.	Mansell has not forgotten what the ovals have meant to  him, however	2355753	1471982732259	1471982732380	s	83
4639	49361	Mansell has not forgotten what the ovals have meant to him, however.	Mansell has not forgotten what the ovals have meant to  him, however	2355756	1471982732471	1471982732582	 	32
4639	49361	Mansell has not forgotten what the ovals have meant to him, however.	Mansell has not forgotten what the ovals have meant to  him, however	2355760	1471982733195	1471982733318	h	72
4639	49361	Mansell has not forgotten what the ovals have meant to him, however.	Mansell has not forgotten what the ovals have meant to  him, however	2355764	1471982733337	1471982733509	a	65
4639	49361	Mansell has not forgotten what the ovals have meant to him, however.	Mansell has not forgotten what the ovals have meant to  him, however	2355768	1471982733618	1471982733751	v	86
4639	49361	Mansell has not forgotten what the ovals have meant to him, however.	Mansell has not forgotten what the ovals have meant to  him, however	2355916	1471982733821	1471982733982	e	69
4639	49361	Mansell has not forgotten what the ovals have meant to him, however.	Mansell has not forgotten what the ovals have meant to  him, however	2355920	1471982734041	1471982734172	 	32
4639	49361	Mansell has not forgotten what the ovals have meant to him, however.	Mansell has not forgotten what the ovals have meant to  him, however	2355927	1471982734761	1471982734891	m	77
4639	49361	Mansell has not forgotten what the ovals have meant to him, however.	Mansell has not forgotten what the ovals have meant to  him, however	2355932	1471982735112	1471982735244	e	69
4639	49361	Mansell has not forgotten what the ovals have meant to him, however.	Mansell has not forgotten what the ovals have meant to  him, however	2355936	1471982735938	1471982736089	a	65
4639	49361	Mansell has not forgotten what the ovals have meant to him, however.	Mansell has not forgotten what the ovals have meant to  him, however	2356013	1471982736158	1471982736281	n	78
4639	49361	Mansell has not forgotten what the ovals have meant to him, however.	Mansell has not forgotten what the ovals have meant to  him, however	2356016	1471982736391	1471982736533	t	84
4639	49361	Mansell has not forgotten what the ovals have meant to him, however.	Mansell has not forgotten what the ovals have meant to  him, however	2356022	1471982736603	1471982736746	 	32
4639	49361	Mansell has not forgotten what the ovals have meant to him, however.	Mansell has not forgotten what the ovals have meant to  him, however	2356028	1471982737321	1471982737452	t	84
4639	49361	Mansell has not forgotten what the ovals have meant to him, however.	Mansell has not forgotten what the ovals have meant to  him, however	2356033	1471982737532	1471982737632	o	79
4639	49361	Mansell has not forgotten what the ovals have meant to him, however.	Mansell has not forgotten what the ovals have meant to  him, however	2356180	1471982737825	1471982737906	m	32
4639	49361	Mansell has not forgotten what the ovals have meant to him, however.	Mansell has not forgotten what the ovals have meant to  him, however	2356184	1471982738379	1471982738481	h	72
4639	49361	Mansell has not forgotten what the ovals have meant to him, however.	Mansell has not forgotten what the ovals have meant to  him, however	2356191	1471982739204	1471982739287	=	187
4639	49361	Mansell has not forgotten what the ovals have meant to him, however.	Mansell has not forgotten what the ovals have meant to  him, however	2356194	1471982739387	1471982739459	=	187
4639	49361	Mansell has not forgotten what the ovals have meant to him, however.	Mansell has not forgotten what the ovals have meant to  him, however	2356295	1471982739392	1471982739463	BKSP	8
4639	49361	Mansell has not forgotten what the ovals have meant to him, however.	Mansell has not forgotten what the ovals have meant to  him, however	2356299	1471982739609	1471982739690	BKSP	8
4639	49361	Mansell has not forgotten what the ovals have meant to him, however.	Mansell has not forgotten what the ovals have meant to  him, however	2356301	1471982739781	1471982739842	BKSP	8
4639	49361	Mansell has not forgotten what the ovals have meant to him, however.	Mansell has not forgotten what the ovals have meant to  him, however	2356305	1471982739932	1471982740012	BKSP	8
4639	49361	Mansell has not forgotten what the ovals have meant to him, however.	Mansell has not forgotten what the ovals have meant to  him, however	2356310	1471982740266	1471982740408	 	32
4639	49361	Mansell has not forgotten what the ovals have meant to him, however.	Mansell has not forgotten what the ovals have meant to  him, however	2356313	1471982740488	1471982740578	h	72
4639	49361	Mansell has not forgotten what the ovals have meant to him, however.	Mansell has not forgotten what the ovals have meant to  him, however	2356315	1471982740718	1471982740841	i	73
4639	49361	Mansell has not forgotten what the ovals have meant to him, however.	Mansell has not forgotten what the ovals have meant to  him, however	2356320	1471982740971	1471982741071	m	77
4639	49361	Mansell has not forgotten what the ovals have meant to him, however.	Mansell has not forgotten what the ovals have meant to  him, however	2356327	1471982741191	1471982741324	 	32
4639	49361	Mansell has not forgotten what the ovals have meant to him, however.	Mansell has not forgotten what the ovals have meant to  him, however	2356523	1471982742382	1471982742463	BKSP	8
4639	49361	Mansell has not forgotten what the ovals have meant to him, however.	Mansell has not forgotten what the ovals have meant to  him, however	2356530	1471982742623	1471982742704	,	188
4639	49361	Mansell has not forgotten what the ovals have meant to him, however.	Mansell has not forgotten what the ovals have meant to  him, however	2356537	1471982742826	1471982742926	 	32
4639	49361	Mansell has not forgotten what the ovals have meant to him, however.	Mansell has not forgotten what the ovals have meant to  him, however	2356544	1471982743795	1471982743875	h	72
4639	49361	Mansell has not forgotten what the ovals have meant to him, however.	Mansell has not forgotten what the ovals have meant to  him, however	2356549	1471982744135	1471982744236	o	79
4639	49361	Mansell has not forgotten what the ovals have meant to him, however.	Mansell has not forgotten what the ovals have meant to  him, however	2356552	1471982744620	1471982744691	w	87
4639	49361	Mansell has not forgotten what the ovals have meant to him, however.	Mansell has not forgotten what the ovals have meant to  him, however	2356754	1471982745738	1471982745880	w	87
4639	49361	Mansell has not forgotten what the ovals have meant to him, however.	Mansell has not forgotten what the ovals have meant to  him, however	2356758	1471982745970	1471982746071	n	78
4639	49361	Mansell has not forgotten what the ovals have meant to him, however.	Mansell has not forgotten what the ovals have meant to  him, however	2356763	1471982746385	1471982746548	BKSP	8
4639	49361	Mansell has not forgotten what the ovals have meant to him, however.	Mansell has not forgotten what the ovals have meant to  him, however	2356766	1471982746607	1471982746748	v	86
4639	49361	Mansell has not forgotten what the ovals have meant to him, however.	Mansell has not forgotten what the ovals have meant to  him, however	2356768	1471982747705	1471982747887	e	69
4639	49361	Mansell has not forgotten what the ovals have meant to him, however.	Mansell has not forgotten what the ovals have meant to  him, however	2356999	1471982747797	1471982747907	r	82
4639	49361	Mansell has not forgotten what the ovals have meant to him, however.	Mansell has not forgotten what the ovals have meant to  him, however	2357003	1471982748524	1471982748584	BKSP	8
4639	49361	Mansell has not forgotten what the ovals have meant to him, however.	Mansell has not forgotten what the ovals have meant to  him, however	2357012	1471982748684	1471982748764	BKSP	8
4639	49361	Mansell has not forgotten what the ovals have meant to him, however.	Mansell has not forgotten what the ovals have meant to  him, however	2357017	1471982748856	1471982748937	BKSP	8
4639	49361	Mansell has not forgotten what the ovals have meant to him, however.	Mansell has not forgotten what the ovals have meant to  him, however	2357023	1471982749036	1471982749117	BKSP	8
4639	49361	Mansell has not forgotten what the ovals have meant to him, however.	Mansell has not forgotten what the ovals have meant to  him, however	2357029	1471982750057	1471982750187	e	69
4639	49361	Mansell has not forgotten what the ovals have meant to him, however.	Mansell has not forgotten what the ovals have meant to  him, however	2357035	1471982750753	1471982750875	v	86
4639	49361	Mansell has not forgotten what the ovals have meant to him, however.	Mansell has not forgotten what the ovals have meant to  him, however	2357041	1471982751055	1471982751348	e	69
4639	49361	Mansell has not forgotten what the ovals have meant to him, however.	Mansell has not forgotten what the ovals have meant to  him, however	2357044	1471982751255	1471982751397	r	82
4639	49428	Nothing but good news everyday.	Nothing but good news everyday.	2357424	1471982756864	1471982757099	SHIFT	16
4639	49428	Nothing but good news everyday.	Nothing but good news everyday.	2357423	1471982757015	1471982757095	N	78
4639	49428	Nothing but good news everyday.	Nothing but good news everyday.	2357425	1471982757459	1471982757559	o	79
4639	49428	Nothing but good news everyday.	Nothing but good news everyday.	2357426	1471982757872	1471982758023	t	84
4639	49428	Nothing but good news everyday.	Nothing but good news everyday.	2357427	1471982758025	1471982758142	h	72
4639	49428	Nothing but good news everyday.	Nothing but good news everyday.	2357428	1471982758275	1471982758407	i	73
4639	49428	Nothing but good news everyday.	Nothing but good news everyday.	2357531	1471982758982	1471982759082	n	78
4639	49428	Nothing but good news everyday.	Nothing but good news everyday.	2357533	1471982759202	1471982759345	g	71
4639	49428	Nothing but good news everyday.	Nothing but good news everyday.	2357536	1471982759435	1471982759546	 	32
4639	49428	Nothing but good news everyday.	Nothing but good news everyday.	2357540	1471982760009	1471982760099	b	66
4639	49428	Nothing but good news everyday.	Nothing but good news everyday.	2357544	1471982760382	1471982760495	u	85
4639	49428	Nothing but good news everyday.	Nothing but good news everyday.	2357595	1471982760565	1471982760695	t	84
4639	49428	Nothing but good news everyday.	Nothing but good news everyday.	2357597	1471982760755	1471982760887	 	32
4639	49428	Nothing but good news everyday.	Nothing but good news everyday.	2357598	1471982761594	1471982761714	g	71
4639	49428	Nothing but good news everyday.	Nothing but good news everyday.	2357602	1471982761867	1471982761917	o	79
4639	49428	Nothing but good news everyday.	Nothing but good news everyday.	2357607	1471982762007	1471982762107	o	79
4639	49428	Nothing but good news everyday.	Nothing but good news everyday.	2357665	1471982762218	1471982762350	d	68
4639	49428	Nothing but good news everyday.	Nothing but good news everyday.	2357666	1471982762379	1471982762482	 	32
4639	49428	Nothing but good news everyday.	Nothing but good news everyday.	2357668	1471982763035	1471982763146	n	78
4639	49428	Nothing but good news everyday.	Nothing but good news everyday.	2357671	1471982763580	1471982763680	e	69
4639	49428	Nothing but good news everyday.	Nothing but good news everyday.	2357674	1471982763822	1471982763913	w	87
4639	49428	Nothing but good news everyday.	Nothing but good news everyday.	2357737	1471982764023	1471982764163	s	83
4639	49428	Nothing but good news everyday.	Nothing but good news everyday.	2357739	1471982764203	1471982764318	 	32
4639	49428	Nothing but good news everyday.	Nothing but good news everyday.	2357743	1471982764873	1471982764973	e	69
4639	49428	Nothing but good news everyday.	Nothing but good news everyday.	2357746	1471982765326	1471982765426	v	86
4639	49428	Nothing but good news everyday.	Nothing but good news everyday.	2357749	1471982765628	1471982765830	e	69
4639	49428	Nothing but good news everyday.	Nothing but good news everyday.	2357882	1471982765738	1471982765870	r	82
4639	49428	Nothing but good news everyday.	Nothing but good news everyday.	2357885	1471982766547	1471982766647	y	89
4639	49428	Nothing but good news everyday.	Nothing but good news everyday.	2357888	1471982767283	1471982767375	d	68
4639	49428	Nothing but good news everyday.	Nothing but good news everyday.	2357890	1471982767486	1471982767627	a	65
4639	49428	Nothing but good news everyday.	Nothing but good news everyday.	2357894	1471982767807	1471982767919	y	89
4639	49428	Nothing but good news everyday.	Nothing but good news everyday.	2357897	1471982768967	1471982769048	.	190
4639	49445	A bad thing has been turned into a good thing.	A bad thing has been turned into a good thing.	2358060	1471982771510	1471982771750	SHIFT	16
4639	49445	A bad thing has been turned into a good thing.	A bad thing has been turned into a good thing.	2358062	1471982771709	1471982771842	A	65
4639	49445	A bad thing has been turned into a good thing.	A bad thing has been turned into a good thing.	2358064	1471982772365	1471982772478	 	32
4639	49445	A bad thing has been turned into a good thing.	A bad thing has been turned into a good thing.	2358065	1471982772648	1471982772788	b	66
4639	49445	A bad thing has been turned into a good thing.	A bad thing has been turned into a good thing.	2358066	1471982773261	1471982773366	a	65
4639	49445	A bad thing has been turned into a good thing.	A bad thing has been turned into a good thing.	2358067	1471982773497	1471982773647	d	68
4639	49445	A bad thing has been turned into a good thing.	A bad thing has been turned into a good thing.	2358096	1471982773688	1471982773798	 	32
4639	49445	A bad thing has been turned into a good thing.	A bad thing has been turned into a good thing.	2358097	1471982774576	1471982774686	t	84
4639	49445	A bad thing has been turned into a good thing.	A bad thing has been turned into a good thing.	2358098	1471982774726	1471982774838	h	72
4639	49445	A bad thing has been turned into a good thing.	A bad thing has been turned into a good thing.	2358099	1471982774948	1471982775079	i	73
4639	49445	A bad thing has been turned into a good thing.	A bad thing has been turned into a good thing.	2358100	1471982775199	1471982775319	n	78
4639	49445	A bad thing has been turned into a good thing.	A bad thing has been turned into a good thing.	2358152	1471982775391	1471982775524	g	71
4639	49445	A bad thing has been turned into a good thing.	A bad thing has been turned into a good thing.	2358155	1471982776017	1471982776127	 	32
4639	49445	A bad thing has been turned into a good thing.	A bad thing has been turned into a good thing.	2358156	1471982776554	1471982776675	h	72
4639	49445	A bad thing has been turned into a good thing.	A bad thing has been turned into a good thing.	2358159	1471982776897	1471982777047	a	65
4639	49445	A bad thing has been turned into a good thing.	A bad thing has been turned into a good thing.	2358160	1471982777127	1471982777268	s	83
4639	49445	A bad thing has been turned into a good thing.	A bad thing has been turned into a good thing.	2358185	1471982777271	1471982777400	 	32
4639	49445	A bad thing has been turned into a good thing.	A bad thing has been turned into a good thing.	2358187	1471982777864	1471982777975	b	66
4639	49445	A bad thing has been turned into a good thing.	A bad thing has been turned into a good thing.	2358190	1471982778085	1471982778145	e	69
4639	49445	A bad thing has been turned into a good thing.	A bad thing has been turned into a good thing.	2358195	1471982778215	1471982778336	e	69
4639	49445	A bad thing has been turned into a good thing.	A bad thing has been turned into a good thing.	2358199	1471982778467	1471982778549	n	78
4639	49445	A bad thing has been turned into a good thing.	A bad thing has been turned into a good thing.	2358281	1471982778699	1471982778820	 	32
4639	49445	A bad thing has been turned into a good thing.	A bad thing has been turned into a good thing.	2358285	1471982779518	1471982779628	t	84
4639	49445	A bad thing has been turned into a good thing.	A bad thing has been turned into a good thing.	2358287	1471982779861	1471982780002	u	85
4639	49445	A bad thing has been turned into a good thing.	A bad thing has been turned into a good thing.	2358289	1471982781059	1471982781179	r	82
4639	49445	A bad thing has been turned into a good thing.	A bad thing has been turned into a good thing.	2358291	1471982781319	1471982781462	n	78
4639	49445	A bad thing has been turned into a good thing.	A bad thing has been turned into a good thing.	2358352	1471982781916	1471982781986	e	69
4639	49445	A bad thing has been turned into a good thing.	A bad thing has been turned into a good thing.	2358354	1471982782096	1471982782227	d	68
4639	49445	A bad thing has been turned into a good thing.	A bad thing has been turned into a good thing.	2358356	1471982782308	1471982782431	 	32
4639	49445	A bad thing has been turned into a good thing.	A bad thing has been turned into a good thing.	2358359	1471982783459	1471982783551	i	73
4639	49445	A bad thing has been turned into a good thing.	A bad thing has been turned into a good thing.	2358361	1471982783681	1471982783811	n	78
4639	49445	A bad thing has been turned into a good thing.	A bad thing has been turned into a good thing.	2358388	1471982783863	1471982784014	t	84
4639	49445	A bad thing has been turned into a good thing.	A bad thing has been turned into a good thing.	2358391	1471982784649	1471982784689	o	79
4639	49445	A bad thing has been turned into a good thing.	A bad thing has been turned into a good thing.	2358395	1471982784892	1471982785012	n	32
4639	49445	A bad thing has been turned into a good thing.	A bad thing has been turned into a good thing.	2358398	1471982785315	1471982785457	a	65
4639	49445	A bad thing has been turned into a good thing.	A bad thing has been turned into a good thing.	2358498	1471982785789	1471982785861	BKSP	8
4639	49445	A bad thing has been turned into a good thing.	A bad thing has been turned into a good thing.	2358502	1471982785931	1471982785991	BKSP	8
4639	49445	A bad thing has been turned into a good thing.	A bad thing has been turned into a good thing.	2358505	1471982786051	1471982786112	BKSP	8
4639	49445	A bad thing has been turned into a good thing.	A bad thing has been turned into a good thing.	2358508	1471982786192	1471982786342	a	65
4639	49445	A bad thing has been turned into a good thing.	A bad thing has been turned into a good thing.	2358511	1471982786414	1471982786485	 	32
4639	49445	A bad thing has been turned into a good thing.	A bad thing has been turned into a good thing.	2358513	1471982786727	1471982786787	BKSP	8
4639	49445	A bad thing has been turned into a good thing.	A bad thing has been turned into a good thing.	2358515	1471982786869	1471982786940	BKSP	8
4639	49445	A bad thing has been turned into a good thing.	A bad thing has been turned into a good thing.	2358518	1471982787110	1471982787191	 	32
4639	49445	A bad thing has been turned into a good thing.	A bad thing has been turned into a good thing.	2358521	1471982787251	1471982787384	a	65
4639	49445	A bad thing has been turned into a good thing.	A bad thing has been turned into a good thing.	2358525	1471982787948	1471982788048	 	32
4639	49445	A bad thing has been turned into a good thing.	A bad thing has been turned into a good thing.	2358561	1471982788279	1471982788383	g	71
4639	49445	A bad thing has been turned into a good thing.	A bad thing has been turned into a good thing.	2358562	1471982788535	1471982788596	o	79
4639	49445	A bad thing has been turned into a good thing.	A bad thing has been turned into a good thing.	2358564	1471982788686	1471982788736	o	79
4639	49445	A bad thing has been turned into a good thing.	A bad thing has been turned into a good thing.	2358566	1471982789159	1471982789260	d	68
4639	49445	A bad thing has been turned into a good thing.	A bad thing has been turned into a good thing.	2358568	1471982789309	1471982789402	 	32
4639	49445	A bad thing has been turned into a good thing.	A bad thing has been turned into a good thing.	2358602	1471982790076	1471982790196	t	84
4639	49445	A bad thing has been turned into a good thing.	A bad thing has been turned into a good thing.	2358604	1471982790216	1471982790317	h	72
4639	49445	A bad thing has been turned into a good thing.	A bad thing has been turned into a good thing.	2358607	1471982790510	1471982790602	o	73
4639	49445	A bad thing has been turned into a good thing.	A bad thing has been turned into a good thing.	2358611	1471982790793	1471982790905	n	78
4639	49445	A bad thing has been turned into a good thing.	A bad thing has been turned into a good thing.	2358767	1471982791410	1471982791491	BKSP	8
4639	49445	A bad thing has been turned into a good thing.	A bad thing has been turned into a good thing.	2358769	1471982791573	1471982791643	BKSP	8
4639	49445	A bad thing has been turned into a good thing.	A bad thing has been turned into a good thing.	2358771	1471982792167	1471982792247	n	78
4639	49445	A bad thing has been turned into a good thing.	A bad thing has been turned into a good thing.	2358774	1471982792601	1471982792722	f	70
4639	49445	A bad thing has been turned into a good thing.	A bad thing has been turned into a good thing.	2358775	1471982793225	1471982793366	BKSP	8
4639	49445	A bad thing has been turned into a good thing.	A bad thing has been turned into a good thing.	2358778	1471982793640	1471982793752	g	71
4639	49445	A bad thing has been turned into a good thing.	A bad thing has been turned into a good thing.	2358779	1471982794033	1471982794134	.	190
4639	49467	I am surprised such an incident could not have been prevented.	I am surprised such an incident could not have been prevented.	2358909	1471982797270	1471982798311	SHIFT	16
4639	49467	I am surprised such an incident could not have been prevented.	I am surprised such an incident could not have been prevented.	2358911	1471982798240	1471982798330	I	73
4639	49467	I am surprised such an incident could not have been prevented.	I am surprised such an incident could not have been prevented.	2358913	1471982798503	1471982798616	 	32
4639	49467	I am surprised such an incident could not have been prevented.	I am surprised such an incident could not have been prevented.	2358916	1471982798745	1471982798908	a	65
4639	49467	I am surprised such an incident could not have been prevented.	I am surprised such an incident could not have been prevented.	2358918	1471982798928	1471982799018	n	78
4639	49467	I am surprised such an incident could not have been prevented.	I am surprised such an incident could not have been prevented.	2358920	1471982799349	1471982799462	BKSP	8
4639	49467	I am surprised such an incident could not have been prevented.	I am surprised such an incident could not have been prevented.	2358922	1471982799634	1471982799684	m	77
4639	49467	I am surprised such an incident could not have been prevented.	I am surprised such an incident could not have been prevented.	2359074	1471982799967	1471982800077	 	32
4639	49467	I am surprised such an incident could not have been prevented.	I am surprised such an incident could not have been prevented.	2359075	1471982800714	1471982800844	s	83
4639	49467	I am surprised such an incident could not have been prevented.	I am surprised such an incident could not have been prevented.	2359076	1471982801088	1471982801178	u	85
4639	49467	I am surprised such an incident could not have been prevented.	I am surprised such an incident could not have been prevented.	2359077	1471982802621	1471982802731	r	82
4639	49467	I am surprised such an incident could not have been prevented.	I am surprised such an incident could not have been prevented.	2359078	1471982803691	1471982803791	p	80
4639	49467	I am surprised such an incident could not have been prevented.	I am surprised such an incident could not have been prevented.	2359123	1471982804526	1471982804629	r	82
4639	49467	I am surprised such an incident could not have been prevented.	I am surprised such an incident could not have been prevented.	2359124	1471982805686	1471982805797	i	73
4639	49467	I am surprised such an incident could not have been prevented.	I am surprised such an incident could not have been prevented.	2359125	1471982806029	1471982806140	s	83
4639	49467	I am surprised such an incident could not have been prevented.	I am surprised such an incident could not have been prevented.	2359126	1471982806280	1471982806372	e	69
4639	49467	I am surprised such an incident could not have been prevented.	I am surprised such an incident could not have been prevented.	2359127	1471982806464	1471982806607	d	68
4639	49467	I am surprised such an incident could not have been prevented.	I am surprised such an incident could not have been prevented.	2359183	1471982806545	1471982806657	 	32
4639	49467	I am surprised such an incident could not have been prevented.	I am surprised such an incident could not have been prevented.	2359185	1471982807311	1471982807453	s	83
4639	49467	I am surprised such an incident could not have been prevented.	I am surprised such an incident could not have been prevented.	2359187	1471982807596	1471982807716	u	85
4639	49467	I am surprised such an incident could not have been prevented.	I am surprised such an incident could not have been prevented.	2359190	1471982808059	1471982808219	c	67
4639	49467	I am surprised such an incident could not have been prevented.	I am surprised such an incident could not have been prevented.	2359192	1471982808279	1471982808360	h	72
4639	49467	I am surprised such an incident could not have been prevented.	I am surprised such an incident could not have been prevented.	2359194	1471982808575	1471982808695	 	32
4639	49467	I am surprised such an incident could not have been prevented.	I am surprised such an incident could not have been prevented.	2359231	1471982809087	1471982809258	a	65
4639	49467	I am surprised such an incident could not have been prevented.	I am surprised such an incident could not have been prevented.	2359233	1471982809348	1471982809431	n	78
4639	49467	I am surprised such an incident could not have been prevented.	I am surprised such an incident could not have been prevented.	2359234	1471982809580	1471982809729	 	32
4639	49467	I am surprised such an incident could not have been prevented.	I am surprised such an incident could not have been prevented.	2359236	1471982810284	1471982810373	i	73
4639	49467	I am surprised such an incident could not have been prevented.	I am surprised such an incident could not have been prevented.	2359239	1471982810543	1471982810674	n	78
4639	49467	I am surprised such an incident could not have been prevented.	I am surprised such an incident could not have been prevented.	2359296	1471982811439	1471982811569	c	67
4639	49467	I am surprised such an incident could not have been prevented.	I am surprised such an incident could not have been prevented.	2359298	1471982811776	1471982811886	i	73
4639	49467	I am surprised such an incident could not have been prevented.	I am surprised such an incident could not have been prevented.	2359300	1471982812035	1471982812164	d	68
4639	49467	I am surprised such an incident could not have been prevented.	I am surprised such an incident could not have been prevented.	2359302	1471982812804	1471982812924	e	69
4639	49467	I am surprised such an incident could not have been prevented.	I am surprised such an incident could not have been prevented.	2359303	1471982813032	1471982813151	n	78
4639	49467	I am surprised such an incident could not have been prevented.	I am surprised such an incident could not have been prevented.	2359360	1471982813250	1471982813390	t	84
4639	49467	I am surprised such an incident could not have been prevented.	I am surprised such an incident could not have been prevented.	2359362	1471982813499	1471982813580	 	32
4639	49467	I am surprised such an incident could not have been prevented.	I am surprised such an incident could not have been prevented.	2359365	1471982814414	1471982814590	c	67
4639	49467	I am surprised such an incident could not have been prevented.	I am surprised such an incident could not have been prevented.	2359369	1471982814772	1471982814863	o	79
4639	49467	I am surprised such an incident could not have been prevented.	I am surprised such an incident could not have been prevented.	2359376	1471982815051	1471982815160	u	85
4639	49467	I am surprised such an incident could not have been prevented.	I am surprised such an incident could not have been prevented.	2359439	1471982815310	1471982815423	l	75
4639	49467	I am surprised such an incident could not have been prevented.	I am surprised such an incident could not have been prevented.	2359441	1471982815562	1471982815720	d	68
4639	49467	I am surprised such an incident could not have been prevented.	I am surprised such an incident could not have been prevented.	2359442	1471982816088	1471982816158	BKSP	8
4639	49467	I am surprised such an incident could not have been prevented.	I am surprised such an incident could not have been prevented.	2359443	1471982816237	1471982816348	BKSP	8
4639	49467	I am surprised such an incident could not have been prevented.	I am surprised such an incident could not have been prevented.	2359444	1471982816537	1471982816645	BKSP	8
4639	49467	I am surprised such an incident could not have been prevented.	I am surprised such an incident could not have been prevented.	2359445	1471982817342	1471982817441	l	76
4639	49467	I am surprised such an incident could not have been prevented.	I am surprised such an incident could not have been prevented.	2359446	1471982817530	1471982817689	d	68
4639	49467	I am surprised such an incident could not have been prevented.	I am surprised such an incident could not have been prevented.	2359464	1471982817718	1471982817829	 	32
4639	49467	I am surprised such an incident could not have been prevented.	I am surprised such an incident could not have been prevented.	2359465	1471982818457	1471982818509	n	78
4639	49467	I am surprised such an incident could not have been prevented.	I am surprised such an incident could not have been prevented.	2359466	1471982818965	1471982819065	o	79
4639	49467	I am surprised such an incident could not have been prevented.	I am surprised such an incident could not have been prevented.	2359468	1471982819233	1471982819363	t	84
4639	49467	I am surprised such an incident could not have been prevented.	I am surprised such an incident could not have been prevented.	2359471	1471982819413	1471982819523	 	32
4639	49467	I am surprised such an incident could not have been prevented.	I am surprised such an incident could not have been prevented.	2359495	1471982819999	1471982820108	h	72
4639	49467	I am surprised such an incident could not have been prevented.	I am surprised such an incident could not have been prevented.	2359496	1471982820177	1471982820338	a	65
4639	49467	I am surprised such an incident could not have been prevented.	I am surprised such an incident could not have been prevented.	2359498	1471982820357	1471982820468	v	86
4639	49467	I am surprised such an incident could not have been prevented.	I am surprised such an incident could not have been prevented.	2359500	1471982820557	1471982820715	e	69
4639	49467	I am surprised such an incident could not have been prevented.	I am surprised such an incident could not have been prevented.	2359502	1471982820764	1471982820856	 	32
4639	49467	I am surprised such an incident could not have been prevented.	I am surprised such an incident could not have been prevented.	2359540	1471982821423	1471982821533	b	66
4639	49467	I am surprised such an incident could not have been prevented.	I am surprised such an incident could not have been prevented.	2359543	1471982821661	1471982821741	e	69
4639	49467	I am surprised such an incident could not have been prevented.	I am surprised such an incident could not have been prevented.	2359546	1471982821822	1471982821921	e	69
4639	49467	I am surprised such an incident could not have been prevented.	I am surprised such an incident could not have been prevented.	2359548	1471982822079	1471982822168	n	78
4639	49467	I am surprised such an incident could not have been prevented.	I am surprised such an incident could not have been prevented.	2359550	1471982822318	1471982822449	 	32
4639	49467	I am surprised such an incident could not have been prevented.	I am surprised such an incident could not have been prevented.	2359597	1471982823005	1471982823133	p	80
4639	49467	I am surprised such an incident could not have been prevented.	I am surprised such an incident could not have been prevented.	2359600	1471982824049	1471982824168	r	82
4639	49467	I am surprised such an incident could not have been prevented.	I am surprised such an incident could not have been prevented.	2359602	1471982824280	1471982824389	e	69
4639	49467	I am surprised such an incident could not have been prevented.	I am surprised such an incident could not have been prevented.	2359604	1471982824618	1471982824779	v	86
4639	49467	I am surprised such an incident could not have been prevented.	I am surprised such an incident could not have been prevented.	2359607	1471982825622	1471982825753	e	69
4639	49467	I am surprised such an incident could not have been prevented.	I am surprised such an incident could not have been prevented.	2359651	1471982826089	1471982826228	n	78
4639	49467	I am surprised such an incident could not have been prevented.	I am surprised such an incident could not have been prevented.	2359652	1471982826308	1471982826439	t	84
4639	49467	I am surprised such an incident could not have been prevented.	I am surprised such an incident could not have been prevented.	2359653	1471982827034	1471982827114	e	69
4639	49467	I am surprised such an incident could not have been prevented.	I am surprised such an incident could not have been prevented.	2359654	1471982827214	1471982827345	d	68
4639	49467	I am surprised such an incident could not have been prevented.	I am surprised such an incident could not have been prevented.	2359655	1471982827702	1471982827783	.	190
4639	49485	I decided that I am going to stay here!	I decided that I am going to stay here!	2359748	1471982830251	1471982830524	SHIFT	16
4639	49485	I decided that I am going to stay here!	I decided that I am going to stay here!	2359747	1471982830421	1471982830520	I	73
4639	49485	I decided that I am going to stay here!	I decided that I am going to stay here!	2359750	1471982830710	1471982830838	 	32
4639	49485	I decided that I am going to stay here!	I decided that I am going to stay here!	2359752	1471982831165	1471982831256	d	68
4639	49485	I decided that I am going to stay here!	I decided that I am going to stay here!	2359754	1471982831405	1471982831534	e	69
4639	49485	I decided that I am going to stay here!	I decided that I am going to stay here!	2359756	1471982832109	1471982832220	c	67
4639	49485	I decided that I am going to stay here!	I decided that I am going to stay here!	2359825	1471982833972	1471982834100	i	73
4639	49485	I decided that I am going to stay here!	I decided that I am going to stay here!	2359826	1471982835166	1471982835265	d	68
4639	49485	I decided that I am going to stay here!	I decided that I am going to stay here!	2359827	1471982835375	1471982835484	e	69
4639	49485	I decided that I am going to stay here!	I decided that I am going to stay here!	2359828	1471982835693	1471982835802	d	68
4639	49485	I decided that I am going to stay here!	I decided that I am going to stay here!	2359829	1471982835931	1471982836031	 	32
4639	49485	I decided that I am going to stay here!	I decided that I am going to stay here!	2359867	1471982837168	1471982837308	t	84
4639	49485	I decided that I am going to stay here!	I decided that I am going to stay here!	2359868	1471982837310	1471982837436	h	72
4639	49485	I decided that I am going to stay here!	I decided that I am going to stay here!	2359869	1471982837515	1471982837686	a	65
4639	49485	I decided that I am going to stay here!	I decided that I am going to stay here!	2359870	1471982837724	1471982837814	t	84
4639	49485	I decided that I am going to stay here!	I decided that I am going to stay here!	2359871	1471982838081	1471982838172	 	32
4639	49485	I decided that I am going to stay here!	I decided that I am going to stay here!	2359908	1471982838470	1471982838921	SHIFT	16
4639	49485	I decided that I am going to stay here!	I decided that I am going to stay here!	2359907	1471982838818	1471982838917	I	73
4639	49485	I decided that I am going to stay here!	I decided that I am going to stay here!	2359909	1471982839067	1471982839218	 	32
4639	49485	I decided that I am going to stay here!	I decided that I am going to stay here!	2359910	1471982840042	1471982840183	a	65
4639	49485	I decided that I am going to stay here!	I decided that I am going to stay here!	2359911	1471982840244	1471982840313	m	77
4639	49485	I decided that I am going to stay here!	I decided that I am going to stay here!	2359912	1471982840462	1471982840592	 	32
4639	49485	I decided that I am going to stay here!	I decided that I am going to stay here!	2359932	1471982841327	1471982841426	g	71
4639	49485	I decided that I am going to stay here!	I decided that I am going to stay here!	2359933	1471982841587	1471982841685	o	79
4639	49485	I decided that I am going to stay here!	I decided that I am going to stay here!	2359934	1471982841843	1471982841933	i	73
4639	49485	I decided that I am going to stay here!	I decided that I am going to stay here!	2359935	1471982842085	1471982842216	n	78
4639	49485	I decided that I am going to stay here!	I decided that I am going to stay here!	2359936	1471982842275	1471982842404	g	71
4639	49485	I decided that I am going to stay here!	I decided that I am going to stay here!	2359964	1471982842423	1471982842542	 	32
4639	49485	I decided that I am going to stay here!	I decided that I am going to stay here!	2359967	1471982843239	1471982843407	t	84
4639	49485	I decided that I am going to stay here!	I decided that I am going to stay here!	2359971	1471982843597	1471982843667	o	79
4639	49485	I decided that I am going to stay here!	I decided that I am going to stay here!	2359974	1471982843834	1471982843973	 	32
4639	49485	I decided that I am going to stay here!	I decided that I am going to stay here!	2359976	1471982844323	1471982844462	s	83
4639	49485	I decided that I am going to stay here!	I decided that I am going to stay here!	2360008	1471982844642	1471982844751	t	84
4639	49485	I decided that I am going to stay here!	I decided that I am going to stay here!	2360009	1471982844819	1471982845000	a	65
4639	49485	I decided that I am going to stay here!	I decided that I am going to stay here!	2360011	1471982844968	1471982845051	y	89
4639	49485	I decided that I am going to stay here!	I decided that I am going to stay here!	2360013	1471982845468	1471982845539	 	32
4639	49485	I decided that I am going to stay here!	I decided that I am going to stay here!	2360015	1471982846075	1471982846196	h	72
4639	49485	I decided that I am going to stay here!	I decided that I am going to stay here!	2360087	1471982846492	1471982846603	r	82
4639	49485	I decided that I am going to stay here!	I decided that I am going to stay here!	2360088	1471982846850	1471982847011	e	69
4639	49485	I decided that I am going to stay here!	I decided that I am going to stay here!	2360089	1471982847825	1471982847914	BKSP	8
4639	49485	I decided that I am going to stay here!	I decided that I am going to stay here!	2360091	1471982847997	1471982848106	BKSP	8
4639	49485	I decided that I am going to stay here!	I decided that I am going to stay here!	2360093	1471982848187	1471982848345	e	69
4639	49485	I decided that I am going to stay here!	I decided that I am going to stay here!	2360095	1471982848348	1471982848444	r	82
4639	49485	I decided that I am going to stay here!	I decided that I am going to stay here!	2360097	1471982850127	1471982850265	e	69
4639	49485	I decided that I am going to stay here!	I decided that I am going to stay here!	2360242	1471982854428	1471982855032	SHIFT	16
4639	49485	I decided that I am going to stay here!	I decided that I am going to stay here!	2360240	1471982854912	1471982855013	!	49
4639	49502	We can discuss options early next week.	We can discuss options early next week.	2360532	1471982859530	1471982860040	SHIFT	16
4639	49502	We can discuss options early next week.	We can discuss options early next week.	2360539	1471982859969	1471982860070	W	87
4639	49502	We can discuss options early next week.	We can discuss options early next week.	2360543	1471982860179	1471982860298	e	69
4639	49502	We can discuss options early next week.	We can discuss options early next week.	2360547	1471982860448	1471982860537	 	32
4639	49502	We can discuss options early next week.	We can discuss options early next week.	2360551	1471982860994	1471982861104	c	67
4639	49502	We can discuss options early next week.	We can discuss options early next week.	2360553	1471982861222	1471982861373	a	65
4639	49502	We can discuss options early next week.	We can discuss options early next week.	2360622	1471982861442	1471982861531	n	78
4639	49502	We can discuss options early next week.	We can discuss options early next week.	2360624	1471982861679	1471982861828	 	32
4639	49502	We can discuss options early next week.	We can discuss options early next week.	2360627	1471982862348	1471982862487	d	68
4639	49502	We can discuss options early next week.	We can discuss options early next week.	2360630	1471982862684	1471982862805	i	73
4639	49502	We can discuss options early next week.	We can discuss options early next week.	2360633	1471982863144	1471982863283	c	67
4639	49502	We can discuss options early next week.	We can discuss options early next week.	2360764	1471982864686	1471982864816	BKSP	8
4639	49502	We can discuss options early next week.	We can discuss options early next week.	2360766	1471982864875	1471982865005	s	83
4639	49502	We can discuss options early next week.	We can discuss options early next week.	2360768	1471982865363	1471982865482	c	67
4639	49502	We can discuss options early next week.	We can discuss options early next week.	2360771	1471982866350	1471982866479	u	85
4639	49502	We can discuss options early next week.	We can discuss options early next week.	2360774	1471982866588	1471982866648	s	83
4639	49502	We can discuss options early next week.	We can discuss options early next week.	2360776	1471982866737	1471982866838	s	83
4639	49502	We can discuss options early next week.	We can discuss options early next week.	2360893	1471982866958	1471982867058	 	32
4639	49502	We can discuss options early next week.	We can discuss options early next week.	2360899	1471982867953	1471982868022	o	79
4639	49502	We can discuss options early next week.	We can discuss options early next week.	2360902	1471982868151	1471982868260	p	80
4639	49502	We can discuss options early next week.	We can discuss options early next week.	2360907	1471982868919	1471982869048	t	84
4639	49502	We can discuss options early next week.	We can discuss options early next week.	2360913	1471982869456	1471982869515	i	73
4639	49502	We can discuss options early next week.	We can discuss options early next week.	2361084	1471982869624	1471982869723	o	79
4639	49502	We can discuss options early next week.	We can discuss options early next week.	2361087	1471982869883	1471982870033	d	68
4639	49502	We can discuss options early next week.	We can discuss options early next week.	2361091	1471982870342	1471982870471	BKSP	8
4639	49502	We can discuss options early next week.	We can discuss options early next week.	2361094	1471982870520	1471982870669	s	83
4639	49502	We can discuss options early next week.	We can discuss options early next week.	2361097	1471982870717	1471982870810	 	32
4639	49502	We can discuss options early next week.	We can discuss options early next week.	2361100	1471982871357	1471982871446	BKSP	8
4639	49502	We can discuss options early next week.	We can discuss options early next week.	2361102	1471982871535	1471982871615	BKSP	8
4639	49502	We can discuss options early next week.	We can discuss options early next week.	2361106	1471982871726	1471982871787	BKSP	8
4639	49502	We can discuss options early next week.	We can discuss options early next week.	2361111	1471982873349	1471982873429	o	79
4639	49502	We can discuss options early next week.	We can discuss options early next week.	2361226	1471982873607	1471982873718	n	78
4639	49502	We can discuss options early next week.	We can discuss options early next week.	2361230	1471982873897	1471982874026	s	83
4639	49502	We can discuss options early next week.	We can discuss options early next week.	2361234	1471982874115	1471982874194	 	32
4639	49502	We can discuss options early next week.	We can discuss options early next week.	2361236	1471982875529	1471982875648	e	69
4639	49502	We can discuss options early next week.	We can discuss options early next week.	2361240	1471982875928	1471982876086	a	65
4639	49502	We can discuss options early next week.	We can discuss options early next week.	2361312	1471982876217	1471982876326	r	82
4639	49502	We can discuss options early next week.	We can discuss options early next week.	2361316	1471982876863	1471982876991	l	76
4639	49502	We can discuss options early next week.	We can discuss options early next week.	2361318	1471982877139	1471982877260	y	89
4639	49502	We can discuss options early next week.	We can discuss options early next week.	2361322	1471982877388	1471982877497	 	32
4639	49502	We can discuss options early next week.	We can discuss options early next week.	2361326	1471982878126	1471982878257	n	78
4639	49502	We can discuss options early next week.	We can discuss options early next week.	2361452	1471982878405	1471982878494	e	69
4639	49502	We can discuss options early next week.	We can discuss options early next week.	2361455	1471982878763	1471982878873	x	88
4639	49502	We can discuss options early next week.	We can discuss options early next week.	2361459	1471982879051	1471982879201	t	84
4639	49502	We can discuss options early next week.	We can discuss options early next week.	2361460	1471982879260	1471982879360	 	32
4639	49502	We can discuss options early next week.	We can discuss options early next week.	2361461	1471982879917	1471982880036	w	87
4639	49502	We can discuss options early next week.	We can discuss options early next week.	2361518	1471982880177	1471982880246	e	69
4639	49502	We can discuss options early next week.	We can discuss options early next week.	2361519	1471982880305	1471982880434	e	69
4639	49502	We can discuss options early next week.	We can discuss options early next week.	2361520	1471982880725	1471982880816	k	75
4639	49502	We can discuss options early next week.	We can discuss options early next week.	2361522	1471982881461	1471982881520	.	190
4639	49533	John, please send this to Shelly.	John, please send this to shelly.	2362017	1471982885901	1471982886160	SHIFT	16
4639	49533	John, please send this to Shelly.	John, please send this to shelly.	2362027	1471982887136	1471982887542	SHIFT	16
4639	49533	John, please send this to Shelly.	John, please send this to shelly.	2362021	1471982887413	1471982887492	J	74
4639	49533	John, please send this to Shelly.	John, please send this to shelly.	2362029	1471982888629	1471982888739	o	79
4639	49533	John, please send this to Shelly.	John, please send this to shelly.	2362031	1471982888966	1471982889087	h	72
4639	49533	John, please send this to Shelly.	John, please send this to shelly.	2362033	1471982889215	1471982889324	n	78
4639	49533	John, please send this to Shelly.	John, please send this to shelly.	2362034	1471982890351	1471982890440	,	188
4639	49533	John, please send this to Shelly.	John, please send this to shelly.	2362181	1471982890489	1471982890630	 	32
4639	49533	John, please send this to Shelly.	John, please send this to shelly.	2362182	1471982891404	1471982891494	p	80
4639	49533	John, please send this to Shelly.	John, please send this to shelly.	2362184	1471982891624	1471982891764	l	76
4639	49533	John, please send this to Shelly.	John, please send this to shelly.	2362187	1471982892640	1471982892740	e	69
4639	49533	John, please send this to Shelly.	John, please send this to shelly.	2362191	1471982892908	1471982893019	a	65
4639	49533	John, please send this to Shelly.	John, please send this to shelly.	2362310	1471982893815	1471982893913	s	83
4639	49533	John, please send this to Shelly.	John, please send this to shelly.	2362312	1471982894014	1471982894133	e	69
4639	49533	John, please send this to Shelly.	John, please send this to shelly.	2362316	1471982894241	1471982894370	 	32
4639	49533	John, please send this to Shelly.	John, please send this to shelly.	2362320	1471982894808	1471982894927	s	83
4639	49533	John, please send this to Shelly.	John, please send this to shelly.	2362325	1471982895077	1471982895206	e	69
4639	49533	John, please send this to Shelly.	John, please send this to shelly.	2362426	1471982895285	1471982895424	n	78
4639	49533	John, please send this to Shelly.	John, please send this to shelly.	2362428	1471982895576	1471982895727	d	68
4639	49533	John, please send this to Shelly.	John, please send this to shelly.	2362431	1471982895776	1471982895895	 	32
4639	49533	John, please send this to Shelly.	John, please send this to shelly.	2362433	1471982896263	1471982896382	t	84
4639	49533	John, please send this to Shelly.	John, please send this to shelly.	2362439	1471982896401	1471982896502	h	72
4639	49533	John, please send this to Shelly.	John, please send this to shelly.	2362505	1471982896632	1471982896761	i	73
4639	49533	John, please send this to Shelly.	John, please send this to shelly.	2362509	1471982896840	1471982897010	s	83
4639	49533	John, please send this to Shelly.	John, please send this to shelly.	2362512	1471982897013	1471982897149	 	32
4639	49533	John, please send this to Shelly.	John, please send this to shelly.	2362516	1471982897795	1471982897924	t	84
4639	49533	John, please send this to Shelly.	John, please send this to shelly.	2362520	1471982898015	1471982898094	o	79
4639	49533	John, please send this to Shelly.	John, please send this to shelly.	2362633	1471982898262	1471982898423	 	32
4639	49533	John, please send this to Shelly.	John, please send this to shelly.	2362639	1471982898930	1471982899061	s	83
4639	49533	John, please send this to Shelly.	John, please send this to shelly.	2362644	1471982899219	1471982899348	h	72
4639	49533	John, please send this to Shelly.	John, please send this to shelly.	2362650	1471982900185	1471982900304	e	69
4639	49533	John, please send this to Shelly.	John, please send this to shelly.	2362656	1471982900574	1471982900624	l	76
4639	49533	John, please send this to Shelly.	John, please send this to shelly.	2362768	1471982900732	1471982900821	l	76
4639	49533	John, please send this to Shelly.	John, please send this to shelly.	2362772	1471982901090	1471982901170	y	89
4639	49533	John, please send this to Shelly.	John, please send this to shelly.	2362776	1471982901819	1471982901910	.	190
4639	49562	They are still burning.	They are still burning.	2362981	1471982905252	1471982905527	SHIFT	16
4639	49562	They are still burning.	They are still burning.	2362977	1471982905402	1471982905523	T	84
4639	49562	They are still burning.	They are still burning.	2362987	1471982905632	1471982905721	h	72
4639	49562	They are still burning.	They are still burning.	2362993	1471982905831	1471982905982	e	69
4639	49562	They are still burning.	They are still burning.	2363000	1471982906040	1471982906130	y	89
4639	49562	They are still burning.	They are still burning.	2363005	1471982906328	1471982906448	 	32
4639	49562	They are still burning.	They are still burning.	2363079	1471982906956	1471982907085	a	65
4639	49562	They are still burning.	They are still burning.	2363081	1471982907223	1471982907334	r	82
4639	49562	They are still burning.	They are still burning.	2363083	1471982907455	1471982907585	e	69
4639	49562	They are still burning.	They are still burning.	2363087	1471982907588	1471982907695	 	32
4639	49562	They are still burning.	They are still burning.	2363092	1471982908280	1471982908391	s	83
4639	49562	They are still burning.	They are still burning.	2363177	1471982908640	1471982908729	t	84
4639	49562	They are still burning.	They are still burning.	2363180	1471982908938	1471982909018	i	73
4639	49562	They are still burning.	They are still burning.	2363182	1471982909186	1471982909245	l	76
4639	49562	They are still burning.	They are still burning.	2363184	1471982909336	1471982909406	l	76
4639	49562	They are still burning.	They are still burning.	2363186	1471982909603	1471982909705	 	32
4639	49562	They are still burning.	They are still burning.	2363402	1471982910612	1471982910701	b	66
4639	49562	They are still burning.	They are still burning.	2363403	1471982911119	1471982911238	u	85
4639	49562	They are still burning.	They are still burning.	2363404	1471982911459	1471982911605	r	82
4639	49562	They are still burning.	They are still burning.	2363407	1471982912861	1471982912950	i	73
4639	49562	They are still burning.	They are still burning.	2363409	1471982913129	1471982913218	n	78
4639	49562	They are still burning.	They are still burning.	2363639	1471982915618	1471982915668	BKSP	8
4639	49562	They are still burning.	They are still burning.	2363642	1471982915747	1471982915819	BKSP	8
4639	49562	They are still burning.	They are still burning.	2363646	1471982916327	1471982916386	n	78
4639	49562	They are still burning.	They are still burning.	2363649	1471982916566	1471982916654	i	73
4639	49562	They are still burning.	They are still burning.	2363653	1471982916805	1471982916904	n	78
4639	49562	They are still burning.	They are still burning.	2363657	1471982916993	1471982917112	g	71
4639	49562	They are still burning.	They are still burning.	2363662	1471982917880	1471982917929	.	190
4639	49581	Jeff had been serving as chairman and CEO of Enron Industrial Markets.	Jeff had been serving as chairmen and CEO of Enron Industrial Markets.	2364003	1471982921015	1471982922099	SHIFT	16
4639	49581	Jeff had been serving as chairman and CEO of Enron Industrial Markets.	Jeff had been serving as chairmen and CEO of Enron Industrial Markets.	2364006	1471982922040	1471982922139	J	74
4639	49581	Jeff had been serving as chairman and CEO of Enron Industrial Markets.	Jeff had been serving as chairmen and CEO of Enron Industrial Markets.	2364012	1471982922480	1471982922569	e	69
4639	49581	Jeff had been serving as chairman and CEO of Enron Industrial Markets.	Jeff had been serving as chairmen and CEO of Enron Industrial Markets.	2364016	1471982923116	1471982923197	f	70
4639	49581	Jeff had been serving as chairman and CEO of Enron Industrial Markets.	Jeff had been serving as chairmen and CEO of Enron Industrial Markets.	2364018	1471982923256	1471982923358	f	70
4639	49581	Jeff had been serving as chairman and CEO of Enron Industrial Markets.	Jeff had been serving as chairmen and CEO of Enron Industrial Markets.	2364021	1471982923556	1471982923645	 	32
4639	49581	Jeff had been serving as chairman and CEO of Enron Industrial Markets.	Jeff had been serving as chairmen and CEO of Enron Industrial Markets.	2364129	1471982924171	1471982924263	h	72
4639	49581	Jeff had been serving as chairman and CEO of Enron Industrial Markets.	Jeff had been serving as chairmen and CEO of Enron Industrial Markets.	2364132	1471982924373	1471982924502	a	65
4639	49581	Jeff had been serving as chairman and CEO of Enron Industrial Markets.	Jeff had been serving as chairmen and CEO of Enron Industrial Markets.	2364136	1471982924621	1471982924752	d	68
4639	49581	Jeff had been serving as chairman and CEO of Enron Industrial Markets.	Jeff had been serving as chairmen and CEO of Enron Industrial Markets.	2364139	1471982924732	1471982924851	 	32
4639	49581	Jeff had been serving as chairman and CEO of Enron Industrial Markets.	Jeff had been serving as chairmen and CEO of Enron Industrial Markets.	2364142	1471982925589	1471982925700	b	66
4639	49581	Jeff had been serving as chairman and CEO of Enron Industrial Markets.	Jeff had been serving as chairmen and CEO of Enron Industrial Markets.	2364222	1471982925888	1471982925957	e	69
4639	49581	Jeff had been serving as chairman and CEO of Enron Industrial Markets.	Jeff had been serving as chairmen and CEO of Enron Industrial Markets.	2364226	1471982926026	1471982926115	e	69
4639	49581	Jeff had been serving as chairman and CEO of Enron Industrial Markets.	Jeff had been serving as chairmen and CEO of Enron Industrial Markets.	2364230	1471982926249	1471982926326	n	78
4639	49581	Jeff had been serving as chairman and CEO of Enron Industrial Markets.	Jeff had been serving as chairmen and CEO of Enron Industrial Markets.	2364236	1471982926454	1471982926583	 	32
4639	49581	Jeff had been serving as chairman and CEO of Enron Industrial Markets.	Jeff had been serving as chairmen and CEO of Enron Industrial Markets.	2364240	1471982927201	1471982927312	s	83
4639	49581	Jeff had been serving as chairman and CEO of Enron Industrial Markets.	Jeff had been serving as chairmen and CEO of Enron Industrial Markets.	2364355	1471982927470	1471982927569	e	69
4639	49581	Jeff had been serving as chairman and CEO of Enron Industrial Markets.	Jeff had been serving as chairmen and CEO of Enron Industrial Markets.	2364358	1471982927670	1471982927758	r	82
4639	49581	Jeff had been serving as chairman and CEO of Enron Industrial Markets.	Jeff had been serving as chairmen and CEO of Enron Industrial Markets.	2364362	1471982928026	1471982928139	v	86
4639	49581	Jeff had been serving as chairman and CEO of Enron Industrial Markets.	Jeff had been serving as chairmen and CEO of Enron Industrial Markets.	2364364	1471982928755	1471982928844	i	73
4639	49581	Jeff had been serving as chairman and CEO of Enron Industrial Markets.	Jeff had been serving as chairmen and CEO of Enron Industrial Markets.	2364365	1471982929102	1471982929232	n	78
4639	49581	Jeff had been serving as chairman and CEO of Enron Industrial Markets.	Jeff had been serving as chairmen and CEO of Enron Industrial Markets.	2364464	1471982929323	1471982929451	g	71
4639	49581	Jeff had been serving as chairman and CEO of Enron Industrial Markets.	Jeff had been serving as chairmen and CEO of Enron Industrial Markets.	2364468	1471982929510	1471982929641	 	32
4639	49581	Jeff had been serving as chairman and CEO of Enron Industrial Markets.	Jeff had been serving as chairmen and CEO of Enron Industrial Markets.	2364473	1471982930037	1471982930148	a	65
4639	49581	Jeff had been serving as chairman and CEO of Enron Industrial Markets.	Jeff had been serving as chairmen and CEO of Enron Industrial Markets.	2364477	1471982930257	1471982930386	s	83
4639	49581	Jeff had been serving as chairman and CEO of Enron Industrial Markets.	Jeff had been serving as chairmen and CEO of Enron Industrial Markets.	2364480	1471982930466	1471982930574	 	32
4639	49581	Jeff had been serving as chairman and CEO of Enron Industrial Markets.	Jeff had been serving as chairmen and CEO of Enron Industrial Markets.	2364626	1471982931073	1471982931214	c	67
4639	49581	Jeff had been serving as chairman and CEO of Enron Industrial Markets.	Jeff had been serving as chairmen and CEO of Enron Industrial Markets.	2364630	1471982931344	1471982931493	h	72
4639	49581	Jeff had been serving as chairman and CEO of Enron Industrial Markets.	Jeff had been serving as chairmen and CEO of Enron Industrial Markets.	2364633	1471982932140	1471982932279	a	65
4639	49581	Jeff had been serving as chairman and CEO of Enron Industrial Markets.	Jeff had been serving as chairmen and CEO of Enron Industrial Markets.	2364640	1471982932628	1471982932757	i	73
4639	49581	Jeff had been serving as chairman and CEO of Enron Industrial Markets.	Jeff had been serving as chairmen and CEO of Enron Industrial Markets.	2364646	1471982932835	1471982933004	r	82
4639	49581	Jeff had been serving as chairman and CEO of Enron Industrial Markets.	Jeff had been serving as chairmen and CEO of Enron Industrial Markets.	2364769	1471982933733	1471982933851	m	77
4639	49581	Jeff had been serving as chairman and CEO of Enron Industrial Markets.	Jeff had been serving as chairmen and CEO of Enron Industrial Markets.	2364770	1471982934132	1471982934282	e	69
4639	49581	Jeff had been serving as chairman and CEO of Enron Industrial Markets.	Jeff had been serving as chairmen and CEO of Enron Industrial Markets.	2364772	1471982934311	1471982934401	n	78
4639	49581	Jeff had been serving as chairman and CEO of Enron Industrial Markets.	Jeff had been serving as chairmen and CEO of Enron Industrial Markets.	2364774	1471982934529	1471982934670	 	32
4639	49581	Jeff had been serving as chairman and CEO of Enron Industrial Markets.	Jeff had been serving as chairmen and CEO of Enron Industrial Markets.	2364778	1471982934986	1471982935137	a	65
4639	49581	Jeff had been serving as chairman and CEO of Enron Industrial Markets.	Jeff had been serving as chairmen and CEO of Enron Industrial Markets.	2364971	1471982935445	1471982935566	n	78
4639	49581	Jeff had been serving as chairman and CEO of Enron Industrial Markets.	Jeff had been serving as chairmen and CEO of Enron Industrial Markets.	2364975	1471982935675	1471982935853	d	68
4639	49581	Jeff had been serving as chairman and CEO of Enron Industrial Markets.	Jeff had been serving as chairmen and CEO of Enron Industrial Markets.	2364981	1471982935872	1471982935992	 	32
4639	49581	Jeff had been serving as chairman and CEO of Enron Industrial Markets.	Jeff had been serving as chairmen and CEO of Enron Industrial Markets.	2364987	1471982936986	1471982937179	SHIFT	16
4639	49581	Jeff had been serving as chairman and CEO of Enron Industrial Markets.	Jeff had been serving as chairmen and CEO of Enron Industrial Markets.	2365089	1471982937600	1471982939014	SHIFT	16
4639	49581	Jeff had been serving as chairman and CEO of Enron Industrial Markets.	Jeff had been serving as chairmen and CEO of Enron Industrial Markets.	2364992	1471982937925	1471982938056	C	67
4639	49581	Jeff had been serving as chairman and CEO of Enron Industrial Markets.	Jeff had been serving as chairmen and CEO of Enron Industrial Markets.	2364997	1471982938235	1471982938374	E	69
4639	49581	Jeff had been serving as chairman and CEO of Enron Industrial Markets.	Jeff had been serving as chairmen and CEO of Enron Industrial Markets.	2365087	1471982938871	1471982938950	O	79
4639	49581	Jeff had been serving as chairman and CEO of Enron Industrial Markets.	Jeff had been serving as chairmen and CEO of Enron Industrial Markets.	2365094	1471982939160	1471982939261	 	32
4639	49581	Jeff had been serving as chairman and CEO of Enron Industrial Markets.	Jeff had been serving as chairmen and CEO of Enron Industrial Markets.	2365098	1471982940088	1471982940168	o	79
4639	49581	Jeff had been serving as chairman and CEO of Enron Industrial Markets.	Jeff had been serving as chairmen and CEO of Enron Industrial Markets.	2365103	1471982940346	1471982940465	f	70
4639	49581	Jeff had been serving as chairman and CEO of Enron Industrial Markets.	Jeff had been serving as chairmen and CEO of Enron Industrial Markets.	2365107	1471982940526	1471982940616	 	32
4639	49581	Jeff had been serving as chairman and CEO of Enron Industrial Markets.	Jeff had been serving as chairmen and CEO of Enron Industrial Markets.	2365318	1471982941313	1471982942154	SHIFT	16
4639	49581	Jeff had been serving as chairman and CEO of Enron Industrial Markets.	Jeff had been serving as chairmen and CEO of Enron Industrial Markets.	2365314	1471982942029	1471982942151	E	69
4639	49581	Jeff had been serving as chairman and CEO of Enron Industrial Markets.	Jeff had been serving as chairmen and CEO of Enron Industrial Markets.	2365324	1471982943086	1471982943178	n	78
4639	49581	Jeff had been serving as chairman and CEO of Enron Industrial Markets.	Jeff had been serving as chairmen and CEO of Enron Industrial Markets.	2365330	1471982943486	1471982943595	r	82
4639	49581	Jeff had been serving as chairman and CEO of Enron Industrial Markets.	Jeff had been serving as chairmen and CEO of Enron Industrial Markets.	2365339	1471982943813	1471982943902	o	79
4639	49581	Jeff had been serving as chairman and CEO of Enron Industrial Markets.	Jeff had been serving as chairmen and CEO of Enron Industrial Markets.	2365345	1471982944102	1471982944192	n	78
4639	49581	Jeff had been serving as chairman and CEO of Enron Industrial Markets.	Jeff had been serving as chairmen and CEO of Enron Industrial Markets.	2365666	1471982944409	1471982944511	 	32
4639	49581	Jeff had been serving as chairman and CEO of Enron Industrial Markets.	Jeff had been serving as chairmen and CEO of Enron Industrial Markets.	2365672	1471982945490	1471982946819	SHIFT	16
4639	49581	Jeff had been serving as chairman and CEO of Enron Industrial Markets.	Jeff had been serving as chairmen and CEO of Enron Industrial Markets.	2365681	1471982946750	1471982946852	I	73
4639	49581	Jeff had been serving as chairman and CEO of Enron Industrial Markets.	Jeff had been serving as chairmen and CEO of Enron Industrial Markets.	2365685	1471982947528	1471982947647	n	78
4639	49581	Jeff had been serving as chairman and CEO of Enron Industrial Markets.	Jeff had been serving as chairmen and CEO of Enron Industrial Markets.	2365692	1471982948781	1471982948911	d	68
4639	49581	Jeff had been serving as chairman and CEO of Enron Industrial Markets.	Jeff had been serving as chairmen and CEO of Enron Industrial Markets.	2365701	1471982949073	1471982949202	u	85
4639	49581	Jeff had been serving as chairman and CEO of Enron Industrial Markets.	Jeff had been serving as chairmen and CEO of Enron Industrial Markets.	2365824	1471982949261	1471982949390	s	83
4639	49581	Jeff had been serving as chairman and CEO of Enron Industrial Markets.	Jeff had been serving as chairmen and CEO of Enron Industrial Markets.	2365825	1471982949580	1471982949729	t	84
4639	49581	Jeff had been serving as chairman and CEO of Enron Industrial Markets.	Jeff had been serving as chairmen and CEO of Enron Industrial Markets.	2365829	1471982950832	1471982950953	r	82
4639	49581	Jeff had been serving as chairman and CEO of Enron Industrial Markets.	Jeff had been serving as chairmen and CEO of Enron Industrial Markets.	2365834	1471982951092	1471982951192	i	73
4639	49581	Jeff had been serving as chairman and CEO of Enron Industrial Markets.	Jeff had been serving as chairmen and CEO of Enron Industrial Markets.	2365838	1471982951359	1471982951471	a	65
4639	49581	Jeff had been serving as chairman and CEO of Enron Industrial Markets.	Jeff had been serving as chairmen and CEO of Enron Industrial Markets.	2366001	1471982951530	1471982951609	l	76
4639	49581	Jeff had been serving as chairman and CEO of Enron Industrial Markets.	Jeff had been serving as chairmen and CEO of Enron Industrial Markets.	2366003	1471982951807	1471982951910	 	32
4639	49581	Jeff had been serving as chairman and CEO of Enron Industrial Markets.	Jeff had been serving as chairmen and CEO of Enron Industrial Markets.	2366006	1471982952734	1471982952994	SHIFT	16
4639	49581	Jeff had been serving as chairman and CEO of Enron Industrial Markets.	Jeff had been serving as chairmen and CEO of Enron Industrial Markets.	2366009	1471982952925	1471982953045	M	77
4639	49581	Jeff had been serving as chairman and CEO of Enron Industrial Markets.	Jeff had been serving as chairmen and CEO of Enron Industrial Markets.	2366011	1471982953144	1471982953273	a	65
4639	49581	Jeff had been serving as chairman and CEO of Enron Industrial Markets.	Jeff had been serving as chairmen and CEO of Enron Industrial Markets.	2366012	1471982953414	1471982953513	r	82
4639	49581	Jeff had been serving as chairman and CEO of Enron Industrial Markets.	Jeff had been serving as chairmen and CEO of Enron Industrial Markets.	2366153	1471982953721	1471982953820	k	75
4639	49581	Jeff had been serving as chairman and CEO of Enron Industrial Markets.	Jeff had been serving as chairmen and CEO of Enron Industrial Markets.	2366157	1471982954119	1471982954238	e	69
4639	49581	Jeff had been serving as chairman and CEO of Enron Industrial Markets.	Jeff had been serving as chairmen and CEO of Enron Industrial Markets.	2366162	1471982954379	1471982954498	t	84
4639	49581	Jeff had been serving as chairman and CEO of Enron Industrial Markets.	Jeff had been serving as chairmen and CEO of Enron Industrial Markets.	2366166	1471982955565	1471982955674	s	83
4639	49581	Jeff had been serving as chairman and CEO of Enron Industrial Markets.	Jeff had been serving as chairmen and CEO of Enron Industrial Markets.	2366170	1471982955874	1471982955933	.	190
4639	49637	Don't bother picking him up.	Don't Brother picking him up.	2366549	1471982958604	1471982959669	SHIFT	16
4639	49637	Don't bother picking him up.	Don't Brother picking him up.	2366552	1471982959589	1471982959688	D	68
4639	49637	Don't bother picking him up.	Don't Brother picking him up.	2366553	1471982959879	1471982959979	o	79
4639	49637	Don't bother picking him up.	Don't Brother picking him up.	2366555	1471982960196	1471982960286	n	78
4639	49637	Don't bother picking him up.	Don't Brother picking him up.	2366560	1471982960945	1471982961842	SHIFT	16
4639	49637	Don't bother picking him up.	Don't Brother picking him up.	2366564	1471982961812	1471982961901	:	186
4639	49637	Don't bother picking him up.	Don't Brother picking him up.	2366570	1471982962350	1471982962488	BKSP	8
4639	49637	Don't bother picking him up.	Don't Brother picking him up.	2366575	1471982963067	1471982963136	;	186
4639	49637	Don't bother picking him up.	Don't Brother picking him up.	2366782	1471982963643	1471982963744	BKSP	8
4639	49637	Don't bother picking him up.	Don't Brother picking him up.	2366785	1471982964273	1471982964372	'	222
4639	49637	Don't bother picking him up.	Don't Brother picking him up.	2366787	1471982965368	1471982965467	t	84
4639	49637	Don't bother picking him up.	Don't Brother picking him up.	2366790	1471982965506	1471982965596	 	32
4639	49637	Don't bother picking him up.	Don't Brother picking him up.	2366796	1471982966244	1471982966772	SHIFT	16
4639	49637	Don't bother picking him up.	Don't Brother picking him up.	2366793	1471982966660	1471982966743	B	66
4639	49637	Don't bother picking him up.	Don't Brother picking him up.	2366798	1471982967090	1471982967219	r	82
4639	49637	Don't bother picking him up.	Don't Brother picking him up.	2366827	1471982967379	1471982967479	o	79
4639	49637	Don't bother picking him up.	Don't Brother picking him up.	2366829	1471982967647	1471982967768	t	84
4639	49637	Don't bother picking him up.	Don't Brother picking him up.	2366832	1471982967837	1471982967937	h	72
4639	49637	Don't bother picking him up.	Don't Brother picking him up.	2366835	1471982968075	1471982968256	e	69
4639	49637	Don't bother picking him up.	Don't Brother picking him up.	2367000	1471982968164	1471982968295	r	82
4639	49637	Don't bother picking him up.	Don't Brother picking him up.	2367001	1471982968344	1471982968424	 	32
4639	49637	Don't bother picking him up.	Don't Brother picking him up.	2367002	1471982969791	1471982969861	p	80
4639	49637	Don't bother picking him up.	Don't Brother picking him up.	2367004	1471982970805	1471982970916	i	73
4639	49637	Don't bother picking him up.	Don't Brother picking him up.	2367007	1471982971044	1471982971184	c	67
4639	49637	Don't bother picking him up.	Don't Brother picking him up.	2367014	1471982971423	1471982971532	k	75
4639	49637	Don't bother picking him up.	Don't Brother picking him up.	2367166	1471982972929	1471982973018	i	73
4639	49637	Don't bother picking him up.	Don't Brother picking him up.	2367168	1471982973188	1471982973297	n	78
4639	49637	Don't bother picking him up.	Don't Brother picking him up.	2367171	1471982973386	1471982973525	g	71
4639	49637	Don't bother picking him up.	Don't Brother picking him up.	2367174	1471982973614	1471982973715	 	32
4639	49637	Don't bother picking him up.	Don't Brother picking him up.	2367182	1471982974262	1471982974362	h	72
4639	49637	Don't bother picking him up.	Don't Brother picking him up.	2367304	1471982974530	1471982974629	i	73
4639	49637	Don't bother picking him up.	Don't Brother picking him up.	2367307	1471982974811	1471982974900	m	77
4639	49637	Don't bother picking him up.	Don't Brother picking him up.	2367311	1471982975038	1471982975148	 	32
4639	49637	Don't bother picking him up.	Don't Brother picking him up.	2367313	1471982976135	1471982976237	u	85
4639	49637	Don't bother picking him up.	Don't Brother picking him up.	2367318	1471982976445	1471982976573	p	80
4639	49637	Don't bother picking him up.	Don't Brother picking him up.	2367510	1471982977480	1471982977551	.	190
4639	49662	Do you know if this has been done yet?	DO you know if this has been done yet?	2367981	1471982982672	1471982982802	d	68
4639	49662	Do you know if this has been done yet?	DO you know if this has been done yet?	2367983	1471982982911	1471982982991	o	79
4639	49662	Do you know if this has been done yet?	DO you know if this has been done yet?	2367985	1471982984127	1471982984186	BKSP	8
4639	49662	Do you know if this has been done yet?	DO you know if this has been done yet?	2367989	1471982984305	1471982984365	BKSP	8
4639	49662	Do you know if this has been done yet?	DO you know if this has been done yet?	2367998	1471982985014	1471982988450	SHIFT	16
4639	49662	Do you know if this has been done yet?	DO you know if this has been done yet?	2367991	1471982988171	1471982988321	D	68
4639	49662	Do you know if this has been done yet?	DO you know if this has been done yet?	2367994	1471982988292	1471982988371	O	79
4639	49662	Do you know if this has been done yet?	DO you know if this has been done yet?	2368003	1471982988600	1471982988710	 	32
4639	49662	Do you know if this has been done yet?	DO you know if this has been done yet?	2368134	1471982989455	1471982989595	y	89
4639	49662	Do you know if this has been done yet?	DO you know if this has been done yet?	2368137	1471982989644	1471982989755	o	79
4639	49662	Do you know if this has been done yet?	DO you know if this has been done yet?	2368142	1471982989784	1471982989854	u	85
4639	49662	Do you know if this has been done yet?	DO you know if this has been done yet?	2368144	1471982990301	1471982990410	 	32
4639	49662	Do you know if this has been done yet?	DO you know if this has been done yet?	2368149	1471982991467	1471982991548	k	75
4639	49662	Do you know if this has been done yet?	DO you know if this has been done yet?	2368259	1471982991767	1471982991866	n	78
4639	49662	Do you know if this has been done yet?	DO you know if this has been done yet?	2368262	1471982992623	1471982992724	o	79
4639	49662	Do you know if this has been done yet?	DO you know if this has been done yet?	2368266	1471982992813	1471982992932	w	87
4639	49662	Do you know if this has been done yet?	DO you know if this has been done yet?	2368268	1471982992961	1471982993062	 	32
4639	49662	Do you know if this has been done yet?	DO you know if this has been done yet?	2368271	1471982993811	1471982993900	i	73
4639	49662	Do you know if this has been done yet?	DO you know if this has been done yet?	2368331	1471982994090	1471982994219	f	70
4639	49662	Do you know if this has been done yet?	DO you know if this has been done yet?	2368333	1471982994258	1471982994377	 	32
4639	49662	Do you know if this has been done yet?	DO you know if this has been done yet?	2368336	1471982994977	1471982995076	t	84
4639	49662	Do you know if this has been done yet?	DO you know if this has been done yet?	2368341	1471982995095	1471982995215	h	72
4639	49662	Do you know if this has been done yet?	DO you know if this has been done yet?	2368347	1471982995294	1471982995432	i	73
4639	49662	Do you know if this has been done yet?	DO you know if this has been done yet?	2368421	1471982995474	1471982995643	s	83
4639	49662	Do you know if this has been done yet?	DO you know if this has been done yet?	2368424	1471982995646	1471982995762	 	32
4639	49662	Do you know if this has been done yet?	DO you know if this has been done yet?	2368427	1471982996409	1471982996501	h	72
4639	49662	Do you know if this has been done yet?	DO you know if this has been done yet?	2368430	1471982996560	1471982996730	a	65
4639	49662	Do you know if this has been done yet?	DO you know if this has been done yet?	2368434	1471982996960	1471982997128	s	83
4639	49662	Do you know if this has been done yet?	DO you know if this has been done yet?	2368531	1471982997132	1471982997227	 	32
4639	49662	Do you know if this has been done yet?	DO you know if this has been done yet?	2368532	1471982998409	1471982998500	b	66
4639	49662	Do you know if this has been done yet?	DO you know if this has been done yet?	2368535	1471982998611	1471982998671	e	69
4639	49662	Do you know if this has been done yet?	DO you know if this has been done yet?	2368537	1471982998760	1471982998869	e	69
4639	49662	Do you know if this has been done yet?	DO you know if this has been done yet?	2368539	1471982999009	1471982999098	n	78
4639	49662	Do you know if this has been done yet?	DO you know if this has been done yet?	2368622	1471982999227	1471982999346	 	32
4639	49662	Do you know if this has been done yet?	DO you know if this has been done yet?	2368625	1471983000006	1471983000125	d	68
4639	49662	Do you know if this has been done yet?	DO you know if this has been done yet?	2368626	1471983000253	1471983000313	o	79
4639	49662	Do you know if this has been done yet?	DO you know if this has been done yet?	2368629	1471983000493	1471983000604	n	78
4639	49662	Do you know if this has been done yet?	DO you know if this has been done yet?	2368630	1471983001032	1471983001131	e	69
4639	49662	Do you know if this has been done yet?	DO you know if this has been done yet?	2368815	1471983001190	1471983001310	 	32
4639	49662	Do you know if this has been done yet?	DO you know if this has been done yet?	2368818	1471983002226	1471983002315	y	89
4639	49662	Do you know if this has been done yet?	DO you know if this has been done yet?	2368819	1471983002776	1471983002907	e	69
4639	49662	Do you know if this has been done yet?	DO you know if this has been done yet?	2368820	1471983003006	1471983003105	t	84
4639	49662	Do you know if this has been done yet?	DO you know if this has been done yet?	2368822	1471983003961	1471983004239	SHIFT	16
4639	49662	Do you know if this has been done yet?	DO you know if this has been done yet?	2368824	1471983004159	1471983004288	?	191
4639	49694	But both reports were denied by the southern leadership.	But both report were denied by the southern leadership.	2369060	1471983007367	1471983007698	SHIFT	16
4639	49694	But both reports were denied by the southern leadership.	But both report were denied by the southern leadership.	2369056	1471983007556	1471983007695	B	66
4639	49694	But both reports were denied by the southern leadership.	But both report were denied by the southern leadership.	2369064	1471983007794	1471983007925	u	85
4639	49694	But both reports were denied by the southern leadership.	But both report were denied by the southern leadership.	2369070	1471983007964	1471983008103	t	84
4639	49694	But both reports were denied by the southern leadership.	But both report were denied by the southern leadership.	2369073	1471983008172	1471983008293	 	32
4639	49694	But both reports were denied by the southern leadership.	But both report were denied by the southern leadership.	2369075	1471983008693	1471983008782	b	66
4639	49694	But both reports were denied by the southern leadership.	But both report were denied by the southern leadership.	2369183	1471983009131	1471983009269	o	79
4639	49694	But both reports were denied by the southern leadership.	But both report were denied by the southern leadership.	2369189	1471983009460	1471983009609	t	84
4639	49694	But both reports were denied by the southern leadership.	But both report were denied by the southern leadership.	2369194	1471983009628	1471983009728	h	72
4639	49694	But both reports were denied by the southern leadership.	But both report were denied by the southern leadership.	2369198	1471983009888	1471983010057	 	32
4639	49694	But both reports were denied by the southern leadership.	But both report were denied by the southern leadership.	2369205	1471983010526	1471983010615	r	82
4639	49694	But both reports were denied by the southern leadership.	But both report were denied by the southern leadership.	2369325	1471983010735	1471983010866	e	69
4639	49694	But both reports were denied by the southern leadership.	But both report were denied by the southern leadership.	2369330	1471983011202	1471983011325	p	80
4639	49694	But both reports were denied by the southern leadership.	But both report were denied by the southern leadership.	2369334	1471983012359	1471983012491	o	79
4639	49694	But both reports were denied by the southern leadership.	But both report were denied by the southern leadership.	2369338	1471983012659	1471983012758	r	82
4639	49694	But both reports were denied by the southern leadership.	But both report were denied by the southern leadership.	2369345	1471983012888	1471983013007	t	84
4639	49694	But both reports were denied by the southern leadership.	But both report were denied by the southern leadership.	2369428	1471983013235	1471983013316	 	32
4639	49694	But both reports were denied by the southern leadership.	But both report were denied by the southern leadership.	2369430	1471983014343	1471983014424	w	87
4639	49694	But both reports were denied by the southern leadership.	But both report were denied by the southern leadership.	2369432	1471983014582	1471983014672	r	82
4639	49694	But both reports were denied by the southern leadership.	But both report were denied by the southern leadership.	2369435	1471983014802	1471983014863	e	87
4639	49694	But both reports were denied by the southern leadership.	But both report were denied by the southern leadership.	2369663	1471983015360	1471983015451	BKSP	8
4639	49694	But both reports were denied by the southern leadership.	But both report were denied by the southern leadership.	2369672	1471983015540	1471983015610	BKSP	8
4639	49694	But both reports were denied by the southern leadership.	But both report were denied by the southern leadership.	2369676	1471983015800	1471983015869	BKSP	8
4639	49694	But both reports were denied by the southern leadership.	But both report were denied by the southern leadership.	2369683	1471983016935	1471983017054	e	69
4639	49694	But both reports were denied by the southern leadership.	But both report were denied by the southern leadership.	2369686	1471983017163	1471983017237	r	82
4639	49694	But both reports were denied by the southern leadership.	But both report were denied by the southern leadership.	2369691	1471983017365	1471983017455	e	69
4639	49694	But both reports were denied by the southern leadership.	But both report were denied by the southern leadership.	2369695	1471983017643	1471983017744	 	32
4639	49694	But both reports were denied by the southern leadership.	But both report were denied by the southern leadership.	2369700	1471983018530	1471983018629	d	68
4639	49694	But both reports were denied by the southern leadership.	But both report were denied by the southern leadership.	2369840	1471983018731	1471983018840	e	69
4639	49694	But both reports were denied by the southern leadership.	But both report were denied by the southern leadership.	2369844	1471983020264	1471983020356	n	78
4639	49694	But both reports were denied by the southern leadership.	But both report were denied by the southern leadership.	2369851	1471983020754	1471983020833	t	84
4639	49694	But both reports were denied by the southern leadership.	But both report were denied by the southern leadership.	2369857	1471983021410	1471983021539	BKSP	8
4639	49694	But both reports were denied by the southern leadership.	But both report were denied by the southern leadership.	2369864	1471983021677	1471983021818	i	73
4639	49694	But both reports were denied by the southern leadership.	But both report were denied by the southern leadership.	2369868	1471983021966	1471983022056	e	69
4639	49694	But both reports were denied by the southern leadership.	But both report were denied by the southern leadership.	2369988	1471983022174	1471983022315	d	68
4639	49694	But both reports were denied by the southern leadership.	But both report were denied by the southern leadership.	2369991	1471983022347	1471983022476	 	32
4639	49694	But both reports were denied by the southern leadership.	But both report were denied by the southern leadership.	2369996	1471983023284	1471983023354	b	66
4639	49694	But both reports were denied by the southern leadership.	But both report were denied by the southern leadership.	2370000	1471983023920	1471983023999	y	89
4639	49694	But both reports were denied by the southern leadership.	But both report were denied by the southern leadership.	2370007	1471983024189	1471983024350	 	32
4639	49694	But both reports were denied by the southern leadership.	But both report were denied by the southern leadership.	2370116	1471983024857	1471983025006	t	84
4639	49694	But both reports were denied by the southern leadership.	But both report were denied by the southern leadership.	2370119	1471983024986	1471983025104	h	72
4639	49694	But both reports were denied by the southern leadership.	But both report were denied by the southern leadership.	2370121	1471983025185	1471983025333	e	69
4639	49694	But both reports were denied by the southern leadership.	But both report were denied by the southern leadership.	2370124	1471983025334	1471983025454	 	32
4639	49694	But both reports were denied by the southern leadership.	But both report were denied by the southern leadership.	2370127	1471983026531	1471983026662	s	83
4639	49694	But both reports were denied by the southern leadership.	But both report were denied by the southern leadership.	2370184	1471983026830	1471983026939	i	73
4639	49694	But both reports were denied by the southern leadership.	But both report were denied by the southern leadership.	2370190	1471983027068	1471983027189	u	85
4639	49694	But both reports were denied by the southern leadership.	But both report were denied by the southern leadership.	2370197	1471983027267	1471983027407	t	84
4639	49694	But both reports were denied by the southern leadership.	But both report were denied by the southern leadership.	2370204	1471983027467	1471983027586	h	72
4639	49694	But both reports were denied by the southern leadership.	But both report were denied by the southern leadership.	2370212	1471983028244	1471983028335	e	69
4639	49694	But both reports were denied by the southern leadership.	But both report were denied by the southern leadership.	2370432	1471983028434	1471983028504	r	82
4639	49694	But both reports were denied by the southern leadership.	But both report were denied by the southern leadership.	2370437	1471983028931	1471983029011	n	78
4639	49694	But both reports were denied by the southern leadership.	But both report were denied by the southern leadership.	2370442	1471983029123	1471983029264	 	32
4639	49694	But both reports were denied by the southern leadership.	But both report were denied by the southern leadership.	2370446	1471983031044	1471983031115	BKSP	8
4639	49694	But both reports were denied by the southern leadership.	But both report were denied by the southern leadership.	2370450	1471983031184	1471983031255	BKSP	8
4639	49694	But both reports were denied by the southern leadership.	But both report were denied by the southern leadership.	2370452	1471983031323	1471983031403	BKSP	8
4639	49694	But both reports were denied by the southern leadership.	But both report were denied by the southern leadership.	2370458	1471983031462	1471983031522	BKSP	8
4639	49694	But both reports were denied by the southern leadership.	But both report were denied by the southern leadership.	2370462	1471983031593	1471983031653	BKSP	8
4639	49694	But both reports were denied by the southern leadership.	But both report were denied by the southern leadership.	2370465	1471983031731	1471983031772	BKSP	8
4639	49694	But both reports were denied by the southern leadership.	But both report were denied by the southern leadership.	2370467	1471983031840	1471983031920	BKSP	8
4639	49694	But both reports were denied by the southern leadership.	But both report were denied by the southern leadership.	2370470	1471983031979	1471983032080	BKSP	8
4639	49694	But both reports were denied by the southern leadership.	But both report were denied by the southern leadership.	2370471	1471983032579	1471983032710	o	79
4639	49694	But both reports were denied by the southern leadership.	But both report were denied by the southern leadership.	2370472	1471983033037	1471983033138	u	85
4639	49694	But both reports were denied by the southern leadership.	But both report were denied by the southern leadership.	2370552	1471983033268	1471983033406	t	84
4639	49694	But both reports were denied by the southern leadership.	But both report were denied by the southern leadership.	2370557	1471983033426	1471983033535	h	72
4639	49694	But both reports were denied by the southern leadership.	But both report were denied by the southern leadership.	2370560	1471983034304	1471983034462	e	69
4639	49694	But both reports were denied by the southern leadership.	But both report were denied by the southern leadership.	2370564	1471983034383	1471983034511	r	82
4639	49694	But both reports were denied by the southern leadership.	But both report were denied by the southern leadership.	2370567	1471983034890	1471983034969	n	78
4639	49694	But both reports were denied by the southern leadership.	But both report were denied by the southern leadership.	2370684	1471983035111	1471983035231	 	32
4639	49694	But both reports were denied by the southern leadership.	But both report were denied by the southern leadership.	2370688	1471983035926	1471983036077	l	76
4639	49694	But both reports were denied by the southern leadership.	But both report were denied by the southern leadership.	2370693	1471983036146	1471983036247	e	69
4639	49694	But both reports were denied by the southern leadership.	But both report were denied by the southern leadership.	2370696	1471983036395	1471983036556	a	65
4639	49694	But both reports were denied by the southern leadership.	But both report were denied by the southern leadership.	2370699	1471983036685	1471983036814	d	68
4639	49694	But both reports were denied by the southern leadership.	But both report were denied by the southern leadership.	2370908	1471983036982	1471983037073	r	82
4639	49694	But both reports were denied by the southern leadership.	But both report were denied by the southern leadership.	2370912	1471983037551	1471983037598	BKSP	8
4639	49694	But both reports were denied by the southern leadership.	But both report were denied by the southern leadership.	2370914	1471983039306	1471983039445	e	69
4639	49694	But both reports were denied by the southern leadership.	But both report were denied by the southern leadership.	2370918	1471983039366	1471983039465	r	82
4639	49694	But both reports were denied by the southern leadership.	But both report were denied by the southern leadership.	2370924	1471983039694	1471983039823	s	83
4639	49694	But both reports were denied by the southern leadership.	But both report were denied by the southern leadership.	2370927	1471983040164	1471983040253	h	72
4639	49694	But both reports were denied by the southern leadership.	But both report were denied by the southern leadership.	2371030	1471983040432	1471983040543	i	73
4639	49694	But both reports were denied by the southern leadership.	But both report were denied by the southern leadership.	2371033	1471983040691	1471983040810	p	80
4639	49694	But both reports were denied by the southern leadership.	But both report were denied by the southern leadership.	2371037	1471983041599	1471983041659	.	190
4639	49739	Hope you guys are doing fine.	Hope you guys are doing fine.	2371284	1471983044399	1471983044668	SHIFT	16
4639	49739	Hope you guys are doing fine.	Hope you guys are doing fine.	2371279	1471983044539	1471983044648	H	72
4639	49739	Hope you guys are doing fine.	Hope you guys are doing fine.	2371289	1471983044885	1471983044997	o	79
4639	49739	Hope you guys are doing fine.	Hope you guys are doing fine.	2371291	1471983045105	1471983045255	p	80
4639	49739	Hope you guys are doing fine.	Hope you guys are doing fine.	2371294	1471983046002	1471983046104	e	69
4639	49739	Hope you guys are doing fine.	Hope you guys are doing fine.	2371297	1471983046172	1471983046272	 	32
4639	49739	Hope you guys are doing fine.	Hope you guys are doing fine.	2371435	1471983046620	1471983046739	y	89
4639	49739	Hope you guys are doing fine.	Hope you guys are doing fine.	2371440	1471983046919	1471983047041	o	79
4639	49739	Hope you guys are doing fine.	Hope you guys are doing fine.	2371443	1471983047161	1471983047280	u	85
4639	49739	Hope you guys are doing fine.	Hope you guys are doing fine.	2371449	1471983047529	1471983047659	 	32
4639	49739	Hope you guys are doing fine.	Hope you guys are doing fine.	2371453	1471983048536	1471983048635	g	71
4639	49739	Hope you guys are doing fine.	Hope you guys are doing fine.	2371598	1471983049004	1471983049163	u	85
4639	49739	Hope you guys are doing fine.	Hope you guys are doing fine.	2371601	1471983049272	1471983049371	y	89
4639	49739	Hope you guys are doing fine.	Hope you guys are doing fine.	2371603	1471983049620	1471983049759	s	83
4639	49739	Hope you guys are doing fine.	Hope you guys are doing fine.	2371607	1471983049778	1471983049880	 	32
4639	49739	Hope you guys are doing fine.	Hope you guys are doing fine.	2371609	1471983050807	1471983050968	a	65
4639	49739	Hope you guys are doing fine.	Hope you guys are doing fine.	2371665	1471983051097	1471983051206	r	82
4639	49739	Hope you guys are doing fine.	Hope you guys are doing fine.	2371667	1471983051335	1471983051436	e	69
4639	49739	Hope you guys are doing fine.	Hope you guys are doing fine.	2371675	1471983051535	1471983051644	 	32
4639	49739	Hope you guys are doing fine.	Hope you guys are doing fine.	2371678	1471983051913	1471983052032	d	68
4639	49739	Hope you guys are doing fine.	Hope you guys are doing fine.	2371684	1471983052212	1471983052312	o	79
4639	49739	Hope you guys are doing fine.	Hope you guys are doing fine.	2371761	1471983052482	1471983052551	i	73
4639	49739	Hope you guys are doing fine.	Hope you guys are doing fine.	2371764	1471983052730	1471983052860	n	78
4639	49739	Hope you guys are doing fine.	Hope you guys are doing fine.	2371766	1471983052941	1471983053101	g	71
4639	49739	Hope you guys are doing fine.	Hope you guys are doing fine.	2371768	1471983053160	1471983053260	 	32
4639	49739	Hope you guys are doing fine.	Hope you guys are doing fine.	2371769	1471983054365	1471983054486	f	70
4639	49739	Hope you guys are doing fine.	Hope you guys are doing fine.	2371856	1471983054615	1471983054694	i	73
4639	49739	Hope you guys are doing fine.	Hope you guys are doing fine.	2371859	1471983054894	1471983055024	n	78
4639	49739	Hope you guys are doing fine.	Hope you guys are doing fine.	2371865	1471983055152	1471983055291	e	69
4639	49739	Hope you guys are doing fine.	Hope you guys are doing fine.	2371868	1471983055931	1471983055981	.	190
4639	49758	Please stay on top of the security issue.	Please stay on top of the security issue.	2372088	1471983058402	1471983058542	SHIFT	16
4639	49758	Please stay on top of the security issue.	Please stay on top of the security issue.	2372096	1471983058740	1471983059022	SHIFT	16
4639	49758	Please stay on top of the security issue.	Please stay on top of the security issue.	2372092	1471983058922	1471983059002	P	80
4639	49758	Please stay on top of the security issue.	Please stay on top of the security issue.	2372100	1471983059151	1471983059250	l	76
4639	49758	Please stay on top of the security issue.	Please stay on top of the security issue.	2372104	1471983059420	1471983059519	e	69
4639	49758	Please stay on top of the security issue.	Please stay on top of the security issue.	2372108	1471983060644	1471983060733	a	65
4639	49758	Please stay on top of the security issue.	Please stay on top of the security issue.	2372111	1471983061013	1471983061093	s	83
4639	49758	Please stay on top of the security issue.	Please stay on top of the security issue.	2372159	1471983061202	1471983061313	e	69
4639	49758	Please stay on top of the security issue.	Please stay on top of the security issue.	2372162	1471983061402	1471983061511	 	32
4639	49758	Please stay on top of the security issue.	Please stay on top of the security issue.	2372167	1471983062101	1471983062240	s	83
4639	49758	Please stay on top of the security issue.	Please stay on top of the security issue.	2372172	1471983062480	1471983062559	t	84
4639	49758	Please stay on top of the security issue.	Please stay on top of the security issue.	2372179	1471983062678	1471983062801	a	65
4639	49758	Please stay on top of the security issue.	Please stay on top of the security issue.	2372416	1471983062682	1471983062804	CAPS_LOCK	20
4639	49758	Please stay on top of the security issue.	Please stay on top of the security issue.	2372422	1471983062808	1471983062860	Y	89
4639	49758	Please stay on top of the security issue.	Please stay on top of the security issue.	2372427	1471983063079	1471983063169	 	32
4639	49758	Please stay on top of the security issue.	Please stay on top of the security issue.	2372433	1471983064105	1471983064156	BKSP	8
4639	49758	Please stay on top of the security issue.	Please stay on top of the security issue.	2372438	1471983064234	1471983064305	BKSP	8
4639	49758	Please stay on top of the security issue.	Please stay on top of the security issue.	2372441	1471983064399	1471983064464	BKSP	8
4639	49758	Please stay on top of the security issue.	Please stay on top of the security issue.	2372445	1471983065610	1471983065689	CAPS_LOCK	20
4639	49758	Please stay on top of the security issue.	Please stay on top of the security issue.	2372449	1471983067124	1471983067265	a	65
4639	49758	Please stay on top of the security issue.	Please stay on top of the security issue.	2372453	1471983067284	1471983067394	y	89
4639	49758	Please stay on top of the security issue.	Please stay on top of the security issue.	2372457	1471983067552	1471983067671	 	32
4639	49758	Please stay on top of the security issue.	Please stay on top of the security issue.	2372531	1471983068402	1471983068461	o	79
4639	49758	Please stay on top of the security issue.	Please stay on top of the security issue.	2372535	1471983068649	1471983068751	n	78
4639	49758	Please stay on top of the security issue.	Please stay on top of the security issue.	2372541	1471983068869	1471983068969	 	32
4639	49758	Please stay on top of the security issue.	Please stay on top of the security issue.	2372547	1471983069486	1471983069605	t	84
4639	49758	Please stay on top of the security issue.	Please stay on top of the security issue.	2372553	1471983069877	1471983069936	o	79
4639	49758	Please stay on top of the security issue.	Please stay on top of the security issue.	2372611	1471983070045	1471983070114	p	80
4639	49758	Please stay on top of the security issue.	Please stay on top of the security issue.	2372617	1471983070324	1471983070453	 	32
4639	49758	Please stay on top of the security issue.	Please stay on top of the security issue.	2372624	1471983070934	1471983071023	o	79
4639	49758	Please stay on top of the security issue.	Please stay on top of the security issue.	2372633	1471983071192	1471983071328	f	70
4639	49758	Please stay on top of the security issue.	Please stay on top of the security issue.	2372697	1471983071323	1471983071433	 	32
4639	49758	Please stay on top of the security issue.	Please stay on top of the security issue.	2372702	1471983071502	1471983071661	t	84
4639	49758	Please stay on top of the security issue.	Please stay on top of the security issue.	2372706	1471983071663	1471983071772	h	72
4639	49758	Please stay on top of the security issue.	Please stay on top of the security issue.	2372708	1471983071831	1471983072001	e	69
4639	49758	Please stay on top of the security issue.	Please stay on top of the security issue.	2372712	1471983072020	1471983072140	 	32
4639	49758	Please stay on top of the security issue.	Please stay on top of the security issue.	2372717	1471983072788	1471983072898	s	83
4639	49758	Please stay on top of the security issue.	Please stay on top of the security issue.	2372903	1471983073136	1471983073276	e	69
4639	49758	Please stay on top of the security issue.	Please stay on top of the security issue.	2372904	1471983074104	1471983074225	c	67
4639	49758	Please stay on top of the security issue.	Please stay on top of the security issue.	2372906	1471983074631	1471983074762	u	85
4639	49758	Please stay on top of the security issue.	Please stay on top of the security issue.	2372908	1471983075030	1471983075149	r	82
4639	49758	Please stay on top of the security issue.	Please stay on top of the security issue.	2372913	1471983076277	1471983076385	i	73
4639	49758	Please stay on top of the security issue.	Please stay on top of the security issue.	2373013	1471983076444	1471983076584	t	84
4639	49758	Please stay on top of the security issue.	Please stay on top of the security issue.	2373019	1471983076634	1471983076736	y	89
4639	49758	Please stay on top of the security issue.	Please stay on top of the security issue.	2373025	1471983076935	1471983077074	 	32
4639	49758	Please stay on top of the security issue.	Please stay on top of the security issue.	2373031	1471983077812	1471983077932	i	73
4639	49758	Please stay on top of the security issue.	Please stay on top of the security issue.	2373035	1471983078129	1471983078221	d	68
4639	49758	Please stay on top of the security issue.	Please stay on top of the security issue.	2373202	1471983078290	1471983078389	d	68
4639	49758	Please stay on top of the security issue.	Please stay on top of the security issue.	2373206	1471983079236	1471983079276	BKSP	8
4639	49758	Please stay on top of the security issue.	Please stay on top of the security issue.	2373210	1471983079375	1471983079464	BKSP	8
4639	49758	Please stay on top of the security issue.	Please stay on top of the security issue.	2373214	1471983080103	1471983080174	s	83
4639	49758	Please stay on top of the security issue.	Please stay on top of the security issue.	2373217	1471983080263	1471983080352	s	83
4639	49758	Please stay on top of the security issue.	Please stay on top of the security issue.	2373219	1471983080921	1471983081030	u	85
4639	49758	Please stay on top of the security issue.	Please stay on top of the security issue.	2373222	1471983081269	1471983081389	s	83
4639	49758	Please stay on top of the security issue.	Please stay on top of the security issue.	2373287	1471983081737	1471983081868	BKSP	8
4639	49758	Please stay on top of the security issue.	Please stay on top of the security issue.	2373289	1471983082335	1471983082415	e	69
4639	49758	Please stay on top of the security issue.	Please stay on top of the security issue.	2373292	1471983082726	1471983082806	.	190
4639	49784	It stands to reason that I will eventually win.	It stand to reason that I will eventually win.	2373614	1471983085295	1471983086043	SHIFT	16
4639	49784	It stands to reason that I will eventually win.	It stand to reason that I will eventually win.	2373612	1471983085776	1471983085905	I	73
4639	49784	It stands to reason that I will eventually win.	It stand to reason that I will eventually win.	2373616	1471983086023	1471983086085	T	84
4639	49784	It stands to reason that I will eventually win.	It stand to reason that I will eventually win.	2373618	1471983086313	1471983086412	 	32
4639	49784	It stands to reason that I will eventually win.	It stand to reason that I will eventually win.	2373619	1471983086921	1471983086990	BKSP	8
4639	49784	It stands to reason that I will eventually win.	It stand to reason that I will eventually win.	2373620	1471983087101	1471983087170	BKSP	8
4639	49784	It stands to reason that I will eventually win.	It stand to reason that I will eventually win.	2373621	1471983088335	1471983088414	t	84
4639	49784	It stands to reason that I will eventually win.	It stand to reason that I will eventually win.	2373622	1471983089065	1471983089115	 	32
4639	49784	It stands to reason that I will eventually win.	It stand to reason that I will eventually win.	2373696	1471983089841	1471983089960	s	83
4639	49784	It stands to reason that I will eventually win.	It stand to reason that I will eventually win.	2373699	1471983090259	1471983090349	t	84
4639	49784	It stands to reason that I will eventually win.	It stand to reason that I will eventually win.	2373701	1471983090457	1471983090608	a	65
4639	49784	It stands to reason that I will eventually win.	It stand to reason that I will eventually win.	2373703	1471983090611	1471983090728	n	78
4639	49784	It stands to reason that I will eventually win.	It stand to reason that I will eventually win.	2373705	1471983090836	1471983090985	d	68
4639	49784	It stands to reason that I will eventually win.	It stand to reason that I will eventually win.	2373819	1471983091046	1471983091166	 	32
4639	49784	It stands to reason that I will eventually win.	It stand to reason that I will eventually win.	2373821	1471983091696	1471983091835	t	84
4639	49784	It stands to reason that I will eventually win.	It stand to reason that I will eventually win.	2373825	1471983091874	1471983091974	o	79
4639	49784	It stands to reason that I will eventually win.	It stand to reason that I will eventually win.	2373830	1471983092193	1471983092352	 	32
4639	49784	It stands to reason that I will eventually win.	It stand to reason that I will eventually win.	2373835	1471983093011	1471983093110	r	82
4639	49784	It stands to reason that I will eventually win.	It stand to reason that I will eventually win.	2373962	1471983093248	1471983093348	e	69
4639	49784	It stands to reason that I will eventually win.	It stand to reason that I will eventually win.	2373967	1471983093517	1471983093668	s	83
4639	49784	It stands to reason that I will eventually win.	It stand to reason that I will eventually win.	2373969	1471983095094	1471983095143	o	79
4639	49784	It stands to reason that I will eventually win.	It stand to reason that I will eventually win.	2373972	1471983095351	1471983095440	n	78
4639	49784	It stands to reason that I will eventually win.	It stand to reason that I will eventually win.	2373975	1471983095581	1471983095702	 	32
4639	49784	It stands to reason that I will eventually win.	It stand to reason that I will eventually win.	2374144	1471983096150	1471983096258	t	84
4639	49784	It stands to reason that I will eventually win.	It stand to reason that I will eventually win.	2374148	1471983096307	1471983096427	h	72
4639	49784	It stands to reason that I will eventually win.	It stand to reason that I will eventually win.	2374155	1471983097264	1471983097323	BKSP	8
4639	49784	It stands to reason that I will eventually win.	It stand to reason that I will eventually win.	2374162	1471983097402	1471983097485	BKSP	8
4639	49784	It stands to reason that I will eventually win.	It stand to reason that I will eventually win.	2374166	1471983097574	1471983097636	BKSP	8
4639	49784	It stands to reason that I will eventually win.	It stand to reason that I will eventually win.	2374173	1471983097715	1471983097794	BKSP	8
4639	49784	It stands to reason that I will eventually win.	It stand to reason that I will eventually win.	2374178	1471983097873	1471983097975	BKSP	8
4639	49784	It stands to reason that I will eventually win.	It stand to reason that I will eventually win.	2374182	1471983098322	1471983098431	BKSP	8
4639	49784	It stands to reason that I will eventually win.	It stand to reason that I will eventually win.	2374184	1471983098622	1471983098731	a	65
4639	49784	It stands to reason that I will eventually win.	It stand to reason that I will eventually win.	2374186	1471983098981	1471983099110	s	83
4639	49784	It stands to reason that I will eventually win.	It stand to reason that I will eventually win.	2374187	1471983099248	1471983099328	o	79
4639	49784	It stands to reason that I will eventually win.	It stand to reason that I will eventually win.	2374228	1471983099528	1471983099599	n	78
4639	49784	It stands to reason that I will eventually win.	It stand to reason that I will eventually win.	2374231	1471983099737	1471983099827	 	32
4639	49784	It stands to reason that I will eventually win.	It stand to reason that I will eventually win.	2374234	1471983100225	1471983100354	t	84
4639	49784	It stands to reason that I will eventually win.	It stand to reason that I will eventually win.	2374237	1471983100395	1471983100506	h	72
4639	49784	It stands to reason that I will eventually win.	It stand to reason that I will eventually win.	2374241	1471983100565	1471983100755	a	65
4639	49784	It stands to reason that I will eventually win.	It stand to reason that I will eventually win.	2374303	1471983100759	1471983100844	t	84
4639	49784	It stands to reason that I will eventually win.	It stand to reason that I will eventually win.	2374305	1471983101064	1471983101153	 	32
4639	49784	It stands to reason that I will eventually win.	It stand to reason that I will eventually win.	2374310	1471983101681	1471983102805	SHIFT	16
4639	49784	It stands to reason that I will eventually win.	It stand to reason that I will eventually win.	2374307	1471983102676	1471983102736	I	73
4639	49784	It stands to reason that I will eventually win.	It stand to reason that I will eventually win.	2374313	1471983102945	1471983103085	 	32
4639	49784	It stands to reason that I will eventually win.	It stand to reason that I will eventually win.	2374449	1471983103364	1471983103465	w	87
4639	49784	It stands to reason that I will eventually win.	It stand to reason that I will eventually win.	2374318	1471983103393	1471983103445	e	69
4639	49784	It stands to reason that I will eventually win.	It stand to reason that I will eventually win.	2374450	1471983104660	1471983104730	BKSP	8
4639	49784	It stands to reason that I will eventually win.	It stand to reason that I will eventually win.	2374453	1471983104910	1471983104999	i	73
4639	49784	It stands to reason that I will eventually win.	It stand to reason that I will eventually win.	2374457	1471983105147	1471983105207	l	76
4639	49784	It stands to reason that I will eventually win.	It stand to reason that I will eventually win.	2374461	1471983105306	1471983105366	l	76
4639	49784	It stands to reason that I will eventually win.	It stand to reason that I will eventually win.	2374466	1471983105577	1471983105667	 	32
4639	49784	It stands to reason that I will eventually win.	It stand to reason that I will eventually win.	2374468	1471983106406	1471983106536	e	69
4639	49784	It stands to reason that I will eventually win.	It stand to reason that I will eventually win.	2374578	1471983106674	1471983106753	n	78
4639	49784	It stands to reason that I will eventually win.	It stand to reason that I will eventually win.	2374579	1471983107112	1471983107221	BKSP	8
4639	49784	It stands to reason that I will eventually win.	It stand to reason that I will eventually win.	2374580	1471983107809	1471983107910	v	86
4639	49784	It stands to reason that I will eventually win.	It stand to reason that I will eventually win.	2374581	1471983108078	1471983108227	e	69
4639	49784	It stands to reason that I will eventually win.	It stand to reason that I will eventually win.	2374582	1471983108367	1471983108467	n	78
4639	49784	It stands to reason that I will eventually win.	It stand to reason that I will eventually win.	2374583	1471983109355	1471983109454	t	84
4639	49784	It stands to reason that I will eventually win.	It stand to reason that I will eventually win.	2374680	1471983109895	1471983109963	u	85
4639	49784	It stands to reason that I will eventually win.	It stand to reason that I will eventually win.	2374683	1471983111557	1471983111716	a	65
4639	49784	It stands to reason that I will eventually win.	It stand to reason that I will eventually win.	2374686	1471983111785	1471983111836	l	76
4639	49784	It stands to reason that I will eventually win.	It stand to reason that I will eventually win.	2374688	1471983111915	1471983111985	l	76
4639	49784	It stands to reason that I will eventually win.	It stand to reason that I will eventually win.	2374690	1471983112213	1471983112284	y	89
4639	49784	It stands to reason that I will eventually win.	It stand to reason that I will eventually win.	2374791	1471983112564	1471983112634	 	32
4639	49784	It stands to reason that I will eventually win.	It stand to reason that I will eventually win.	2374794	1471983113610	1471983113729	w	87
4639	49784	It stands to reason that I will eventually win.	It stand to reason that I will eventually win.	2374799	1471983113870	1471983113959	i	73
4639	49784	It stands to reason that I will eventually win.	It stand to reason that I will eventually win.	2374802	1471983114087	1471983114177	n	78
4639	49784	It stands to reason that I will eventually win.	It stand to reason that I will eventually win.	2374804	1471983114704	1471983114764	.	190
