PARTICIPANT_ID	TEST_SECTION_ID	SENTENCE	USER_INPUT	KEYSTROKE_ID	PRESS_TIME	RELEASE_TIME	LETTER	KEYCODE
4685	49864	I was trying to remember what Bobby said.	I was trying to remember what Bobby said.	2377353	1471983179608	1471983180558	SHIFT	16
4685	49864	I was trying to remember what Bobby said.	I was trying to remember what Bobby said.	2377351	1471983180409	1471983180513	I	73
4685	49864	I was trying to remember what Bobby said.	I was trying to remember what Bobby said.	2377358	1471983180823	1471983180914	 	32
4685	49864	I was trying to remember what Bobby said.	I was trying to remember what Bobby said.	2377363	1471983180949	1471983181038	w	87
4685	49864	I was trying to remember what Bobby said.	I was trying to remember what Bobby said.	2377368	1471983181101	1471983181250	a	65
4685	49864	I was trying to remember what Bobby said.	I was trying to remember what Bobby said.	2377373	1471983181277	1471983181376	s	83
4685	49864	I was trying to remember what Bobby said.	I was trying to remember what Bobby said.	2377405	1471983181402	1471983181492	 	32
4685	49864	I was trying to remember what Bobby said.	I was trying to remember what Bobby said.	2377406	1471983181898	1471983182008	t	84
4685	49864	I was trying to remember what Bobby said.	I was trying to remember what Bobby said.	2377407	1471983182110	1471983182214	r	82
4685	49864	I was trying to remember what Bobby said.	I was trying to remember what Bobby said.	2377408	1471983182234	1471983182319	y	89
4685	49864	I was trying to remember what Bobby said.	I was trying to remember what Bobby said.	2377409	1471983182434	1471983182558	i	73
4685	49864	I was trying to remember what Bobby said.	I was trying to remember what Bobby said.	2377414	1471983182627	1471983182721	n	78
4685	49864	I was trying to remember what Bobby said.	I was trying to remember what Bobby said.	2377417	1471983182747	1471983182868	g	71
4685	49864	I was trying to remember what Bobby said.	I was trying to remember what Bobby said.	2377420	1471983182872	1471983182963	 	32
4685	49864	I was trying to remember what Bobby said.	I was trying to remember what Bobby said.	2377423	1471983183162	1471983183258	t	84
4685	49864	I was trying to remember what Bobby said.	I was trying to remember what Bobby said.	2377426	1471983183264	1471983183379	o	79
4685	49864	I was trying to remember what Bobby said.	I was trying to remember what Bobby said.	2377454	1471983183465	1471983183565	 	32
4685	49864	I was trying to remember what Bobby said.	I was trying to remember what Bobby said.	2377456	1471983183892	1471983184025	r	82
4685	49864	I was trying to remember what Bobby said.	I was trying to remember what Bobby said.	2377460	1471983184045	1471983184175	e	69
4685	49864	I was trying to remember what Bobby said.	I was trying to remember what Bobby said.	2377463	1471983184211	1471983184312	m	77
4685	49864	I was trying to remember what Bobby said.	I was trying to remember what Bobby said.	2377465	1471983184319	1471983184443	e	69
4685	49864	I was trying to remember what Bobby said.	I was trying to remember what Bobby said.	2377511	1471983184475	1471983184561	m	77
4685	49864	I was trying to remember what Bobby said.	I was trying to remember what Bobby said.	2377518	1471983184989	1471983185088	b	66
4685	49864	I was trying to remember what Bobby said.	I was trying to remember what Bobby said.	2377527	1471983185083	1471983185236	e	69
4685	49864	I was trying to remember what Bobby said.	I was trying to remember what Bobby said.	2377539	1471983185216	1471983185350	r	82
4685	49864	I was trying to remember what Bobby said.	I was trying to remember what Bobby said.	2377550	1471983185398	1471983185497	 	32
4685	49864	I was trying to remember what Bobby said.	I was trying to remember what Bobby said.	2377627	1471983186117	1471983186241	w	87
4685	49864	I was trying to remember what Bobby said.	I was trying to remember what Bobby said.	2377629	1471983186283	1471983186397	h	72
4685	49864	I was trying to remember what Bobby said.	I was trying to remember what Bobby said.	2377631	1471983186381	1471983186515	a	65
4685	49864	I was trying to remember what Bobby said.	I was trying to remember what Bobby said.	2377633	1471983186567	1471983186694	r	82
4685	49864	I was trying to remember what Bobby said.	I was trying to remember what Bobby said.	2377635	1471983187349	1471983187460	BKSP	8
4685	49864	I was trying to remember what Bobby said.	I was trying to remember what Bobby said.	2377638	1471983187475	1471983187577	t	84
4685	49864	I was trying to remember what Bobby said.	I was trying to remember what Bobby said.	2377698	1471983187668	1471983187774	 	32
4685	49864	I was trying to remember what Bobby said.	I was trying to remember what Bobby said.	2377702	1471983188274	1471983188565	SHIFT	16
4685	49864	I was trying to remember what Bobby said.	I was trying to remember what Bobby said.	2377700	1471983188413	1471983188507	B	66
4685	49864	I was trying to remember what Bobby said.	I was trying to remember what Bobby said.	2377703	1471983188870	1471983189008	o	79
4685	49864	I was trying to remember what Bobby said.	I was trying to remember what Bobby said.	2377704	1471983189188	1471983189298	b	66
4685	49864	I was trying to remember what Bobby said.	I was trying to remember what Bobby said.	2377705	1471983189355	1471983189464	b	66
4685	49864	I was trying to remember what Bobby said.	I was trying to remember what Bobby said.	2377718	1471983189528	1471983189625	y	89
4685	49864	I was trying to remember what Bobby said.	I was trying to remember what Bobby said.	2377722	1471983189738	1471983189822	 	32
4685	49864	I was trying to remember what Bobby said.	I was trying to remember what Bobby said.	2377726	1471983190181	1471983190291	s	83
4685	49864	I was trying to remember what Bobby said.	I was trying to remember what Bobby said.	2377731	1471983190335	1471983190457	a	65
4685	49864	I was trying to remember what Bobby said.	I was trying to remember what Bobby said.	2377826	1471983190455	1471983190556	i	73
4685	49864	I was trying to remember what Bobby said.	I was trying to remember what Bobby said.	2377829	1471983190598	1471983190729	d	68
4685	49864	I was trying to remember what Bobby said.	I was trying to remember what Bobby said.	2377833	1471983191013	1471983191131	.	190
4685	49877	I'll call you when I get to the office.	I'll call you when I get to the office.	2378103	1471983197542	1471983199086	SHIFT	16
4685	49877	I'll call you when I get to the office.	I'll call you when I get to the office.	2378100	1471983198904	1471983199002	I	73
4685	49877	I'll call you when I get to the office.	I'll call you when I get to the office.	2378106	1471983199305	1471983199417	'	222
4685	49877	I'll call you when I get to the office.	I'll call you when I get to the office.	2378110	1471983199684	1471983199760	l	76
4685	49877	I'll call you when I get to the office.	I'll call you when I get to the office.	2378115	1471983199828	1471983199918	l	76
4685	49877	I'll call you when I get to the office.	I'll call you when I get to the office.	2378119	1471983200116	1471983200198	 	32
4685	49877	I'll call you when I get to the office.	I'll call you when I get to the office.	2378146	1471983200527	1471983200651	c	67
4685	49877	I'll call you when I get to the office.	I'll call you when I get to the office.	2378147	1471983200647	1471983200802	a	65
4685	49877	I'll call you when I get to the office.	I'll call you when I get to the office.	2378148	1471983200811	1471983200910	l	76
4685	49877	I'll call you when I get to the office.	I'll call you when I get to the office.	2378149	1471983200973	1471983201070	l	76
4685	49877	I'll call you when I get to the office.	I'll call you when I get to the office.	2378150	1471983201233	1471983201327	 	32
4685	49877	I'll call you when I get to the office.	I'll call you when I get to the office.	2378190	1471983201656	1471983201752	y	89
4685	49877	I'll call you when I get to the office.	I'll call you when I get to the office.	2378191	1471983201738	1471983201844	o	79
4685	49877	I'll call you when I get to the office.	I'll call you when I get to the office.	2378192	1471983201890	1471983201985	u	85
4685	49877	I'll call you when I get to the office.	I'll call you when I get to the office.	2378193	1471983202087	1471983202183	 	32
4685	49877	I'll call you when I get to the office.	I'll call you when I get to the office.	2378195	1471983202560	1471983202689	w	87
4685	49877	I'll call you when I get to the office.	I'll call you when I get to the office.	2378294	1471983202684	1471983202772	h	72
4685	49877	I'll call you when I get to the office.	I'll call you when I get to the office.	2378296	1471983202798	1471983202916	e	69
4685	49877	I'll call you when I get to the office.	I'll call you when I get to the office.	2378298	1471983202918	1471983203028	n	78
4685	49877	I'll call you when I get to the office.	I'll call you when I get to the office.	2378300	1471983203152	1471983203249	 	32
4685	49877	I'll call you when I get to the office.	I'll call you when I get to the office.	2378302	1471983204041	1471983204107	WIN	91
4685	49877	I'll call you when I get to the office.	I'll call you when I get to the office.	2378305	1471983204067	1471983204459	SHIFT	16
4685	49877	I'll call you when I get to the office.	I'll call you when I get to the office.	2378304	1471983204176	1471983204319	I	73
4685	49877	I'll call you when I get to the office.	I'll call you when I get to the office.	2378306	1471983205749	1471983205866	 	32
4685	49877	I'll call you when I get to the office.	I'll call you when I get to the office.	2378351	1471983206744	1471983206835	g	71
4685	49877	I'll call you when I get to the office.	I'll call you when I get to the office.	2378354	1471983206826	1471983206918	e	69
4685	49877	I'll call you when I get to the office.	I'll call you when I get to the office.	2378356	1471983206932	1471983207006	t	84
4685	49877	I'll call you when I get to the office.	I'll call you when I get to the office.	2378358	1471983207115	1471983207207	 	32
4685	49877	I'll call you when I get to the office.	I'll call you when I get to the office.	2378362	1471983207452	1471983207568	t	84
4685	49877	I'll call you when I get to the office.	I'll call you when I get to the office.	2378402	1471983207562	1471983207667	o	79
4685	49877	I'll call you when I get to the office.	I'll call you when I get to the office.	2378406	1471983207748	1471983207869	 	32
4685	49877	I'll call you when I get to the office.	I'll call you when I get to the office.	2378410	1471983207915	1471983208013	t	84
4685	49877	I'll call you when I get to the office.	I'll call you when I get to the office.	2378412	1471983208036	1471983208127	h	72
4685	49877	I'll call you when I get to the office.	I'll call you when I get to the office.	2378413	1471983208139	1471983208268	e	69
4685	49877	I'll call you when I get to the office.	I'll call you when I get to the office.	2378415	1471983208271	1471983208365	 	32
4685	49877	I'll call you when I get to the office.	I'll call you when I get to the office.	2378432	1471983208770	1471983208893	o	79
4685	49877	I'll call you when I get to the office.	I'll call you when I get to the office.	2378434	1471983208889	1471983208987	f	70
4685	49877	I'll call you when I get to the office.	I'll call you when I get to the office.	2378437	1471983209058	1471983209157	f	70
4685	49877	I'll call you when I get to the office.	I'll call you when I get to the office.	2378441	1471983209166	1471983209280	i	73
4685	49877	I'll call you when I get to the office.	I'll call you when I get to the office.	2378445	1471983209447	1471983209519	c	67
4685	49877	I'll call you when I get to the office.	I'll call you when I get to the office.	2378649	1471983209594	1471983209732	e	69
4685	49877	I'll call you when I get to the office.	I'll call you when I get to the office.	2378652	1471983210871	1471983210926	/	191
4685	49877	I'll call you when I get to the office.	I'll call you when I get to the office.	2378656	1471983211707	1471983211837	BKSP	8
4685	49877	I'll call you when I get to the office.	I'll call you when I get to the office.	2378660	1471983211877	1471983211971	,	188
4685	49877	I'll call you when I get to the office.	I'll call you when I get to the office.	2378666	1471983212344	1471983212488	BKSP	8
4685	49877	I'll call you when I get to the office.	I'll call you when I get to the office.	2378671	1471983212511	1471983212621	.	190
4685	49895	Juppe met with the president at the Oval office.	Juppe met with the president at the Oval office.	2378875	1471983217384	1471983218148	SHIFT	16
4685	49895	Juppe met with the president at the Oval office.	Juppe met with the president at the Oval office.	2378874	1471983218018	1471983218119	J	74
4685	49895	Juppe met with the president at the Oval office.	Juppe met with the president at the Oval office.	2378876	1471983218436	1471983218555	u	85
4685	49895	Juppe met with the president at the Oval office.	Juppe met with the president at the Oval office.	2378877	1471983218609	1471983218708	p	80
4685	49895	Juppe met with the president at the Oval office.	Juppe met with the president at the Oval office.	2378879	1471983218755	1471983218857	p	80
4685	49895	Juppe met with the president at the Oval office.	Juppe met with the president at the Oval office.	2378881	1471983218876	1471983218981	e	69
4685	49895	Juppe met with the president at the Oval office.	Juppe met with the president at the Oval office.	2378922	1471983219010	1471983219095	 	32
4685	49895	Juppe met with the president at the Oval office.	Juppe met with the president at the Oval office.	2378927	1471983219445	1471983219538	m	77
4685	49895	Juppe met with the president at the Oval office.	Juppe met with the president at the Oval office.	2378932	1471983219578	1471983219728	e	69
4685	49895	Juppe met with the president at the Oval office.	Juppe met with the president at the Oval office.	2378935	1471983219789	1471983219918	t	84
4685	49895	Juppe met with the president at the Oval office.	Juppe met with the president at the Oval office.	2379017	1471983219914	1471983220021	 	32
4685	49895	Juppe met with the president at the Oval office.	Juppe met with the president at the Oval office.	2379021	1471983220572	1471983220692	w	87
4685	49895	Juppe met with the president at the Oval office.	Juppe met with the president at the Oval office.	2379024	1471983220697	1471983220832	i	73
4685	49895	Juppe met with the president at the Oval office.	Juppe met with the president at the Oval office.	2379027	1471983220830	1471983220936	t	84
4685	49895	Juppe met with the president at the Oval office.	Juppe met with the president at the Oval office.	2379032	1471983220931	1471983221016	h	72
4685	49895	Juppe met with the president at the Oval office.	Juppe met with the president at the Oval office.	2379036	1471983221151	1471983221255	 	32
4685	49895	Juppe met with the president at the Oval office.	Juppe met with the president at the Oval office.	2379079	1471983221296	1471983221412	t	84
4685	49895	Juppe met with the president at the Oval office.	Juppe met with the president at the Oval office.	2379080	1471983221442	1471983221530	h	72
4685	49895	Juppe met with the president at the Oval office.	Juppe met with the president at the Oval office.	2379083	1471983221612	1471983221753	e	69
4685	49895	Juppe met with the president at the Oval office.	Juppe met with the president at the Oval office.	2379088	1471983221742	1471983221827	 	32
4685	49895	Juppe met with the president at the Oval office.	Juppe met with the president at the Oval office.	2379091	1471983222722	1471983222839	p	80
4685	49895	Juppe met with the president at the Oval office.	Juppe met with the president at the Oval office.	2379119	1471983222875	1471983223016	r	82
4685	49895	Juppe met with the president at the Oval office.	Juppe met with the president at the Oval office.	2379123	1471983223048	1471983223159	e	69
4685	49895	Juppe met with the president at the Oval office.	Juppe met with the president at the Oval office.	2379126	1471983223354	1471983223481	s	83
4685	49895	Juppe met with the president at the Oval office.	Juppe met with the president at the Oval office.	2379129	1471983223537	1471983223654	i	73
4685	49895	Juppe met with the president at the Oval office.	Juppe met with the president at the Oval office.	2379131	1471983223814	1471983223948	d	68
4685	49895	Juppe met with the president at the Oval office.	Juppe met with the president at the Oval office.	2379185	1471983223981	1471983224127	e	69
4685	49895	Juppe met with the president at the Oval office.	Juppe met with the president at the Oval office.	2379187	1471983224102	1471983224206	n	78
4685	49895	Juppe met with the president at the Oval office.	Juppe met with the president at the Oval office.	2379190	1471983224219	1471983224350	t	84
4685	49895	Juppe met with the president at the Oval office.	Juppe met with the president at the Oval office.	2379192	1471983224379	1471983224476	 	32
4685	49895	Juppe met with the president at the Oval office.	Juppe met with the president at the Oval office.	2379194	1471983225044	1471983225206	a	65
4685	49895	Juppe met with the president at the Oval office.	Juppe met with the president at the Oval office.	2379233	1471983225201	1471983225301	t	84
4685	49895	Juppe met with the president at the Oval office.	Juppe met with the president at the Oval office.	2379237	1471983225421	1471983225554	 	32
4685	49895	Juppe met with the president at the Oval office.	Juppe met with the president at the Oval office.	2379243	1471983225626	1471983225773	t	84
4685	49895	Juppe met with the president at the Oval office.	Juppe met with the president at the Oval office.	2379248	1471983225759	1471983225871	h	72
4685	49895	Juppe met with the president at the Oval office.	Juppe met with the president at the Oval office.	2379252	1471983225883	1471983226038	e	69
4685	49895	Juppe met with the president at the Oval office.	Juppe met with the president at the Oval office.	2379351	1471983226008	1471983226113	 	32
4685	49895	Juppe met with the president at the Oval office.	Juppe met with the president at the Oval office.	2379362	1471983226709	1471983227066	SHIFT	16
4685	49895	Juppe met with the president at the Oval office.	Juppe met with the president at the Oval office.	2379356	1471983226896	1471983226998	O	79
4685	49895	Juppe met with the president at the Oval office.	Juppe met with the president at the Oval office.	2379367	1471983227600	1471983227694	v	86
4685	49895	Juppe met with the president at the Oval office.	Juppe met with the president at the Oval office.	2379371	1471983227728	1471983227886	a	65
4685	49895	Juppe met with the president at the Oval office.	Juppe met with the president at the Oval office.	2379373	1471983227945	1471983228125	l	76
4685	49895	Juppe met with the president at the Oval office.	Juppe met with the president at the Oval office.	2379375	1471983228224	1471983228347	 	32
4685	49895	Juppe met with the president at the Oval office.	Juppe met with the president at the Oval office.	2379417	1471983229045	1471983229181	o	79
4685	49895	Juppe met with the president at the Oval office.	Juppe met with the president at the Oval office.	2379420	1471983229195	1471983229288	f	70
4685	49895	Juppe met with the president at the Oval office.	Juppe met with the president at the Oval office.	2379422	1471983229367	1471983229448	f	70
4685	49895	Juppe met with the president at the Oval office.	Juppe met with the president at the Oval office.	2379429	1471983229480	1471983229608	i	73
4685	49895	Juppe met with the president at the Oval office.	Juppe met with the president at the Oval office.	2379431	1471983229650	1471983229763	c	67
4685	49895	Juppe met with the president at the Oval office.	Juppe met with the president at the Oval office.	2379446	1471983229758	1471983229901	e	69
4685	49895	Juppe met with the president at the Oval office.	Juppe met with the president at the Oval office.	2379448	1471983230039	1471983230137	.	190
4685	49913	Call me if you have any questions.	Call me if you have any questions.	2379585	1471983232809	1471983233227	SHIFT	16
4685	49913	Call me if you have any questions.	Call me if you have any questions.	2379579	1471983233001	1471983233162	C	67
4685	49913	Call me if you have any questions.	Call me if you have any questions.	2379591	1471983233438	1471983233569	a	65
4685	49913	Call me if you have any questions.	Call me if you have any questions.	2379597	1471983233618	1471983233719	l	76
4685	49913	Call me if you have any questions.	Call me if you have any questions.	2379602	1471983233784	1471983233886	l	76
4685	49913	Call me if you have any questions.	Call me if you have any questions.	2379607	1471983234022	1471983234116	 	32
4685	49913	Call me if you have any questions.	Call me if you have any questions.	2379645	1471983234446	1471983234550	m	77
4685	49913	Call me if you have any questions.	Call me if you have any questions.	2379647	1471983234565	1471983234675	e	69
4685	49913	Call me if you have any questions.	Call me if you have any questions.	2379650	1471983234665	1471983234769	 	32
4685	49913	Call me if you have any questions.	Call me if you have any questions.	2379653	1471983235064	1471983235165	i	73
4685	49913	Call me if you have any questions.	Call me if you have any questions.	2379656	1471983235198	1471983235309	f	70
4685	49913	Call me if you have any questions.	Call me if you have any questions.	2379714	1471983235272	1471983235374	 	32
4685	49913	Call me if you have any questions.	Call me if you have any questions.	2379718	1471983235964	1471983236076	y	89
4685	49913	Call me if you have any questions.	Call me if you have any questions.	2379722	1471983236133	1471983236237	o	79
4685	49913	Call me if you have any questions.	Call me if you have any questions.	2379726	1471983236317	1471983236442	u	85
4685	49913	Call me if you have any questions.	Call me if you have any questions.	2379729	1471983236727	1471983236842	 	32
4685	49913	Call me if you have any questions.	Call me if you have any questions.	2379733	1471983237112	1471983237189	h	72
4685	49913	Call me if you have any questions.	Call me if you have any questions.	2379754	1471983237161	1471983237317	a	65
4685	49913	Call me if you have any questions.	Call me if you have any questions.	2379756	1471983237331	1471983237409	v	86
4685	49913	Call me if you have any questions.	Call me if you have any questions.	2379758	1471983237441	1471983237542	e	69
4685	49913	Call me if you have any questions.	Call me if you have any questions.	2379760	1471983237589	1471983237660	 	32
4685	49913	Call me if you have any questions.	Call me if you have any questions.	2379762	1471983237934	1471983238058	a	65
4685	49913	Call me if you have any questions.	Call me if you have any questions.	2379800	1471983238038	1471983238167	n	78
4685	49913	Call me if you have any questions.	Call me if you have any questions.	2379802	1471983238233	1471983238340	y	89
4685	49913	Call me if you have any questions.	Call me if you have any questions.	2379805	1471983238420	1471983238516	 	32
4685	49913	Call me if you have any questions.	Call me if you have any questions.	2379808	1471983238855	1471983238986	q	81
4685	49913	Call me if you have any questions.	Call me if you have any questions.	2379812	1471983238999	1471983239123	u	85
4685	49913	Call me if you have any questions.	Call me if you have any questions.	2379816	1471983239440	1471983239525	e	69
4685	49913	Call me if you have any questions.	Call me if you have any questions.	2379834	1471983239664	1471983239752	s	83
4685	49913	Call me if you have any questions.	Call me if you have any questions.	2379836	1471983239868	1471983239967	t	84
4685	49913	Call me if you have any questions.	Call me if you have any questions.	2379838	1471983239934	1471983240081	i	73
4685	49913	Call me if you have any questions.	Call me if you have any questions.	2379839	1471983240128	1471983240264	o	79
4685	49913	Call me if you have any questions.	Call me if you have any questions.	2379840	1471983240317	1471983240395	n	78
4685	49913	Call me if you have any questions.	Call me if you have any questions.	2379882	1471983240433	1471983240559	s	83
4685	49913	Call me if you have any questions.	Call me if you have any questions.	2379883	1471983240787	1471983240880	.	190
4685	49924	We are all fragile.	We are all fragile.	2380047	1471983244114	1471983244617	SHIFT	16
4685	49924	We are all fragile.	We are all fragile.	2380044	1471983244421	1471983244604	W	87
4685	49924	We are all fragile.	We are all fragile.	2380051	1471983244747	1471983244902	e	69
4685	49924	We are all fragile.	We are all fragile.	2380054	1471983245259	1471983245379	 	32
4685	49924	We are all fragile.	We are all fragile.	2380058	1471983245593	1471983245774	a	65
4685	49924	We are all fragile.	We are all fragile.	2380061	1471983246020	1471983246120	r	82
4685	49924	We are all fragile.	We are all fragile.	2380100	1471983246164	1471983246264	e	69
4685	49924	We are all fragile.	We are all fragile.	2380106	1471983246297	1471983246391	 	32
4685	49924	We are all fragile.	We are all fragile.	2380110	1471983246461	1471983246597	a	65
4685	49924	We are all fragile.	We are all fragile.	2380115	1471983246643	1471983246733	l	76
4685	49924	We are all fragile.	We are all fragile.	2380119	1471983246818	1471983246912	l	76
4685	49924	We are all fragile.	We are all fragile.	2380168	1471983247069	1471983247169	 	32
4685	49924	We are all fragile.	We are all fragile.	2380171	1471983247955	1471983248044	f	70
4685	49924	We are all fragile.	We are all fragile.	2380175	1471983248119	1471983248200	r	82
4685	49924	We are all fragile.	We are all fragile.	2380176	1471983248221	1471983248351	a	65
4685	49924	We are all fragile.	We are all fragile.	2380178	1471983248407	1471983248481	g	71
4685	49924	We are all fragile.	We are all fragile.	2380208	1471983248812	1471983248916	i	73
4685	49924	We are all fragile.	We are all fragile.	2380211	1471983248997	1471983249118	l	76
4685	49924	We are all fragile.	We are all fragile.	2380214	1471983249145	1471983249245	e	69
4685	49924	We are all fragile.	We are all fragile.	2380216	1471983249284	1471983249392	.	190
4685	49928	Hours are listed in 24hr format central time.	Hours are listed in 24hr format central time.	2380316	1471983251723	1471983252052	SHIFT	16
4685	49928	Hours are listed in 24hr format central time.	Hours are listed in 24hr format central time.	2380314	1471983251904	1471983252009	H	72
4685	49928	Hours are listed in 24hr format central time.	Hours are listed in 24hr format central time.	2380318	1471983252316	1471983252440	o	79
4685	49928	Hours are listed in 24hr format central time.	Hours are listed in 24hr format central time.	2380320	1471983252491	1471983252594	u	85
4685	49928	Hours are listed in 24hr format central time.	Hours are listed in 24hr format central time.	2380323	1471983252577	1471983252689	r	82
4685	49928	Hours are listed in 24hr format central time.	Hours are listed in 24hr format central time.	2380326	1471983252799	1471983252936	s	83
4685	49928	Hours are listed in 24hr format central time.	Hours are listed in 24hr format central time.	2380357	1471983252995	1471983253096	 	32
4685	49928	Hours are listed in 24hr format central time.	Hours are listed in 24hr format central time.	2380358	1471983253292	1471983253412	a	65
4685	49928	Hours are listed in 24hr format central time.	Hours are listed in 24hr format central time.	2380359	1471983253538	1471983253653	r	82
4685	49928	Hours are listed in 24hr format central time.	Hours are listed in 24hr format central time.	2380360	1471983253680	1471983253816	e	69
4685	49928	Hours are listed in 24hr format central time.	Hours are listed in 24hr format central time.	2380429	1471983253809	1471983253907	 	32
4685	49928	Hours are listed in 24hr format central time.	Hours are listed in 24hr format central time.	2380432	1471983254532	1471983254645	l	76
4685	49928	Hours are listed in 24hr format central time.	Hours are listed in 24hr format central time.	2380439	1471983254750	1471983254846	i	73
4685	49928	Hours are listed in 24hr format central time.	Hours are listed in 24hr format central time.	2380443	1471983254878	1471983254986	s	83
4685	49928	Hours are listed in 24hr format central time.	Hours are listed in 24hr format central time.	2380446	1471983255124	1471983255255	t	84
4685	49928	Hours are listed in 24hr format central time.	Hours are listed in 24hr format central time.	2380450	1471983255313	1471983255441	e	69
4685	49928	Hours are listed in 24hr format central time.	Hours are listed in 24hr format central time.	2380484	1471983255513	1471983255624	d	68
4685	49928	Hours are listed in 24hr format central time.	Hours are listed in 24hr format central time.	2380485	1471983255689	1471983255791	 	32
4685	49928	Hours are listed in 24hr format central time.	Hours are listed in 24hr format central time.	2380487	1471983256243	1471983256358	i	73
4685	49928	Hours are listed in 24hr format central time.	Hours are listed in 24hr format central time.	2380489	1471983256439	1471983256534	n	78
4685	49928	Hours are listed in 24hr format central time.	Hours are listed in 24hr format central time.	2380492	1471983256615	1471983256716	 	32
4685	49928	Hours are listed in 24hr format central time.	Hours are listed in 24hr format central time.	2380550	1471983257268	1471983257385	2	50
4685	49928	Hours are listed in 24hr format central time.	Hours are listed in 24hr format central time.	2380552	1471983257448	1471983257545	4	52
4685	49928	Hours are listed in 24hr format central time.	Hours are listed in 24hr format central time.	2380554	1471983257872	1471983257966	h	72
4685	49928	Hours are listed in 24hr format central time.	Hours are listed in 24hr format central time.	2380556	1471983257996	1471983258109	r	82
4685	49928	Hours are listed in 24hr format central time.	Hours are listed in 24hr format central time.	2380558	1471983258724	1471983258801	 	32
4685	49928	Hours are listed in 24hr format central time.	Hours are listed in 24hr format central time.	2380577	1471983259259	1471983259362	f	70
4685	49928	Hours are listed in 24hr format central time.	Hours are listed in 24hr format central time.	2380579	1471983259376	1471983259491	o	79
4685	49928	Hours are listed in 24hr format central time.	Hours are listed in 24hr format central time.	2380581	1471983259486	1471983259575	r	82
4685	49928	Hours are listed in 24hr format central time.	Hours are listed in 24hr format central time.	2380583	1471983259722	1471983259864	m	77
4685	49928	Hours are listed in 24hr format central time.	Hours are listed in 24hr format central time.	2380584	1471983259916	1471983260061	a	65
4685	49928	Hours are listed in 24hr format central time.	Hours are listed in 24hr format central time.	2380631	1471983260154	1471983260256	t	84
4685	49928	Hours are listed in 24hr format central time.	Hours are listed in 24hr format central time.	2380633	1471983260552	1471983260647	 	32
4685	49928	Hours are listed in 24hr format central time.	Hours are listed in 24hr format central time.	2380636	1471983261195	1471983261339	c	67
4685	49928	Hours are listed in 24hr format central time.	Hours are listed in 24hr format central time.	2380637	1471983261450	1471983261551	e	69
4685	49928	Hours are listed in 24hr format central time.	Hours are listed in 24hr format central time.	2380638	1471983261592	1471983261687	n	78
4685	49928	Hours are listed in 24hr format central time.	Hours are listed in 24hr format central time.	2380682	1471983261727	1471983261835	t	84
4685	49928	Hours are listed in 24hr format central time.	Hours are listed in 24hr format central time.	2380683	1471983262029	1471983262141	r	69
4685	49928	Hours are listed in 24hr format central time.	Hours are listed in 24hr format central time.	2380684	1471983262839	1471983262928	BKSP	8
4685	49928	Hours are listed in 24hr format central time.	Hours are listed in 24hr format central time.	2380685	1471983263091	1471983263208	BKSP	8
4685	49928	Hours are listed in 24hr format central time.	Hours are listed in 24hr format central time.	2380686	1471983263651	1471983263763	r	82
4685	49928	Hours are listed in 24hr format central time.	Hours are listed in 24hr format central time.	2380687	1471983263839	1471983263972	a	65
4685	49928	Hours are listed in 24hr format central time.	Hours are listed in 24hr format central time.	2380725	1471983263964	1471983264066	l	76
4685	49928	Hours are listed in 24hr format central time.	Hours are listed in 24hr format central time.	2380726	1471983264386	1471983264474	 	32
4685	49928	Hours are listed in 24hr format central time.	Hours are listed in 24hr format central time.	2380728	1471983264900	1471983264995	t	84
4685	49928	Hours are listed in 24hr format central time.	Hours are listed in 24hr format central time.	2380730	1471983265005	1471983265123	i	73
4685	49928	Hours are listed in 24hr format central time.	Hours are listed in 24hr format central time.	2380733	1471983265172	1471983265273	m	77
4685	49928	Hours are listed in 24hr format central time.	Hours are listed in 24hr format central time.	2380735	1471983265299	1471983265397	e	69
4685	49928	Hours are listed in 24hr format central time.	Hours are listed in 24hr format central time.	2380742	1471983265631	1471983265708	.	190
4685	49942	Peace talks last week in Kirghizstan.	Peace talks last week in Kirghizstan.	2380835	1471983267773	1471983268026	SHIFT	16
4685	49942	Peace talks last week in Kirghizstan.	Peace talks last week in Kirghizstan.	2380837	1471983267940	1471983268055	P	80
4685	49942	Peace talks last week in Kirghizstan.	Peace talks last week in Kirghizstan.	2380840	1471983268250	1471983268363	e	69
4685	49942	Peace talks last week in Kirghizstan.	Peace talks last week in Kirghizstan.	2380843	1471983268598	1471983268717	a	65
4685	49942	Peace talks last week in Kirghizstan.	Peace talks last week in Kirghizstan.	2380845	1471983268776	1471983268886	c	67
4685	49942	Peace talks last week in Kirghizstan.	Peace talks last week in Kirghizstan.	2380847	1471983268909	1471983269031	e	69
4685	49942	Peace talks last week in Kirghizstan.	Peace talks last week in Kirghizstan.	2380867	1471983269064	1471983269162	 	32
4685	49942	Peace talks last week in Kirghizstan.	Peace talks last week in Kirghizstan.	2380868	1471983269728	1471983269840	t	84
4685	49942	Peace talks last week in Kirghizstan.	Peace talks last week in Kirghizstan.	2380869	1471983269869	1471983270010	a	65
4685	49942	Peace talks last week in Kirghizstan.	Peace talks last week in Kirghizstan.	2380870	1471983270026	1471983270118	l	76
4685	49942	Peace talks last week in Kirghizstan.	Peace talks last week in Kirghizstan.	2380871	1471983270208	1471983270319	k	75
4685	49942	Peace talks last week in Kirghizstan.	Peace talks last week in Kirghizstan.	2380901	1471983270335	1471983270456	s	83
4685	49942	Peace talks last week in Kirghizstan.	Peace talks last week in Kirghizstan.	2380904	1471983270491	1471983270583	 	32
4685	49942	Peace talks last week in Kirghizstan.	Peace talks last week in Kirghizstan.	2380907	1471983271000	1471983271113	l	76
4685	49942	Peace talks last week in Kirghizstan.	Peace talks last week in Kirghizstan.	2380910	1471983271104	1471983271238	a	65
4685	49942	Peace talks last week in Kirghizstan.	Peace talks last week in Kirghizstan.	2380913	1471983271300	1471983271460	s	83
4685	49942	Peace talks last week in Kirghizstan.	Peace talks last week in Kirghizstan.	2380925	1471983271548	1471983271659	t	84
4685	49942	Peace talks last week in Kirghizstan.	Peace talks last week in Kirghizstan.	2380929	1471983271698	1471983271790	 	32
4685	49942	Peace talks last week in Kirghizstan.	Peace talks last week in Kirghizstan.	2380935	1471983271888	1471983272038	w	87
4685	49942	Peace talks last week in Kirghizstan.	Peace talks last week in Kirghizstan.	2380941	1471983272105	1471983272225	e	69
4685	49942	Peace talks last week in Kirghizstan.	Peace talks last week in Kirghizstan.	2380945	1471983272303	1471983272404	e	69
4685	49942	Peace talks last week in Kirghizstan.	Peace talks last week in Kirghizstan.	2381004	1471983272958	1471983273066	k	75
4685	49942	Peace talks last week in Kirghizstan.	Peace talks last week in Kirghizstan.	2381006	1471983273191	1471983273285	 	32
4685	49942	Peace talks last week in Kirghizstan.	Peace talks last week in Kirghizstan.	2381009	1471983273933	1471983274029	i	73
4685	49942	Peace talks last week in Kirghizstan.	Peace talks last week in Kirghizstan.	2381011	1471983274069	1471983274182	n	78
4685	49942	Peace talks last week in Kirghizstan.	Peace talks last week in Kirghizstan.	2381013	1471983274367	1471983274461	 	32
4685	49942	Peace talks last week in Kirghizstan.	Peace talks last week in Kirghizstan.	2381085	1471983274584	1471983274905	SHIFT	16
4685	49942	Peace talks last week in Kirghizstan.	Peace talks last week in Kirghizstan.	2381082	1471983274761	1471983274859	K	75
4685	49942	Peace talks last week in Kirghizstan.	Peace talks last week in Kirghizstan.	2381091	1471983275078	1471983275176	i	73
4685	49942	Peace talks last week in Kirghizstan.	Peace talks last week in Kirghizstan.	2381098	1471983275852	1471983275947	r	82
4685	49942	Peace talks last week in Kirghizstan.	Peace talks last week in Kirghizstan.	2381103	1471983276943	1471983277046	g	71
4685	49942	Peace talks last week in Kirghizstan.	Peace talks last week in Kirghizstan.	2381110	1471983277073	1471983277160	h	72
4685	49942	Peace talks last week in Kirghizstan.	Peace talks last week in Kirghizstan.	2381156	1471983277562	1471983277643	i	73
4685	49942	Peace talks last week in Kirghizstan.	Peace talks last week in Kirghizstan.	2381158	1471983278344	1471983278479	z	90
4685	49942	Peace talks last week in Kirghizstan.	Peace talks last week in Kirghizstan.	2381163	1471983278735	1471983278869	s	83
4685	49942	Peace talks last week in Kirghizstan.	Peace talks last week in Kirghizstan.	2381167	1471983278950	1471983279048	t	84
4685	49942	Peace talks last week in Kirghizstan.	Peace talks last week in Kirghizstan.	2381170	1471983279071	1471983279198	a	65
4685	49942	Peace talks last week in Kirghizstan.	Peace talks last week in Kirghizstan.	2381203	1471983279213	1471983279319	n	78
4685	49942	Peace talks last week in Kirghizstan.	Peace talks last week in Kirghizstan.	2381205	1471983280204	1471983280299	.	190
4685	49953	Both have also promised higher salaries.	Both have also promised higher salaries.	2381318	1471983282310	1471983282599	SHIFT	16
4685	49953	Both have also promised higher salaries.	Both have also promised higher salaries.	2381319	1471983282509	1471983282609	B	66
4685	49953	Both have also promised higher salaries.	Both have also promised higher salaries.	2381321	1471983282927	1471983283049	o	79
4685	49953	Both have also promised higher salaries.	Both have also promised higher salaries.	2381323	1471983283058	1471983283142	t	84
4685	49953	Both have also promised higher salaries.	Both have also promised higher salaries.	2381326	1471983283140	1471983283238	h	72
4685	49953	Both have also promised higher salaries.	Both have also promised higher salaries.	2381329	1471983283367	1471983283448	 	32
4685	49953	Both have also promised higher salaries.	Both have also promised higher salaries.	2381353	1471983283813	1471983283907	h	72
4685	49953	Both have also promised higher salaries.	Both have also promised higher salaries.	2381355	1471983283891	1471983284025	a	65
4685	49953	Both have also promised higher salaries.	Both have also promised higher salaries.	2381359	1471983284055	1471983284136	v	86
4685	49953	Both have also promised higher salaries.	Both have also promised higher salaries.	2381364	1471983284156	1471983284268	e	69
4685	49953	Both have also promised higher salaries.	Both have also promised higher salaries.	2381406	1471983284258	1471983284348	 	32
4685	49953	Both have also promised higher salaries.	Both have also promised higher salaries.	2381408	1471983284597	1471983284740	a	65
4685	49953	Both have also promised higher salaries.	Both have also promised higher salaries.	2381413	1471983284749	1471983284874	l	76
4685	49953	Both have also promised higher salaries.	Both have also promised higher salaries.	2381419	1471983284921	1471983285044	s	83
4685	49953	Both have also promised higher salaries.	Both have also promised higher salaries.	2381423	1471983285062	1471983285145	o	79
4685	49953	Both have also promised higher salaries.	Both have also promised higher salaries.	2381426	1471983285367	1471983285452	 	32
4685	49953	Both have also promised higher salaries.	Both have also promised higher salaries.	2381464	1471983286125	1471983286237	p	80
4685	49953	Both have also promised higher salaries.	Both have also promised higher salaries.	2381469	1471983286249	1471983286367	r	82
4685	49953	Both have also promised higher salaries.	Both have also promised higher salaries.	2381474	1471983286423	1471983286534	o	79
4685	49953	Both have also promised higher salaries.	Both have also promised higher salaries.	2381478	1471983286784	1471983286886	m	77
4685	49953	Both have also promised higher salaries.	Both have also promised higher salaries.	2381480	1471983286972	1471983287063	i	73
4685	49953	Both have also promised higher salaries.	Both have also promised higher salaries.	2381516	1471983287074	1471983287165	s	83
4685	49953	Both have also promised higher salaries.	Both have also promised higher salaries.	2381522	1471983287234	1471983287357	e	69
4685	49953	Both have also promised higher salaries.	Both have also promised higher salaries.	2381526	1471983287442	1471983287540	d	68
4685	49953	Both have also promised higher salaries.	Both have also promised higher salaries.	2381529	1471983287621	1471983287716	 	32
4685	49953	Both have also promised higher salaries.	Both have also promised higher salaries.	2381532	1471983288262	1471983288347	h	72
4685	49953	Both have also promised higher salaries.	Both have also promised higher salaries.	2381552	1471983288432	1471983288536	i	73
4685	49953	Both have also promised higher salaries.	Both have also promised higher salaries.	2381555	1471983288534	1471983288621	g	71
4685	49953	Both have also promised higher salaries.	Both have also promised higher salaries.	2381560	1471983288649	1471983288742	h	72
4685	49953	Both have also promised higher salaries.	Both have also promised higher salaries.	2381563	1471983288791	1471983288958	e	69
4685	49953	Both have also promised higher salaries.	Both have also promised higher salaries.	2381566	1471983288964	1471983289099	r	82
4685	49953	Both have also promised higher salaries.	Both have also promised higher salaries.	2381597	1471983289484	1471983289591	 	32
4685	49953	Both have also promised higher salaries.	Both have also promised higher salaries.	2381601	1471983289979	1471983290100	s	83
4685	49953	Both have also promised higher salaries.	Both have also promised higher salaries.	2381604	1471983290146	1471983290283	a	65
4685	49953	Both have also promised higher salaries.	Both have also promised higher salaries.	2381605	1471983290296	1471983290420	l	76
4685	49953	Both have also promised higher salaries.	Both have also promised higher salaries.	2381652	1471983290398	1471983290535	a	65
4685	49953	Both have also promised higher salaries.	Both have also promised higher salaries.	2381653	1471983290823	1471983290954	r	82
4685	49953	Both have also promised higher salaries.	Both have also promised higher salaries.	2381654	1471983291007	1471983291114	i	73
4685	49953	Both have also promised higher salaries.	Both have also promised higher salaries.	2381656	1471983291137	1471983291232	e	69
4685	49953	Both have also promised higher salaries.	Both have also promised higher salaries.	2381660	1471983291396	1471983291525	s	83
4685	49953	Both have also promised higher salaries.	Both have also promised higher salaries.	2381666	1471983292276	1471983292374	.	190
4685	49959	I vote for the latter.	I vote for the later.	2381747	1471983294373	1471983294677	SHIFT	16
4685	49959	I vote for the latter.	I vote for the later.	2381745	1471983294537	1471983294631	I	73
4685	49959	I vote for the latter.	I vote for the later.	2381750	1471983294973	1471983295076	 	32
4685	49959	I vote for the latter.	I vote for the later.	2381752	1471983295408	1471983295504	v	86
4685	49959	I vote for the latter.	I vote for the later.	2381754	1471983295584	1471983295695	o	79
4685	49959	I vote for the latter.	I vote for the later.	2381777	1471983295680	1471983295804	t	84
4685	49959	I vote for the latter.	I vote for the later.	2381780	1471983295829	1471983295947	e	69
4685	49959	I vote for the latter.	I vote for the later.	2381783	1471983295990	1471983296083	 	32
4685	49959	I vote for the latter.	I vote for the later.	2381787	1471983296415	1471983296532	f	70
4685	49959	I vote for the latter.	I vote for the later.	2381789	1471983296565	1471983296676	o	79
4685	49959	I vote for the latter.	I vote for the later.	2381791	1471983297007	1471983297141	r	82
4685	49959	I vote for the latter.	I vote for the later.	2381807	1471983297148	1471983297243	 	32
4685	49959	I vote for the latter.	I vote for the later.	2381809	1471983297272	1471983297383	t	84
4685	49959	I vote for the latter.	I vote for the later.	2381813	1471983297396	1471983297491	h	72
4685	49959	I vote for the latter.	I vote for the later.	2381816	1471983297514	1471983297628	e	69
4685	49959	I vote for the latter.	I vote for the later.	2381818	1471983297643	1471983297732	 	32
4685	49959	I vote for the latter.	I vote for the later.	2381854	1471983298059	1471983298223	l	76
4685	49959	I vote for the latter.	I vote for the later.	2381856	1471983298154	1471983298298	a	65
4685	49959	I vote for the latter.	I vote for the later.	2381861	1471983298366	1471983298487	t	84
4685	49959	I vote for the latter.	I vote for the later.	2381866	1471983298532	1471983298722	e	69
4685	49959	I vote for the latter.	I vote for the later.	2381869	1471983298751	1471983298885	r	82
4685	49959	I vote for the latter.	I vote for the later.	2381882	1471983299091	1471983299188	.	190
4685	49968	This is all so unreal.	This is all so unreal.	2382021	1471983301306	1471983302750	SHIFT	16
4685	49968	This is all so unreal.	This is all so unreal.	2382020	1471983302553	1471983302685	T	84
4685	49968	This is all so unreal.	This is all so unreal.	2382022	1471983302958	1471983303056	h	72
4685	49968	This is all so unreal.	This is all so unreal.	2382023	1471983303115	1471983303206	i	73
4685	49968	This is all so unreal.	This is all so unreal.	2382024	1471983303190	1471983303321	s	83
4685	49968	This is all so unreal.	This is all so unreal.	2382025	1471983303356	1471983303432	 	32
4685	49968	This is all so unreal.	This is all so unreal.	2382094	1471983303947	1471983304019	o	79
4685	49968	This is all so unreal.	This is all so unreal.	2382098	1471983304080	1471983304198	s	83
4685	49968	This is all so unreal.	This is all so unreal.	2382102	1471983304800	1471983304906	BKSP	8
4685	49968	This is all so unreal.	This is all so unreal.	2382105	1471983304966	1471983305063	BKSP	8
4685	49968	This is all so unreal.	This is all so unreal.	2382108	1471983305329	1471983305438	i	73
4685	49968	This is all so unreal.	This is all so unreal.	2382114	1471983305435	1471983305549	s	83
4685	49968	This is all so unreal.	This is all so unreal.	2382117	1471983305571	1471983305657	 	32
4685	49968	This is all so unreal.	This is all so unreal.	2382140	1471983306061	1471983306183	a	65
4685	49968	This is all so unreal.	This is all so unreal.	2382142	1471983306212	1471983306298	l	76
4685	49968	This is all so unreal.	This is all so unreal.	2382145	1471983306364	1471983306451	l	76
4685	49968	This is all so unreal.	This is all so unreal.	2382149	1471983306663	1471983306739	 	32
4685	49968	This is all so unreal.	This is all so unreal.	2382151	1471983307068	1471983307176	s	83
4685	49968	This is all so unreal.	This is all so unreal.	2382173	1471983307192	1471983307289	o	79
4685	49968	This is all so unreal.	This is all so unreal.	2382176	1471983307394	1471983307487	 	32
4685	49968	This is all so unreal.	This is all so unreal.	2382178	1471983307902	1471983308004	u	85
4685	49968	This is all so unreal.	This is all so unreal.	2382179	1471983308049	1471983308158	n	78
4685	49968	This is all so unreal.	This is all so unreal.	2382180	1471983308184	1471983308321	r	82
4685	49968	This is all so unreal.	This is all so unreal.	2382206	1471983308397	1471983308527	e	69
4685	49968	This is all so unreal.	This is all so unreal.	2382207	1471983308632	1471983308788	a	65
4685	49968	This is all so unreal.	This is all so unreal.	2382210	1471983308809	1471983308903	l	76
4685	49968	This is all so unreal.	This is all so unreal.	2382214	1471983309255	1471983309339	.	190
4685	49977	The matter was still being investigated.	The matter was still being investigated.	2382365	1471983311606	1471983312066	SHIFT	16
4685	49977	The matter was still being investigated.	The matter was still being investigated.	2382361	1471983311885	1471983312007	T	84
4685	49977	The matter was still being investigated.	The matter was still being investigated.	2382370	1471983312317	1471983312412	h	72
4685	49977	The matter was still being investigated.	The matter was still being investigated.	2382375	1471983312399	1471983312513	e	69
4685	49977	The matter was still being investigated.	The matter was still being investigated.	2382380	1471983312555	1471983312644	 	32
4685	49977	The matter was still being investigated.	The matter was still being investigated.	2382385	1471983313033	1471983313129	m	77
4685	49977	The matter was still being investigated.	The matter was still being investigated.	2382435	1471983313119	1471983313234	a	65
4685	49977	The matter was still being investigated.	The matter was still being investigated.	2382437	1471983313375	1471983313481	t	84
4685	49977	The matter was still being investigated.	The matter was still being investigated.	2382440	1471983313533	1471983313640	t	84
4685	49977	The matter was still being investigated.	The matter was still being investigated.	2382444	1471983313682	1471983313831	e	69
4685	49977	The matter was still being investigated.	The matter was still being investigated.	2382450	1471983313829	1471983313957	r	82
4685	49977	The matter was still being investigated.	The matter was still being investigated.	2382455	1471983314006	1471983314097	 	32
4685	49977	The matter was still being investigated.	The matter was still being investigated.	2382505	1471983314422	1471983314536	w	87
4685	49977	The matter was still being investigated.	The matter was still being investigated.	2382508	1471983314623	1471983314746	a	65
4685	49977	The matter was still being investigated.	The matter was still being investigated.	2382515	1471983314768	1471983314913	s	83
4685	49977	The matter was still being investigated.	The matter was still being investigated.	2382523	1471983314932	1471983315040	 	32
4685	49977	The matter was still being investigated.	The matter was still being investigated.	2382529	1471983315244	1471983315358	s	83
4685	49977	The matter was still being investigated.	The matter was still being investigated.	2382566	1471983315559	1471983315687	t	84
4685	49977	The matter was still being investigated.	The matter was still being investigated.	2382567	1471983315767	1471983315876	i	73
4685	49977	The matter was still being investigated.	The matter was still being investigated.	2382568	1471983315984	1471983316105	l	76
4685	49977	The matter was still being investigated.	The matter was still being investigated.	2382569	1471983316164	1471983316271	l	76
4685	49977	The matter was still being investigated.	The matter was still being investigated.	2382570	1471983316442	1471983316541	 	32
4685	49977	The matter was still being investigated.	The matter was still being investigated.	2382608	1471983316960	1471983317042	b	66
4685	49977	The matter was still being investigated.	The matter was still being investigated.	2382610	1471983317059	1471983317170	e	69
4685	49977	The matter was still being investigated.	The matter was still being investigated.	2382612	1471983317175	1471983317267	i	73
4685	49977	The matter was still being investigated.	The matter was still being investigated.	2382614	1471983317333	1471983317424	n	78
4685	49977	The matter was still being investigated.	The matter was still being investigated.	2382616	1471983317431	1471983317536	g	71
4685	49977	The matter was still being investigated.	The matter was still being investigated.	2382659	1471983317547	1471983317633	 	32
4685	49977	The matter was still being investigated.	The matter was still being investigated.	2382661	1471983317754	1471983317853	i	73
4685	49977	The matter was still being investigated.	The matter was still being investigated.	2382663	1471983317934	1471983318042	n	78
4685	49977	The matter was still being investigated.	The matter was still being investigated.	2382666	1471983318480	1471983318567	v	86
4685	49977	The matter was still being investigated.	The matter was still being investigated.	2382671	1471983318586	1471983318678	e	69
4685	49977	The matter was still being investigated.	The matter was still being investigated.	2382756	1471983318817	1471983318965	s	83
4685	49977	The matter was still being investigated.	The matter was still being investigated.	2382759	1471983319595	1471983319722	t	84
4685	49977	The matter was still being investigated.	The matter was still being investigated.	2382761	1471983319765	1471983319899	i	73
4685	49977	The matter was still being investigated.	The matter was still being investigated.	2382763	1471983320284	1471983320398	g	71
4685	49977	The matter was still being investigated.	The matter was still being investigated.	2382766	1471983320404	1471983320528	a	65
4685	49977	The matter was still being investigated.	The matter was still being investigated.	2382856	1471983320508	1471983320601	t	84
4685	49977	The matter was still being investigated.	The matter was still being investigated.	2382859	1471983320939	1471983321057	e	69
4685	49977	The matter was still being investigated.	The matter was still being investigated.	2382863	1471983321232	1471983321340	d	68
4685	49977	The matter was still being investigated.	The matter was still being investigated.	2382868	1471983321803	1471983321885	.	190
4685	49991	Clinton on the other hand, had backed a plan to convince Europe.	Clinton on the other hand, had backed a plan to convince Europe.	2383044	1471983324094	1471983324699	SHIFT	16
4685	49991	Clinton on the other hand, had backed a plan to convince Europe.	Clinton on the other hand, had backed a plan to convince Europe.	2383041	1471983324530	1471983324634	C	67
4685	49991	Clinton on the other hand, had backed a plan to convince Europe.	Clinton on the other hand, had backed a plan to convince Europe.	2383046	1471983324961	1471983325085	l	76
4685	49991	Clinton on the other hand, had backed a plan to convince Europe.	Clinton on the other hand, had backed a plan to convince Europe.	2383047	1471983325168	1471983325258	i	73
4685	49991	Clinton on the other hand, had backed a plan to convince Europe.	Clinton on the other hand, had backed a plan to convince Europe.	2383048	1471983325324	1471983325420	n	78
4685	49991	Clinton on the other hand, had backed a plan to convince Europe.	Clinton on the other hand, had backed a plan to convince Europe.	2383049	1471983325471	1471983325561	t	84
4685	49991	Clinton on the other hand, had backed a plan to convince Europe.	Clinton on the other hand, had backed a plan to convince Europe.	2383108	1471983325623	1471983325725	o	79
4685	49991	Clinton on the other hand, had backed a plan to convince Europe.	Clinton on the other hand, had backed a plan to convince Europe.	2383111	1471983325823	1471983325925	n	78
4685	49991	Clinton on the other hand, had backed a plan to convince Europe.	Clinton on the other hand, had backed a plan to convince Europe.	2383114	1471983326130	1471983326235	 	32
4685	49991	Clinton on the other hand, had backed a plan to convince Europe.	Clinton on the other hand, had backed a plan to convince Europe.	2383118	1471983326534	1471983326658	o	79
4685	49991	Clinton on the other hand, had backed a plan to convince Europe.	Clinton on the other hand, had backed a plan to convince Europe.	2383123	1471983326731	1471983326816	n	78
4685	49991	Clinton on the other hand, had backed a plan to convince Europe.	Clinton on the other hand, had backed a plan to convince Europe.	2383137	1471983326910	1471983327004	 	32
4685	49991	Clinton on the other hand, had backed a plan to convince Europe.	Clinton on the other hand, had backed a plan to convince Europe.	2383140	1471983327058	1471983327157	t	84
4685	49991	Clinton on the other hand, had backed a plan to convince Europe.	Clinton on the other hand, had backed a plan to convince Europe.	2383147	1471983327147	1471983327239	h	72
4685	49991	Clinton on the other hand, had backed a plan to convince Europe.	Clinton on the other hand, had backed a plan to convince Europe.	2383153	1471983327273	1471983327404	e	69
4685	49991	Clinton on the other hand, had backed a plan to convince Europe.	Clinton on the other hand, had backed a plan to convince Europe.	2383191	1471983327385	1471983327491	 	32
4685	49991	Clinton on the other hand, had backed a plan to convince Europe.	Clinton on the other hand, had backed a plan to convince Europe.	2383193	1471983327813	1471983327954	o	79
4685	49991	Clinton on the other hand, had backed a plan to convince Europe.	Clinton on the other hand, had backed a plan to convince Europe.	2383196	1471983327927	1471983328068	t	84
4685	49991	Clinton on the other hand, had backed a plan to convince Europe.	Clinton on the other hand, had backed a plan to convince Europe.	2383197	1471983328048	1471983328146	h	72
4685	49991	Clinton on the other hand, had backed a plan to convince Europe.	Clinton on the other hand, had backed a plan to convince Europe.	2383199	1471983328156	1471983328342	e	69
4685	49991	Clinton on the other hand, had backed a plan to convince Europe.	Clinton on the other hand, had backed a plan to convince Europe.	2383267	1471983328309	1471983328443	r	82
4685	49991	Clinton on the other hand, had backed a plan to convince Europe.	Clinton on the other hand, had backed a plan to convince Europe.	2383270	1471983328450	1471983328554	 	32
4685	49991	Clinton on the other hand, had backed a plan to convince Europe.	Clinton on the other hand, had backed a plan to convince Europe.	2383273	1471983329191	1471983329289	h	72
4685	49991	Clinton on the other hand, had backed a plan to convince Europe.	Clinton on the other hand, had backed a plan to convince Europe.	2383276	1471983329305	1471983329466	a	65
4685	49991	Clinton on the other hand, had backed a plan to convince Europe.	Clinton on the other hand, had backed a plan to convince Europe.	2383280	1471983329518	1471983329613	n	78
4685	49991	Clinton on the other hand, had backed a plan to convince Europe.	Clinton on the other hand, had backed a plan to convince Europe.	2383284	1471983329646	1471983329746	d	68
4685	49991	Clinton on the other hand, had backed a plan to convince Europe.	Clinton on the other hand, had backed a plan to convince Europe.	2383362	1471983329947	1471983330046	,	188
4685	49991	Clinton on the other hand, had backed a plan to convince Europe.	Clinton on the other hand, had backed a plan to convince Europe.	2383363	1471983330195	1471983330299	 	32
4685	49991	Clinton on the other hand, had backed a plan to convince Europe.	Clinton on the other hand, had backed a plan to convince Europe.	2383366	1471983330893	1471983330977	h	72
4685	49991	Clinton on the other hand, had backed a plan to convince Europe.	Clinton on the other hand, had backed a plan to convince Europe.	2383369	1471983330997	1471983331128	a	65
4685	49991	Clinton on the other hand, had backed a plan to convince Europe.	Clinton on the other hand, had backed a plan to convince Europe.	2383371	1471983331197	1471983331343	d	68
4685	49991	Clinton on the other hand, had backed a plan to convince Europe.	Clinton on the other hand, had backed a plan to convince Europe.	2383426	1471983331404	1471983331477	 	32
4685	49991	Clinton on the other hand, had backed a plan to convince Europe.	Clinton on the other hand, had backed a plan to convince Europe.	2383428	1471983331971	1471983332067	b	66
4685	49991	Clinton on the other hand, had backed a plan to convince Europe.	Clinton on the other hand, had backed a plan to convince Europe.	2383430	1471983332090	1471983332248	a	65
4685	49991	Clinton on the other hand, had backed a plan to convince Europe.	Clinton on the other hand, had backed a plan to convince Europe.	2383435	1471983332342	1471983332447	c	67
4685	49991	Clinton on the other hand, had backed a plan to convince Europe.	Clinton on the other hand, had backed a plan to convince Europe.	2383443	1471983332466	1471983332575	k	75
4685	49991	Clinton on the other hand, had backed a plan to convince Europe.	Clinton on the other hand, had backed a plan to convince Europe.	2383548	1471983332658	1471983332701	e	51
4685	49991	Clinton on the other hand, had backed a plan to convince Europe.	Clinton on the other hand, had backed a plan to convince Europe.	2383551	1471983333394	1471983333494	BKSP	8
4685	49991	Clinton on the other hand, had backed a plan to convince Europe.	Clinton on the other hand, had backed a plan to convince Europe.	2383556	1471983333533	1471983333645	BKSP	8
4685	49991	Clinton on the other hand, had backed a plan to convince Europe.	Clinton on the other hand, had backed a plan to convince Europe.	2383561	1471983334008	1471983334108	e	69
4685	49991	Clinton on the other hand, had backed a plan to convince Europe.	Clinton on the other hand, had backed a plan to convince Europe.	2383565	1471983334187	1471983334314	d	68
4685	49991	Clinton on the other hand, had backed a plan to convince Europe.	Clinton on the other hand, had backed a plan to convince Europe.	2383568	1471983334371	1471983334490	 	32
4685	49991	Clinton on the other hand, had backed a plan to convince Europe.	Clinton on the other hand, had backed a plan to convince Europe.	2383631	1471983334655	1471983334797	a	65
4685	49991	Clinton on the other hand, had backed a plan to convince Europe.	Clinton on the other hand, had backed a plan to convince Europe.	2383634	1471983334781	1471983334905	 	32
4685	49991	Clinton on the other hand, had backed a plan to convince Europe.	Clinton on the other hand, had backed a plan to convince Europe.	2383637	1471983335423	1471983335544	p	80
4685	49991	Clinton on the other hand, had backed a plan to convince Europe.	Clinton on the other hand, had backed a plan to convince Europe.	2383639	1471983335627	1471983335734	l	76
4685	49991	Clinton on the other hand, had backed a plan to convince Europe.	Clinton on the other hand, had backed a plan to convince Europe.	2383696	1471983335729	1471983335859	a	65
4685	49991	Clinton on the other hand, had backed a plan to convince Europe.	Clinton on the other hand, had backed a plan to convince Europe.	2383698	1471983335850	1471983335945	n	78
4685	49991	Clinton on the other hand, had backed a plan to convince Europe.	Clinton on the other hand, had backed a plan to convince Europe.	2383704	1471983336099	1471983336166	 	32
4685	49991	Clinton on the other hand, had backed a plan to convince Europe.	Clinton on the other hand, had backed a plan to convince Europe.	2383709	1471983336802	1471983336916	t	84
4685	49991	Clinton on the other hand, had backed a plan to convince Europe.	Clinton on the other hand, had backed a plan to convince Europe.	2383715	1471983336905	1471983336991	o	79
4685	49991	Clinton on the other hand, had backed a plan to convince Europe.	Clinton on the other hand, had backed a plan to convince Europe.	2383719	1471983337091	1471983337190	 	32
4685	49991	Clinton on the other hand, had backed a plan to convince Europe.	Clinton on the other hand, had backed a plan to convince Europe.	2383742	1471983337288	1471983337394	c	67
4685	49991	Clinton on the other hand, had backed a plan to convince Europe.	Clinton on the other hand, had backed a plan to convince Europe.	2383745	1471983337379	1471983337496	o	79
4685	49991	Clinton on the other hand, had backed a plan to convince Europe.	Clinton on the other hand, had backed a plan to convince Europe.	2383748	1471983337554	1471983337659	n	78
4685	49991	Clinton on the other hand, had backed a plan to convince Europe.	Clinton on the other hand, had backed a plan to convince Europe.	2383750	1471983337830	1471983337938	v	86
4685	49991	Clinton on the other hand, had backed a plan to convince Europe.	Clinton on the other hand, had backed a plan to convince Europe.	2383751	1471983337942	1471983338059	i	73
4685	49991	Clinton on the other hand, had backed a plan to convince Europe.	Clinton on the other hand, had backed a plan to convince Europe.	2383845	1471983338137	1471983338245	n	78
4685	49991	Clinton on the other hand, had backed a plan to convince Europe.	Clinton on the other hand, had backed a plan to convince Europe.	2383850	1471983338320	1471983338435	c	67
4685	49991	Clinton on the other hand, had backed a plan to convince Europe.	Clinton on the other hand, had backed a plan to convince Europe.	2383854	1471983338466	1471983338579	e	69
4685	49991	Clinton on the other hand, had backed a plan to convince Europe.	Clinton on the other hand, had backed a plan to convince Europe.	2383859	1471983338644	1471983338735	 	32
4685	49991	Clinton on the other hand, had backed a plan to convince Europe.	Clinton on the other hand, had backed a plan to convince Europe.	2383978	1471983339576	1471983340023	SHIFT	16
4685	49991	Clinton on the other hand, had backed a plan to convince Europe.	Clinton on the other hand, had backed a plan to convince Europe.	2383864	1471983339776	1471983339957	E	69
4685	49991	Clinton on the other hand, had backed a plan to convince Europe.	Clinton on the other hand, had backed a plan to convince Europe.	2383985	1471983340219	1471983340323	u	85
4685	49991	Clinton on the other hand, had backed a plan to convince Europe.	Clinton on the other hand, had backed a plan to convince Europe.	2383992	1471983340654	1471983340770	r	82
4685	49991	Clinton on the other hand, had backed a plan to convince Europe.	Clinton on the other hand, had backed a plan to convince Europe.	2384000	1471983340790	1471983340901	o	79
4685	49991	Clinton on the other hand, had backed a plan to convince Europe.	Clinton on the other hand, had backed a plan to convince Europe.	2384006	1471983340982	1471983341109	p	80
4685	49991	Clinton on the other hand, had backed a plan to convince Europe.	Clinton on the other hand, had backed a plan to convince Europe.	2384013	1471983341667	1471983341799	e	69
4685	49991	Clinton on the other hand, had backed a plan to convince Europe.	Clinton on the other hand, had backed a plan to convince Europe.	2384030	1471983342015	1471983342116	.	190
4685	50013	He could ping the ball 40 yards with the outside of his foot.	He could ping the ball 40 yards with the outside of his foot.	2384205	1471983344169	1471983344629	SHIFT	16
4685	50013	He could ping the ball 40 yards with the outside of his foot.	He could ping the ball 40 yards with the outside of his foot.	2384203	1471983344501	1471983344616	H	72
4685	50013	He could ping the ball 40 yards with the outside of his foot.	He could ping the ball 40 yards with the outside of his foot.	2384207	1471983344742	1471983344867	e	69
4685	50013	He could ping the ball 40 yards with the outside of his foot.	He could ping the ball 40 yards with the outside of his foot.	2384209	1471983344896	1471983344984	 	32
4685	50013	He could ping the ball 40 yards with the outside of his foot.	He could ping the ball 40 yards with the outside of his foot.	2384214	1471983345073	1471983345209	c	67
4685	50013	He could ping the ball 40 yards with the outside of his foot.	He could ping the ball 40 yards with the outside of his foot.	2384286	1471983345201	1471983345333	o	79
4685	50013	He could ping the ball 40 yards with the outside of his foot.	He could ping the ball 40 yards with the outside of his foot.	2384289	1471983345403	1471983345497	u	85
4685	50013	He could ping the ball 40 yards with the outside of his foot.	He could ping the ball 40 yards with the outside of his foot.	2384292	1471983345629	1471983345738	l	76
4685	50013	He could ping the ball 40 yards with the outside of his foot.	He could ping the ball 40 yards with the outside of his foot.	2384295	1471983345784	1471983345869	d	68
4685	50013	He could ping the ball 40 yards with the outside of his foot.	He could ping the ball 40 yards with the outside of his foot.	2384300	1471983345883	1471983345980	 	32
4685	50013	He could ping the ball 40 yards with the outside of his foot.	He could ping the ball 40 yards with the outside of his foot.	2384303	1471983346408	1471983346537	p	80
4685	50013	He could ping the ball 40 yards with the outside of his foot.	He could ping the ball 40 yards with the outside of his foot.	2384361	1471983346623	1471983346732	i	73
4685	50013	He could ping the ball 40 yards with the outside of his foot.	He could ping the ball 40 yards with the outside of his foot.	2384368	1471983346780	1471983346889	n	78
4685	50013	He could ping the ball 40 yards with the outside of his foot.	He could ping the ball 40 yards with the outside of his foot.	2384374	1471983346988	1471983347103	g	71
4685	50013	He could ping the ball 40 yards with the outside of his foot.	He could ping the ball 40 yards with the outside of his foot.	2384379	1471983347120	1471983347218	 	32
4685	50013	He could ping the ball 40 yards with the outside of his foot.	He could ping the ball 40 yards with the outside of his foot.	2384383	1471983347671	1471983347777	t	84
4685	50013	He could ping the ball 40 yards with the outside of his foot.	He could ping the ball 40 yards with the outside of his foot.	2384438	1471983347758	1471983347850	h	72
4685	50013	He could ping the ball 40 yards with the outside of his foot.	He could ping the ball 40 yards with the outside of his foot.	2384440	1471983347925	1471983348029	e	69
4685	50013	He could ping the ball 40 yards with the outside of his foot.	He could ping the ball 40 yards with the outside of his foot.	2384444	1471983348007	1471983348098	 	32
4685	50013	He could ping the ball 40 yards with the outside of his foot.	He could ping the ball 40 yards with the outside of his foot.	2384447	1471983348487	1471983348570	b	66
4685	50013	He could ping the ball 40 yards with the outside of his foot.	He could ping the ball 40 yards with the outside of his foot.	2384449	1471983348594	1471983348726	a	65
4685	50013	He could ping the ball 40 yards with the outside of his foot.	He could ping the ball 40 yards with the outside of his foot.	2384453	1471983348764	1471983348840	l	76
4685	50013	He could ping the ball 40 yards with the outside of his foot.	He could ping the ball 40 yards with the outside of his foot.	2384552	1471983348916	1471983349033	l	76
4685	50013	He could ping the ball 40 yards with the outside of his foot.	He could ping the ball 40 yards with the outside of his foot.	2384554	1471983349384	1471983349477	 	32
4685	50013	He could ping the ball 40 yards with the outside of his foot.	He could ping the ball 40 yards with the outside of his foot.	2384557	1471983350166	1471983350270	4	52
4685	50013	He could ping the ball 40 yards with the outside of his foot.	He could ping the ball 40 yards with the outside of his foot.	2384558	1471983350370	1471983350461	0	48
4685	50013	He could ping the ball 40 yards with the outside of his foot.	He could ping the ball 40 yards with the outside of his foot.	2384559	1471983350603	1471983350686	 	32
4685	50013	He could ping the ball 40 yards with the outside of his foot.	He could ping the ball 40 yards with the outside of his foot.	2384672	1471983351187	1471983351554	SHIFT	16
4685	50013	He could ping the ball 40 yards with the outside of his foot.	He could ping the ball 40 yards with the outside of his foot.	2384676	1471983351810	1471983351913	y	89
4685	50013	He could ping the ball 40 yards with the outside of his foot.	He could ping the ball 40 yards with the outside of his foot.	2384680	1471983352072	1471983352209	a	65
4685	50013	He could ping the ball 40 yards with the outside of his foot.	He could ping the ball 40 yards with the outside of his foot.	2384684	1471983352339	1471983352473	r	82
4685	50013	He could ping the ball 40 yards with the outside of his foot.	He could ping the ball 40 yards with the outside of his foot.	2384689	1471983352626	1471983352736	d	68
4685	50013	He could ping the ball 40 yards with the outside of his foot.	He could ping the ball 40 yards with the outside of his foot.	2384692	1471983352983	1471983353115	s	83
4685	50013	He could ping the ball 40 yards with the outside of his foot.	He could ping the ball 40 yards with the outside of his foot.	2384738	1471983353181	1471983353275	 	32
4685	50013	He could ping the ball 40 yards with the outside of his foot.	He could ping the ball 40 yards with the outside of his foot.	2384740	1471983353621	1471983353725	w	87
4685	50013	He could ping the ball 40 yards with the outside of his foot.	He could ping the ball 40 yards with the outside of his foot.	2384743	1471983353820	1471983353938	i	73
4685	50013	He could ping the ball 40 yards with the outside of his foot.	He could ping the ball 40 yards with the outside of his foot.	2384748	1471983353958	1471983354045	t	84
4685	50013	He could ping the ball 40 yards with the outside of his foot.	He could ping the ball 40 yards with the outside of his foot.	2384755	1471983354062	1471983354156	h	72
4685	50013	He could ping the ball 40 yards with the outside of his foot.	He could ping the ball 40 yards with the outside of his foot.	2384781	1471983354336	1471983354437	 	32
4685	50013	He could ping the ball 40 yards with the outside of his foot.	He could ping the ball 40 yards with the outside of his foot.	2384783	1471983354619	1471983354712	t	84
4685	50013	He could ping the ball 40 yards with the outside of his foot.	He could ping the ball 40 yards with the outside of his foot.	2384785	1471983354727	1471983354816	h	72
4685	50013	He could ping the ball 40 yards with the outside of his foot.	He could ping the ball 40 yards with the outside of his foot.	2384788	1471983354855	1471983354954	e	69
4685	50013	He could ping the ball 40 yards with the outside of his foot.	He could ping the ball 40 yards with the outside of his foot.	2384791	1471983354957	1471983355045	 	32
4685	50013	He could ping the ball 40 yards with the outside of his foot.	He could ping the ball 40 yards with the outside of his foot.	2384873	1471983355449	1471983355559	o	79
4685	50013	He could ping the ball 40 yards with the outside of his foot.	He could ping the ball 40 yards with the outside of his foot.	2384875	1471983355635	1471983355730	u	85
4685	50013	He could ping the ball 40 yards with the outside of his foot.	He could ping the ball 40 yards with the outside of his foot.	2384880	1471983355757	1471983355851	t	84
4685	50013	He could ping the ball 40 yards with the outside of his foot.	He could ping the ball 40 yards with the outside of his foot.	2384884	1471983356103	1471983356218	s	83
4685	50013	He could ping the ball 40 yards with the outside of his foot.	He could ping the ball 40 yards with the outside of his foot.	2384889	1471983356279	1471983356364	i	73
4685	50013	He could ping the ball 40 yards with the outside of his foot.	He could ping the ball 40 yards with the outside of his foot.	2384922	1471983356384	1471983356481	d	68
4685	50013	He could ping the ball 40 yards with the outside of his foot.	He could ping the ball 40 yards with the outside of his foot.	2384927	1471983356528	1471983356631	e	69
4685	50013	He could ping the ball 40 yards with the outside of his foot.	He could ping the ball 40 yards with the outside of his foot.	2384931	1471983356687	1471983356785	 	32
4685	50013	He could ping the ball 40 yards with the outside of his foot.	He could ping the ball 40 yards with the outside of his foot.	2384934	1471983357303	1471983357433	o	79
4685	50013	He could ping the ball 40 yards with the outside of his foot.	He could ping the ball 40 yards with the outside of his foot.	2384975	1471983357417	1471983357525	f	70
4685	50013	He could ping the ball 40 yards with the outside of his foot.	He could ping the ball 40 yards with the outside of his foot.	2384979	1471983357548	1471983357649	 	32
4685	50013	He could ping the ball 40 yards with the outside of his foot.	He could ping the ball 40 yards with the outside of his foot.	2384983	1471983357749	1471983357854	h	72
4685	50013	He could ping the ball 40 yards with the outside of his foot.	He could ping the ball 40 yards with the outside of his foot.	2384986	1471983357890	1471983358011	i	73
4685	50013	He could ping the ball 40 yards with the outside of his foot.	He could ping the ball 40 yards with the outside of his foot.	2384990	1471983358027	1471983358128	s	83
4685	50013	He could ping the ball 40 yards with the outside of his foot.	He could ping the ball 40 yards with the outside of his foot.	2385076	1471983358118	1471983358223	 	32
4685	50013	He could ping the ball 40 yards with the outside of his foot.	He could ping the ball 40 yards with the outside of his foot.	2385078	1471983358649	1471983358779	f	70
4685	50013	He could ping the ball 40 yards with the outside of his foot.	He could ping the ball 40 yards with the outside of his foot.	2385081	1471983358818	1471983358907	o	79
4685	50013	He could ping the ball 40 yards with the outside of his foot.	He could ping the ball 40 yards with the outside of his foot.	2385084	1471983358982	1471983359080	o	79
4685	50013	He could ping the ball 40 yards with the outside of his foot.	He could ping the ball 40 yards with the outside of his foot.	2385087	1471983359123	1471983359194	t	84
4685	50013	He could ping the ball 40 yards with the outside of his foot.	He could ping the ball 40 yards with the outside of his foot.	2385092	1471983359468	1471983359546	.	190
4685	50034	Some of us may have have acted as critics at one point or another.	Some of us may have have acted as critics at one point or another.	2385317	1471983361953	1471983362354	SHIFT	16
4685	50034	Some of us may have have acted as critics at one point or another.	Some of us may have have acted as critics at one point or another.	2385314	1471983362116	1471983362273	S	83
4685	50034	Some of us may have have acted as critics at one point or another.	Some of us may have have acted as critics at one point or another.	2385320	1471983362559	1471983362680	o	79
4685	50034	Some of us may have have acted as critics at one point or another.	Some of us may have have acted as critics at one point or another.	2385324	1471983362735	1471983362830	m	77
4685	50034	Some of us may have have acted as critics at one point or another.	Some of us may have have acted as critics at one point or another.	2385328	1471983362853	1471983362970	e	69
4685	50034	Some of us may have have acted as critics at one point or another.	Some of us may have have acted as critics at one point or another.	2385331	1471983362986	1471983363072	 	32
4685	50034	Some of us may have have acted as critics at one point or another.	Some of us may have have acted as critics at one point or another.	2385407	1471983363425	1471983363539	o	79
4685	50034	Some of us may have have acted as critics at one point or another.	Some of us may have have acted as critics at one point or another.	2385409	1471983363569	1471983363676	f	70
4685	50034	Some of us may have have acted as critics at one point or another.	Some of us may have have acted as critics at one point or another.	2385410	1471983363662	1471983363744	 	32
4685	50034	Some of us may have have acted as critics at one point or another.	Some of us may have have acted as critics at one point or another.	2385411	1471983364427	1471983364532	u	85
4685	50034	Some of us may have have acted as critics at one point or another.	Some of us may have have acted as critics at one point or another.	2385493	1471983364593	1471983364681	s	83
4685	50034	Some of us may have have acted as critics at one point or another.	Some of us may have have acted as critics at one point or another.	2385412	1471983364620	1471983364668	d	68
4685	50034	Some of us may have have acted as critics at one point or another.	Some of us may have have acted as critics at one point or another.	2385496	1471983364727	1471983364819	 	32
4685	50034	Some of us may have have acted as critics at one point or another.	Some of us may have have acted as critics at one point or another.	2385499	1471983365267	1471983365360	BKSP	8
4685	50034	Some of us may have have acted as critics at one point or another.	Some of us may have have acted as critics at one point or another.	2385503	1471983365437	1471983365553	BKSP	8
4685	50034	Some of us may have have acted as critics at one point or another.	Some of us may have have acted as critics at one point or another.	2385506	1471983365800	1471983365889	 	32
4685	50034	Some of us may have have acted as critics at one point or another.	Some of us may have have acted as critics at one point or another.	2385509	1471983366351	1471983366439	m	77
4685	50034	Some of us may have have acted as critics at one point or another.	Some of us may have have acted as critics at one point or another.	2385512	1471983366436	1471983366561	a	65
4685	50034	Some of us may have have acted as critics at one point or another.	Some of us may have have acted as critics at one point or another.	2385515	1471983366621	1471983366741	y	89
4685	50034	Some of us may have have acted as critics at one point or another.	Some of us may have have acted as critics at one point or another.	2385579	1471983366877	1471983367010	 	32
4685	50034	Some of us may have have acted as critics at one point or another.	Some of us may have have acted as critics at one point or another.	2385583	1471983367460	1471983367553	h	72
4685	50034	Some of us may have have acted as critics at one point or another.	Some of us may have have acted as critics at one point or another.	2385587	1471983367521	1471983367668	a	65
4685	50034	Some of us may have have acted as critics at one point or another.	Some of us may have have acted as critics at one point or another.	2385590	1471983367664	1471983367756	v	86
4685	50034	Some of us may have have acted as critics at one point or another.	Some of us may have have acted as critics at one point or another.	2385594	1471983367779	1471983367931	e	69
4685	50034	Some of us may have have acted as critics at one point or another.	Some of us may have have acted as critics at one point or another.	2385718	1471983367923	1471983368028	 	32
4685	50034	Some of us may have have acted as critics at one point or another.	Some of us may have have acted as critics at one point or another.	2385720	1471983369529	1471983369606	h	72
4685	50034	Some of us may have have acted as critics at one point or another.	Some of us may have have acted as critics at one point or another.	2385721	1471983369623	1471983369750	a	65
4685	50034	Some of us may have have acted as critics at one point or another.	Some of us may have have acted as critics at one point or another.	2385723	1471983369759	1471983369842	v	86
4685	50034	Some of us may have have acted as critics at one point or another.	Some of us may have have acted as critics at one point or another.	2385725	1471983369896	1471983370029	e	69
4685	50034	Some of us may have have acted as critics at one point or another.	Some of us may have have acted as critics at one point or another.	2385731	1471983370042	1471983370136	 	32
4685	50034	Some of us may have have acted as critics at one point or another.	Some of us may have have acted as critics at one point or another.	2385854	1471983370525	1471983370666	a	65
4685	50034	Some of us may have have acted as critics at one point or another.	Some of us may have have acted as critics at one point or another.	2385857	1471983371060	1471983371193	c	67
4685	50034	Some of us may have have acted as critics at one point or another.	Some of us may have have acted as critics at one point or another.	2385860	1471983371372	1471983371506	t	84
4685	50034	Some of us may have have acted as critics at one point or another.	Some of us may have have acted as critics at one point or another.	2385865	1471983371565	1471983371679	e	69
4685	50034	Some of us may have have acted as critics at one point or another.	Some of us may have have acted as critics at one point or another.	2385870	1471983371750	1471983371926	d	68
4685	50034	Some of us may have have acted as critics at one point or another.	Some of us may have have acted as critics at one point or another.	2385962	1471983371915	1471983372015	 	32
4685	50034	Some of us may have have acted as critics at one point or another.	Some of us may have have acted as critics at one point or another.	2385966	1471983372131	1471983372323	a	65
4685	50034	Some of us may have have acted as critics at one point or another.	Some of us may have have acted as critics at one point or another.	2385972	1471983372611	1471983372749	s	83
4685	50034	Some of us may have have acted as critics at one point or another.	Some of us may have have acted as critics at one point or another.	2385976	1471983372906	1471983373028	 	32
4685	50034	Some of us may have have acted as critics at one point or another.	Some of us may have have acted as critics at one point or another.	2385982	1471983373650	1471983373772	c	67
4685	50034	Some of us may have have acted as critics at one point or another.	Some of us may have have acted as critics at one point or another.	2385988	1471983373845	1471983373975	r	82
4685	50034	Some of us may have have acted as critics at one point or another.	Some of us may have have acted as critics at one point or another.	2386039	1471983373972	1471983374082	i	73
4685	50034	Some of us may have have acted as critics at one point or another.	Some of us may have have acted as critics at one point or another.	2386044	1471983374160	1471983374285	t	84
4685	50034	Some of us may have have acted as critics at one point or another.	Some of us may have have acted as critics at one point or another.	2386048	1471983374333	1471983374422	i	73
4685	50034	Some of us may have have acted as critics at one point or another.	Some of us may have have acted as critics at one point or another.	2386052	1471983374612	1471983374732	c	67
4685	50034	Some of us may have have acted as critics at one point or another.	Some of us may have have acted as critics at one point or another.	2386058	1471983374813	1471983374960	s	83
4685	50034	Some of us may have have acted as critics at one point or another.	Some of us may have have acted as critics at one point or another.	2386060	1471983374989	1471983375091	 	32
4685	50034	Some of us may have have acted as critics at one point or another.	Some of us may have have acted as critics at one point or another.	2386174	1471983375399	1471983375536	a	65
4685	50034	Some of us may have have acted as critics at one point or another.	Some of us may have have acted as critics at one point or another.	2386176	1471983375686	1471983375817	r	82
4685	50034	Some of us may have have acted as critics at one point or another.	Some of us may have have acted as critics at one point or another.	2386182	1471983376265	1471983376393	BKSP	8
4685	50034	Some of us may have have acted as critics at one point or another.	Some of us may have have acted as critics at one point or another.	2386186	1471983376415	1471983376527	t	84
4685	50034	Some of us may have have acted as critics at one point or another.	Some of us may have have acted as critics at one point or another.	2386191	1471983376585	1471983376699	 	32
4685	50034	Some of us may have have acted as critics at one point or another.	Some of us may have have acted as critics at one point or another.	2386194	1471983377008	1471983377184	o	79
4685	50034	Some of us may have have acted as critics at one point or another.	Some of us may have have acted as critics at one point or another.	2386273	1471983377252	1471983377364	n	78
4685	50034	Some of us may have have acted as critics at one point or another.	Some of us may have have acted as critics at one point or another.	2386274	1471983377736	1471983377834	e	69
4685	50034	Some of us may have have acted as critics at one point or another.	Some of us may have have acted as critics at one point or another.	2386275	1471983377854	1471983377968	 	32
4685	50034	Some of us may have have acted as critics at one point or another.	Some of us may have have acted as critics at one point or another.	2386277	1471983378592	1471983378661	p	80
4685	50034	Some of us may have have acted as critics at one point or another.	Some of us may have have acted as critics at one point or another.	2386282	1471983378751	1471983378840	o	79
4685	50034	Some of us may have have acted as critics at one point or another.	Some of us may have have acted as critics at one point or another.	2386372	1471983379795	1471983379846	i	73
4685	50034	Some of us may have have acted as critics at one point or another.	Some of us may have have acted as critics at one point or another.	2386377	1471983379924	1471983380008	n	78
4685	50034	Some of us may have have acted as critics at one point or another.	Some of us may have have acted as critics at one point or another.	2386383	1471983380022	1471983380123	t	84
4685	50034	Some of us may have have acted as critics at one point or another.	Some of us may have have acted as critics at one point or another.	2386389	1471983380156	1471983380247	 	32
4685	50034	Some of us may have have acted as critics at one point or another.	Some of us may have have acted as critics at one point or another.	2386394	1471983380942	1471983381031	o	79
4685	50034	Some of us may have have acted as critics at one point or another.	Some of us may have have acted as critics at one point or another.	2386436	1471983381060	1471983381162	r	82
4685	50034	Some of us may have have acted as critics at one point or another.	Some of us may have have acted as critics at one point or another.	2386441	1471983381204	1471983381298	 	32
4685	50034	Some of us may have have acted as critics at one point or another.	Some of us may have have acted as critics at one point or another.	2386448	1471983381334	1471983381498	a	65
4685	50034	Some of us may have have acted as critics at one point or another.	Some of us may have have acted as critics at one point or another.	2386452	1471983381485	1471983381570	n	78
4685	50034	Some of us may have have acted as critics at one point or another.	Some of us may have have acted as critics at one point or another.	2386456	1471983381699	1471983381787	o	79
4685	50034	Some of us may have have acted as critics at one point or another.	Some of us may have have acted as critics at one point or another.	2386544	1471983382161	1471983382258	t	84
4685	50034	Some of us may have have acted as critics at one point or another.	Some of us may have have acted as critics at one point or another.	2386548	1471983382295	1471983382372	h	72
4685	50034	Some of us may have have acted as critics at one point or another.	Some of us may have have acted as critics at one point or another.	2386554	1471983382400	1471983382564	e	69
4685	50034	Some of us may have have acted as critics at one point or another.	Some of us may have have acted as critics at one point or another.	2386560	1471983382554	1471983382660	r	82
4685	50034	Some of us may have have acted as critics at one point or another.	Some of us may have have acted as critics at one point or another.	2386564	1471983383431	1471983383519	.	190
4685	50066	Profits were up 28 percent for the first quarter of this year.	Profits were up 28 percent for the first quarter of this year.	2386799	1471983385468	1471983385847	SHIFT	16
4685	50066	Profits were up 28 percent for the first quarter of this year.	Profits were up 28 percent for the first quarter of this year.	2386794	1471983385732	1471983385821	P	80
4685	50066	Profits were up 28 percent for the first quarter of this year.	Profits were up 28 percent for the first quarter of this year.	2386804	1471983386019	1471983386114	r	82
4685	50066	Profits were up 28 percent for the first quarter of this year.	Profits were up 28 percent for the first quarter of this year.	2386810	1471983386153	1471983386261	o	79
4685	50066	Profits were up 28 percent for the first quarter of this year.	Profits were up 28 percent for the first quarter of this year.	2386815	1471983386655	1471983386754	f	70
4685	50066	Profits were up 28 percent for the first quarter of this year.	Profits were up 28 percent for the first quarter of this year.	2386820	1471983386791	1471983386894	i	73
4685	50066	Profits were up 28 percent for the first quarter of this year.	Profits were up 28 percent for the first quarter of this year.	2386888	1471983386943	1471983387060	t	84
4685	50066	Profits were up 28 percent for the first quarter of this year.	Profits were up 28 percent for the first quarter of this year.	2386893	1471983387254	1471983387388	s	83
4685	50066	Profits were up 28 percent for the first quarter of this year.	Profits were up 28 percent for the first quarter of this year.	2386900	1471983387434	1471983387505	 	32
4685	50066	Profits were up 28 percent for the first quarter of this year.	Profits were up 28 percent for the first quarter of this year.	2386907	1471983387937	1471983388053	w	87
4685	50066	Profits were up 28 percent for the first quarter of this year.	Profits were up 28 percent for the first quarter of this year.	2386912	1471983388132	1471983388268	e	69
4685	50066	Profits were up 28 percent for the first quarter of this year.	Profits were up 28 percent for the first quarter of this year.	2387007	1471983388330	1471983388441	r	82
4685	50066	Profits were up 28 percent for the first quarter of this year.	Profits were up 28 percent for the first quarter of this year.	2387011	1471983388508	1471983388604	e	69
4685	50066	Profits were up 28 percent for the first quarter of this year.	Profits were up 28 percent for the first quarter of this year.	2387016	1471983388677	1471983388770	 	32
4685	50066	Profits were up 28 percent for the first quarter of this year.	Profits were up 28 percent for the first quarter of this year.	2387023	1471983389118	1471983389188	u	85
4685	50066	Profits were up 28 percent for the first quarter of this year.	Profits were up 28 percent for the first quarter of this year.	2387027	1471983389374	1471983389473	p	80
4685	50066	Profits were up 28 percent for the first quarter of this year.	Profits were up 28 percent for the first quarter of this year.	2387163	1471983389630	1471983389718	 	32
4685	50066	Profits were up 28 percent for the first quarter of this year.	Profits were up 28 percent for the first quarter of this year.	2387166	1471983390212	1471983390316	2	50
4685	50066	Profits were up 28 percent for the first quarter of this year.	Profits were up 28 percent for the first quarter of this year.	2387170	1471983390286	1471983390384	8	56
4685	50066	Profits were up 28 percent for the first quarter of this year.	Profits were up 28 percent for the first quarter of this year.	2387173	1471983390538	1471983390616	 	32
4685	50066	Profits were up 28 percent for the first quarter of this year.	Profits were up 28 percent for the first quarter of this year.	2387177	1471983391230	1471983391323	p	80
4685	50066	Profits were up 28 percent for the first quarter of this year.	Profits were up 28 percent for the first quarter of this year.	2387210	1471983391302	1471983391389	e	69
4685	50066	Profits were up 28 percent for the first quarter of this year.	Profits were up 28 percent for the first quarter of this year.	2387213	1471983391439	1471983391529	r	82
4685	50066	Profits were up 28 percent for the first quarter of this year.	Profits were up 28 percent for the first quarter of this year.	2387217	1471983391687	1471983391794	c	67
4685	50066	Profits were up 28 percent for the first quarter of this year.	Profits were up 28 percent for the first quarter of this year.	2387221	1471983391836	1471983391975	e	69
4685	50066	Profits were up 28 percent for the first quarter of this year.	Profits were up 28 percent for the first quarter of this year.	2387226	1471983392005	1471983392103	n	78
4685	50066	Profits were up 28 percent for the first quarter of this year.	Profits were up 28 percent for the first quarter of this year.	2387302	1471983392099	1471983392203	t	84
4685	50066	Profits were up 28 percent for the first quarter of this year.	Profits were up 28 percent for the first quarter of this year.	2387308	1471983392267	1471983392346	 	32
4685	50066	Profits were up 28 percent for the first quarter of this year.	Profits were up 28 percent for the first quarter of this year.	2387312	1471983392998	1471983393129	f	70
4685	50066	Profits were up 28 percent for the first quarter of this year.	Profits were up 28 percent for the first quarter of this year.	2387316	1471983393141	1471983393268	o	79
4685	50066	Profits were up 28 percent for the first quarter of this year.	Profits were up 28 percent for the first quarter of this year.	2387323	1471983393266	1471983393377	r	82
4685	50066	Profits were up 28 percent for the first quarter of this year.	Profits were up 28 percent for the first quarter of this year.	2387326	1471983393397	1471983393497	 	32
4685	50066	Profits were up 28 percent for the first quarter of this year.	Profits were up 28 percent for the first quarter of this year.	2387428	1471983393492	1471983393593	t	84
4685	50066	Profits were up 28 percent for the first quarter of this year.	Profits were up 28 percent for the first quarter of this year.	2387429	1471983394007	1471983394099	h	72
4685	50066	Profits were up 28 percent for the first quarter of this year.	Profits were up 28 percent for the first quarter of this year.	2387431	1471983394480	1471983394581	e	69
4685	50066	Profits were up 28 percent for the first quarter of this year.	Profits were up 28 percent for the first quarter of this year.	2387433	1471983394626	1471983394718	 	32
4685	50066	Profits were up 28 percent for the first quarter of this year.	Profits were up 28 percent for the first quarter of this year.	2387435	1471983395516	1471983395612	f	70
4685	50066	Profits were up 28 percent for the first quarter of this year.	Profits were up 28 percent for the first quarter of this year.	2387438	1471983395653	1471983395773	i	73
4685	50066	Profits were up 28 percent for the first quarter of this year.	Profits were up 28 percent for the first quarter of this year.	2387499	1471983395995	1471983396099	r	82
4685	50066	Profits were up 28 percent for the first quarter of this year.	Profits were up 28 percent for the first quarter of this year.	2387501	1471983396259	1471983396390	s	83
4685	50066	Profits were up 28 percent for the first quarter of this year.	Profits were up 28 percent for the first quarter of this year.	2387503	1471983396418	1471983396485	t	84
4685	50066	Profits were up 28 percent for the first quarter of this year.	Profits were up 28 percent for the first quarter of this year.	2387506	1471983396756	1471983396847	 	32
4685	50066	Profits were up 28 percent for the first quarter of this year.	Profits were up 28 percent for the first quarter of this year.	2387509	1471983397265	1471983397382	q	81
4685	50066	Profits were up 28 percent for the first quarter of this year.	Profits were up 28 percent for the first quarter of this year.	2387841	1471983397408	1471983397512	u	85
4685	50066	Profits were up 28 percent for the first quarter of this year.	Profits were up 28 percent for the first quarter of this year.	2387845	1471983398017	1471983398099	r	82
4685	50066	Profits were up 28 percent for the first quarter of this year.	Profits were up 28 percent for the first quarter of this year.	2387850	1471983401044	1471983401138	]	221
4685	50066	Profits were up 28 percent for the first quarter of this year.	Profits were up 28 percent for the first quarter of this year.	2387855	1471983401712	1471983401794	BKSP	8
4685	50066	Profits were up 28 percent for the first quarter of this year.	Profits were up 28 percent for the first quarter of this year.	2387858	1471983401872	1471983401978	BKSP	8
4685	50066	Profits were up 28 percent for the first quarter of this year.	Profits were up 28 percent for the first quarter of this year.	2387862	1471983402404	1471983402566	a	65
4685	50066	Profits were up 28 percent for the first quarter of this year.	Profits were up 28 percent for the first quarter of this year.	2387865	1471983402806	1471983402900	r	82
4685	50066	Profits were up 28 percent for the first quarter of this year.	Profits were up 28 percent for the first quarter of this year.	2387936	1471983403026	1471983403135	t	84
4685	50066	Profits were up 28 percent for the first quarter of this year.	Profits were up 28 percent for the first quarter of this year.	2387939	1471983403182	1471983403326	e	69
4685	50066	Profits were up 28 percent for the first quarter of this year.	Profits were up 28 percent for the first quarter of this year.	2387946	1471983403333	1471983403446	r	82
4685	50066	Profits were up 28 percent for the first quarter of this year.	Profits were up 28 percent for the first quarter of this year.	2387952	1471983403524	1471983403632	 	32
4685	50066	Profits were up 28 percent for the first quarter of this year.	Profits were up 28 percent for the first quarter of this year.	2387954	1471983404208	1471983404330	o	79
4685	50066	Profits were up 28 percent for the first quarter of this year.	Profits were up 28 percent for the first quarter of this year.	2387997	1471983404325	1471983404431	f	70
4685	50066	Profits were up 28 percent for the first quarter of this year.	Profits were up 28 percent for the first quarter of this year.	2388000	1471983404440	1471983404531	 	32
4685	50066	Profits were up 28 percent for the first quarter of this year.	Profits were up 28 percent for the first quarter of this year.	2388006	1471983404557	1471983404677	t	84
4685	50066	Profits were up 28 percent for the first quarter of this year.	Profits were up 28 percent for the first quarter of this year.	2388012	1471983404661	1471983404763	h	72
4685	50066	Profits were up 28 percent for the first quarter of this year.	Profits were up 28 percent for the first quarter of this year.	2388018	1471983405046	1471983405156	i	73
4685	50066	Profits were up 28 percent for the first quarter of this year.	Profits were up 28 percent for the first quarter of this year.	2388085	1471983405146	1471983405284	s	83
4685	50066	Profits were up 28 percent for the first quarter of this year.	Profits were up 28 percent for the first quarter of this year.	2388089	1471983405305	1471983405395	 	32
4685	50066	Profits were up 28 percent for the first quarter of this year.	Profits were up 28 percent for the first quarter of this year.	2388102	1471983405681	1471983405792	y	89
4685	50066	Profits were up 28 percent for the first quarter of this year.	Profits were up 28 percent for the first quarter of this year.	2388106	1471983405996	1471983406126	e	69
4685	50066	Profits were up 28 percent for the first quarter of this year.	Profits were up 28 percent for the first quarter of this year.	2388115	1471983406182	1471983406375	a	65
4685	50066	Profits were up 28 percent for the first quarter of this year.	Profits were up 28 percent for the first quarter of this year.	2388119	1471983406390	1471983406538	r	82
4685	50066	Profits were up 28 percent for the first quarter of this year.	Profits were up 28 percent for the first quarter of this year.	2388130	1471983406724	1471983406830	.	190
