PARTICIPANT_ID	TEST_SECTION_ID	SENTENCE	USER_INPUT	KEYSTROKE_ID	PRESS_TIME	RELEASE_TIME	LETTER	KEYCODE
4705	50005	Do we need to discuss?	Do we need to discuss it?	2383816	1471983340945	1471983341083	SHIFT	16
4705	50005	Do we need to discuss?	Do we need to discuss it?	2383821	1471983340966	1471983341088	D	68
4705	50005	Do we need to discuss?	Do we need to discuss it?	2383825	1471983341125	1471983341222	o	79
4705	50005	Do we need to discuss?	Do we need to discuss it?	2383829	1471983341333	1471983341455	 	32
4705	50005	Do we need to discuss?	Do we need to discuss it?	2383835	1471983341457	1471983341543	w	87
4705	50005	Do we need to discuss?	Do we need to discuss it?	2383841	1471983341606	1471983341713	e	69
4705	50005	Do we need to discuss?	Do we need to discuss it?	2383894	1471983341745	1471983341842	 	32
4705	50005	Do we need to discuss?	Do we need to discuss it?	2383897	1471983342105	1471983342203	n	78
4705	50005	Do we need to discuss?	Do we need to discuss it?	2383899	1471983342373	1471983342473	e	69
4705	50005	Do we need to discuss?	Do we need to discuss it?	2383900	1471983342525	1471983342611	e	69
4705	50005	Do we need to discuss?	Do we need to discuss it?	2383903	1471983342735	1471983342813	d	68
4705	50005	Do we need to discuss?	Do we need to discuss it?	2383956	1471983342825	1471983342921	 	32
4705	50005	Do we need to discuss?	Do we need to discuss it?	2383959	1471983342956	1471983343042	t	84
4705	50005	Do we need to discuss?	Do we need to discuss it?	2383962	1471983343046	1471983343123	o	79
4705	50005	Do we need to discuss?	Do we need to discuss it?	2383966	1471983343213	1471983343314	 	32
4705	50005	Do we need to discuss?	Do we need to discuss it?	2383970	1471983343366	1471983343474	d	68
4705	50005	Do we need to discuss?	Do we need to discuss it?	2384001	1471983343494	1471983343581	i	73
4705	50005	Do we need to discuss?	Do we need to discuss it?	2384007	1471983343573	1471983343665	s	83
4705	50005	Do we need to discuss?	Do we need to discuss it?	2384012	1471983343712	1471983343811	c	67
4705	50005	Do we need to discuss?	Do we need to discuss it?	2384017	1471983343824	1471983343914	u	85
4705	50005	Do we need to discuss?	Do we need to discuss it?	2384022	1471983343966	1471983344031	s	83
4705	50005	Do we need to discuss?	Do we need to discuss it?	2384079	1471983344103	1471983344191	s	83
4705	50005	Do we need to discuss?	Do we need to discuss it?	2384081	1471983344183	1471983344273	 	32
4705	50005	Do we need to discuss?	Do we need to discuss it?	2384084	1471983344355	1471983344433	i	73
4705	50005	Do we need to discuss?	Do we need to discuss it?	2384089	1471983344475	1471983344553	t	84
4705	50005	Do we need to discuss?	Do we need to discuss it?	2384093	1471983344813	1471983345154	SHIFT	16
4705	50005	Do we need to discuss?	Do we need to discuss it?	2384088	1471983345025	1471983345162	?	191
4705	50015	Or let's get creative.	Or let's get creative.	2384233	1471983346986	1471983347291	SHIFT	16
4705	50015	Or let's get creative.	Or let's get creative.	2384230	1471983347144	1471983347274	O	79
4705	50015	Or let's get creative.	Or let's get creative.	2384239	1471983347405	1471983347484	r	82
4705	50015	Or let's get creative.	Or let's get creative.	2384245	1471983347495	1471983347584	 	32
4705	50015	Or let's get creative.	Or let's get creative.	2384253	1471983347686	1471983347784	l	76
4705	50015	Or let's get creative.	Or let's get creative.	2384260	1471983347796	1471983347874	e	69
4705	50015	Or let's get creative.	Or let's get creative.	2384346	1471983347952	1471983348051	t	84
4705	50015	Or let's get creative.	Or let's get creative.	2384348	1471983348176	1471983348233	'	186
4705	50015	Or let's get creative.	Or let's get creative.	2384349	1471983348305	1471983348401	s	83
4705	50015	Or let's get creative.	Or let's get creative.	2384351	1471983348605	1471983348684	BKSP	8
4705	50015	Or let's get creative.	Or let's get creative.	2384353	1471983348756	1471983348822	BKSP	8
4705	50015	Or let's get creative.	Or let's get creative.	2384355	1471983348872	1471983348974	BKSP	8
4705	50015	Or let's get creative.	Or let's get creative.	2384359	1471983349445	1471983349552	'	222
4705	50015	Or let's get creative.	Or let's get creative.	2384391	1471983349577	1471983349674	s	83
4705	50015	Or let's get creative.	Or let's get creative.	2384393	1471983349746	1471983349786	 	32
4705	50015	Or let's get creative.	Or let's get creative.	2384396	1471983349893	1471983349974	g	71
4705	50015	Or let's get creative.	Or let's get creative.	2384400	1471983349986	1471983350071	e	69
4705	50015	Or let's get creative.	Or let's get creative.	2384405	1471983350123	1471983350212	t	84
4705	50015	Or let's get creative.	Or let's get creative.	2384446	1471983350245	1471983350333	 	32
4705	50015	Or let's get creative.	Or let's get creative.	2384448	1471983350475	1471983350573	c	67
4705	50015	Or let's get creative.	Or let's get creative.	2384451	1471983350705	1471983350785	r	82
4705	50015	Or let's get creative.	Or let's get creative.	2384454	1471983350826	1471983350894	e	69
4705	50015	Or let's get creative.	Or let's get creative.	2384457	1471983350964	1471983351042	a	65
4705	50015	Or let's get creative.	Or let's get creative.	2384495	1471983351104	1471983351194	t	84
4705	50015	Or let's get creative.	Or let's get creative.	2384498	1471983351223	1471983351313	i	73
4705	50015	Or let's get creative.	Or let's get creative.	2384502	1471983351343	1471983351422	v	86
4705	50015	Or let's get creative.	Or let's get creative.	2384507	1471983351466	1471983351541	e	69
4705	50015	Or let's get creative.	Or let's get creative.	2384514	1471983351854	1471983351974	.	190
4705	50024	I need a little more stability in my work environment.	I need a little more stability in my work environment.	2384638	1471983353826	1471983354099	SHIFT	16
4705	50024	I need a little more stability in my work environment.	I need a little more stability in my work environment.	2384632	1471983353964	1471983354091	I	73
4705	50024	I need a little more stability in my work environment.	I need a little more stability in my work environment.	2384643	1471983354193	1471983354304	 	32
4705	50024	I need a little more stability in my work environment.	I need a little more stability in my work environment.	2384650	1471983354396	1471983354481	n	78
4705	50024	I need a little more stability in my work environment.	I need a little more stability in my work environment.	2384654	1471983354565	1471983354631	e	69
4705	50024	I need a little more stability in my work environment.	I need a little more stability in my work environment.	2384660	1471983354715	1471983354793	e	69
4705	50024	I need a little more stability in my work environment.	I need a little more stability in my work environment.	2384697	1471983354906	1471983355010	d	68
4705	50024	I need a little more stability in my work environment.	I need a little more stability in my work environment.	2384699	1471983355006	1471983355092	 	32
4705	50024	I need a little more stability in my work environment.	I need a little more stability in my work environment.	2384705	1471983355156	1471983355282	a	65
4705	50024	I need a little more stability in my work environment.	I need a little more stability in my work environment.	2384708	1471983355236	1471983355324	 	32
4705	50024	I need a little more stability in my work environment.	I need a little more stability in my work environment.	2384713	1471983355465	1471983355533	l	76
4705	50024	I need a little more stability in my work environment.	I need a little more stability in my work environment.	2384765	1471983355636	1471983355714	i	73
4705	50024	I need a little more stability in my work environment.	I need a little more stability in my work environment.	2384767	1471983356164	1471983356232	t	84
4705	50024	I need a little more stability in my work environment.	I need a little more stability in my work environment.	2384768	1471983356293	1471983356383	t	84
4705	50024	I need a little more stability in my work environment.	I need a little more stability in my work environment.	2384769	1471983356483	1471983356561	l	76
4705	50024	I need a little more stability in my work environment.	I need a little more stability in my work environment.	2384833	1471983356553	1471983356643	e	69
4705	50024	I need a little more stability in my work environment.	I need a little more stability in my work environment.	2384836	1471983356655	1471983356743	 	32
4705	50024	I need a little more stability in my work environment.	I need a little more stability in my work environment.	2384838	1471983356834	1471983356913	m	77
4705	50024	I need a little more stability in my work environment.	I need a little more stability in my work environment.	2384841	1471983357055	1471983357153	r	82
4705	50024	I need a little more stability in my work environment.	I need a little more stability in my work environment.	2384844	1471983357413	1471983357492	BKSP	8
4705	50024	I need a little more stability in my work environment.	I need a little more stability in my work environment.	2384846	1471983357566	1471983357683	o	79
4705	50024	I need a little more stability in my work environment.	I need a little more stability in my work environment.	2384849	1471983357706	1471983357795	r	82
4705	50024	I need a little more stability in my work environment.	I need a little more stability in my work environment.	2384874	1471983357823	1471983357904	e	69
4705	50024	I need a little more stability in my work environment.	I need a little more stability in my work environment.	2384877	1471983357936	1471983358022	 	32
4705	50024	I need a little more stability in my work environment.	I need a little more stability in my work environment.	2384881	1471983358054	1471983358134	s	83
4705	50024	I need a little more stability in my work environment.	I need a little more stability in my work environment.	2384887	1471983358185	1471983358261	t	84
4705	50024	I need a little more stability in my work environment.	I need a little more stability in my work environment.	2384892	1471983358345	1471983358414	a	65
4705	50024	I need a little more stability in my work environment.	I need a little more stability in my work environment.	2384904	1471983358544	1471983358632	b	66
4705	50024	I need a little more stability in my work environment.	I need a little more stability in my work environment.	2384907	1471983358706	1471983358791	i	73
4705	50024	I need a little more stability in my work environment.	I need a little more stability in my work environment.	2384914	1471983358916	1471983358983	l	76
4705	50024	I need a little more stability in my work environment.	I need a little more stability in my work environment.	2384919	1471983359045	1471983359141	i	73
4705	50024	I need a little more stability in my work environment.	I need a little more stability in my work environment.	2384925	1471983359183	1471983359273	t	84
4705	50024	I need a little more stability in my work environment.	I need a little more stability in my work environment.	2384963	1471983359375	1471983359451	y	89
4705	50024	I need a little more stability in my work environment.	I need a little more stability in my work environment.	2384969	1471983359475	1471983359561	 	32
4705	50024	I need a little more stability in my work environment.	I need a little more stability in my work environment.	2384973	1471983359646	1471983359734	i	73
4705	50024	I need a little more stability in my work environment.	I need a little more stability in my work environment.	2384980	1471983359775	1471983359863	n	78
4705	50024	I need a little more stability in my work environment.	I need a little more stability in my work environment.	2384984	1471983359946	1471983360042	 	32
4705	50024	I need a little more stability in my work environment.	I need a little more stability in my work environment.	2385009	1471983360126	1471983360204	m	77
4705	50024	I need a little more stability in my work environment.	I need a little more stability in my work environment.	2385013	1471983360216	1471983360319	y	89
4705	50024	I need a little more stability in my work environment.	I need a little more stability in my work environment.	2385016	1471983360302	1471983360394	 	32
4705	50024	I need a little more stability in my work environment.	I need a little more stability in my work environment.	2385018	1471983360443	1471983360523	w	87
4705	50024	I need a little more stability in my work environment.	I need a little more stability in my work environment.	2385064	1471983360516	1471983360603	o	79
4705	50024	I need a little more stability in my work environment.	I need a little more stability in my work environment.	2385066	1471983360616	1471983360715	r	82
4705	50024	I need a little more stability in my work environment.	I need a little more stability in my work environment.	2385069	1471983360704	1471983360802	k	75
4705	50024	I need a little more stability in my work environment.	I need a little more stability in my work environment.	2385072	1471983360886	1471983360994	 	32
4705	50024	I need a little more stability in my work environment.	I need a little more stability in my work environment.	2385074	1471983361053	1471983361162	e	69
4705	50024	I need a little more stability in my work environment.	I need a little more stability in my work environment.	2385077	1471983361245	1471983361324	n	78
4705	50024	I need a little more stability in my work environment.	I need a little more stability in my work environment.	2385115	1471983361456	1471983361553	v	86
4705	50024	I need a little more stability in my work environment.	I need a little more stability in my work environment.	2385119	1471983361573	1471983361645	i	73
4705	50024	I need a little more stability in my work environment.	I need a little more stability in my work environment.	2385124	1471983361694	1471983361773	r	82
4705	50024	I need a little more stability in my work environment.	I need a little more stability in my work environment.	2385129	1471983361795	1471983361863	o	79
4705	50024	I need a little more stability in my work environment.	I need a little more stability in my work environment.	2385133	1471983361945	1471983362033	n	78
4705	50024	I need a little more stability in my work environment.	I need a little more stability in my work environment.	2385156	1471983362142	1471983362211	m	77
4705	50024	I need a little more stability in my work environment.	I need a little more stability in my work environment.	2385158	1471983362245	1471983362334	e	69
4705	50024	I need a little more stability in my work environment.	I need a little more stability in my work environment.	2385161	1471983362326	1471983362413	n	78
4705	50024	I need a little more stability in my work environment.	I need a little more stability in my work environment.	2385163	1471983362454	1471983362552	t	84
4705	50024	I need a little more stability in my work environment.	I need a little more stability in my work environment.	2385167	1471983362593	1471983362693	.	190
4705	50036	Thanks for all the email.	Thanks for all the email.	2385346	1471983365073	1471983365282	SHIFT	16
4705	50036	Thanks for all the email.	Thanks for all the email.	2385348	1471983365212	1471983365313	T	84
4705	50036	Thanks for all the email.	Thanks for all the email.	2385350	1471983365366	1471983365464	h	72
4705	50036	Thanks for all the email.	Thanks for all the email.	2385351	1471983365468	1471983365564	a	65
4705	50036	Thanks for all the email.	Thanks for all the email.	2385352	1471983365544	1471983365624	n	78
4705	50036	Thanks for all the email.	Thanks for all the email.	2385354	1471983365664	1471983365744	k	75
4705	50036	Thanks for all the email.	Thanks for all the email.	2385385	1471983365736	1471983365813	s	83
4705	50036	Thanks for all the email.	Thanks for all the email.	2385390	1471983365821	1471983365915	 	32
4705	50036	Thanks for all the email.	Thanks for all the email.	2385393	1471983365904	1471983366022	f	70
4705	50036	Thanks for all the email.	Thanks for all the email.	2385395	1471983366014	1471983366093	o	79
4705	50036	Thanks for all the email.	Thanks for all the email.	2385398	1471983366114	1471983366203	r	82
4705	50036	Thanks for all the email.	Thanks for all the email.	2385400	1471983366207	1471983366313	 	32
4705	50036	Thanks for all the email.	Thanks for all the email.	2385413	1471983366319	1471983366425	a	65
4705	50036	Thanks for all the email.	Thanks for all the email.	2385414	1471983366443	1471983366513	l	76
4705	50036	Thanks for all the email.	Thanks for all the email.	2385415	1471983366543	1471983366625	l	76
4705	50036	Thanks for all the email.	Thanks for all the email.	2385416	1471983366726	1471983366834	 	32
4705	50036	Thanks for all the email.	Thanks for all the email.	2385417	1471983366841	1471983366924	t	84
4705	50036	Thanks for all the email.	Thanks for all the email.	2385439	1471983366937	1471983367011	h	72
4705	50036	Thanks for all the email.	Thanks for all the email.	2385442	1471983367019	1471983367081	e	69
4705	50036	Thanks for all the email.	Thanks for all the email.	2385446	1471983367126	1471983367211	 	32
4705	50036	Thanks for all the email.	Thanks for all the email.	2385449	1471983367226	1471983367311	e	69
4705	50036	Thanks for all the email.	Thanks for all the email.	2385452	1471983367326	1471983367402	m	77
4705	50036	Thanks for all the email.	Thanks for all the email.	2385471	1471983367436	1471983367534	a	65
4705	50036	Thanks for all the email.	Thanks for all the email.	2385473	1471983367526	1471983367614	i	73
4705	50036	Thanks for all the email.	Thanks for all the email.	2385475	1471983367736	1471983367823	l	76
4705	50036	Thanks for all the email.	Thanks for all the email.	2385476	1471983367944	1471983368044	.	190
4705	50046	Now go get washed up for dinner.	Now go get washed up for dinner.	2385628	1471983370075	1471983370372	SHIFT	16
4705	50046	Now go get washed up for dinner.	Now go get washed up for dinner.	2385626	1471983370233	1471983370344	N	78
4705	50046	Now go get washed up for dinner.	Now go get washed up for dinner.	2385630	1471983370472	1471983370555	o	79
4705	50046	Now go get washed up for dinner.	Now go get washed up for dinner.	2385635	1471983370585	1471983370661	w	87
4705	50046	Now go get washed up for dinner.	Now go get washed up for dinner.	2385641	1471983370673	1471983370774	 	32
4705	50046	Now go get washed up for dinner.	Now go get washed up for dinner.	2385652	1471983370794	1471983370884	w	87
4705	50046	Now go get washed up for dinner.	Now go get washed up for dinner.	2385787	1471983370956	1471983371014	e	69
4705	50046	Now go get washed up for dinner.	Now go get washed up for dinner.	2385792	1471983371056	1471983371144	 	32
4705	50046	Now go get washed up for dinner.	Now go get washed up for dinner.	2385797	1471983371256	1471983371354	g	71
4705	50046	Now go get washed up for dinner.	Now go get washed up for dinner.	2385802	1471983371995	1471983372074	BKSP	8
4705	50046	Now go get washed up for dinner.	Now go get washed up for dinner.	2385808	1471983372136	1471983372213	BKSP	8
4705	50046	Now go get washed up for dinner.	Now go get washed up for dinner.	2385810	1471983372572	1471983372662	BKSP	8
4705	50046	Now go get washed up for dinner.	Now go get washed up for dinner.	2385813	1471983372736	1471983372832	BKSP	8
4705	50046	Now go get washed up for dinner.	Now go get washed up for dinner.	2385816	1471983372974	1471983373074	g	71
4705	50046	Now go get washed up for dinner.	Now go get washed up for dinner.	2385819	1471983373082	1471983373175	o	79
4705	50046	Now go get washed up for dinner.	Now go get washed up for dinner.	2385829	1471983373266	1471983373374	 	32
4705	50046	Now go get washed up for dinner.	Now go get washed up for dinner.	2385835	1471983373383	1471983373472	g	71
4705	50046	Now go get washed up for dinner.	Now go get washed up for dinner.	2385842	1471983373494	1471983373565	e	69
4705	50046	Now go get washed up for dinner.	Now go get washed up for dinner.	2385847	1471983373616	1471983373693	t	84
4705	50046	Now go get washed up for dinner.	Now go get washed up for dinner.	2385903	1471983373685	1471983373774	 	32
4705	50046	Now go get washed up for dinner.	Now go get washed up for dinner.	2385904	1471983373803	1471983373881	w	87
4705	50046	Now go get washed up for dinner.	Now go get washed up for dinner.	2385905	1471983373934	1471983374021	a	65
4705	50046	Now go get washed up for dinner.	Now go get washed up for dinner.	2385906	1471983374644	1471983374733	s	83
4705	50046	Now go get washed up for dinner.	Now go get washed up for dinner.	2385907	1471983374764	1471983374843	h	72
4705	50046	Now go get washed up for dinner.	Now go get washed up for dinner.	2385909	1471983374864	1471983374940	e	69
4705	50046	Now go get washed up for dinner.	Now go get washed up for dinner.	2385943	1471983375045	1471983375119	d	68
4705	50046	Now go get washed up for dinner.	Now go get washed up for dinner.	2385945	1471983375115	1471983375204	 	32
4705	50046	Now go get washed up for dinner.	Now go get washed up for dinner.	2385948	1471983375326	1471983375404	u	85
4705	50046	Now go get washed up for dinner.	Now go get washed up for dinner.	2385952	1471983375496	1471983375553	p	80
4705	50046	Now go get washed up for dinner.	Now go get washed up for dinner.	2385958	1471983375644	1471983375741	 	32
4705	50046	Now go get washed up for dinner.	Now go get washed up for dinner.	2385979	1471983375733	1471983375821	f	70
4705	50046	Now go get washed up for dinner.	Now go get washed up for dinner.	2385985	1471983375855	1471983375933	o	79
4705	50046	Now go get washed up for dinner.	Now go get washed up for dinner.	2385991	1471983375913	1471983376001	r	82
4705	50046	Now go get washed up for dinner.	Now go get washed up for dinner.	2385996	1471983376015	1471983376112	 	32
4705	50046	Now go get washed up for dinner.	Now go get washed up for dinner.	2386001	1471983376136	1471983376222	d	68
4705	50046	Now go get washed up for dinner.	Now go get washed up for dinner.	2386025	1471983376205	1471983376274	i	73
4705	50046	Now go get washed up for dinner.	Now go get washed up for dinner.	2386030	1471983376353	1471983376444	n	78
4705	50046	Now go get washed up for dinner.	Now go get washed up for dinner.	2386035	1471983376495	1471983376585	n	78
4705	50046	Now go get washed up for dinner.	Now go get washed up for dinner.	2386040	1471983376655	1471983376724	e	69
4705	50046	Now go get washed up for dinner.	Now go get washed up for dinner.	2386045	1471983376776	1471983376874	r	82
4705	50046	Now go get washed up for dinner.	Now go get washed up for dinner.	2386050	1471983376895	1471983376985	.	190
4705	50052	New switches can also be added to the Paging System.	New switches can also be added to the Paging System.	2386219	1471983378754	1471983379062	SHIFT	16
4705	50052	New switches can also be added to the Paging System.	New switches can also be added to the Paging System.	2386213	1471983378916	1471983379031	N	78
4705	50052	New switches can also be added to the Paging System.	New switches can also be added to the Paging System.	2386223	1471983379144	1471983379212	e	69
4705	50052	New switches can also be added to the Paging System.	New switches can also be added to the Paging System.	2386226	1471983379265	1471983379343	w	87
4705	50052	New switches can also be added to the Paging System.	New switches can also be added to the Paging System.	2386228	1471983379373	1471983379474	 	32
4705	50052	New switches can also be added to the Paging System.	New switches can also be added to the Paging System.	2386231	1471983379504	1471983379605	s	83
4705	50052	New switches can also be added to the Paging System.	New switches can also be added to the Paging System.	2386250	1471983379686	1471983379763	w	87
4705	50052	New switches can also be added to the Paging System.	New switches can also be added to the Paging System.	2386252	1471983379855	1471983379944	i	73
4705	50052	New switches can also be added to the Paging System.	New switches can also be added to the Paging System.	2386254	1471983379976	1471983380064	t	84
4705	50052	New switches can also be added to the Paging System.	New switches can also be added to the Paging System.	2386256	1471983380175	1471983380285	c	67
4705	50052	New switches can also be added to the Paging System.	New switches can also be added to the Paging System.	2386276	1471983380274	1471983380354	h	72
4705	50052	New switches can also be added to the Paging System.	New switches can also be added to the Paging System.	2386278	1471983380362	1471983380433	e	69
4705	50052	New switches can also be added to the Paging System.	New switches can also be added to the Paging System.	2386281	1471983380533	1471983380621	s	83
4705	50052	New switches can also be added to the Paging System.	New switches can also be added to the Paging System.	2386283	1471983380605	1471983380701	 	32
4705	50052	New switches can also be added to the Paging System.	New switches can also be added to the Paging System.	2386285	1471983380726	1471983380821	c	67
4705	50052	New switches can also be added to the Paging System.	New switches can also be added to the Paging System.	2386288	1471983380855	1471983380972	a	65
4705	50052	New switches can also be added to the Paging System.	New switches can also be added to the Paging System.	2386304	1471983381005	1471983381085	n	78
4705	50052	New switches can also be added to the Paging System.	New switches can also be added to the Paging System.	2386306	1471983381424	1471983381543	 	32
4705	50052	New switches can also be added to the Paging System.	New switches can also be added to the Paging System.	2386308	1471983381586	1471983381702	a	65
4705	50052	New switches can also be added to the Paging System.	New switches can also be added to the Paging System.	2386310	1471983381722	1471983381803	l	76
4705	50052	New switches can also be added to the Paging System.	New switches can also be added to the Paging System.	2386313	1471983381814	1471983381903	s	83
4705	50052	New switches can also be added to the Paging System.	New switches can also be added to the Paging System.	2386331	1471983381935	1471983382021	o	79
4705	50052	New switches can also be added to the Paging System.	New switches can also be added to the Paging System.	2386335	1471983382133	1471983382263	 	32
4705	50052	New switches can also be added to the Paging System.	New switches can also be added to the Paging System.	2386339	1471983382344	1471983382431	b	66
4705	50052	New switches can also be added to the Paging System.	New switches can also be added to the Paging System.	2386343	1471983382486	1471983382573	e	69
4705	50052	New switches can also be added to the Paging System.	New switches can also be added to the Paging System.	2386406	1471983382565	1471983382663	 	32
4705	50052	New switches can also be added to the Paging System.	New switches can also be added to the Paging System.	2386408	1471983382674	1471983382764	a	65
4705	50052	New switches can also be added to the Paging System.	New switches can also be added to the Paging System.	2386411	1471983382953	1471983383044	d	68
4705	50052	New switches can also be added to the Paging System.	New switches can also be added to the Paging System.	2386416	1471983383135	1471983383183	d	68
4705	50052	New switches can also be added to the Paging System.	New switches can also be added to the Paging System.	2386423	1471983383296	1471983383374	e	69
4705	50052	New switches can also be added to the Paging System.	New switches can also be added to the Paging System.	2386430	1471983383456	1471983383542	d	68
4705	50052	New switches can also be added to the Paging System.	New switches can also be added to the Paging System.	2386466	1471983383616	1471983383724	 	32
4705	50052	New switches can also be added to the Paging System.	New switches can also be added to the Paging System.	2386468	1471983383853	1471983383943	t	84
4705	50052	New switches can also be added to the Paging System.	New switches can also be added to the Paging System.	2386476	1471983383951	1471983384021	o	79
4705	50052	New switches can also be added to the Paging System.	New switches can also be added to the Paging System.	2386480	1471983384106	1471983384205	 	32
4705	50052	New switches can also be added to the Paging System.	New switches can also be added to the Paging System.	2386518	1471983384185	1471983384284	t	84
4705	50052	New switches can also be added to the Paging System.	New switches can also be added to the Paging System.	2386519	1471983384307	1471983384391	h	72
4705	50052	New switches can also be added to the Paging System.	New switches can also be added to the Paging System.	2386521	1471983384363	1471983384433	e	69
4705	50052	New switches can also be added to the Paging System.	New switches can also be added to the Paging System.	2386523	1471983384472	1471983384561	 	32
4705	50052	New switches can also be added to the Paging System.	New switches can also be added to the Paging System.	2386527	1471983384674	1471983384914	SHIFT	16
4705	50052	New switches can also be added to the Paging System.	New switches can also be added to the Paging System.	2386525	1471983384754	1471983384861	P	80
4705	50052	New switches can also be added to the Paging System.	New switches can also be added to the Paging System.	2386546	1471983384873	1471983384973	A	65
4705	50052	New switches can also be added to the Paging System.	New switches can also be added to the Paging System.	2386551	1471983385056	1471983385131	g	71
4705	50052	New switches can also be added to the Paging System.	New switches can also be added to the Paging System.	2386556	1471983385123	1471983385204	i	73
4705	50052	New switches can also be added to the Paging System.	New switches can also be added to the Paging System.	2386562	1471983385251	1471983385353	n	78
4705	50052	New switches can also be added to the Paging System.	New switches can also be added to the Paging System.	2386566	1471983385385	1471983385472	g	71
4705	50052	New switches can also be added to the Paging System.	New switches can also be added to the Paging System.	2386569	1471983385483	1471983385561	 	32
4705	50052	New switches can also be added to the Paging System.	New switches can also be added to the Paging System.	2386702	1471983385684	1471983385851	SHIFT	16
4705	50052	New switches can also be added to the Paging System.	New switches can also be added to the Paging System.	2386695	1471983385733	1471983385843	S	83
4705	50052	New switches can also be added to the Paging System.	New switches can also be added to the Paging System.	2386709	1471983386133	1471983386222	BKSP	8
4705	50052	New switches can also be added to the Paging System.	New switches can also be added to the Paging System.	2386716	1471983386274	1471983386352	BKSP	8
4705	50052	New switches can also be added to the Paging System.	New switches can also be added to the Paging System.	2386720	1471983386415	1471983386484	BKSP	8
4705	50052	New switches can also be added to the Paging System.	New switches can also be added to the Paging System.	2386728	1471983386542	1471983386614	BKSP	8
4705	50052	New switches can also be added to the Paging System.	New switches can also be added to the Paging System.	2386733	1471983386674	1471983386750	BKSP	8
4705	50052	New switches can also be added to the Paging System.	New switches can also be added to the Paging System.	2386737	1471983386782	1471983386863	BKSP	8
4705	50052	New switches can also be added to the Paging System.	New switches can also be added to the Paging System.	2386742	1471983386922	1471983387014	BKSP	8
4705	50052	New switches can also be added to the Paging System.	New switches can also be added to the Paging System.	2386749	1471983387184	1471983387290	a	65
4705	50052	New switches can also be added to the Paging System.	New switches can also be added to the Paging System.	2386757	1471983387755	1471983387842	g	71
4705	50052	New switches can also be added to the Paging System.	New switches can also be added to the Paging System.	2386769	1471983387862	1471983387931	i	73
4705	50052	New switches can also be added to the Paging System.	New switches can also be added to the Paging System.	2386777	1471983388005	1471983388091	n	78
4705	50052	New switches can also be added to the Paging System.	New switches can also be added to the Paging System.	2386798	1471983388083	1471983388172	g	71
4705	50052	New switches can also be added to the Paging System.	New switches can also be added to the Paging System.	2386803	1471983388184	1471983388284	 	32
4705	50052	New switches can also be added to the Paging System.	New switches can also be added to the Paging System.	2386812	1471983388392	1471983388562	SHIFT	16
4705	50052	New switches can also be added to the Paging System.	New switches can also be added to the Paging System.	2386806	1471983388422	1471983388532	S	83
4705	50052	New switches can also be added to the Paging System.	New switches can also be added to the Paging System.	2386818	1471983388635	1471983388731	y	89
4705	50052	New switches can also be added to the Paging System.	New switches can also be added to the Paging System.	2386822	1471983388715	1471983388792	s	83
4705	50052	New switches can also be added to the Paging System.	New switches can also be added to the Paging System.	2386825	1471983388854	1471983388953	t	84
4705	50052	New switches can also be added to the Paging System.	New switches can also be added to the Paging System.	2386839	1471983388992	1471983389072	e	69
4705	50052	New switches can also be added to the Paging System.	New switches can also be added to the Paging System.	2386843	1471983389076	1471983389162	m	77
4705	50052	New switches can also be added to the Paging System.	New switches can also be added to the Paging System.	2386850	1471983389325	1471983389440	.	190
4705	50070	I bet you it will be a strong motor all day, though.	I bet you it will be a strong motor all day, though.	2387068	1471983391245	1471983391571	SHIFT	16
4705	50070	I bet you it will be a strong motor all day, though.	I bet you it will be a strong motor all day, though.	2387062	1471983391425	1471983391542	I	73
4705	50070	I bet you it will be a strong motor all day, though.	I bet you it will be a strong motor all day, though.	2387074	1471983391654	1471983391763	 	32
4705	50070	I bet you it will be a strong motor all day, though.	I bet you it will be a strong motor all day, though.	2387079	1471983391842	1471983391934	b	66
4705	50070	I bet you it will be a strong motor all day, though.	I bet you it will be a strong motor all day, though.	2387085	1471983391995	1471983392063	e	69
4705	50070	I bet you it will be a strong motor all day, though.	I bet you it will be a strong motor all day, though.	2387092	1471983392125	1471983392211	t	84
4705	50070	I bet you it will be a strong motor all day, though.	I bet you it will be a strong motor all day, though.	2387116	1471983392226	1471983392321	 	32
4705	50070	I bet you it will be a strong motor all day, though.	I bet you it will be a strong motor all day, though.	2387121	1471983392363	1471983392450	y	89
4705	50070	I bet you it will be a strong motor all day, though.	I bet you it will be a strong motor all day, though.	2387124	1471983392435	1471983392490	o	79
4705	50070	I bet you it will be a strong motor all day, though.	I bet you it will be a strong motor all day, though.	2387129	1471983392543	1471983392633	u	85
4705	50070	I bet you it will be a strong motor all day, though.	I bet you it will be a strong motor all day, though.	2387134	1471983392775	1471983392863	 	32
4705	50070	I bet you it will be a strong motor all day, though.	I bet you it will be a strong motor all day, though.	2387181	1471983393112	1471983393201	i	73
4705	50070	I bet you it will be a strong motor all day, though.	I bet you it will be a strong motor all day, though.	2387184	1471983393225	1471983393321	t	84
4705	50070	I bet you it will be a strong motor all day, though.	I bet you it will be a strong motor all day, though.	2387185	1471983393313	1471983393413	 	32
4705	50070	I bet you it will be a strong motor all day, though.	I bet you it will be a strong motor all day, though.	2387187	1471983393435	1471983393512	w	87
4705	50070	I bet you it will be a strong motor all day, though.	I bet you it will be a strong motor all day, though.	2387189	1471983393573	1471983393639	i	73
4705	50070	I bet you it will be a strong motor all day, though.	I bet you it will be a strong motor all day, though.	2387228	1471983393764	1471983393820	l	76
4705	50070	I bet you it will be a strong motor all day, though.	I bet you it will be a strong motor all day, though.	2387230	1471983393872	1471983393952	l	76
4705	50070	I bet you it will be a strong motor all day, though.	I bet you it will be a strong motor all day, though.	2387231	1471983394025	1471983394124	 	32
4705	50070	I bet you it will be a strong motor all day, though.	I bet you it will be a strong motor all day, though.	2387234	1471983394135	1471983394201	b	66
4705	50070	I bet you it will be a strong motor all day, though.	I bet you it will be a strong motor all day, though.	2387239	1471983394265	1471983394333	e	69
4705	50070	I bet you it will be a strong motor all day, though.	I bet you it will be a strong motor all day, though.	2387275	1471983394345	1471983394440	 	32
4705	50070	I bet you it will be a strong motor all day, though.	I bet you it will be a strong motor all day, though.	2387278	1471983394603	1471983394723	a	65
4705	50070	I bet you it will be a strong motor all day, though.	I bet you it will be a strong motor all day, though.	2387284	1471983394765	1471983394852	 	32
4705	50070	I bet you it will be a strong motor all day, though.	I bet you it will be a strong motor all day, though.	2387289	1471983394944	1471983395051	s	83
4705	50070	I bet you it will be a strong motor all day, though.	I bet you it will be a strong motor all day, though.	2387296	1471983395163	1471983395273	t	84
4705	50070	I bet you it will be a strong motor all day, though.	I bet you it will be a strong motor all day, though.	2387361	1471983395544	1471983395621	r	82
4705	50070	I bet you it will be a strong motor all day, though.	I bet you it will be a strong motor all day, though.	2387364	1471983395703	1471983395761	o	79
4705	50070	I bet you it will be a strong motor all day, though.	I bet you it will be a strong motor all day, though.	2387367	1471983396204	1471983396300	n	78
4705	50070	I bet you it will be a strong motor all day, though.	I bet you it will be a strong motor all day, though.	2387370	1471983396342	1471983396432	g	71
4705	50070	I bet you it will be a strong motor all day, though.	I bet you it will be a strong motor all day, though.	2387373	1471983396442	1471983396533	 	32
4705	50070	I bet you it will be a strong motor all day, though.	I bet you it will be a strong motor all day, though.	2387436	1471983396634	1471983396714	m	77
4705	50070	I bet you it will be a strong motor all day, though.	I bet you it will be a strong motor all day, though.	2387439	1471983396762	1471983396850	o	79
4705	50070	I bet you it will be a strong motor all day, though.	I bet you it will be a strong motor all day, though.	2387440	1471983396914	1471983396999	t	84
4705	50070	I bet you it will be a strong motor all day, though.	I bet you it will be a strong motor all day, though.	2387441	1471983397023	1471983397103	o	79
4705	50070	I bet you it will be a strong motor all day, though.	I bet you it will be a strong motor all day, though.	2387442	1471983397871	1471983397971	r	82
4705	50070	I bet you it will be a strong motor all day, though.	I bet you it will be a strong motor all day, though.	2387463	1471983397991	1471983398092	 	32
4705	50070	I bet you it will be a strong motor all day, though.	I bet you it will be a strong motor all day, though.	2387464	1471983398142	1471983398243	a	65
4705	50070	I bet you it will be a strong motor all day, though.	I bet you it will be a strong motor all day, though.	2387465	1471983398251	1471983398312	l	76
4705	50070	I bet you it will be a strong motor all day, though.	I bet you it will be a strong motor all day, though.	2387466	1471983398371	1471983398433	l	76
4705	50070	I bet you it will be a strong motor all day, though.	I bet you it will be a strong motor all day, though.	2387468	1471983398522	1471983398633	 	32
4705	50070	I bet you it will be a strong motor all day, though.	I bet you it will be a strong motor all day, though.	2387495	1471983398613	1471983398713	d	68
4705	50070	I bet you it will be a strong motor all day, though.	I bet you it will be a strong motor all day, though.	2387497	1471983398734	1471983398800	a	65
4705	50070	I bet you it will be a strong motor all day, though.	I bet you it will be a strong motor all day, though.	2387500	1471983398893	1471983398990	y	89
4705	50070	I bet you it will be a strong motor all day, though.	I bet you it will be a strong motor all day, though.	2387502	1471983398982	1471983399052	,	188
4705	50070	I bet you it will be a strong motor all day, though.	I bet you it will be a strong motor all day, though.	2387504	1471983399143	1471983399232	 	32
4705	50070	I bet you it will be a strong motor all day, though.	I bet you it will be a strong motor all day, though.	2387508	1471983399252	1471983399342	t	84
4705	50070	I bet you it will be a strong motor all day, though.	I bet you it will be a strong motor all day, though.	2387549	1471983399348	1471983399433	h	72
4705	50070	I bet you it will be a strong motor all day, though.	I bet you it will be a strong motor all day, though.	2387553	1471983399474	1471983399560	o	79
4705	50070	I bet you it will be a strong motor all day, though.	I bet you it will be a strong motor all day, though.	2387559	1471983399601	1471983399661	u	85
4705	50070	I bet you it will be a strong motor all day, though.	I bet you it will be a strong motor all day, though.	2387563	1471983399755	1471983399842	g	71
4705	50070	I bet you it will be a strong motor all day, though.	I bet you it will be a strong motor all day, though.	2387566	1471983400444	1471983400533	h	72
4705	50070	I bet you it will be a strong motor all day, though.	I bet you it will be a strong motor all day, though.	2387583	1471983400804	1471983400901	.	190
4705	50087	Milly is a seller.	Milly is a seller.	2387750	1471983402711	1471983403013	SHIFT	16
4705	50087	Milly is a seller.	Milly is a seller.	2387747	1471983402883	1471983403001	M	77
4705	50087	Milly is a seller.	Milly is a seller.	2387755	1471983403111	1471983403210	i	73
4705	50087	Milly is a seller.	Milly is a seller.	2387761	1471983403331	1471983403411	l	76
4705	50087	Milly is a seller.	Milly is a seller.	2387767	1471983403463	1471983403529	l	76
4705	50087	Milly is a seller.	Milly is a seller.	2387773	1471983403617	1471983403712	y	89
4705	50087	Milly is a seller.	Milly is a seller.	2387793	1471983403726	1471983403791	 	32
4705	50087	Milly is a seller.	Milly is a seller.	2387795	1471983403883	1471983403977	i	73
4705	50087	Milly is a seller.	Milly is a seller.	2387801	1471983403973	1471983404072	s	83
4705	50087	Milly is a seller.	Milly is a seller.	2387805	1471983404076	1471983404163	 	32
4705	50087	Milly is a seller.	Milly is a seller.	2387812	1471983404168	1471983404263	a	65
4705	50087	Milly is a seller.	Milly is a seller.	2387840	1471983404272	1471983404363	 	32
4705	50087	Milly is a seller.	Milly is a seller.	2387846	1471983404404	1471983404490	s	83
4705	50087	Milly is a seller.	Milly is a seller.	2387851	1471983404592	1471983404672	e	69
4705	50087	Milly is a seller.	Milly is a seller.	2387856	1471983404711	1471983404780	l	76
4705	50087	Milly is a seller.	Milly is a seller.	2387859	1471983404832	1471983404921	l	76
4705	50087	Milly is a seller.	Milly is a seller.	2387988	1471983405073	1471983405141	y	89
4705	50087	Milly is a seller.	Milly is a seller.	2387992	1471983406144	1471983406241	BKSP	8
4705	50087	Milly is a seller.	Milly is a seller.	2387996	1471983406404	1471983406502	e	69
4705	50087	Milly is a seller.	Milly is a seller.	2388001	1471983406565	1471983406670	r	82
4705	50087	Milly is a seller.	Milly is a seller.	2388009	1471983406721	1471983406853	.	190
4705	50098	Chinese President defended the military crackdown on protesters.	Chinese PResident defended the military crackdown on protesters.	2388194	1471983408944	1471983409142	SHIFT	16
4705	50098	Chinese President defended the military crackdown on protesters.	Chinese PResident defended the military crackdown on protesters.	2388203	1471983409044	1471983409146	C	67
4705	50098	Chinese President defended the military crackdown on protesters.	Chinese PResident defended the military crackdown on protesters.	2388208	1471983409243	1471983409320	h	72
4705	50098	Chinese President defended the military crackdown on protesters.	Chinese PResident defended the military crackdown on protesters.	2388216	1471983409383	1471983409481	i	73
4705	50098	Chinese President defended the military crackdown on protesters.	Chinese PResident defended the military crackdown on protesters.	2388219	1471983409584	1471983409671	n	78
4705	50098	Chinese President defended the military crackdown on protesters.	Chinese PResident defended the military crackdown on protesters.	2388220	1471983409733	1471983409800	e	69
4705	50098	Chinese President defended the military crackdown on protesters.	Chinese PResident defended the military crackdown on protesters.	2388279	1471983409904	1471983409992	s	83
4705	50098	Chinese President defended the military crackdown on protesters.	Chinese PResident defended the military crackdown on protesters.	2388281	1471983410054	1471983410142	e	69
4705	50098	Chinese President defended the military crackdown on protesters.	Chinese PResident defended the military crackdown on protesters.	2388283	1471983410172	1471983410252	 	32
4705	50098	Chinese President defended the military crackdown on protesters.	Chinese PResident defended the military crackdown on protesters.	2388289	1471983410372	1471983410630	SHIFT	16
4705	50098	Chinese President defended the military crackdown on protesters.	Chinese PResident defended the military crackdown on protesters.	2388286	1471983410465	1471983410592	P	80
4705	50098	Chinese President defended the military crackdown on protesters.	Chinese PResident defended the military crackdown on protesters.	2388331	1471983410598	1471983410682	R	82
4705	50098	Chinese President defended the military crackdown on protesters.	Chinese PResident defended the military crackdown on protesters.	2388332	1471983410701	1471983410769	e	69
4705	50098	Chinese President defended the military crackdown on protesters.	Chinese PResident defended the military crackdown on protesters.	2388333	1471983410864	1471983410969	s	83
4705	50098	Chinese President defended the military crackdown on protesters.	Chinese PResident defended the military crackdown on protesters.	2388335	1471983410992	1471983411090	i	73
4705	50098	Chinese President defended the military crackdown on protesters.	Chinese PResident defended the military crackdown on protesters.	2388337	1471983411165	1471983411221	d	68
4705	50098	Chinese President defended the military crackdown on protesters.	Chinese PResident defended the military crackdown on protesters.	2388340	1471983411253	1471983411349	e	69
4705	50098	Chinese President defended the military crackdown on protesters.	Chinese PResident defended the military crackdown on protesters.	2388410	1471983411411	1471983411529	n	78
4705	50098	Chinese President defended the military crackdown on protesters.	Chinese PResident defended the military crackdown on protesters.	2388413	1471983411674	1471983411770	t	84
4705	50098	Chinese President defended the military crackdown on protesters.	Chinese PResident defended the military crackdown on protesters.	2388414	1471983411825	1471983411920	 	32
4705	50098	Chinese President defended the military crackdown on protesters.	Chinese PResident defended the military crackdown on protesters.	2388415	1471983412674	1471983412749	d	68
4705	50098	Chinese President defended the military crackdown on protesters.	Chinese PResident defended the military crackdown on protesters.	2388416	1471983412794	1471983412870	e	69
4705	50098	Chinese President defended the military crackdown on protesters.	Chinese PResident defended the military crackdown on protesters.	2388436	1471983412934	1471983412979	f	70
4705	50098	Chinese President defended the military crackdown on protesters.	Chinese PResident defended the military crackdown on protesters.	2388440	1471983413032	1471983413119	e	69
4705	50098	Chinese President defended the military crackdown on protesters.	Chinese PResident defended the military crackdown on protesters.	2388443	1471983413191	1471983413291	n	78
4705	50098	Chinese President defended the military crackdown on protesters.	Chinese PResident defended the military crackdown on protesters.	2388445	1471983413343	1471983413419	d	68
4705	50098	Chinese President defended the military crackdown on protesters.	Chinese PResident defended the military crackdown on protesters.	2388448	1471983413442	1471983413521	e	69
4705	50098	Chinese President defended the military crackdown on protesters.	Chinese PResident defended the military crackdown on protesters.	2388457	1471983413564	1471983413661	d	68
4705	50098	Chinese President defended the military crackdown on protesters.	Chinese PResident defended the military crackdown on protesters.	2388460	1471983413653	1471983413750	 	32
4705	50098	Chinese President defended the military crackdown on protesters.	Chinese PResident defended the military crackdown on protesters.	2388463	1471983413803	1471983413871	t	84
4705	50098	Chinese President defended the military crackdown on protesters.	Chinese PResident defended the military crackdown on protesters.	2388466	1471983413893	1471983413966	h	72
4705	50098	Chinese President defended the military crackdown on protesters.	Chinese PResident defended the military crackdown on protesters.	2388496	1471983413954	1471983414052	e	69
4705	50098	Chinese President defended the military crackdown on protesters.	Chinese PResident defended the military crackdown on protesters.	2388499	1471983414073	1471983414171	 	32
4705	50098	Chinese President defended the military crackdown on protesters.	Chinese PResident defended the military crackdown on protesters.	2388503	1471983414273	1471983414363	m	77
4705	50098	Chinese President defended the military crackdown on protesters.	Chinese PResident defended the military crackdown on protesters.	2388505	1471983414473	1471983414563	i	73
4705	50098	Chinese President defended the military crackdown on protesters.	Chinese PResident defended the military crackdown on protesters.	2388508	1471983414683	1471983414763	l	76
4705	50098	Chinese President defended the military crackdown on protesters.	Chinese PResident defended the military crackdown on protesters.	2388512	1471983414832	1471983414920	i	73
4705	50098	Chinese President defended the military crackdown on protesters.	Chinese PResident defended the military crackdown on protesters.	2388549	1471983415072	1471983415203	t	84
4705	50098	Chinese President defended the military crackdown on protesters.	Chinese PResident defended the military crackdown on protesters.	2388552	1471983415264	1471983415350	a	65
4705	50098	Chinese President defended the military crackdown on protesters.	Chinese PResident defended the military crackdown on protesters.	2388556	1471983415372	1471983415472	r	82
4705	50098	Chinese President defended the military crackdown on protesters.	Chinese PResident defended the military crackdown on protesters.	2388558	1471983415592	1471983415690	y	89
4705	50098	Chinese President defended the military crackdown on protesters.	Chinese PResident defended the military crackdown on protesters.	2388562	1471983415714	1471983415811	 	32
4705	50098	Chinese President defended the military crackdown on protesters.	Chinese PResident defended the military crackdown on protesters.	2388584	1471983415902	1471983416012	c	67
4705	50098	Chinese President defended the military crackdown on protesters.	Chinese PResident defended the military crackdown on protesters.	2388590	1471983416094	1471983416189	r	82
4705	50098	Chinese President defended the military crackdown on protesters.	Chinese PResident defended the military crackdown on protesters.	2388596	1471983416212	1471983416322	a	65
4705	50098	Chinese President defended the military crackdown on protesters.	Chinese PResident defended the military crackdown on protesters.	2388600	1471983416364	1471983416462	c	67
4705	50098	Chinese President defended the military crackdown on protesters.	Chinese PResident defended the military crackdown on protesters.	2388602	1471983416511	1471983416599	k	75
4705	50098	Chinese President defended the military crackdown on protesters.	Chinese PResident defended the military crackdown on protesters.	2388624	1471983417222	1471983417312	d	68
4705	50098	Chinese President defended the military crackdown on protesters.	Chinese PResident defended the military crackdown on protesters.	2388626	1471983417332	1471983417422	o	79
4705	50098	Chinese President defended the military crackdown on protesters.	Chinese PResident defended the military crackdown on protesters.	2388628	1471983417434	1471983417512	w	87
4705	50098	Chinese President defended the military crackdown on protesters.	Chinese PResident defended the military crackdown on protesters.	2388630	1471983417534	1471983417623	n	78
4705	50098	Chinese President defended the military crackdown on protesters.	Chinese PResident defended the military crackdown on protesters.	2388632	1471983417704	1471983417803	 	32
4705	50098	Chinese President defended the military crackdown on protesters.	Chinese PResident defended the military crackdown on protesters.	2388660	1471983417943	1471983418032	o	79
4705	50098	Chinese President defended the military crackdown on protesters.	Chinese PResident defended the military crackdown on protesters.	2388662	1471983418083	1471983418153	n	78
4705	50098	Chinese President defended the military crackdown on protesters.	Chinese PResident defended the military crackdown on protesters.	2388664	1471983418241	1471983418351	 	32
4705	50098	Chinese President defended the military crackdown on protesters.	Chinese PResident defended the military crackdown on protesters.	2388670	1471983418454	1471983418531	p	80
4705	50098	Chinese President defended the military crackdown on protesters.	Chinese PResident defended the military crackdown on protesters.	2388675	1471983418564	1471983418663	r	82
4705	50098	Chinese President defended the military crackdown on protesters.	Chinese PResident defended the military crackdown on protesters.	2388701	1471983418670	1471983418741	o	79
4705	50098	Chinese President defended the military crackdown on protesters.	Chinese PResident defended the military crackdown on protesters.	2388702	1471983418775	1471983418852	t	84
4705	50098	Chinese President defended the military crackdown on protesters.	Chinese PResident defended the military crackdown on protesters.	2388704	1471983418911	1471983418989	e	69
4705	50098	Chinese President defended the military crackdown on protesters.	Chinese PResident defended the military crackdown on protesters.	2388706	1471983419101	1471983419180	s	83
4705	50098	Chinese President defended the military crackdown on protesters.	Chinese PResident defended the military crackdown on protesters.	2388708	1471983419321	1471983419472	t	84
4705	50098	Chinese President defended the military crackdown on protesters.	Chinese PResident defended the military crackdown on protesters.	2388753	1471983419633	1471983419713	e	69
4705	50098	Chinese President defended the military crackdown on protesters.	Chinese PResident defended the military crackdown on protesters.	2388756	1471983419754	1471983419863	r	82
4705	50098	Chinese President defended the military crackdown on protesters.	Chinese PResident defended the military crackdown on protesters.	2388758	1471983419964	1471983420063	s	83
4705	50098	Chinese President defended the military crackdown on protesters.	Chinese PResident defended the military crackdown on protesters.	2388759	1471983420193	1471983420281	.	190
4705	50115	Europe has lost a great ally.	Europe has lost a great ally.	2388933	1471983422232	1471983422449	SHIFT	16
4705	50115	Europe has lost a great ally.	Europe has lost a great ally.	2388929	1471983422323	1471983422411	E	69
4705	50115	Europe has lost a great ally.	Europe has lost a great ally.	2388940	1471983422674	1471983422752	u	85
4705	50115	Europe has lost a great ally.	Europe has lost a great ally.	2388941	1471983423021	1471983423119	r	82
4705	50115	Europe has lost a great ally.	Europe has lost a great ally.	2388943	1471983423374	1471983423461	o	79
4705	50115	Europe has lost a great ally.	Europe has lost a great ally.	2388944	1471983423524	1471983423623	p	80
4705	50115	Europe has lost a great ally.	Europe has lost a great ally.	2388975	1471983423682	1471983423773	e	69
4705	50115	Europe has lost a great ally.	Europe has lost a great ally.	2388980	1471983423814	1471983423913	 	32
4705	50115	Europe has lost a great ally.	Europe has lost a great ally.	2388984	1471983424031	1471983424132	h	72
4705	50115	Europe has lost a great ally.	Europe has lost a great ally.	2388987	1471983424124	1471983424211	a	65
4705	50115	Europe has lost a great ally.	Europe has lost a great ally.	2388989	1471983424274	1471983424373	s	83
4705	50115	Europe has lost a great ally.	Europe has lost a great ally.	2389021	1471983424376	1471983424472	 	32
4705	50115	Europe has lost a great ally.	Europe has lost a great ally.	2389025	1471983424602	1471983424673	l	76
4705	50115	Europe has lost a great ally.	Europe has lost a great ally.	2389030	1471983424754	1471983424850	o	79
4705	50115	Europe has lost a great ally.	Europe has lost a great ally.	2389034	1471983424862	1471983424973	s	83
4705	50115	Europe has lost a great ally.	Europe has lost a great ally.	2389038	1471983425084	1471983425192	t	84
4705	50115	Europe has lost a great ally.	Europe has lost a great ally.	2389081	1471983425212	1471983425292	 	32
4705	50115	Europe has lost a great ally.	Europe has lost a great ally.	2389085	1471983425375	1471983425492	a	65
4705	50115	Europe has lost a great ally.	Europe has lost a great ally.	2389089	1471983425510	1471983425612	 	32
4705	50115	Europe has lost a great ally.	Europe has lost a great ally.	2389094	1471983425921	1471983426022	g	71
4705	50115	Europe has lost a great ally.	Europe has lost a great ally.	2389097	1471983426134	1471983426201	r	82
4705	50115	Europe has lost a great ally.	Europe has lost a great ally.	2389120	1471983426243	1471983426330	e	69
4705	50115	Europe has lost a great ally.	Europe has lost a great ally.	2389122	1471983426362	1471983426461	a	65
4705	50115	Europe has lost a great ally.	Europe has lost a great ally.	2389127	1471983426514	1471983426609	t	84
4705	50115	Europe has lost a great ally.	Europe has lost a great ally.	2389133	1471983426601	1471983426712	 	32
4705	50115	Europe has lost a great ally.	Europe has lost a great ally.	2389141	1471983426724	1471983426831	a	65
4705	50115	Europe has lost a great ally.	Europe has lost a great ally.	2389185	1471983426882	1471983426952	l	76
4705	50115	Europe has lost a great ally.	Europe has lost a great ally.	2389188	1471983427014	1471983427081	l	76
4705	50115	Europe has lost a great ally.	Europe has lost a great ally.	2389191	1471983427214	1471983427302	y	89
4705	50115	Europe has lost a great ally.	Europe has lost a great ally.	2389193	1471983427394	1471983427502	.	190
4705	50123	Lynn checked with Fran and she told her coordinator.	Lynn checked with Fran and she told her coordinator.	2389351	1471983429591	1471983429873	SHIFT	16
4705	50123	Lynn checked with Fran and she told her coordinator.	Lynn checked with Fran and she told her coordinator.	2389355	1471983429751	1471983429883	L	76
4705	50123	Lynn checked with Fran and she told her coordinator.	Lynn checked with Fran and she told her coordinator.	2389359	1471983430053	1471983430160	y	89
4705	50123	Lynn checked with Fran and she told her coordinator.	Lynn checked with Fran and she told her coordinator.	2389363	1471983430342	1471983430423	n	78
4705	50123	Lynn checked with Fran and she told her coordinator.	Lynn checked with Fran and she told her coordinator.	2389366	1471983430474	1471983430542	n	78
4705	50123	Lynn checked with Fran and she told her coordinator.	Lynn checked with Fran and she told her coordinator.	2389369	1471983430644	1471983430731	 	32
4705	50123	Lynn checked with Fran and she told her coordinator.	Lynn checked with Fran and she told her coordinator.	2389405	1471983430723	1471983430831	c	67
4705	50123	Lynn checked with Fran and she told her coordinator.	Lynn checked with Fran and she told her coordinator.	2389408	1471983430839	1471983430919	h	72
4705	50123	Lynn checked with Fran and she told her coordinator.	Lynn checked with Fran and she told her coordinator.	2389414	1471983430903	1471983430991	e	69
4705	50123	Lynn checked with Fran and she told her coordinator.	Lynn checked with Fran and she told her coordinator.	2389418	1471983431024	1471983431111	c	67
4705	50123	Lynn checked with Fran and she told her coordinator.	Lynn checked with Fran and she told her coordinator.	2389423	1471983431131	1471983431232	k	75
4705	50123	Lynn checked with Fran and she told her coordinator.	Lynn checked with Fran and she told her coordinator.	2389428	1471983431492	1471983431560	e	69
4705	50123	Lynn checked with Fran and she told her coordinator.	Lynn checked with Fran and she told her coordinator.	2389458	1471983431674	1471983431752	d	68
4705	50123	Lynn checked with Fran and she told her coordinator.	Lynn checked with Fran and she told her coordinator.	2389462	1471983431784	1471983431901	 	32
4705	50123	Lynn checked with Fran and she told her coordinator.	Lynn checked with Fran and she told her coordinator.	2389468	1471983431953	1471983432021	w	87
4705	50123	Lynn checked with Fran and she told her coordinator.	Lynn checked with Fran and she told her coordinator.	2389473	1471983432084	1471983432141	i	73
4705	50123	Lynn checked with Fran and she told her coordinator.	Lynn checked with Fran and she told her coordinator.	2389478	1471983432201	1471983432283	t	84
4705	50123	Lynn checked with Fran and she told her coordinator.	Lynn checked with Fran and she told her coordinator.	2389504	1471983432274	1471983432361	h	72
4705	50123	Lynn checked with Fran and she told her coordinator.	Lynn checked with Fran and she told her coordinator.	2389508	1471983432453	1471983432561	 	32
4705	50123	Lynn checked with Fran and she told her coordinator.	Lynn checked with Fran and she told her coordinator.	2389522	1471983432674	1471983432867	SHIFT	16
4705	50123	Lynn checked with Fran and she told her coordinator.	Lynn checked with Fran and she told her coordinator.	2389515	1471983432741	1471983432859	F	70
4705	50123	Lynn checked with Fran and she told her coordinator.	Lynn checked with Fran and she told her coordinator.	2389527	1471983432964	1471983433022	r	82
4705	50123	Lynn checked with Fran and she told her coordinator.	Lynn checked with Fran and she told her coordinator.	2389531	1471983433074	1471983433183	a	65
4705	50123	Lynn checked with Fran and she told her coordinator.	Lynn checked with Fran and she told her coordinator.	2389533	1471983433195	1471983433302	n	78
4705	50123	Lynn checked with Fran and she told her coordinator.	Lynn checked with Fran and she told her coordinator.	2389556	1471983433391	1471983433503	 	32
4705	50123	Lynn checked with Fran and she told her coordinator.	Lynn checked with Fran and she told her coordinator.	2389561	1471983433644	1471983433761	a	65
4705	50123	Lynn checked with Fran and she told her coordinator.	Lynn checked with Fran and she told her coordinator.	2389571	1471983433785	1471983433883	n	78
4705	50123	Lynn checked with Fran and she told her coordinator.	Lynn checked with Fran and she told her coordinator.	2389578	1471983433891	1471983433973	d	68
4705	50123	Lynn checked with Fran and she told her coordinator.	Lynn checked with Fran and she told her coordinator.	2389586	1471983434003	1471983434091	 	32
4705	50123	Lynn checked with Fran and she told her coordinator.	Lynn checked with Fran and she told her coordinator.	2389614	1471983434084	1471983434211	s	83
4705	50123	Lynn checked with Fran and she told her coordinator.	Lynn checked with Fran and she told her coordinator.	2389618	1471983434232	1471983434321	h	72
4705	50123	Lynn checked with Fran and she told her coordinator.	Lynn checked with Fran and she told her coordinator.	2389621	1471983434302	1471983434392	e	69
4705	50123	Lynn checked with Fran and she told her coordinator.	Lynn checked with Fran and she told her coordinator.	2389624	1471983434433	1471983434533	 	32
4705	50123	Lynn checked with Fran and she told her coordinator.	Lynn checked with Fran and she told her coordinator.	2389625	1471983434604	1471983434690	t	84
4705	50123	Lynn checked with Fran and she told her coordinator.	Lynn checked with Fran and she told her coordinator.	2389647	1471983434685	1471983434752	o	79
4705	50123	Lynn checked with Fran and she told her coordinator.	Lynn checked with Fran and she told her coordinator.	2389651	1471983434843	1471983434929	l	76
4705	50123	Lynn checked with Fran and she told her coordinator.	Lynn checked with Fran and she told her coordinator.	2389656	1471983434921	1471983435030	d	68
4705	50123	Lynn checked with Fran and she told her coordinator.	Lynn checked with Fran and she told her coordinator.	2389659	1471983435022	1471983435118	 	32
4705	50123	Lynn checked with Fran and she told her coordinator.	Lynn checked with Fran and she told her coordinator.	2389663	1471983435202	1471983435312	h	72
4705	50123	Lynn checked with Fran and she told her coordinator.	Lynn checked with Fran and she told her coordinator.	2389737	1471983435302	1471983435371	e	69
4705	50123	Lynn checked with Fran and she told her coordinator.	Lynn checked with Fran and she told her coordinator.	2389740	1471983435419	1471983435531	r	82
4705	50123	Lynn checked with Fran and she told her coordinator.	Lynn checked with Fran and she told her coordinator.	2389744	1471983435539	1471983435651	 	32
4705	50123	Lynn checked with Fran and she told her coordinator.	Lynn checked with Fran and she told her coordinator.	2389749	1471983436184	1471983436290	c	67
4705	50123	Lynn checked with Fran and she told her coordinator.	Lynn checked with Fran and she told her coordinator.	2389754	1471983436564	1471983436643	o	79
4705	50123	Lynn checked with Fran and she told her coordinator.	Lynn checked with Fran and she told her coordinator.	2389758	1471983436723	1471983436801	o	79
4705	50123	Lynn checked with Fran and she told her coordinator.	Lynn checked with Fran and she told her coordinator.	2389799	1471983436893	1471983437003	r	82
4705	50123	Lynn checked with Fran and she told her coordinator.	Lynn checked with Fran and she told her coordinator.	2389807	1471983437323	1471983437422	d	68
4705	50123	Lynn checked with Fran and she told her coordinator.	Lynn checked with Fran and she told her coordinator.	2389809	1471983437434	1471983437501	i	73
4705	50123	Lynn checked with Fran and she told her coordinator.	Lynn checked with Fran and she told her coordinator.	2389813	1471983437572	1471983437660	n	78
4705	50123	Lynn checked with Fran and she told her coordinator.	Lynn checked with Fran and she told her coordinator.	2389814	1471983437693	1471983437772	a	65
4705	50123	Lynn checked with Fran and she told her coordinator.	Lynn checked with Fran and she told her coordinator.	2389848	1471983437851	1471983437961	t	84
4705	50123	Lynn checked with Fran and she told her coordinator.	Lynn checked with Fran and she told her coordinator.	2389851	1471983438034	1471983438130	o	79
4705	50123	Lynn checked with Fran and she told her coordinator.	Lynn checked with Fran and she told her coordinator.	2389854	1471983438161	1471983438271	r	82
4705	50123	Lynn checked with Fran and she told her coordinator.	Lynn checked with Fran and she told her coordinator.	2389858	1471983438352	1471983438470	.	190
4705	50138	Thanks for sending this.	Thanks for sending this.	2390014	1471983440532	1471983440672	SHIFT	16
4705	50138	Thanks for sending this.	Thanks for sending this.	2390017	1471983440604	1471983440700	T	84
4705	50138	Thanks for sending this.	Thanks for sending this.	2390020	1471983440745	1471983440841	h	72
4705	50138	Thanks for sending this.	Thanks for sending this.	2390022	1471983440795	1471983440913	a	65
4705	50138	Thanks for sending this.	Thanks for sending this.	2390025	1471983440933	1471983441032	n	78
4705	50138	Thanks for sending this.	Thanks for sending this.	2390027	1471983441233	1471983441321	k	75
4705	50138	Thanks for sending this.	Thanks for sending this.	2390042	1471983441353	1471983441461	s	83
4705	50138	Thanks for sending this.	Thanks for sending this.	2390043	1471983441432	1471983441522	 	32
4705	50138	Thanks for sending this.	Thanks for sending this.	2390047	1471983441571	1471983441652	f	70
4705	50138	Thanks for sending this.	Thanks for sending this.	2390051	1471983441656	1471983441731	o	79
4705	50138	Thanks for sending this.	Thanks for sending this.	2390054	1471983441764	1471983441849	r	82
4705	50138	Thanks for sending this.	Thanks for sending this.	2390066	1471983441821	1471983441922	 	32
4705	50138	Thanks for sending this.	Thanks for sending this.	2390068	1471983441926	1471983442029	s	83
4705	50138	Thanks for sending this.	Thanks for sending this.	2390071	1471983442094	1471983442171	e	69
4705	50138	Thanks for sending this.	Thanks for sending this.	2390073	1471983442163	1471983442242	n	78
4705	50138	Thanks for sending this.	Thanks for sending this.	2390075	1471983442282	1471983442362	d	68
4705	50138	Thanks for sending this.	Thanks for sending this.	2390077	1471983442366	1471983442442	i	73
4705	50138	Thanks for sending this.	Thanks for sending this.	2390086	1471983442482	1471983442569	n	78
4705	50138	Thanks for sending this.	Thanks for sending this.	2390091	1471983442541	1471983442641	g	71
4705	50138	Thanks for sending this.	Thanks for sending this.	2390095	1471983442674	1471983442771	 	32
4705	50138	Thanks for sending this.	Thanks for sending this.	2390100	1471983442784	1471983442882	t	84
4705	50138	Thanks for sending this.	Thanks for sending this.	2390104	1471983442888	1471983442962	h	72
4705	50138	Thanks for sending this.	Thanks for sending this.	2390119	1471983442994	1471983443080	i	73
4705	50138	Thanks for sending this.	Thanks for sending this.	2390121	1471983443092	1471983443191	s	83
4705	50138	Thanks for sending this.	Thanks for sending this.	2390125	1471983443242	1471983443340	.	190
4705	50147	Miller might have to wait until Sunday.	Miller might hace to wait until Sunday.	2390280	1471983445163	1471983445470	SHIFT	16
4705	50147	Miller might have to wait until Sunday.	Miller might hace to wait until Sunday.	2390278	1471983445304	1471983445433	M	77
4705	50147	Miller might have to wait until Sunday.	Miller might hace to wait until Sunday.	2390282	1471983445543	1471983445633	i	73
4705	50147	Miller might have to wait until Sunday.	Miller might hace to wait until Sunday.	2390284	1471983445771	1471983445830	l	76
4705	50147	Miller might have to wait until Sunday.	Miller might hace to wait until Sunday.	2390289	1471983445883	1471983445961	l	76
4705	50147	Miller might have to wait until Sunday.	Miller might hace to wait until Sunday.	2390293	1471983446044	1471983446113	e	69
4705	50147	Miller might have to wait until Sunday.	Miller might hace to wait until Sunday.	2390300	1471983446142	1471983446250	r	82
4705	50147	Miller might have to wait until Sunday.	Miller might hace to wait until Sunday.	2390301	1471983446242	1471983446313	 	32
4705	50147	Miller might have to wait until Sunday.	Miller might hace to wait until Sunday.	2390302	1471983446405	1471983446482	m	77
4705	50147	Miller might have to wait until Sunday.	Miller might hace to wait until Sunday.	2390303	1471983446534	1471983446614	i	73
4705	50147	Miller might have to wait until Sunday.	Miller might hace to wait until Sunday.	2390304	1471983446616	1471983446709	g	71
4705	50147	Miller might have to wait until Sunday.	Miller might hace to wait until Sunday.	2390345	1471983446701	1471983446782	h	72
4705	50147	Miller might have to wait until Sunday.	Miller might hace to wait until Sunday.	2390349	1471983446802	1471983446882	t	84
4705	50147	Miller might have to wait until Sunday.	Miller might hace to wait until Sunday.	2390351	1471983446874	1471983446982	 	32
4705	50147	Miller might have to wait until Sunday.	Miller might hace to wait until Sunday.	2390356	1471983447064	1471983447158	h	72
4705	50147	Miller might have to wait until Sunday.	Miller might hace to wait until Sunday.	2390361	1471983447154	1471983447230	a	65
4705	50147	Miller might have to wait until Sunday.	Miller might hace to wait until Sunday.	2390367	1471983447305	1471983447399	c	67
4705	50147	Miller might have to wait until Sunday.	Miller might hace to wait until Sunday.	2390381	1471983447453	1471983447542	e	69
4705	50147	Miller might have to wait until Sunday.	Miller might hace to wait until Sunday.	2390385	1471983447534	1471983447631	 	32
4705	50147	Miller might have to wait until Sunday.	Miller might hace to wait until Sunday.	2390392	1471983447624	1471983447711	t	84
4705	50147	Miller might have to wait until Sunday.	Miller might hace to wait until Sunday.	2390398	1471983447724	1471983447809	o	79
4705	50147	Miller might have to wait until Sunday.	Miller might hace to wait until Sunday.	2390404	1471983447875	1471983447990	 	32
4705	50147	Miller might have to wait until Sunday.	Miller might hace to wait until Sunday.	2390495	1471983447954	1471983448043	w	87
4705	50147	Miller might have to wait until Sunday.	Miller might hace to wait until Sunday.	2390499	1471983448103	1471983448223	a	65
4705	50147	Miller might have to wait until Sunday.	Miller might hace to wait until Sunday.	2390503	1471983448211	1471983448263	i	73
4705	50147	Miller might have to wait until Sunday.	Miller might hace to wait until Sunday.	2390507	1471983448791	1471983448902	t	84
4705	50147	Miller might have to wait until Sunday.	Miller might hace to wait until Sunday.	2390510	1471983448964	1471983449060	 	32
4705	50147	Miller might have to wait until Sunday.	Miller might hace to wait until Sunday.	2390513	1471983449231	1471983449331	u	85
4705	50147	Miller might have to wait until Sunday.	Miller might hace to wait until Sunday.	2390575	1471983449451	1471983449511	n	78
4705	50147	Miller might have to wait until Sunday.	Miller might hace to wait until Sunday.	2390581	1471983449563	1471983449640	t	84
4705	50147	Miller might have to wait until Sunday.	Miller might hace to wait until Sunday.	2390590	1471983449652	1471983449732	i	73
4705	50147	Miller might have to wait until Sunday.	Miller might hace to wait until Sunday.	2390595	1471983449862	1471983449961	l	76
4705	50147	Miller might have to wait until Sunday.	Miller might hace to wait until Sunday.	2390598	1471983450082	1471983450191	 	32
4705	50147	Miller might have to wait until Sunday.	Miller might hace to wait until Sunday.	2390689	1471983450371	1471983450981	SHIFT	16
4705	50147	Miller might have to wait until Sunday.	Miller might hace to wait until Sunday.	2390682	1471983450781	1471983450911	S	83
4705	50147	Miller might have to wait until Sunday.	Miller might hace to wait until Sunday.	2390693	1471983451053	1471983451141	u	85
4705	50147	Miller might have to wait until Sunday.	Miller might hace to wait until Sunday.	2390700	1471983451233	1471983451333	n	78
4705	50147	Miller might have to wait until Sunday.	Miller might hace to wait until Sunday.	2390705	1471983451313	1471983451409	d	68
4705	50147	Miller might have to wait until Sunday.	Miller might hace to wait until Sunday.	2390709	1471983451434	1471983451523	a	65
4705	50147	Miller might have to wait until Sunday.	Miller might hace to wait until Sunday.	2390723	1471983451602	1471983451710	y	89
4705	50147	Miller might have to wait until Sunday.	Miller might hace to wait until Sunday.	2390729	1471983451734	1471983451823	.	190
4705	50157	Are you back in town?	Are you back in town?	2390838	1471983453682	1471983453869	SHIFT	16
4705	50157	Are you back in town?	Are you back in town?	2390841	1471983453782	1471983453877	A	65
4705	50157	Are you back in town?	Are you back in town?	2390843	1471983453984	1471983454051	r	82
4705	50157	Are you back in town?	Are you back in town?	2390847	1471983454091	1471983454163	e	69
4705	50157	Are you back in town?	Are you back in town?	2390849	1471983454163	1471983454260	 	32
4705	50157	Are you back in town?	Are you back in town?	2390850	1471983454314	1471983454402	y	89
4705	50157	Are you back in town?	Are you back in town?	2390902	1471983454382	1471983454452	o	79
4705	50157	Are you back in town?	Are you back in town?	2390906	1471983454491	1471983454570	u	85
4705	50157	Are you back in town?	Are you back in town?	2390908	1471983454673	1471983454791	 	32
4705	50157	Are you back in town?	Are you back in town?	2390910	1471983454783	1471983454873	b	66
4705	50157	Are you back in town?	Are you back in town?	2390912	1471983454944	1471983455011	a	65
4705	50157	Are you back in town?	Are you back in town?	2390917	1471983455114	1471983455222	c	67
4705	50157	Are you back in town?	Are you back in town?	2390958	1471983455273	1471983455361	k	75
4705	50157	Are you back in town?	Are you back in town?	2390961	1471983455453	1471983455543	 	32
4705	50157	Are you back in town?	Are you back in town?	2390965	1471983455632	1471983455712	i	73
4705	50157	Are you back in town?	Are you back in town?	2390971	1471983455774	1471983455853	n	78
4705	50157	Are you back in town?	Are you back in town?	2390975	1471983455934	1471983456031	 	32
4705	50157	Are you back in town?	Are you back in town?	2391032	1471983456045	1471983456131	t	84
4705	50157	Are you back in town?	Are you back in town?	2391035	1471983456140	1471983456220	o	79
4705	50157	Are you back in town?	Are you back in town?	2391038	1471983456232	1471983456302	w	87
4705	50157	Are you back in town?	Are you back in town?	2391044	1471983456321	1471983456423	n	78
4705	50157	Are you back in town?	Are you back in town?	2391049	1471983456681	1471983456933	SHIFT	16
4705	50157	Are you back in town?	Are you back in town?	2391041	1471983456814	1471983456953	?	191
4705	50166	I will tell them.	I will tell them.	2391209	1471983458595	1471983458853	SHIFT	16
4705	50166	I will tell them.	I will tell them.	2391214	1471983458744	1471983458863	I	73
4705	50166	I will tell them.	I will tell them.	2391219	1471983458963	1471983459081	 	32
4705	50166	I will tell them.	I will tell them.	2391222	1471983459164	1471983459263	w	87
4705	50166	I will tell them.	I will tell them.	2391226	1471983459294	1471983459372	i	73
4705	50166	I will tell them.	I will tell them.	2391230	1471983459501	1471983459561	l	76
4705	50166	I will tell them.	I will tell them.	2391255	1471983459613	1471983459679	l	76
4705	50166	I will tell them.	I will tell them.	2391258	1471983459773	1471983459893	 	32
4705	50166	I will tell them.	I will tell them.	2391262	1471983459901	1471983459993	t	84
4705	50166	I will tell them.	I will tell them.	2391266	1471983460033	1471983460123	e	69
4705	50166	I will tell them.	I will tell them.	2391270	1471983460274	1471983460343	l	76
4705	50166	I will tell them.	I will tell them.	2391279	1471983460404	1471983460481	l	76
4705	50166	I will tell them.	I will tell them.	2391282	1471983460564	1471983460669	 	32
4705	50166	I will tell them.	I will tell them.	2391284	1471983460692	1471983460782	t	84
4705	50166	I will tell them.	I will tell them.	2391288	1471983460790	1471983460873	h	72
4705	50166	I will tell them.	I will tell them.	2391331	1471983460861	1471983460953	e	69
4705	50166	I will tell them.	I will tell them.	2391334	1471983461014	1471983461090	m	77
4705	50166	I will tell them.	I will tell them.	2391340	1471983461645	1471983461740	.	190
