PARTICIPANT_ID	TEST_SECTION_ID	SENTENCE	USER_INPUT	KEYSTROKE_ID	PRESS_TIME	RELEASE_TIME	LETTER	KEYCODE
5006	53022	Have a good weekend.	Have a good weekend.	2522799	1471985915235	1471985915404	SHIFT	16
5006	53022	Have a good weekend.	Have a good weekend.	2522804	1471985915356	1471985915436	H	72
5006	53022	Have a good weekend.	Have a good weekend.	2522810	1471985915516	1471985915644	a	65
5006	53022	Have a good weekend.	Have a good weekend.	2522815	1471985915740	1471985915836	v	86
5006	53022	Have a good weekend.	Have a good weekend.	2522819	1471985915900	1471985915996	e	69
5006	53022	Have a good weekend.	Have a good weekend.	2522823	1471985916012	1471985916108	 	32
5006	53022	Have a good weekend.	Have a good weekend.	2522846	1471985916172	1471985916252	a	65
5006	53022	Have a good weekend.	Have a good weekend.	2522848	1471985916316	1471985916396	 	32
5006	53022	Have a good weekend.	Have a good weekend.	2522849	1471985916460	1471985916556	g	71
5006	53022	Have a good weekend.	Have a good weekend.	2522850	1471985916620	1471985916684	o	79
5006	53022	Have a good weekend.	Have a good weekend.	2522851	1471985916764	1471985916844	o	79
5006	53022	Have a good weekend.	Have a good weekend.	2522885	1471985916876	1471985916957	d	68
5006	53022	Have a good weekend.	Have a good weekend.	2522888	1471985917020	1471985917100	 	32
5006	53022	Have a good weekend.	Have a good weekend.	2522890	1471985917196	1471985917308	w	87
5006	53022	Have a good weekend.	Have a good weekend.	2522892	1471985917372	1471985917436	e	69
5006	53022	Have a good weekend.	Have a good weekend.	2522894	1471985917788	1471985917868	e	69
5006	53022	Have a good weekend.	Have a good weekend.	2522929	1471985917948	1471985918028	k	75
5006	53022	Have a good weekend.	Have a good weekend.	2522931	1471985918316	1471985918412	e	69
5006	53022	Have a good weekend.	Have a good weekend.	2522934	1471985918460	1471985918540	n	78
5006	53022	Have a good weekend.	Have a good weekend.	2522936	1471985918732	1471985918828	d	68
5006	53022	Have a good weekend.	Have a good weekend.	2522938	1471985918988	1471985919068	/	191
5006	53022	Have a good weekend.	Have a good weekend.	2522979	1471985919868	1471985919932	BKSP	8
5006	53022	Have a good weekend.	Have a good weekend.	2522981	1471985920220	1471985920284	.	190
5006	53031	But I hope to see you at Kari's house.	But I hope to see you at Kari's house.	2523108	1471985922460	1471985922620	SHIFT	16
5006	53031	But I hope to see you at Kari's house.	But I hope to see you at Kari's house.	2523109	1471985922572	1471985922652	B	66
5006	53031	But I hope to see you at Kari's house.	But I hope to see you at Kari's house.	2523111	1471985922780	1471985922844	u	85
5006	53031	But I hope to see you at Kari's house.	But I hope to see you at Kari's house.	2523114	1471985922892	1471985922972	t	84
5006	53031	But I hope to see you at Kari's house.	But I hope to see you at Kari's house.	2523118	1471985923036	1471985923116	 	32
5006	53031	But I hope to see you at Kari's house.	But I hope to see you at Kari's house.	2523122	1471985923228	1471985923357	SHIFT	16
5006	53031	But I hope to see you at Kari's house.	But I hope to see you at Kari's house.	2523147	1471985923276	1471985923372	I	73
5006	53031	But I hope to see you at Kari's house.	But I hope to see you at Kari's house.	2523148	1471985923452	1471985923532	 	32
5006	53031	But I hope to see you at Kari's house.	But I hope to see you at Kari's house.	2523150	1471985923612	1471985923708	h	72
5006	53031	But I hope to see you at Kari's house.	But I hope to see you at Kari's house.	2523152	1471985923756	1471985923839	o	79
5006	53031	But I hope to see you at Kari's house.	But I hope to see you at Kari's house.	2523154	1471985923932	1471985923996	p	80
5006	53031	But I hope to see you at Kari's house.	But I hope to see you at Kari's house.	2523156	1471985923996	1471985924060	e	69
5006	53031	But I hope to see you at Kari's house.	But I hope to see you at Kari's house.	2523165	1471985924140	1471985924204	 	32
5006	53031	But I hope to see you at Kari's house.	But I hope to see you at Kari's house.	2523167	1471985924172	1471985924252	t	84
5006	53031	But I hope to see you at Kari's house.	But I hope to see you at Kari's house.	2523172	1471985924300	1471985924380	o	79
5006	53031	But I hope to see you at Kari's house.	But I hope to see you at Kari's house.	2523176	1471985924556	1471985924668	s	83
5006	53031	But I hope to see you at Kari's house.	But I hope to see you at Kari's house.	2523180	1471985924797	1471985924860	e	69
5006	53031	But I hope to see you at Kari's house.	But I hope to see you at Kari's house.	2523223	1471985925100	1471985925164	BKSP	8
5006	53031	But I hope to see you at Kari's house.	But I hope to see you at Kari's house.	2523227	1471985925228	1471985925292	BKSP	8
5006	53031	But I hope to see you at Kari's house.	But I hope to see you at Kari's house.	2523230	1471985925468	1471985925548	 	32
5006	53031	But I hope to see you at Kari's house.	But I hope to see you at Kari's house.	2523232	1471985925564	1471985925708	s	83
5006	53031	But I hope to see you at Kari's house.	But I hope to see you at Kari's house.	2523234	1471985925996	1471985926092	e	69
5006	53031	But I hope to see you at Kari's house.	But I hope to see you at Kari's house.	2523236	1471985926188	1471985926252	e	69
5006	53031	But I hope to see you at Kari's house.	But I hope to see you at Kari's house.	2523238	1471985926332	1471985926412	 	32
5006	53031	But I hope to see you at Kari's house.	But I hope to see you at Kari's house.	2523241	1471985926460	1471985926556	y	89
5006	53031	But I hope to see you at Kari's house.	But I hope to see you at Kari's house.	2523243	1471985926604	1471985926700	o	79
5006	53031	But I hope to see you at Kari's house.	But I hope to see you at Kari's house.	2523245	1471985926668	1471985926780	u	85
5006	53031	But I hope to see you at Kari's house.	But I hope to see you at Kari's house.	2523247	1471985926828	1471985926908	 	32
5006	53031	But I hope to see you at Kari's house.	But I hope to see you at Kari's house.	2523249	1471985926924	1471985926988	a	65
5006	53031	But I hope to see you at Kari's house.	But I hope to see you at Kari's house.	2523294	1471985927164	1471985927244	t	84
5006	53031	But I hope to see you at Kari's house.	But I hope to see you at Kari's house.	2523296	1471985927324	1471985927404	 	32
5006	53031	But I hope to see you at Kari's house.	But I hope to see you at Kari's house.	2523298	1471985927484	1471985927628	SHIFT	16
5006	53031	But I hope to see you at Kari's house.	But I hope to see you at Kari's house.	2523300	1471985927564	1471985927676	K	75
5006	53031	But I hope to see you at Kari's house.	But I hope to see you at Kari's house.	2523302	1471985927772	1471985927852	a	65
5006	53031	But I hope to see you at Kari's house.	But I hope to see you at Kari's house.	2523304	1471985927852	1471985927948	r	82
5006	53031	But I hope to see you at Kari's house.	But I hope to see you at Kari's house.	2523326	1471985928028	1471985928108	i	73
5006	53031	But I hope to see you at Kari's house.	But I hope to see you at Kari's house.	2523327	1471985928380	1471985928492	'	222
5006	53031	But I hope to see you at Kari's house.	But I hope to see you at Kari's house.	2523330	1471985928588	1471985928668	s	83
5006	53031	But I hope to see you at Kari's house.	But I hope to see you at Kari's house.	2523333	1471985928764	1471985928828	 	32
5006	53031	But I hope to see you at Kari's house.	But I hope to see you at Kari's house.	2523336	1471985928988	1471985929068	h	72
5006	53031	But I hope to see you at Kari's house.	But I hope to see you at Kari's house.	2523369	1471985929132	1471985929244	o	79
5006	53031	But I hope to see you at Kari's house.	But I hope to see you at Kari's house.	2523372	1471985929244	1471985929324	u	85
5006	53031	But I hope to see you at Kari's house.	But I hope to see you at Kari's house.	2523376	1471985929292	1471985929516	s	83
5006	53031	But I hope to see you at Kari's house.	But I hope to see you at Kari's house.	2523382	1471985929468	1471985929596	e	69
5006	53031	But I hope to see you at Kari's house.	But I hope to see you at Kari's house.	2523386	1471985929836	1471985929916	.	190
5006	53036	We hope you found this information useful.	We hope you found this information useful. 	2523511	1471985932076	1471985932316	SHIFT	16
5006	53036	We hope you found this information useful.	We hope you found this information useful. 	2523513	1471985932252	1471985932380	W	87
5006	53036	We hope you found this information useful.	We hope you found this information useful. 	2523517	1471985932476	1471985932572	e	69
5006	53036	We hope you found this information useful.	We hope you found this information useful. 	2523520	1471985932668	1471985932732	 	32
5006	53036	We hope you found this information useful.	We hope you found this information useful. 	2523524	1471985932812	1471985932908	h	72
5006	53036	We hope you found this information useful.	We hope you found this information useful. 	2523527	1471985932940	1471985933036	o	79
5006	53036	We hope you found this information useful.	We hope you found this information useful. 	2523547	1471985933132	1471985933228	p	80
5006	53036	We hope you found this information useful.	We hope you found this information useful. 	2523551	1471985933260	1471985933340	e	69
5006	53036	We hope you found this information useful.	We hope you found this information useful. 	2523555	1471985933372	1471985933452	 	32
5006	53036	We hope you found this information useful.	We hope you found this information useful. 	2523556	1471985933516	1471985933612	y	89
5006	53036	We hope you found this information useful.	We hope you found this information useful. 	2523557	1471985933628	1471985933740	o	79
5006	53036	We hope you found this information useful.	We hope you found this information useful. 	2523575	1471985933708	1471985933824	u	85
5006	53036	We hope you found this information useful.	We hope you found this information useful. 	2523577	1471985933852	1471985933948	 	32
5006	53036	We hope you found this information useful.	We hope you found this information useful. 	2523579	1471985933948	1471985934060	f	70
5006	53036	We hope you found this information useful.	We hope you found this information useful. 	2523583	1471985934108	1471985934284	o	79
5006	53036	We hope you found this information useful.	We hope you found this information useful. 	2523586	1471985934252	1471985934348	u	85
5006	53036	We hope you found this information useful.	We hope you found this information useful. 	2523589	1471985934476	1471985934572	n	78
5006	53036	We hope you found this information useful.	We hope you found this information useful. 	2523604	1471985934557	1471985934668	d	68
5006	53036	We hope you found this information useful.	We hope you found this information useful. 	2523607	1471985934732	1471985934797	 	32
5006	53036	We hope you found this information useful.	We hope you found this information useful. 	2523611	1471985934828	1471985934908	t	84
5006	53036	We hope you found this information useful.	We hope you found this information useful. 	2523614	1471985934908	1471985934988	h	72
5006	53036	We hope you found this information useful.	We hope you found this information useful. 	2523616	1471985935036	1471985935132	i	73
5006	53036	We hope you found this information useful.	We hope you found this information useful. 	2523617	1471985935132	1471985935228	s	83
5006	53036	We hope you found this information useful.	We hope you found this information useful. 	2523627	1471985935276	1471985935340	 	32
5006	53036	We hope you found this information useful.	We hope you found this information useful. 	2523629	1471985935452	1471985935532	i	73
5006	53036	We hope you found this information useful.	We hope you found this information useful. 	2523631	1471985935612	1471985935708	n	78
5006	53036	We hope you found this information useful.	We hope you found this information useful. 	2523633	1471985935708	1471985935788	f	70
5006	53036	We hope you found this information useful.	We hope you found this information useful. 	2523634	1471985935852	1471985935948	o	79
5006	53036	We hope you found this information useful.	We hope you found this information useful. 	2523650	1471985935964	1471985936044	r	82
5006	53036	We hope you found this information useful.	We hope you found this information useful. 	2523652	1471985936108	1471985936188	m	77
5006	53036	We hope you found this information useful.	We hope you found this information useful. 	2523653	1471985936188	1471985936284	a	65
5006	53036	We hope you found this information useful.	We hope you found this information useful. 	2523654	1471985936364	1471985936460	t	84
5006	53036	We hope you found this information useful.	We hope you found this information useful. 	2523655	1471985936492	1471985936652	i	73
5006	53036	We hope you found this information useful.	We hope you found this information useful. 	2523662	1471985936604	1471985936732	o	79
5006	53036	We hope you found this information useful.	We hope you found this information useful. 	2523664	1471985936796	1471985936924	n	78
5006	53036	We hope you found this information useful.	We hope you found this information useful. 	2523666	1471985936988	1471985937068	 	32
5006	53036	We hope you found this information useful.	We hope you found this information useful. 	2523668	1471985937148	1471985937244	u	85
5006	53036	We hope you found this information useful.	We hope you found this information useful. 	2523670	1471985937260	1471985937372	s	83
5006	53036	We hope you found this information useful.	We hope you found this information useful. 	2523672	1471985937468	1471985937564	e	69
5006	53036	We hope you found this information useful.	We hope you found this information useful. 	2523695	1471985937757	1471985937836	f	70
5006	53036	We hope you found this information useful.	We hope you found this information useful. 	2523697	1471985937916	1471985937997	u	85
5006	53036	We hope you found this information useful.	We hope you found this information useful. 	2523700	1471985938108	1471985938220	l	76
5006	53036	We hope you found this information useful.	We hope you found this information useful. 	2523702	1471985938380	1471985938492	.	190
5006	53036	We hope you found this information useful.	We hope you found this information useful. 	2523703	1471985938652	1471985938732	 	32
5006	53044	Very foggy this morning.	Very foggy this morning.	2523795	1471985940780	1471985941004	SHIFT	16
5006	53044	Very foggy this morning.	Very foggy this morning.	2523800	1471985940957	1471985941052	V	86
5006	53044	Very foggy this morning.	Very foggy this morning.	2523805	1471985941148	1471985941292	e	69
5006	53044	Very foggy this morning.	Very foggy this morning.	2523807	1471985941260	1471985941372	r	82
5006	53044	Very foggy this morning.	Very foggy this morning.	2523809	1471985941404	1471985941484	y	89
5006	53044	Very foggy this morning.	Very foggy this morning.	2523811	1471985941548	1471985941644	 	32
5006	53044	Very foggy this morning.	Very foggy this morning.	2523827	1471985941756	1471985941852	f	70
5006	53044	Very foggy this morning.	Very foggy this morning.	2523829	1471985941916	1471985941980	o	79
5006	53044	Very foggy this morning.	Very foggy this morning.	2523832	1471985942156	1471985942236	g	71
5006	53044	Very foggy this morning.	Very foggy this morning.	2523835	1471985942316	1471985942396	g	71
5006	53044	Very foggy this morning.	Very foggy this morning.	2523837	1471985942428	1471985942524	y	89
5006	53044	Very foggy this morning.	Very foggy this morning.	2523850	1471985942589	1471985942684	 	32
5006	53044	Very foggy this morning.	Very foggy this morning.	2523855	1471985942732	1471985942844	t	84
5006	53044	Very foggy this morning.	Very foggy this morning.	2523858	1471985942844	1471985942908	h	72
5006	53044	Very foggy this morning.	Very foggy this morning.	2523864	1471985942972	1471985943069	i	73
5006	53044	Very foggy this morning.	Very foggy this morning.	2523903	1471985943036	1471985943132	s	83
5006	53044	Very foggy this morning.	Very foggy this morning.	2523904	1471985943404	1471985943500	 	32
5006	53044	Very foggy this morning.	Very foggy this morning.	2523905	1471985943644	1471985943756	m	77
5006	53044	Very foggy this morning.	Very foggy this morning.	2523907	1471985943804	1471985943900	o	79
5006	53044	Very foggy this morning.	Very foggy this morning.	2523912	1471985943932	1471985944012	r	82
5006	53044	Very foggy this morning.	Very foggy this morning.	2523916	1471985944060	1471985944140	n	78
5006	53044	Very foggy this morning.	Very foggy this morning.	2523954	1471985944204	1471985944252	i	73
5006	53044	Very foggy this morning.	Very foggy this morning.	2523957	1471985944300	1471985944396	n	78
5006	53044	Very foggy this morning.	Very foggy this morning.	2523960	1471985944380	1471985944476	g	71
5006	53044	Very foggy this morning.	Very foggy this morning.	2523964	1471985944604	1471985944700	.	190
5006	53050	This event will be a blast.	This event will be a blast/	2524042	1471985946940	1471985947196	SHIFT	16
5006	53050	This event will be a blast.	This event will be a blast/	2524046	1471985947148	1471985947260	T	84
5006	53050	This event will be a blast.	This event will be a blast/	2524051	1471985947292	1471985947388	h	72
5006	53050	This event will be a blast.	This event will be a blast/	2524055	1471985947468	1471985947548	i	73
5006	53050	This event will be a blast.	This event will be a blast/	2524057	1471985947564	1471985947660	s	83
5006	53050	This event will be a blast.	This event will be a blast/	2524059	1471985947724	1471985947788	 	32
5006	53050	This event will be a blast.	This event will be a blast/	2524085	1471985947916	1471985948012	e	69
5006	53050	This event will be a blast.	This event will be a blast/	2524086	1471985948156	1471985948236	v	86
5006	53050	This event will be a blast.	This event will be a blast/	2524087	1471985948332	1471985948412	e	69
5006	53050	This event will be a blast.	This event will be a blast/	2524088	1471985948428	1471985948540	n	78
5006	53050	This event will be a blast.	This event will be a blast/	2524089	1471985948572	1471985948636	t	84
5006	53050	This event will be a blast.	This event will be a blast/	2524122	1471985948604	1471985948700	 	32
5006	53050	This event will be a blast.	This event will be a blast/	2524127	1471985949116	1471985949196	w	87
5006	53050	This event will be a blast.	This event will be a blast/	2524132	1471985949196	1471985949260	i	73
5006	53050	This event will be a blast.	This event will be a blast/	2524136	1471985949372	1471985949436	l	76
5006	53050	This event will be a blast.	This event will be a blast/	2524140	1471985949500	1471985949580	l	76
5006	53050	This event will be a blast.	This event will be a blast/	2524143	1471985949628	1471985949724	 	32
5006	53050	This event will be a blast.	This event will be a blast/	2524154	1471985949772	1471985949868	b	66
5006	53050	This event will be a blast.	This event will be a blast/	2524156	1471985949836	1471985949932	e	69
5006	53050	This event will be a blast.	This event will be a blast/	2524158	1471985949996	1471985950060	 	32
5006	53050	This event will be a blast.	This event will be a blast/	2524159	1471985950060	1471985950140	a	65
5006	53050	This event will be a blast.	This event will be a blast/	2524160	1471985950188	1471985950268	 	32
5006	53050	This event will be a blast.	This event will be a blast/	2524191	1471985950348	1471985950444	b	66
5006	53050	This event will be a blast.	This event will be a blast/	2524193	1471985950540	1471985950636	l	76
5006	53050	This event will be a blast.	This event will be a blast/	2524195	1471985950668	1471985950748	a	65
5006	53050	This event will be a blast.	This event will be a blast/	2524198	1471985950940	1471985951020	s	83
5006	53050	This event will be a blast.	This event will be a blast/	2524202	1471985951212	1471985951292	t	84
5006	53050	This event will be a blast.	This event will be a blast/	2524239	1471985951724	1471985951836	/	191
5006	53057	Please accept my apology.	Please accept my apology.	2524342	1471985953756	1471985953996	SHIFT	16
5006	53057	Please accept my apology.	Please accept my apology.	2524344	1471985953900	1471985953996	P	80
5006	53057	Please accept my apology.	Please accept my apology.	2524348	1471985954092	1471985954189	l	76
5006	53057	Please accept my apology.	Please accept my apology.	2524352	1471985954220	1471985954316	e	69
5006	53057	Please accept my apology.	Please accept my apology.	2524356	1471985954412	1471985954492	a	65
5006	53057	Please accept my apology.	Please accept my apology.	2524361	1471985954591	1471985954764	s	83
5006	53057	Please accept my apology.	Please accept my apology.	2524389	1471985954732	1471985954860	e	69
5006	53057	Please accept my apology.	Please accept my apology.	2524392	1471985954940	1471985955020	 	32
5006	53057	Please accept my apology.	Please accept my apology.	2524396	1471985955052	1471985955148	a	65
5006	53057	Please accept my apology.	Please accept my apology.	2524400	1471985955292	1471985955372	c	67
5006	53057	Please accept my apology.	Please accept my apology.	2524405	1471985955452	1471985955532	c	67
5006	53057	Please accept my apology.	Please accept my apology.	2524410	1471985955580	1471985955692	e	69
5006	53057	Please accept my apology.	Please accept my apology.	2524442	1471985955756	1471985955868	p	80
5006	53057	Please accept my apology.	Please accept my apology.	2524446	1471985955868	1471985955932	t	84
5006	53057	Please accept my apology.	Please accept my apology.	2524450	1471985956076	1471985956140	 	32
5006	53057	Please accept my apology.	Please accept my apology.	2524451	1471985956300	1471985956396	m	77
5006	53057	Please accept my apology.	Please accept my apology.	2524453	1471985956508	1471985956604	y	89
5006	53057	Please accept my apology.	Please accept my apology.	2524477	1471985956684	1471985956764	 	32
5006	53057	Please accept my apology.	Please accept my apology.	2524479	1471985956780	1471985956860	a	65
5006	53057	Please accept my apology.	Please accept my apology.	2524482	1471985956908	1471985957004	p	80
5006	53057	Please accept my apology.	Please accept my apology.	2524485	1471985957132	1471985957196	o	79
5006	53057	Please accept my apology.	Please accept my apology.	2524487	1471985957484	1471985957580	l	76
5006	53057	Please accept my apology.	Please accept my apology.	2524533	1471985957708	1471985957804	o	79
5006	53057	Please accept my apology.	Please accept my apology.	2524535	1471985957900	1471985957996	y	89
5006	53057	Please accept my apology.	Please accept my apology.	2524536	1471985958236	1471985958332	g	71
5006	53057	Please accept my apology.	Please accept my apology.	2524538	1471985958589	1471985958652	BKSP	8
5006	53057	Please accept my apology.	Please accept my apology.	2524541	1471985958716	1471985958796	BKSP	8
5006	53057	Please accept my apology.	Please accept my apology.	2524544	1471985958828	1471985958940	g	71
5006	53057	Please accept my apology.	Please accept my apology.	2524547	1471985958956	1471985959052	y	89
5006	53057	Please accept my apology.	Please accept my apology.	2524566	1471985959292	1471985959388	.	190
5006	53066	We don't recommend you use him in a Fantasy league this week.	We don't recommend you use him in a Fantasy league this week.	2524655	1471985961356	1471985961660	SHIFT	16
5006	53066	We don't recommend you use him in a Fantasy league this week.	We don't recommend you use him in a Fantasy league this week.	2524657	1471985961612	1471985961740	W	87
5006	53066	We don't recommend you use him in a Fantasy league this week.	We don't recommend you use him in a Fantasy league this week.	2524660	1471985961836	1471985961916	e	69
5006	53066	We don't recommend you use him in a Fantasy league this week.	We don't recommend you use him in a Fantasy league this week.	2524661	1471985962028	1471985962108	 	32
5006	53066	We don't recommend you use him in a Fantasy league this week.	We don't recommend you use him in a Fantasy league this week.	2524662	1471985962156	1471985962236	d	68
5006	53066	We don't recommend you use him in a Fantasy league this week.	We don't recommend you use him in a Fantasy league this week.	2524663	1471985962284	1471985962380	o	79
5006	53066	We don't recommend you use him in a Fantasy league this week.	We don't recommend you use him in a Fantasy league this week.	2524702	1471985962460	1471985962556	n	78
5006	53066	We don't recommend you use him in a Fantasy league this week.	We don't recommend you use him in a Fantasy league this week.	2524704	1471985962652	1471985962748	'	222
5006	53066	We don't recommend you use him in a Fantasy league this week.	We don't recommend you use him in a Fantasy league this week.	2524705	1471985962892	1471985962972	t	84
5006	53066	We don't recommend you use him in a Fantasy league this week.	We don't recommend you use him in a Fantasy league this week.	2524707	1471985963052	1471985963132	 	32
5006	53066	We don't recommend you use him in a Fantasy league this week.	We don't recommend you use him in a Fantasy league this week.	2524709	1471985963452	1471985963612	r	82
5006	53066	We don't recommend you use him in a Fantasy league this week.	We don't recommend you use him in a Fantasy league this week.	2524795	1471985963564	1471985963692	e	69
5006	53066	We don't recommend you use him in a Fantasy league this week.	We don't recommend you use him in a Fantasy league this week.	2524802	1471985963900	1471985963964	v	67
5006	53066	We don't recommend you use him in a Fantasy league this week.	We don't recommend you use him in a Fantasy league this week.	2524804	1471985964796	1471985964860	BKSP	8
5006	53066	We don't recommend you use him in a Fantasy league this week.	We don't recommend you use him in a Fantasy league this week.	2524809	1471985965068	1471985965196	o	79
5006	53066	We don't recommend you use him in a Fantasy league this week.	We don't recommend you use him in a Fantasy league this week.	2524812	1471985965308	1471985965404	m	77
5006	53066	We don't recommend you use him in a Fantasy league this week.	We don't recommend you use him in a Fantasy league this week.	2524814	1471985965468	1471985965564	m	77
5006	53066	We don't recommend you use him in a Fantasy league this week.	We don't recommend you use him in a Fantasy league this week.	2524836	1471985965740	1471985965804	n	78
5006	53066	We don't recommend you use him in a Fantasy league this week.	We don't recommend you use him in a Fantasy league this week.	2524838	1471985965852	1471985965948	e	69
5006	53066	We don't recommend you use him in a Fantasy league this week.	We don't recommend you use him in a Fantasy league this week.	2524843	1471985966380	1471985966444	BKSP	8
5006	53066	We don't recommend you use him in a Fantasy league this week.	We don't recommend you use him in a Fantasy league this week.	2524848	1471985966508	1471985966588	BKSP	8
5006	53066	We don't recommend you use him in a Fantasy league this week.	We don't recommend you use him in a Fantasy league this week.	2524851	1471985966668	1471985966748	e	69
5006	53066	We don't recommend you use him in a Fantasy league this week.	We don't recommend you use him in a Fantasy league this week.	2524854	1471985966812	1471985966908	n	78
5006	53066	We don't recommend you use him in a Fantasy league this week.	We don't recommend you use him in a Fantasy league this week.	2524858	1471985966988	1471985967068	d	68
5006	53066	We don't recommend you use him in a Fantasy league this week.	We don't recommend you use him in a Fantasy league this week.	2524869	1471985967164	1471985967228	 	32
5006	53066	We don't recommend you use him in a Fantasy league this week.	We don't recommend you use him in a Fantasy league this week.	2524870	1471985967356	1471985967452	y	89
5006	53066	We don't recommend you use him in a Fantasy league this week.	We don't recommend you use him in a Fantasy league this week.	2524872	1471985967484	1471985967580	o	79
5006	53066	We don't recommend you use him in a Fantasy league this week.	We don't recommend you use him in a Fantasy league this week.	2524875	1471985967580	1471985967676	u	85
5006	53066	We don't recommend you use him in a Fantasy league this week.	We don't recommend you use him in a Fantasy league this week.	2524878	1471985967708	1471985967804	 	32
5006	53066	We don't recommend you use him in a Fantasy league this week.	We don't recommend you use him in a Fantasy league this week.	2524908	1471985967884	1471985967980	u	85
5006	53066	We don't recommend you use him in a Fantasy league this week.	We don't recommend you use him in a Fantasy league this week.	2524911	1471985967964	1471985968076	s	83
5006	53066	We don't recommend you use him in a Fantasy league this week.	We don't recommend you use him in a Fantasy league this week.	2524914	1471985968108	1471985968220	e	69
5006	53066	We don't recommend you use him in a Fantasy league this week.	We don't recommend you use him in a Fantasy league this week.	2524918	1471985968332	1471985968444	 	32
5006	53066	We don't recommend you use him in a Fantasy league this week.	We don't recommend you use him in a Fantasy league this week.	2524922	1471985968476	1471985968588	h	72
5006	53066	We don't recommend you use him in a Fantasy league this week.	We don't recommend you use him in a Fantasy league this week.	2524960	1471985968620	1471985968700	i	73
5006	53066	We don't recommend you use him in a Fantasy league this week.	We don't recommend you use him in a Fantasy league this week.	2524964	1471985968796	1471985968924	m	77
5006	53066	We don't recommend you use him in a Fantasy league this week.	We don't recommend you use him in a Fantasy league this week.	2524970	1471985969180	1471985969260	 	32
5006	53066	We don't recommend you use him in a Fantasy league this week.	We don't recommend you use him in a Fantasy league this week.	2524974	1471985969356	1471985969436	i	73
5006	53066	We don't recommend you use him in a Fantasy league this week.	We don't recommend you use him in a Fantasy league this week.	2524977	1471985969500	1471985969596	n	78
5006	53066	We don't recommend you use him in a Fantasy league this week.	We don't recommend you use him in a Fantasy league this week.	2525038	1471985969644	1471985969724	 	32
5006	53066	We don't recommend you use him in a Fantasy league this week.	We don't recommend you use him in a Fantasy league this week.	2525040	1471985969772	1471985969868	a	65
5006	53066	We don't recommend you use him in a Fantasy league this week.	We don't recommend you use him in a Fantasy league this week.	2525041	1471985969900	1471985969980	 	32
5006	53066	We don't recommend you use him in a Fantasy league this week.	We don't recommend you use him in a Fantasy league this week.	2525042	1471985970156	1471985970348	SHIFT	16
5006	53066	We don't recommend you use him in a Fantasy league this week.	We don't recommend you use him in a Fantasy league this week.	2525043	1471985970316	1471985970412	G	71
5006	53066	We don't recommend you use him in a Fantasy league this week.	We don't recommend you use him in a Fantasy league this week.	2525044	1471985970796	1471985970860	BKSP	8
5006	53066	We don't recommend you use him in a Fantasy league this week.	We don't recommend you use him in a Fantasy league this week.	2525045	1471985970924	1471985971148	SHIFT	16
5006	53066	We don't recommend you use him in a Fantasy league this week.	We don't recommend you use him in a Fantasy league this week.	2525081	1471985971068	1471985971212	F	70
5006	53066	We don't recommend you use him in a Fantasy league this week.	We don't recommend you use him in a Fantasy league this week.	2525082	1471985971324	1471985971404	a	65
5006	53066	We don't recommend you use him in a Fantasy league this week.	We don't recommend you use him in a Fantasy league this week.	2525083	1471985971468	1471985971564	n	78
5006	53066	We don't recommend you use him in a Fantasy league this week.	We don't recommend you use him in a Fantasy league this week.	2525084	1471985971660	1471985971740	t	84
5006	53066	We don't recommend you use him in a Fantasy league this week.	We don't recommend you use him in a Fantasy league this week.	2525085	1471985971804	1471985971884	a	65
5006	53066	We don't recommend you use him in a Fantasy league this week.	We don't recommend you use him in a Fantasy league this week.	2525087	1471985972092	1471985972156	s	83
5006	53066	We don't recommend you use him in a Fantasy league this week.	We don't recommend you use him in a Fantasy league this week.	2525118	1471985972236	1471985972316	y	89
5006	53066	We don't recommend you use him in a Fantasy league this week.	We don't recommend you use him in a Fantasy league this week.	2525121	1471985972428	1471985972524	 	32
5006	53066	We don't recommend you use him in a Fantasy league this week.	We don't recommend you use him in a Fantasy league this week.	2525125	1471985972620	1471985972716	l	76
5006	53066	We don't recommend you use him in a Fantasy league this week.	We don't recommend you use him in a Fantasy league this week.	2525128	1471985972780	1471985972876	e	69
5006	53066	We don't recommend you use him in a Fantasy league this week.	We don't recommend you use him in a Fantasy league this week.	2525130	1471985972972	1471985973052	a	65
5006	53066	We don't recommend you use him in a Fantasy league this week.	We don't recommend you use him in a Fantasy league this week.	2525171	1471985973228	1471985973308	g	71
5006	53066	We don't recommend you use him in a Fantasy league this week.	We don't recommend you use him in a Fantasy league this week.	2525173	1471985973388	1471985973468	u	85
5006	53066	We don't recommend you use him in a Fantasy league this week.	We don't recommend you use him in a Fantasy league this week.	2525176	1471985973708	1471985973804	e	69
5006	53066	We don't recommend you use him in a Fantasy league this week.	We don't recommend you use him in a Fantasy league this week.	2525179	1471985973900	1471985973964	 	32
5006	53066	We don't recommend you use him in a Fantasy league this week.	We don't recommend you use him in a Fantasy league this week.	2525181	1471985974060	1471985974124	t	84
5006	53066	We don't recommend you use him in a Fantasy league this week.	We don't recommend you use him in a Fantasy league this week.	2525207	1471985974156	1471985974236	h	72
5006	53066	We don't recommend you use him in a Fantasy league this week.	We don't recommend you use him in a Fantasy league this week.	2525211	1471985974300	1471985974381	i	73
5006	53066	We don't recommend you use him in a Fantasy league this week.	We don't recommend you use him in a Fantasy league this week.	2525217	1471985974348	1471985974444	s	83
5006	53066	We don't recommend you use him in a Fantasy league this week.	We don't recommend you use him in a Fantasy league this week.	2525222	1471985974524	1471985974572	 	32
5006	53066	We don't recommend you use him in a Fantasy league this week.	We don't recommend you use him in a Fantasy league this week.	2525226	1471985974638	1471985974732	w	87
5006	53066	We don't recommend you use him in a Fantasy league this week.	We don't recommend you use him in a Fantasy league this week.	2525291	1471985974940	1471985975020	e	69
5006	53066	We don't recommend you use him in a Fantasy league this week.	We don't recommend you use him in a Fantasy league this week.	2525295	1471985975116	1471985975180	e	69
5006	53066	We don't recommend you use him in a Fantasy league this week.	We don't recommend you use him in a Fantasy league this week.	2525297	1471985975260	1471985975356	k	75
5006	53066	We don't recommend you use him in a Fantasy league this week.	We don't recommend you use him in a Fantasy league this week.	2525300	1471985975692	1471985975788	.	190
5006	53077	The best-of-seven series moves to Indianapolis, Indiana.	The best-of-seven series moves to Indianapolis, Indiana.	2525440	1471985978940	1471985979164	SHIFT	16
5006	53077	The best-of-seven series moves to Indianapolis, Indiana.	The best-of-seven series moves to Indianapolis, Indiana.	2525445	1471985979116	1471985979244	T	84
5006	53077	The best-of-seven series moves to Indianapolis, Indiana.	The best-of-seven series moves to Indianapolis, Indiana.	2525450	1471985979276	1471985979356	h	69
5006	53077	The best-of-seven series moves to Indianapolis, Indiana.	The best-of-seven series moves to Indianapolis, Indiana.	2525456	1471985979436	1471985979516	 	32
5006	53077	The best-of-seven series moves to Indianapolis, Indiana.	The best-of-seven series moves to Indianapolis, Indiana.	2525460	1471985979740	1471985979821	b	66
5006	53077	The best-of-seven series moves to Indianapolis, Indiana.	The best-of-seven series moves to Indianapolis, Indiana.	2525575	1471985979884	1471985979964	e	69
5006	53077	The best-of-seven series moves to Indianapolis, Indiana.	The best-of-seven series moves to Indianapolis, Indiana.	2525579	1471985980092	1471985980204	s	83
5006	53077	The best-of-seven series moves to Indianapolis, Indiana.	The best-of-seven series moves to Indianapolis, Indiana.	2525584	1471985980428	1471985980476	BKSP	8
5006	53077	The best-of-seven series moves to Indianapolis, Indiana.	The best-of-seven series moves to Indianapolis, Indiana.	2525588	1471985980572	1471985980620	BKSP	8
5006	53077	The best-of-seven series moves to Indianapolis, Indiana.	The best-of-seven series moves to Indianapolis, Indiana.	2525592	1471985980700	1471985980764	BKSP	8
5006	53077	The best-of-seven series moves to Indianapolis, Indiana.	The best-of-seven series moves to Indianapolis, Indiana.	2525594	1471985980860	1471985980908	BKSP	8
5006	53077	The best-of-seven series moves to Indianapolis, Indiana.	The best-of-seven series moves to Indianapolis, Indiana.	2525598	1471985981004	1471985981068	BKSP	8
5006	53077	The best-of-seven series moves to Indianapolis, Indiana.	The best-of-seven series moves to Indianapolis, Indiana.	2525602	1471985981132	1471985981212	BKSP	8
5006	53077	The best-of-seven series moves to Indianapolis, Indiana.	The best-of-seven series moves to Indianapolis, Indiana.	2525606	1471985981564	1471985981596	j	74
5006	53077	The best-of-seven series moves to Indianapolis, Indiana.	The best-of-seven series moves to Indianapolis, Indiana.	2525611	1471985982076	1471985982140	BKSP	8
5006	53077	The best-of-seven series moves to Indianapolis, Indiana.	The best-of-seven series moves to Indianapolis, Indiana.	2525616	1471985982332	1471985982412	h	72
5006	53077	The best-of-seven series moves to Indianapolis, Indiana.	The best-of-seven series moves to Indianapolis, Indiana.	2525620	1471985982604	1471985982684	e	69
5006	53077	The best-of-seven series moves to Indianapolis, Indiana.	The best-of-seven series moves to Indianapolis, Indiana.	2525652	1471985982780	1471985982860	 	32
5006	53077	The best-of-seven series moves to Indianapolis, Indiana.	The best-of-seven series moves to Indianapolis, Indiana.	2525655	1471985983068	1471985983148	b	66
5006	53077	The best-of-seven series moves to Indianapolis, Indiana.	The best-of-seven series moves to Indianapolis, Indiana.	2525657	1471985983180	1471985983276	e	69
5006	53077	The best-of-seven series moves to Indianapolis, Indiana.	The best-of-seven series moves to Indianapolis, Indiana.	2525658	1471985983388	1471985983484	s	83
5006	53077	The best-of-seven series moves to Indianapolis, Indiana.	The best-of-seven series moves to Indianapolis, Indiana.	2525660	1471985983564	1471985983660	t	84
5006	53077	The best-of-seven series moves to Indianapolis, Indiana.	The best-of-seven series moves to Indianapolis, Indiana.	2525683	1471985983692	1471985983756	 	32
5006	53077	The best-of-seven series moves to Indianapolis, Indiana.	The best-of-seven series moves to Indianapolis, Indiana.	2525687	1471985983804	1471985983916	o	79
5006	53077	The best-of-seven series moves to Indianapolis, Indiana.	The best-of-seven series moves to Indianapolis, Indiana.	2525691	1471985983884	1471985983980	f	70
5006	53077	The best-of-seven series moves to Indianapolis, Indiana.	The best-of-seven series moves to Indianapolis, Indiana.	2525695	1471985984028	1471985984076	 	32
5006	53077	The best-of-seven series moves to Indianapolis, Indiana.	The best-of-seven series moves to Indianapolis, Indiana.	2525699	1471985984140	1471985984236	s	83
5006	53077	The best-of-seven series moves to Indianapolis, Indiana.	The best-of-seven series moves to Indianapolis, Indiana.	2525804	1471985984396	1471985984492	e	69
5006	53077	The best-of-seven series moves to Indianapolis, Indiana.	The best-of-seven series moves to Indianapolis, Indiana.	2525805	1471985984652	1471985984748	BKSP	8
5006	53077	The best-of-seven series moves to Indianapolis, Indiana.	The best-of-seven series moves to Indianapolis, Indiana.	2525806	1471985984812	1471985984908	BKSP	8
5006	53077	The best-of-seven series moves to Indianapolis, Indiana.	The best-of-seven series moves to Indianapolis, Indiana.	2525807	1471985984988	1471985985052	BKSP	8
5006	53077	The best-of-seven series moves to Indianapolis, Indiana.	The best-of-seven series moves to Indianapolis, Indiana.	2525808	1471985985132	1471985985180	BKSP	8
5006	53077	The best-of-seven series moves to Indianapolis, Indiana.	The best-of-seven series moves to Indianapolis, Indiana.	2525809	1471985985260	1471985985324	BKSP	8
5006	53077	The best-of-seven series moves to Indianapolis, Indiana.	The best-of-seven series moves to Indianapolis, Indiana.	2525811	1471985985404	1471985985484	BKSP	8
5006	53077	The best-of-seven series moves to Indianapolis, Indiana.	The best-of-seven series moves to Indianapolis, Indiana.	2525814	1471985986271	1471985986332	-	189
5006	53077	The best-of-seven series moves to Indianapolis, Indiana.	The best-of-seven series moves to Indianapolis, Indiana.	2525817	1471985986860	1471985986972	o	79
5006	53077	The best-of-seven series moves to Indianapolis, Indiana.	The best-of-seven series moves to Indianapolis, Indiana.	2525821	1471985986972	1471985987052	f	70
5006	53077	The best-of-seven series moves to Indianapolis, Indiana.	The best-of-seven series moves to Indianapolis, Indiana.	2525825	1471985987084	1471985987148	 	32
5006	53077	The best-of-seven series moves to Indianapolis, Indiana.	The best-of-seven series moves to Indianapolis, Indiana.	2525908	1471985987612	1471985987692	-	189
5006	53077	The best-of-seven series moves to Indianapolis, Indiana.	The best-of-seven series moves to Indianapolis, Indiana.	2525911	1471985988268	1471985988348	BKSP	8
5006	53077	The best-of-seven series moves to Indianapolis, Indiana.	The best-of-seven series moves to Indianapolis, Indiana.	2525916	1471985988412	1471985988492	BKSP	8
5006	53077	The best-of-seven series moves to Indianapolis, Indiana.	The best-of-seven series moves to Indianapolis, Indiana.	2525921	1471985989148	1471985989228	-	189
5006	53077	The best-of-seven series moves to Indianapolis, Indiana.	The best-of-seven series moves to Indianapolis, Indiana.	2525926	1471985989340	1471985989468	s	83
5006	53077	The best-of-seven series moves to Indianapolis, Indiana.	The best-of-seven series moves to Indianapolis, Indiana.	2525930	1471985989564	1471985989644	e	69
5006	53077	The best-of-seven series moves to Indianapolis, Indiana.	The best-of-seven series moves to Indianapolis, Indiana.	2525933	1471985989821	1471985989899	v	86
5006	53077	The best-of-seven series moves to Indianapolis, Indiana.	The best-of-seven series moves to Indianapolis, Indiana.	2525962	1471985989996	1471985990076	e	69
5006	53077	The best-of-seven series moves to Indianapolis, Indiana.	The best-of-seven series moves to Indianapolis, Indiana.	2525965	1471985990108	1471985990204	n	78
5006	53077	The best-of-seven series moves to Indianapolis, Indiana.	The best-of-seven series moves to Indianapolis, Indiana.	2525968	1471985990284	1471985990364	 	32
5006	53077	The best-of-seven series moves to Indianapolis, Indiana.	The best-of-seven series moves to Indianapolis, Indiana.	2525969	1471985990588	1471985990700	s	83
5006	53077	The best-of-seven series moves to Indianapolis, Indiana.	The best-of-seven series moves to Indianapolis, Indiana.	2525970	1471985990812	1471985990942	e	69
5006	53077	The best-of-seven series moves to Indianapolis, Indiana.	The best-of-seven series moves to Indianapolis, Indiana.	2525993	1471985990908	1471985991036	r	82
5006	53077	The best-of-seven series moves to Indianapolis, Indiana.	The best-of-seven series moves to Indianapolis, Indiana.	2525995	1471985991100	1471985991164	i	73
5006	53077	The best-of-seven series moves to Indianapolis, Indiana.	The best-of-seven series moves to Indianapolis, Indiana.	2525997	1471985991228	1471985991340	e	69
5006	53077	The best-of-seven series moves to Indianapolis, Indiana.	The best-of-seven series moves to Indianapolis, Indiana.	2525999	1471985991420	1471985991516	s	83
5006	53077	The best-of-seven series moves to Indianapolis, Indiana.	The best-of-seven series moves to Indianapolis, Indiana.	2526002	1471985991580	1471985991644	 	32
5006	53077	The best-of-seven series moves to Indianapolis, Indiana.	The best-of-seven series moves to Indianapolis, Indiana.	2526007	1471985991724	1471985991852	m	77
5006	53077	The best-of-seven series moves to Indianapolis, Indiana.	The best-of-seven series moves to Indianapolis, Indiana.	2526035	1471985991932	1471985992012	o	79
5006	53077	The best-of-seven series moves to Indianapolis, Indiana.	The best-of-seven series moves to Indianapolis, Indiana.	2526036	1471985992012	1471985992092	v	86
5006	53077	The best-of-seven series moves to Indianapolis, Indiana.	The best-of-seven series moves to Indianapolis, Indiana.	2526038	1471985992188	1471985992284	e	69
5006	53077	The best-of-seven series moves to Indianapolis, Indiana.	The best-of-seven series moves to Indianapolis, Indiana.	2526042	1471985992348	1471985992444	s	83
5006	53077	The best-of-seven series moves to Indianapolis, Indiana.	The best-of-seven series moves to Indianapolis, Indiana.	2526044	1471985992524	1471985992604	 	32
5006	53077	The best-of-seven series moves to Indianapolis, Indiana.	The best-of-seven series moves to Indianapolis, Indiana.	2526074	1471985992608	1471985992700	t	84
5006	53077	The best-of-seven series moves to Indianapolis, Indiana.	The best-of-seven series moves to Indianapolis, Indiana.	2526076	1471985992716	1471985992796	o	79
5006	53077	The best-of-seven series moves to Indianapolis, Indiana.	The best-of-seven series moves to Indianapolis, Indiana.	2526080	1471985992860	1471985992924	 	32
5006	53077	The best-of-seven series moves to Indianapolis, Indiana.	The best-of-seven series moves to Indianapolis, Indiana.	2526082	1471985993004	1471985993148	SHIFT	16
5006	53077	The best-of-seven series moves to Indianapolis, Indiana.	The best-of-seven series moves to Indianapolis, Indiana.	2526086	1471985993100	1471985993180	I	73
5006	53077	The best-of-seven series moves to Indianapolis, Indiana.	The best-of-seven series moves to Indianapolis, Indiana.	2526088	1471985993244	1471985993340	n	78
5006	53077	The best-of-seven series moves to Indianapolis, Indiana.	The best-of-seven series moves to Indianapolis, Indiana.	2526102	1471985993372	1471985993452	d	68
5006	53077	The best-of-seven series moves to Indianapolis, Indiana.	The best-of-seven series moves to Indianapolis, Indiana.	2526103	1471985993516	1471985993596	i	73
5006	53077	The best-of-seven series moves to Indianapolis, Indiana.	The best-of-seven series moves to Indianapolis, Indiana.	2526107	1471985993724	1471985993804	a	65
5006	53077	The best-of-seven series moves to Indianapolis, Indiana.	The best-of-seven series moves to Indianapolis, Indiana.	2526110	1471985993884	1471985993948	n	78
5006	53077	The best-of-seven series moves to Indianapolis, Indiana.	The best-of-seven series moves to Indianapolis, Indiana.	2526112	1471985994124	1471985994188	a	65
5006	53077	The best-of-seven series moves to Indianapolis, Indiana.	The best-of-seven series moves to Indianapolis, Indiana.	2526137	1471985994316	1471985994412	p	80
5006	53077	The best-of-seven series moves to Indianapolis, Indiana.	The best-of-seven series moves to Indianapolis, Indiana.	2526141	1471985994556	1471985994636	o	79
5006	53077	The best-of-seven series moves to Indianapolis, Indiana.	The best-of-seven series moves to Indianapolis, Indiana.	2526145	1471985994764	1471985994844	l	76
5006	53077	The best-of-seven series moves to Indianapolis, Indiana.	The best-of-seven series moves to Indianapolis, Indiana.	2526150	1471985994908	1471985995004	i	73
5006	53077	The best-of-seven series moves to Indianapolis, Indiana.	The best-of-seven series moves to Indianapolis, Indiana.	2526154	1471985995052	1471985995132	s	83
5006	53077	The best-of-seven series moves to Indianapolis, Indiana.	The best-of-seven series moves to Indianapolis, Indiana.	2526190	1471985995468	1471985995564	,	188
5006	53077	The best-of-seven series moves to Indianapolis, Indiana.	The best-of-seven series moves to Indianapolis, Indiana.	2526192	1471985995740	1471985995820	 	32
5006	53077	The best-of-seven series moves to Indianapolis, Indiana.	The best-of-seven series moves to Indianapolis, Indiana.	2526194	1471985996156	1471985996316	SHIFT	16
5006	53077	The best-of-seven series moves to Indianapolis, Indiana.	The best-of-seven series moves to Indianapolis, Indiana.	2526196	1471985996252	1471985996332	I	73
5006	53077	The best-of-seven series moves to Indianapolis, Indiana.	The best-of-seven series moves to Indianapolis, Indiana.	2526198	1471985996412	1471985996508	n	78
5006	53077	The best-of-seven series moves to Indianapolis, Indiana.	The best-of-seven series moves to Indianapolis, Indiana.	2526199	1471985996572	1471985996652	d	68
5006	53077	The best-of-seven series moves to Indianapolis, Indiana.	The best-of-seven series moves to Indianapolis, Indiana.	2526228	1471985996732	1471985996796	i	73
5006	53077	The best-of-seven series moves to Indianapolis, Indiana.	The best-of-seven series moves to Indianapolis, Indiana.	2526229	1471985996924	1471985997004	a	65
5006	53077	The best-of-seven series moves to Indianapolis, Indiana.	The best-of-seven series moves to Indianapolis, Indiana.	2526230	1471985997100	1471985997164	n	78
5006	53077	The best-of-seven series moves to Indianapolis, Indiana.	The best-of-seven series moves to Indianapolis, Indiana.	2526232	1471985997452	1471985997548	a	65
5006	53077	The best-of-seven series moves to Indianapolis, Indiana.	The best-of-seven series moves to Indianapolis, Indiana.	2526235	1471985997724	1471985997804	.	190
5006	53098	The speedway is faced with some very tough choices.	The speedway is faced with some very tough choices.	2526326	1471985999612	1471985999840	SHIFT	16
5006	53098	The speedway is faced with some very tough choices.	The speedway is faced with some very tough choices.	2526329	1471985999804	1471985999916	T	84
5006	53098	The speedway is faced with some very tough choices.	The speedway is faced with some very tough choices.	2526334	1471985999916	1471985999996	h	72
5006	53098	The speedway is faced with some very tough choices.	The speedway is faced with some very tough choices.	2526338	1471985999964	1471986000060	e	69
5006	53098	The speedway is faced with some very tough choices.	The speedway is faced with some very tough choices.	2526345	1471986000140	1471986000220	 	32
5006	53098	The speedway is faced with some very tough choices.	The speedway is faced with some very tough choices.	2526349	1471986000316	1471986000428	s	83
5006	53098	The speedway is faced with some very tough choices.	The speedway is faced with some very tough choices.	2526369	1471986000684	1471986000780	p	80
5006	53098	The speedway is faced with some very tough choices.	The speedway is faced with some very tough choices.	2526371	1471986000844	1471986000908	e	69
5006	53098	The speedway is faced with some very tough choices.	The speedway is faced with some very tough choices.	2526373	1471986001020	1471986001068	e	69
5006	53098	The speedway is faced with some very tough choices.	The speedway is faced with some very tough choices.	2526375	1471986001196	1471986001276	d	68
5006	53098	The speedway is faced with some very tough choices.	The speedway is faced with some very tough choices.	2526376	1471986001388	1471986001468	a	65
5006	53098	The speedway is faced with some very tough choices.	The speedway is faced with some very tough choices.	2526407	1471986001836	1471986001916	BKSP	8
5006	53098	The speedway is faced with some very tough choices.	The speedway is faced with some very tough choices.	2526409	1471986001948	1471986002044	w	87
5006	53098	The speedway is faced with some very tough choices.	The speedway is faced with some very tough choices.	2526411	1471986002108	1471986002204	a	65
5006	53098	The speedway is faced with some very tough choices.	The speedway is faced with some very tough choices.	2526413	1471986002236	1471986002332	y	89
5006	53098	The speedway is faced with some very tough choices.	The speedway is faced with some very tough choices.	2526415	1471986002428	1471986002524	 	32
5006	53098	The speedway is faced with some very tough choices.	The speedway is faced with some very tough choices.	2526417	1471986002556	1471986002668	i	73
5006	53098	The speedway is faced with some very tough choices.	The speedway is faced with some very tough choices.	2526436	1471986002636	1471986002748	s	83
5006	53098	The speedway is faced with some very tough choices.	The speedway is faced with some very tough choices.	2526438	1471986002796	1471986002844	 	32
5006	53098	The speedway is faced with some very tough choices.	The speedway is faced with some very tough choices.	2526439	1471986003244	1471986003340	f	70
5006	53098	The speedway is faced with some very tough choices.	The speedway is faced with some very tough choices.	2526440	1471986003436	1471986003532	a	65
5006	53098	The speedway is faced with some very tough choices.	The speedway is faced with some very tough choices.	2526442	1471986003724	1471986003820	c	67
5006	53098	The speedway is faced with some very tough choices.	The speedway is faced with some very tough choices.	2526444	1471986003884	1471986003980	e	69
5006	53098	The speedway is faced with some very tough choices.	The speedway is faced with some very tough choices.	2526476	1471986004061	1471986004124	e	69
5006	53098	The speedway is faced with some very tough choices.	The speedway is faced with some very tough choices.	2526479	1471986004316	1471986004412	d	68
5006	53098	The speedway is faced with some very tough choices.	The speedway is faced with some very tough choices.	2526482	1471986004684	1471986004748	BKSP	8
5006	53098	The speedway is faced with some very tough choices.	The speedway is faced with some very tough choices.	2526484	1471986004812	1471986004892	BKSP	8
5006	53098	The speedway is faced with some very tough choices.	The speedway is faced with some very tough choices.	2526486	1471986004924	1471986005020	d	68
5006	53098	The speedway is faced with some very tough choices.	The speedway is faced with some very tough choices.	2526488	1471986005116	1471986005180	 	32
5006	53098	The speedway is faced with some very tough choices.	The speedway is faced with some very tough choices.	2526490	1471986005340	1471986005436	w	87
5006	53098	The speedway is faced with some very tough choices.	The speedway is faced with some very tough choices.	2526500	1471986005468	1471986005548	i	73
5006	53098	The speedway is faced with some very tough choices.	The speedway is faced with some very tough choices.	2526501	1471986005549	1471986005628	t	84
5006	53098	The speedway is faced with some very tough choices.	The speedway is faced with some very tough choices.	2526502	1471986005676	1471986005772	h	72
5006	53098	The speedway is faced with some very tough choices.	The speedway is faced with some very tough choices.	2526504	1471986005836	1471986005916	 	32
5006	53098	The speedway is faced with some very tough choices.	The speedway is faced with some very tough choices.	2526506	1471986005948	1471986006060	s	83
5006	53098	The speedway is faced with some very tough choices.	The speedway is faced with some very tough choices.	2526521	1471986006064	1471986006156	o	79
5006	53098	The speedway is faced with some very tough choices.	The speedway is faced with some very tough choices.	2526526	1471986006252	1471986006380	m	77
5006	53098	The speedway is faced with some very tough choices.	The speedway is faced with some very tough choices.	2526530	1471986006300	1471986006396	e	69
5006	53098	The speedway is faced with some very tough choices.	The speedway is faced with some very tough choices.	2526536	1471986006476	1471986006556	 	32
5006	53098	The speedway is faced with some very tough choices.	The speedway is faced with some very tough choices.	2526541	1471986006684	1471986006780	v	86
5006	53098	The speedway is faced with some very tough choices.	The speedway is faced with some very tough choices.	2526560	1471986006892	1471986007020	e	69
5006	53098	The speedway is faced with some very tough choices.	The speedway is faced with some very tough choices.	2526561	1471986006972	1471986007100	r	82
5006	53098	The speedway is faced with some very tough choices.	The speedway is faced with some very tough choices.	2526562	1471986007100	1471986007196	y	89
5006	53098	The speedway is faced with some very tough choices.	The speedway is faced with some very tough choices.	2526563	1471986007292	1471986007388	 	32
5006	53098	The speedway is faced with some very tough choices.	The speedway is faced with some very tough choices.	2526566	1471986007596	1471986007676	t	84
5006	53098	The speedway is faced with some very tough choices.	The speedway is faced with some very tough choices.	2526599	1471986007740	1471986007884	o	79
5006	53098	The speedway is faced with some very tough choices.	The speedway is faced with some very tough choices.	2526603	1471986007884	1471986007996	u	85
5006	53098	The speedway is faced with some very tough choices.	The speedway is faced with some very tough choices.	2526605	1471986008124	1471986008188	g	71
5006	53098	The speedway is faced with some very tough choices.	The speedway is faced with some very tough choices.	2526607	1471986008316	1471986008412	h	72
5006	53098	The speedway is faced with some very tough choices.	The speedway is faced with some very tough choices.	2526609	1471986008508	1471986008588	t	84
5006	53098	The speedway is faced with some very tough choices.	The speedway is faced with some very tough choices.	2526660	1471986008652	1471986008716	 	32
5006	53098	The speedway is faced with some very tough choices.	The speedway is faced with some very tough choices.	2526664	1471986008876	1471986008972	c	67
5006	53098	The speedway is faced with some very tough choices.	The speedway is faced with some very tough choices.	2526668	1471986008972	1471986009052	h	72
5006	53098	The speedway is faced with some very tough choices.	The speedway is faced with some very tough choices.	2526671	1471986009292	1471986009372	BKSP	8
5006	53098	The speedway is faced with some very tough choices.	The speedway is faced with some very tough choices.	2526674	1471986009452	1471986009500	BKSP	8
5006	53098	The speedway is faced with some very tough choices.	The speedway is faced with some very tough choices.	2526676	1471986009580	1471986009644	BKSP	8
5006	53098	The speedway is faced with some very tough choices.	The speedway is faced with some very tough choices.	2526678	1471986009724	1471986009804	BKSP	8
5006	53098	The speedway is faced with some very tough choices.	The speedway is faced with some very tough choices.	2526680	1471986010076	1471986010156	 	32
5006	53098	The speedway is faced with some very tough choices.	The speedway is faced with some very tough choices.	2526684	1471986010268	1471986010380	c	67
5006	53098	The speedway is faced with some very tough choices.	The speedway is faced with some very tough choices.	2526709	1471986010412	1471986010508	h	72
5006	53098	The speedway is faced with some very tough choices.	The speedway is faced with some very tough choices.	2526712	1471986010588	1471986010748	o	79
5006	53098	The speedway is faced with some very tough choices.	The speedway is faced with some very tough choices.	2526714	1471986010700	1471986010828	u	85
5006	53098	The speedway is faced with some very tough choices.	The speedway is faced with some very tough choices.	2526717	1471986011180	1471986011260	BKSP	8
5006	53098	The speedway is faced with some very tough choices.	The speedway is faced with some very tough choices.	2526720	1471986011421	1471986011516	i	73
5006	53098	The speedway is faced with some very tough choices.	The speedway is faced with some very tough choices.	2526724	1471986011612	1471986011740	c	67
5006	53098	The speedway is faced with some very tough choices.	The speedway is faced with some very tough choices.	2526751	1471986011772	1471986011932	e	69
5006	53098	The speedway is faced with some very tough choices.	The speedway is faced with some very tough choices.	2526753	1471986011916	1471986012044	s	83
5006	53098	The speedway is faced with some very tough choices.	The speedway is faced with some very tough choices.	2526755	1471986012172	1471986012268	.	190
5006	53108	He is here for a political meeting.	He is here for a political meeting.	2526818	1471986014284	1471986014476	SHIFT	16
5006	53108	He is here for a political meeting.	He is here for a political meeting.	2526823	1471986014444	1471986014524	H	72
5006	53108	He is here for a political meeting.	He is here for a political meeting.	2526828	1471986014588	1471986014684	e	69
5006	53108	He is here for a political meeting.	He is here for a political meeting.	2526832	1471986014732	1471986014812	 	32
5006	53108	He is here for a political meeting.	He is here for a political meeting.	2526839	1471986014876	1471986014956	i	73
5006	53108	He is here for a political meeting.	He is here for a political meeting.	2526853	1471986014940	1471986015036	s	83
5006	53108	He is here for a political meeting.	He is here for a political meeting.	2526855	1471986015084	1471986015148	 	32
5006	53108	He is here for a political meeting.	He is here for a political meeting.	2526859	1471986015228	1471986015308	h	72
5006	53108	He is here for a political meeting.	He is here for a political meeting.	2526862	1471986015308	1471986015404	e	69
5006	53108	He is here for a political meeting.	He is here for a political meeting.	2526865	1471986015468	1471986015644	r	82
5006	53108	He is here for a political meeting.	He is here for a political meeting.	2526873	1471986015612	1471986015708	e	69
5006	53108	He is here for a political meeting.	He is here for a political meeting.	2526874	1471986015788	1471986015852	 	32
5006	53108	He is here for a political meeting.	He is here for a political meeting.	2526875	1471986015916	1471986015996	f	70
5006	53108	He is here for a political meeting.	He is here for a political meeting.	2526876	1471986015996	1471986016092	o	79
5006	53108	He is here for a political meeting.	He is here for a political meeting.	2526878	1471986016140	1471986016188	r	82
5006	53108	He is here for a political meeting.	He is here for a political meeting.	2526880	1471986016220	1471986016284	 	32
5006	53108	He is here for a political meeting.	He is here for a political meeting.	2526926	1471986016812	1471986016908	a	65
5006	53108	He is here for a political meeting.	He is here for a political meeting.	2526927	1471986017004	1471986017100	 	32
5006	53108	He is here for a political meeting.	He is here for a political meeting.	2526928	1471986017196	1471986017308	p	80
5006	53108	He is here for a political meeting.	He is here for a political meeting.	2526929	1471986017436	1471986017500	o	79
5006	53108	He is here for a political meeting.	He is here for a political meeting.	2526930	1471986017692	1471986017772	l	76
5006	53108	He is here for a political meeting.	He is here for a political meeting.	2526979	1471986017836	1471986017916	i	73
5006	53108	He is here for a political meeting.	He is here for a political meeting.	2526981	1471986017996	1471986018060	t	84
5006	53108	He is here for a political meeting.	He is here for a political meeting.	2526983	1471986018092	1471986018172	i	73
5006	53108	He is here for a political meeting.	He is here for a political meeting.	2526985	1471986018492	1471986018588	c	67
5006	53108	He is here for a political meeting.	He is here for a political meeting.	2526986	1471986018684	1471986018764	a	65
5006	53108	He is here for a political meeting.	He is here for a political meeting.	2527000	1471986018766	1471986018860	l	76
5006	53108	He is here for a political meeting.	He is here for a political meeting.	2527003	1471986018940	1471986019004	 	32
5006	53108	He is here for a political meeting.	He is here for a political meeting.	2527008	1471986019084	1471986019180	m	77
5006	53108	He is here for a political meeting.	He is here for a political meeting.	2527010	1471986019196	1471986019276	e	69
5006	53108	He is here for a political meeting.	He is here for a political meeting.	2527013	1471986019356	1471986019436	e	69
5006	53108	He is here for a political meeting.	He is here for a political meeting.	2527032	1471986019580	1471986019660	t	84
5006	53108	He is here for a political meeting.	He is here for a political meeting.	2527035	1471986019692	1471986019756	i	73
5006	53108	He is here for a political meeting.	He is here for a political meeting.	2527038	1471986019852	1471986019948	n	78
5006	53108	He is here for a political meeting.	He is here for a political meeting.	2527042	1471986019948	1471986020028	g	71
5006	53108	He is here for a political meeting.	He is here for a political meeting.	2527045	1471986020204	1471986020300	.	190
5006	53114	On my way back.	On my way back.	2527195	1471986023100	1471986023276	SHIFT	16
5006	53114	On my way back.	On my way back.	2527198	1471986023180	1471986023324	O	79
5006	53114	On my way back.	On my way back.	2527202	1471986023340	1471986023468	n	78
5006	53114	On my way back.	On my way back.	2527208	1471986023548	1471986023612	 	32
5006	53114	On my way back.	On my way back.	2527210	1471986023676	1471986023788	m	77
5006	53114	On my way back.	On my way back.	2527212	1471986023916	1471986023996	y	89
5006	53114	On my way back.	On my way back.	2527218	1471986024092	1471986024156	 	32
5006	53114	On my way back.	On my way back.	2527220	1471986024220	1471986024332	w	87
5006	53114	On my way back.	On my way back.	2527222	1471986024396	1471986024476	a	65
5006	53114	On my way back.	On my way back.	2527224	1471986024508	1471986024620	y	89
5006	53114	On my way back.	On my way back.	2527226	1471986024668	1471986024748	 	32
5006	53114	On my way back.	On my way back.	2527233	1471986024860	1471986024940	b	66
5006	53114	On my way back.	On my way back.	2527234	1471986024988	1471986025068	a	65
5006	53114	On my way back.	On my way back.	2527235	1471986025244	1471986025340	c	67
5006	53114	On my way back.	On my way back.	2527236	1471986025341	1471986025420	k	75
5006	53114	On my way back.	On my way back.	2527238	1471986025612	1471986025692	.	190
5006	53119	Samantha would need around-the-clock care.	Samantha would need around-the-clock care.	2527325	1471986027644	1471986027900	SHIFT	16
5006	53119	Samantha would need around-the-clock care.	Samantha would need around-the-clock care.	2527327	1471986027836	1471986027964	S	83
5006	53119	Samantha would need around-the-clock care.	Samantha would need around-the-clock care.	2527331	1471986028076	1471986028172	a	65
5006	53119	Samantha would need around-the-clock care.	Samantha would need around-the-clock care.	2527336	1471986028204	1471986028300	m	77
5006	53119	Samantha would need around-the-clock care.	Samantha would need around-the-clock care.	2527339	1471986028380	1471986028476	a	65
5006	53119	Samantha would need around-the-clock care.	Samantha would need around-the-clock care.	2527342	1471986028524	1471986028604	n	78
5006	53119	Samantha would need around-the-clock care.	Samantha would need around-the-clock care.	2527362	1471986028732	1471986028812	t	84
5006	53119	Samantha would need around-the-clock care.	Samantha would need around-the-clock care.	2527367	1471986028876	1471986028988	h	72
5006	53119	Samantha would need around-the-clock care.	Samantha would need around-the-clock care.	2527372	1471986028988	1471986029068	a	65
5006	53119	Samantha would need around-the-clock care.	Samantha would need around-the-clock care.	2527376	1471986029148	1471986029228	 	32
5006	53119	Samantha would need around-the-clock care.	Samantha would need around-the-clock care.	2527382	1471986029340	1471986029420	w	87
5006	53119	Samantha would need around-the-clock care.	Samantha would need around-the-clock care.	2527398	1471986029484	1471986029596	o	79
5006	53119	Samantha would need around-the-clock care.	Samantha would need around-the-clock care.	2527401	1471986029564	1471986029676	u	85
5006	53119	Samantha would need around-the-clock care.	Samantha would need around-the-clock care.	2527403	1471986029740	1471986029836	l	76
5006	53119	Samantha would need around-the-clock care.	Samantha would need around-the-clock care.	2527406	1471986029868	1471986029964	d	68
5006	53119	Samantha would need around-the-clock care.	Samantha would need around-the-clock care.	2527410	1471986029980	1471986030060	 	32
5006	53119	Samantha would need around-the-clock care.	Samantha would need around-the-clock care.	2527481	1471986030221	1471986030300	e	69
5006	53119	Samantha would need around-the-clock care.	Samantha would need around-the-clock care.	2527484	1471986030620	1471986030700	BKSP	8
5006	53119	Samantha would need around-the-clock care.	Samantha would need around-the-clock care.	2527488	1471986030876	1471986030972	b	66
5006	53119	Samantha would need around-the-clock care.	Samantha would need around-the-clock care.	2527492	1471986031100	1471986031164	e	69
5006	53119	Samantha would need around-the-clock care.	Samantha would need around-the-clock care.	2527494	1471986031292	1471986031324	e	69
5006	53119	Samantha would need around-the-clock care.	Samantha would need around-the-clock care.	2527497	1471986031532	1471986031580	BKSP	8
5006	53119	Samantha would need around-the-clock care.	Samantha would need around-the-clock care.	2527500	1471986031660	1471986031740	BKSP	8
5006	53119	Samantha would need around-the-clock care.	Samantha would need around-the-clock care.	2527503	1471986031836	1471986031948	BKSP	8
5006	53119	Samantha would need around-the-clock care.	Samantha would need around-the-clock care.	2527504	1471986032188	1471986032268	n	78
5006	53119	Samantha would need around-the-clock care.	Samantha would need around-the-clock care.	2527514	1471986032412	1471986032476	e	69
5006	53119	Samantha would need around-the-clock care.	Samantha would need around-the-clock care.	2527518	1471986032572	1471986032636	e	69
5006	53119	Samantha would need around-the-clock care.	Samantha would need around-the-clock care.	2527521	1471986032732	1471986032828	d	68
5006	53119	Samantha would need around-the-clock care.	Samantha would need around-the-clock care.	2527524	1471986032908	1471986033004	 	32
5006	53119	Samantha would need around-the-clock care.	Samantha would need around-the-clock care.	2527527	1471986033036	1471986033132	a	65
5006	53119	Samantha would need around-the-clock care.	Samantha would need around-the-clock care.	2527557	1471986033244	1471986033324	r	82
5006	53119	Samantha would need around-the-clock care.	Samantha would need around-the-clock care.	2527558	1471986033372	1471986033501	o	79
5006	53119	Samantha would need around-the-clock care.	Samantha would need around-the-clock care.	2527562	1471986033468	1471986033548	u	85
5006	53119	Samantha would need around-the-clock care.	Samantha would need around-the-clock care.	2527565	1471986033692	1471986033772	n	78
5006	53119	Samantha would need around-the-clock care.	Samantha would need around-the-clock care.	2527568	1471986033773	1471986033868	d	68
5006	53119	Samantha would need around-the-clock care.	Samantha would need around-the-clock care.	2527633	1471986033932	1471986033996	 	32
5006	53119	Samantha would need around-the-clock care.	Samantha would need around-the-clock care.	2527636	1471986033996	1471986034076	t	84
5006	53119	Samantha would need around-the-clock care.	Samantha would need around-the-clock care.	2527637	1471986034108	1471986034172	h	72
5006	53119	Samantha would need around-the-clock care.	Samantha would need around-the-clock care.	2527641	1471986034412	1471986034476	BKSP	8
5006	53119	Samantha would need around-the-clock care.	Samantha would need around-the-clock care.	2527645	1471986034556	1471986034620	BKSP	8
5006	53119	Samantha would need around-the-clock care.	Samantha would need around-the-clock care.	2527649	1471986034684	1471986034780	BKSP	8
5006	53119	Samantha would need around-the-clock care.	Samantha would need around-the-clock care.	2527651	1471986035420	1471986035484	-	189
5006	53119	Samantha would need around-the-clock care.	Samantha would need around-the-clock care.	2527655	1471986035612	1471986035692	t	84
5006	53119	Samantha would need around-the-clock care.	Samantha would need around-the-clock care.	2527714	1471986035740	1471986035820	h	72
5006	53119	Samantha would need around-the-clock care.	Samantha would need around-the-clock care.	2527717	1471986035868	1471986035948	e	69
5006	53119	Samantha would need around-the-clock care.	Samantha would need around-the-clock care.	2527721	1471986036124	1471986036236	0	48
5006	53119	Samantha would need around-the-clock care.	Samantha would need around-the-clock care.	2527724	1471986036668	1471986036716	BKSP	8
5006	53119	Samantha would need around-the-clock care.	Samantha would need around-the-clock care.	2527727	1471986037180	1471986037260	-	189
5006	53119	Samantha would need around-the-clock care.	Samantha would need around-the-clock care.	2527730	1471986037964	1471986038076	c	67
5006	53119	Samantha would need around-the-clock care.	Samantha would need around-the-clock care.	2527748	1471986038108	1471986038188	l	76
5006	53119	Samantha would need around-the-clock care.	Samantha would need around-the-clock care.	2527749	1471986038332	1471986038412	o	79
5006	53119	Samantha would need around-the-clock care.	Samantha would need around-the-clock care.	2527750	1471986038636	1471986038748	c	67
5006	53119	Samantha would need around-the-clock care.	Samantha would need around-the-clock care.	2527751	1471986038748	1471986038860	k	75
5006	53119	Samantha would need around-the-clock care.	Samantha would need around-the-clock care.	2527752	1471986038940	1471986039004	 	32
5006	53119	Samantha would need around-the-clock care.	Samantha would need around-the-clock care.	2527782	1471986039116	1471986039244	c	67
5006	53119	Samantha would need around-the-clock care.	Samantha would need around-the-clock care.	2527784	1471986039292	1471986039420	a	65
5006	53119	Samantha would need around-the-clock care.	Samantha would need around-the-clock care.	2527787	1471986039436	1471986039581	r	82
5006	53119	Samantha would need around-the-clock care.	Samantha would need around-the-clock care.	2527790	1471986039548	1471986039660	e	69
5006	53119	Samantha would need around-the-clock care.	Samantha would need around-the-clock care.	2527791	1471986039852	1471986039884	.	190
5006	53119	Samantha would need around-the-clock care.	Samantha would need around-the-clock care.	2527823	1471986040012	1471986040108	,	188
5006	53119	Samantha would need around-the-clock care.	Samantha would need around-the-clock care.	2527825	1471986040460	1471986040508	BKSP	8
5006	53130	Don't bother to start him.	Don't bother to start him.	2527910	1471986042604	1471986042876	SHIFT	16
5006	53130	Don't bother to start him.	Don't bother to start him.	2527911	1471986042812	1471986042940	D	68
5006	53130	Don't bother to start him.	Don't bother to start him.	2527912	1471986043020	1471986043116	o	79
5006	53130	Don't bother to start him.	Don't bother to start him.	2527913	1471986043180	1471986043276	n	78
5006	53130	Don't bother to start him.	Don't bother to start him.	2527915	1471986043644	1471986043756	'	222
5006	53130	Don't bother to start him.	Don't bother to start him.	2527920	1471986043836	1471986043920	t	84
5006	53130	Don't bother to start him.	Don't bother to start him.	2527958	1471986043996	1471986044076	 	32
5006	53130	Don't bother to start him.	Don't bother to start him.	2527960	1471986044700	1471986044796	b	66
5006	53130	Don't bother to start him.	Don't bother to start him.	2527964	1471986044876	1471986044972	o	79
5006	53130	Don't bother to start him.	Don't bother to start him.	2527966	1471986044988	1471986045068	t	84
5006	53130	Don't bother to start him.	Don't bother to start him.	2527970	1471986045132	1471986045196	h	72
5006	53130	Don't bother to start him.	Don't bother to start him.	2527988	1471986045200	1471986045308	e	69
5006	53130	Don't bother to start him.	Don't bother to start him.	2527989	1471986045276	1471986045388	r	82
5006	53130	Don't bother to start him.	Don't bother to start him.	2527991	1471986045452	1471986045532	 	32
5006	53130	Don't bother to start him.	Don't bother to start him.	2527992	1471986045596	1471986045676	t	84
5006	53130	Don't bother to start him.	Don't bother to start him.	2527994	1471986045692	1471986045772	o	79
5006	53130	Don't bother to start him.	Don't bother to start him.	2528045	1471986045852	1471986045916	 	32
5006	53130	Don't bother to start him.	Don't bother to start him.	2528049	1471986046012	1471986046061	d	68
5006	53130	Don't bother to start him.	Don't bother to start him.	2528052	1471986046364	1471986046444	BKSP	8
5006	53130	Don't bother to start him.	Don't bother to start him.	2528055	1471986046428	1471986046572	s	83
5006	53130	Don't bother to start him.	Don't bother to start him.	2528058	1471986046604	1471986046732	t	84
5006	53130	Don't bother to start him.	Don't bother to start him.	2528061	1471986047164	1471986047324	a	65
5006	53130	Don't bother to start him.	Don't bother to start him.	2528082	1471986047388	1471986047484	r	82
5006	53130	Don't bother to start him.	Don't bother to start him.	2528085	1471986047596	1471986047676	t	84
5006	53130	Don't bother to start him.	Don't bother to start him.	2528089	1471986047788	1471986047884	 	32
5006	53130	Don't bother to start him.	Don't bother to start him.	2528090	1471986047948	1471986048061	h	72
5006	53130	Don't bother to start him.	Don't bother to start him.	2528091	1471986048140	1471986048252	i	73
5006	53130	Don't bother to start him.	Don't bother to start him.	2528105	1471986048332	1471986048476	m	77
5006	53130	Don't bother to start him.	Don't bother to start him.	2528107	1471986048700	1471986048796	.	190
5006	53137	Wasn't nearly as bad as I thought.	Wasn't nearly as bad as I thought,	2528208	1471986050908	1471986051180	SHIFT	16
5006	53137	Wasn't nearly as bad as I thought.	Wasn't nearly as bad as I thought,	2528212	1471986051116	1471986051244	W	87
5006	53137	Wasn't nearly as bad as I thought.	Wasn't nearly as bad as I thought,	2528219	1471986051340	1471986051452	a	65
5006	53137	Wasn't nearly as bad as I thought.	Wasn't nearly as bad as I thought,	2528223	1471986051628	1471986051724	s	83
5006	53137	Wasn't nearly as bad as I thought.	Wasn't nearly as bad as I thought,	2528228	1471986051756	1471986051836	n	78
5006	53137	Wasn't nearly as bad as I thought.	Wasn't nearly as bad as I thought,	2528234	1471986051964	1471986052076	'	222
5006	53137	Wasn't nearly as bad as I thought.	Wasn't nearly as bad as I thought,	2528263	1471986052220	1471986052300	t	84
5006	53137	Wasn't nearly as bad as I thought.	Wasn't nearly as bad as I thought,	2528266	1471986052380	1471986052460	 	32
5006	53137	Wasn't nearly as bad as I thought.	Wasn't nearly as bad as I thought,	2528268	1471986052732	1471986052812	n	78
5006	53137	Wasn't nearly as bad as I thought.	Wasn't nearly as bad as I thought,	2528270	1471986052844	1471986052940	e	69
5006	53137	Wasn't nearly as bad as I thought.	Wasn't nearly as bad as I thought,	2528272	1471986053036	1471986053135	a	65
5006	53137	Wasn't nearly as bad as I thought.	Wasn't nearly as bad as I thought,	2528298	1471986053180	1471986053276	r	82
5006	53137	Wasn't nearly as bad as I thought.	Wasn't nearly as bad as I thought,	2528299	1471986053324	1471986053436	l	76
5006	53137	Wasn't nearly as bad as I thought.	Wasn't nearly as bad as I thought,	2528302	1471986053516	1471986053612	y	89
5006	53137	Wasn't nearly as bad as I thought.	Wasn't nearly as bad as I thought,	2528304	1471986053932	1471986054044	 	32
5006	53137	Wasn't nearly as bad as I thought.	Wasn't nearly as bad as I thought,	2528306	1471986054172	1471986054268	a	65
5006	53137	Wasn't nearly as bad as I thought.	Wasn't nearly as bad as I thought,	2528323	1471986054364	1471986054444	s	83
5006	53137	Wasn't nearly as bad as I thought.	Wasn't nearly as bad as I thought,	2528325	1471986054492	1471986054572	 	32
5006	53137	Wasn't nearly as bad as I thought.	Wasn't nearly as bad as I thought,	2528327	1471986054684	1471986054780	b	66
5006	53137	Wasn't nearly as bad as I thought.	Wasn't nearly as bad as I thought,	2528329	1471986054780	1471986054876	a	65
5006	53137	Wasn't nearly as bad as I thought.	Wasn't nearly as bad as I thought,	2528333	1471986055004	1471986055100	s	83
5006	53137	Wasn't nearly as bad as I thought.	Wasn't nearly as bad as I thought,	2528364	1471986055212	1471986055292	 	32
5006	53137	Wasn't nearly as bad as I thought.	Wasn't nearly as bad as I thought,	2528367	1471986055661	1471986055724	BKSP	8
5006	53137	Wasn't nearly as bad as I thought.	Wasn't nearly as bad as I thought,	2528370	1471986055820	1471986055884	BKSP	8
5006	53137	Wasn't nearly as bad as I thought.	Wasn't nearly as bad as I thought,	2528375	1471986055932	1471986056012	d	68
5006	53137	Wasn't nearly as bad as I thought.	Wasn't nearly as bad as I thought,	2528380	1471986056092	1471986056156	 	32
5006	53137	Wasn't nearly as bad as I thought.	Wasn't nearly as bad as I thought,	2528383	1471986056204	1471986056284	a	65
5006	53137	Wasn't nearly as bad as I thought.	Wasn't nearly as bad as I thought,	2528387	1471986056396	1471986056460	s	83
5006	53137	Wasn't nearly as bad as I thought.	Wasn't nearly as bad as I thought,	2528403	1471986056492	1471986056604	 	32
5006	53137	Wasn't nearly as bad as I thought.	Wasn't nearly as bad as I thought,	2528406	1471986056748	1471986056860	SHIFT	16
5006	53137	Wasn't nearly as bad as I thought.	Wasn't nearly as bad as I thought,	2528410	1471986056796	1471986056892	I	73
5006	53137	Wasn't nearly as bad as I thought.	Wasn't nearly as bad as I thought,	2528413	1471986056972	1471986057052	 	32
5006	53137	Wasn't nearly as bad as I thought.	Wasn't nearly as bad as I thought,	2528419	1471986057164	1471986057244	t	84
5006	53137	Wasn't nearly as bad as I thought.	Wasn't nearly as bad as I thought,	2528424	1471986057276	1471986057372	h	72
5006	53137	Wasn't nearly as bad as I thought.	Wasn't nearly as bad as I thought,	2528430	1471986057436	1471986057580	o	79
5006	53137	Wasn't nearly as bad as I thought.	Wasn't nearly as bad as I thought,	2528432	1471986057532	1471986057660	u	85
5006	53137	Wasn't nearly as bad as I thought.	Wasn't nearly as bad as I thought,	2528436	1471986057772	1471986057852	g	71
5006	53137	Wasn't nearly as bad as I thought.	Wasn't nearly as bad as I thought,	2528439	1471986057948	1471986058028	h	72
5006	53137	Wasn't nearly as bad as I thought.	Wasn't nearly as bad as I thought,	2528443	1471986058076	1471986058156	t	84
5006	53137	Wasn't nearly as bad as I thought.	Wasn't nearly as bad as I thought,	2528477	1471986058796	1471986058892	,	188
5006	53142	Was it a car wreck?	Was it a car wreck?	2528550	1471986060940	1471986061180	SHIFT	16
5006	53142	Was it a car wreck?	Was it a car wreck?	2528553	1471986061132	1471986061276	W	87
5006	53142	Was it a car wreck?	Was it a car wreck?	2528556	1471986061372	1471986061484	a	65
5006	53142	Was it a car wreck?	Was it a car wreck?	2528559	1471986061580	1471986061660	s	83
5006	53142	Was it a car wreck?	Was it a car wreck?	2528563	1471986061740	1471986061836	 	32
5006	53142	Was it a car wreck?	Was it a car wreck?	2528566	1471986061868	1471986061980	i	73
5006	53142	Was it a car wreck?	Was it a car wreck?	2528582	1471986061986	1471986062060	t	84
5006	53142	Was it a car wreck?	Was it a car wreck?	2528584	1471986062124	1471986062204	 	32
5006	53142	Was it a car wreck?	Was it a car wreck?	2528586	1471986062220	1471986062300	a	65
5006	53142	Was it a car wreck?	Was it a car wreck?	2528589	1471986062364	1471986062428	 	32
5006	53142	Was it a car wreck?	Was it a car wreck?	2528592	1471986062524	1471986062620	c	67
5006	53142	Was it a car wreck?	Was it a car wreck?	2528602	1471986062684	1471986062812	a	65
5006	53142	Was it a car wreck?	Was it a car wreck?	2528604	1471986062812	1471986062892	r	82
5006	53142	Was it a car wreck?	Was it a car wreck?	2528606	1471986063004	1471986063084	 	32
5006	53142	Was it a car wreck?	Was it a car wreck?	2528608	1471986063148	1471986063292	w	87
5006	53142	Was it a car wreck?	Was it a car wreck?	2528658	1471986063276	1471986063356	e	69
5006	53142	Was it a car wreck?	Was it a car wreck?	2528660	1471986063356	1471986063468	r	82
5006	53142	Was it a car wreck?	Was it a car wreck?	2528665	1471986063740	1471986063804	BKSP	8
5006	53142	Was it a car wreck?	Was it a car wreck?	2528668	1471986063884	1471986063980	BKSP	8
5006	53142	Was it a car wreck?	Was it a car wreck?	2528673	1471986063964	1471986064124	r	82
5006	53142	Was it a car wreck?	Was it a car wreck?	2528677	1471986064060	1471986064204	e	69
5006	53142	Was it a car wreck?	Was it a car wreck?	2528679	1471986064348	1471986064476	c	67
5006	53142	Was it a car wreck?	Was it a car wreck?	2528680	1471986064540	1471986064636	k	75
5006	53142	Was it a car wreck?	Was it a car wreck?	2528734	1471986065116	1471986065404	SHIFT	16
5006	53142	Was it a car wreck?	Was it a car wreck?	2528735	1471986065484	1471986065628	SHIFT	16
5006	53142	Was it a car wreck?	Was it a car wreck?	2528736	1471986066092	1471986066268	/	191
5006	53142	Was it a car wreck?	Was it a car wreck?	2528737	1471986066604	1471986066684	BKSP	8
5006	53142	Was it a car wreck?	Was it a car wreck?	2528738	1471986066972	1471986067212	SHIFT	16
5006	53142	Was it a car wreck?	Was it a car wreck?	2528739	1471986067132	1471986067280	?	191
