PARTICIPANT_ID	TEST_SECTION_ID	SENTENCE	USER_INPUT	KEYSTROKE_ID	PRESS_TIME	RELEASE_TIME	LETTER	KEYCODE
5045	53492	They've really caught the fever.	They've really caught the fever.	2543598	1471986443293	1471986443452	SHIFT	16
5045	53492	They've really caught the fever.	They've really caught the fever.	2543597	1471986443372	1471986443436	T	84
5045	53492	They've really caught the fever.	They've really caught the fever.	2543599	1471986443557	1471986443676	h	72
5045	53492	They've really caught the fever.	They've really caught the fever.	2543600	1471986444621	1471986444716	e	69
5045	53492	They've really caught the fever.	They've really caught the fever.	2543601	1471986444677	1471986444781	y	89
5045	53492	They've really caught the fever.	They've really caught the fever.	2543602	1471986445497	1471986445591	'	222
5045	53492	They've really caught the fever.	They've really caught the fever.	2543642	1471986445949	1471986446028	v	86
5045	53492	They've really caught the fever.	They've really caught the fever.	2543643	1471986446092	1471986446197	e	69
5045	53492	They've really caught the fever.	They've really caught the fever.	2543644	1471986446156	1471986446260	 	32
5045	53492	They've really caught the fever.	They've really caught the fever.	2543645	1471986446380	1471986446468	r	82
5045	53492	They've really caught the fever.	They've really caught the fever.	2543647	1471986446581	1471986446700	e	69
5045	53492	They've really caught the fever.	They've really caught the fever.	2543660	1471986446756	1471986446877	a	65
5045	53492	They've really caught the fever.	They've really caught the fever.	2543662	1471986446925	1471986446997	l	76
5045	53492	They've really caught the fever.	They've really caught the fever.	2543664	1471986447053	1471986447165	l	76
5045	53492	They've really caught the fever.	They've really caught the fever.	2543666	1471986447293	1471986447357	y	89
5045	53492	They've really caught the fever.	They've really caught the fever.	2543668	1471986447476	1471986447549	 	32
5045	53492	They've really caught the fever.	They've really caught the fever.	2543699	1471986448308	1471986448428	c	67
5045	53492	They've really caught the fever.	They've really caught the fever.	2543700	1471986448476	1471986448588	a	65
5045	53492	They've really caught the fever.	They've really caught the fever.	2543701	1471986448596	1471986448693	u	85
5045	53492	They've really caught the fever.	They've really caught the fever.	2543702	1471986448804	1471986448909	g	71
5045	53492	They've really caught the fever.	They've really caught the fever.	2543719	1471986448884	1471986448972	h	72
5045	53492	They've really caught the fever.	They've really caught the fever.	2543721	1471986449068	1471986449140	t	84
5045	53492	They've really caught the fever.	They've really caught the fever.	2543723	1471986449244	1471986449357	 	32
5045	53492	They've really caught the fever.	They've really caught the fever.	2543726	1471986449405	1471986449492	t	84
5045	53492	They've really caught the fever.	They've really caught the fever.	2543729	1471986449605	1471986449708	h	72
5045	53492	They've really caught the fever.	They've really caught the fever.	2543733	1471986449716	1471986449804	e	69
5045	53492	They've really caught the fever.	They've really caught the fever.	2543754	1471986449780	1471986449860	 	32
5045	53492	They've really caught the fever.	They've really caught the fever.	2543756	1471986449932	1471986450037	f	70
5045	53492	They've really caught the fever.	They've really caught the fever.	2543759	1471986450045	1471986450148	e	69
5045	53492	They've really caught the fever.	They've really caught the fever.	2543762	1471986450436	1471986450500	v	86
5045	53492	They've really caught the fever.	They've really caught the fever.	2543765	1471986450574	1471986450668	e	69
5045	53492	They've really caught the fever.	They've really caught the fever.	2543823	1471986450620	1471986450692	r	82
5045	53492	They've really caught the fever.	They've really caught the fever.	2543825	1471986451684	1471986451772	.	190
5045	53501	Thanks, I think we have taken care of this.	Thanks, I think we have taken care of this.	2544008	1471986458156	1471986458276	SHIFT	16
5045	53501	Thanks, I think we have taken care of this.	Thanks, I think we have taken care of this.	2544011	1471986458204	1471986458301	T	84
5045	53501	Thanks, I think we have taken care of this.	Thanks, I think we have taken care of this.	2544012	1471986458405	1471986458516	h	72
5045	53501	Thanks, I think we have taken care of this.	Thanks, I think we have taken care of this.	2544014	1471986458572	1471986458693	a	65
5045	53501	Thanks, I think we have taken care of this.	Thanks, I think we have taken care of this.	2544015	1471986459341	1471986459420	n	78
5045	53501	Thanks, I think we have taken care of this.	Thanks, I think we have taken care of this.	2544018	1471986459492	1471986459597	k	75
5045	53501	Thanks, I think we have taken care of this.	Thanks, I think we have taken care of this.	2544045	1471986459605	1471986459692	s	83
5045	53501	Thanks, I think we have taken care of this.	Thanks, I think we have taken care of this.	2544046	1471986460116	1471986460196	,	188
5045	53501	Thanks, I think we have taken care of this.	Thanks, I think we have taken care of this.	2544048	1471986460628	1471986460700	 	32
5045	53501	Thanks, I think we have taken care of this.	Thanks, I think we have taken care of this.	2544051	1471986460860	1471986461037	SHIFT	16
5045	53501	Thanks, I think we have taken care of this.	Thanks, I think we have taken care of this.	2544054	1471986460973	1471986461053	I	73
5045	53501	Thanks, I think we have taken care of this.	Thanks, I think we have taken care of this.	2544057	1471986461181	1471986461293	 	32
5045	53501	Thanks, I think we have taken care of this.	Thanks, I think we have taken care of this.	2544108	1471986461429	1471986461524	t	84
5045	53501	Thanks, I think we have taken care of this.	Thanks, I think we have taken care of this.	2544109	1471986462564	1471986462661	h	72
5045	53501	Thanks, I think we have taken care of this.	Thanks, I think we have taken care of this.	2544111	1471986462741	1471986462836	i	73
5045	53501	Thanks, I think we have taken care of this.	Thanks, I think we have taken care of this.	2544115	1471986462908	1471986463005	n	78
5045	53501	Thanks, I think we have taken care of this.	Thanks, I think we have taken care of this.	2544120	1471986463053	1471986463156	k	75
5045	53501	Thanks, I think we have taken care of this.	Thanks, I think we have taken care of this.	2544146	1471986463268	1471986463366	 	32
5045	53501	Thanks, I think we have taken care of this.	Thanks, I think we have taken care of this.	2544149	1471986463524	1471986463668	w	87
5045	53501	Thanks, I think we have taken care of this.	Thanks, I think we have taken care of this.	2544155	1471986463660	1471986463789	e	69
5045	53501	Thanks, I think we have taken care of this.	Thanks, I think we have taken care of this.	2544157	1471986463780	1471986463889	 	32
5045	53501	Thanks, I think we have taken care of this.	Thanks, I think we have taken care of this.	2544160	1471986463957	1471986464053	h	72
5045	53501	Thanks, I think we have taken care of this.	Thanks, I think we have taken care of this.	2544189	1471986464076	1471986464212	a	65
5045	53501	Thanks, I think we have taken care of this.	Thanks, I think we have taken care of this.	2544190	1471986464156	1471986464236	v	86
5045	53501	Thanks, I think we have taken care of this.	Thanks, I think we have taken care of this.	2544191	1471986464276	1471986464388	e	69
5045	53501	Thanks, I think we have taken care of this.	Thanks, I think we have taken care of this.	2544193	1471986464460	1471986464532	 	32
5045	53501	Thanks, I think we have taken care of this.	Thanks, I think we have taken care of this.	2544195	1471986465365	1471986465452	t	84
5045	53501	Thanks, I think we have taken care of this.	Thanks, I think we have taken care of this.	2544219	1471986465540	1471986465684	a	65
5045	53501	Thanks, I think we have taken care of this.	Thanks, I think we have taken care of this.	2544222	1471986465716	1471986465837	k	75
5045	53501	Thanks, I think we have taken care of this.	Thanks, I think we have taken care of this.	2544224	1471986465852	1471986465973	e	69
5045	53501	Thanks, I think we have taken care of this.	Thanks, I think we have taken care of this.	2544227	1471986465948	1471986466029	n	78
5045	53501	Thanks, I think we have taken care of this.	Thanks, I think we have taken care of this.	2544229	1471986466148	1471986466212	 	32
5045	53501	Thanks, I think we have taken care of this.	Thanks, I think we have taken care of this.	2544269	1471986467458	1471986467556	c	67
5045	53501	Thanks, I think we have taken care of this.	Thanks, I think we have taken care of this.	2544271	1471986467604	1471986467724	a	65
5045	53501	Thanks, I think we have taken care of this.	Thanks, I think we have taken care of this.	2544272	1471986467708	1471986467796	r	82
5045	53501	Thanks, I think we have taken care of this.	Thanks, I think we have taken care of this.	2544273	1471986467844	1471986467972	e	69
5045	53501	Thanks, I think we have taken care of this.	Thanks, I think we have taken care of this.	2544274	1471986467980	1471986468068	 	32
5045	53501	Thanks, I think we have taken care of this.	Thanks, I think we have taken care of this.	2544316	1471986468588	1471986468692	o	79
5045	53501	Thanks, I think we have taken care of this.	Thanks, I think we have taken care of this.	2544318	1471986468756	1471986468852	f	70
5045	53501	Thanks, I think we have taken care of this.	Thanks, I think we have taken care of this.	2544323	1471986468837	1471986468940	 	32
5045	53501	Thanks, I think we have taken care of this.	Thanks, I think we have taken care of this.	2544324	1471986469444	1471986469532	t	84
5045	53501	Thanks, I think we have taken care of this.	Thanks, I think we have taken care of this.	2544326	1471986469660	1471986469756	h	72
5045	53501	Thanks, I think we have taken care of this.	Thanks, I think we have taken care of this.	2544512	1471986470052	1471986470148	i	73
5045	53501	Thanks, I think we have taken care of this.	Thanks, I think we have taken care of this.	2544515	1471986470156	1471986470245	s	83
5045	53501	Thanks, I think we have taken care of this.	Thanks, I think we have taken care of this.	2544518	1471986470844	1471986470908	.	190
5045	53501	Thanks, I think we have taken care of this.	Thanks, I think we have taken care of this.	2544520	1471986471868	1471986471949	SHIFT	16
5045	53518	Ruth, here is an estimated November purchase.	Ruth, here is an estimated November purchase.	2544670	1471986480757	1471986481060	SHIFT	16
5045	53518	Ruth, here is an estimated November purchase.	Ruth, here is an estimated November purchase.	2544672	1471986480956	1471986481085	R	82
5045	53518	Ruth, here is an estimated November purchase.	Ruth, here is an estimated November purchase.	2544674	1471986481244	1471986481380	u	85
5045	53518	Ruth, here is an estimated November purchase.	Ruth, here is an estimated November purchase.	2544676	1471986481428	1471986481532	t	84
5045	53518	Ruth, here is an estimated November purchase.	Ruth, here is an estimated November purchase.	2544678	1471986481540	1471986481620	h	72
5045	53518	Ruth, here is an estimated November purchase.	Ruth, here is an estimated November purchase.	2544680	1471986481700	1471986481765	 	32
5045	53518	Ruth, here is an estimated November purchase.	Ruth, here is an estimated November purchase.	2544710	1471986482390	1471986482493	BKSP	8
5045	53518	Ruth, here is an estimated November purchase.	Ruth, here is an estimated November purchase.	2544711	1471986482916	1471986482990	,	188
5045	53518	Ruth, here is an estimated November purchase.	Ruth, here is an estimated November purchase.	2544712	1471986483045	1471986483116	 	32
5045	53518	Ruth, here is an estimated November purchase.	Ruth, here is an estimated November purchase.	2544713	1471986483253	1471986483333	h	72
5045	53518	Ruth, here is an estimated November purchase.	Ruth, here is an estimated November purchase.	2544714	1471986483388	1471986483492	e	69
5045	53518	Ruth, here is an estimated November purchase.	Ruth, here is an estimated November purchase.	2544715	1471986483604	1471986483700	r	82
5045	53518	Ruth, here is an estimated November purchase.	Ruth, here is an estimated November purchase.	2544732	1471986483814	1471986483940	e	69
5045	53518	Ruth, here is an estimated November purchase.	Ruth, here is an estimated November purchase.	2544734	1471986483924	1471986484004	 	32
5045	53518	Ruth, here is an estimated November purchase.	Ruth, here is an estimated November purchase.	2544736	1471986484076	1471986484172	i	73
5045	53518	Ruth, here is an estimated November purchase.	Ruth, here is an estimated November purchase.	2544740	1471986484164	1471986484285	s	83
5045	53518	Ruth, here is an estimated November purchase.	Ruth, here is an estimated November purchase.	2544743	1471986484364	1471986484365	 	32
5045	53518	Ruth, here is an estimated November purchase.	Ruth, here is an estimated November purchase.	2544761	1471986484525	1471986484612	a	65
5045	53518	Ruth, here is an estimated November purchase.	Ruth, here is an estimated November purchase.	2544763	1471986484588	1471986484685	n	78
5045	53518	Ruth, here is an estimated November purchase.	Ruth, here is an estimated November purchase.	2544764	1471986484756	1471986484844	 	32
5045	53518	Ruth, here is an estimated November purchase.	Ruth, here is an estimated November purchase.	2544765	1471986485036	1471986485116	e	69
5045	53518	Ruth, here is an estimated November purchase.	Ruth, here is an estimated November purchase.	2544766	1471986485244	1471986485356	s	83
5045	53518	Ruth, here is an estimated November purchase.	Ruth, here is an estimated November purchase.	2544789	1471986485476	1471986485580	t	84
5045	53518	Ruth, here is an estimated November purchase.	Ruth, here is an estimated November purchase.	2544791	1471986485676	1471986485732	i	73
5045	53518	Ruth, here is an estimated November purchase.	Ruth, here is an estimated November purchase.	2544793	1471986485884	1471986485980	m	77
5045	53518	Ruth, here is an estimated November purchase.	Ruth, here is an estimated November purchase.	2544796	1471986486100	1471986486102	a	65
5045	53518	Ruth, here is an estimated November purchase.	Ruth, here is an estimated November purchase.	2544800	1471986486157	1471986486244	t	84
5045	53518	Ruth, here is an estimated November purchase.	Ruth, here is an estimated November purchase.	2544872	1471986486300	1471986486388	e	69
5045	53518	Ruth, here is an estimated November purchase.	Ruth, here is an estimated November purchase.	2544874	1471986486540	1471986486652	d	68
5045	53518	Ruth, here is an estimated November purchase.	Ruth, here is an estimated November purchase.	2544878	1471986486692	1471986486756	 	32
5045	53518	Ruth, here is an estimated November purchase.	Ruth, here is an estimated November purchase.	2544885	1471986487382	1471986488164	SHIFT	16
5045	53518	Ruth, here is an estimated November purchase.	Ruth, here is an estimated November purchase.	2544882	1471986487509	1471986487590	B	66
5045	53518	Ruth, here is an estimated November purchase.	Ruth, here is an estimated November purchase.	2544888	1471986488260	1471986488348	BKSP	8
5045	53518	Ruth, here is an estimated November purchase.	Ruth, here is an estimated November purchase.	2544928	1471986488804	1471986488932	SHIFT	16
5045	53518	Ruth, here is an estimated November purchase.	Ruth, here is an estimated November purchase.	2544890	1471986488828	1471986488912	N	78
5045	53518	Ruth, here is an estimated November purchase.	Ruth, here is an estimated November purchase.	2544931	1471986489012	1471986489100	o	79
5045	53518	Ruth, here is an estimated November purchase.	Ruth, here is an estimated November purchase.	2544937	1471986489348	1471986489428	v	86
5045	53518	Ruth, here is an estimated November purchase.	Ruth, here is an estimated November purchase.	2544940	1471986489470	1471986489556	e	69
5045	53518	Ruth, here is an estimated November purchase.	Ruth, here is an estimated November purchase.	2544941	1471986489589	1471986489660	m	77
5045	53518	Ruth, here is an estimated November purchase.	Ruth, here is an estimated November purchase.	2544943	1471986490444	1471986490532	b	66
5045	53518	Ruth, here is an estimated November purchase.	Ruth, here is an estimated November purchase.	2544994	1471986490572	1471986490701	e	69
5045	53518	Ruth, here is an estimated November purchase.	Ruth, here is an estimated November purchase.	2544996	1471986490689	1471986490788	r	82
5045	53518	Ruth, here is an estimated November purchase.	Ruth, here is an estimated November purchase.	2544998	1471986491445	1471986491508	 	32
5045	53518	Ruth, here is an estimated November purchase.	Ruth, here is an estimated November purchase.	2545000	1471986491900	1471986491986	p	80
5045	53518	Ruth, here is an estimated November purchase.	Ruth, here is an estimated November purchase.	2545002	1471986492356	1471986492436	u	85
5045	53518	Ruth, here is an estimated November purchase.	Ruth, here is an estimated November purchase.	2545052	1471986492484	1471986492572	r	82
5045	53518	Ruth, here is an estimated November purchase.	Ruth, here is an estimated November purchase.	2545054	1471986493036	1471986493156	c	67
5045	53518	Ruth, here is an estimated November purchase.	Ruth, here is an estimated November purchase.	2545056	1471986493092	1471986493181	h	72
5045	53518	Ruth, here is an estimated November purchase.	Ruth, here is an estimated November purchase.	2545057	1471986493268	1471986493388	a	65
5045	53518	Ruth, here is an estimated November purchase.	Ruth, here is an estimated November purchase.	2545059	1471986493908	1471986493996	s	83
5045	53518	Ruth, here is an estimated November purchase.	Ruth, here is an estimated November purchase.	2545142	1471986493948	1471986494061	e	69
5045	53518	Ruth, here is an estimated November purchase.	Ruth, here is an estimated November purchase.	2545144	1471986495180	1471986495260	.	190
5045	53531	I was trying to remember what Bobby said.	I was trying to remember what Bobby said.	2545254	1471986500636	1471986500796	SHIFT	16
5045	53531	I was trying to remember what Bobby said.	I was trying to remember what Bobby said.	2545255	1471986500724	1471986500813	I	73
5045	53531	I was trying to remember what Bobby said.	I was trying to remember what Bobby said.	2545256	1471986500861	1471986500940	 	32
5045	53531	I was trying to remember what Bobby said.	I was trying to remember what Bobby said.	2545257	1471986501036	1471986501156	w	87
5045	53531	I was trying to remember what Bobby said.	I was trying to remember what Bobby said.	2545259	1471986501276	1471986501436	a	65
5045	53531	I was trying to remember what Bobby said.	I was trying to remember what Bobby said.	2545283	1471986501396	1471986501509	s	83
5045	53531	I was trying to remember what Bobby said.	I was trying to remember what Bobby said.	2545284	1471986501477	1471986501556	 	32
5045	53531	I was trying to remember what Bobby said.	I was trying to remember what Bobby said.	2545286	1471986501756	1471986501854	t	84
5045	53531	I was trying to remember what Bobby said.	I was trying to remember what Bobby said.	2545289	1471986501868	1471986501973	r	82
5045	53531	I was trying to remember what Bobby said.	I was trying to remember what Bobby said.	2545292	1471986501980	1471986502076	y	89
5045	53531	I was trying to remember what Bobby said.	I was trying to remember what Bobby said.	2545295	1471986502236	1471986502316	i	73
5045	53531	I was trying to remember what Bobby said.	I was trying to remember what Bobby said.	2545314	1471986502444	1471986502565	n	78
5045	53531	I was trying to remember what Bobby said.	I was trying to remember what Bobby said.	2545315	1471986502572	1471986502652	g	71
5045	53531	I was trying to remember what Bobby said.	I was trying to remember what Bobby said.	2545316	1471986502730	1471986502731	 	32
5045	53531	I was trying to remember what Bobby said.	I was trying to remember what Bobby said.	2545318	1471986502773	1471986502870	t	84
5045	53531	I was trying to remember what Bobby said.	I was trying to remember what Bobby said.	2545322	1471986502877	1471986502973	o	79
5045	53531	I was trying to remember what Bobby said.	I was trying to remember what Bobby said.	2545336	1471986503028	1471986503092	 	32
5045	53531	I was trying to remember what Bobby said.	I was trying to remember what Bobby said.	2545338	1471986503196	1471986503292	r	82
5045	53531	I was trying to remember what Bobby said.	I was trying to remember what Bobby said.	2545340	1471986503396	1471986503500	e	69
5045	53531	I was trying to remember what Bobby said.	I was trying to remember what Bobby said.	2545342	1471986503492	1471986503564	m	77
5045	53531	I was trying to remember what Bobby said.	I was trying to remember what Bobby said.	2545344	1471986503613	1471986503724	e	69
5045	53531	I was trying to remember what Bobby said.	I was trying to remember what Bobby said.	2545382	1471986503716	1471986503818	m	77
5045	53531	I was trying to remember what Bobby said.	I was trying to remember what Bobby said.	2545383	1471986503932	1471986504020	b	66
5045	53531	I was trying to remember what Bobby said.	I was trying to remember what Bobby said.	2545385	1471986504180	1471986504268	e	69
5045	53531	I was trying to remember what Bobby said.	I was trying to remember what Bobby said.	2545387	1471986504372	1471986504460	r	82
5045	53531	I was trying to remember what Bobby said.	I was trying to remember what Bobby said.	2545389	1471986504932	1471986505052	 	32
5045	53531	I was trying to remember what Bobby said.	I was trying to remember what Bobby said.	2545391	1471986505460	1471986505548	w	87
5045	53531	I was trying to remember what Bobby said.	I was trying to remember what Bobby said.	2545423	1471986505524	1471986505644	h	72
5045	53531	I was trying to remember what Bobby said.	I was trying to remember what Bobby said.	2545425	1471986505724	1471986505852	a	65
5045	53531	I was trying to remember what Bobby said.	I was trying to remember what Bobby said.	2545427	1471986505820	1471986505933	t	84
5045	53531	I was trying to remember what Bobby said.	I was trying to remember what Bobby said.	2545431	1471986506036	1471986506092	 	32
5045	53531	I was trying to remember what Bobby said.	I was trying to remember what Bobby said.	2545435	1471986506917	1471986507045	SHIFT	16
5045	53531	I was trying to remember what Bobby said.	I was trying to remember what Bobby said.	2545440	1471986506980	1471986507061	B	66
5045	53531	I was trying to remember what Bobby said.	I was trying to remember what Bobby said.	2545443	1471986507476	1471986507548	o	79
5045	53531	I was trying to remember what Bobby said.	I was trying to remember what Bobby said.	2545477	1471986507748	1471986507828	b	66
5045	53531	I was trying to remember what Bobby said.	I was trying to remember what Bobby said.	2545478	1471986507900	1471986507972	b	66
5045	53531	I was trying to remember what Bobby said.	I was trying to remember what Bobby said.	2545479	1471986508052	1471986508148	y	89
5045	53531	I was trying to remember what Bobby said.	I was trying to remember what Bobby said.	2545480	1471986508348	1471986508444	 	32
5045	53531	I was trying to remember what Bobby said.	I was trying to remember what Bobby said.	2545482	1471986508540	1471986508676	s	83
5045	53531	I was trying to remember what Bobby said.	I was trying to remember what Bobby said.	2545514	1471986508700	1471986508820	a	65
5045	53531	I was trying to remember what Bobby said.	I was trying to remember what Bobby said.	2545515	1471986508796	1471986508868	i	73
5045	53531	I was trying to remember what Bobby said.	I was trying to remember what Bobby said.	2545516	1471986508924	1471986509036	d	68
5045	53531	I was trying to remember what Bobby said.	I was trying to remember what Bobby said.	2545517	1471986509397	1471986509470	.	190
5045	53540	My husband Jeff and I are planning on attending.	My husband Jeff and I are planning on attending.	2545614	1471986513220	1471986513356	SHIFT	16
5045	53540	My husband Jeff and I are planning on attending.	My husband Jeff and I are planning on attending.	2545615	1471986513268	1471986513364	M	77
5045	53540	My husband Jeff and I are planning on attending.	My husband Jeff and I are planning on attending.	2545616	1471986513476	1471986513556	y	89
5045	53540	My husband Jeff and I are planning on attending.	My husband Jeff and I are planning on attending.	2545617	1471986513660	1471986513748	 	32
5045	53540	My husband Jeff and I are planning on attending.	My husband Jeff and I are planning on attending.	2545618	1471986513836	1471986513909	h	72
5045	53540	My husband Jeff and I are planning on attending.	My husband Jeff and I are planning on attending.	2545619	1471986514036	1471986514077	u	85
5045	53540	My husband Jeff and I are planning on attending.	My husband Jeff and I are planning on attending.	2545661	1471986514732	1471986514852	s	83
5045	53540	My husband Jeff and I are planning on attending.	My husband Jeff and I are planning on attending.	2545664	1471986515124	1471986515172	b	66
5045	53540	My husband Jeff and I are planning on attending.	My husband Jeff and I are planning on attending.	2545668	1471986515245	1471986515356	a	65
5045	53540	My husband Jeff and I are planning on attending.	My husband Jeff and I are planning on attending.	2545672	1471986515413	1471986515516	n	78
5045	53540	My husband Jeff and I are planning on attending.	My husband Jeff and I are planning on attending.	2545676	1471986515548	1471986515612	d	68
5045	53540	My husband Jeff and I are planning on attending.	My husband Jeff and I are planning on attending.	2545715	1471986516430	1471986516508	 	32
5045	53540	My husband Jeff and I are planning on attending.	My husband Jeff and I are planning on attending.	2545716	1471986516895	1471986517031	SHIFT	16
5045	53540	My husband Jeff and I are planning on attending.	My husband Jeff and I are planning on attending.	2545717	1471986516940	1471986517036	J	74
5045	53540	My husband Jeff and I are planning on attending.	My husband Jeff and I are planning on attending.	2545718	1471986517140	1471986517220	e	69
5045	53540	My husband Jeff and I are planning on attending.	My husband Jeff and I are planning on attending.	2545719	1471986517388	1471986517476	f	70
5045	53540	My husband Jeff and I are planning on attending.	My husband Jeff and I are planning on attending.	2545720	1471986517580	1471986517676	f	70
5045	53540	My husband Jeff and I are planning on attending.	My husband Jeff and I are planning on attending.	2545752	1471986517668	1471986517740	 	32
5045	53540	My husband Jeff and I are planning on attending.	My husband Jeff and I are planning on attending.	2545754	1471986517852	1471986517989	a	65
5045	53540	My husband Jeff and I are planning on attending.	My husband Jeff and I are planning on attending.	2545756	1471986518252	1471986518324	n	78
5045	53540	My husband Jeff and I are planning on attending.	My husband Jeff and I are planning on attending.	2545758	1471986518404	1471986518516	d	68
5045	53540	My husband Jeff and I are planning on attending.	My husband Jeff and I are planning on attending.	2545759	1471986518509	1471986518556	 	32
5045	53540	My husband Jeff and I are planning on attending.	My husband Jeff and I are planning on attending.	2545890	1471986518756	1471986519028	SHIFT	16
5045	53540	My husband Jeff and I are planning on attending.	My husband Jeff and I are planning on attending.	2545760	1471986518956	1471986519020	I	73
5045	53540	My husband Jeff and I are planning on attending.	My husband Jeff and I are planning on attending.	2545893	1471986520156	1471986520229	 	32
5045	53540	My husband Jeff and I are planning on attending.	My husband Jeff and I are planning on attending.	2545896	1471986521988	1471986522076	r	82
5045	53540	My husband Jeff and I are planning on attending.	My husband Jeff and I are planning on attending.	2545899	1471986522812	1471986522924	BKSP	8
5045	53540	My husband Jeff and I are planning on attending.	My husband Jeff and I are planning on attending.	2545902	1471986522956	1471986523100	a	65
5045	53540	My husband Jeff and I are planning on attending.	My husband Jeff and I are planning on attending.	2545907	1471986523124	1471986523236	r	82
5045	53540	My husband Jeff and I are planning on attending.	My husband Jeff and I are planning on attending.	2545910	1471986523356	1471986523356	e	69
5045	53540	My husband Jeff and I are planning on attending.	My husband Jeff and I are planning on attending.	2545941	1471986523358	1471986523429	 	32
5045	53540	My husband Jeff and I are planning on attending.	My husband Jeff and I are planning on attending.	2545942	1471986523620	1471986523708	p	80
5045	53540	My husband Jeff and I are planning on attending.	My husband Jeff and I are planning on attending.	2545945	1471986523871	1471986523964	l	76
5045	53540	My husband Jeff and I are planning on attending.	My husband Jeff and I are planning on attending.	2545947	1471986524365	1471986524444	a	65
5045	53540	My husband Jeff and I are planning on attending.	My husband Jeff and I are planning on attending.	2545949	1471986524460	1471986524518	n	78
5045	53540	My husband Jeff and I are planning on attending.	My husband Jeff and I are planning on attending.	2545958	1471986524604	1471986524676	n	78
5045	53540	My husband Jeff and I are planning on attending.	My husband Jeff and I are planning on attending.	2545961	1471986524756	1471986524884	i	73
5045	53540	My husband Jeff and I are planning on attending.	My husband Jeff and I are planning on attending.	2545964	1471986524916	1471986525036	n	78
5045	53540	My husband Jeff and I are planning on attending.	My husband Jeff and I are planning on attending.	2545967	1471986525132	1471986525212	g	71
5045	53540	My husband Jeff and I are planning on attending.	My husband Jeff and I are planning on attending.	2545969	1471986525316	1471986525388	 	32
5045	53540	My husband Jeff and I are planning on attending.	My husband Jeff and I are planning on attending.	2545979	1471986525492	1471986525588	o	79
5045	53540	My husband Jeff and I are planning on attending.	My husband Jeff and I are planning on attending.	2545980	1471986525716	1471986525804	n	78
5045	53540	My husband Jeff and I are planning on attending.	My husband Jeff and I are planning on attending.	2545981	1471986525900	1471986525956	 	32
5045	53540	My husband Jeff and I are planning on attending.	My husband Jeff and I are planning on attending.	2545982	1471986526077	1471986526236	a	65
5045	53540	My husband Jeff and I are planning on attending.	My husband Jeff and I are planning on attending.	2545983	1471986526340	1471986526420	t	84
5045	53540	My husband Jeff and I are planning on attending.	My husband Jeff and I are planning on attending.	2546022	1471986526492	1471986526588	t	84
5045	53540	My husband Jeff and I are planning on attending.	My husband Jeff and I are planning on attending.	2546023	1471986526604	1471986526708	e	69
5045	53540	My husband Jeff and I are planning on attending.	My husband Jeff and I are planning on attending.	2546025	1471986526725	1471986526812	n	78
5045	53540	My husband Jeff and I are planning on attending.	My husband Jeff and I are planning on attending.	2546027	1471986528060	1471986528141	d	68
5045	53540	My husband Jeff and I are planning on attending.	My husband Jeff and I are planning on attending.	2546053	1471986528116	1471986528204	i	73
5045	53540	My husband Jeff and I are planning on attending.	My husband Jeff and I are planning on attending.	2546056	1471986528348	1471986528484	n	78
5045	53540	My husband Jeff and I are planning on attending.	My husband Jeff and I are planning on attending.	2546059	1471986528605	1471986528668	g	71
5045	53540	My husband Jeff and I are planning on attending.	My husband Jeff and I are planning on attending.	2546064	1471986529164	1471986529236	.	190
5045	53554	Reports said Clinton feels the same way.	Reports said Clinton feels the same way.	2546130	1471986534180	1471986534356	SHIFT	16
5045	53554	Reports said Clinton feels the same way.	Reports said Clinton feels the same way.	2546132	1471986534300	1471986534380	R	82
5045	53554	Reports said Clinton feels the same way.	Reports said Clinton feels the same way.	2546134	1471986534476	1471986534588	e	69
5045	53554	Reports said Clinton feels the same way.	Reports said Clinton feels the same way.	2546136	1471986534692	1471986534813	p	80
5045	53554	Reports said Clinton feels the same way.	Reports said Clinton feels the same way.	2546138	1471986534845	1471986534948	o	79
5045	53554	Reports said Clinton feels the same way.	Reports said Clinton feels the same way.	2546139	1471986535159	1471986535236	r	82
5045	53554	Reports said Clinton feels the same way.	Reports said Clinton feels the same way.	2546179	1471986535324	1471986535420	t	84
5045	53554	Reports said Clinton feels the same way.	Reports said Clinton feels the same way.	2546181	1471986535444	1471986535580	s	83
5045	53554	Reports said Clinton feels the same way.	Reports said Clinton feels the same way.	2546183	1471986535572	1471986535596	 	32
5045	53554	Reports said Clinton feels the same way.	Reports said Clinton feels the same way.	2546185	1471986536655	1471986536774	s	83
5045	53554	Reports said Clinton feels the same way.	Reports said Clinton feels the same way.	2546186	1471986536812	1471986536948	a	65
5045	53554	Reports said Clinton feels the same way.	Reports said Clinton feels the same way.	2546224	1471986536956	1471986537092	d	68
5045	53554	Reports said Clinton feels the same way.	Reports said Clinton feels the same way.	2546227	1471986538076	1471986538174	BKSP	8
5045	53554	Reports said Clinton feels the same way.	Reports said Clinton feels the same way.	2546230	1471986538388	1471986538468	i	73
5045	53554	Reports said Clinton feels the same way.	Reports said Clinton feels the same way.	2546233	1471986538508	1471986538604	d	68
5045	53554	Reports said Clinton feels the same way.	Reports said Clinton feels the same way.	2546236	1471986538572	1471986538652	 	32
5045	53554	Reports said Clinton feels the same way.	Reports said Clinton feels the same way.	2546297	1471986538836	1471986539132	SHIFT	16
5045	53554	Reports said Clinton feels the same way.	Reports said Clinton feels the same way.	2546239	1471986538957	1471986539038	C	67
5045	53554	Reports said Clinton feels the same way.	Reports said Clinton feels the same way.	2546299	1471986539270	1471986539391	l	76
5045	53554	Reports said Clinton feels the same way.	Reports said Clinton feels the same way.	2546301	1471986539468	1471986539564	i	73
5045	53554	Reports said Clinton feels the same way.	Reports said Clinton feels the same way.	2546303	1471986540637	1471986540708	n	78
5045	53554	Reports said Clinton feels the same way.	Reports said Clinton feels the same way.	2546305	1471986540757	1471986540844	t	84
5045	53554	Reports said Clinton feels the same way.	Reports said Clinton feels the same way.	2546306	1471986541108	1471986541172	o	79
5045	53554	Reports said Clinton feels the same way.	Reports said Clinton feels the same way.	2546358	1471986541324	1471986541388	n	78
5045	53554	Reports said Clinton feels the same way.	Reports said Clinton feels the same way.	2546360	1471986541956	1471986542020	 	32
5045	53554	Reports said Clinton feels the same way.	Reports said Clinton feels the same way.	2546362	1471986542676	1471986542756	f	70
5045	53554	Reports said Clinton feels the same way.	Reports said Clinton feels the same way.	2546364	1471986543516	1471986543612	e	69
5045	53554	Reports said Clinton feels the same way.	Reports said Clinton feels the same way.	2546366	1471986543716	1471986543780	e	69
5045	53554	Reports said Clinton feels the same way.	Reports said Clinton feels the same way.	2546392	1471986543828	1471986543917	l	76
5045	53554	Reports said Clinton feels the same way.	Reports said Clinton feels the same way.	2546394	1471986543972	1471986544068	s	83
5045	53554	Reports said Clinton feels the same way.	Reports said Clinton feels the same way.	2546396	1471986544180	1471986544263	 	32
5045	53554	Reports said Clinton feels the same way.	Reports said Clinton feels the same way.	2546399	1471986544476	1471986544556	t	84
5045	53554	Reports said Clinton feels the same way.	Reports said Clinton feels the same way.	2546402	1471986544660	1471986544772	h	72
5045	53554	Reports said Clinton feels the same way.	Reports said Clinton feels the same way.	2546411	1471986544740	1471986544820	e	69
5045	53554	Reports said Clinton feels the same way.	Reports said Clinton feels the same way.	2546413	1471986544924	1471986544926	 	32
5045	53554	Reports said Clinton feels the same way.	Reports said Clinton feels the same way.	2546415	1471986544980	1471986545124	s	83
5045	53554	Reports said Clinton feels the same way.	Reports said Clinton feels the same way.	2546417	1471986545156	1471986545309	a	65
5045	53554	Reports said Clinton feels the same way.	Reports said Clinton feels the same way.	2546422	1471986545292	1471986545397	m	77
5045	53554	Reports said Clinton feels the same way.	Reports said Clinton feels the same way.	2546478	1471986545380	1471986545517	e	69
5045	53554	Reports said Clinton feels the same way.	Reports said Clinton feels the same way.	2546480	1471986545500	1471986545596	 	32
5045	53554	Reports said Clinton feels the same way.	Reports said Clinton feels the same way.	2546482	1471986545844	1471986545989	w	87
5045	53554	Reports said Clinton feels the same way.	Reports said Clinton feels the same way.	2546484	1471986546036	1471986546172	a	65
5045	53554	Reports said Clinton feels the same way.	Reports said Clinton feels the same way.	2546485	1471986546124	1471986546228	y	89
5045	53554	Reports said Clinton feels the same way.	Reports said Clinton feels the same way.	2546486	1471986547164	1471986547236	.	190
5045	53565	Would you mind taking the lead on this?	Would you  mind taking the lead on this?	2546631	1471986551356	1471986551788	SHIFT	16
5045	53565	Would you mind taking the lead on this?	Would you  mind taking the lead on this?	2546632	1471986551717	1471986551812	W	87
5045	53565	Would you mind taking the lead on this?	Would you  mind taking the lead on this?	2546633	1471986551925	1471986552070	o	79
5045	53565	Would you mind taking the lead on this?	Would you  mind taking the lead on this?	2546634	1471986552084	1471986552172	u	85
5045	53565	Would you mind taking the lead on this?	Would you  mind taking the lead on this?	2546637	1471986552581	1471986552661	l	76
5045	53565	Would you mind taking the lead on this?	Would you  mind taking the lead on this?	2546639	1471986552708	1471986552812	d	68
5045	53565	Would you mind taking the lead on this?	Would you  mind taking the lead on this?	2546657	1471986552788	1471986552868	 	32
5045	53565	Would you mind taking the lead on this?	Would you  mind taking the lead on this?	2546660	1471986553276	1471986553364	y	89
5045	53565	Would you mind taking the lead on this?	Would you  mind taking the lead on this?	2546662	1471986553534	1471986553676	o	79
5045	53565	Would you mind taking the lead on this?	Would you  mind taking the lead on this?	2546666	1471986553700	1471986553812	u	85
5045	53565	Would you mind taking the lead on this?	Would you  mind taking the lead on this?	2546669	1471986553892	1471986553972	 	32
5045	53565	Would you mind taking the lead on this?	Would you  mind taking the lead on this?	2546671	1471986554020	1471986554092	 	32
5045	53565	Would you mind taking the lead on this?	Would you  mind taking the lead on this?	2546694	1471986554053	1471986554164	m	77
5045	53565	Would you mind taking the lead on this?	Would you  mind taking the lead on this?	2546696	1471986554271	1471986554364	i	73
5045	53565	Would you mind taking the lead on this?	Would you  mind taking the lead on this?	2546698	1471986554485	1471986554596	n	78
5045	53565	Would you mind taking the lead on this?	Would you  mind taking the lead on this?	2546701	1471986554804	1471986554908	d	68
5045	53565	Would you mind taking the lead on this?	Would you  mind taking the lead on this?	2546703	1471986554876	1471986554972	 	32
5045	53565	Would you mind taking the lead on this?	Would you  mind taking the lead on this?	2546705	1471986555109	1471986555188	t	84
5045	53565	Would you mind taking the lead on this?	Would you  mind taking the lead on this?	2546727	1471986555332	1471986555444	a	65
5045	53565	Would you mind taking the lead on this?	Would you  mind taking the lead on this?	2546728	1471986555405	1471986555484	k	75
5045	53565	Would you mind taking the lead on this?	Would you  mind taking the lead on this?	2546729	1471986555556	1471986555628	i	73
5045	53565	Would you mind taking the lead on this?	Would you  mind taking the lead on this?	2546731	1471986555764	1471986555852	n	78
5045	53565	Would you mind taking the lead on this?	Would you  mind taking the lead on this?	2546734	1471986555956	1471986556036	g	71
5045	53565	Would you mind taking the lead on this?	Would you  mind taking the lead on this?	2546803	1471986557516	1471986557598	 	32
5045	53565	Would you mind taking the lead on this?	Would you  mind taking the lead on this?	2546804	1471986558152	1471986558232	t	84
5045	53565	Would you mind taking the lead on this?	Would you  mind taking the lead on this?	2546805	1471986558325	1471986558444	h	72
5045	53565	Would you mind taking the lead on this?	Would you  mind taking the lead on this?	2546806	1471986558460	1471986558572	e	69
5045	53565	Would you mind taking the lead on this?	Would you  mind taking the lead on this?	2546831	1471986558525	1471986558628	 	32
5045	53565	Would you mind taking the lead on this?	Would you  mind taking the lead on this?	2546834	1471986558788	1471986558884	l	76
5045	53565	Would you mind taking the lead on this?	Would you  mind taking the lead on this?	2546839	1471986558908	1471986559013	e	69
5045	53565	Would you mind taking the lead on this?	Would you  mind taking the lead on this?	2546841	1471986559100	1471986559244	a	65
5045	53565	Would you mind taking the lead on this?	Would you  mind taking the lead on this?	2546845	1471986559369	1471986559369	d	68
5045	53565	Would you mind taking the lead on this?	Would you  mind taking the lead on this?	2546849	1471986559412	1471986559524	 	32
5045	53565	Would you mind taking the lead on this?	Would you  mind taking the lead on this?	2546875	1471986560340	1471986560437	o	79
5045	53565	Would you mind taking the lead on this?	Would you  mind taking the lead on this?	2546876	1471986560516	1471986560621	n	78
5045	53565	Would you mind taking the lead on this?	Would you  mind taking the lead on this?	2546877	1471986560630	1471986560726	 	32
5045	53565	Would you mind taking the lead on this?	Would you  mind taking the lead on this?	2546878	1471986560788	1471986560868	t	84
5045	53565	Would you mind taking the lead on this?	Would you  mind taking the lead on this?	2546879	1471986560988	1471986561084	h	72
5045	53565	Would you mind taking the lead on this?	Would you  mind taking the lead on this?	2546897	1471986561214	1471986561300	i	73
5045	53565	Would you mind taking the lead on this?	Would you  mind taking the lead on this?	2546899	1471986561391	1471986561492	s	83
5045	53565	Would you mind taking the lead on this?	Would you  mind taking the lead on this?	2546906	1471986561620	1471986561916	SHIFT	16
5045	53565	Would you mind taking the lead on this?	Would you  mind taking the lead on this?	2546902	1471986561780	1471986561861	?	191
5045	53572	I have 2 different ones.	I have 2 different ones.	2547045	1471986565908	1471986566052	SHIFT	16
5045	53572	I have 2 different ones.	I have 2 different ones.	2547047	1471986565972	1471986566068	I	73
5045	53572	I have 2 different ones.	I have 2 different ones.	2547049	1471986566120	1471986566244	 	32
5045	53572	I have 2 different ones.	I have 2 different ones.	2547051	1471986566348	1471986566349	h	72
5045	53572	I have 2 different ones.	I have 2 different ones.	2547056	1471986566420	1471986566556	a	65
5045	53572	I have 2 different ones.	I have 2 different ones.	2547073	1471986566508	1471986566620	v	86
5045	53572	I have 2 different ones.	I have 2 different ones.	2547074	1471986566660	1471986566756	e	69
5045	53572	I have 2 different ones.	I have 2 different ones.	2547075	1471986566716	1471986566812	 	32
5045	53572	I have 2 different ones.	I have 2 different ones.	2547076	1471986567108	1471986567204	2	50
5045	53572	I have 2 different ones.	I have 2 different ones.	2547077	1471986567404	1471986567556	 	32
5045	53572	I have 2 different ones.	I have 2 different ones.	2547078	1471986567828	1471986567940	d	68
5045	53572	I have 2 different ones.	I have 2 different ones.	2547082	1471986567972	1471986568060	i	73
5045	53572	I have 2 different ones.	I have 2 different ones.	2547084	1471986568284	1471986568364	f	70
5045	53572	I have 2 different ones.	I have 2 different ones.	2547086	1471986568428	1471986568516	f	70
5045	53572	I have 2 different ones.	I have 2 different ones.	2547088	1471986568540	1471986568636	e	69
5045	53572	I have 2 different ones.	I have 2 different ones.	2547091	1471986568716	1471986568716	r	82
5045	53572	I have 2 different ones.	I have 2 different ones.	2547113	1471986568764	1471986568868	e	69
5045	53572	I have 2 different ones.	I have 2 different ones.	2547115	1471986569020	1471986569116	n	78
5045	53572	I have 2 different ones.	I have 2 different ones.	2547116	1471986569292	1471986569404	t	84
5045	53572	I have 2 different ones.	I have 2 different ones.	2547117	1471986569780	1471986569860	 	32
5045	53572	I have 2 different ones.	I have 2 different ones.	2547118	1471986570108	1471986570180	o	79
5045	53572	I have 2 different ones.	I have 2 different ones.	2547133	1471986570364	1471986570444	n	78
5045	53572	I have 2 different ones.	I have 2 different ones.	2547138	1471986570524	1471986570622	e	69
5045	53572	I have 2 different ones.	I have 2 different ones.	2547142	1471986570764	1471986570892	s	83
5045	53572	I have 2 different ones.	I have 2 different ones.	2547146	1471986570916	1471986570996	.	190
5045	53577	Was it a car wreck?	Was it a car wreck?	2547300	1471986575806	1471986576204	SHIFT	16
5045	53577	Was it a car wreck?	Was it a car wreck?	2547301	1471986576100	1471986576212	W	87
5045	53577	Was it a car wreck?	Was it a car wreck?	2547302	1471986576372	1471986576516	a	65
5045	53577	Was it a car wreck?	Was it a car wreck?	2547303	1471986576492	1471986576604	s	83
5045	53577	Was it a car wreck?	Was it a car wreck?	2547304	1471986576588	1471986576668	 	32
5045	53577	Was it a car wreck?	Was it a car wreck?	2547305	1471986577573	1471986577668	i	73
5045	53577	Was it a car wreck?	Was it a car wreck?	2547327	1471986577844	1471986577940	t	84
5045	53577	Was it a car wreck?	Was it a car wreck?	2547328	1471986578020	1471986578084	 	32
5045	53577	Was it a car wreck?	Was it a car wreck?	2547329	1471986578164	1471986578300	a	65
5045	53577	Was it a car wreck?	Was it a car wreck?	2547330	1471986578262	1471986578340	 	32
5045	53577	Was it a car wreck?	Was it a car wreck?	2547389	1471986579110	1471986579212	x	67
5045	53577	Was it a car wreck?	Was it a car wreck?	2547391	1471986579244	1471986579364	a	65
5045	53577	Was it a car wreck?	Was it a car wreck?	2547392	1471986580468	1471986580556	BKSP	8
5045	53577	Was it a car wreck?	Was it a car wreck?	2547393	1471986580620	1471986580726	BKSP	8
5045	53577	Was it a car wreck?	Was it a car wreck?	2547394	1471986581204	1471986581317	a	65
5045	53577	Was it a car wreck?	Was it a car wreck?	2547395	1471986581260	1471986581388	r	82
5045	53577	Was it a car wreck?	Was it a car wreck?	2547396	1471986581500	1471986581580	 	32
5045	53577	Was it a car wreck?	Was it a car wreck?	2547397	1471986582152	1471986582253	w	87
5045	53577	Was it a car wreck?	Was it a car wreck?	2547410	1471986582316	1471986582406	r	82
5045	53577	Was it a car wreck?	Was it a car wreck?	2547411	1471986582452	1471986582540	e	69
5045	53577	Was it a car wreck?	Was it a car wreck?	2547412	1471986582972	1471986583100	c	67
5045	53577	Was it a car wreck?	Was it a car wreck?	2547413	1471986583092	1471986583180	k	75
5045	53577	Was it a car wreck?	Was it a car wreck?	2547420	1471986583468	1471986583724	SHIFT	16
5045	53577	Was it a car wreck?	Was it a car wreck?	2547414	1471986583612	1471986583700	?	191
5045	53583	I haven't adapted really.	I haven't adapted really.	2547515	1471986588076	1471986588236	SHIFT	16
5045	53583	I haven't adapted really.	I haven't adapted really.	2547514	1471986588124	1471986588220	I	73
5045	53583	I haven't adapted really.	I haven't adapted really.	2547516	1471986588284	1471986588397	 	32
5045	53583	I haven't adapted really.	I haven't adapted really.	2547517	1471986588532	1471986588628	h	72
5045	53583	I haven't adapted really.	I haven't adapted really.	2547518	1471986588676	1471986588804	a	65
5045	53583	I haven't adapted really.	I haven't adapted really.	2547559	1471986588796	1471986588884	v	86
5045	53583	I haven't adapted really.	I haven't adapted really.	2547560	1471986588972	1471986589108	e	69
5045	53583	I haven't adapted really.	I haven't adapted really.	2547561	1471986589260	1471986589324	n	78
5045	53583	I haven't adapted really.	I haven't adapted really.	2547562	1471986589764	1471986589860	'	222
5045	53583	I haven't adapted really.	I haven't adapted really.	2547563	1471986590068	1471986590165	t	84
5045	53583	I haven't adapted really.	I haven't adapted really.	2547564	1471986590844	1471986590940	 	32
5045	53583	I haven't adapted really.	I haven't adapted really.	2547588	1471986591236	1471986591420	a	65
5045	53583	I haven't adapted really.	I haven't adapted really.	2547589	1471986591428	1471986591580	d	68
5045	53583	I haven't adapted really.	I haven't adapted really.	2547590	1471986591628	1471986591740	a	65
5045	53583	I haven't adapted really.	I haven't adapted really.	2547591	1471986591724	1471986591820	p	80
5045	53583	I haven't adapted really.	I haven't adapted really.	2547592	1471986591996	1471986592100	t	84
5045	53583	I haven't adapted really.	I haven't adapted really.	2547610	1471986592116	1471986592204	e	69
5045	53583	I haven't adapted really.	I haven't adapted really.	2547612	1471986592316	1471986592452	d	68
5045	53583	I haven't adapted really.	I haven't adapted really.	2547614	1471986592436	1471986592541	 	32
5045	53583	I haven't adapted really.	I haven't adapted really.	2547616	1471986592692	1471986592780	r	82
5045	53583	I haven't adapted really.	I haven't adapted really.	2547620	1471986592836	1471986592972	e	69
5045	53583	I haven't adapted really.	I haven't adapted really.	2547650	1471986593052	1471986593156	a	65
5045	53583	I haven't adapted really.	I haven't adapted really.	2547651	1471986593140	1471986593212	l	76
5045	53583	I haven't adapted really.	I haven't adapted really.	2547652	1471986593284	1471986593380	l	76
5045	53583	I haven't adapted really.	I haven't adapted really.	2547654	1471986593516	1471986593604	y	89
5045	53583	I haven't adapted really.	I haven't adapted really.	2547657	1471986594332	1471986594421	.	190
5045	53592	Amy will no longer be here so I will be the only one working on this.	Amy will no longer be here so I will be the only one working on this.	2547745	1471986597508	1471986597756	SHIFT	16
5045	53592	Amy will no longer be here so I will be the only one working on this.	Amy will no longer be here so I will be the only one working on this.	2547747	1471986597669	1471986597828	A	65
5045	53592	Amy will no longer be here so I will be the only one working on this.	Amy will no longer be here so I will be the only one working on this.	2547749	1471986597796	1471986597853	n	78
5045	53592	Amy will no longer be here so I will be the only one working on this.	Amy will no longer be here so I will be the only one working on this.	2547751	1471986598276	1471986598380	BKSP	8
5045	53592	Amy will no longer be here so I will be the only one working on this.	Amy will no longer be here so I will be the only one working on this.	2547752	1471986598548	1471986598644	m	77
5045	53592	Amy will no longer be here so I will be the only one working on this.	Amy will no longer be here so I will be the only one working on this.	2547753	1471986598772	1471986598852	y	89
5045	53592	Amy will no longer be here so I will be the only one working on this.	Amy will no longer be here so I will be the only one working on this.	2547754	1471986598932	1471986599020	 	32
5045	53592	Amy will no longer be here so I will be the only one working on this.	Amy will no longer be here so I will be the only one working on this.	2547769	1471986599292	1471986599372	w	87
5045	53592	Amy will no longer be here so I will be the only one working on this.	Amy will no longer be here so I will be the only one working on this.	2547771	1471986599364	1471986599436	i	73
5045	53592	Amy will no longer be here so I will be the only one working on this.	Amy will no longer be here so I will be the only one working on this.	2547773	1471986599580	1471986599660	l	76
5045	53592	Amy will no longer be here so I will be the only one working on this.	Amy will no longer be here so I will be the only one working on this.	2547775	1471986599716	1471986599796	l	76
5045	53592	Amy will no longer be here so I will be the only one working on this.	Amy will no longer be here so I will be the only one working on this.	2547777	1471986599828	1471986599924	 	32
5045	53592	Amy will no longer be here so I will be the only one working on this.	Amy will no longer be here so I will be the only one working on this.	2547790	1471986600156	1471986600229	n	78
5045	53592	Amy will no longer be here so I will be the only one working on this.	Amy will no longer be here so I will be the only one working on this.	2547791	1471986600333	1471986600420	o	79
5045	53592	Amy will no longer be here so I will be the only one working on this.	Amy will no longer be here so I will be the only one working on this.	2547792	1471986600476	1471986600564	 	32
5045	53592	Amy will no longer be here so I will be the only one working on this.	Amy will no longer be here so I will be the only one working on this.	2547793	1471986600580	1471986600661	l	76
5045	53592	Amy will no longer be here so I will be the only one working on this.	Amy will no longer be here so I will be the only one working on this.	2547794	1471986600772	1471986600860	o	79
5045	53592	Amy will no longer be here so I will be the only one working on this.	Amy will no longer be here so I will be the only one working on this.	2547819	1471986600956	1471986601076	n	78
5045	53592	Amy will no longer be here so I will be the only one working on this.	Amy will no longer be here so I will be the only one working on this.	2547822	1471986601172	1471986601301	g	71
5045	53592	Amy will no longer be here so I will be the only one working on this.	Amy will no longer be here so I will be the only one working on this.	2547825	1471986601412	1471986601548	e	69
5045	53592	Amy will no longer be here so I will be the only one working on this.	Amy will no longer be here so I will be the only one working on this.	2547828	1471986601476	1471986601620	r	82
5045	53592	Amy will no longer be here so I will be the only one working on this.	Amy will no longer be here so I will be the only one working on this.	2547831	1471986602028	1471986602100	 	32
5045	53592	Amy will no longer be here so I will be the only one working on this.	Amy will no longer be here so I will be the only one working on this.	2547852	1471986602524	1471986602628	b	66
5045	53592	Amy will no longer be here so I will be the only one working on this.	Amy will no longer be here so I will be the only one working on this.	2547854	1471986602620	1471986602740	e	69
5045	53592	Amy will no longer be here so I will be the only one working on this.	Amy will no longer be here so I will be the only one working on this.	2547856	1471986602700	1471986602820	 	32
5045	53592	Amy will no longer be here so I will be the only one working on this.	Amy will no longer be here so I will be the only one working on this.	2547859	1471986602876	1471986602996	h	72
5045	53592	Amy will no longer be here so I will be the only one working on this.	Amy will no longer be here so I will be the only one working on this.	2547919	1471986602972	1471986603108	e	69
5045	53592	Amy will no longer be here so I will be the only one working on this.	Amy will no longer be here so I will be the only one working on this.	2547922	1471986603132	1471986603228	r	82
5045	53592	Amy will no longer be here so I will be the only one working on this.	Amy will no longer be here so I will be the only one working on this.	2547926	1471986603236	1471986603364	e	69
5045	53592	Amy will no longer be here so I will be the only one working on this.	Amy will no longer be here so I will be the only one working on this.	2547930	1471986603788	1471986603876	 	32
5045	53592	Amy will no longer be here so I will be the only one working on this.	Amy will no longer be here so I will be the only one working on this.	2547933	1471986604556	1471986604652	s	83
5045	53592	Amy will no longer be here so I will be the only one working on this.	Amy will no longer be here so I will be the only one working on this.	2547956	1471986604620	1471986604716	o	79
5045	53592	Amy will no longer be here so I will be the only one working on this.	Amy will no longer be here so I will be the only one working on this.	2547960	1471986604764	1471986604884	 	32
5045	53592	Amy will no longer be here so I will be the only one working on this.	Amy will no longer be here so I will be the only one working on this.	2547967	1471986604876	1471986605052	SHIFT	16
5045	53592	Amy will no longer be here so I will be the only one working on this.	Amy will no longer be here so I will be the only one working on this.	2547964	1471986604940	1471986605044	I	73
5045	53592	Amy will no longer be here so I will be the only one working on this.	Amy will no longer be here so I will be the only one working on this.	2547971	1471986605100	1471986605188	 	32
5045	53592	Amy will no longer be here so I will be the only one working on this.	Amy will no longer be here so I will be the only one working on this.	2547975	1471986605228	1471986605348	w	87
5045	53592	Amy will no longer be here so I will be the only one working on this.	Amy will no longer be here so I will be the only one working on this.	2547976	1471986605380	1471986605460	i	73
5045	53592	Amy will no longer be here so I will be the only one working on this.	Amy will no longer be here so I will be the only one working on this.	2548001	1471986605604	1471986605692	l	76
5045	53592	Amy will no longer be here so I will be the only one working on this.	Amy will no longer be here so I will be the only one working on this.	2548002	1471986605749	1471986605836	l	76
5045	53592	Amy will no longer be here so I will be the only one working on this.	Amy will no longer be here so I will be the only one working on this.	2548003	1471986605892	1471986605980	 	32
5045	53592	Amy will no longer be here so I will be the only one working on this.	Amy will no longer be here so I will be the only one working on this.	2548004	1471986606525	1471986606605	b	66
5045	53592	Amy will no longer be here so I will be the only one working on this.	Amy will no longer be here so I will be the only one working on this.	2548007	1471986606820	1471986606916	e	69
5045	53592	Amy will no longer be here so I will be the only one working on this.	Amy will no longer be here so I will be the only one working on this.	2548033	1471986606908	1471986607013	 	32
5045	53592	Amy will no longer be here so I will be the only one working on this.	Amy will no longer be here so I will be the only one working on this.	2548034	1471986607113	1471986607197	t	84
5045	53592	Amy will no longer be here so I will be the only one working on this.	Amy will no longer be here so I will be the only one working on this.	2548036	1471986607292	1471986607404	h	72
5045	53592	Amy will no longer be here so I will be the only one working on this.	Amy will no longer be here so I will be the only one working on this.	2548038	1471986607363	1471986607469	e	69
5045	53592	Amy will no longer be here so I will be the only one working on this.	Amy will no longer be here so I will be the only one working on this.	2548040	1471986607508	1471986607564	 	32
5045	53592	Amy will no longer be here so I will be the only one working on this.	Amy will no longer be here so I will be the only one working on this.	2548042	1471986608188	1471986608268	o	79
5045	53592	Amy will no longer be here so I will be the only one working on this.	Amy will no longer be here so I will be the only one working on this.	2548089	1471986608372	1471986608452	n	78
5045	53592	Amy will no longer be here so I will be the only one working on this.	Amy will no longer be here so I will be the only one working on this.	2548092	1471986608548	1471986608676	l	76
5045	53592	Amy will no longer be here so I will be the only one working on this.	Amy will no longer be here so I will be the only one working on this.	2548096	1471986608756	1471986608829	y	89
5045	53592	Amy will no longer be here so I will be the only one working on this.	Amy will no longer be here so I will be the only one working on this.	2548098	1471986609748	1471986609828	 	32
5045	53592	Amy will no longer be here so I will be the only one working on this.	Amy will no longer be here so I will be the only one working on this.	2548100	1471986610316	1471986610404	o	79
5045	53592	Amy will no longer be here so I will be the only one working on this.	Amy will no longer be here so I will be the only one working on this.	2548138	1471986610756	1471986610828	n	78
5045	53592	Amy will no longer be here so I will be the only one working on this.	Amy will no longer be here so I will be the only one working on this.	2548141	1471986610868	1471986610948	e	69
5045	53592	Amy will no longer be here so I will be the only one working on this.	Amy will no longer be here so I will be the only one working on this.	2548144	1471986611004	1471986611100	 	32
5045	53592	Amy will no longer be here so I will be the only one working on this.	Amy will no longer be here so I will be the only one working on this.	2548147	1471986611132	1471986611244	w	87
5045	53592	Amy will no longer be here so I will be the only one working on this.	Amy will no longer be here so I will be the only one working on this.	2548150	1471986611812	1471986611900	o	79
5045	53592	Amy will no longer be here so I will be the only one working on this.	Amy will no longer be here so I will be the only one working on this.	2548189	1471986612804	1471986612893	r	82
5045	53592	Amy will no longer be here so I will be the only one working on this.	Amy will no longer be here so I will be the only one working on this.	2548190	1471986612877	1471986612973	k	75
5045	53592	Amy will no longer be here so I will be the only one working on this.	Amy will no longer be here so I will be the only one working on this.	2548192	1471986613053	1471986613111	i	73
5045	53592	Amy will no longer be here so I will be the only one working on this.	Amy will no longer be here so I will be the only one working on this.	2548194	1471986613245	1471986613341	n	78
5045	53592	Amy will no longer be here so I will be the only one working on this.	Amy will no longer be here so I will be the only one working on this.	2548196	1471986613357	1471986613453	g	71
5045	53592	Amy will no longer be here so I will be the only one working on this.	Amy will no longer be here so I will be the only one working on this.	2548237	1471986613517	1471986613620	 	32
5045	53592	Amy will no longer be here so I will be the only one working on this.	Amy will no longer be here so I will be the only one working on this.	2548238	1471986614156	1471986614244	o	79
5045	53592	Amy will no longer be here so I will be the only one working on this.	Amy will no longer be here so I will be the only one working on this.	2548240	1471986614356	1471986614460	n	78
5045	53592	Amy will no longer be here so I will be the only one working on this.	Amy will no longer be here so I will be the only one working on this.	2548242	1471986614500	1471986614564	 	32
5045	53592	Amy will no longer be here so I will be the only one working on this.	Amy will no longer be here so I will be the only one working on this.	2548244	1471986614620	1471986614692	t	84
5045	53592	Amy will no longer be here so I will be the only one working on this.	Amy will no longer be here so I will be the only one working on this.	2548285	1471986614821	1471986614900	h	72
5045	53592	Amy will no longer be here so I will be the only one working on this.	Amy will no longer be here so I will be the only one working on this.	2548291	1471986614972	1471986615068	i	73
5045	53592	Amy will no longer be here so I will be the only one working on this.	Amy will no longer be here so I will be the only one working on this.	2548294	1471986615140	1471986615252	s	83
5045	53592	Amy will no longer be here so I will be the only one working on this.	Amy will no longer be here so I will be the only one working on this.	2548295	1471986615484	1471986615564	.	190
5045	53609	They have capacity now.	They have capacity now.	2548500	1471986621732	1471986621860	SHIFT	16
5045	53609	They have capacity now.	They have capacity now.	2548502	1471986621796	1471986621868	T	84
5045	53609	They have capacity now.	They have capacity now.	2548504	1471986621964	1471986622076	h	72
5045	53609	They have capacity now.	They have capacity now.	2548506	1471986622156	1471986622196	y	69
5045	53609	They have capacity now.	They have capacity now.	2548509	1471986623204	1471986623292	 	32
5045	53609	They have capacity now.	They have capacity now.	2548524	1471986623421	1471986623524	h	72
5045	53609	They have capacity now.	They have capacity now.	2548529	1471986623508	1471986623636	a	65
5045	53609	They have capacity now.	They have capacity now.	2548532	1471986623588	1471986623668	v	86
5045	53609	They have capacity now.	They have capacity now.	2548535	1471986623708	1471986623812	e	69
5045	53609	They have capacity now.	They have capacity now.	2548563	1471986623773	1471986623861	 	32
5045	53609	They have capacity now.	They have capacity now.	2548565	1471986624140	1471986624300	c	67
5045	53609	They have capacity now.	They have capacity now.	2548570	1471986624324	1471986624428	a	65
5045	53609	They have capacity now.	They have capacity now.	2548574	1471986624396	1471986624492	p	80
5045	53609	They have capacity now.	They have capacity now.	2548576	1471986624532	1471986624629	a	65
5045	53609	They have capacity now.	They have capacity now.	2548580	1471986624892	1471986624996	c	67
5045	53609	They have capacity now.	They have capacity now.	2548627	1471986624973	1471986625070	i	73
5045	53609	They have capacity now.	They have capacity now.	2548629	1471986625132	1471986625228	t	84
5045	53609	They have capacity now.	They have capacity now.	2548633	1471986625193	1471986625276	y	89
5045	53609	They have capacity now.	They have capacity now.	2548636	1471986626548	1471986626644	 	32
5045	53609	They have capacity now.	They have capacity now.	2548637	1471986626892	1471986626988	n	78
5045	53609	They have capacity now.	They have capacity now.	2548638	1471986627100	1471986627196	o	79
5045	53609	They have capacity now.	They have capacity now.	2548650	1471986627540	1471986627636	w	87
5045	53609	They have capacity now.	They have capacity now.	2548652	1471986627668	1471986627748	.	190
5045	53618	As soon as anyone does that they can get nailed.	As soon as anyone does that they can get nailed.	2548762	1471986630940	1471986631220	SHIFT	16
5045	53618	As soon as anyone does that they can get nailed.	As soon as anyone does that they can get nailed.	2548763	1471986631108	1471986631244	A	65
5045	53618	As soon as anyone does that they can get nailed.	As soon as anyone does that they can get nailed.	2548766	1471986631284	1471986631396	s	83
5045	53618	As soon as anyone does that they can get nailed.	As soon as anyone does that they can get nailed.	2548768	1471986631372	1471986631460	 	32
5045	53618	As soon as anyone does that they can get nailed.	As soon as anyone does that they can get nailed.	2548770	1471986631532	1471986631644	s	83
5045	53618	As soon as anyone does that they can get nailed.	As soon as anyone does that they can get nailed.	2548772	1471986631700	1471986631764	o	79
5045	53618	As soon as anyone does that they can get nailed.	As soon as anyone does that they can get nailed.	2548804	1471986631884	1471986631908	o	79
5045	53618	As soon as anyone does that they can get nailed.	As soon as anyone does that they can get nailed.	2548805	1471986632980	1471986633068	n	78
5045	53618	As soon as anyone does that they can get nailed.	As soon as anyone does that they can get nailed.	2548806	1471986633164	1471986633228	 	32
5045	53618	As soon as anyone does that they can get nailed.	As soon as anyone does that they can get nailed.	2548808	1471986633364	1471986633484	a	65
5045	53618	As soon as anyone does that they can get nailed.	As soon as anyone does that they can get nailed.	2548812	1471986633492	1471986633620	s	83
5045	53618	As soon as anyone does that they can get nailed.	As soon as anyone does that they can get nailed.	2548868	1471986633652	1471986633709	 	32
5045	53618	As soon as anyone does that they can get nailed.	As soon as anyone does that they can get nailed.	2548869	1471986634476	1471986634612	a	65
5045	53618	As soon as anyone does that they can get nailed.	As soon as anyone does that they can get nailed.	2548870	1471986634588	1471986634684	n	78
5045	53618	As soon as anyone does that they can get nailed.	As soon as anyone does that they can get nailed.	2548871	1471986634780	1471986634868	y	89
5045	53618	As soon as anyone does that they can get nailed.	As soon as anyone does that they can get nailed.	2548872	1471986635044	1471986635164	o	79
5045	53618	As soon as anyone does that they can get nailed.	As soon as anyone does that they can get nailed.	2548929	1471986635548	1471986635620	n	78
5045	53618	As soon as anyone does that they can get nailed.	As soon as anyone does that they can get nailed.	2548933	1471986635684	1471986635756	e	69
5045	53618	As soon as anyone does that they can get nailed.	As soon as anyone does that they can get nailed.	2548937	1471986635748	1471986635804	 	32
5045	53618	As soon as anyone does that they can get nailed.	As soon as anyone does that they can get nailed.	2548941	1471986636388	1471986636492	d	68
5045	53618	As soon as anyone does that they can get nailed.	As soon as anyone does that they can get nailed.	2548995	1471986636460	1471986636548	o	79
5045	53618	As soon as anyone does that they can get nailed.	As soon as anyone does that they can get nailed.	2549000	1471986636604	1471986636684	e	69
5045	53618	As soon as anyone does that they can get nailed.	As soon as anyone does that they can get nailed.	2549004	1471986636820	1471986636940	s	83
5045	53618	As soon as anyone does that they can get nailed.	As soon as anyone does that they can get nailed.	2549009	1471986636924	1471986636980	 	32
5045	53618	As soon as anyone does that they can get nailed.	As soon as anyone does that they can get nailed.	2549013	1471986637684	1471986637764	t	84
5045	53618	As soon as anyone does that they can get nailed.	As soon as anyone does that they can get nailed.	2549016	1471986637876	1471986637988	h	72
5045	53618	As soon as anyone does that they can get nailed.	As soon as anyone does that they can get nailed.	2549050	1471986638380	1471986638500	a	65
5045	53618	As soon as anyone does that they can get nailed.	As soon as anyone does that they can get nailed.	2549054	1471986638476	1471986638556	t	84
5045	53618	As soon as anyone does that they can get nailed.	As soon as anyone does that they can get nailed.	2549057	1471986638652	1471986638732	 	32
5045	53618	As soon as anyone does that they can get nailed.	As soon as anyone does that they can get nailed.	2549064	1471986638932	1471986638996	t	84
5045	53618	As soon as anyone does that they can get nailed.	As soon as anyone does that they can get nailed.	2549068	1471986639124	1471986639236	h	72
5045	53618	As soon as anyone does that they can get nailed.	As soon as anyone does that they can get nailed.	2549103	1471986639220	1471986639332	e	69
5045	53618	As soon as anyone does that they can get nailed.	As soon as anyone does that they can get nailed.	2549105	1471986639324	1471986639412	y	89
5045	53618	As soon as anyone does that they can get nailed.	As soon as anyone does that they can get nailed.	2549108	1471986639500	1471986639580	 	32
5045	53618	As soon as anyone does that they can get nailed.	As soon as anyone does that they can get nailed.	2549110	1471986640420	1471986640556	c	67
5045	53618	As soon as anyone does that they can get nailed.	As soon as anyone does that they can get nailed.	2549112	1471986640596	1471986640764	a	65
5045	53618	As soon as anyone does that they can get nailed.	As soon as anyone does that they can get nailed.	2549114	1471986640780	1471986640868	n	78
5045	53618	As soon as anyone does that they can get nailed.	As soon as anyone does that they can get nailed.	2549131	1471986640948	1471986641044	 	32
5045	53618	As soon as anyone does that they can get nailed.	As soon as anyone does that they can get nailed.	2549132	1471986641116	1471986641236	g	71
5045	53618	As soon as anyone does that they can get nailed.	As soon as anyone does that they can get nailed.	2549133	1471986641244	1471986641355	e	69
5045	53618	As soon as anyone does that they can get nailed.	As soon as anyone does that they can get nailed.	2549134	1471986641348	1471986641444	t	84
5045	53618	As soon as anyone does that they can get nailed.	As soon as anyone does that they can get nailed.	2549136	1471986641516	1471986641620	 	32
5045	53618	As soon as anyone does that they can get nailed.	As soon as anyone does that they can get nailed.	2549197	1471986642212	1471986642324	n	78
5045	53618	As soon as anyone does that they can get nailed.	As soon as anyone does that they can get nailed.	2549199	1471986642316	1471986642436	a	65
5045	53618	As soon as anyone does that they can get nailed.	As soon as anyone does that they can get nailed.	2549201	1471986642396	1471986642484	i	73
5045	53618	As soon as anyone does that they can get nailed.	As soon as anyone does that they can get nailed.	2549202	1471986642588	1471986642716	l	76
5045	53618	As soon as anyone does that they can get nailed.	As soon as anyone does that they can get nailed.	2549204	1471986642948	1471986643052	e	69
5045	53618	As soon as anyone does that they can get nailed.	As soon as anyone does that they can get nailed.	2549243	1471986643172	1471986643300	d	68
5045	53618	As soon as anyone does that they can get nailed.	As soon as anyone does that they can get nailed.	2549246	1471986643339	1471986643420	.	190
5045	53629	Is that enough for this week?	Is that enough for this week?	2549385	1471986647828	1471986647932	SHIFT	16
5045	53629	Is that enough for this week?	Is that enough for this week?	2549387	1471986647892	1471986647972	I	73
5045	53629	Is that enough for this week?	Is that enough for this week?	2549390	1471986648204	1471986648316	s	83
5045	53629	Is that enough for this week?	Is that enough for this week?	2549392	1471986648292	1471986648356	 	32
5045	53629	Is that enough for this week?	Is that enough for this week?	2549394	1471986648596	1471986648692	t	84
5045	53629	Is that enough for this week?	Is that enough for this week?	2549396	1471986648804	1471986648907	h	72
5045	53629	Is that enough for this week?	Is that enough for this week?	2549434	1471986648892	1471986648988	a	65
5045	53629	Is that enough for this week?	Is that enough for this week?	2549436	1471986648972	1471986649068	t	84
5045	53629	Is that enough for this week?	Is that enough for this week?	2549437	1471986649156	1471986649252	 	32
5045	53629	Is that enough for this week?	Is that enough for this week?	2549438	1471986649508	1471986649604	e	69
5045	53629	Is that enough for this week?	Is that enough for this week?	2549439	1471986649588	1471986649676	n	78
5045	53629	Is that enough for this week?	Is that enough for this week?	2549441	1471986649884	1471986649988	o	79
5045	53629	Is that enough for this week?	Is that enough for this week?	2549483	1471986650076	1471986650156	u	85
5045	53629	Is that enough for this week?	Is that enough for this week?	2549485	1471986650308	1471986650404	g	71
5045	53629	Is that enough for this week?	Is that enough for this week?	2549486	1471986650484	1471986650572	h	72
5045	53629	Is that enough for this week?	Is that enough for this week?	2549487	1471986650620	1471986650716	 	32
5045	53629	Is that enough for this week?	Is that enough for this week?	2549488	1471986651012	1471986651116	f	70
5045	53629	Is that enough for this week?	Is that enough for this week?	2549525	1471986651068	1471986651147	o	79
5045	53629	Is that enough for this week?	Is that enough for this week?	2549528	1471986651236	1471986651326	r	82
5045	53629	Is that enough for this week?	Is that enough for this week?	2549531	1471986651280	1471986651332	 	32
5045	53629	Is that enough for this week?	Is that enough for this week?	2549533	1471986651508	1471986651572	t	84
5045	53629	Is that enough for this week?	Is that enough for this week?	2549535	1471986651708	1471986651780	h	72
5045	53629	Is that enough for this week?	Is that enough for this week?	2549537	1471986651892	1471986652004	i	73
5045	53629	Is that enough for this week?	Is that enough for this week?	2549583	1471986651996	1471986652099	s	83
5045	53629	Is that enough for this week?	Is that enough for this week?	2549585	1471986652116	1471986652196	 	32
5045	53629	Is that enough for this week?	Is that enough for this week?	2549587	1471986653060	1471986653148	w	87
5045	53629	Is that enough for this week?	Is that enough for this week?	2549588	1471986653252	1471986653348	e	69
5045	53629	Is that enough for this week?	Is that enough for this week?	2549589	1471986653452	1471986653548	e	69
5045	53629	Is that enough for this week?	Is that enough for this week?	2549625	1471986653540	1471986653612	k	75
5045	53629	Is that enough for this week?	Is that enough for this week?	2549631	1471986653763	1471986654179	SHIFT	16
5045	53629	Is that enough for this week?	Is that enough for this week?	2549629	1471986654060	1471986654148	?	191
5045	53641	Rookie Kevin Swayne will move into the starting lineup.	Rookie Kevin Swayne will move into the starting lineup.	2549850	1471986657245	1471986657804	SHIFT	16
5045	53641	Rookie Kevin Swayne will move into the starting lineup.	Rookie Kevin Swayne will move into the starting lineup.	2549853	1471986657684	1471986657811	R	82
5045	53641	Rookie Kevin Swayne will move into the starting lineup.	Rookie Kevin Swayne will move into the starting lineup.	2549857	1471986658236	1471986658323	o	79
5045	53641	Rookie Kevin Swayne will move into the starting lineup.	Rookie Kevin Swayne will move into the starting lineup.	2549861	1471986658419	1471986658492	o	79
5045	53641	Rookie Kevin Swayne will move into the starting lineup.	Rookie Kevin Swayne will move into the starting lineup.	2549865	1471986658603	1471986658716	k	75
5045	53641	Rookie Kevin Swayne will move into the starting lineup.	Rookie Kevin Swayne will move into the starting lineup.	2549870	1471986658804	1471986658875	i	73
5045	53641	Rookie Kevin Swayne will move into the starting lineup.	Rookie Kevin Swayne will move into the starting lineup.	2549957	1471986659284	1471986659387	e	69
5045	53641	Rookie Kevin Swayne will move into the starting lineup.	Rookie Kevin Swayne will move into the starting lineup.	2549960	1471986659964	1471986660028	 	32
5045	53641	Rookie Kevin Swayne will move into the starting lineup.	Rookie Kevin Swayne will move into the starting lineup.	2549966	1471986660380	1471986660668	SHIFT	16
5045	53641	Rookie Kevin Swayne will move into the starting lineup.	Rookie Kevin Swayne will move into the starting lineup.	2549963	1471986660581	1471986660660	K	75
5045	53641	Rookie Kevin Swayne will move into the starting lineup.	Rookie Kevin Swayne will move into the starting lineup.	2549968	1471986660684	1471986660812	e	69
5045	53641	Rookie Kevin Swayne will move into the starting lineup.	Rookie Kevin Swayne will move into the starting lineup.	2549970	1471986661836	1471986661916	v	86
5045	53641	Rookie Kevin Swayne will move into the starting lineup.	Rookie Kevin Swayne will move into the starting lineup.	2550060	1471986661892	1471986662028	i	73
5045	53641	Rookie Kevin Swayne will move into the starting lineup.	Rookie Kevin Swayne will move into the starting lineup.	2550062	1471986662076	1471986662172	n	78
5045	53641	Rookie Kevin Swayne will move into the starting lineup.	Rookie Kevin Swayne will move into the starting lineup.	2550066	1471986662300	1471986662380	 	32
5045	53641	Rookie Kevin Swayne will move into the starting lineup.	Rookie Kevin Swayne will move into the starting lineup.	2550068	1471986662844	1471986663092	SHIFT	16
5045	53641	Rookie Kevin Swayne will move into the starting lineup.	Rookie Kevin Swayne will move into the starting lineup.	2550071	1471986663012	1471986663155	S	83
5045	53641	Rookie Kevin Swayne will move into the starting lineup.	Rookie Kevin Swayne will move into the starting lineup.	2550073	1471986663260	1471986663364	w	87
5045	53641	Rookie Kevin Swayne will move into the starting lineup.	Rookie Kevin Swayne will move into the starting lineup.	2550074	1471986663836	1471986663964	a	65
5045	53641	Rookie Kevin Swayne will move into the starting lineup.	Rookie Kevin Swayne will move into the starting lineup.	2550138	1471986663924	1471986663999	y	89
5045	53641	Rookie Kevin Swayne will move into the starting lineup.	Rookie Kevin Swayne will move into the starting lineup.	2550140	1471986664276	1471986664410	n	78
5045	53641	Rookie Kevin Swayne will move into the starting lineup.	Rookie Kevin Swayne will move into the starting lineup.	2550142	1471986664396	1471986664532	e	69
5045	53641	Rookie Kevin Swayne will move into the starting lineup.	Rookie Kevin Swayne will move into the starting lineup.	2550145	1471986664924	1471986665012	 	32
5045	53641	Rookie Kevin Swayne will move into the starting lineup.	Rookie Kevin Swayne will move into the starting lineup.	2550148	1471986665324	1471986665446	w	87
5045	53641	Rookie Kevin Swayne will move into the starting lineup.	Rookie Kevin Swayne will move into the starting lineup.	2550152	1471986665540	1471986665612	u	85
5045	53641	Rookie Kevin Swayne will move into the starting lineup.	Rookie Kevin Swayne will move into the starting lineup.	2550207	1471986666340	1471986666452	BKSP	8
5045	53641	Rookie Kevin Swayne will move into the starting lineup.	Rookie Kevin Swayne will move into the starting lineup.	2550210	1471986666564	1471986666643	i	73
5045	53641	Rookie Kevin Swayne will move into the starting lineup.	Rookie Kevin Swayne will move into the starting lineup.	2550212	1471986666788	1471986666852	l	76
5045	53641	Rookie Kevin Swayne will move into the starting lineup.	Rookie Kevin Swayne will move into the starting lineup.	2550214	1471986666908	1471986666987	l	76
5045	53641	Rookie Kevin Swayne will move into the starting lineup.	Rookie Kevin Swayne will move into the starting lineup.	2550216	1471986667044	1471986667156	 	32
5045	53641	Rookie Kevin Swayne will move into the starting lineup.	Rookie Kevin Swayne will move into the starting lineup.	2550250	1471986667108	1471986667228	m	77
5045	53641	Rookie Kevin Swayne will move into the starting lineup.	Rookie Kevin Swayne will move into the starting lineup.	2550251	1471986667284	1471986667446	o	79
5045	53641	Rookie Kevin Swayne will move into the starting lineup.	Rookie Kevin Swayne will move into the starting lineup.	2550252	1471986667548	1471986667644	v	86
5045	53641	Rookie Kevin Swayne will move into the starting lineup.	Rookie Kevin Swayne will move into the starting lineup.	2550253	1471986667652	1471986667796	e	69
5045	53641	Rookie Kevin Swayne will move into the starting lineup.	Rookie Kevin Swayne will move into the starting lineup.	2550254	1471986667820	1471986667892	 	32
5045	53641	Rookie Kevin Swayne will move into the starting lineup.	Rookie Kevin Swayne will move into the starting lineup.	2550255	1471986668484	1471986668588	i	73
5045	53641	Rookie Kevin Swayne will move into the starting lineup.	Rookie Kevin Swayne will move into the starting lineup.	2550309	1471986668740	1471986668891	n	78
5045	53641	Rookie Kevin Swayne will move into the starting lineup.	Rookie Kevin Swayne will move into the starting lineup.	2550311	1471986668931	1471986669044	t	84
5045	53641	Rookie Kevin Swayne will move into the starting lineup.	Rookie Kevin Swayne will move into the starting lineup.	2550312	1471986669004	1471986669132	o	79
5045	53641	Rookie Kevin Swayne will move into the starting lineup.	Rookie Kevin Swayne will move into the starting lineup.	2550313	1471986669236	1471986669324	 	32
5045	53641	Rookie Kevin Swayne will move into the starting lineup.	Rookie Kevin Swayne will move into the starting lineup.	2550314	1471986670580	1471986670668	t	84
5045	53641	Rookie Kevin Swayne will move into the starting lineup.	Rookie Kevin Swayne will move into the starting lineup.	2550368	1471986670796	1471986670924	h	72
5045	53641	Rookie Kevin Swayne will move into the starting lineup.	Rookie Kevin Swayne will move into the starting lineup.	2550373	1471986670915	1471986671020	e	69
5045	53641	Rookie Kevin Swayne will move into the starting lineup.	Rookie Kevin Swayne will move into the starting lineup.	2550378	1471986670988	1471986671068	 	32
5045	53641	Rookie Kevin Swayne will move into the starting lineup.	Rookie Kevin Swayne will move into the starting lineup.	2550384	1471986671507	1471986671636	s	83
5045	53641	Rookie Kevin Swayne will move into the starting lineup.	Rookie Kevin Swayne will move into the starting lineup.	2550388	1471986671803	1471986671908	t	84
5045	53641	Rookie Kevin Swayne will move into the starting lineup.	Rookie Kevin Swayne will move into the starting lineup.	2550412	1471986671932	1471986672075	a	65
5045	53641	Rookie Kevin Swayne will move into the starting lineup.	Rookie Kevin Swayne will move into the starting lineup.	2550414	1471986672036	1471986672116	r	82
5045	53641	Rookie Kevin Swayne will move into the starting lineup.	Rookie Kevin Swayne will move into the starting lineup.	2550416	1471986672195	1471986672299	t	84
5045	53641	Rookie Kevin Swayne will move into the starting lineup.	Rookie Kevin Swayne will move into the starting lineup.	2550419	1471986672572	1471986672668	i	73
5045	53641	Rookie Kevin Swayne will move into the starting lineup.	Rookie Kevin Swayne will move into the starting lineup.	2550422	1471986672796	1471986672902	n	78
5045	53641	Rookie Kevin Swayne will move into the starting lineup.	Rookie Kevin Swayne will move into the starting lineup.	2550496	1471986673004	1471986673100	g	71
5045	53641	Rookie Kevin Swayne will move into the starting lineup.	Rookie Kevin Swayne will move into the starting lineup.	2550500	1471986673179	1471986673252	 	32
5045	53641	Rookie Kevin Swayne will move into the starting lineup.	Rookie Kevin Swayne will move into the starting lineup.	2550502	1471986673837	1471986673965	l	76
5045	53641	Rookie Kevin Swayne will move into the starting lineup.	Rookie Kevin Swayne will move into the starting lineup.	2550505	1471986674028	1471986674125	i	73
5045	53641	Rookie Kevin Swayne will move into the starting lineup.	Rookie Kevin Swayne will move into the starting lineup.	2550506	1471986674260	1471986674380	n	78
5045	53641	Rookie Kevin Swayne will move into the starting lineup.	Rookie Kevin Swayne will move into the starting lineup.	2550523	1471986674388	1471986674524	e	69
5045	53641	Rookie Kevin Swayne will move into the starting lineup.	Rookie Kevin Swayne will move into the starting lineup.	2550525	1471986674549	1471986674652	u	85
5045	53641	Rookie Kevin Swayne will move into the starting lineup.	Rookie Kevin Swayne will move into the starting lineup.	2550528	1471986674772	1471986674892	p	80
5045	53641	Rookie Kevin Swayne will move into the starting lineup.	Rookie Kevin Swayne will move into the starting lineup.	2550530	1471986675140	1471986675228	.	190
