PARTICIPANT_ID	TEST_SECTION_ID	SENTENCE	USER_INPUT	KEYSTROKE_ID	PRESS_TIME	RELEASE_TIME	LETTER	KEYCODE
5155	54604	The dollar lost ground against the major currencies.	The dollar lost ground against the major currencies.	2596097	1471987641115	1471987641435	SHIFT	16
5155	54604	The dollar lost ground against the major currencies.	The dollar lost ground against the major currencies.	2596103	1471987641377	1471987641498	T	84
5155	54604	The dollar lost ground against the major currencies.	The dollar lost ground against the major currencies.	2596106	1471987641455	1471987641602	h	72
5155	54604	The dollar lost ground against the major currencies.	The dollar lost ground against the major currencies.	2596109	1471987641578	1471987641703	e	69
5155	54604	The dollar lost ground against the major currencies.	The dollar lost ground against the major currencies.	2596111	1471987641661	1471987641781	 	32
5155	54604	The dollar lost ground against the major currencies.	The dollar lost ground against the major currencies.	2596114	1471987641821	1471987641978	d	68
5155	54604	The dollar lost ground against the major currencies.	The dollar lost ground against the major currencies.	2596128	1471987641978	1471987642042	o	79
5155	54604	The dollar lost ground against the major currencies.	The dollar lost ground against the major currencies.	2596131	1471987642174	1471987642194	l	76
5155	54604	The dollar lost ground against the major currencies.	The dollar lost ground against the major currencies.	2596136	1471987642240	1471987642361	l	76
5155	54604	The dollar lost ground against the major currencies.	The dollar lost ground against the major currencies.	2596141	1471987642341	1471987642464	a	65
5155	54604	The dollar lost ground against the major currencies.	The dollar lost ground against the major currencies.	2596144	1471987642440	1471987642566	r	82
5155	54604	The dollar lost ground against the major currencies.	The dollar lost ground against the major currencies.	2596188	1471987642501	1471987642623	 	32
5155	54604	The dollar lost ground against the major currencies.	The dollar lost ground against the major currencies.	2596192	1471987642683	1471987642815	l	76
5155	54604	The dollar lost ground against the major currencies.	The dollar lost ground against the major currencies.	2596199	1471987642902	1471987643002	o	79
5155	54604	The dollar lost ground against the major currencies.	The dollar lost ground against the major currencies.	2596204	1471987643006	1471987643130	s	83
5155	54604	The dollar lost ground against the major currencies.	The dollar lost ground against the major currencies.	2596208	1471987643126	1471987643228	t	84
5155	54604	The dollar lost ground against the major currencies.	The dollar lost ground against the major currencies.	2596210	1471987643258	1471987643381	 	32
5155	54604	The dollar lost ground against the major currencies.	The dollar lost ground against the major currencies.	2596240	1471987643464	1471987643569	g	71
5155	54604	The dollar lost ground against the major currencies.	The dollar lost ground against the major currencies.	2596241	1471987643642	1471987643747	r	82
5155	54604	The dollar lost ground against the major currencies.	The dollar lost ground against the major currencies.	2596244	1471987643723	1471987643890	o	79
5155	54604	The dollar lost ground against the major currencies.	The dollar lost ground against the major currencies.	2596247	1471987643866	1471987643949	u	85
5155	54604	The dollar lost ground against the major currencies.	The dollar lost ground against the major currencies.	2596253	1471987644040	1471987644181	n	78
5155	54604	The dollar lost ground against the major currencies.	The dollar lost ground against the major currencies.	2596288	1471987644141	1471987644273	d	68
5155	54604	The dollar lost ground against the major currencies.	The dollar lost ground against the major currencies.	2596294	1471987644269	1471987644363	 	32
5155	54604	The dollar lost ground against the major currencies.	The dollar lost ground against the major currencies.	2596299	1471987644343	1471987644464	a	65
5155	54604	The dollar lost ground against the major currencies.	The dollar lost ground against the major currencies.	2596304	1471987644503	1471987644644	g	71
5155	54604	The dollar lost ground against the major currencies.	The dollar lost ground against the major currencies.	2596309	1471987644664	1471987644785	a	65
5155	54604	The dollar lost ground against the major currencies.	The dollar lost ground against the major currencies.	2596315	1471987644807	1471987644892	i	73
5155	54604	The dollar lost ground against the major currencies.	The dollar lost ground against the major currencies.	2596334	1471987644949	1471987645091	n	78
5155	54604	The dollar lost ground against the major currencies.	The dollar lost ground against the major currencies.	2596338	1471987645036	1471987645172	s	83
5155	54604	The dollar lost ground against the major currencies.	The dollar lost ground against the major currencies.	2596345	1471987645153	1471987645275	t	84
5155	54604	The dollar lost ground against the major currencies.	The dollar lost ground against the major currencies.	2596351	1471987645275	1471987645378	 	32
5155	54604	The dollar lost ground against the major currencies.	The dollar lost ground against the major currencies.	2596378	1471987645375	1471987645477	t	84
5155	54604	The dollar lost ground against the major currencies.	The dollar lost ground against the major currencies.	2596380	1471987645457	1471987645557	h	72
5155	54604	The dollar lost ground against the major currencies.	The dollar lost ground against the major currencies.	2596384	1471987645539	1471987645659	e	69
5155	54604	The dollar lost ground against the major currencies.	The dollar lost ground against the major currencies.	2596386	1471987645619	1471987645741	 	32
5155	54604	The dollar lost ground against the major currencies.	The dollar lost ground against the major currencies.	2596389	1471987645773	1471987645911	m	77
5155	54604	The dollar lost ground against the major currencies.	The dollar lost ground against the major currencies.	2596426	1471987645873	1471987645994	a	65
5155	54604	The dollar lost ground against the major currencies.	The dollar lost ground against the major currencies.	2596431	1471987646025	1471987646126	j	74
5155	54604	The dollar lost ground against the major currencies.	The dollar lost ground against the major currencies.	2596437	1471987646157	1471987646298	o	79
5155	54604	The dollar lost ground against the major currencies.	The dollar lost ground against the major currencies.	2596445	1471987646278	1471987646380	r	82
5155	54604	The dollar lost ground against the major currencies.	The dollar lost ground against the major currencies.	2596453	1471987646380	1471987646502	 	32
5155	54604	The dollar lost ground against the major currencies.	The dollar lost ground against the major currencies.	2596459	1471987646537	1471987646640	c	67
5155	54604	The dollar lost ground against the major currencies.	The dollar lost ground against the major currencies.	2596485	1471987646660	1471987646740	u	85
5155	54604	The dollar lost ground against the major currencies.	The dollar lost ground against the major currencies.	2596494	1471987646775	1471987646858	r	82
5155	54604	The dollar lost ground against the major currencies.	The dollar lost ground against the major currencies.	2596502	1471987646932	1471987647035	r	82
5155	54604	The dollar lost ground against the major currencies.	The dollar lost ground against the major currencies.	2596508	1471987647035	1471987647177	e	69
5155	54604	The dollar lost ground against the major currencies.	The dollar lost ground against the major currencies.	2596575	1471987647157	1471987647278	n	78
5155	54604	The dollar lost ground against the major currencies.	The dollar lost ground against the major currencies.	2596583	1471987647258	1471987647381	c	67
5155	54604	The dollar lost ground against the major currencies.	The dollar lost ground against the major currencies.	2596587	1471987647401	1471987647503	i	73
5155	54604	The dollar lost ground against the major currencies.	The dollar lost ground against the major currencies.	2596598	1471987647772	1471987647932	e	69
5155	54604	The dollar lost ground against the major currencies.	The dollar lost ground against the major currencies.	2596606	1471987647981	1471987648025	s	83
5155	54604	The dollar lost ground against the major currencies.	The dollar lost ground against the major currencies.	2596613	1471987648102	1471987648221	.	190
5155	54623	Would you mind taking the lead on this?	Would you mind taking the lead on this?	2596823	1471987650736	1471987650979	SHIFT	16
5155	54623	Would you mind taking the lead on this?	Would you mind taking the lead on this?	2596831	1471987650897	1471987651060	W	87
5155	54623	Would you mind taking the lead on this?	Would you mind taking the lead on this?	2596828	1471987650959	1471987651060	O	79
5155	54623	Would you mind taking the lead on this?	Would you mind taking the lead on this?	2596835	1471987651092	1471987651194	u	85
5155	54623	Would you mind taking the lead on this?	Would you mind taking the lead on this?	2596838	1471987651248	1471987651412	l	76
5155	54623	Would you mind taking the lead on this?	Would you mind taking the lead on this?	2596957	1471987651350	1471987651512	d	68
5155	54623	Would you mind taking the lead on this?	Would you mind taking the lead on this?	2596960	1471987651532	1471987651612	 	32
5155	54623	Would you mind taking the lead on this?	Would you mind taking the lead on this?	2596965	1471987651791	1471987651874	BKSP	8
5155	54623	Would you mind taking the lead on this?	Would you mind taking the lead on this?	2596973	1471987651958	1471987652018	BKSP	8
5155	54623	Would you mind taking the lead on this?	Would you mind taking the lead on this?	2596977	1471987652106	1471987652166	BKSP	8
5155	54623	Would you mind taking the lead on this?	Would you mind taking the lead on this?	2596983	1471987652270	1471987652330	BKSP	8
5155	54623	Would you mind taking the lead on this?	Would you mind taking the lead on this?	2596990	1471987652410	1471987652450	BKSP	8
5155	54623	Would you mind taking the lead on this?	Would you mind taking the lead on this?	2596996	1471987652754	1471987652898	o	79
5155	54623	Would you mind taking the lead on this?	Would you mind taking the lead on this?	2597000	1471987652930	1471987653030	u	85
5155	54623	Would you mind taking the lead on this?	Would you mind taking the lead on this?	2597003	1471987653092	1471987653254	l	76
5155	54623	Would you mind taking the lead on this?	Would you mind taking the lead on this?	2597068	1471987653193	1471987653333	d	68
5155	54623	Would you mind taking the lead on this?	Would you mind taking the lead on this?	2597072	1471987653313	1471987653417	 	32
5155	54623	Would you mind taking the lead on this?	Would you mind taking the lead on this?	2597075	1471987653485	1471987653587	y	89
5155	54623	Would you mind taking the lead on this?	Would you mind taking the lead on this?	2597079	1471987653640	1471987653822	0	48
5155	54623	Would you mind taking the lead on this?	Would you mind taking the lead on this?	2597088	1471987653802	1471987653923	u	85
5155	54623	Would you mind taking the lead on this?	Would you mind taking the lead on this?	2597094	1471987654314	1471987654375	BKSP	8
5155	54623	Would you mind taking the lead on this?	Would you mind taking the lead on this?	2597101	1471987654473	1471987654532	BKSP	8
5155	54623	Would you mind taking the lead on this?	Would you mind taking the lead on this?	2597107	1471987654694	1471987654815	o	79
5155	54623	Would you mind taking the lead on this?	Would you mind taking the lead on this?	2597192	1471987654901	1471987654986	y	89
5155	54623	Would you mind taking the lead on this?	Would you mind taking the lead on this?	2597196	1471987655039	1471987655143	 	32
5155	54623	Would you mind taking the lead on this?	Would you mind taking the lead on this?	2597201	1471987655196	1471987655320	m	77
5155	54623	Would you mind taking the lead on this?	Would you mind taking the lead on this?	2597204	1471987655377	1471987655415	i	73
5155	54623	Would you mind taking the lead on this?	Would you mind taking the lead on this?	2597212	1471987655627	1471987655709	BKSP	8
5155	54623	Would you mind taking the lead on this?	Would you mind taking the lead on this?	2597217	1471987655791	1471987655873	BKSP	8
5155	54623	Would you mind taking the lead on this?	Would you mind taking the lead on this?	2597222	1471987655959	1471987656021	BKSP	8
5155	54623	Would you mind taking the lead on this?	Would you mind taking the lead on this?	2597226	1471987656107	1471987656165	BKSP	8
5155	54623	Would you mind taking the lead on this?	Would you mind taking the lead on this?	2597232	1471987656323	1471987656444	u	85
5155	54623	Would you mind taking the lead on this?	Would you mind taking the lead on this?	2597340	1471987656523	1471987656626	 	32
5155	54623	Would you mind taking the lead on this?	Would you mind taking the lead on this?	2597345	1471987656690	1471987656813	m	77
5155	54623	Would you mind taking the lead on this?	Would you mind taking the lead on this?	2597349	1471987657004	1471987657066	n	78
5155	54623	Would you mind taking the lead on this?	Would you mind taking the lead on this?	2597358	1471987657344	1471987657427	BKSP	8
5155	54623	Would you mind taking the lead on this?	Would you mind taking the lead on this?	2597364	1471987657595	1471987657694	i	73
5155	54623	Would you mind taking the lead on this?	Would you mind taking the lead on this?	2597372	1471987657792	1471987657891	n	78
5155	54623	Would you mind taking the lead on this?	Would you mind taking the lead on this?	2597412	1471987657871	1471987657995	d	68
5155	54623	Would you mind taking the lead on this?	Would you mind taking the lead on this?	2597416	1471987657975	1471987658118	 	32
5155	54623	Would you mind taking the lead on this?	Would you mind taking the lead on this?	2597420	1471987658118	1471987658195	t	84
5155	54623	Would you mind taking the lead on this?	Would you mind taking the lead on this?	2597423	1471987658242	1471987658385	a	65
5155	54623	Would you mind taking the lead on this?	Would you mind taking the lead on this?	2597426	1471987658345	1471987658425	k	75
5155	54623	Would you mind taking the lead on this?	Would you mind taking the lead on this?	2597429	1471987658496	1471987658579	i	73
5155	54623	Would you mind taking the lead on this?	Would you mind taking the lead on this?	2597456	1471987658659	1471987658803	n	78
5155	54623	Would you mind taking the lead on this?	Would you mind taking the lead on this?	2597460	1471987658823	1471987658903	g	71
5155	54623	Would you mind taking the lead on this?	Would you mind taking the lead on this?	2597462	1471987658923	1471987659028	 	32
5155	54623	Would you mind taking the lead on this?	Would you mind taking the lead on this?	2597463	1471987659024	1471987659125	t	84
5155	54623	Would you mind taking the lead on this?	Would you mind taking the lead on this?	2597544	1471987659105	1471987659205	h	72
5155	54623	Would you mind taking the lead on this?	Would you mind taking the lead on this?	2597551	1471987659189	1471987659308	e	69
5155	54623	Would you mind taking the lead on this?	Would you mind taking the lead on this?	2597557	1471987659288	1471987659409	 	32
5155	54623	Would you mind taking the lead on this?	Would you mind taking the lead on this?	2597558	1471987659461	1471987659523	t	84
5155	54623	Would you mind taking the lead on this?	Would you mind taking the lead on this?	2597562	1471987659744	1471987659828	BKSP	8
5155	54623	Would you mind taking the lead on this?	Would you mind taking the lead on this?	2597568	1471987660071	1471987660231	e	69
5155	54623	Would you mind taking the lead on this?	Would you mind taking the lead on this?	2597623	1471987660211	1471987660394	a	65
5155	54623	Would you mind taking the lead on this?	Would you mind taking the lead on this?	2597627	1471987660583	1471987660665	BKSP	8
5155	54623	Would you mind taking the lead on this?	Would you mind taking the lead on this?	2597631	1471987660749	1471987660811	BKSP	8
5155	54623	Would you mind taking the lead on this?	Would you mind taking the lead on this?	2597636	1471987661006	1471987661127	l	76
5155	54623	Would you mind taking the lead on this?	Would you mind taking the lead on this?	2597640	1471987661087	1471987661226	e	69
5155	54623	Would you mind taking the lead on this?	Would you mind taking the lead on this?	2597646	1471987661187	1471987661373	a	65
5155	54623	Would you mind taking the lead on this?	Would you mind taking the lead on this?	2597650	1471987661370	1471987661490	d	68
5155	54623	Would you mind taking the lead on this?	Would you mind taking the lead on this?	2597696	1471987661473	1471987661597	 	32
5155	54623	Would you mind taking the lead on this?	Would you mind taking the lead on this?	2597697	1471987661593	1471987661695	o	79
5155	54623	Would you mind taking the lead on this?	Would you mind taking the lead on this?	2597698	1471987661695	1471987661795	f	70
5155	54623	Would you mind taking the lead on this?	Would you mind taking the lead on this?	2597700	1471987661775	1471987661859	 	32
5155	54623	Would you mind taking the lead on this?	Would you mind taking the lead on this?	2597705	1471987662065	1471987662127	BKSP	8
5155	54623	Would you mind taking the lead on this?	Would you mind taking the lead on this?	2597714	1471987662229	1471987662288	BKSP	8
5155	54623	Would you mind taking the lead on this?	Would you mind taking the lead on this?	2597720	1471987662419	1471987662563	n	78
5155	54623	Would you mind taking the lead on this?	Would you mind taking the lead on this?	2597727	1471987662582	1471987662686	 	32
5155	54623	Would you mind taking the lead on this?	Would you mind taking the lead on this?	2597766	1471987662666	1471987662784	t	84
5155	54623	Would you mind taking the lead on this?	Would you mind taking the lead on this?	2597770	1471987662746	1471987662847	h	72
5155	54623	Would you mind taking the lead on this?	Would you mind taking the lead on this?	2597776	1471987662867	1471987662988	i	73
5155	54623	Would you mind taking the lead on this?	Would you mind taking the lead on this?	2597785	1471987662968	1471987663072	s	83
5155	54623	Would you mind taking the lead on this?	Would you mind taking the lead on this?	2597799	1471987663172	1471987663397	SHIFT	16
5155	54623	Would you mind taking the lead on this?	Would you mind taking the lead on this?	2597791	1471987663252	1471987663377	?	191
5155	54649	Sports fans here are excited.	Sports fans here are excited.	2598037	1471987666156	1471987666418	SHIFT	16
5155	54649	Sports fans here are excited.	Sports fans here are excited.	2598042	1471987666339	1471987666502	S	83
5155	54649	Sports fans here are excited.	Sports fans here are excited.	2598046	1471987666439	1471987666541	p	80
5155	54649	Sports fans here are excited.	Sports fans here are excited.	2598051	1471987666628	1471987666771	o	79
5155	54649	Sports fans here are excited.	Sports fans here are excited.	2598056	1471987666731	1471987666831	r	82
5155	54649	Sports fans here are excited.	Sports fans here are excited.	2598061	1471987666907	1471987667010	t	84
5155	54649	Sports fans here are excited.	Sports fans here are excited.	2598079	1471987667055	1471987667218	s	83
5155	54649	Sports fans here are excited.	Sports fans here are excited.	2598083	1471987667177	1471987667339	 	32
5155	54649	Sports fans here are excited.	Sports fans here are excited.	2598091	1471987667339	1471987667461	f	70
5155	54649	Sports fans here are excited.	Sports fans here are excited.	2598097	1471987667461	1471987667603	a	65
5155	54649	Sports fans here are excited.	Sports fans here are excited.	2598152	1471987667583	1471987667705	n	78
5155	54649	Sports fans here are excited.	Sports fans here are excited.	2598154	1471987667705	1471987667847	s	83
5155	54649	Sports fans here are excited.	Sports fans here are excited.	2598156	1471987667807	1471987667926	 	32
5155	54649	Sports fans here are excited.	Sports fans here are excited.	2598157	1471987668018	1471987668162	h	72
5155	54649	Sports fans here are excited.	Sports fans here are excited.	2598158	1471987668162	1471987668266	e	69
5155	54649	Sports fans here are excited.	Sports fans here are excited.	2598183	1471987668262	1471987668402	r	82
5155	54649	Sports fans here are excited.	Sports fans here are excited.	2598187	1471987668406	1471987668548	e	69
5155	54649	Sports fans here are excited.	Sports fans here are excited.	2598194	1471987668508	1471987668629	 	32
5155	54649	Sports fans here are excited.	Sports fans here are excited.	2598200	1471987668658	1471987668779	a	65
5155	54649	Sports fans here are excited.	Sports fans here are excited.	2598204	1471987668741	1471987668881	r	82
5155	54649	Sports fans here are excited.	Sports fans here are excited.	2598251	1471987668861	1471987669024	e	69
5155	54649	Sports fans here are excited.	Sports fans here are excited.	2598257	1471987668964	1471987669106	 	32
5155	54649	Sports fans here are excited.	Sports fans here are excited.	2598266	1471987669136	1471987669235	e	69
5155	54649	Sports fans here are excited.	Sports fans here are excited.	2598274	1471987669343	1471987669467	x	88
5155	54649	Sports fans here are excited.	Sports fans here are excited.	2598281	1471987669527	1471987669673	c	67
5155	54649	Sports fans here are excited.	Sports fans here are excited.	2598350	1471987669669	1471987669792	i	73
5155	54649	Sports fans here are excited.	Sports fans here are excited.	2598353	1471987669823	1471987669923	t	84
5155	54649	Sports fans here are excited.	Sports fans here are excited.	2598357	1471987669999	1471987670081	e	69
5155	54649	Sports fans here are excited.	Sports fans here are excited.	2598361	1471987670172	1471987670294	d	68
5155	54649	Sports fans here are excited.	Sports fans here are excited.	2598364	1471987670294	1471987670415	.	190
5155	54658	Not just 1 to 2.	Not just 1 to 2.	2598585	1471987672695	1471987672878	SHIFT	16
5155	54658	Not just 1 to 2.	Not just 1 to 2.	2598588	1471987672794	1471987672917	N	78
5155	54658	Not just 1 to 2.	Not just 1 to 2.	2598590	1471987672984	1471987673127	o	79
5155	54658	Not just 1 to 2.	Not just 1 to 2.	2598595	1471987673087	1471987673205	t	84
5155	54658	Not just 1 to 2.	Not just 1 to 2.	2598600	1471987673185	1471987673287	 	32
5155	54658	Not just 1 to 2.	Not just 1 to 2.	2598610	1471987673334	1471987673435	j	74
5155	54658	Not just 1 to 2.	Not just 1 to 2.	2598676	1471987673544	1471987673663	u	85
5155	54658	Not just 1 to 2.	Not just 1 to 2.	2598680	1471987673857	1471987674023	s	83
5155	54658	Not just 1 to 2.	Not just 1 to 2.	2598683	1471987674019	1471987674140	t	84
5155	54658	Not just 1 to 2.	Not just 1 to 2.	2598689	1471987674161	1471987674301	 	32
5155	54658	Not just 1 to 2.	Not just 1 to 2.	2598694	1471987674435	1471987674560	1	49
5155	54658	Not just 1 to 2.	Not just 1 to 2.	2598783	1471987674556	1471987674679	 	32
5155	54658	Not just 1 to 2.	Not just 1 to 2.	2598792	1471987674699	1471987674841	o	79
5155	54658	Not just 1 to 2.	Not just 1 to 2.	2598798	1471987674781	1471987674921	r	82
5155	54658	Not just 1 to 2.	Not just 1 to 2.	2598802	1471987675090	1471987675169	BKSP	8
5155	54658	Not just 1 to 2.	Not just 1 to 2.	2598804	1471987675247	1471987675336	BKSP	8
5155	54658	Not just 1 to 2.	Not just 1 to 2.	2598808	1471987675349	1471987675454	t	84
5155	54658	Not just 1 to 2.	Not just 1 to 2.	2598814	1471987675472	1471987675593	o	79
5155	54658	Not just 1 to 2.	Not just 1 to 2.	2598820	1471987675623	1471987675743	 	32
5155	54658	Not just 1 to 2.	Not just 1 to 2.	2598895	1471987675796	1471987675918	2	50
5155	54658	Not just 1 to 2.	Not just 1 to 2.	2598898	1471987676949	1471987677030	.	190
5155	54671	It will probably be tomorrow.	It will probably be tomorrow.	2599088	1471987679177	1471987679378	SHIFT	16
5155	54671	It will probably be tomorrow.	It will probably be tomorrow.	2599094	1471987679277	1471987679420	I	73
5155	54671	It will probably be tomorrow.	It will probably be tomorrow.	2599098	1471987679400	1471987679500	t	84
5155	54671	It will probably be tomorrow.	It will probably be tomorrow.	2599103	1471987679500	1471987679602	 	32
5155	54671	It will probably be tomorrow.	It will probably be tomorrow.	2599111	1471987679627	1471987679765	w	87
5155	54671	It will probably be tomorrow.	It will probably be tomorrow.	2599154	1471987679725	1471987679817	i	73
5155	54671	It will probably be tomorrow.	It will probably be tomorrow.	2599157	1471987679897	1471987679977	l	76
5155	54671	It will probably be tomorrow.	It will probably be tomorrow.	2599163	1471987680050	1471987680173	l	76
5155	54671	It will probably be tomorrow.	It will probably be tomorrow.	2599167	1471987680202	1471987680322	 	32
5155	54671	It will probably be tomorrow.	It will probably be tomorrow.	2599175	1471987680356	1471987680456	p	80
5155	54671	It will probably be tomorrow.	It will probably be tomorrow.	2599183	1471987680460	1471987680578	r	82
5155	54671	It will probably be tomorrow.	It will probably be tomorrow.	2599245	1471987680596	1471987680717	o	79
5155	54671	It will probably be tomorrow.	It will probably be tomorrow.	2599247	1471987680910	1471987681034	b	66
5155	54671	It will probably be tomorrow.	It will probably be tomorrow.	2599250	1471987681071	1471987681186	a	65
5155	54671	It will probably be tomorrow.	It will probably be tomorrow.	2599256	1471987681207	1471987681289	b	66
5155	54671	It will probably be tomorrow.	It will probably be tomorrow.	2599260	1471987681420	1471987681536	l	76
5155	54671	It will probably be tomorrow.	It will probably be tomorrow.	2599289	1471987681642	1471987681722	y	89
5155	54671	It will probably be tomorrow.	It will probably be tomorrow.	2599294	1471987681779	1471987681883	 	32
5155	54671	It will probably be tomorrow.	It will probably be tomorrow.	2599298	1471987681967	1471987682094	b	66
5155	54671	It will probably be tomorrow.	It will probably be tomorrow.	2599303	1471987682110	1471987682214	e	69
5155	54671	It will probably be tomorrow.	It will probably be tomorrow.	2599354	1471987682190	1471987682292	 	32
5155	54671	It will probably be tomorrow.	It will probably be tomorrow.	2599356	1471987682327	1471987682430	t	84
5155	54671	It will probably be tomorrow.	It will probably be tomorrow.	2599360	1471987682456	1471987682531	o	79
5155	54671	It will probably be tomorrow.	It will probably be tomorrow.	2599363	1471987682604	1471987682698	m	77
5155	54671	It will probably be tomorrow.	It will probably be tomorrow.	2599366	1471987682760	1471987682860	o	79
5155	54671	It will probably be tomorrow.	It will probably be tomorrow.	2599369	1471987682872	1471987682924	r	82
5155	54671	It will probably be tomorrow.	It will probably be tomorrow.	2599404	1471987683016	1471987683072	r	82
5155	54671	It will probably be tomorrow.	It will probably be tomorrow.	2599406	1471987683096	1471987683173	o	79
5155	54671	It will probably be tomorrow.	It will probably be tomorrow.	2599411	1471987683197	1471987683345	w	87
5155	54671	It will probably be tomorrow.	It will probably be tomorrow.	2599414	1471987683345	1471987683479	.	190
5155	54678	Just wanted to touch base.	Just wanted to touch base.	2599633	1471987685739	1471987685941	SHIFT	16
5155	54678	Just wanted to touch base.	Just wanted to touch base.	2599636	1471987685861	1471987685941	J	74
5155	54678	Just wanted to touch base.	Just wanted to touch base.	2599641	1471987686264	1471987686411	u	85
5155	54678	Just wanted to touch base.	Just wanted to touch base.	2599644	1471987686411	1471987686568	s	83
5155	54678	Just wanted to touch base.	Just wanted to touch base.	2599648	1471987686564	1471987686687	t	84
5155	54678	Just wanted to touch base.	Just wanted to touch base.	2599652	1471987686695	1471987686790	 	32
5155	54678	Just wanted to touch base.	Just wanted to touch base.	2599689	1471987686810	1471987686971	w	87
5155	54678	Just wanted to touch base.	Just wanted to touch base.	2599694	1471987686971	1471987687095	a	65
5155	54678	Just wanted to touch base.	Just wanted to touch base.	2599698	1471987687054	1471987687214	n	78
5155	54678	Just wanted to touch base.	Just wanted to touch base.	2599702	1471987687155	1471987687254	t	84
5155	54678	Just wanted to touch base.	Just wanted to touch base.	2599704	1471987687280	1471987687399	e	69
5155	54678	Just wanted to touch base.	Just wanted to touch base.	2599732	1471987687473	1471987687589	d	68
5155	54678	Just wanted to touch base.	Just wanted to touch base.	2599734	1471987687573	1471987687714	 	32
5155	54678	Just wanted to touch base.	Just wanted to touch base.	2599736	1471987687698	1471987687775	t	84
5155	54678	Just wanted to touch base.	Just wanted to touch base.	2599738	1471987687811	1471987687930	o	79
5155	54678	Just wanted to touch base.	Just wanted to touch base.	2599744	1471987687960	1471987688086	 	32
5155	54678	Just wanted to touch base.	Just wanted to touch base.	2599791	1471987688139	1471987688242	t	84
5155	54678	Just wanted to touch base.	Just wanted to touch base.	2599795	1471987688455	1471987688577	o	79
5155	54678	Just wanted to touch base.	Just wanted to touch base.	2599800	1471987688610	1471987688736	u	85
5155	54678	Just wanted to touch base.	Just wanted to touch base.	2599803	1471987688736	1471987688857	c	67
5155	54678	Just wanted to touch base.	Just wanted to touch base.	2599839	1471987688853	1471987688958	h	72
5155	54678	Just wanted to touch base.	Just wanted to touch base.	2599844	1471987688997	1471987689098	 	32
5155	54678	Just wanted to touch base.	Just wanted to touch base.	2599853	1471987689151	1471987689291	b	66
5155	54678	Just wanted to touch base.	Just wanted to touch base.	2599858	1471987689233	1471987689398	a	65
5155	54678	Just wanted to touch base.	Just wanted to touch base.	2599863	1471987689311	1471987689557	s	83
5155	54678	Just wanted to touch base.	Just wanted to touch base.	2599892	1471987689496	1471987689676	e	69
5155	54678	Just wanted to touch base.	Just wanted to touch base.	2599897	1471987689616	1471987689723	.	190
5155	54692	All our demographics indicate that is a family audience.	All our demographics indicate that is a family audience.	2600284	1471987694190	1471987694455	SHIFT	16
5155	54692	All our demographics indicate that is a family audience.	All our demographics indicate that is a family audience.	2600287	1471987694351	1471987694536	A	65
5155	54692	All our demographics indicate that is a family audience.	All our demographics indicate that is a family audience.	2600289	1471987694495	1471987694575	l	76
5155	54692	All our demographics indicate that is a family audience.	All our demographics indicate that is a family audience.	2600292	1471987694650	1471987694730	l	76
5155	54692	All our demographics indicate that is a family audience.	All our demographics indicate that is a family audience.	2600299	1471987694810	1471987694935	 	32
5155	54692	All our demographics indicate that is a family audience.	All our demographics indicate that is a family audience.	2600302	1471987694951	1471987695115	o	79
5155	54692	All our demographics indicate that is a family audience.	All our demographics indicate that is a family audience.	2600348	1471987695091	1471987695235	u	85
5155	54692	All our demographics indicate that is a family audience.	All our demographics indicate that is a family audience.	2600356	1471987695175	1471987695299	r	82
5155	54692	All our demographics indicate that is a family audience.	All our demographics indicate that is a family audience.	2600362	1471987695317	1471987695438	 	32
5155	54692	All our demographics indicate that is a family audience.	All our demographics indicate that is a family audience.	2600370	1471987695602	1471987695703	d	68
5155	54692	All our demographics indicate that is a family audience.	All our demographics indicate that is a family audience.	2600375	1471987695779	1471987695883	e	69
5155	54692	All our demographics indicate that is a family audience.	All our demographics indicate that is a family audience.	2600378	1471987695925	1471987696067	m	77
5155	54692	All our demographics indicate that is a family audience.	All our demographics indicate that is a family audience.	2600454	1471987696145	1471987696286	o	79
5155	54692	All our demographics indicate that is a family audience.	All our demographics indicate that is a family audience.	2600457	1471987696402	1471987696518	g	71
5155	54692	All our demographics indicate that is a family audience.	All our demographics indicate that is a family audience.	2600461	1471987696601	1471987696742	r	82
5155	54692	All our demographics indicate that is a family audience.	All our demographics indicate that is a family audience.	2600465	1471987696762	1471987696905	a	65
5155	54692	All our demographics indicate that is a family audience.	All our demographics indicate that is a family audience.	2600470	1471987697157	1471987697221	p	80
5155	54692	All our demographics indicate that is a family audience.	All our demographics indicate that is a family audience.	2600552	1471987697428	1471987697544	h	72
5155	54692	All our demographics indicate that is a family audience.	All our demographics indicate that is a family audience.	2600554	1471987697567	1471987697667	i	73
5155	54692	All our demographics indicate that is a family audience.	All our demographics indicate that is a family audience.	2600555	1471987697685	1471987697810	c	67
5155	54692	All our demographics indicate that is a family audience.	All our demographics indicate that is a family audience.	2600556	1471987697991	1471987698094	s	83
5155	54692	All our demographics indicate that is a family audience.	All our demographics indicate that is a family audience.	2600557	1471987698301	1471987698418	 	32
5155	54692	All our demographics indicate that is a family audience.	All our demographics indicate that is a family audience.	2600579	1471987698641	1471987698743	i	73
5155	54692	All our demographics indicate that is a family audience.	All our demographics indicate that is a family audience.	2600582	1471987698811	1471987698915	n	78
5155	54692	All our demographics indicate that is a family audience.	All our demographics indicate that is a family audience.	2600587	1471987698935	1471987699038	d	68
5155	54692	All our demographics indicate that is a family audience.	All our demographics indicate that is a family audience.	2600595	1471987699038	1471987699118	i	73
5155	54692	All our demographics indicate that is a family audience.	All our demographics indicate that is a family audience.	2600601	1471987699190	1471987699316	c	67
5155	54692	All our demographics indicate that is a family audience.	All our demographics indicate that is a family audience.	2600631	1471987699332	1471987699515	a	65
5155	54692	All our demographics indicate that is a family audience.	All our demographics indicate that is a family audience.	2600634	1471987699515	1471987699616	t	84
5155	54692	All our demographics indicate that is a family audience.	All our demographics indicate that is a family audience.	2600637	1471987699738	1471987699858	e	69
5155	54692	All our demographics indicate that is a family audience.	All our demographics indicate that is a family audience.	2600640	1471987699910	1471987700032	 	32
5155	54692	All our demographics indicate that is a family audience.	All our demographics indicate that is a family audience.	2600685	1471987700032	1471987700133	t	84
5155	54692	All our demographics indicate that is a family audience.	All our demographics indicate that is a family audience.	2600688	1471987700135	1471987700274	h	72
5155	54692	All our demographics indicate that is a family audience.	All our demographics indicate that is a family audience.	2600692	1471987700234	1471987700376	a	65
5155	54692	All our demographics indicate that is a family audience.	All our demographics indicate that is a family audience.	2600699	1471987700336	1471987700499	t	84
5155	54692	All our demographics indicate that is a family audience.	All our demographics indicate that is a family audience.	2600712	1471987700518	1471987700641	 	32
5155	54692	All our demographics indicate that is a family audience.	All our demographics indicate that is a family audience.	2600719	1471987700814	1471987700935	i	73
5155	54692	All our demographics indicate that is a family audience.	All our demographics indicate that is a family audience.	2600777	1471987700990	1471987701116	s	83
5155	54692	All our demographics indicate that is a family audience.	All our demographics indicate that is a family audience.	2600781	1471987701112	1471987701212	 	32
5155	54692	All our demographics indicate that is a family audience.	All our demographics indicate that is a family audience.	2600785	1471987701271	1471987701393	a	65
5155	54692	All our demographics indicate that is a family audience.	All our demographics indicate that is a family audience.	2600789	1471987701423	1471987701525	 	32
5155	54692	All our demographics indicate that is a family audience.	All our demographics indicate that is a family audience.	2600792	1471987701905	1471987702085	f	70
5155	54692	All our demographics indicate that is a family audience.	All our demographics indicate that is a family audience.	2600816	1471987702109	1471987702247	a	65
5155	54692	All our demographics indicate that is a family audience.	All our demographics indicate that is a family audience.	2600819	1471987702186	1471987702332	m	77
5155	54692	All our demographics indicate that is a family audience.	All our demographics indicate that is a family audience.	2600829	1471987702350	1471987702411	i	73
5155	54692	All our demographics indicate that is a family audience.	All our demographics indicate that is a family audience.	2600836	1471987702504	1471987702644	l	76
5155	54692	All our demographics indicate that is a family audience.	All our demographics indicate that is a family audience.	2600840	1471987702771	1471987702877	y	89
5155	54692	All our demographics indicate that is a family audience.	All our demographics indicate that is a family audience.	2600871	1471987702939	1471987703063	 	32
5155	54692	All our demographics indicate that is a family audience.	All our demographics indicate that is a family audience.	2600875	1471987703083	1471987703205	a	65
5155	54692	All our demographics indicate that is a family audience.	All our demographics indicate that is a family audience.	2600881	1471987703255	1471987703356	u	85
5155	54692	All our demographics indicate that is a family audience.	All our demographics indicate that is a family audience.	2600886	1471987703396	1471987703539	d	68
5155	54692	All our demographics indicate that is a family audience.	All our demographics indicate that is a family audience.	2600906	1471987703539	1471987703618	i	73
5155	54692	All our demographics indicate that is a family audience.	All our demographics indicate that is a family audience.	2600908	1471987703642	1471987703761	e	69
5155	54692	All our demographics indicate that is a family audience.	All our demographics indicate that is a family audience.	2600913	1471987703741	1471987703847	n	78
5155	54692	All our demographics indicate that is a family audience.	All our demographics indicate that is a family audience.	2600916	1471987703905	1471987704005	c	67
5155	54692	All our demographics indicate that is a family audience.	All our demographics indicate that is a family audience.	2600921	1471987703993	1471987704149	e	69
5155	54692	All our demographics indicate that is a family audience.	All our demographics indicate that is a family audience.	2600923	1471987704111	1471987704212	.	190
5155	54712	The best-of-seven series moves to Indianapolis, Indiana.	The best-of-seven series moves to Indianapolis, Indiana.	2601104	1471987706407	1471987706650	SHIFT	16
5155	54712	The best-of-seven series moves to Indianapolis, Indiana.	The best-of-seven series moves to Indianapolis, Indiana.	2601106	1471987706589	1471987706749	T	84
5155	54712	The best-of-seven series moves to Indianapolis, Indiana.	The best-of-seven series moves to Indianapolis, Indiana.	2601109	1471987706671	1471987706821	h	72
5155	54712	The best-of-seven series moves to Indianapolis, Indiana.	The best-of-seven series moves to Indianapolis, Indiana.	2601112	1471987706793	1471987706957	e	69
5155	54712	The best-of-seven series moves to Indianapolis, Indiana.	The best-of-seven series moves to Indianapolis, Indiana.	2601116	1471987706913	1471987706977	 	32
5155	54712	The best-of-seven series moves to Indianapolis, Indiana.	The best-of-seven series moves to Indianapolis, Indiana.	2601121	1471987707051	1471987707194	b	66
5155	54712	The best-of-seven series moves to Indianapolis, Indiana.	The best-of-seven series moves to Indianapolis, Indiana.	2601211	1471987707138	1471987707335	e	69
5155	54712	The best-of-seven series moves to Indianapolis, Indiana.	The best-of-seven series moves to Indianapolis, Indiana.	2601214	1471987707252	1471987707421	s	83
5155	54712	The best-of-seven series moves to Indianapolis, Indiana.	The best-of-seven series moves to Indianapolis, Indiana.	2601217	1471987707709	1471987707835	t	84
5155	54712	The best-of-seven series moves to Indianapolis, Indiana.	The best-of-seven series moves to Indianapolis, Indiana.	2601224	1471987707895	1471987708015	-	189
5155	54712	The best-of-seven series moves to Indianapolis, Indiana.	The best-of-seven series moves to Indianapolis, Indiana.	2601229	1471987708230	1471987708369	o	79
5155	54712	The best-of-seven series moves to Indianapolis, Indiana.	The best-of-seven series moves to Indianapolis, Indiana.	2601237	1471987708391	1471987708513	f	70
5155	54712	The best-of-seven series moves to Indianapolis, Indiana.	The best-of-seven series moves to Indianapolis, Indiana.	2601309	1471987708748	1471987708863	-	189
5155	54712	The best-of-seven series moves to Indianapolis, Indiana.	The best-of-seven series moves to Indianapolis, Indiana.	2601312	1471987709136	1471987709320	s	83
5155	54712	The best-of-seven series moves to Indianapolis, Indiana.	The best-of-seven series moves to Indianapolis, Indiana.	2601316	1471987709255	1471987709416	e	69
5155	54712	The best-of-seven series moves to Indianapolis, Indiana.	The best-of-seven series moves to Indianapolis, Indiana.	2601318	1471987709472	1471987709594	v	86
5155	54712	The best-of-seven series moves to Indianapolis, Indiana.	The best-of-seven series moves to Indianapolis, Indiana.	2601320	1471987709631	1471987709768	e	69
5155	54712	The best-of-seven series moves to Indianapolis, Indiana.	The best-of-seven series moves to Indianapolis, Indiana.	2601333	1471987709728	1471987709852	n	78
5155	54712	The best-of-seven series moves to Indianapolis, Indiana.	The best-of-seven series moves to Indianapolis, Indiana.	2601335	1471987709869	1471987710011	 	32
5155	54712	The best-of-seven series moves to Indianapolis, Indiana.	The best-of-seven series moves to Indianapolis, Indiana.	2601340	1471987709951	1471987710092	s	83
5155	54712	The best-of-seven series moves to Indianapolis, Indiana.	The best-of-seven series moves to Indianapolis, Indiana.	2601346	1471987710011	1471987710173	e	69
5155	54712	The best-of-seven series moves to Indianapolis, Indiana.	The best-of-seven series moves to Indianapolis, Indiana.	2601358	1471987710131	1471987710281	r	82
5155	54712	The best-of-seven series moves to Indianapolis, Indiana.	The best-of-seven series moves to Indianapolis, Indiana.	2601415	1471987710257	1471987710377	i	73
5155	54712	The best-of-seven series moves to Indianapolis, Indiana.	The best-of-seven series moves to Indianapolis, Indiana.	2601418	1471987710438	1471987710681	e	69
5155	54712	The best-of-seven series moves to Indianapolis, Indiana.	The best-of-seven series moves to Indianapolis, Indiana.	2601423	1471987710645	1471987710786	s	83
5155	54712	The best-of-seven series moves to Indianapolis, Indiana.	The best-of-seven series moves to Indianapolis, Indiana.	2601426	1471987710762	1471987710843	 	32
5155	54712	The best-of-seven series moves to Indianapolis, Indiana.	The best-of-seven series moves to Indianapolis, Indiana.	2601430	1471987710909	1471987711034	m	77
5155	54712	The best-of-seven series moves to Indianapolis, Indiana.	The best-of-seven series moves to Indianapolis, Indiana.	2601435	1471987711152	1471987711270	v	86
5155	54712	The best-of-seven series moves to Indianapolis, Indiana.	The best-of-seven series moves to Indianapolis, Indiana.	2601547	1471987711250	1471987711493	e	69
5155	54712	The best-of-seven series moves to Indianapolis, Indiana.	The best-of-seven series moves to Indianapolis, Indiana.	2601551	1471987711437	1471987711556	s	83
5155	54712	The best-of-seven series moves to Indianapolis, Indiana.	The best-of-seven series moves to Indianapolis, Indiana.	2601553	1471987711803	1471987711879	BKSP	8
5155	54712	The best-of-seven series moves to Indianapolis, Indiana.	The best-of-seven series moves to Indianapolis, Indiana.	2601554	1471987711975	1471987712055	BKSP	8
5155	54712	The best-of-seven series moves to Indianapolis, Indiana.	The best-of-seven series moves to Indianapolis, Indiana.	2601557	1471987712228	1471987712331	o	79
5155	54712	The best-of-seven series moves to Indianapolis, Indiana.	The best-of-seven series moves to Indianapolis, Indiana.	2601560	1471987712502	1471987712558	BKSP	8
5155	54712	The best-of-seven series moves to Indianapolis, Indiana.	The best-of-seven series moves to Indianapolis, Indiana.	2601563	1471987712660	1471987712724	BKSP	8
5155	54712	The best-of-seven series moves to Indianapolis, Indiana.	The best-of-seven series moves to Indianapolis, Indiana.	2601568	1471987712861	1471987713009	o	79
5155	54712	The best-of-seven series moves to Indianapolis, Indiana.	The best-of-seven series moves to Indianapolis, Indiana.	2601575	1471987712969	1471987713091	v	86
5155	54712	The best-of-seven series moves to Indianapolis, Indiana.	The best-of-seven series moves to Indianapolis, Indiana.	2601582	1471987713051	1471987713235	e	69
5155	54712	The best-of-seven series moves to Indianapolis, Indiana.	The best-of-seven series moves to Indianapolis, Indiana.	2601585	1471987713127	1471987713267	s	83
5155	54712	The best-of-seven series moves to Indianapolis, Indiana.	The best-of-seven series moves to Indianapolis, Indiana.	2601590	1471987713227	1471987713355	 	32
5155	54712	The best-of-seven series moves to Indianapolis, Indiana.	The best-of-seven series moves to Indianapolis, Indiana.	2601594	1471987713351	1471987713476	t	84
5155	54712	The best-of-seven series moves to Indianapolis, Indiana.	The best-of-seven series moves to Indianapolis, Indiana.	2601597	1471987713430	1471987713534	o	79
5155	54712	The best-of-seven series moves to Indianapolis, Indiana.	The best-of-seven series moves to Indianapolis, Indiana.	2601605	1471987713554	1471987713660	 	32
5155	54712	The best-of-seven series moves to Indianapolis, Indiana.	The best-of-seven series moves to Indianapolis, Indiana.	2601641	1471987713636	1471987713836	SHIFT	16
5155	54712	The best-of-seven series moves to Indianapolis, Indiana.	The best-of-seven series moves to Indianapolis, Indiana.	2601644	1471987713737	1471987713859	I	73
5155	54712	The best-of-seven series moves to Indianapolis, Indiana.	The best-of-seven series moves to Indianapolis, Indiana.	2601647	1471987713914	1471987714035	n	78
5155	54712	The best-of-seven series moves to Indianapolis, Indiana.	The best-of-seven series moves to Indianapolis, Indiana.	2601652	1471987714064	1471987714210	d	68
5155	54712	The best-of-seven series moves to Indianapolis, Indiana.	The best-of-seven series moves to Indianapolis, Indiana.	2601656	1471987714189	1471987714295	i	73
5155	54712	The best-of-seven series moves to Indianapolis, Indiana.	The best-of-seven series moves to Indianapolis, Indiana.	2601659	1471987714310	1471987714432	a	65
5155	54712	The best-of-seven series moves to Indianapolis, Indiana.	The best-of-seven series moves to Indianapolis, Indiana.	2601704	1471987714412	1471987714534	n	78
5155	54712	The best-of-seven series moves to Indianapolis, Indiana.	The best-of-seven series moves to Indianapolis, Indiana.	2601708	1471987714839	1471987714940	a	65
5155	54712	The best-of-seven series moves to Indianapolis, Indiana.	The best-of-seven series moves to Indianapolis, Indiana.	2601711	1471987714970	1471987715075	p	80
5155	54712	The best-of-seven series moves to Indianapolis, Indiana.	The best-of-seven series moves to Indianapolis, Indiana.	2601714	1471987715181	1471987715263	o	79
5155	54712	The best-of-seven series moves to Indianapolis, Indiana.	The best-of-seven series moves to Indianapolis, Indiana.	2601720	1471987715387	1471987715483	l	76
5155	54712	The best-of-seven series moves to Indianapolis, Indiana.	The best-of-seven series moves to Indianapolis, Indiana.	2601725	1471987715566	1471987715663	i	73
5155	54712	The best-of-seven series moves to Indianapolis, Indiana.	The best-of-seven series moves to Indianapolis, Indiana.	2601808	1471987715671	1471987715829	s	83
5155	54712	The best-of-seven series moves to Indianapolis, Indiana.	The best-of-seven series moves to Indianapolis, Indiana.	2601811	1471987715805	1471987715930	,	188
5155	54712	The best-of-seven series moves to Indianapolis, Indiana.	The best-of-seven series moves to Indianapolis, Indiana.	2601817	1471987715983	1471987716103	 	32
5155	54712	The best-of-seven series moves to Indianapolis, Indiana.	The best-of-seven series moves to Indianapolis, Indiana.	2601828	1471987716063	1471987716285	SHIFT	16
5155	54712	The best-of-seven series moves to Indianapolis, Indiana.	The best-of-seven series moves to Indianapolis, Indiana.	2601820	1471987716183	1471987716269	I	73
5155	54712	The best-of-seven series moves to Indianapolis, Indiana.	The best-of-seven series moves to Indianapolis, Indiana.	2601834	1471987716350	1471987716453	n	78
5155	54712	The best-of-seven series moves to Indianapolis, Indiana.	The best-of-seven series moves to Indianapolis, Indiana.	2601806	1471987716473	1471987716599	d	68
5155	54712	The best-of-seven series moves to Indianapolis, Indiana.	The best-of-seven series moves to Indianapolis, Indiana.	2601809	1471987716595	1471987716675	i	73
5155	54712	The best-of-seven series moves to Indianapolis, Indiana.	The best-of-seven series moves to Indianapolis, Indiana.	2601813	1471987716695	1471987716815	a	65
5155	54712	The best-of-seven series moves to Indianapolis, Indiana.	The best-of-seven series moves to Indianapolis, Indiana.	2601816	1471987716776	1471987716880	n	78
5155	54712	The best-of-seven series moves to Indianapolis, Indiana.	The best-of-seven series moves to Indianapolis, Indiana.	2601822	1471987716931	1471987717051	a	65
5155	54712	The best-of-seven series moves to Indianapolis, Indiana.	The best-of-seven series moves to Indianapolis, Indiana.	2601861	1471987717124	1471987717242	.	190
5155	54728	The former minister is accused of receiving seven billion lira.	The former minister is accused of receiving seven billion lira.	2602025	1471987719303	1471987719550	SHIFT	16
5155	54728	The former minister is accused of receiving seven billion lira.	The former minister is accused of receiving seven billion lira.	2602028	1471987719488	1471987719608	T	84
5155	54728	The former minister is accused of receiving seven billion lira.	The former minister is accused of receiving seven billion lira.	2602033	1471987719568	1471987719712	h	72
5155	54728	The former minister is accused of receiving seven billion lira.	The former minister is accused of receiving seven billion lira.	2602038	1471987719672	1471987719814	e	69
5155	54728	The former minister is accused of receiving seven billion lira.	The former minister is accused of receiving seven billion lira.	2602044	1471987719774	1471987719895	 	32
5155	54728	The former minister is accused of receiving seven billion lira.	The former minister is accused of receiving seven billion lira.	2602048	1471987719921	1471987720016	f	70
5155	54728	The former minister is accused of receiving seven billion lira.	The former minister is accused of receiving seven billion lira.	2602055	1471987720000	1471987720119	o	79
5155	54728	The former minister is accused of receiving seven billion lira.	The former minister is accused of receiving seven billion lira.	2602058	1471987720076	1471987720201	r	82
5155	54728	The former minister is accused of receiving seven billion lira.	The former minister is accused of receiving seven billion lira.	2602062	1471987720197	1471987720327	m	77
5155	54728	The former minister is accused of receiving seven billion lira.	The former minister is accused of receiving seven billion lira.	2602068	1471987720299	1471987720461	e	69
5155	54728	The former minister is accused of receiving seven billion lira.	The former minister is accused of receiving seven billion lira.	2602074	1471987720401	1471987720546	r	82
5155	54728	The former minister is accused of receiving seven billion lira.	The former minister is accused of receiving seven billion lira.	2602124	1471987720546	1471987720667	 	32
5155	54728	The former minister is accused of receiving seven billion lira.	The former minister is accused of receiving seven billion lira.	2602131	1471987720853	1471987720994	m	77
5155	54728	The former minister is accused of receiving seven billion lira.	The former minister is accused of receiving seven billion lira.	2602139	1471987721041	1471987721142	i	73
5155	54728	The former minister is accused of receiving seven billion lira.	The former minister is accused of receiving seven billion lira.	2602147	1471987721204	1471987721306	n	78
5155	54728	The former minister is accused of receiving seven billion lira.	The former minister is accused of receiving seven billion lira.	2602153	1471987721344	1471987721448	i	73
5155	54728	The former minister is accused of receiving seven billion lira.	The former minister is accused of receiving seven billion lira.	2602203	1471987721428	1471987721591	s	83
5155	54728	The former minister is accused of receiving seven billion lira.	The former minister is accused of receiving seven billion lira.	2602209	1471987721608	1471987721711	t	84
5155	54728	The former minister is accused of receiving seven billion lira.	The former minister is accused of receiving seven billion lira.	2602215	1471987721731	1471987721915	e	69
5155	54728	The former minister is accused of receiving seven billion lira.	The former minister is accused of receiving seven billion lira.	2602220	1471987721855	1471987721976	r	82
5155	54728	The former minister is accused of receiving seven billion lira.	The former minister is accused of receiving seven billion lira.	2602225	1471987721956	1471987722055	 	32
5155	54728	The former minister is accused of receiving seven billion lira.	The former minister is accused of receiving seven billion lira.	2602230	1471987722128	1471987722248	i	73
5155	54728	The former minister is accused of receiving seven billion lira.	The former minister is accused of receiving seven billion lira.	2602265	1471987722228	1471987722353	s	83
5155	54728	The former minister is accused of receiving seven billion lira.	The former minister is accused of receiving seven billion lira.	2602268	1471987722351	1471987722451	 	32
5155	54728	The former minister is accused of receiving seven billion lira.	The former minister is accused of receiving seven billion lira.	2602271	1471987722451	1471987722576	a	65
5155	54728	The former minister is accused of receiving seven billion lira.	The former minister is accused of receiving seven billion lira.	2602275	1471987722594	1471987722716	c	67
5155	54728	The former minister is accused of receiving seven billion lira.	The former minister is accused of receiving seven billion lira.	2602278	1471987722814	1471987722935	c	67
5155	54728	The former minister is accused of receiving seven billion lira.	The former minister is accused of receiving seven billion lira.	2602281	1471987722986	1471987723127	u	85
5155	54728	The former minister is accused of receiving seven billion lira.	The former minister is accused of receiving seven billion lira.	2602308	1471987723131	1471987723247	s	83
5155	54728	The former minister is accused of receiving seven billion lira.	The former minister is accused of receiving seven billion lira.	2602311	1471987723227	1471987723351	e	69
5155	54728	The former minister is accused of receiving seven billion lira.	The former minister is accused of receiving seven billion lira.	2602314	1471987723453	1471987723574	d	68
5155	54728	The former minister is accused of receiving seven billion lira.	The former minister is accused of receiving seven billion lira.	2602317	1471987723512	1471987723656	 	32
5155	54728	The former minister is accused of receiving seven billion lira.	The former minister is accused of receiving seven billion lira.	2602319	1471987723687	1471987723827	o	79
5155	54728	The former minister is accused of receiving seven billion lira.	The former minister is accused of receiving seven billion lira.	2602342	1471987723807	1471987723907	f	70
5155	54728	The former minister is accused of receiving seven billion lira.	The former minister is accused of receiving seven billion lira.	2602347	1471987723887	1471987724032	 	32
5155	54728	The former minister is accused of receiving seven billion lira.	The former minister is accused of receiving seven billion lira.	2602350	1471987724032	1471987724151	r	82
5155	54728	The former minister is accused of receiving seven billion lira.	The former minister is accused of receiving seven billion lira.	2602353	1471987724131	1471987724276	e	69
5155	54728	The former minister is accused of receiving seven billion lira.	The former minister is accused of receiving seven billion lira.	2602356	1471987724360	1471987724484	c	67
5155	54728	The former minister is accused of receiving seven billion lira.	The former minister is accused of receiving seven billion lira.	2602412	1471987724484	1471987724606	e	69
5155	54728	The former minister is accused of receiving seven billion lira.	The former minister is accused of receiving seven billion lira.	2602420	1471987724625	1471987724749	i	73
5155	54728	The former minister is accused of receiving seven billion lira.	The former minister is accused of receiving seven billion lira.	2602425	1471987724749	1471987724869	v	86
5155	54728	The former minister is accused of receiving seven billion lira.	The former minister is accused of receiving seven billion lira.	2602435	1471987724936	1471987725037	i	73
5155	54728	The former minister is accused of receiving seven billion lira.	The former minister is accused of receiving seven billion lira.	2602443	1471987725125	1471987725248	n	78
5155	54728	The former minister is accused of receiving seven billion lira.	The former minister is accused of receiving seven billion lira.	2602513	1471987725224	1471987725327	g	71
5155	54728	The former minister is accused of receiving seven billion lira.	The former minister is accused of receiving seven billion lira.	2602516	1471987725347	1471987725449	 	32
5155	54728	The former minister is accused of receiving seven billion lira.	The former minister is accused of receiving seven billion lira.	2602520	1471987725469	1471987725613	s	83
5155	54728	The former minister is accused of receiving seven billion lira.	The former minister is accused of receiving seven billion lira.	2602525	1471987725589	1471987725690	e	69
5155	54728	The former minister is accused of receiving seven billion lira.	The former minister is accused of receiving seven billion lira.	2602529	1471987725809	1471987725908	v	86
5155	54728	The former minister is accused of receiving seven billion lira.	The former minister is accused of receiving seven billion lira.	2602532	1471987725956	1471987726118	e	69
5155	54728	The former minister is accused of receiving seven billion lira.	The former minister is accused of receiving seven billion lira.	2602580	1471987726098	1471987726220	n	78
5155	54728	The former minister is accused of receiving seven billion lira.	The former minister is accused of receiving seven billion lira.	2602582	1471987726251	1471987726351	 	32
5155	54728	The former minister is accused of receiving seven billion lira.	The former minister is accused of receiving seven billion lira.	2602584	1471987726437	1471987726561	b	66
5155	54728	The former minister is accused of receiving seven billion lira.	The former minister is accused of receiving seven billion lira.	2602587	1471987726612	1471987726732	i	73
5155	54728	The former minister is accused of receiving seven billion lira.	The former minister is accused of receiving seven billion lira.	2602590	1471987726853	1471987726956	l	76
5155	54728	The former minister is accused of receiving seven billion lira.	The former minister is accused of receiving seven billion lira.	2602593	1471987727022	1471987727102	l	76
5155	54728	The former minister is accused of receiving seven billion lira.	The former minister is accused of receiving seven billion lira.	2602637	1471987727216	1471987727297	i	73
5155	54728	The former minister is accused of receiving seven billion lira.	The former minister is accused of receiving seven billion lira.	2602640	1471987727365	1471987727449	o	79
5155	54728	The former minister is accused of receiving seven billion lira.	The former minister is accused of receiving seven billion lira.	2602642	1471987727529	1471987727653	n	78
5155	54728	The former minister is accused of receiving seven billion lira.	The former minister is accused of receiving seven billion lira.	2602646	1471987727692	1471987727814	 	32
5155	54728	The former minister is accused of receiving seven billion lira.	The former minister is accused of receiving seven billion lira.	2602649	1471987727957	1471987728140	l	76
5155	54728	The former minister is accused of receiving seven billion lira.	The former minister is accused of receiving seven billion lira.	2602676	1471987728256	1471987728337	i	73
5155	54728	The former minister is accused of receiving seven billion lira.	The former minister is accused of receiving seven billion lira.	2602679	1471987728356	1471987728478	r	82
5155	54728	The former minister is accused of receiving seven billion lira.	The former minister is accused of receiving seven billion lira.	2602686	1471987728458	1471987728498	e	69
5155	54728	The former minister is accused of receiving seven billion lira.	The former minister is accused of receiving seven billion lira.	2602691	1471987728805	1471987728865	BKSP	8
5155	54728	The former minister is accused of receiving seven billion lira.	The former minister is accused of receiving seven billion lira.	2602695	1471987728897	1471987729060	a	65
5155	54728	The former minister is accused of receiving seven billion lira.	The former minister is accused of receiving seven billion lira.	2602699	1471987729057	1471987729159	.	190
5155	54741	Until he can practice for a couple of weeks, we won't have him.	Until he can practice for a couple of weeks, we won't have him.	2602896	1471987731205	1471987731512	SHIFT	16
5155	54741	Until he can practice for a couple of weeks, we won't have him.	Until he can practice for a couple of weeks, we won't have him.	2602890	1471987731345	1471987731474	U	85
5155	54741	Until he can practice for a couple of weeks, we won't have him.	Until he can practice for a couple of weeks, we won't have him.	2602900	1471987731582	1471987731722	n	78
5155	54741	Until he can practice for a couple of weeks, we won't have him.	Until he can practice for a couple of weeks, we won't have him.	2602904	1471987731797	1471987731920	t	84
5155	54741	Until he can practice for a couple of weeks, we won't have him.	Until he can practice for a couple of weeks, we won't have him.	2602908	1471987731881	1471987731983	i	73
5155	54741	Until he can practice for a couple of weeks, we won't have him.	Until he can practice for a couple of weeks, we won't have him.	2602913	1471987732061	1471987732184	l	76
5155	54741	Until he can practice for a couple of weeks, we won't have him.	Until he can practice for a couple of weeks, we won't have him.	2602938	1471987732216	1471987732315	 	32
5155	54741	Until he can practice for a couple of weeks, we won't have him.	Until he can practice for a couple of weeks, we won't have him.	2602941	1471987732360	1471987732487	h	72
5155	54741	Until he can practice for a couple of weeks, we won't have him.	Until he can practice for a couple of weeks, we won't have him.	2602946	1471987732463	1471987732595	e	69
5155	54741	Until he can practice for a couple of weeks, we won't have him.	Until he can practice for a couple of weeks, we won't have him.	2602949	1471987732591	1471987732686	 	32
5155	54741	Until he can practice for a couple of weeks, we won't have him.	Until he can practice for a couple of weeks, we won't have him.	2602954	1471987732690	1471987732813	c	67
5155	54741	Until he can practice for a couple of weeks, we won't have him.	Until he can practice for a couple of weeks, we won't have him.	2602971	1471987732789	1471987732932	a	65
5155	54741	Until he can practice for a couple of weeks, we won't have him.	Until he can practice for a couple of weeks, we won't have him.	2602975	1471987732869	1471987732989	n	78
5155	54741	Until he can practice for a couple of weeks, we won't have him.	Until he can practice for a couple of weeks, we won't have him.	2602977	1471987733028	1471987733148	 	32
5155	54741	Until he can practice for a couple of weeks, we won't have him.	Until he can practice for a couple of weeks, we won't have him.	2602981	1471987733216	1471987733337	p	80
5155	54741	Until he can practice for a couple of weeks, we won't have him.	Until he can practice for a couple of weeks, we won't have him.	2602984	1471987733317	1471987733416	r	82
5155	54741	Until he can practice for a couple of weeks, we won't have him.	Until he can practice for a couple of weeks, we won't have him.	2602988	1471987733436	1471987733622	a	65
5155	54741	Until he can practice for a couple of weeks, we won't have him.	Until he can practice for a couple of weeks, we won't have him.	2603009	1471987733622	1471987733702	c	67
5155	54741	Until he can practice for a couple of weeks, we won't have him.	Until he can practice for a couple of weeks, we won't have him.	2603011	1471987733830	1471987733872	t	84
5155	54741	Until he can practice for a couple of weeks, we won't have him.	Until he can practice for a couple of weeks, we won't have him.	2603012	1471987733870	1471987733951	i	73
5155	54741	Until he can practice for a couple of weeks, we won't have him.	Until he can practice for a couple of weeks, we won't have him.	2603015	1471987734508	1471987734634	c	67
5155	54741	Until he can practice for a couple of weeks, we won't have him.	Until he can practice for a couple of weeks, we won't have him.	2603018	1471987734630	1471987734773	e	69
5155	54741	Until he can practice for a couple of weeks, we won't have him.	Until he can practice for a couple of weeks, we won't have him.	2603036	1471987734710	1471987734813	 	32
5155	54741	Until he can practice for a couple of weeks, we won't have him.	Until he can practice for a couple of weeks, we won't have him.	2603039	1471987734870	1471987734972	f	70
5155	54741	Until he can practice for a couple of weeks, we won't have him.	Until he can practice for a couple of weeks, we won't have him.	2603045	1471987734972	1471987735092	o	79
5155	54741	Until he can practice for a couple of weeks, we won't have him.	Until he can practice for a couple of weeks, we won't have him.	2603050	1471987735054	1471987735153	r	82
5155	54741	Until he can practice for a couple of weeks, we won't have him.	Until he can practice for a couple of weeks, we won't have him.	2603056	1471987735173	1471987735277	 	32
5155	54741	Until he can practice for a couple of weeks, we won't have him.	Until he can practice for a couple of weeks, we won't have him.	2603060	1471987735277	1471987735398	a	65
5155	54741	Until he can practice for a couple of weeks, we won't have him.	Until he can practice for a couple of weeks, we won't have him.	2603070	1471987735378	1471987735499	 	32
5155	54741	Until he can practice for a couple of weeks, we won't have him.	Until he can practice for a couple of weeks, we won't have him.	2603074	1471987735617	1471987735737	c	67
5155	54741	Until he can practice for a couple of weeks, we won't have him.	Until he can practice for a couple of weeks, we won't have him.	2603076	1471987735658	1471987735801	o	79
5155	54741	Until he can practice for a couple of weeks, we won't have him.	Until he can practice for a couple of weeks, we won't have him.	2603081	1471987735797	1471987735880	u	85
5155	54741	Until he can practice for a couple of weeks, we won't have him.	Until he can practice for a couple of weeks, we won't have him.	2603086	1471987735954	1471987736056	p	80
5155	54741	Until he can practice for a couple of weeks, we won't have him.	Until he can practice for a couple of weeks, we won't have him.	2603090	1471987736140	1471987736259	l	76
5155	54741	Until he can practice for a couple of weeks, we won't have him.	Until he can practice for a couple of weeks, we won't have him.	2603112	1471987736239	1471987736360	e	69
5155	54741	Until he can practice for a couple of weeks, we won't have him.	Until he can practice for a couple of weeks, we won't have him.	2603116	1471987736384	1471987736484	 	32
5155	54741	Until he can practice for a couple of weeks, we won't have him.	Until he can practice for a couple of weeks, we won't have him.	2603119	1471987736484	1471987736626	o	79
5155	54741	Until he can practice for a couple of weeks, we won't have him.	Until he can practice for a couple of weeks, we won't have him.	2603123	1471987736586	1471987736690	f	70
5155	54741	Until he can practice for a couple of weeks, we won't have him.	Until he can practice for a couple of weeks, we won't have him.	2603128	1471987736687	1471987736828	 	32
5155	54741	Until he can practice for a couple of weeks, we won't have him.	Until he can practice for a couple of weeks, we won't have him.	2603132	1471987736850	1471987736950	w	87
5155	54741	Until he can practice for a couple of weeks, we won't have him.	Until he can practice for a couple of weeks, we won't have him.	2603194	1471987736930	1471987737037	e	69
5155	54741	Until he can practice for a couple of weeks, we won't have him.	Until he can practice for a couple of weeks, we won't have him.	2603198	1471987737077	1471987737207	e	69
5155	54741	Until he can practice for a couple of weeks, we won't have him.	Until he can practice for a couple of weeks, we won't have him.	2603205	1471987737246	1471987737365	k	75
5155	54741	Until he can practice for a couple of weeks, we won't have him.	Until he can practice for a couple of weeks, we won't have him.	2603207	1471987737444	1471987737585	s	83
5155	54741	Until he can practice for a couple of weeks, we won't have him.	Until he can practice for a couple of weeks, we won't have him.	2603211	1471987737643	1471987737783	,	188
5155	54741	Until he can practice for a couple of weeks, we won't have him.	Until he can practice for a couple of weeks, we won't have him.	2603214	1471987737867	1471987737973	 	32
5155	54741	Until he can practice for a couple of weeks, we won't have him.	Until he can practice for a couple of weeks, we won't have him.	2603295	1471987738165	1471987738365	w	87
5155	54741	Until he can practice for a couple of weeks, we won't have him.	Until he can practice for a couple of weeks, we won't have him.	2603299	1471987738490	1471987738570	BKSP	8
5155	54741	Until he can practice for a couple of weeks, we won't have him.	Until he can practice for a couple of weeks, we won't have him.	2603302	1471987738856	1471987739017	w	87
5155	54741	Until he can practice for a couple of weeks, we won't have him.	Until he can practice for a couple of weeks, we won't have him.	2603306	1471987738960	1471987739099	e	69
5155	54741	Until he can practice for a couple of weeks, we won't have him.	Until he can practice for a couple of weeks, we won't have him.	2603308	1471987739063	1471987739160	 	32
5155	54741	Until he can practice for a couple of weeks, we won't have him.	Until he can practice for a couple of weeks, we won't have him.	2603311	1471987739251	1471987739413	w	87
5155	54741	Until he can practice for a couple of weeks, we won't have him.	Until he can practice for a couple of weeks, we won't have him.	2603354	1471987739373	1471987739454	o	79
5155	54741	Until he can practice for a couple of weeks, we won't have him.	Until he can practice for a couple of weeks, we won't have him.	2603357	1471987739518	1471987739624	n	78
5155	54741	Until he can practice for a couple of weeks, we won't have him.	Until he can practice for a couple of weeks, we won't have him.	2603359	1471987739758	1471987739899	'	222
5155	54741	Until he can practice for a couple of weeks, we won't have him.	Until he can practice for a couple of weeks, we won't have him.	2603361	1471987739899	1471987740043	t	84
5155	54741	Until he can practice for a couple of weeks, we won't have him.	Until he can practice for a couple of weeks, we won't have him.	2603363	1471987740061	1471987740185	 	32
5155	54741	Until he can practice for a couple of weeks, we won't have him.	Until he can practice for a couple of weeks, we won't have him.	2603365	1471987740286	1471987740428	h	72
5155	54741	Until he can practice for a couple of weeks, we won't have him.	Until he can practice for a couple of weeks, we won't have him.	2603398	1471987740408	1471987740534	a	65
5155	54741	Until he can practice for a couple of weeks, we won't have him.	Until he can practice for a couple of weeks, we won't have him.	2603404	1471987740530	1471987740673	v	86
5155	54741	Until he can practice for a couple of weeks, we won't have him.	Until he can practice for a couple of weeks, we won't have him.	2603411	1471987740677	1471987740793	e	69
5155	54741	Until he can practice for a couple of weeks, we won't have him.	Until he can practice for a couple of weeks, we won't have him.	2603417	1471987740737	1471987740815	 	32
5155	54741	Until he can practice for a couple of weeks, we won't have him.	Until he can practice for a couple of weeks, we won't have him.	2603422	1471987740901	1471987741022	h	72
5155	54741	Until he can practice for a couple of weeks, we won't have him.	Until he can practice for a couple of weeks, we won't have him.	2603428	1471987741043	1471987741128	i	73
5155	54741	Until he can practice for a couple of weeks, we won't have him.	Until he can practice for a couple of weeks, we won't have him.	2603446	1471987741208	1471987741313	m	77
5155	54741	Until he can practice for a couple of weeks, we won't have him.	Until he can practice for a couple of weeks, we won't have him.	2603448	1471987741386	1471987741545	.	190
5155	54758	The other figure is the top 15 contracts.	The other figure is the top 15 contracts.	2603579	1471987743461	1471987743688	SHIFT	16
5155	54758	The other figure is the top 15 contracts.	The other figure is the top 15 contracts.	2603582	1471987743624	1471987743767	T	84
5155	54758	The other figure is the top 15 contracts.	The other figure is the top 15 contracts.	2603585	1471987743728	1471987743870	h	72
5155	54758	The other figure is the top 15 contracts.	The other figure is the top 15 contracts.	2603589	1471987743846	1471987743987	e	69
5155	54758	The other figure is the top 15 contracts.	The other figure is the top 15 contracts.	2603592	1471987743967	1471987744088	 	32
5155	54758	The other figure is the top 15 contracts.	The other figure is the top 15 contracts.	2603606	1471987744068	1471987744171	o	79
5155	54758	The other figure is the top 15 contracts.	The other figure is the top 15 contracts.	2603608	1471987744202	1471987744340	t	84
5155	54758	The other figure is the top 15 contracts.	The other figure is the top 15 contracts.	2603610	1471987744324	1471987744428	h	72
5155	54758	The other figure is the top 15 contracts.	The other figure is the top 15 contracts.	2603612	1471987744384	1471987744546	e	69
5155	54758	The other figure is the top 15 contracts.	The other figure is the top 15 contracts.	2603614	1471987744485	1471987744629	r	82
5155	54758	The other figure is the top 15 contracts.	The other figure is the top 15 contracts.	2603694	1471987744624	1471987744727	 	32
5155	54758	The other figure is the top 15 contracts.	The other figure is the top 15 contracts.	2603695	1471987744757	1471987744883	f	70
5155	54758	The other figure is the top 15 contracts.	The other figure is the top 15 contracts.	2603696	1471987744859	1471987744963	i	73
5155	54758	The other figure is the top 15 contracts.	The other figure is the top 15 contracts.	2603697	1471987745017	1471987745139	g	71
5155	54758	The other figure is the top 15 contracts.	The other figure is the top 15 contracts.	2603698	1471987745099	1471987745240	u	85
5155	54758	The other figure is the top 15 contracts.	The other figure is the top 15 contracts.	2603699	1471987745260	1471987745383	r	82
5155	54758	The other figure is the top 15 contracts.	The other figure is the top 15 contracts.	2603688	1471987745383	1471987745505	e	69
5155	54758	The other figure is the top 15 contracts.	The other figure is the top 15 contracts.	2603690	1471987745540	1471987745663	 	32
5155	54758	The other figure is the top 15 contracts.	The other figure is the top 15 contracts.	2603691	1471987745706	1471987745850	i	73
5155	54758	The other figure is the top 15 contracts.	The other figure is the top 15 contracts.	2603692	1471987745830	1471987745929	s	83
5155	54758	The other figure is the top 15 contracts.	The other figure is the top 15 contracts.	2603693	1471987745949	1471987746054	 	32
5155	54758	The other figure is the top 15 contracts.	The other figure is the top 15 contracts.	2603701	1471987746034	1471987746113	t	84
5155	54758	The other figure is the top 15 contracts.	The other figure is the top 15 contracts.	2603703	1471987746145	1471987746266	h	72
5155	54758	The other figure is the top 15 contracts.	The other figure is the top 15 contracts.	2603707	1471987746246	1471987746386	e	69
5155	54758	The other figure is the top 15 contracts.	The other figure is the top 15 contracts.	2603713	1471987746366	1471987746488	 	32
5155	54758	The other figure is the top 15 contracts.	The other figure is the top 15 contracts.	2603717	1471987746521	1471987746641	t	84
5155	54758	The other figure is the top 15 contracts.	The other figure is the top 15 contracts.	2603770	1471987746621	1471987746700	o	79
5155	54758	The other figure is the top 15 contracts.	The other figure is the top 15 contracts.	2603777	1471987746788	1471987746890	p	80
5155	54758	The other figure is the top 15 contracts.	The other figure is the top 15 contracts.	2603782	1471987746956	1471987747098	 	32
5155	54758	The other figure is the top 15 contracts.	The other figure is the top 15 contracts.	2603787	1471987747170	1471987747312	1	49
5155	54758	The other figure is the top 15 contracts.	The other figure is the top 15 contracts.	2603791	1471987747560	1471987747675	5	53
5155	54758	The other figure is the top 15 contracts.	The other figure is the top 15 contracts.	2603794	1471987747713	1471987747834	 	32
5155	54758	The other figure is the top 15 contracts.	The other figure is the top 15 contracts.	2603820	1471987747919	1471987748043	c	67
5155	54758	The other figure is the top 15 contracts.	The other figure is the top 15 contracts.	2603822	1471987748023	1471987748124	o	79
5155	54758	The other figure is the top 15 contracts.	The other figure is the top 15 contracts.	2603824	1471987748182	1471987748347	n	78
5155	54758	The other figure is the top 15 contracts.	The other figure is the top 15 contracts.	2603826	1471987748287	1471987748387	t	84
5155	54758	The other figure is the top 15 contracts.	The other figure is the top 15 contracts.	2603827	1471987748479	1471987748601	r	82
5155	54758	The other figure is the top 15 contracts.	The other figure is the top 15 contracts.	2603907	1471987748686	1471987748728	CAPS_LOCK	20
5155	54758	The other figure is the top 15 contracts.	The other figure is the top 15 contracts.	2603915	1471987749428	1471987749569	A	65
5155	54758	The other figure is the top 15 contracts.	The other figure is the top 15 contracts.	2603921	1471987749633	1471987749753	C	67
5155	54758	The other figure is the top 15 contracts.	The other figure is the top 15 contracts.	2603928	1471987749907	1471987749985	BKSP	8
5155	54758	The other figure is the top 15 contracts.	The other figure is the top 15 contracts.	2603932	1471987750067	1471987750147	BKSP	8
5155	54758	The other figure is the top 15 contracts.	The other figure is the top 15 contracts.	2603936	1471987750131	1471987750248	CAPS_LOCK	20
5155	54758	The other figure is the top 15 contracts.	The other figure is the top 15 contracts.	2603943	1471987750453	1471987750594	a	65
5155	54758	The other figure is the top 15 contracts.	The other figure is the top 15 contracts.	2603945	1471987750635	1471987750740	c	67
5155	54758	The other figure is the top 15 contracts.	The other figure is the top 15 contracts.	2603951	1471987750860	1471987750959	t	84
5155	54758	The other figure is the top 15 contracts.	The other figure is the top 15 contracts.	2603954	1471987751042	1471987751183	s	83
5155	54758	The other figure is the top 15 contracts.	The other figure is the top 15 contracts.	2603956	1471987751163	1471987751244	.	190
5155	54769	Check with Vince Strohmeyer.	Check with Vince Strohmeyer.	2604071	1471987753749	1471987753970	SHIFT	16
5155	54769	Check with Vince Strohmeyer.	Check with Vince Strohmeyer.	2604075	1471987753909	1471987754054	C	67
5155	54769	Check with Vince Strohmeyer.	Check with Vince Strohmeyer.	2604078	1471987754050	1471987754172	h	72
5155	54769	Check with Vince Strohmeyer.	Check with Vince Strohmeyer.	2604081	1471987754132	1471987754256	e	69
5155	54769	Check with Vince Strohmeyer.	Check with Vince Strohmeyer.	2604083	1471987754290	1471987754433	c	67
5155	54769	Check with Vince Strohmeyer.	Check with Vince Strohmeyer.	2604091	1471987754393	1471987754515	k	75
5155	54769	Check with Vince Strohmeyer.	Check with Vince Strohmeyer.	2604093	1471987754515	1471987754635	 	32
5155	54769	Check with Vince Strohmeyer.	Check with Vince Strohmeyer.	2604098	1471987754615	1471987754718	w	87
5155	54769	Check with Vince Strohmeyer.	Check with Vince Strohmeyer.	2604099	1471987754698	1471987754777	i	73
5155	54769	Check with Vince Strohmeyer.	Check with Vince Strohmeyer.	2604101	1471987754814	1471987754934	t	84
5155	54769	Check with Vince Strohmeyer.	Check with Vince Strohmeyer.	2604119	1471987754914	1471987755015	h	72
5155	54769	Check with Vince Strohmeyer.	Check with Vince Strohmeyer.	2604121	1471987755035	1471987755178	 	32
5155	54769	Check with Vince Strohmeyer.	Check with Vince Strohmeyer.	2604124	1471987755158	1471987755446	SHIFT	16
5155	54769	Check with Vince Strohmeyer.	Check with Vince Strohmeyer.	2604127	1471987755422	1471987755566	V	86
5155	54769	Check with Vince Strohmeyer.	Check with Vince Strohmeyer.	2604130	1471987755774	1471987755876	i	73
5155	54769	Check with Vince Strohmeyer.	Check with Vince Strohmeyer.	2604133	1471987755975	1471987756099	n	78
5155	54769	Check with Vince Strohmeyer.	Check with Vince Strohmeyer.	2604137	1471987756099	1471987756240	c	67
5155	54769	Check with Vince Strohmeyer.	Check with Vince Strohmeyer.	2604160	1471987756240	1471987756342	e	69
5155	54769	Check with Vince Strohmeyer.	Check with Vince Strohmeyer.	2604161	1471987756342	1471987756484	 	32
5155	54769	Check with Vince Strohmeyer.	Check with Vince Strohmeyer.	2604163	1471987756520	1471987756803	SHIFT	16
5155	54769	Check with Vince Strohmeyer.	Check with Vince Strohmeyer.	2604165	1471987756743	1471987756865	S	83
5155	54769	Check with Vince Strohmeyer.	Check with Vince Strohmeyer.	2604167	1471987756966	1471987757064	t	84
5155	54769	Check with Vince Strohmeyer.	Check with Vince Strohmeyer.	2604171	1471987757182	1471987757305	r	82
5155	54769	Check with Vince Strohmeyer.	Check with Vince Strohmeyer.	2604175	1471987757353	1471987757468	o	79
5155	54769	Check with Vince Strohmeyer.	Check with Vince Strohmeyer.	2604225	1471987757626	1471987757768	h	72
5155	54769	Check with Vince Strohmeyer.	Check with Vince Strohmeyer.	2604229	1471987757901	1471987758063	m	77
5155	54769	Check with Vince Strohmeyer.	Check with Vince Strohmeyer.	2604232	1471987758083	1471987758205	e	69
5155	54769	Check with Vince Strohmeyer.	Check with Vince Strohmeyer.	2604235	1471987758290	1471987758392	y	89
5155	54769	Check with Vince Strohmeyer.	Check with Vince Strohmeyer.	2604238	1471987758469	1471987758630	e	69
5155	54769	Check with Vince Strohmeyer.	Check with Vince Strohmeyer.	2604404	1471987758610	1471987758751	r	82
5155	54769	Check with Vince Strohmeyer.	Check with Vince Strohmeyer.	2604406	1471987759035	1471987759178	/	191
5155	54769	Check with Vince Strohmeyer.	Check with Vince Strohmeyer.	2604411	1471987759504	1471987759646	BKSP	8
5155	54769	Check with Vince Strohmeyer.	Check with Vince Strohmeyer.	2604414	1471987760225	1471987760368	.	190
5155	54777	You know that I love you.	You know that I love you.	2604509	1471987764519	1471987764823	SHIFT	16
5155	54777	You know that I love you.	You know that I love you.	2604511	1471987764700	1471987764823	Y	89
5155	54777	You know that I love you.	You know that I love you.	2604516	1471987764871	1471987765075	o	79
5155	54777	You know that I love you.	You know that I love you.	2604518	1471987765015	1471987765137	u	85
5155	54777	You know that I love you.	You know that I love you.	2604520	1471987765137	1471987765237	 	32
5155	54777	You know that I love you.	You know that I love you.	2604522	1471987765274	1471987765395	k	75
5155	54777	You know that I love you.	You know that I love you.	2604540	1471987765432	1471987765554	n	78
5155	54777	You know that I love you.	You know that I love you.	2604544	1471987765600	1471987765703	o	79
5155	54777	You know that I love you.	You know that I love you.	2604546	1471987765703	1471987765807	w	87
5155	54777	You know that I love you.	You know that I love you.	2604547	1471987765803	1471987765904	 	32
5155	54777	You know that I love you.	You know that I love you.	2604548	1471987765944	1471987766088	t	84
5155	54777	You know that I love you.	You know that I love you.	2604576	1471987766088	1471987766209	h	72
5155	54777	You know that I love you.	You know that I love you.	2604578	1471987766284	1471987766446	a	65
5155	54777	You know that I love you.	You know that I love you.	2604581	1471987766442	1471987766544	t	84
5155	54777	You know that I love you.	You know that I love you.	2604584	1471987766575	1471987766698	 	32
5155	54777	You know that I love you.	You know that I love you.	2604586	1471987766808	1471987767012	SHIFT	16
5155	54777	You know that I love you.	You know that I love you.	2604596	1471987766894	1471987767032	I	73
5155	54777	You know that I love you.	You know that I love you.	2604599	1471987767012	1471987767114	 	32
5155	54777	You know that I love you.	You know that I love you.	2604602	1471987767165	1471987767284	l	76
5155	54777	You know that I love you.	You know that I love you.	2604605	1471987767363	1471987767458	o	79
5155	54777	You know that I love you.	You know that I love you.	2604608	1471987767438	1471987767540	v	86
5155	54777	You know that I love you.	You know that I love you.	2604631	1471987767516	1471987767644	e	69
5155	54777	You know that I love you.	You know that I love you.	2604633	1471987767599	1471987767700	 	32
5155	54777	You know that I love you.	You know that I love you.	2604635	1471987767777	1471987767878	y	89
5155	54777	You know that I love you.	You know that I love you.	2604636	1471987767919	1471987768061	o	79
5155	54777	You know that I love you.	You know that I love you.	2604637	1471987768037	1471987768117	u	85
5155	54777	You know that I love you.	You know that I love you.	2604638	1471987768253	1471987768399	.	190
5155	54784	I need to talk to Tom Carlton, their decision-maker.	I need to talk to Tom Carlton, their decision-maker.	2604716	1471987770529	1471987770712	SHIFT	16
5155	54784	I need to talk to Tom Carlton, their decision-maker.	I need to talk to Tom Carlton, their decision-maker.	2604718	1471987770651	1471987770770	I	73
5155	54784	I need to talk to Tom Carlton, their decision-maker.	I need to talk to Tom Carlton, their decision-maker.	2604720	1471987770794	1471987770894	 	32
5155	54784	I need to talk to Tom Carlton, their decision-maker.	I need to talk to Tom Carlton, their decision-maker.	2604722	1471987770922	1471987771066	n	78
5155	54784	I need to talk to Tom Carlton, their decision-maker.	I need to talk to Tom Carlton, their decision-maker.	2604724	1471987771026	1471987771126	e	69
5155	54784	I need to talk to Tom Carlton, their decision-maker.	I need to talk to Tom Carlton, their decision-maker.	2604727	1471987771194	1471987771294	e	69
5155	54784	I need to talk to Tom Carlton, their decision-maker.	I need to talk to Tom Carlton, their decision-maker.	2604743	1471987771423	1471987771531	d	68
5155	54784	I need to talk to Tom Carlton, their decision-maker.	I need to talk to Tom Carlton, their decision-maker.	2604745	1471987771527	1471987771714	 	32
5155	54784	I need to talk to Tom Carlton, their decision-maker.	I need to talk to Tom Carlton, their decision-maker.	2604748	1471987771726	1471987771826	t	84
5155	54784	I need to talk to Tom Carlton, their decision-maker.	I need to talk to Tom Carlton, their decision-maker.	2604751	1471987771808	1471987771949	o	79
5155	54784	I need to talk to Tom Carlton, their decision-maker.	I need to talk to Tom Carlton, their decision-maker.	2604755	1471987771969	1471987772073	 	32
5155	54784	I need to talk to Tom Carlton, their decision-maker.	I need to talk to Tom Carlton, their decision-maker.	2604793	1471987772053	1471987772175	t	84
5155	54784	I need to talk to Tom Carlton, their decision-maker.	I need to talk to Tom Carlton, their decision-maker.	2604794	1471987772210	1471987772373	a	65
5155	54784	I need to talk to Tom Carlton, their decision-maker.	I need to talk to Tom Carlton, their decision-maker.	2604797	1471987772310	1471987772414	l	76
5155	54784	I need to talk to Tom Carlton, their decision-maker.	I need to talk to Tom Carlton, their decision-maker.	2604799	1471987772482	1471987772568	k	75
5155	54784	I need to talk to Tom Carlton, their decision-maker.	I need to talk to Tom Carlton, their decision-maker.	2604801	1471987772640	1471987772781	 	32
5155	54784	I need to talk to Tom Carlton, their decision-maker.	I need to talk to Tom Carlton, their decision-maker.	2604824	1471987772765	1471987772866	t	84
5155	54784	I need to talk to Tom Carlton, their decision-maker.	I need to talk to Tom Carlton, their decision-maker.	2604828	1471987772883	1471987772986	o	79
5155	54784	I need to talk to Tom Carlton, their decision-maker.	I need to talk to Tom Carlton, their decision-maker.	2604832	1471987773018	1471987773141	 	32
5155	54784	I need to talk to Tom Carlton, their decision-maker.	I need to talk to Tom Carlton, their decision-maker.	2604836	1471987773188	1471987773393	SHIFT	16
5155	54784	I need to talk to Tom Carlton, their decision-maker.	I need to talk to Tom Carlton, their decision-maker.	2604837	1471987773349	1471987773493	T	84
5155	54784	I need to talk to Tom Carlton, their decision-maker.	I need to talk to Tom Carlton, their decision-maker.	2604838	1471987773453	1471987773535	o	79
5155	54784	I need to talk to Tom Carlton, their decision-maker.	I need to talk to Tom Carlton, their decision-maker.	2604839	1471987773594	1471987773717	m	77
5155	54784	I need to talk to Tom Carlton, their decision-maker.	I need to talk to Tom Carlton, their decision-maker.	2604854	1471987773751	1471987773887	 	32
5155	54784	I need to talk to Tom Carlton, their decision-maker.	I need to talk to Tom Carlton, their decision-maker.	2604856	1471987773932	1471987774174	SHIFT	16
5155	54784	I need to talk to Tom Carlton, their decision-maker.	I need to talk to Tom Carlton, their decision-maker.	2604860	1471987774094	1471987774275	C	67
5155	54784	I need to talk to Tom Carlton, their decision-maker.	I need to talk to Tom Carlton, their decision-maker.	2604865	1471987774342	1471987774544	a	65
5155	54784	I need to talk to Tom Carlton, their decision-maker.	I need to talk to Tom Carlton, their decision-maker.	2604868	1471987774505	1471987774667	r	82
5155	54784	I need to talk to Tom Carlton, their decision-maker.	I need to talk to Tom Carlton, their decision-maker.	2604869	1471987774711	1471987774914	l	76
5155	54784	I need to talk to Tom Carlton, their decision-maker.	I need to talk to Tom Carlton, their decision-maker.	2604892	1471987774985	1471987775087	t	84
5155	54784	I need to talk to Tom Carlton, their decision-maker.	I need to talk to Tom Carlton, their decision-maker.	2604897	1471987775207	1471987775312	o	79
5155	54784	I need to talk to Tom Carlton, their decision-maker.	I need to talk to Tom Carlton, their decision-maker.	2604901	1471987775390	1471987775509	n	78
5155	54784	I need to talk to Tom Carlton, their decision-maker.	I need to talk to Tom Carlton, their decision-maker.	2604905	1471987775691	1471987775814	,	188
5155	54784	I need to talk to Tom Carlton, their decision-maker.	I need to talk to Tom Carlton, their decision-maker.	2604909	1471987775842	1471987775984	 	32
5155	54784	I need to talk to Tom Carlton, their decision-maker.	I need to talk to Tom Carlton, their decision-maker.	2604921	1471987775965	1471987776067	t	84
5155	54784	I need to talk to Tom Carlton, their decision-maker.	I need to talk to Tom Carlton, their decision-maker.	2604923	1471987776087	1471987776190	h	72
5155	54784	I need to talk to Tom Carlton, their decision-maker.	I need to talk to Tom Carlton, their decision-maker.	2604925	1471987776190	1471987776288	e	69
5155	54784	I need to talk to Tom Carlton, their decision-maker.	I need to talk to Tom Carlton, their decision-maker.	2604927	1471987776272	1471987776392	i	73
5155	54784	I need to talk to Tom Carlton, their decision-maker.	I need to talk to Tom Carlton, their decision-maker.	2604930	1471987776351	1471987776473	r	82
5155	54784	I need to talk to Tom Carlton, their decision-maker.	I need to talk to Tom Carlton, their decision-maker.	2604933	1471987776494	1471987776615	 	32
5155	54784	I need to talk to Tom Carlton, their decision-maker.	I need to talk to Tom Carlton, their decision-maker.	2604959	1471987776777	1471987776873	d	68
5155	54784	I need to talk to Tom Carlton, their decision-maker.	I need to talk to Tom Carlton, their decision-maker.	2604963	1471987776948	1471987777068	e	69
5155	54784	I need to talk to Tom Carlton, their decision-maker.	I need to talk to Tom Carlton, their decision-maker.	2604966	1471987777128	1471987777274	c	67
5155	54784	I need to talk to Tom Carlton, their decision-maker.	I need to talk to Tom Carlton, their decision-maker.	2604969	1471987777265	1471987777366	i	73
5155	54784	I need to talk to Tom Carlton, their decision-maker.	I need to talk to Tom Carlton, their decision-maker.	2604971	1471987777386	1471987777512	s	83
5155	54784	I need to talk to Tom Carlton, their decision-maker.	I need to talk to Tom Carlton, their decision-maker.	2605010	1471987777508	1471987777588	i	73
5155	54784	I need to talk to Tom Carlton, their decision-maker.	I need to talk to Tom Carlton, their decision-maker.	2605013	1471987777670	1471987777750	o	79
5155	54784	I need to talk to Tom Carlton, their decision-maker.	I need to talk to Tom Carlton, their decision-maker.	2605016	1471987777824	1471987777923	n	78
5155	54784	I need to talk to Tom Carlton, their decision-maker.	I need to talk to Tom Carlton, their decision-maker.	2605022	1471987778032	1471987778152	-	189
5155	54784	I need to talk to Tom Carlton, their decision-maker.	I need to talk to Tom Carlton, their decision-maker.	2605024	1471987778314	1471987778456	m	77
5155	54784	I need to talk to Tom Carlton, their decision-maker.	I need to talk to Tom Carlton, their decision-maker.	2605081	1471987778436	1471987778580	a	65
5155	54784	I need to talk to Tom Carlton, their decision-maker.	I need to talk to Tom Carlton, their decision-maker.	2605084	1471987778540	1471987778661	k	75
5155	54784	I need to talk to Tom Carlton, their decision-maker.	I need to talk to Tom Carlton, their decision-maker.	2605086	1471987778661	1471987778822	e	69
5155	54784	I need to talk to Tom Carlton, their decision-maker.	I need to talk to Tom Carlton, their decision-maker.	2605088	1471987778802	1471987778926	r	82
5155	54784	I need to talk to Tom Carlton, their decision-maker.	I need to talk to Tom Carlton, their decision-maker.	2605090	1471987779504	1471987779604	.	190
5155	54794	He is expected to play when the Browns return to action next week.	He is expected to play when the Browns return to action next week.	2605281	1471987781808	1471987782012	SHIFT	16
5155	54794	He is expected to play when the Browns return to action next week.	He is expected to play when the Browns return to action next week.	2605283	1471987781928	1471987782072	H	72
5155	54794	He is expected to play when the Browns return to action next week.	He is expected to play when the Browns return to action next week.	2605286	1471987782157	1471987782276	 	32
5155	54794	He is expected to play when the Browns return to action next week.	He is expected to play when the Browns return to action next week.	2605287	1471987782486	1471987782566	BKSP	8
5155	54794	He is expected to play when the Browns return to action next week.	He is expected to play when the Browns return to action next week.	2605289	1471987782594	1471987782736	e	69
5155	54794	He is expected to play when the Browns return to action next week.	He is expected to play when the Browns return to action next week.	2605291	1471987782716	1471987782820	 	32
5155	54794	He is expected to play when the Browns return to action next week.	He is expected to play when the Browns return to action next week.	2605293	1471987782840	1471987782963	i	73
5155	54794	He is expected to play when the Browns return to action next week.	He is expected to play when the Browns return to action next week.	2605323	1471987782939	1471987783063	s	83
5155	54794	He is expected to play when the Browns return to action next week.	He is expected to play when the Browns return to action next week.	2605328	1471987783063	1471987783162	 	32
5155	54794	He is expected to play when the Browns return to action next week.	He is expected to play when the Browns return to action next week.	2605331	1471987783302	1471987783402	e	69
5155	54794	He is expected to play when the Browns return to action next week.	He is expected to play when the Browns return to action next week.	2605336	1471987783525	1471987783644	x	88
5155	54794	He is expected to play when the Browns return to action next week.	He is expected to play when the Browns return to action next week.	2605340	1471987783607	1471987783769	p	80
5155	54794	He is expected to play when the Browns return to action next week.	He is expected to play when the Browns return to action next week.	2605380	1471987783749	1471987783850	e	69
5155	54794	He is expected to play when the Browns return to action next week.	He is expected to play when the Browns return to action next week.	2605381	1471987783970	1471987784054	c	67
5155	54794	He is expected to play when the Browns return to action next week.	He is expected to play when the Browns return to action next week.	2605382	1471987784162	1471987784280	t	84
5155	54794	He is expected to play when the Browns return to action next week.	He is expected to play when the Browns return to action next week.	2605383	1471987784324	1471987784432	e	69
5155	54794	He is expected to play when the Browns return to action next week.	He is expected to play when the Browns return to action next week.	2605384	1471987784534	1471987784657	d	68
5155	54794	He is expected to play when the Browns return to action next week.	He is expected to play when the Browns return to action next week.	2605385	1471987784677	1471987784819	 	32
5155	54794	He is expected to play when the Browns return to action next week.	He is expected to play when the Browns return to action next week.	2605403	1471987784799	1471987784902	t	84
5155	54794	He is expected to play when the Browns return to action next week.	He is expected to play when the Browns return to action next week.	2605405	1471987784924	1471987785063	o	79
5155	54794	He is expected to play when the Browns return to action next week.	He is expected to play when the Browns return to action next week.	2605409	1471987785083	1471987785188	 	32
5155	54794	He is expected to play when the Browns return to action next week.	He is expected to play when the Browns return to action next week.	2605411	1471987785231	1471987785331	p	80
5155	54794	He is expected to play when the Browns return to action next week.	He is expected to play when the Browns return to action next week.	2605413	1471987785418	1471987785559	l	76
5155	54794	He is expected to play when the Browns return to action next week.	He is expected to play when the Browns return to action next week.	2605427	1471987785526	1471987785641	a	65
5155	54794	He is expected to play when the Browns return to action next week.	He is expected to play when the Browns return to action next week.	2605429	1471987785678	1471987785799	y	89
5155	54794	He is expected to play when the Browns return to action next week.	He is expected to play when the Browns return to action next week.	2605431	1471987785854	1471987785955	 	32
5155	54794	He is expected to play when the Browns return to action next week.	He is expected to play when the Browns return to action next week.	2605434	1471987785955	1471987786098	w	87
5155	54794	He is expected to play when the Browns return to action next week.	He is expected to play when the Browns return to action next week.	2605437	1471987786058	1471987786180	h	72
5155	54794	He is expected to play when the Browns return to action next week.	He is expected to play when the Browns return to action next week.	2605455	1471987786160	1471987786322	e	69
5155	54794	He is expected to play when the Browns return to action next week.	He is expected to play when the Browns return to action next week.	2605457	1471987786282	1471987786406	n	78
5155	54794	He is expected to play when the Browns return to action next week.	He is expected to play when the Browns return to action next week.	2605460	1471987786422	1471987786548	 	32
5155	54794	He is expected to play when the Browns return to action next week.	He is expected to play when the Browns return to action next week.	2605463	1471987786524	1471987786668	t	84
5155	54794	He is expected to play when the Browns return to action next week.	He is expected to play when the Browns return to action next week.	2605465	1471987786646	1471987786766	h	72
5155	54794	He is expected to play when the Browns return to action next week.	He is expected to play when the Browns return to action next week.	2605485	1471987786750	1471987786890	e	69
5155	54794	He is expected to play when the Browns return to action next week.	He is expected to play when the Browns return to action next week.	2605487	1471987786876	1471987786950	 	32
5155	54794	He is expected to play when the Browns return to action next week.	He is expected to play when the Browns return to action next week.	2605490	1471987787071	1471987787269	SHIFT	16
5155	54794	He is expected to play when the Browns return to action next week.	He is expected to play when the Browns return to action next week.	2605492	1471987787176	1471987787290	B	66
5155	54794	He is expected to play when the Browns return to action next week.	He is expected to play when the Browns return to action next week.	2605494	1471987787322	1471987787445	r	82
5155	54794	He is expected to play when the Browns return to action next week.	He is expected to play when the Browns return to action next week.	2605497	1471987787441	1471987787566	o	79
5155	54794	He is expected to play when the Browns return to action next week.	He is expected to play when the Browns return to action next week.	2605499	1471987787590	1471987787709	w	87
5155	54794	He is expected to play when the Browns return to action next week.	He is expected to play when the Browns return to action next week.	2605516	1471987787709	1471987787813	n	78
5155	54794	He is expected to play when the Browns return to action next week.	He is expected to play when the Browns return to action next week.	2605517	1471987787848	1471987787973	s	83
5155	54794	He is expected to play when the Browns return to action next week.	He is expected to play when the Browns return to action next week.	2605518	1471987787973	1471987788057	 	32
5155	54794	He is expected to play when the Browns return to action next week.	He is expected to play when the Browns return to action next week.	2605519	1471987788085	1471987788226	r	82
5155	54794	He is expected to play when the Browns return to action next week.	He is expected to play when the Browns return to action next week.	2605520	1471987788226	1471987788346	e	69
5155	54794	He is expected to play when the Browns return to action next week.	He is expected to play when the Browns return to action next week.	2605521	1471987788392	1471987788514	t	84
5155	54794	He is expected to play when the Browns return to action next week.	He is expected to play when the Browns return to action next week.	2605540	1471987788498	1471987788616	u	85
5155	54794	He is expected to play when the Browns return to action next week.	He is expected to play when the Browns return to action next week.	2605543	1471987788636	1471987788763	r	82
5155	54794	He is expected to play when the Browns return to action next week.	He is expected to play when the Browns return to action next week.	2605544	1471987788759	1471987788861	n	78
5155	54794	He is expected to play when the Browns return to action next week.	He is expected to play when the Browns return to action next week.	2605545	1471987788944	1471987789073	 	32
5155	54794	He is expected to play when the Browns return to action next week.	He is expected to play when the Browns return to action next week.	2605546	1471987789069	1471987789176	t	84
5155	54794	He is expected to play when the Browns return to action next week.	He is expected to play when the Browns return to action next week.	2605554	1471987789176	1471987789293	o	79
5155	54794	He is expected to play when the Browns return to action next week.	He is expected to play when the Browns return to action next week.	2605557	1471987789293	1471987789412	 	32
5155	54794	He is expected to play when the Browns return to action next week.	He is expected to play when the Browns return to action next week.	2605559	1471987789412	1471987789539	a	65
5155	54794	He is expected to play when the Browns return to action next week.	He is expected to play when the Browns return to action next week.	2605562	1471987789554	1471987789681	c	67
5155	54794	He is expected to play when the Browns return to action next week.	He is expected to play when the Browns return to action next week.	2605565	1471987789814	1471987789934	t	84
5155	54794	He is expected to play when the Browns return to action next week.	He is expected to play when the Browns return to action next week.	2605589	1471987789894	1471987789997	i	73
5155	54794	He is expected to play when the Browns return to action next week.	He is expected to play when the Browns return to action next week.	2605591	1471987790066	1471987790151	o	79
5155	54794	He is expected to play when the Browns return to action next week.	He is expected to play when the Browns return to action next week.	2605592	1471987790228	1471987790367	n	78
5155	54794	He is expected to play when the Browns return to action next week.	He is expected to play when the Browns return to action next week.	2605593	1471987790386	1471987790490	 	32
5155	54794	He is expected to play when the Browns return to action next week.	He is expected to play when the Browns return to action next week.	2605594	1471987790542	1471987790683	n	78
5155	54794	He is expected to play when the Browns return to action next week.	He is expected to play when the Browns return to action next week.	2605596	1471987790683	1471987790780	e	69
5155	54794	He is expected to play when the Browns return to action next week.	He is expected to play when the Browns return to action next week.	2605612	1471987790886	1471987791033	x	88
5155	54794	He is expected to play when the Browns return to action next week.	He is expected to play when the Browns return to action next week.	2605614	1471987791152	1471987791252	t	84
5155	54794	He is expected to play when the Browns return to action next week.	He is expected to play when the Browns return to action next week.	2605616	1471987791284	1471987791428	 	32
5155	54794	He is expected to play when the Browns return to action next week.	He is expected to play when the Browns return to action next week.	2605618	1471987791428	1471987791552	w	87
5155	54794	He is expected to play when the Browns return to action next week.	He is expected to play when the Browns return to action next week.	2605683	1471987791528	1471987791633	e	69
5155	54794	He is expected to play when the Browns return to action next week.	He is expected to play when the Browns return to action next week.	2605686	1471987791686	1471987791789	e	69
5155	54794	He is expected to play when the Browns return to action next week.	He is expected to play when the Browns return to action next week.	2605688	1471987791852	1471987791969	k	75
5155	54794	He is expected to play when the Browns return to action next week.	He is expected to play when the Browns return to action next week.	2605690	1471987792123	1471987792221	.	190
