PARTICIPANT_ID	TEST_SECTION_ID	SENTENCE	USER_INPUT	KEYSTROKE_ID	PRESS_TIME	RELEASE_TIME	LETTER	KEYCODE
5247	55628	Maybe traffic will be light on Thursday.	Maybe traffic will be light on Thursday.	2645192	1471988586029	1471988586240	SHIFT	16
5247	55628	Maybe traffic will be light on Thursday.	Maybe traffic will be light on Thursday.	2645195	1471988586185	1471988586265	M	77
5247	55628	Maybe traffic will be light on Thursday.	Maybe traffic will be light on Thursday.	2645196	1471988586325	1471988586455	a	65
5247	55628	Maybe traffic will be light on Thursday.	Maybe traffic will be light on Thursday.	2645197	1471988586470	1471988586631	y	89
5247	55628	Maybe traffic will be light on Thursday.	Maybe traffic will be light on Thursday.	2645198	1471988586586	1471988586711	b	66
5247	55628	Maybe traffic will be light on Thursday.	Maybe traffic will be light on Thursday.	2645199	1471988586811	1471988586912	e	69
5247	55628	Maybe traffic will be light on Thursday.	Maybe traffic will be light on Thursday.	2645208	1471988586992	1471988587072	 	32
5247	55628	Maybe traffic will be light on Thursday.	Maybe traffic will be light on Thursday.	2645210	1471988587307	1471988587392	t	84
5247	55628	Maybe traffic will be light on Thursday.	Maybe traffic will be light on Thursday.	2645212	1471988587502	1471988587648	r	82
5247	55628	Maybe traffic will be light on Thursday.	Maybe traffic will be light on Thursday.	2645215	1471988587643	1471988587794	a	65
5247	55628	Maybe traffic will be light on Thursday.	Maybe traffic will be light on Thursday.	2645217	1471988587944	1471988588029	f	70
5247	55628	Maybe traffic will be light on Thursday.	Maybe traffic will be light on Thursday.	2645243	1471988588169	1471988588255	i	73
5247	55628	Maybe traffic will be light on Thursday.	Maybe traffic will be light on Thursday.	2645246	1471988588706	1471988588841	BKSP	8
5247	55628	Maybe traffic will be light on Thursday.	Maybe traffic will be light on Thursday.	2645248	1471988588906	1471988588991	f	70
5247	55628	Maybe traffic will be light on Thursday.	Maybe traffic will be light on Thursday.	2645251	1471988589037	1471988589127	i	73
5247	55628	Maybe traffic will be light on Thursday.	Maybe traffic will be light on Thursday.	2645254	1471988589172	1471988589302	c	67
5247	55628	Maybe traffic will be light on Thursday.	Maybe traffic will be light on Thursday.	2645255	1471988589317	1471988589392	 	32
5247	55628	Maybe traffic will be light on Thursday.	Maybe traffic will be light on Thursday.	2645263	1471988589463	1471988589563	w	87
5247	55628	Maybe traffic will be light on Thursday.	Maybe traffic will be light on Thursday.	2645264	1471988589573	1471988589648	i	73
5247	55628	Maybe traffic will be light on Thursday.	Maybe traffic will be light on Thursday.	2645265	1471988589758	1471988589794	l	76
5247	55628	Maybe traffic will be light on Thursday.	Maybe traffic will be light on Thursday.	2645266	1471988589879	1471988589989	l	76
5247	55628	Maybe traffic will be light on Thursday.	Maybe traffic will be light on Thursday.	2645267	1471988589989	1471988590059	 	32
5247	55628	Maybe traffic will be light on Thursday.	Maybe traffic will be light on Thursday.	2645278	1471988590134	1471988590209	n	66
5247	55628	Maybe traffic will be light on Thursday.	Maybe traffic will be light on Thursday.	2645281	1471988590229	1471988590330	e	69
5247	55628	Maybe traffic will be light on Thursday.	Maybe traffic will be light on Thursday.	2645284	1471988590575	1471988590635	BKSP	8
5247	55628	Maybe traffic will be light on Thursday.	Maybe traffic will be light on Thursday.	2645286	1471988590832	1471988590911	BKSP	8
5247	55628	Maybe traffic will be light on Thursday.	Maybe traffic will be light on Thursday.	2645290	1471988591061	1471988591172	e	69
5247	55628	Maybe traffic will be light on Thursday.	Maybe traffic will be light on Thursday.	2645292	1471988591237	1471988591322	 	32
5247	55628	Maybe traffic will be light on Thursday.	Maybe traffic will be light on Thursday.	2645303	1471988591402	1471988591457	l	76
5247	55628	Maybe traffic will be light on Thursday.	Maybe traffic will be light on Thursday.	2645305	1471988591557	1471988591643	i	73
5247	55628	Maybe traffic will be light on Thursday.	Maybe traffic will be light on Thursday.	2645307	1471988591698	1471988591769	g	71
5247	55628	Maybe traffic will be light on Thursday.	Maybe traffic will be light on Thursday.	2645309	1471988591798	1471988591872	h	72
5247	55628	Maybe traffic will be light on Thursday.	Maybe traffic will be light on Thursday.	2645310	1471988591902	1471988591979	t	84
5247	55628	Maybe traffic will be light on Thursday.	Maybe traffic will be light on Thursday.	2645319	1471988591994	1471988592084	 	32
5247	55628	Maybe traffic will be light on Thursday.	Maybe traffic will be light on Thursday.	2645321	1471988592174	1471988592274	o	79
5247	55628	Maybe traffic will be light on Thursday.	Maybe traffic will be light on Thursday.	2645323	1471988592349	1471988592495	n	78
5247	55628	Maybe traffic will be light on Thursday.	Maybe traffic will be light on Thursday.	2645327	1471988592490	1471988592580	 	32
5247	55628	Maybe traffic will be light on Thursday.	Maybe traffic will be light on Thursday.	2645330	1471988592760	1471988592916	SHIFT	16
5247	55628	Maybe traffic will be light on Thursday.	Maybe traffic will be light on Thursday.	2645338	1471988592841	1471988592946	T	84
5247	55628	Maybe traffic will be light on Thursday.	Maybe traffic will be light on Thursday.	2645339	1471988592966	1471988593036	h	72
5247	55628	Maybe traffic will be light on Thursday.	Maybe traffic will be light on Thursday.	2645340	1471988593111	1471988593176	u	85
5247	55628	Maybe traffic will be light on Thursday.	Maybe traffic will be light on Thursday.	2645341	1471988593196	1471988593277	r	82
5247	55628	Maybe traffic will be light on Thursday.	Maybe traffic will be light on Thursday.	2645342	1471988593372	1471988593552	s	83
5247	55628	Maybe traffic will be light on Thursday.	Maybe traffic will be light on Thursday.	2645344	1471988593662	1471988593858	d	68
5247	55628	Maybe traffic will be light on Thursday.	Maybe traffic will be light on Thursday.	2645373	1471988593828	1471988593963	a	65
5247	55628	Maybe traffic will be light on Thursday.	Maybe traffic will be light on Thursday.	2645375	1471988593998	1471988594084	y	89
5247	55628	Maybe traffic will be light on Thursday.	Maybe traffic will be light on Thursday.	2645378	1471988594284	1471988594515	SHIFT	16
5247	55628	Maybe traffic will be light on Thursday.	Maybe traffic will be light on Thursday.	2645382	1471988595001	1471988595076	.	190
5247	55635	Whether that package is training or material has yet to be determined.	Whether that package is training or material has yet to be determined.	2645533	1471988599186	1471988599852	SHIFT	16
5247	55635	Whether that package is training or material has yet to be determined.	Whether that package is training or material has yet to be determined.	2645536	1471988599797	1471988599897	W	87
5247	55635	Whether that package is training or material has yet to be determined.	Whether that package is training or material has yet to be determined.	2645538	1471988600002	1471988600068	h	72
5247	55635	Whether that package is training or material has yet to be determined.	Whether that package is training or material has yet to be determined.	2645539	1471988600103	1471988600258	e	69
5247	55635	Whether that package is training or material has yet to be determined.	Whether that package is training or material has yet to be determined.	2645540	1471988600228	1471988600402	a	65
5247	55635	Whether that package is training or material has yet to be determined.	Whether that package is training or material has yet to be determined.	2645546	1471988600368	1471988600499	t	84
5247	55635	Whether that package is training or material has yet to be determined.	Whether that package is training or material has yet to be determined.	2645547	1471988600534	1471988600614	h	72
5247	55635	Whether that package is training or material has yet to be determined.	Whether that package is training or material has yet to be determined.	2645548	1471988600599	1471988600709	e	69
5247	55635	Whether that package is training or material has yet to be determined.	Whether that package is training or material has yet to be determined.	2645550	1471988600669	1471988600809	r	82
5247	55635	Whether that package is training or material has yet to be determined.	Whether that package is training or material has yet to be determined.	2645553	1471988600850	1471988600935	 	32
5247	55635	Whether that package is training or material has yet to be determined.	Whether that package is training or material has yet to be determined.	2645556	1471988600985	1471988601060	t	84
5247	55635	Whether that package is training or material has yet to be determined.	Whether that package is training or material has yet to be determined.	2645571	1471988601100	1471988601171	h	72
5247	55635	Whether that package is training or material has yet to be determined.	Whether that package is training or material has yet to be determined.	2645572	1471988601171	1471988601281	a	65
5247	55635	Whether that package is training or material has yet to be determined.	Whether that package is training or material has yet to be determined.	2645574	1471988601240	1471988601331	t	84
5247	55635	Whether that package is training or material has yet to be determined.	Whether that package is training or material has yet to be determined.	2645576	1471988601351	1471988601426	 	32
5247	55635	Whether that package is training or material has yet to be determined.	Whether that package is training or material has yet to be determined.	2645578	1471988601521	1471988601602	p	80
5247	55635	Whether that package is training or material has yet to be determined.	Whether that package is training or material has yet to be determined.	2645602	1471988601631	1471988601737	a	65
5247	55635	Whether that package is training or material has yet to be determined.	Whether that package is training or material has yet to be determined.	2645604	1471988601822	1471988601907	c	67
5247	55635	Whether that package is training or material has yet to be determined.	Whether that package is training or material has yet to be determined.	2645605	1471988601962	1471988602047	k	75
5247	55635	Whether that package is training or material has yet to be determined.	Whether that package is training or material has yet to be determined.	2645606	1471988602198	1471988602333	a	65
5247	55635	Whether that package is training or material has yet to be determined.	Whether that package is training or material has yet to be determined.	2645607	1471988602383	1471988602539	g	71
5247	55635	Whether that package is training or material has yet to be determined.	Whether that package is training or material has yet to be determined.	2645628	1471988602488	1471988602594	e	69
5247	55635	Whether that package is training or material has yet to be determined.	Whether that package is training or material has yet to be determined.	2645630	1471988602694	1471988602789	 	32
5247	55635	Whether that package is training or material has yet to be determined.	Whether that package is training or material has yet to be determined.	2645632	1471988602929	1471988603010	u	73
5247	55635	Whether that package is training or material has yet to be determined.	Whether that package is training or material has yet to be determined.	2645633	1471988603020	1471988603106	s	83
5247	55635	Whether that package is training or material has yet to be determined.	Whether that package is training or material has yet to be determined.	2645634	1471988603181	1471988603230	 	32
5247	55635	Whether that package is training or material has yet to be determined.	Whether that package is training or material has yet to be determined.	2645662	1471988603345	1471988603406	BKSP	8
5247	55635	Whether that package is training or material has yet to be determined.	Whether that package is training or material has yet to be determined.	2645663	1471988603486	1471988603546	BKSP	8
5247	55635	Whether that package is training or material has yet to be determined.	Whether that package is training or material has yet to be determined.	2645664	1471988604097	1471988604167	BKSP	8
5247	55635	Whether that package is training or material has yet to be determined.	Whether that package is training or material has yet to be determined.	2645665	1471988604228	1471988604322	s	83
5247	55635	Whether that package is training or material has yet to be determined.	Whether that package is training or material has yet to be determined.	2645666	1471988604328	1471988604428	 	32
5247	55635	Whether that package is training or material has yet to be determined.	Whether that package is training or material has yet to be determined.	2645667	1471988604784	1471988604874	t	84
5247	55635	Whether that package is training or material has yet to be determined.	Whether that package is training or material has yet to be determined.	2645668	1471988605014	1471988605165	r	82
5247	55635	Whether that package is training or material has yet to be determined.	Whether that package is training or material has yet to be determined.	2645681	1471988605135	1471988605265	a	65
5247	55635	Whether that package is training or material has yet to be determined.	Whether that package is training or material has yet to be determined.	2645683	1471988605300	1471988605455	i	73
5247	55635	Whether that package is training or material has yet to be determined.	Whether that package is training or material has yet to be determined.	2645685	1471988605430	1471988605526	n	78
5247	55635	Whether that package is training or material has yet to be determined.	Whether that package is training or material has yet to be determined.	2645686	1471988605586	1471988605726	i	73
5247	55635	Whether that package is training or material has yet to be determined.	Whether that package is training or material has yet to be determined.	2645687	1471988605671	1471988605776	n	78
5247	55635	Whether that package is training or material has yet to be determined.	Whether that package is training or material has yet to be determined.	2645689	1471988605796	1471988605881	g	71
5247	55635	Whether that package is training or material has yet to be determined.	Whether that package is training or material has yet to be determined.	2645700	1471988605896	1471988605992	 	32
5247	55635	Whether that package is training or material has yet to be determined.	Whether that package is training or material has yet to be determined.	2645701	1471988606122	1471988606232	o	79
5247	55635	Whether that package is training or material has yet to be determined.	Whether that package is training or material has yet to be determined.	2645702	1471988606247	1471988606342	r	82
5247	55635	Whether that package is training or material has yet to be determined.	Whether that package is training or material has yet to be determined.	2645703	1471988606342	1471988606438	 	32
5247	55635	Whether that package is training or material has yet to be determined.	Whether that package is training or material has yet to be determined.	2645704	1471988606532	1471988606622	m	77
5247	55635	Whether that package is training or material has yet to be determined.	Whether that package is training or material has yet to be determined.	2645727	1471988606683	1471988606839	a	65
5247	55635	Whether that package is training or material has yet to be determined.	Whether that package is training or material has yet to be determined.	2645729	1471988606799	1471988606934	t	84
5247	55635	Whether that package is training or material has yet to be determined.	Whether that package is training or material has yet to be determined.	2645730	1471988607029	1471988607149	e	69
5247	55635	Whether that package is training or material has yet to be determined.	Whether that package is training or material has yet to be determined.	2645731	1471988607119	1471988607225	r	82
5247	55635	Whether that package is training or material has yet to be determined.	Whether that package is training or material has yet to be determined.	2645732	1471988607340	1471988607465	i	73
5247	55635	Whether that package is training or material has yet to be determined.	Whether that package is training or material has yet to be determined.	2645768	1471988607540	1471988607656	a	65
5247	55635	Whether that package is training or material has yet to be determined.	Whether that package is training or material has yet to be determined.	2645772	1471988607761	1471988607906	l	76
5247	55635	Whether that package is training or material has yet to be determined.	Whether that package is training or material has yet to be determined.	2645775	1471988607941	1471988608022	 	32
5247	55635	Whether that package is training or material has yet to be determined.	Whether that package is training or material has yet to be determined.	2645778	1471988608272	1471988608377	h	72
5247	55635	Whether that package is training or material has yet to be determined.	Whether that package is training or material has yet to be determined.	2645781	1471988608427	1471988608608	a	65
5247	55635	Whether that package is training or material has yet to be determined.	Whether that package is training or material has yet to be determined.	2645798	1471988608768	1471988608854	s	83
5247	55635	Whether that package is training or material has yet to be determined.	Whether that package is training or material has yet to be determined.	2645801	1471988608949	1471988609024	 	32
5247	55635	Whether that package is training or material has yet to be determined.	Whether that package is training or material has yet to be determined.	2645804	1471988609189	1471988609264	y	89
5247	55635	Whether that package is training or material has yet to be determined.	Whether that package is training or material has yet to be determined.	2645807	1471988609284	1471988609435	e	69
5247	55635	Whether that package is training or material has yet to be determined.	Whether that package is training or material has yet to be determined.	2645847	1471988609400	1471988609505	t	84
5247	55635	Whether that package is training or material has yet to be determined.	Whether that package is training or material has yet to be determined.	2645850	1471988609515	1471988609595	 	32
5247	55635	Whether that package is training or material has yet to be determined.	Whether that package is training or material has yet to be determined.	2645851	1471988609685	1471988609781	t	84
5247	55635	Whether that package is training or material has yet to be determined.	Whether that package is training or material has yet to be determined.	2645852	1471988609886	1471988610016	o	79
5247	55635	Whether that package is training or material has yet to be determined.	Whether that package is training or material has yet to be determined.	2645853	1471988609996	1471988610096	 	32
5247	55635	Whether that package is training or material has yet to be determined.	Whether that package is training or material has yet to be determined.	2645855	1471988610202	1471988610277	b	66
5247	55635	Whether that package is training or material has yet to be determined.	Whether that package is training or material has yet to be determined.	2645899	1471988610317	1471988610432	e	69
5247	55635	Whether that package is training or material has yet to be determined.	Whether that package is training or material has yet to be determined.	2645902	1471988610437	1471988610527	 	32
5247	55635	Whether that package is training or material has yet to be determined.	Whether that package is training or material has yet to be determined.	2645905	1471988610923	1471988611129	d	68
5247	55635	Whether that package is training or material has yet to be determined.	Whether that package is training or material has yet to be determined.	2645908	1471988611034	1471988611169	e	69
5247	55635	Whether that package is training or material has yet to be determined.	Whether that package is training or material has yet to be determined.	2645912	1471988611324	1471988611445	t	84
5247	55635	Whether that package is training or material has yet to be determined.	Whether that package is training or material has yet to be determined.	2645949	1471988611465	1471988611605	e	69
5247	55635	Whether that package is training or material has yet to be determined.	Whether that package is training or material has yet to be determined.	2645950	1471988611575	1471988611705	r	82
5247	55635	Whether that package is training or material has yet to be determined.	Whether that package is training or material has yet to be determined.	2645951	1471988611805	1471988611881	m	77
5247	55635	Whether that package is training or material has yet to be determined.	Whether that package is training or material has yet to be determined.	2645952	1471988612688	1471988612842	i	73
5247	55635	Whether that package is training or material has yet to be determined.	Whether that package is training or material has yet to be determined.	2645998	1471988612798	1471988612908	n	78
5247	55635	Whether that package is training or material has yet to be determined.	Whether that package is training or material has yet to be determined.	2645999	1471988613013	1471988613129	e	69
5247	55635	Whether that package is training or material has yet to be determined.	Whether that package is training or material has yet to be determined.	2646000	1471988613114	1471988613249	d	68
5247	55635	Whether that package is training or material has yet to be determined.	Whether that package is training or material has yet to be determined.	2646001	1471988613379	1471988613479	.	190
5247	55635	Whether that package is training or material has yet to be determined.	Whether that package is training or material has yet to be determined.	2646002	1471988615885	1471988615960	BKSP	8
5247	55649	on Friday, October 26th.	on Friday, October 26th.	2646108	1471988620531	1471988620687	o	79
5247	55649	on Friday, October 26th.	on Friday, October 26th.	2646114	1471988620616	1471988620752	n	78
5247	55649	on Friday, October 26th.	on Friday, October 26th.	2646117	1471988620747	1471988620827	 	32
5247	55649	on Friday, October 26th.	on Friday, October 26th.	2646126	1471988620847	1471988621067	SHIFT	16
5247	55649	on Friday, October 26th.	on Friday, October 26th.	2646122	1471988620972	1471988621052	F	70
5247	55649	on Friday, October 26th.	on Friday, October 26th.	2646129	1471988621143	1471988621218	r	82
5247	55649	on Friday, October 26th.	on Friday, October 26th.	2646148	1471988621272	1471988621342	i	73
5247	55649	on Friday, October 26th.	on Friday, October 26th.	2646152	1471988621422	1471988621664	d	68
5247	55649	on Friday, October 26th.	on Friday, October 26th.	2646155	1471988621594	1471988621734	a	65
5247	55649	on Friday, October 26th.	on Friday, October 26th.	2646156	1471988621744	1471988621829	y	89
5247	55649	on Friday, October 26th.	on Friday, October 26th.	2646157	1471988622085	1471988622210	,	188
5247	55649	on Friday, October 26th.	on Friday, October 26th.	2646175	1471988622211	1471988622300	 	32
5247	55649	on Friday, October 26th.	on Friday, October 26th.	2646177	1471988622406	1471988622561	SHIFT	16
5247	55649	on Friday, October 26th.	on Friday, October 26th.	2646180	1471988622521	1471988622596	O	79
5247	55649	on Friday, October 26th.	on Friday, October 26th.	2646183	1471988622741	1471988622812	c	67
5247	55649	on Friday, October 26th.	on Friday, October 26th.	2646185	1471988622982	1471988623067	t	84
5247	55649	on Friday, October 26th.	on Friday, October 26th.	2646188	1471988623127	1471988623187	o	79
5247	55649	on Friday, October 26th.	on Friday, October 26th.	2646233	1471988623333	1471988623413	b	66
5247	55649	on Friday, October 26th.	on Friday, October 26th.	2646234	1471988623478	1471988623583	e	69
5247	55649	on Friday, October 26th.	on Friday, October 26th.	2646235	1471988623553	1471988623694	r	82
5247	55649	on Friday, October 26th.	on Friday, October 26th.	2646236	1471988623899	1471988623979	 	32
5247	55649	on Friday, October 26th.	on Friday, October 26th.	2646237	1471988624481	1471988624566	2	50
5247	55649	on Friday, October 26th.	on Friday, October 26th.	2646283	1471988624947	1471988625017	6	54
5247	55649	on Friday, October 26th.	on Friday, October 26th.	2646285	1471988625182	1471988625272	t	84
5247	55649	on Friday, October 26th.	on Friday, October 26th.	2646287	1471988625323	1471988625382	h	72
5247	55649	on Friday, October 26th.	on Friday, October 26th.	2646290	1471988625860	1471988625939	.	190
5247	55653	You can have all the horsepower and it won't matter.	You can have all the horsepower and it won't matter.	2646447	1471988629948	1471988630159	SHIFT	16
5247	55653	You can have all the horsepower and it won't matter.	You can have all the horsepower and it won't matter.	2646446	1471988630089	1471988630144	Y	89
5247	55653	You can have all the horsepower and it won't matter.	You can have all the horsepower and it won't matter.	2646448	1471988630254	1471988630319	o	79
5247	55653	You can have all the horsepower and it won't matter.	You can have all the horsepower and it won't matter.	2646449	1471988630425	1471988630555	u	85
5247	55653	You can have all the horsepower and it won't matter.	You can have all the horsepower and it won't matter.	2646450	1471988630525	1471988630625	 	32
5247	55653	You can have all the horsepower and it won't matter.	You can have all the horsepower and it won't matter.	2646451	1471988630685	1471988630841	c	67
5247	55653	You can have all the horsepower and it won't matter.	You can have all the horsepower and it won't matter.	2646483	1471988630800	1471988630936	a	65
5247	55653	You can have all the horsepower and it won't matter.	You can have all the horsepower and it won't matter.	2646485	1471988630976	1471988631091	n	78
5247	55653	You can have all the horsepower and it won't matter.	You can have all the horsepower and it won't matter.	2646487	1471988631161	1471988631267	 	32
5247	55653	You can have all the horsepower and it won't matter.	You can have all the horsepower and it won't matter.	2646489	1471988631883	1471988631993	h	72
5247	55653	You can have all the horsepower and it won't matter.	You can have all the horsepower and it won't matter.	2646491	1471988632048	1471988632134	a	65
5247	55653	You can have all the horsepower and it won't matter.	You can have all the horsepower and it won't matter.	2646515	1471988632199	1471988632274	b	86
5247	55653	You can have all the horsepower and it won't matter.	You can have all the horsepower and it won't matter.	2646520	1471988632304	1471988632394	e	69
5247	55653	You can have all the horsepower and it won't matter.	You can have all the horsepower and it won't matter.	2646523	1471988632444	1471988632525	 	32
5247	55653	You can have all the horsepower and it won't matter.	You can have all the horsepower and it won't matter.	2646526	1471988632645	1471988632710	BKSP	8
5247	55653	You can have all the horsepower and it won't matter.	You can have all the horsepower and it won't matter.	2646527	1471988632790	1471988632835	BKSP	8
5247	55653	You can have all the horsepower and it won't matter.	You can have all the horsepower and it won't matter.	2646528	1471988632905	1471988632966	BKSP	8
5247	55653	You can have all the horsepower and it won't matter.	You can have all the horsepower and it won't matter.	2646530	1471988633041	1471988633141	e	69
5247	55653	You can have all the horsepower and it won't matter.	You can have all the horsepower and it won't matter.	2646532	1471988633161	1471988633256	 	32
5247	55653	You can have all the horsepower and it won't matter.	You can have all the horsepower and it won't matter.	2646534	1471988633316	1471988633397	a	65
5247	55653	You can have all the horsepower and it won't matter.	You can have all the horsepower and it won't matter.	2646537	1471988633402	1471988633482	l	76
5247	55653	You can have all the horsepower and it won't matter.	You can have all the horsepower and it won't matter.	2646539	1471988633557	1471988633647	l	76
5247	55653	You can have all the horsepower and it won't matter.	You can have all the horsepower and it won't matter.	2646541	1471988633652	1471988633748	 	32
5247	55653	You can have all the horsepower and it won't matter.	You can have all the horsepower and it won't matter.	2646543	1471988633813	1471988633908	t	84
5247	55653	You can have all the horsepower and it won't matter.	You can have all the horsepower and it won't matter.	2646574	1471988633903	1471988633998	h	72
5247	55653	You can have all the horsepower and it won't matter.	You can have all the horsepower and it won't matter.	2646576	1471988634028	1471988634118	e	69
5247	55653	You can have all the horsepower and it won't matter.	You can have all the horsepower and it won't matter.	2646578	1471988634148	1471988634214	 	32
5247	55653	You can have all the horsepower and it won't matter.	You can have all the horsepower and it won't matter.	2646580	1471988634424	1471988634479	j	72
5247	55653	You can have all the horsepower and it won't matter.	You can have all the horsepower and it won't matter.	2646581	1471988634750	1471988634825	BKSP	8
5247	55653	You can have all the horsepower and it won't matter.	You can have all the horsepower and it won't matter.	2646582	1471988634920	1471988634955	BKSP	8
5247	55653	You can have all the horsepower and it won't matter.	You can have all the horsepower and it won't matter.	2646584	1471988635396	1471988635467	h	72
5247	55653	You can have all the horsepower and it won't matter.	You can have all the horsepower and it won't matter.	2646627	1471988635552	1471988635622	o	79
5247	55653	You can have all the horsepower and it won't matter.	You can have all the horsepower and it won't matter.	2646629	1471988635822	1471988635928	r	82
5247	55653	You can have all the horsepower and it won't matter.	You can have all the horsepower and it won't matter.	2646632	1471988636559	1471988636745	s	83
5247	55653	You can have all the horsepower and it won't matter.	You can have all the horsepower and it won't matter.	2646635	1471988636704	1471988636850	e	69
5247	55653	You can have all the horsepower and it won't matter.	You can have all the horsepower and it won't matter.	2646638	1471988637015	1471988637176	p	80
5247	55653	You can have all the horsepower and it won't matter.	You can have all the horsepower and it won't matter.	2646665	1471988637301	1471988637406	o	79
5247	55653	You can have all the horsepower and it won't matter.	You can have all the horsepower and it won't matter.	2646668	1471988637431	1471988637542	w	87
5247	55653	You can have all the horsepower and it won't matter.	You can have all the horsepower and it won't matter.	2646671	1471988637652	1471988637797	e	69
5247	55653	You can have all the horsepower and it won't matter.	You can have all the horsepower and it won't matter.	2646673	1471988637747	1471988637882	r	82
5247	55653	You can have all the horsepower and it won't matter.	You can have all the horsepower and it won't matter.	2646675	1471988637947	1471988638032	 	32
5247	55653	You can have all the horsepower and it won't matter.	You can have all the horsepower and it won't matter.	2646686	1471988638093	1471988638182	a	65
5247	55653	You can have all the horsepower and it won't matter.	You can have all the horsepower and it won't matter.	2646687	1471988638188	1471988638278	n	78
5247	55653	You can have all the horsepower and it won't matter.	You can have all the horsepower and it won't matter.	2646688	1471988638302	1471988638394	d	68
5247	55653	You can have all the horsepower and it won't matter.	You can have all the horsepower and it won't matter.	2646690	1471988638429	1471988638504	 	32
5247	55653	You can have all the horsepower and it won't matter.	You can have all the horsepower and it won't matter.	2646692	1471988638564	1471988638659	i	73
5247	55653	You can have all the horsepower and it won't matter.	You can have all the horsepower and it won't matter.	2646720	1471988638704	1471988638815	t	84
5247	55653	You can have all the horsepower and it won't matter.	You can have all the horsepower and it won't matter.	2646721	1471988638825	1471988638895	 	32
5247	55653	You can have all the horsepower and it won't matter.	You can have all the horsepower and it won't matter.	2646722	1471988638970	1471988639075	w	87
5247	55653	You can have all the horsepower and it won't matter.	You can have all the horsepower and it won't matter.	2646723	1471988639095	1471988639185	o	79
5247	55653	You can have all the horsepower and it won't matter.	You can have all the horsepower and it won't matter.	2646724	1471988639311	1471988639401	n	78
5247	55653	You can have all the horsepower and it won't matter.	You can have all the horsepower and it won't matter.	2646770	1471988639922	1471988639987	'	222
5247	55653	You can have all the horsepower and it won't matter.	You can have all the horsepower and it won't matter.	2646772	1471988640148	1471988640228	t	84
5247	55653	You can have all the horsepower and it won't matter.	You can have all the horsepower and it won't matter.	2646774	1471988640333	1471988640432	 	32
5247	55653	You can have all the horsepower and it won't matter.	You can have all the horsepower and it won't matter.	2646776	1471988640630	1471988640724	m	77
5247	55653	You can have all the horsepower and it won't matter.	You can have all the horsepower and it won't matter.	2646778	1471988640799	1471988640925	a	65
5247	55653	You can have all the horsepower and it won't matter.	You can have all the horsepower and it won't matter.	2646822	1471988640965	1471988641040	t	84
5247	55653	You can have all the horsepower and it won't matter.	You can have all the horsepower and it won't matter.	2646823	1471988641135	1471988641210	t	84
5247	55653	You can have all the horsepower and it won't matter.	You can have all the horsepower and it won't matter.	2646824	1471988641230	1471988641366	e	69
5247	55653	You can have all the horsepower and it won't matter.	You can have all the horsepower and it won't matter.	2646825	1471988641340	1471988641431	r	82
5247	55653	You can have all the horsepower and it won't matter.	You can have all the horsepower and it won't matter.	2646826	1471988642067	1471988642167	.	190
5247	55665	I forgot one person when we spoke on Friday.	I forgot one person when we spoke on Friday.	2646959	1471988646197	1471988646453	SHIFT	16
5247	55665	I forgot one person when we spoke on Friday.	I forgot one person when we spoke on Friday.	2646961	1471988646412	1471988646498	I	73
5247	55665	I forgot one person when we spoke on Friday.	I forgot one person when we spoke on Friday.	2646963	1471988646553	1471988646633	 	32
5247	55665	I forgot one person when we spoke on Friday.	I forgot one person when we spoke on Friday.	2646966	1471988646693	1471988646788	f	70
5247	55665	I forgot one person when we spoke on Friday.	I forgot one person when we spoke on Friday.	2646969	1471988646808	1471988646874	o	79
5247	55665	I forgot one person when we spoke on Friday.	I forgot one person when we spoke on Friday.	2646972	1471988646929	1471988646994	r	82
5247	55665	I forgot one person when we spoke on Friday.	I forgot one person when we spoke on Friday.	2646980	1471988647109	1471988647184	g	71
5247	55665	I forgot one person when we spoke on Friday.	I forgot one person when we spoke on Friday.	2646981	1471988647229	1471988647305	o	79
5247	55665	I forgot one person when we spoke on Friday.	I forgot one person when we spoke on Friday.	2646982	1471988647330	1471988647425	t	84
5247	55665	I forgot one person when we spoke on Friday.	I forgot one person when we spoke on Friday.	2646983	1471988647450	1471988647525	 	32
5247	55665	I forgot one person when we spoke on Friday.	I forgot one person when we spoke on Friday.	2646984	1471988647600	1471988647676	o	79
5247	55665	I forgot one person when we spoke on Friday.	I forgot one person when we spoke on Friday.	2647011	1471988647771	1471988647826	n	78
5247	55665	I forgot one person when we spoke on Friday.	I forgot one person when we spoke on Friday.	2647013	1471988647901	1471988647961	e	69
5247	55665	I forgot one person when we spoke on Friday.	I forgot one person when we spoke on Friday.	2647017	1471988648071	1471988648152	 	32
5247	55665	I forgot one person when we spoke on Friday.	I forgot one person when we spoke on Friday.	2647022	1471988648232	1471988648317	p	80
5247	55665	I forgot one person when we spoke on Friday.	I forgot one person when we spoke on Friday.	2647025	1471988648362	1471988648477	e	69
5247	55665	I forgot one person when we spoke on Friday.	I forgot one person when we spoke on Friday.	2647051	1471988648442	1471988648542	r	82
5247	55665	I forgot one person when we spoke on Friday.	I forgot one person when we spoke on Friday.	2647054	1471988648648	1471988648743	s	83
5247	55665	I forgot one person when we spoke on Friday.	I forgot one person when we spoke on Friday.	2647057	1471988648768	1471988648852	o	79
5247	55665	I forgot one person when we spoke on Friday.	I forgot one person when we spoke on Friday.	2647059	1471988648954	1471988649059	n	78
5247	55665	I forgot one person when we spoke on Friday.	I forgot one person when we spoke on Friday.	2647062	1471988649119	1471988649204	e	69
5247	55665	I forgot one person when we spoke on Friday.	I forgot one person when we spoke on Friday.	2647065	1471988649294	1471988649375	 	32
5247	55665	I forgot one person when we spoke on Friday.	I forgot one person when we spoke on Friday.	2647139	1471988649420	1471988649560	w	87
5247	55665	I forgot one person when we spoke on Friday.	I forgot one person when we spoke on Friday.	2647140	1471988649535	1471988649635	e	69
5247	55665	I forgot one person when we spoke on Friday.	I forgot one person when we spoke on Friday.	2647141	1471988649716	1471988649771	 	32
5247	55665	I forgot one person when we spoke on Friday.	I forgot one person when we spoke on Friday.	2647142	1471988650021	1471988650081	BKSP	8
5247	55665	I forgot one person when we spoke on Friday.	I forgot one person when we spoke on Friday.	2647143	1471988650161	1471988650207	BKSP	8
5247	55665	I forgot one person when we spoke on Friday.	I forgot one person when we spoke on Friday.	2647146	1471988650282	1471988650327	BKSP	8
5247	55665	I forgot one person when we spoke on Friday.	I forgot one person when we spoke on Friday.	2647149	1471988650407	1471988650472	BKSP	8
5247	55665	I forgot one person when we spoke on Friday.	I forgot one person when we spoke on Friday.	2647153	1471988650547	1471988650632	BKSP	8
5247	55665	I forgot one person when we spoke on Friday.	I forgot one person when we spoke on Friday.	2647158	1471988650808	1471988650918	 	32
5247	55665	I forgot one person when we spoke on Friday.	I forgot one person when we spoke on Friday.	2647162	1471988650983	1471988651099	w	87
5247	55665	I forgot one person when we spoke on Friday.	I forgot one person when we spoke on Friday.	2647186	1471988651580	1471988651650	h	72
5247	55665	I forgot one person when we spoke on Friday.	I forgot one person when we spoke on Friday.	2647190	1471988651750	1471988651825	e	69
5247	55665	I forgot one person when we spoke on Friday.	I forgot one person when we spoke on Friday.	2647193	1471988651880	1471988652001	n	78
5247	55665	I forgot one person when we spoke on Friday.	I forgot one person when we spoke on Friday.	2647196	1471988651981	1471988652081	 	32
5247	55665	I forgot one person when we spoke on Friday.	I forgot one person when we spoke on Friday.	2647198	1471988652121	1471988652251	w	87
5247	55665	I forgot one person when we spoke on Friday.	I forgot one person when we spoke on Friday.	2647226	1471988652216	1471988652312	e	69
5247	55665	I forgot one person when we spoke on Friday.	I forgot one person when we spoke on Friday.	2647228	1471988652352	1471988652427	 	32
5247	55665	I forgot one person when we spoke on Friday.	I forgot one person when we spoke on Friday.	2647231	1471988652472	1471988652577	s	83
5247	55665	I forgot one person when we spoke on Friday.	I forgot one person when we spoke on Friday.	2647234	1471988652617	1471988652702	p	80
5247	55665	I forgot one person when we spoke on Friday.	I forgot one person when we spoke on Friday.	2647236	1471988652818	1471988652913	o	79
5247	55665	I forgot one person when we spoke on Friday.	I forgot one person when we spoke on Friday.	2647239	1471988653043	1471988653179	k	75
5247	55665	I forgot one person when we spoke on Friday.	I forgot one person when we spoke on Friday.	2647283	1471988653264	1471988653364	e	69
5247	55665	I forgot one person when we spoke on Friday.	I forgot one person when we spoke on Friday.	2647285	1471988653424	1471988653539	 	32
5247	55665	I forgot one person when we spoke on Friday.	I forgot one person when we spoke on Friday.	2647286	1471988653660	1471988653795	i	79
5247	55665	I forgot one person when we spoke on Friday.	I forgot one person when we spoke on Friday.	2647287	1471988654106	1471988654166	BKSP	8
5247	55665	I forgot one person when we spoke on Friday.	I forgot one person when we spoke on Friday.	2647290	1471988654301	1471988654422	n	78
5247	55665	I forgot one person when we spoke on Friday.	I forgot one person when we spoke on Friday.	2647358	1471988654467	1471988654542	 	32
5247	55665	I forgot one person when we spoke on Friday.	I forgot one person when we spoke on Friday.	2647364	1471988654767	1471988655108	SHIFT	16
5247	55665	I forgot one person when we spoke on Friday.	I forgot one person when we spoke on Friday.	2647361	1471988655028	1471988655093	F	70
5247	55665	I forgot one person when we spoke on Friday.	I forgot one person when we spoke on Friday.	2647367	1471988655182	1471988655269	r	82
5247	55665	I forgot one person when we spoke on Friday.	I forgot one person when we spoke on Friday.	2647370	1471988655324	1471988655384	i	73
5247	55665	I forgot one person when we spoke on Friday.	I forgot one person when we spoke on Friday.	2647372	1471988655554	1471988655845	d	68
5247	55665	I forgot one person when we spoke on Friday.	I forgot one person when we spoke on Friday.	2647383	1471988655700	1471988655865	a	65
5247	55665	I forgot one person when we spoke on Friday.	I forgot one person when we spoke on Friday.	2647384	1471988655866	1471988655950	y	89
5247	55665	I forgot one person when we spoke on Friday.	I forgot one person when we spoke on Friday.	2647386	1471988656161	1471988656336	.	190
5247	55677	Probably will be working.	Probably will be working.	2647526	1471988658877	1471988659153	SHIFT	16
5247	55677	Probably will be working.	Probably will be working.	2647528	1471988659103	1471988659178	P	80
5247	55677	Probably will be working.	Probably will be working.	2647531	1471988659263	1471988659338	r	82
5247	55677	Probably will be working.	Probably will be working.	2647535	1471988659368	1471988659428	o	79
5247	55677	Probably will be working.	Probably will be working.	2647539	1471988659564	1471988659634	b	66
5247	55677	Probably will be working.	Probably will be working.	2647542	1471988659674	1471988659764	a	65
5247	55677	Probably will be working.	Probably will be working.	2647567	1471988659789	1471988659834	b	66
5247	55677	Probably will be working.	Probably will be working.	2647570	1471988659950	1471988660020	l	76
5247	55677	Probably will be working.	Probably will be working.	2647571	1471988660165	1471988660255	y	89
5247	55677	Probably will be working.	Probably will be working.	2647572	1471988660270	1471988660341	 	32
5247	55677	Probably will be working.	Probably will be working.	2647573	1471988660421	1471988660526	w	87
5247	55677	Probably will be working.	Probably will be working.	2647612	1471988660546	1471988660612	i	73
5247	55677	Probably will be working.	Probably will be working.	2647617	1471988660746	1471988660797	l	76
5247	55677	Probably will be working.	Probably will be working.	2647622	1471988660897	1471988660996	l	76
5247	55677	Probably will be working.	Probably will be working.	2647626	1471988661032	1471988661108	 	32
5247	55677	Probably will be working.	Probably will be working.	2647631	1471988661253	1471988661328	b	66
5247	55677	Probably will be working.	Probably will be working.	2647657	1471988661388	1471988661473	e	69
5247	55677	Probably will be working.	Probably will be working.	2647661	1471988661493	1471988661578	 	32
5247	55677	Probably will be working.	Probably will be working.	2647663	1471988661654	1471988661774	w	87
5247	55677	Probably will be working.	Probably will be working.	2647667	1471988661769	1471988661849	o	79
5247	55677	Probably will be working.	Probably will be working.	2647669	1471988661904	1471988661994	r	82
5247	55677	Probably will be working.	Probably will be working.	2647677	1471988662009	1471988662100	k	75
5247	55677	Probably will be working.	Probably will be working.	2647678	1471988662190	1471988662370	i	73
5247	55677	Probably will be working.	Probably will be working.	2647681	1471988662285	1471988662420	n	78
5247	55677	Probably will be working.	Probably will be working.	2647685	1471988662375	1471988662476	g	71
5247	55677	Probably will be working.	Probably will be working.	2647688	1471988662551	1471988662686	.	190
5247	55682	Jeff had been serving as chairman and CEO of Enron Industrial Markets.	Jeff has been serving as chairman and CEO of Enron Industrial Markets.	2648069	1471988670119	1471988670625	SHIFT	16
5247	55682	Jeff had been serving as chairman and CEO of Enron Industrial Markets.	Jeff has been serving as chairman and CEO of Enron Industrial Markets.	2648064	1471988670490	1471988670560	J	74
5247	55682	Jeff had been serving as chairman and CEO of Enron Industrial Markets.	Jeff has been serving as chairman and CEO of Enron Industrial Markets.	2648072	1471988670775	1471988670866	e	69
5247	55682	Jeff had been serving as chairman and CEO of Enron Industrial Markets.	Jeff has been serving as chairman and CEO of Enron Industrial Markets.	2648075	1471988670946	1471988671001	f	70
5247	55682	Jeff had been serving as chairman and CEO of Enron Industrial Markets.	Jeff has been serving as chairman and CEO of Enron Industrial Markets.	2648078	1471988671106	1471988671191	f	70
5247	55682	Jeff had been serving as chairman and CEO of Enron Industrial Markets.	Jeff has been serving as chairman and CEO of Enron Industrial Markets.	2648083	1471988671246	1471988671327	 	32
5247	55682	Jeff had been serving as chairman and CEO of Enron Industrial Markets.	Jeff has been serving as chairman and CEO of Enron Industrial Markets.	2648133	1471988671472	1471988671532	h	72
5247	55682	Jeff had been serving as chairman and CEO of Enron Industrial Markets.	Jeff has been serving as chairman and CEO of Enron Industrial Markets.	2648135	1471988672269	1471988672389	a	65
5247	55682	Jeff had been serving as chairman and CEO of Enron Industrial Markets.	Jeff has been serving as chairman and CEO of Enron Industrial Markets.	2648138	1471988672374	1471988672474	s	83
5247	55682	Jeff had been serving as chairman and CEO of Enron Industrial Markets.	Jeff has been serving as chairman and CEO of Enron Industrial Markets.	2648141	1471988672519	1471988672620	 	32
5247	55682	Jeff had been serving as chairman and CEO of Enron Industrial Markets.	Jeff has been serving as chairman and CEO of Enron Industrial Markets.	2648145	1471988672715	1471988672805	b	66
5247	55682	Jeff had been serving as chairman and CEO of Enron Industrial Markets.	Jeff has been serving as chairman and CEO of Enron Industrial Markets.	2648163	1471988672845	1471988672915	e	69
5247	55682	Jeff had been serving as chairman and CEO of Enron Industrial Markets.	Jeff has been serving as chairman and CEO of Enron Industrial Markets.	2648164	1471988672989	1471988673096	e	69
5247	55682	Jeff had been serving as chairman and CEO of Enron Industrial Markets.	Jeff has been serving as chairman and CEO of Enron Industrial Markets.	2648166	1471988673131	1471988673256	n	78
5247	55682	Jeff had been serving as chairman and CEO of Enron Industrial Markets.	Jeff has been serving as chairman and CEO of Enron Industrial Markets.	2648168	1471988673241	1471988673336	 	32
5247	55682	Jeff had been serving as chairman and CEO of Enron Industrial Markets.	Jeff has been serving as chairman and CEO of Enron Industrial Markets.	2648170	1471988673410	1471988673492	s	83
5247	55682	Jeff had been serving as chairman and CEO of Enron Industrial Markets.	Jeff has been serving as chairman and CEO of Enron Industrial Markets.	2648198	1471988673607	1471988673726	e	69
5247	55682	Jeff had been serving as chairman and CEO of Enron Industrial Markets.	Jeff has been serving as chairman and CEO of Enron Industrial Markets.	2648199	1471988673692	1471988673818	r	82
5247	55682	Jeff had been serving as chairman and CEO of Enron Industrial Markets.	Jeff has been serving as chairman and CEO of Enron Industrial Markets.	2648201	1471988673888	1471988673948	b	86
5247	55682	Jeff had been serving as chairman and CEO of Enron Industrial Markets.	Jeff has been serving as chairman and CEO of Enron Industrial Markets.	2648205	1471988674274	1471988674404	BKSP	8
5247	55682	Jeff had been serving as chairman and CEO of Enron Industrial Markets.	Jeff has been serving as chairman and CEO of Enron Industrial Markets.	2648209	1471988674635	1471988674825	i	73
5247	55682	Jeff had been serving as chairman and CEO of Enron Industrial Markets.	Jeff has been serving as chairman and CEO of Enron Industrial Markets.	2648250	1471988674760	1471988674885	n	78
5247	55682	Jeff had been serving as chairman and CEO of Enron Industrial Markets.	Jeff has been serving as chairman and CEO of Enron Industrial Markets.	2648253	1471988674880	1471988674975	g	71
5247	55682	Jeff had been serving as chairman and CEO of Enron Industrial Markets.	Jeff has been serving as chairman and CEO of Enron Industrial Markets.	2648257	1471988675060	1471988675146	 	32
5247	55682	Jeff had been serving as chairman and CEO of Enron Industrial Markets.	Jeff has been serving as chairman and CEO of Enron Industrial Markets.	2648263	1471988675291	1471988675446	a	65
5247	55682	Jeff had been serving as chairman and CEO of Enron Industrial Markets.	Jeff has been serving as chairman and CEO of Enron Industrial Markets.	2648266	1471988675491	1471988675612	s	83
5247	55682	Jeff had been serving as chairman and CEO of Enron Industrial Markets.	Jeff has been serving as chairman and CEO of Enron Industrial Markets.	2648270	1471988675642	1471988675737	 	32
5247	55682	Jeff had been serving as chairman and CEO of Enron Industrial Markets.	Jeff has been serving as chairman and CEO of Enron Industrial Markets.	2648296	1471988675767	1471988675897	a	65
5247	55682	Jeff had been serving as chairman and CEO of Enron Industrial Markets.	Jeff has been serving as chairman and CEO of Enron Industrial Markets.	2648298	1471988675882	1471988675944	 	32
5247	55682	Jeff had been serving as chairman and CEO of Enron Industrial Markets.	Jeff has been serving as chairman and CEO of Enron Industrial Markets.	2648302	1471988676023	1471988676138	c	67
5247	55682	Jeff had been serving as chairman and CEO of Enron Industrial Markets.	Jeff has been serving as chairman and CEO of Enron Industrial Markets.	2648306	1471988676147	1471988676243	h	72
5247	55682	Jeff had been serving as chairman and CEO of Enron Industrial Markets.	Jeff has been serving as chairman and CEO of Enron Industrial Markets.	2648312	1471988676348	1471988676499	a	65
5247	55682	Jeff had been serving as chairman and CEO of Enron Industrial Markets.	Jeff has been serving as chairman and CEO of Enron Industrial Markets.	2648410	1471988676559	1471988676684	i	73
5247	55682	Jeff had been serving as chairman and CEO of Enron Industrial Markets.	Jeff has been serving as chairman and CEO of Enron Industrial Markets.	2648413	1471988676739	1471988676845	r	82
5247	55682	Jeff had been serving as chairman and CEO of Enron Industrial Markets.	Jeff has been serving as chairman and CEO of Enron Industrial Markets.	2648419	1471988677121	1471988677226	m	77
5247	55682	Jeff had been serving as chairman and CEO of Enron Industrial Markets.	Jeff has been serving as chairman and CEO of Enron Industrial Markets.	2648422	1471988677356	1471988677461	a	65
5247	55682	Jeff had been serving as chairman and CEO of Enron Industrial Markets.	Jeff has been serving as chairman and CEO of Enron Industrial Markets.	2648425	1471988677977	1471988678087	n	78
5247	55682	Jeff had been serving as chairman and CEO of Enron Industrial Markets.	Jeff has been serving as chairman and CEO of Enron Industrial Markets.	2648443	1471988678193	1471988678252	 	32
5247	55682	Jeff had been serving as chairman and CEO of Enron Industrial Markets.	Jeff has been serving as chairman and CEO of Enron Industrial Markets.	2648445	1471988678403	1471988678484	a	65
5247	55682	Jeff had been serving as chairman and CEO of Enron Industrial Markets.	Jeff has been serving as chairman and CEO of Enron Industrial Markets.	2648448	1471988678514	1471988678584	n	78
5247	55682	Jeff had been serving as chairman and CEO of Enron Industrial Markets.	Jeff has been serving as chairman and CEO of Enron Industrial Markets.	2648452	1471988678594	1471988678689	d	68
5247	55682	Jeff had been serving as chairman and CEO of Enron Industrial Markets.	Jeff has been serving as chairman and CEO of Enron Industrial Markets.	2648457	1471988678739	1471988678799	 	32
5247	55682	Jeff had been serving as chairman and CEO of Enron Industrial Markets.	Jeff has been serving as chairman and CEO of Enron Industrial Markets.	2648580	1471988679220	1471988680784	SHIFT	16
5247	55682	Jeff had been serving as chairman and CEO of Enron Industrial Markets.	Jeff has been serving as chairman and CEO of Enron Industrial Markets.	2648565	1471988679366	1471988679456	C	67
5247	55682	Jeff had been serving as chairman and CEO of Enron Industrial Markets.	Jeff has been serving as chairman and CEO of Enron Industrial Markets.	2648570	1471988679571	1471988679666	E	69
5247	55682	Jeff had been serving as chairman and CEO of Enron Industrial Markets.	Jeff has been serving as chairman and CEO of Enron Industrial Markets.	2648576	1471988680488	1471988680594	O	79
5247	55682	Jeff had been serving as chairman and CEO of Enron Industrial Markets.	Jeff has been serving as chairman and CEO of Enron Industrial Markets.	2648584	1471988680879	1471988680941	 	32
5247	55682	Jeff had been serving as chairman and CEO of Enron Industrial Markets.	Jeff has been serving as chairman and CEO of Enron Industrial Markets.	2648588	1471988681195	1471988681270	o	79
5247	55682	Jeff had been serving as chairman and CEO of Enron Industrial Markets.	Jeff has been serving as chairman and CEO of Enron Industrial Markets.	2648610	1471988681360	1471988681451	f	70
5247	55682	Jeff had been serving as chairman and CEO of Enron Industrial Markets.	Jeff has been serving as chairman and CEO of Enron Industrial Markets.	2648611	1471988681486	1471988681586	 	32
5247	55682	Jeff had been serving as chairman and CEO of Enron Industrial Markets.	Jeff has been serving as chairman and CEO of Enron Industrial Markets.	2648613	1471988681882	1471988682137	SHIFT	16
5247	55682	Jeff had been serving as chairman and CEO of Enron Industrial Markets.	Jeff has been serving as chairman and CEO of Enron Industrial Markets.	2648615	1471988682021	1471988682137	E	69
5247	55682	Jeff had been serving as chairman and CEO of Enron Industrial Markets.	Jeff has been serving as chairman and CEO of Enron Industrial Markets.	2648617	1471988682442	1471988682508	r	82
5247	55682	Jeff had been serving as chairman and CEO of Enron Industrial Markets.	Jeff has been serving as chairman and CEO of Enron Industrial Markets.	2648619	1471988682588	1471988682593	n	78
5247	55682	Jeff had been serving as chairman and CEO of Enron Industrial Markets.	Jeff has been serving as chairman and CEO of Enron Industrial Markets.	2648681	1471988682779	1471988682849	BKSP	8
5247	55682	Jeff had been serving as chairman and CEO of Enron Industrial Markets.	Jeff has been serving as chairman and CEO of Enron Industrial Markets.	2648682	1471988682914	1471988682974	BKSP	8
5247	55682	Jeff had been serving as chairman and CEO of Enron Industrial Markets.	Jeff has been serving as chairman and CEO of Enron Industrial Markets.	2648684	1471988683130	1471988683230	n	78
5247	55682	Jeff had been serving as chairman and CEO of Enron Industrial Markets.	Jeff has been serving as chairman and CEO of Enron Industrial Markets.	2648687	1471988683325	1471988683425	r	82
5247	55682	Jeff had been serving as chairman and CEO of Enron Industrial Markets.	Jeff has been serving as chairman and CEO of Enron Industrial Markets.	2648690	1471988683540	1471988683626	o	79
5247	55682	Jeff had been serving as chairman and CEO of Enron Industrial Markets.	Jeff has been serving as chairman and CEO of Enron Industrial Markets.	2648692	1471988683766	1471988683891	n	78
5247	55682	Jeff had been serving as chairman and CEO of Enron Industrial Markets.	Jeff has been serving as chairman and CEO of Enron Industrial Markets.	2648694	1471988683911	1471988684012	 	32
5247	55682	Jeff had been serving as chairman and CEO of Enron Industrial Markets.	Jeff has been serving as chairman and CEO of Enron Industrial Markets.	2648812	1471988684097	1471988684297	SHIFT	16
5247	55682	Jeff had been serving as chairman and CEO of Enron Industrial Markets.	Jeff has been serving as chairman and CEO of Enron Industrial Markets.	2648815	1471988684222	1471988684363	I	73
5247	55682	Jeff had been serving as chairman and CEO of Enron Industrial Markets.	Jeff has been serving as chairman and CEO of Enron Industrial Markets.	2648817	1471988684363	1471988684463	n	78
5247	55682	Jeff had been serving as chairman and CEO of Enron Industrial Markets.	Jeff has been serving as chairman and CEO of Enron Industrial Markets.	2648819	1471988685189	1471988685260	d	68
5247	55682	Jeff had been serving as chairman and CEO of Enron Industrial Markets.	Jeff has been serving as chairman and CEO of Enron Industrial Markets.	2648823	1471988686152	1471988686222	u	85
5247	55682	Jeff had been serving as chairman and CEO of Enron Industrial Markets.	Jeff has been serving as chairman and CEO of Enron Industrial Markets.	2648826	1471988686287	1471988686382	s	83
5247	55682	Jeff had been serving as chairman and CEO of Enron Industrial Markets.	Jeff has been serving as chairman and CEO of Enron Industrial Markets.	2648866	1471988686452	1471988686547	t	84
5247	55682	Jeff had been serving as chairman and CEO of Enron Industrial Markets.	Jeff has been serving as chairman and CEO of Enron Industrial Markets.	2648868	1471988686688	1471988686802	r	82
5247	55682	Jeff had been serving as chairman and CEO of Enron Industrial Markets.	Jeff has been serving as chairman and CEO of Enron Industrial Markets.	2648870	1471988686959	1471988687069	i	73
5247	55682	Jeff had been serving as chairman and CEO of Enron Industrial Markets.	Jeff has been serving as chairman and CEO of Enron Industrial Markets.	2648871	1471988687169	1471988687274	a	65
5247	55682	Jeff had been serving as chairman and CEO of Enron Industrial Markets.	Jeff has been serving as chairman and CEO of Enron Industrial Markets.	2648873	1471988687380	1471988687590	l	76
5247	55682	Jeff had been serving as chairman and CEO of Enron Industrial Markets.	Jeff has been serving as chairman and CEO of Enron Industrial Markets.	2648925	1471988687545	1471988687660	 	32
5247	55682	Jeff had been serving as chairman and CEO of Enron Industrial Markets.	Jeff has been serving as chairman and CEO of Enron Industrial Markets.	2648928	1471988687695	1471988687921	SHIFT	16
5247	55682	Jeff had been serving as chairman and CEO of Enron Industrial Markets.	Jeff has been serving as chairman and CEO of Enron Industrial Markets.	2648932	1471988687846	1471988687921	M	77
5247	55682	Jeff had been serving as chairman and CEO of Enron Industrial Markets.	Jeff has been serving as chairman and CEO of Enron Industrial Markets.	2648936	1471988688026	1471988688192	a	65
5247	55682	Jeff had been serving as chairman and CEO of Enron Industrial Markets.	Jeff has been serving as chairman and CEO of Enron Industrial Markets.	2648940	1471988688197	1471988688292	r	82
5247	55682	Jeff had been serving as chairman and CEO of Enron Industrial Markets.	Jeff has been serving as chairman and CEO of Enron Industrial Markets.	2648944	1471988688407	1471988688517	k	75
5247	55682	Jeff had been serving as chairman and CEO of Enron Industrial Markets.	Jeff has been serving as chairman and CEO of Enron Industrial Markets.	2648948	1471988688628	1471988688748	e	69
5247	55682	Jeff had been serving as chairman and CEO of Enron Industrial Markets.	Jeff has been serving as chairman and CEO of Enron Industrial Markets.	2649056	1471988688778	1471988688893	t	84
5247	55682	Jeff had been serving as chairman and CEO of Enron Industrial Markets.	Jeff has been serving as chairman and CEO of Enron Industrial Markets.	2649059	1471988688958	1471988689064	s	83
5247	55682	Jeff had been serving as chairman and CEO of Enron Industrial Markets.	Jeff has been serving as chairman and CEO of Enron Industrial Markets.	2649060	1471988689284	1471988689389	.	190
5247	55682	Jeff had been serving as chairman and CEO of Enron Industrial Markets.	Jeff has been serving as chairman and CEO of Enron Industrial Markets.	2649062	1471988691635	1471988691710	BKSP	8
5247	55682	Jeff had been serving as chairman and CEO of Enron Industrial Markets.	Jeff has been serving as chairman and CEO of Enron Industrial Markets.	2649064	1471988691800	1471988691875	BKSP	8
5247	55716	If possible, I'd like to get Amy's opinion.	If possible, I'd like to get Amy's opinion.	2649319	1471988696371	1471988696591	SHIFT	16
5247	55716	If possible, I'd like to get Amy's opinion.	If possible, I'd like to get Amy's opinion.	2649322	1471988696521	1471988696596	I	73
5247	55716	If possible, I'd like to get Amy's opinion.	If possible, I'd like to get Amy's opinion.	2649326	1471988696702	1471988696788	f	70
5247	55716	If possible, I'd like to get Amy's opinion.	If possible, I'd like to get Amy's opinion.	2649329	1471988696847	1471988696922	 	32
5247	55716	If possible, I'd like to get Amy's opinion.	If possible, I'd like to get Amy's opinion.	2649332	1471988697068	1471988697138	p	80
5247	55716	If possible, I'd like to get Amy's opinion.	If possible, I'd like to get Amy's opinion.	2649336	1471988697234	1471988697293	o	79
5247	55716	If possible, I'd like to get Amy's opinion.	If possible, I'd like to get Amy's opinion.	2649405	1471988697358	1471988697423	s	83
5247	55716	If possible, I'd like to get Amy's opinion.	If possible, I'd like to get Amy's opinion.	2649408	1471988698311	1471988698411	s	83
5247	55716	If possible, I'd like to get Amy's opinion.	If possible, I'd like to get Amy's opinion.	2649414	1471988698487	1471988698576	i	73
5247	55716	If possible, I'd like to get Amy's opinion.	If possible, I'd like to get Amy's opinion.	2649422	1471988698706	1471988698802	b	66
5247	55716	If possible, I'd like to get Amy's opinion.	If possible, I'd like to get Amy's opinion.	2649429	1471988698932	1471988699062	l	76
5247	55716	If possible, I'd like to get Amy's opinion.	If possible, I'd like to get Amy's opinion.	2649518	1471988699579	1471988699689	e	69
5247	55716	If possible, I'd like to get Amy's opinion.	If possible, I'd like to get Amy's opinion.	2649520	1471988699899	1471988700000	,	188
5247	55716	If possible, I'd like to get Amy's opinion.	If possible, I'd like to get Amy's opinion.	2649523	1471988699995	1471988700070	 	32
5247	55716	If possible, I'd like to get Amy's opinion.	If possible, I'd like to get Amy's opinion.	2649533	1471988700345	1471988700611	SHIFT	16
5247	55716	If possible, I'd like to get Amy's opinion.	If possible, I'd like to get Amy's opinion.	2649526	1471988700486	1471988700541	I	73
5247	55716	If possible, I'd like to get Amy's opinion.	If possible, I'd like to get Amy's opinion.	2649538	1471988700882	1471988700942	'	222
5247	55716	If possible, I'd like to get Amy's opinion.	If possible, I'd like to get Amy's opinion.	2649557	1471988701107	1471988701182	d	68
5247	55716	If possible, I'd like to get Amy's opinion.	If possible, I'd like to get Amy's opinion.	2649562	1471988701264	1471988701328	 	32
5247	55716	If possible, I'd like to get Amy's opinion.	If possible, I'd like to get Amy's opinion.	2649565	1471988701448	1471988701503	l	76
5247	55716	If possible, I'd like to get Amy's opinion.	If possible, I'd like to get Amy's opinion.	2649572	1471988701603	1471988701664	i	73
5247	55716	If possible, I'd like to get Amy's opinion.	If possible, I'd like to get Amy's opinion.	2649576	1471988701734	1471988701824	k	75
5247	55716	If possible, I'd like to get Amy's opinion.	If possible, I'd like to get Amy's opinion.	2649606	1471988701844	1471988701919	e	69
5247	55716	If possible, I'd like to get Amy's opinion.	If possible, I'd like to get Amy's opinion.	2649608	1471988701929	1471988702018	 	32
5247	55716	If possible, I'd like to get Amy's opinion.	If possible, I'd like to get Amy's opinion.	2649611	1471988702205	1471988702295	t	84
5247	55716	If possible, I'd like to get Amy's opinion.	If possible, I'd like to get Amy's opinion.	2649614	1471988702285	1471988702404	o	79
5247	55716	If possible, I'd like to get Amy's opinion.	If possible, I'd like to get Amy's opinion.	2649617	1471988702410	1471988702521	 	32
5247	55716	If possible, I'd like to get Amy's opinion.	If possible, I'd like to get Amy's opinion.	2649682	1471988702962	1471988703107	g	71
5247	55716	If possible, I'd like to get Amy's opinion.	If possible, I'd like to get Amy's opinion.	2649686	1471988703071	1471988703251	e	69
5247	55716	If possible, I'd like to get Amy's opinion.	If possible, I'd like to get Amy's opinion.	2649690	1471988703232	1471988703373	t	84
5247	55716	If possible, I'd like to get Amy's opinion.	If possible, I'd like to get Amy's opinion.	2649694	1471988703458	1471988703552	 	32
5247	55716	If possible, I'd like to get Amy's opinion.	If possible, I'd like to get Amy's opinion.	2649800	1471988703718	1471988704029	SHIFT	16
5247	55716	If possible, I'd like to get Amy's opinion.	If possible, I'd like to get Amy's opinion.	2649697	1471988703889	1471988704014	A	65
5247	55716	If possible, I'd like to get Amy's opinion.	If possible, I'd like to get Amy's opinion.	2649802	1471988704124	1471988704215	m	77
5247	55716	If possible, I'd like to get Amy's opinion.	If possible, I'd like to get Amy's opinion.	2649806	1471988705307	1471988705362	y	89
5247	55716	If possible, I'd like to get Amy's opinion.	If possible, I'd like to get Amy's opinion.	2649809	1471988705728	1471988705792	'	222
5247	55716	If possible, I'd like to get Amy's opinion.	If possible, I'd like to get Amy's opinion.	2649812	1471988705848	1471988705944	s	83
5247	55716	If possible, I'd like to get Amy's opinion.	If possible, I'd like to get Amy's opinion.	2649815	1471988705999	1471988706089	 	32
5247	55716	If possible, I'd like to get Amy's opinion.	If possible, I'd like to get Amy's opinion.	2649891	1471988706399	1471988706509	o	79
5247	55716	If possible, I'd like to get Amy's opinion.	If possible, I'd like to get Amy's opinion.	2649892	1471988706589	1471988706678	p	80
5247	55716	If possible, I'd like to get Amy's opinion.	If possible, I'd like to get Amy's opinion.	2649894	1471988707301	1471988707486	i	73
5247	55716	If possible, I'd like to get Amy's opinion.	If possible, I'd like to get Amy's opinion.	2649896	1471988707416	1471988707510	n	78
5247	55716	If possible, I'd like to get Amy's opinion.	If possible, I'd like to get Amy's opinion.	2649898	1471988707597	1471988707682	i	73
5247	55716	If possible, I'd like to get Amy's opinion.	If possible, I'd like to get Amy's opinion.	2649930	1471988707762	1471988707846	o	79
5247	55716	If possible, I'd like to get Amy's opinion.	If possible, I'd like to get Amy's opinion.	2649933	1471988707947	1471988708043	n	78
5247	55716	If possible, I'd like to get Amy's opinion.	If possible, I'd like to get Amy's opinion.	2649936	1471988708258	1471988708367	.	190
5247	55731	He said he saw no damage to the airport.	He said he saw no damage to the airport.	2650212	1471988713330	1471988713561	SHIFT	16
5247	55731	He said he saw no damage to the airport.	He said he saw no damage to the airport.	2650214	1471988713521	1471988713576	H	72
5247	55731	He said he saw no damage to the airport.	He said he saw no damage to the airport.	2650216	1471988713641	1471988713731	e	69
5247	55731	He said he saw no damage to the airport.	He said he saw no damage to the airport.	2650221	1471988713761	1471988713830	 	32
5247	55731	He said he saw no damage to the airport.	He said he saw no damage to the airport.	2650225	1471988713891	1471988714047	s	83
5247	55731	He said he saw no damage to the airport.	He said he saw no damage to the airport.	2650249	1471988713987	1471988714156	a	65
5247	55731	He said he saw no damage to the airport.	He said he saw no damage to the airport.	2650251	1471988714137	1471988714207	i	73
5247	55731	He said he saw no damage to the airport.	He said he saw no damage to the airport.	2650253	1471988714262	1471988714333	d	68
5247	55731	He said he saw no damage to the airport.	He said he saw no damage to the airport.	2650254	1471988714373	1471988714452	 	32
5247	55731	He said he saw no damage to the airport.	He said he saw no damage to the airport.	2650257	1471988714568	1471988714642	h	72
5247	55731	He said he saw no damage to the airport.	He said he saw no damage to the airport.	2650260	1471988714718	1471988714798	e	69
5247	55731	He said he saw no damage to the airport.	He said he saw no damage to the airport.	2650296	1471988714859	1471988714934	 	32
5247	55731	He said he saw no damage to the airport.	He said he saw no damage to the airport.	2650299	1471988715074	1471988715153	s	83
5247	55731	He said he saw no damage to the airport.	He said he saw no damage to the airport.	2650302	1471988715280	1471988715470	a	65
5247	55731	He said he saw no damage to the airport.	He said he saw no damage to the airport.	2650303	1471988715429	1471988715560	w	87
5247	55731	He said he saw no damage to the airport.	He said he saw no damage to the airport.	2650304	1471988715600	1471988715686	 	32
5247	55731	He said he saw no damage to the airport.	He said he saw no damage to the airport.	2650316	1471988715782	1471988715836	n	78
5247	55731	He said he saw no damage to the airport.	He said he saw no damage to the airport.	2650319	1471988715931	1471988716053	o	79
5247	55731	He said he saw no damage to the airport.	He said he saw no damage to the airport.	2650323	1471988716057	1471988716147	 	32
5247	55731	He said he saw no damage to the airport.	He said he saw no damage to the airport.	2650326	1471988716257	1471988716407	d	68
5247	55731	He said he saw no damage to the airport.	He said he saw no damage to the airport.	2650349	1471988716357	1471988716483	a	65
5247	55731	He said he saw no damage to the airport.	He said he saw no damage to the airport.	2650354	1471988716508	1471988716618	m	77
5247	55731	He said he saw no damage to the airport.	He said he saw no damage to the airport.	2650362	1471988716658	1471988716788	a	65
5247	55731	He said he saw no damage to the airport.	He said he saw no damage to the airport.	2650370	1471988716869	1471988716938	g	71
5247	55731	He said he saw no damage to the airport.	He said he saw no damage to the airport.	2650375	1471988716969	1471988717064	e	69
5247	55731	He said he saw no damage to the airport.	He said he saw no damage to the airport.	2650382	1471988717094	1471988717169	 	32
5247	55731	He said he saw no damage to the airport.	He said he saw no damage to the airport.	2650419	1471988717480	1471988717565	t	84
5247	55731	He said he saw no damage to the airport.	He said he saw no damage to the airport.	2650422	1471988717610	1471988717740	o	79
5247	55731	He said he saw no damage to the airport.	He said he saw no damage to the airport.	2650426	1471988717705	1471988717806	 	32
5247	55731	He said he saw no damage to the airport.	He said he saw no damage to the airport.	2650429	1471988717841	1471988717911	t	84
5247	55731	He said he saw no damage to the airport.	He said he saw no damage to the airport.	2650431	1471988717941	1471988718016	h	72
5247	55731	He said he saw no damage to the airport.	He said he saw no damage to the airport.	2650454	1471988718026	1471988718111	e	69
5247	55731	He said he saw no damage to the airport.	He said he saw no damage to the airport.	2650457	1471988718152	1471988718211	 	32
5247	55731	He said he saw no damage to the airport.	He said he saw no damage to the airport.	2650462	1471988718276	1471988718407	a	65
5247	55731	He said he saw no damage to the airport.	He said he saw no damage to the airport.	2650465	1471988718397	1471988718457	i	73
5247	55731	He said he saw no damage to the airport.	He said he saw no damage to the airport.	2650468	1471988718507	1471988718598	r	82
5247	55731	He said he saw no damage to the airport.	He said he saw no damage to the airport.	2650535	1471988718693	1471988718808	p	80
5247	55731	He said he saw no damage to the airport.	He said he saw no damage to the airport.	2650537	1471988718903	1471988718948	o	79
5247	55731	He said he saw no damage to the airport.	He said he saw no damage to the airport.	2650540	1471988719079	1471988719139	r	82
5247	55731	He said he saw no damage to the airport.	He said he saw no damage to the airport.	2650542	1471988719254	1471988719334	t	84
5247	55731	He said he saw no damage to the airport.	He said he saw no damage to the airport.	2650546	1471988719510	1471988719670	.	190
5247	55743	Thanks, I think we have taken care of this.	Thanks, I think we have taken care of this.	2650766	1471988723519	1471988723710	SHIFT	16
5247	55743	Thanks, I think we have taken care of this.	Thanks, I think we have taken care of this.	2650769	1471988723660	1471988723765	T	84
5247	55743	Thanks, I think we have taken care of this.	Thanks, I think we have taken care of this.	2650772	1471988723770	1471988723840	h	72
5247	55743	Thanks, I think we have taken care of this.	Thanks, I think we have taken care of this.	2650775	1471988723871	1471988723970	a	65
5247	55743	Thanks, I think we have taken care of this.	Thanks, I think we have taken care of this.	2650777	1471988723995	1471988724041	n	66
5247	55743	Thanks, I think we have taken care of this.	Thanks, I think we have taken care of this.	2650845	1471988724386	1471988724441	BKSP	8
5247	55743	Thanks, I think we have taken care of this.	Thanks, I think we have taken care of this.	2650849	1471988724507	1471988724561	BKSP	8
5247	55743	Thanks, I think we have taken care of this.	Thanks, I think we have taken care of this.	2650853	1471988725143	1471988725218	n	78
5247	55743	Thanks, I think we have taken care of this.	Thanks, I think we have taken care of this.	2650859	1471988725258	1471988725329	k	75
5247	55743	Thanks, I think we have taken care of this.	Thanks, I think we have taken care of this.	2650864	1471988725419	1471988725529	s	83
5247	55743	Thanks, I think we have taken care of this.	Thanks, I think we have taken care of this.	2650870	1471988725780	1471988725875	,	188
5247	55743	Thanks, I think we have taken care of this.	Thanks, I think we have taken care of this.	2650874	1471988725875	1471988725950	 	32
5247	55743	Thanks, I think we have taken care of this.	Thanks, I think we have taken care of this.	2650887	1471988725960	1471988726136	SHIFT	16
5247	55743	Thanks, I think we have taken care of this.	Thanks, I think we have taken care of this.	2650890	1471988726090	1471988726201	I	73
5247	55743	Thanks, I think we have taken care of this.	Thanks, I think we have taken care of this.	2650894	1471988726186	1471988726276	 	32
5247	55743	Thanks, I think we have taken care of this.	Thanks, I think we have taken care of this.	2650896	1471988726301	1471988726381	t	84
5247	55743	Thanks, I think we have taken care of this.	Thanks, I think we have taken care of this.	2650898	1471988726406	1471988726481	h	72
5247	55743	Thanks, I think we have taken care of this.	Thanks, I think we have taken care of this.	2650901	1471988726501	1471988726607	i	73
5247	55743	Thanks, I think we have taken care of this.	Thanks, I think we have taken care of this.	2650942	1471988726582	1471988726762	n	78
5247	55743	Thanks, I think we have taken care of this.	Thanks, I think we have taken care of this.	2650946	1471988726722	1471988726842	k	75
5247	55743	Thanks, I think we have taken care of this.	Thanks, I think we have taken care of this.	2650951	1471988726827	1471988726947	 	32
5247	55743	Thanks, I think we have taken care of this.	Thanks, I think we have taken care of this.	2650955	1471988726982	1471988727103	w	87
5247	55743	Thanks, I think we have taken care of this.	Thanks, I think we have taken care of this.	2650960	1471988727073	1471988727183	e	69
5247	55743	Thanks, I think we have taken care of this.	Thanks, I think we have taken care of this.	2650964	1471988727203	1471988727273	 	32
5247	55743	Thanks, I think we have taken care of this.	Thanks, I think we have taken care of this.	2650994	1471988727393	1471988727454	h	72
5247	55743	Thanks, I think we have taken care of this.	Thanks, I think we have taken care of this.	2650998	1471988727474	1471988727559	a	65
5247	55743	Thanks, I think we have taken care of this.	Thanks, I think we have taken care of this.	2651001	1471988727604	1471988727674	v	86
5247	55743	Thanks, I think we have taken care of this.	Thanks, I think we have taken care of this.	2651004	1471988727699	1471988727784	e	69
5247	55743	Thanks, I think we have taken care of this.	Thanks, I think we have taken care of this.	2651011	1471988727814	1471988727890	 	32
5247	55743	Thanks, I think we have taken care of this.	Thanks, I think we have taken care of this.	2651039	1471988727920	1471988728050	t	84
5247	55743	Thanks, I think we have taken care of this.	Thanks, I think we have taken care of this.	2651041	1471988728030	1471988728150	a	65
5247	55743	Thanks, I think we have taken care of this.	Thanks, I think we have taken care of this.	2651043	1471988728150	1471988728220	k	75
5247	55743	Thanks, I think we have taken care of this.	Thanks, I think we have taken care of this.	2651045	1471988728245	1471988728331	e	69
5247	55743	Thanks, I think we have taken care of this.	Thanks, I think we have taken care of this.	2651048	1471988728376	1471988728496	n	78
5247	55743	Thanks, I think we have taken care of this.	Thanks, I think we have taken care of this.	2651087	1471988728506	1471988728596	 	32
5247	55743	Thanks, I think we have taken care of this.	Thanks, I think we have taken care of this.	2651090	1471988728891	1471988729002	c	67
5247	55743	Thanks, I think we have taken care of this.	Thanks, I think we have taken care of this.	2651092	1471988728988	1471988729158	a	65
5247	55743	Thanks, I think we have taken care of this.	Thanks, I think we have taken care of this.	2651095	1471988729133	1471988729303	r	82
5247	55743	Thanks, I think we have taken care of this.	Thanks, I think we have taken care of this.	2651125	1471988729273	1471988729358	e	69
5247	55743	Thanks, I think we have taken care of this.	Thanks, I think we have taken care of this.	2651127	1471988729398	1471988729483	 	32
5247	55743	Thanks, I think we have taken care of this.	Thanks, I think we have taken care of this.	2651132	1471988729523	1471988729619	o	79
5247	55743	Thanks, I think we have taken care of this.	Thanks, I think we have taken care of this.	2651136	1471988729629	1471988729719	f	70
5247	55743	Thanks, I think we have taken care of this.	Thanks, I think we have taken care of this.	2651143	1471988729739	1471988729814	 	32
5247	55743	Thanks, I think we have taken care of this.	Thanks, I think we have taken care of this.	2651147	1471988729859	1471988729930	t	84
5247	55743	Thanks, I think we have taken care of this.	Thanks, I think we have taken care of this.	2651186	1471988729939	1471988730025	h	72
5247	55743	Thanks, I think we have taken care of this.	Thanks, I think we have taken care of this.	2651189	1471988730035	1471988730165	i	73
5247	55743	Thanks, I think we have taken care of this.	Thanks, I think we have taken care of this.	2651192	1471988730165	1471988730295	s	83
5247	55743	Thanks, I think we have taken care of this.	Thanks, I think we have taken care of this.	2651194	1471988730516	1471988730586	.	190
5247	55755	When the inspection is finished we will communicate those results.	When the inspection is finished we will communicate those results.	2651563	1471988736194	1471988737086	SHIFT	16
5247	55755	When the inspection is finished we will communicate those results.	When the inspection is finished we will communicate those results.	2651561	1471988736986	1471988737061	W	87
5247	55755	When the inspection is finished we will communicate those results.	When the inspection is finished we will communicate those results.	2651565	1471988737563	1471988737628	h	72
5247	55755	When the inspection is finished we will communicate those results.	When the inspection is finished we will communicate those results.	2651567	1471988737678	1471988737753	e	69
5247	55755	When the inspection is finished we will communicate those results.	When the inspection is finished we will communicate those results.	2651569	1471988737808	1471988737888	n	78
5247	55755	When the inspection is finished we will communicate those results.	When the inspection is finished we will communicate those results.	2651571	1471988738039	1471988738109	 	32
5247	55755	When the inspection is finished we will communicate those results.	When the inspection is finished we will communicate those results.	2651577	1471988738194	1471988738269	t	84
5247	55755	When the inspection is finished we will communicate those results.	When the inspection is finished we will communicate those results.	2651581	1471988738283	1471988738349	h	72
5247	55755	When the inspection is finished we will communicate those results.	When the inspection is finished we will communicate those results.	2651586	1471988738368	1471988738450	e	69
5247	55755	When the inspection is finished we will communicate those results.	When the inspection is finished we will communicate those results.	2651592	1471988738469	1471988738540	 	32
5247	55755	When the inspection is finished we will communicate those results.	When the inspection is finished we will communicate those results.	2651599	1471988738595	1471988738735	i	73
5247	55755	When the inspection is finished we will communicate those results.	When the inspection is finished we will communicate those results.	2651625	1471988738690	1471988738784	n	78
5247	55755	When the inspection is finished we will communicate those results.	When the inspection is finished we will communicate those results.	2651627	1471988738856	1471988738946	s	83
5247	55755	When the inspection is finished we will communicate those results.	When the inspection is finished we will communicate those results.	2651629	1471988739046	1471988739146	p	80
5247	55755	When the inspection is finished we will communicate those results.	When the inspection is finished we will communicate those results.	2651632	1471988739181	1471988739251	e	69
5247	55755	When the inspection is finished we will communicate those results.	When the inspection is finished we will communicate those results.	2651634	1471988739341	1471988739387	c	67
5247	55755	When the inspection is finished we will communicate those results.	When the inspection is finished we will communicate those results.	2651636	1471988739522	1471988739582	t	84
5247	55755	When the inspection is finished we will communicate those results.	When the inspection is finished we will communicate those results.	2651670	1471988739626	1471988739688	i	73
5247	55755	When the inspection is finished we will communicate those results.	When the inspection is finished we will communicate those results.	2651673	1471988739778	1471988739833	o	79
5247	55755	When the inspection is finished we will communicate those results.	When the inspection is finished we will communicate those results.	2651676	1471988739913	1471988740043	n	78
5247	55755	When the inspection is finished we will communicate those results.	When the inspection is finished we will communicate those results.	2651679	1471988740033	1471988740124	 	32
5247	55755	When the inspection is finished we will communicate those results.	When the inspection is finished we will communicate those results.	2651681	1471988740209	1471988740303	i	73
5247	55755	When the inspection is finished we will communicate those results.	When the inspection is finished we will communicate those results.	2651701	1471988740339	1471988740434	s	83
5247	55755	When the inspection is finished we will communicate those results.	When the inspection is finished we will communicate those results.	2651704	1471988740449	1471988740540	 	32
5247	55755	When the inspection is finished we will communicate those results.	When the inspection is finished we will communicate those results.	2651709	1471988740765	1471988740865	f	70
5247	55755	When the inspection is finished we will communicate those results.	When the inspection is finished we will communicate those results.	2651713	1471988740874	1471988741046	i	73
5247	55755	When the inspection is finished we will communicate those results.	When the inspection is finished we will communicate those results.	2651821	1471988741016	1471988741136	n	78
5247	55755	When the inspection is finished we will communicate those results.	When the inspection is finished we will communicate those results.	2651826	1471988741231	1471988741367	i	73
5247	55755	When the inspection is finished we will communicate those results.	When the inspection is finished we will communicate those results.	2651831	1471988741417	1471988741521	s	83
5247	55755	When the inspection is finished we will communicate those results.	When the inspection is finished we will communicate those results.	2651836	1471988741587	1471988741667	h	72
5247	55755	When the inspection is finished we will communicate those results.	When the inspection is finished we will communicate those results.	2651840	1471988742810	1471988742924	e	69
5247	55755	When the inspection is finished we will communicate those results.	When the inspection is finished we will communicate those results.	2651882	1471988742895	1471988742975	d	68
5247	55755	When the inspection is finished we will communicate those results.	When the inspection is finished we will communicate those results.	2651885	1471988743036	1471988743106	 	32
5247	55755	When the inspection is finished we will communicate those results.	When the inspection is finished we will communicate those results.	2651888	1471988743271	1471988743410	w	87
5247	55755	When the inspection is finished we will communicate those results.	When the inspection is finished we will communicate those results.	2651893	1471988743366	1471988743477	e	69
5247	55755	When the inspection is finished we will communicate those results.	When the inspection is finished we will communicate those results.	2651896	1471988743497	1471988743587	 	32
5247	55755	When the inspection is finished we will communicate those results.	When the inspection is finished we will communicate those results.	2651901	1471988743626	1471988743737	w	87
5247	55755	When the inspection is finished we will communicate those results.	When the inspection is finished we will communicate those results.	2651921	1471988743738	1471988743821	i	73
5247	55755	When the inspection is finished we will communicate those results.	When the inspection is finished we will communicate those results.	2651927	1471988743923	1471988743988	l	76
5247	55755	When the inspection is finished we will communicate those results.	When the inspection is finished we will communicate those results.	2651932	1471988744063	1471988744168	l	76
5247	55755	When the inspection is finished we will communicate those results.	When the inspection is finished we will communicate those results.	2651939	1471988744148	1471988744253	 	32
5247	55755	When the inspection is finished we will communicate those results.	When the inspection is finished we will communicate those results.	2651944	1471988744294	1471988744399	c	67
5247	55755	When the inspection is finished we will communicate those results.	When the inspection is finished we will communicate those results.	2652071	1471988744394	1471988744553	o	79
5247	55755	When the inspection is finished we will communicate those results.	When the inspection is finished we will communicate those results.	2652073	1471988744549	1471988744639	m	77
5247	55755	When the inspection is finished we will communicate those results.	When the inspection is finished we will communicate those results.	2652077	1471988744745	1471988744815	m	77
5247	55755	When the inspection is finished we will communicate those results.	When the inspection is finished we will communicate those results.	2652081	1471988744940	1471988745146	u	73
5247	55755	When the inspection is finished we will communicate those results.	When the inspection is finished we will communicate those results.	2652086	1471988745767	1471988745827	BKSP	8
5247	55755	When the inspection is finished we will communicate those results.	When the inspection is finished we will communicate those results.	2652091	1471988745907	1471988745972	BKSP	8
5247	55755	When the inspection is finished we will communicate those results.	When the inspection is finished we will communicate those results.	2652096	1471988746655	1471988746820	u	85
5247	55755	When the inspection is finished we will communicate those results.	When the inspection is finished we will communicate those results.	2652154	1471988746784	1471988746900	n	78
5247	55755	When the inspection is finished we will communicate those results.	When the inspection is finished we will communicate those results.	2652158	1471988746985	1471988747090	i	73
5247	55755	When the inspection is finished we will communicate those results.	When the inspection is finished we will communicate those results.	2652163	1471988747366	1471988747471	c	67
5247	55755	When the inspection is finished we will communicate those results.	When the inspection is finished we will communicate those results.	2652168	1471988747511	1471988747661	a	65
5247	55755	When the inspection is finished we will communicate those results.	When the inspection is finished we will communicate those results.	2652171	1471988747631	1471988747822	t	84
5247	55755	When the inspection is finished we will communicate those results.	When the inspection is finished we will communicate those results.	2652231	1471988747801	1471988747927	e	69
5247	55755	When the inspection is finished we will communicate those results.	When the inspection is finished we will communicate those results.	2652236	1471988747967	1471988748068	 	32
5247	55755	When the inspection is finished we will communicate those results.	When the inspection is finished we will communicate those results.	2652245	1471988748203	1471988748318	t	84
5247	55755	When the inspection is finished we will communicate those results.	When the inspection is finished we will communicate those results.	2652249	1471988748337	1471988748403	h	72
5247	55755	When the inspection is finished we will communicate those results.	When the inspection is finished we will communicate those results.	2652255	1471988748674	1471988748758	o	79
5247	55755	When the inspection is finished we will communicate those results.	When the inspection is finished we will communicate those results.	2652259	1471988748854	1471988749080	s	83
5247	55755	When the inspection is finished we will communicate those results.	When the inspection is finished we will communicate those results.	2652328	1471988748965	1471988749149	e	69
5247	55755	When the inspection is finished we will communicate those results.	When the inspection is finished we will communicate those results.	2652333	1471988749245	1471988749315	 	32
5247	55755	When the inspection is finished we will communicate those results.	When the inspection is finished we will communicate those results.	2652338	1471988749401	1471988749506	r	82
5247	55755	When the inspection is finished we will communicate those results.	When the inspection is finished we will communicate those results.	2652342	1471988749631	1471988749767	s	83
5247	55755	When the inspection is finished we will communicate those results.	When the inspection is finished we will communicate those results.	2652347	1471988749801	1471988749832	e	69
5247	55755	When the inspection is finished we will communicate those results.	When the inspection is finished we will communicate those results.	2652351	1471988750072	1471988750121	BKSP	8
5247	55755	When the inspection is finished we will communicate those results.	When the inspection is finished we will communicate those results.	2652354	1471988750203	1471988750247	BKSP	8
5247	55755	When the inspection is finished we will communicate those results.	When the inspection is finished we will communicate those results.	2652358	1471988750328	1471988750412	e	69
5247	55755	When the inspection is finished we will communicate those results.	When the inspection is finished we will communicate those results.	2652377	1471988750573	1471988750669	s	83
5247	55755	When the inspection is finished we will communicate those results.	When the inspection is finished we will communicate those results.	2652384	1471988750879	1471988750939	u	85
5247	55755	When the inspection is finished we will communicate those results.	When the inspection is finished we will communicate those results.	2652386	1471988751085	1471988751160	l	76
5247	55755	When the inspection is finished we will communicate those results.	When the inspection is finished we will communicate those results.	2652396	1471988751184	1471988751340	t	84
5247	55755	When the inspection is finished we will communicate those results.	When the inspection is finished we will communicate those results.	2652482	1471988751269	1471988751400	s	83
5247	55755	When the inspection is finished we will communicate those results.	When the inspection is finished we will communicate those results.	2652483	1471988752553	1471988752623	.	190
5247	55785	We hope you found this information useful.	We hope you found this information useful.	2652693	1471988755882	1471988756088	SHIFT	16
5247	55785	We hope you found this information useful.	We hope you found this information useful.	2652698	1471988756026	1471988756132	W	87
5247	55785	We hope you found this information useful.	We hope you found this information useful.	2652703	1471988756393	1471988756472	e	69
5247	55785	We hope you found this information useful.	We hope you found this information useful.	2652706	1471988756668	1471988756718	 	32
5247	55785	We hope you found this information useful.	We hope you found this information useful.	2652709	1471988756938	1471988756989	h	72
5247	55785	We hope you found this information useful.	We hope you found this information useful.	2652712	1471988757324	1471988757355	o	79
5247	55785	We hope you found this information useful.	We hope you found this information useful.	2652820	1471988757780	1471988757851	p	80
5247	55785	We hope you found this information useful.	We hope you found this information useful.	2652824	1471988757961	1471988758066	e	69
5247	55785	We hope you found this information useful.	We hope you found this information useful.	2652826	1471988758151	1471988758237	 	32
5247	55785	We hope you found this information useful.	We hope you found this information useful.	2652829	1471988758342	1471988758472	w	87
5247	55785	We hope you found this information useful.	We hope you found this information useful.	2652832	1471988758607	1471988758683	BKSP	8
5247	55785	We hope you found this information useful.	We hope you found this information useful.	2652837	1471988759053	1471988759124	y	89
5247	55785	We hope you found this information useful.	We hope you found this information useful.	2652905	1471988759229	1471988759309	o	79
5247	55785	We hope you found this information useful.	We hope you found this information useful.	2652908	1471988759409	1471988759525	u	85
5247	55785	We hope you found this information useful.	We hope you found this information useful.	2652911	1471988759520	1471988759610	 	32
5247	55785	We hope you found this information useful.	We hope you found this information useful.	2652913	1471988759730	1471988759820	d	68
5247	55785	We hope you found this information useful.	We hope you found this information useful.	2652917	1471988760357	1471988760452	BKSP	8
5247	55785	We hope you found this information useful.	We hope you found this information useful.	2652921	1471988760533	1471988760632	f	70
5247	55785	We hope you found this information useful.	We hope you found this information useful.	2652957	1471988760637	1471988760733	o	79
5247	55785	We hope you found this information useful.	We hope you found this information useful.	2652961	1471988760863	1471988761048	u	85
5247	55785	We hope you found this information useful.	We hope you found this information useful.	2652964	1471988760983	1471988761128	n	78
5247	55785	We hope you found this information useful.	We hope you found this information useful.	2652966	1471988761184	1471988761279	d	68
5247	55785	We hope you found this information useful.	We hope you found this information useful.	2652967	1471988761344	1471988761434	 	32
5247	55785	We hope you found this information useful.	We hope you found this information useful.	2652976	1471988761489	1471988761590	t	84
5247	55785	We hope you found this information useful.	We hope you found this information useful.	2652982	1471988761590	1471988761685	h	72
5247	55785	We hope you found this information useful.	We hope you found this information useful.	2652985	1471988761695	1471988761805	i	73
5247	55785	We hope you found this information useful.	We hope you found this information useful.	2652988	1471988761825	1471988761920	s	83
5247	55785	We hope you found this information useful.	We hope you found this information useful.	2652992	1471988761930	1471988762016	 	32
5247	55785	We hope you found this information useful.	We hope you found this information useful.	2653071	1471988762111	1471988762501	i	73
5247	55785	We hope you found this information useful.	We hope you found this information useful.	2653076	1471988762487	1471988762577	n	78
5247	55785	We hope you found this information useful.	We hope you found this information useful.	2653083	1471988762627	1471988762712	f	70
5247	55785	We hope you found this information useful.	We hope you found this information useful.	2653088	1471988762772	1471988762893	o	79
5247	55785	We hope you found this information useful.	We hope you found this information useful.	2653092	1471988763434	1471988763549	r	82
5247	55785	We hope you found this information useful.	We hope you found this information useful.	2653140	1471988763970	1471988764050	m	77
5247	55785	We hope you found this information useful.	We hope you found this information useful.	2653143	1471988764105	1471988764246	a	65
5247	55785	We hope you found this information useful.	We hope you found this information useful.	2653145	1471988764241	1471988764360	t	84
5247	55785	We hope you found this information useful.	We hope you found this information useful.	2653149	1471988764350	1471988764425	i	73
5247	55785	We hope you found this information useful.	We hope you found this information useful.	2653152	1471988764511	1471988764586	o	79
5247	55785	We hope you found this information useful.	We hope you found this information useful.	2653242	1471988764657	1471988764812	n	78
5247	55785	We hope you found this information useful.	We hope you found this information useful.	2653246	1471988764847	1471988764952	u	85
5247	55785	We hope you found this information useful.	We hope you found this information useful.	2653252	1471988765278	1471988765368	BKSP	8
5247	55785	We hope you found this information useful.	We hope you found this information useful.	2653259	1471988766040	1471988766115	 	32
5247	55785	We hope you found this information useful.	We hope you found this information useful.	2653263	1471988766215	1471988766286	u	85
5247	55785	We hope you found this information useful.	We hope you found this information useful.	2653266	1471988766376	1471988766511	s	83
5247	55785	We hope you found this information useful.	We hope you found this information useful.	2653342	1471988766536	1471988766643	e	69
5247	55785	We hope you found this information useful.	We hope you found this information useful.	2653344	1471988767308	1471988767433	f	70
5247	55785	We hope you found this information useful.	We hope you found this information useful.	2653349	1471988767468	1471988767514	u	85
5247	55785	We hope you found this information useful.	We hope you found this information useful.	2653354	1471988767749	1471988767799	l	76
5247	55785	We hope you found this information useful.	We hope you found this information useful.	2653361	1471988767940	1471988768025	.	190
5247	55802	Let's have this meeting today or tonight.	Let's have this meeting today or tonight.	2685150	1471989224817	1471989225695	SHIFT	16
5247	55802	Let's have this meeting today or tonight.	Let's have this meeting today or tonight.	2685146	1471989225609	1471989225654	L	76
5247	55802	Let's have this meeting today or tonight.	Let's have this meeting today or tonight.	2685155	1471989226010	1471989226116	e	69
5247	55802	Let's have this meeting today or tonight.	Let's have this meeting today or tonight.	2685161	1471989226196	1471989226271	t	84
5247	55802	Let's have this meeting today or tonight.	Let's have this meeting today or tonight.	2685166	1471989226456	1471989226527	s	83
5247	55802	Let's have this meeting today or tonight.	Let's have this meeting today or tonight.	2685169	1471989226912	1471989226983	BKSP	8
5247	55802	Let's have this meeting today or tonight.	Let's have this meeting today or tonight.	2685173	1471989227123	1471989227198	'	222
5247	55802	Let's have this meeting today or tonight.	Let's have this meeting today or tonight.	2685188	1471989227258	1471989227343	s	83
5247	55802	Let's have this meeting today or tonight.	Let's have this meeting today or tonight.	2685194	1471989227374	1471989227449	 	32
5247	55802	Let's have this meeting today or tonight.	Let's have this meeting today or tonight.	2685201	1471989227559	1471989227629	h	72
5247	55802	Let's have this meeting today or tonight.	Let's have this meeting today or tonight.	2685211	1471989227654	1471989227754	a	65
5247	55802	Let's have this meeting today or tonight.	Let's have this meeting today or tonight.	2685218	1471989227784	1471989227865	v	86
5247	55802	Let's have this meeting today or tonight.	Let's have this meeting today or tonight.	2685289	1471989227905	1471989228025	e	69
5247	55802	Let's have this meeting today or tonight.	Let's have this meeting today or tonight.	2685292	1471989228000	1471989228085	 	32
5247	55802	Let's have this meeting today or tonight.	Let's have this meeting today or tonight.	2685298	1471989228140	1471989228276	a	65
5247	55802	Let's have this meeting today or tonight.	Let's have this meeting today or tonight.	2685303	1471989228942	1471989229022	BKSP	8
5247	55802	Let's have this meeting today or tonight.	Let's have this meeting today or tonight.	2685311	1471989229098	1471989229173	t	84
5247	55802	Let's have this meeting today or tonight.	Let's have this meeting today or tonight.	2685319	1471989229208	1471989229278	h	72
5247	55802	Let's have this meeting today or tonight.	Let's have this meeting today or tonight.	2685380	1471989229314	1471989229418	i	73
5247	55802	Let's have this meeting today or tonight.	Let's have this meeting today or tonight.	2685384	1471989229443	1471989229529	s	83
5247	55802	Let's have this meeting today or tonight.	Let's have this meeting today or tonight.	2685390	1471989229559	1471989229629	 	32
5247	55802	Let's have this meeting today or tonight.	Let's have this meeting today or tonight.	2685394	1471989229714	1471989229784	m	77
5247	55802	Let's have this meeting today or tonight.	Let's have this meeting today or tonight.	2685399	1471989229824	1471989229905	e	69
5247	55802	Let's have this meeting today or tonight.	Let's have this meeting today or tonight.	2685442	1471989230010	1471989230105	e	69
5247	55802	Let's have this meeting today or tonight.	Let's have this meeting today or tonight.	2685447	1471989230135	1471989230225	t	84
5247	55802	Let's have this meeting today or tonight.	Let's have this meeting today or tonight.	2685450	1471989230310	1471989230521	i	73
5247	55802	Let's have this meeting today or tonight.	Let's have this meeting today or tonight.	2685461	1471989230436	1471989230556	n	78
5247	55802	Let's have this meeting today or tonight.	Let's have this meeting today or tonight.	2685467	1471989230556	1471989230666	g	71
5247	55802	Let's have this meeting today or tonight.	Let's have this meeting today or tonight.	2685540	1471989230702	1471989230802	 	32
5247	55802	Let's have this meeting today or tonight.	Let's have this meeting today or tonight.	2685547	1471989231052	1471989231137	t	84
5247	55802	Let's have this meeting today or tonight.	Let's have this meeting today or tonight.	2685554	1471989231238	1471989231333	o	79
5247	55802	Let's have this meeting today or tonight.	Let's have this meeting today or tonight.	2685559	1471989231433	1471989231604	d	68
5247	55802	Let's have this meeting today or tonight.	Let's have this meeting today or tonight.	2685598	1471989231553	1471989231679	a	65
5247	55802	Let's have this meeting today or tonight.	Let's have this meeting today or tonight.	2685604	1471989231669	1471989231779	y	89
5247	55802	Let's have this meeting today or tonight.	Let's have this meeting today or tonight.	2685611	1471989231814	1471989231884	 	32
5247	55802	Let's have this meeting today or tonight.	Let's have this meeting today or tonight.	2685618	1471989231979	1471989232075	o	79
5247	55802	Let's have this meeting today or tonight.	Let's have this meeting today or tonight.	2685623	1471989232100	1471989232200	r	82
5247	55802	Let's have this meeting today or tonight.	Let's have this meeting today or tonight.	2685628	1471989232230	1471989232305	 	32
5247	55802	Let's have this meeting today or tonight.	Let's have this meeting today or tonight.	2685687	1471989232527	1471989232611	t	84
5247	55802	Let's have this meeting today or tonight.	Let's have this meeting today or tonight.	2685691	1471989232642	1471989232701	o	79
5247	55802	Let's have this meeting today or tonight.	Let's have this meeting today or tonight.	2685695	1471989232811	1471989232893	n	78
5247	55802	Let's have this meeting today or tonight.	Let's have this meeting today or tonight.	2685699	1471989232953	1471989233057	i	73
5247	55802	Let's have this meeting today or tonight.	Let's have this meeting today or tonight.	2685702	1471989233088	1471989233152	g	71
5247	55802	Let's have this meeting today or tonight.	Let's have this meeting today or tonight.	2685716	1471989233183	1471989233278	h	72
5247	55802	Let's have this meeting today or tonight.	Let's have this meeting today or tonight.	2685720	1471989233298	1471989233398	t	84
5247	55802	Let's have this meeting today or tonight.	Let's have this meeting today or tonight.	2685726	1471989233484	1471989233578	.	190
5247	56469	Kay Mann is going to take the lead on this.	Kay Mann is going to take the lead on this.	2686160	1471989238996	1471989239167	SHIFT	16
5247	56469	Kay Mann is going to take the lead on this.	Kay Mann is going to take the lead on this.	2686168	1471989239101	1471989239167	K	75
5247	56469	Kay Mann is going to take the lead on this.	Kay Mann is going to take the lead on this.	2686175	1471989239252	1471989239397	a	65
5247	56469	Kay Mann is going to take the lead on this.	Kay Mann is going to take the lead on this.	2686186	1471989239353	1471989239452	y	89
5247	56469	Kay Mann is going to take the lead on this.	Kay Mann is going to take the lead on this.	2686195	1471989239467	1471989239547	 	32
5247	56469	Kay Mann is going to take the lead on this.	Kay Mann is going to take the lead on this.	2686201	1471989239643	1471989239718	m	77
5247	56469	Kay Mann is going to take the lead on this.	Kay Mann is going to take the lead on this.	2686309	1471989239963	1471989240054	BKSP	8
5247	56469	Kay Mann is going to take the lead on this.	Kay Mann is going to take the lead on this.	2686312	1471989240064	1471989240295	SHIFT	16
5247	56469	Kay Mann is going to take the lead on this.	Kay Mann is going to take the lead on this.	2686316	1471989240214	1471989240295	M	77
5247	56469	Kay Mann is going to take the lead on this.	Kay Mann is going to take the lead on this.	2686322	1471989240384	1471989240480	a	65
5247	56469	Kay Mann is going to take the lead on this.	Kay Mann is going to take the lead on this.	2686328	1471989240515	1471989240570	n	78
5247	56469	Kay Mann is going to take the lead on this.	Kay Mann is going to take the lead on this.	2686331	1471989240660	1471989240740	n	78
5247	56469	Kay Mann is going to take the lead on this.	Kay Mann is going to take the lead on this.	2686334	1471989240795	1471989240866	 	32
5247	56469	Kay Mann is going to take the lead on this.	Kay Mann is going to take the lead on this.	2686367	1471989241021	1471989241106	i	73
5247	56469	Kay Mann is going to take the lead on this.	Kay Mann is going to take the lead on this.	2686371	1471989241156	1471989241267	s	83
5247	56469	Kay Mann is going to take the lead on this.	Kay Mann is going to take the lead on this.	2686376	1471989241261	1471989241362	 	32
5247	56469	Kay Mann is going to take the lead on this.	Kay Mann is going to take the lead on this.	2686384	1471989241447	1471989241542	g	71
5247	56469	Kay Mann is going to take the lead on this.	Kay Mann is going to take the lead on this.	2686390	1471989241547	1471989241637	o	79
5247	56469	Kay Mann is going to take the lead on this.	Kay Mann is going to take the lead on this.	2686440	1471989241728	1471989241913	i	73
5247	56469	Kay Mann is going to take the lead on this.	Kay Mann is going to take the lead on this.	2686443	1471989241823	1471989241958	n	78
5247	56469	Kay Mann is going to take the lead on this.	Kay Mann is going to take the lead on this.	2686446	1471989241963	1471989242043	g	71
5247	56469	Kay Mann is going to take the lead on this.	Kay Mann is going to take the lead on this.	2686452	1471989242118	1471989242209	 	32
5247	56469	Kay Mann is going to take the lead on this.	Kay Mann is going to take the lead on this.	2686456	1471989242274	1471989242354	t	84
5247	56469	Kay Mann is going to take the lead on this.	Kay Mann is going to take the lead on this.	2686494	1471989242364	1471989242489	o	79
5247	56469	Kay Mann is going to take the lead on this.	Kay Mann is going to take the lead on this.	2686497	1471989242434	1471989242529	 	32
5247	56469	Kay Mann is going to take the lead on this.	Kay Mann is going to take the lead on this.	2686502	1471989242660	1471989242810	t	84
5247	56469	Kay Mann is going to take the lead on this.	Kay Mann is going to take the lead on this.	2686507	1471989242770	1471989242880	a	65
5247	56469	Kay Mann is going to take the lead on this.	Kay Mann is going to take the lead on this.	2686513	1471989242885	1471989242991	k	75
5247	56469	Kay Mann is going to take the lead on this.	Kay Mann is going to take the lead on this.	2686538	1471989243011	1471989243091	e	69
5247	56469	Kay Mann is going to take the lead on this.	Kay Mann is going to take the lead on this.	2686546	1471989243111	1471989243201	 	32
5247	56469	Kay Mann is going to take the lead on this.	Kay Mann is going to take the lead on this.	2686556	1471989243261	1471989243332	t	84
5247	56469	Kay Mann is going to take the lead on this.	Kay Mann is going to take the lead on this.	2686563	1471989243326	1471989243412	h	72
5247	56469	Kay Mann is going to take the lead on this.	Kay Mann is going to take the lead on this.	2686572	1471989243447	1471989243522	e	69
5247	56469	Kay Mann is going to take the lead on this.	Kay Mann is going to take the lead on this.	2686599	1471989243537	1471989243637	 	32
5247	56469	Kay Mann is going to take the lead on this.	Kay Mann is going to take the lead on this.	2686602	1471989243758	1471989243787	e	76
5247	56469	Kay Mann is going to take the lead on this.	Kay Mann is going to take the lead on this.	2686605	1471989243883	1471989244098	a	65
5247	56469	Kay Mann is going to take the lead on this.	Kay Mann is going to take the lead on this.	2686670	1471989244063	1471989244183	d	68
5247	56469	Kay Mann is going to take the lead on this.	Kay Mann is going to take the lead on this.	2686674	1471989244223	1471989244329	 	32
5247	56469	Kay Mann is going to take the lead on this.	Kay Mann is going to take the lead on this.	2686679	1471989244419	1471989244489	o	79
5247	56469	Kay Mann is going to take the lead on this.	Kay Mann is going to take the lead on this.	2686683	1471989244609	1471989244725	n	78
5247	56469	Kay Mann is going to take the lead on this.	Kay Mann is going to take the lead on this.	2686686	1471989244755	1471989244835	 	32
5247	56469	Kay Mann is going to take the lead on this.	Kay Mann is going to take the lead on this.	2686690	1471989244885	1471989244955	t	84
5247	56469	Kay Mann is going to take the lead on this.	Kay Mann is going to take the lead on this.	2686766	1471989244965	1471989245040	h	89
5247	56469	Kay Mann is going to take the lead on this.	Kay Mann is going to take the lead on this.	2686770	1471989245086	1471989245211	i	73
5247	56469	Kay Mann is going to take the lead on this.	Kay Mann is going to take the lead on this.	2686775	1471989245517	1471989245567	BKSP	8
5247	56469	Kay Mann is going to take the lead on this.	Kay Mann is going to take the lead on this.	2686779	1471989245652	1471989245702	BKSP	8
5247	56469	Kay Mann is going to take the lead on this.	Kay Mann is going to take the lead on this.	2686787	1471989245787	1471989245837	BKSP	8
5247	56469	Kay Mann is going to take the lead on this.	Kay Mann is going to take the lead on this.	2686792	1471989246183	1471989246259	h	72
5247	56469	Kay Mann is going to take the lead on this.	Kay Mann is going to take the lead on this.	2686798	1471989246273	1471989246374	i	73
5247	56469	Kay Mann is going to take the lead on this.	Kay Mann is going to take the lead on this.	2686819	1471989246439	1471989246534	s	83
5247	56469	Kay Mann is going to take the lead on this.	Kay Mann is going to take the lead on this.	2686821	1471989246674	1471989246795	.	190
5247	56491	New switches can also be added to the Paging System.	New switches can also be added to the Paging System.	2687499	1471989255400	1471989255585	SHIFT	16
5247	56491	New switches can also be added to the Paging System.	New switches can also be added to the Paging System.	2687503	1471989255530	1471989255605	N	78
5247	56491	New switches can also be added to the Paging System.	New switches can also be added to the Paging System.	2687508	1471989255686	1471989255856	e	69
5247	56491	New switches can also be added to the Paging System.	New switches can also be added to the Paging System.	2687515	1471989255786	1471989255901	w	87
5247	56491	New switches can also be added to the Paging System.	New switches can also be added to the Paging System.	2687518	1471989255947	1471989256031	 	32
5247	56491	New switches can also be added to the Paging System.	New switches can also be added to the Paging System.	2687521	1471989256282	1471989256367	s	83
5247	56491	New switches can also be added to the Paging System.	New switches can also be added to the Paging System.	2687576	1471989256508	1471989256593	w	87
5247	56491	New switches can also be added to the Paging System.	New switches can also be added to the Paging System.	2687581	1471989256678	1471989256753	i	73
5247	56491	New switches can also be added to the Paging System.	New switches can also be added to the Paging System.	2687585	1471989256904	1471989256979	t	84
5247	56491	New switches can also be added to the Paging System.	New switches can also be added to the Paging System.	2687590	1471989257119	1471989257219	c	67
5247	56491	New switches can also be added to the Paging System.	New switches can also be added to the Paging System.	2687595	1471989257255	1471989257345	h	72
5247	56491	New switches can also be added to the Paging System.	New switches can also be added to the Paging System.	2687653	1471989257346	1471989257490	e	69
5247	56491	New switches can also be added to the Paging System.	New switches can also be added to the Paging System.	2687656	1471989257620	1471989257710	s	83
5247	56491	New switches can also be added to the Paging System.	New switches can also be added to the Paging System.	2687658	1471989257792	1471989257881	 	32
5247	56491	New switches can also be added to the Paging System.	New switches can also be added to the Paging System.	2687660	1471989258076	1471989258252	c	67
5247	56491	New switches can also be added to the Paging System.	New switches can also be added to the Paging System.	2687729	1471989258212	1471989258332	n	65
5247	56491	New switches can also be added to the Paging System.	New switches can also be added to the Paging System.	2687734	1471989258422	1471989258507	 	32
5247	56491	New switches can also be added to the Paging System.	New switches can also be added to the Paging System.	2687738	1471989258848	1471989258963	a	65
5247	56491	New switches can also be added to the Paging System.	New switches can also be added to the Paging System.	2687741	1471989258948	1471989259044	l	76
5247	56491	New switches can also be added to the Paging System.	New switches can also be added to the Paging System.	2687742	1471989259099	1471989259189	s	83
5247	56491	New switches can also be added to the Paging System.	New switches can also be added to the Paging System.	2687743	1471989259190	1471989259314	o	79
5247	56491	New switches can also be added to the Paging System.	New switches can also be added to the Paging System.	2687774	1471989259329	1471989259415	 	32
5247	56491	New switches can also be added to the Paging System.	New switches can also be added to the Paging System.	2687779	1471989259510	1471989259600	b	66
5247	56491	New switches can also be added to the Paging System.	New switches can also be added to the Paging System.	2687782	1471989259600	1471989259685	e	69
5247	56491	New switches can also be added to the Paging System.	New switches can also be added to the Paging System.	2687788	1471989259720	1471989259805	 	32
5247	56491	New switches can also be added to the Paging System.	New switches can also be added to the Paging System.	2687791	1471989259835	1471989259996	a	65
5247	56491	New switches can also be added to the Paging System.	New switches can also be added to the Paging System.	2687885	1471989259966	1471989260051	d	68
5247	56491	New switches can also be added to the Paging System.	New switches can also be added to the Paging System.	2687887	1471989260161	1471989260246	d	68
5247	56491	New switches can also be added to the Paging System.	New switches can also be added to the Paging System.	2687894	1471989260447	1471989260532	i	79
5247	56491	New switches can also be added to the Paging System.	New switches can also be added to the Paging System.	2687901	1471989260883	1471989260973	BKSP	8
5247	56491	New switches can also be added to the Paging System.	New switches can also be added to the Paging System.	2687905	1471989261119	1471989261194	BKSP	8
5247	56491	New switches can also be added to the Paging System.	New switches can also be added to the Paging System.	2687908	1471989261294	1471989261430	e	69
5247	56491	New switches can also be added to the Paging System.	New switches can also be added to the Paging System.	2687941	1471989261399	1471989261489	d	68
5247	56491	New switches can also be added to the Paging System.	New switches can also be added to the Paging System.	2687945	1471989261555	1471989261650	 	32
5247	56491	New switches can also be added to the Paging System.	New switches can also be added to the Paging System.	2687949	1471989261760	1471989261885	t	84
5247	56491	New switches can also be added to the Paging System.	New switches can also be added to the Paging System.	2687953	1471989261877	1471989262001	o	79
5247	56491	New switches can also be added to the Paging System.	New switches can also be added to the Paging System.	2687956	1471989261955	1471989262061	 	32
5247	56491	New switches can also be added to the Paging System.	New switches can also be added to the Paging System.	2687959	1471989262081	1471989262171	t	84
5247	56491	New switches can also be added to the Paging System.	New switches can also be added to the Paging System.	2687978	1471989262196	1471989262297	h	72
5247	56491	New switches can also be added to the Paging System.	New switches can also be added to the Paging System.	2687984	1471989262291	1471989262388	e	69
5247	56491	New switches can also be added to the Paging System.	New switches can also be added to the Paging System.	2687993	1471989262382	1471989262467	 	32
5247	56491	New switches can also be added to the Paging System.	New switches can also be added to the Paging System.	2688004	1471989262587	1471989262683	p	80
5247	56491	New switches can also be added to the Paging System.	New switches can also be added to the Paging System.	2688010	1471989262707	1471989262793	a	65
5247	56491	New switches can also be added to the Paging System.	New switches can also be added to the Paging System.	2688084	1471989263013	1471989263064	BKSP	8
5247	56491	New switches can also be added to the Paging System.	New switches can also be added to the Paging System.	2688086	1471989263154	1471989263193	BKSP	8
5247	56491	New switches can also be added to the Paging System.	New switches can also be added to the Paging System.	2688095	1471989263203	1471989263444	SHIFT	16
5247	56491	New switches can also be added to the Paging System.	New switches can also be added to the Paging System.	2688091	1471989263344	1471989263429	P	80
5247	56491	New switches can also be added to the Paging System.	New switches can also be added to the Paging System.	2688100	1471989263559	1471989263695	a	65
5247	56491	New switches can also be added to the Paging System.	New switches can also be added to the Paging System.	2688107	1471989263700	1471989263821	g	71
5247	56491	New switches can also be added to the Paging System.	New switches can also be added to the Paging System.	2688115	1471989263895	1471989264096	i	73
5247	56491	New switches can also be added to the Paging System.	New switches can also be added to the Paging System.	2688194	1471989264026	1471989264151	n	78
5247	56491	New switches can also be added to the Paging System.	New switches can also be added to the Paging System.	2688199	1471989264131	1471989264241	g	71
5247	56491	New switches can also be added to the Paging System.	New switches can also be added to the Paging System.	2688205	1471989264266	1471989264351	 	32
5247	56491	New switches can also be added to the Paging System.	New switches can also be added to the Paging System.	2688220	1471989264657	1471989264887	SHIFT	16
5247	56491	New switches can also be added to the Paging System.	New switches can also be added to the Paging System.	2688212	1471989264807	1471989264877	S	83
5247	56491	New switches can also be added to the Paging System.	New switches can also be added to the Paging System.	2688226	1471989265039	1471989265103	y	89
5247	56491	New switches can also be added to the Paging System.	New switches can also be added to the Paging System.	2688233	1471989265183	1471989265263	s	83
5247	56491	New switches can also be added to the Paging System.	New switches can also be added to the Paging System.	2688298	1471989265494	1471989265584	t	84
5247	56491	New switches can also be added to the Paging System.	New switches can also be added to the Paging System.	2688305	1471989265719	1471989265815	e	69
5247	56491	New switches can also be added to the Paging System.	New switches can also be added to the Paging System.	2688312	1471989265941	1471989266040	m	77
5247	56491	New switches can also be added to the Paging System.	New switches can also be added to the Paging System.	2688317	1471989266506	1471989266613	.	190
