PARTICIPANT_ID	TEST_SECTION_ID	SENTENCE	USER_INPUT	KEYSTROKE_ID	PRESS_TIME	RELEASE_TIME	LETTER	KEYCODE
5278	55990	Talk to you later.	Talk to you later.	2661992	1471988929633	1471988929854	SHIFT	16
5278	55990	Talk to you later.	Talk to you later.	2661998	1471988929815	1471988929950		84
5278	55990	Talk to you later.	Talk to you later.	2662001	1471988929966	1471988930078		65
5278	55990	Talk to you later.	Talk to you later.	2662005	1471988930054	1471988930158		76
5278	55990	Talk to you later.	Talk to you later.	2662008	1471988930206	1471988930326		75
5278	55990	Talk to you later.	Talk to you later.	2662012	1471988930351	1471988930454		32
5278	55990	Talk to you later.	Talk to you later.	2662026	1471988930470	1471988930574		84
5278	55990	Talk to you later.	Talk to you later.	2662031	1471988930534	1471988930641		79
5278	55990	Talk to you later.	Talk to you later.	2662034	1471988930615	1471988930702		32
5278	55990	Talk to you later.	Talk to you later.	2662038	1471988930782	1471988930910		89
5278	55990	Talk to you later.	Talk to you later.	2662054	1471988930886	1471988931023		79
5278	55990	Talk to you later.	Talk to you later.	2662058	1471988930998	1471988931123		85
5278	55990	Talk to you later.	Talk to you later.	2662065	1471988931124	1471988931158		32
5278	55990	Talk to you later.	Talk to you later.	2662068	1471988931206	1471988931342		76
5278	55990	Talk to you later.	Talk to you later.	2662075	1471988931302	1471988931462		65
5278	55990	Talk to you later.	Talk to you later.	2662096	1471988931415	1471988931486		84
5278	55990	Talk to you later.	Talk to you later.	2662101	1471988931510	1471988931671		69
5278	55990	Talk to you later.	Talk to you later.	2662106	1471988931631	1471988931734		82
5278	55990	Talk to you later.	Talk to you later.	2662111	1471988931806	1471988931918		190
5278	56000	Bob,I'll take Denver to Win.	Bob, I'll take Denver to Win.	2662278	1471988934383	1471988934766	SHIFT	16
5278	56000	Bob,I'll take Denver to Win.	Bob, I'll take Denver to Win.	2662282	1471988934694	1471988934782		66
5278	56000	Bob,I'll take Denver to Win.	Bob, I'll take Denver to Win.	2662288	1471988934942	1471988934998		66
5278	56000	Bob,I'll take Denver to Win.	Bob, I'll take Denver to Win.	2662292	1471988935272	1471988935318		8
5278	56000	Bob,I'll take Denver to Win.	Bob, I'll take Denver to Win.	2662299	1471988935454	1471988935558		79
5278	56000	Bob,I'll take Denver to Win.	Bob, I'll take Denver to Win.	2662306	1471988935574	1471988935638		66
5278	56000	Bob,I'll take Denver to Win.	Bob, I'll take Denver to Win.	2662474	1471988936390	1471988936509		188
5278	56000	Bob,I'll take Denver to Win.	Bob, I'll take Denver to Win.	2662477	1471988936509	1471988936598		32
5278	56000	Bob,I'll take Denver to Win.	Bob, I'll take Denver to Win.	2662486	1471988936614	1471988936822	SHIFT	16
5278	56000	Bob,I'll take Denver to Win.	Bob, I'll take Denver to Win.	2662482	1471988936694	1471988936782		73
5278	56000	Bob,I'll take Denver to Win.	Bob, I'll take Denver to Win.	2662489	1471988936911	1471988936958		222
5278	56000	Bob,I'll take Denver to Win.	Bob, I'll take Denver to Win.	2662495	1471988938038	1471988938094		76
5278	56000	Bob,I'll take Denver to Win.	Bob, I'll take Denver to Win.	2662524	1471988938198	1471988938310		76
5278	56000	Bob,I'll take Denver to Win.	Bob, I'll take Denver to Win.	2662528	1471988938310	1471988938430		32
5278	56000	Bob,I'll take Denver to Win.	Bob, I'll take Denver to Win.	2662534	1471988938446	1471988938590		84
5278	56000	Bob,I'll take Denver to Win.	Bob, I'll take Denver to Win.	2662540	1471988938566	1471988938707		65
5278	56000	Bob,I'll take Denver to Win.	Bob, I'll take Denver to Win.	2662651	1471988938646	1471988938774		75
5278	56000	Bob,I'll take Denver to Win.	Bob, I'll take Denver to Win.	2662659	1471988938790	1471988938910		69
5278	56000	Bob,I'll take Denver to Win.	Bob, I'll take Denver to Win.	2662664	1471988938870	1471988938990		32
5278	56000	Bob,I'll take Denver to Win.	Bob, I'll take Denver to Win.	2662667	1471988939014	1471988939182	SHIFT	16
5278	56000	Bob,I'll take Denver to Win.	Bob, I'll take Denver to Win.	2662674	1471988939142	1471988939223		68
5278	56000	Bob,I'll take Denver to Win.	Bob, I'll take Denver to Win.	2662680	1471988939365	1471988939422		69
5278	56000	Bob,I'll take Denver to Win.	Bob, I'll take Denver to Win.	2662682	1471988940030	1471988940272		78
5278	56000	Bob,I'll take Denver to Win.	Bob, I'll take Denver to Win.	2662691	1471988940282	1471988940311		86
5278	56000	Bob,I'll take Denver to Win.	Bob, I'll take Denver to Win.	2662695	1471988940495	1471988940602		82
5278	56000	Bob,I'll take Denver to Win.	Bob, I'll take Denver to Win.	2662699	1471988940640	1471988940740		32
5278	56000	Bob,I'll take Denver to Win.	Bob, I'll take Denver to Win.	2662703	1471988940740	1471988940808		84
5278	56000	Bob,I'll take Denver to Win.	Bob, I'll take Denver to Win.	2662727	1471988940842	1471988940945		79
5278	56000	Bob,I'll take Denver to Win.	Bob, I'll take Denver to Win.	2662730	1471988940922	1471988941022		32
5278	56000	Bob,I'll take Denver to Win.	Bob, I'll take Denver to Win.	2662733	1471988940982	1471988941206	SHIFT	16
5278	56000	Bob,I'll take Denver to Win.	Bob, I'll take Denver to Win.	2662737	1471988941129	1471988941303		87
5278	56000	Bob,I'll take Denver to Win.	Bob, I'll take Denver to Win.	2662742	1471988941246	1471988941342		73
5278	56000	Bob,I'll take Denver to Win.	Bob, I'll take Denver to Win.	2662746	1471988941374	1471988941438		78
5278	56000	Bob,I'll take Denver to Win.	Bob, I'll take Denver to Win.	2662762	1471988941629	1471988941750		190
5278	56014	US President Bill Clinton favours lifting the embargo.	US President Bill Clinton favours lifting the embargo.	2662959	1471988943846	1471988944510	SHIFT	16
5278	56014	US President Bill Clinton favours lifting the embargo.	US President Bill Clinton favours lifting the embargo.	2662953	1471988944198	1471988944334		85
5278	56014	US President Bill Clinton favours lifting the embargo.	US President Bill Clinton favours lifting the embargo.	2662956	1471988944358	1471988944478		83
5278	56014	US President Bill Clinton favours lifting the embargo.	US President Bill Clinton favours lifting the embargo.	2662963	1471988944526	1471988944646		32
5278	56014	US President Bill Clinton favours lifting the embargo.	US President Bill Clinton favours lifting the embargo.	2662967	1471988944646	1471988944966	SHIFT	16
5278	56014	US President Bill Clinton favours lifting the embargo.	US President Bill Clinton favours lifting the embargo.	2663001	1471988944822	1471988944969		80
5278	56014	US President Bill Clinton favours lifting the embargo.	US President Bill Clinton favours lifting the embargo.	2663005	1471988944934	1471988945184		82
5278	56014	US President Bill Clinton favours lifting the embargo.	US President Bill Clinton favours lifting the embargo.	2663011	1471988945182	1471988945185		69
5278	56014	US President Bill Clinton favours lifting the embargo.	US President Bill Clinton favours lifting the embargo.	2663019	1471988945185	1471988945227		83
5278	56014	US President Bill Clinton favours lifting the embargo.	US President Bill Clinton favours lifting the embargo.	2663024	1471988945238	1471988945342		73
5278	56014	US President Bill Clinton favours lifting the embargo.	US President Bill Clinton favours lifting the embargo.	2663031	1471988945342	1471988945390		68
5278	56014	US President Bill Clinton favours lifting the embargo.	US President Bill Clinton favours lifting the embargo.	2663036	1471988945494	1471988945598		69
5278	56014	US President Bill Clinton favours lifting the embargo.	US President Bill Clinton favours lifting the embargo.	2663071	1471988945574	1471988945686		78
5278	56014	US President Bill Clinton favours lifting the embargo.	US President Bill Clinton favours lifting the embargo.	2663075	1471988945686	1471988945758		84
5278	56014	US President Bill Clinton favours lifting the embargo.	US President Bill Clinton favours lifting the embargo.	2663081	1471988945798	1471988945870		32
5278	56014	US President Bill Clinton favours lifting the embargo.	US President Bill Clinton favours lifting the embargo.	2663085	1471988946006	1471988946094		8
5278	56014	US President Bill Clinton favours lifting the embargo.	US President Bill Clinton favours lifting the embargo.	2663087	1471988946182	1471988946239		8
5278	56014	US President Bill Clinton favours lifting the embargo.	US President Bill Clinton favours lifting the embargo.	2663090	1471988946350	1471988946398		8
5278	56014	US President Bill Clinton favours lifting the embargo.	US President Bill Clinton favours lifting the embargo.	2663140	1471988946502	1471988946559		8
5278	56014	US President Bill Clinton favours lifting the embargo.	US President Bill Clinton favours lifting the embargo.	2663147	1471988946662	1471988946710		8
5278	56014	US President Bill Clinton favours lifting the embargo.	US President Bill Clinton favours lifting the embargo.	2663155	1471988946808	1471988946862		8
5278	56014	US President Bill Clinton favours lifting the embargo.	US President Bill Clinton favours lifting the embargo.	2663161	1471988946966	1471988947014		8
5278	56014	US President Bill Clinton favours lifting the embargo.	US President Bill Clinton favours lifting the embargo.	2663167	1471988947110	1471988947166		8
5278	56014	US President Bill Clinton favours lifting the embargo.	US President Bill Clinton favours lifting the embargo.	2663186	1471988947246	1471988947294		8
5278	56014	US President Bill Clinton favours lifting the embargo.	US President Bill Clinton favours lifting the embargo.	2663189	1471988947350	1471988947486		82
5278	56014	US President Bill Clinton favours lifting the embargo.	US President Bill Clinton favours lifting the embargo.	2663193	1471988947462	1471988947547		69
5278	56014	US President Bill Clinton favours lifting the embargo.	US President Bill Clinton favours lifting the embargo.	2663195	1471988947598	1471988947700		83
5278	56014	US President Bill Clinton favours lifting the embargo.	US President Bill Clinton favours lifting the embargo.	2663198	1471988947704	1471988947793		73
5278	56014	US President Bill Clinton favours lifting the embargo.	US President Bill Clinton favours lifting the embargo.	2663245	1471988948020	1471988948061		69
5278	56014	US President Bill Clinton favours lifting the embargo.	US President Bill Clinton favours lifting the embargo.	2663250	1471988948102	1471988948214		78
5278	56014	US President Bill Clinton favours lifting the embargo.	US President Bill Clinton favours lifting the embargo.	2663254	1471988948230	1471988948313		84
5278	56014	US President Bill Clinton favours lifting the embargo.	US President Bill Clinton favours lifting the embargo.	2663257	1471988948479	1471988948534		8
5278	56014	US President Bill Clinton favours lifting the embargo.	US President Bill Clinton favours lifting the embargo.	2663263	1471988948614	1471988948686		8
5278	56014	US President Bill Clinton favours lifting the embargo.	US President Bill Clinton favours lifting the embargo.	2663296	1471988948750	1471988948862		8
5278	56014	US President Bill Clinton favours lifting the embargo.	US President Bill Clinton favours lifting the embargo.	2663300	1471988948862	1471988948923		68
5278	56014	US President Bill Clinton favours lifting the embargo.	US President Bill Clinton favours lifting the embargo.	2663304	1471988948998	1471988949086		69
5278	56014	US President Bill Clinton favours lifting the embargo.	US President Bill Clinton favours lifting the embargo.	2663307	1471988949102	1471988949191		78
5278	56014	US President Bill Clinton favours lifting the embargo.	US President Bill Clinton favours lifting the embargo.	2663310	1471988949206	1471988949278		84
5278	56014	US President Bill Clinton favours lifting the embargo.	US President Bill Clinton favours lifting the embargo.	2663342	1471988949302	1471988949406		32
5278	56014	US President Bill Clinton favours lifting the embargo.	US President Bill Clinton favours lifting the embargo.	2663344	1471988949422	1471988949614	SHIFT	16
5278	56014	US President Bill Clinton favours lifting the embargo.	US President Bill Clinton favours lifting the embargo.	2663347	1471988949554	1471988949654		66
5278	56014	US President Bill Clinton favours lifting the embargo.	US President Bill Clinton favours lifting the embargo.	2663350	1471988949614	1471988949678		73
5278	56014	US President Bill Clinton favours lifting the embargo.	US President Bill Clinton favours lifting the embargo.	2663353	1471988949766	1471988949830		76
5278	56014	US President Bill Clinton favours lifting the embargo.	US President Bill Clinton favours lifting the embargo.	2663356	1471988949942	1471988950030		76
5278	56014	US President Bill Clinton favours lifting the embargo.	US President Bill Clinton favours lifting the embargo.	2663385	1471988950128	1471988950382		16
5278	56014	US President Bill Clinton favours lifting the embargo.	US President Bill Clinton favours lifting the embargo.	2663386	1471988950294	1471988950430		67
5278	56014	US President Bill Clinton favours lifting the embargo.	US President Bill Clinton favours lifting the embargo.	2663389	1471988950510	1471988950630		76
5278	56014	US President Bill Clinton favours lifting the embargo.	US President Bill Clinton favours lifting the embargo.	2663394	1471988950670	1471988950765		73
5278	56014	US President Bill Clinton favours lifting the embargo.	US President Bill Clinton favours lifting the embargo.	2663397	1471988950807	1471988950869		78
5278	56014	US President Bill Clinton favours lifting the embargo.	US President Bill Clinton favours lifting the embargo.	2663454	1471988950910	1471988950990		84
5278	56014	US President Bill Clinton favours lifting the embargo.	US President Bill Clinton favours lifting the embargo.	2663458	1471988951006	1471988951069		79
5278	56014	US President Bill Clinton favours lifting the embargo.	US President Bill Clinton favours lifting the embargo.	2663464	1471988951142	1471988951229		78
5278	56014	US President Bill Clinton favours lifting the embargo.	US President Bill Clinton favours lifting the embargo.	2663470	1471988951310	1471988951357		32
5278	56014	US President Bill Clinton favours lifting the embargo.	US President Bill Clinton favours lifting the embargo.	2663478	1471988951758	1471988951926		70
5278	56014	US President Bill Clinton favours lifting the embargo.	US President Bill Clinton favours lifting the embargo.	2663548	1471988951928	1471988952032		65
5278	56014	US President Bill Clinton favours lifting the embargo.	US President Bill Clinton favours lifting the embargo.	2663554	1471988952902	1471988953005		86
5278	56014	US President Bill Clinton favours lifting the embargo.	US President Bill Clinton favours lifting the embargo.	2663561	1471988953021	1471988953134		79
5278	56014	US President Bill Clinton favours lifting the embargo.	US President Bill Clinton favours lifting the embargo.	2663568	1471988953158	1471988953294		85
5278	56014	US President Bill Clinton favours lifting the embargo.	US President Bill Clinton favours lifting the embargo.	2663613	1471988953270	1471988953349		82
5278	56014	US President Bill Clinton favours lifting the embargo.	US President Bill Clinton favours lifting the embargo.	2663615	1471988953430	1471988953533		83
5278	56014	US President Bill Clinton favours lifting the embargo.	US President Bill Clinton favours lifting the embargo.	2663618	1471988953630	1471988953702		32
5278	56014	US President Bill Clinton favours lifting the embargo.	US President Bill Clinton favours lifting the embargo.	2663621	1471988953773	1471988953845		76
5278	56014	US President Bill Clinton favours lifting the embargo.	US President Bill Clinton favours lifting the embargo.	2663623	1471988953958	1471988954054		73
5278	56014	US President Bill Clinton favours lifting the embargo.	US President Bill Clinton favours lifting the embargo.	2663625	1471988954086	1471988954173		70
5278	56014	US President Bill Clinton favours lifting the embargo.	US President Bill Clinton favours lifting the embargo.	2663636	1471988954302	1471988954365		84
5278	56014	US President Bill Clinton favours lifting the embargo.	US President Bill Clinton favours lifting the embargo.	2663639	1471988954342	1471988954437		73
5278	56014	US President Bill Clinton favours lifting the embargo.	US President Bill Clinton favours lifting the embargo.	2663643	1471988954469	1471988954549		78
5278	56014	US President Bill Clinton favours lifting the embargo.	US President Bill Clinton favours lifting the embargo.	2663646	1471988954577	1471988954630		71
5278	56014	US President Bill Clinton favours lifting the embargo.	US President Bill Clinton favours lifting the embargo.	2663651	1471988954682	1471988954760		32
5278	56014	US President Bill Clinton favours lifting the embargo.	US President Bill Clinton favours lifting the embargo.	2663670	1471988954784	1471988954872		84
5278	56014	US President Bill Clinton favours lifting the embargo.	US President Bill Clinton favours lifting the embargo.	2663673	1471988954846	1471988954936		72
5278	56014	US President Bill Clinton favours lifting the embargo.	US President Bill Clinton favours lifting the embargo.	2663678	1471988954937	1471988955073		69
5278	56014	US President Bill Clinton favours lifting the embargo.	US President Bill Clinton favours lifting the embargo.	2663682	1471988955041	1471988955138		32
5278	56014	US President Bill Clinton favours lifting the embargo.	US President Bill Clinton favours lifting the embargo.	2663687	1471988955310	1471988955429		69
5278	56014	US President Bill Clinton favours lifting the embargo.	US President Bill Clinton favours lifting the embargo.	2663717	1471988955431	1471988955533		77
5278	56014	US President Bill Clinton favours lifting the embargo.	US President Bill Clinton favours lifting the embargo.	2663718	1471988955661	1471988955752		66
5278	56014	US President Bill Clinton favours lifting the embargo.	US President Bill Clinton favours lifting the embargo.	2663720	1471988955782	1471988955973		65
5278	56014	US President Bill Clinton favours lifting the embargo.	US President Bill Clinton favours lifting the embargo.	2663719	1471988955910	1471988955949		82
5278	56014	US President Bill Clinton favours lifting the embargo.	US President Bill Clinton favours lifting the embargo.	2663721	1471988956430	1471988956525		71
5278	56014	US President Bill Clinton favours lifting the embargo.	US President Bill Clinton favours lifting the embargo.	2663743	1471988956597	1471988956693		79
5278	56014	US President Bill Clinton favours lifting the embargo.	US President Bill Clinton favours lifting the embargo.	2663748	1471988956821	1471988956941		190
5278	56032	How would you explain the difference between the two?	How would you explain the difference between the two?	2663952	1471988959277	1471988959565	SHIFT	16
5278	56032	How would you explain the difference between the two?	How would you explain the difference between the two?	2663957	1471988959509	1471988959581		72
5278	56032	How would you explain the difference between the two?	How would you explain the difference between the two?	2663963	1471988959637	1471988959733		79
5278	56032	How would you explain the difference between the two?	How would you explain the difference between the two?	2663967	1471988959749	1471988959797		87
5278	56032	How would you explain the difference between the two?	How would you explain the difference between the two?	2663971	1471988959853	1471988959941		32
5278	56032	How would you explain the difference between the two?	How would you explain the difference between the two?	2663976	1471988959957	1471988960045		87
5278	56032	How would you explain the difference between the two?	How would you explain the difference between the two?	2664001	1471988960070	1471988960142		79
5278	56032	How would you explain the difference between the two?	How would you explain the difference between the two?	2664006	1471988960158	1471988960237		85
5278	56032	How would you explain the difference between the two?	How would you explain the difference between the two?	2664009	1471988960285	1471988960390		76
5278	56032	How would you explain the difference between the two?	How would you explain the difference between the two?	2664014	1471988960390	1471988960461		68
5278	56032	How would you explain the difference between the two?	How would you explain the difference between the two?	2664019	1471988960462	1471988960573		32
5278	56032	How would you explain the difference between the two?	How would you explain the difference between the two?	2664045	1471988960549	1471988960668		89
5278	56032	How would you explain the difference between the two?	How would you explain the difference between the two?	2664049	1471988960666	1471988960781		79
5278	56032	How would you explain the difference between the two?	How would you explain the difference between the two?	2664053	1471988960758	1471988960878		85
5278	56032	How would you explain the difference between the two?	How would you explain the difference between the two?	2664056	1471988960853	1471988960933		32
5278	56032	How would you explain the difference between the two?	How would you explain the difference between the two?	2664062	1471988960949	1471988961016		69
5278	56032	How would you explain the difference between the two?	How would you explain the difference between the two?	2664066	1471988961133	1471988961253		88
5278	56032	How would you explain the difference between the two?	How would you explain the difference between the two?	2664149	1471988961214	1471988961269		80
5278	56032	How would you explain the difference between the two?	How would you explain the difference between the two?	2664156	1471988961381	1471988961461		76
5278	56032	How would you explain the difference between the two?	How would you explain the difference between the two?	2664164	1471988961582	1471988961709		73
5278	56032	How would you explain the difference between the two?	How would you explain the difference between the two?	2664171	1471988962122	1471988962213		78
5278	56032	How would you explain the difference between the two?	How would you explain the difference between the two?	2664178	1471988962477	1471988962551		8
5278	56032	How would you explain the difference between the two?	How would you explain the difference between the two?	2664187	1471988962621	1471988962733		8
5278	56032	How would you explain the difference between the two?	How would you explain the difference between the two?	2664230	1471988962797	1471988962917		65
5278	56032	How would you explain the difference between the two?	How would you explain the difference between the two?	2664235	1471988963045	1471988963158		73
5278	56032	How would you explain the difference between the two?	How would you explain the difference between the two?	2664238	1471988963181	1471988963286		78
5278	56032	How would you explain the difference between the two?	How would you explain the difference between the two?	2664240	1471988963318	1471988963430		32
5278	56032	How would you explain the difference between the two?	How would you explain the difference between the two?	2664241	1471988963445	1471988963581		84
5278	56032	How would you explain the difference between the two?	How would you explain the difference between the two?	2664267	1471988963525	1471988963613		72
5278	56032	How would you explain the difference between the two?	How would you explain the difference between the two?	2664272	1471988963661	1471988963765		69
5278	56032	How would you explain the difference between the two?	How would you explain the difference between the two?	2664277	1471988963766	1471988963869		32
5278	56032	How would you explain the difference between the two?	How would you explain the difference between the two?	2664282	1471988963949	1471988964046		68
5278	56032	How would you explain the difference between the two?	How would you explain the difference between the two?	2664291	1471988964061	1471988964165		73
5278	56032	How would you explain the difference between the two?	How would you explain the difference between the two?	2664295	1471988964189	1471988964213		70
5278	56032	How would you explain the difference between the two?	How would you explain the difference between the two?	2664343	1471988964293	1471988964389		70
5278	56032	How would you explain the difference between the two?	How would you explain the difference between the two?	2664346	1471988964432	1471988964645		69
5278	56032	How would you explain the difference between the two?	How would you explain the difference between the two?	2664348	1471988964589	1471988964757		82
5278	56032	How would you explain the difference between the two?	How would you explain the difference between the two?	2664350	1471988964829	1471988964925		78
5278	56032	How would you explain the difference between the two?	How would you explain the difference between the two?	2664352	1471988964926	1471988965029		69
5278	56032	How would you explain the difference between the two?	How would you explain the difference between the two?	2664397	1471988965141	1471988965245		78
5278	56032	How would you explain the difference between the two?	How would you explain the difference between the two?	2664404	1471988965261	1471988965389		67
5278	56032	How would you explain the difference between the two?	How would you explain the difference between the two?	2664411	1471988965349	1471988965461		69
5278	56032	How would you explain the difference between the two?	How would you explain the difference between the two?	2664418	1471988965565	1471988965648		32
5278	56032	How would you explain the difference between the two?	How would you explain the difference between the two?	2664427	1471988965821	1471988965893		8
5278	56032	How would you explain the difference between the two?	How would you explain the difference between the two?	2664505	1471988965989	1471988966061		8
5278	56032	How would you explain the difference between the two?	How would you explain the difference between the two?	2664509	1471988966157	1471988966229		8
5278	56032	How would you explain the difference between the two?	How would you explain the difference between the two?	2664513	1471988966317	1471988966397		8
5278	56032	How would you explain the difference between the two?	How would you explain the difference between the two?	2664515	1471988966485	1471988966573		8
5278	56032	How would you explain the difference between the two?	How would you explain the difference between the two?	2664517	1471988966958	1471988967061		8
5278	56032	How would you explain the difference between the two?	How would you explain the difference between the two?	2664666	1471988968397	1471988968493		69
5278	56032	How would you explain the difference between the two?	How would you explain the difference between the two?	2664670	1471988968597	1471988968729		78
5278	56032	How would you explain the difference between the two?	How would you explain the difference between the two?	2664676	1471988968821	1471988968974		67
5278	56032	How would you explain the difference between the two?	How would you explain the difference between the two?	2664681	1471988968918	1471988969083		69
5278	56032	How would you explain the difference between the two?	How would you explain the difference between the two?	2664686	1471988969132	1471988969213		32
5278	56032	How would you explain the difference between the two?	How would you explain the difference between the two?	2664721	1471988969333	1471988969501		66
5278	56032	How would you explain the difference between the two?	How would you explain the difference between the two?	2664724	1471988969502	1471988969733		69
5278	56032	How would you explain the difference between the two?	How would you explain the difference between the two?	2664727	1471988969729	1471988969829		84
5278	56032	How would you explain the difference between the two?	How would you explain the difference between the two?	2664732	1471988969845	1471988969990		87
5278	56032	How would you explain the difference between the two?	How would you explain the difference between the two?	2664760	1471988969965	1471988970021		69
5278	56032	How would you explain the difference between the two?	How would you explain the difference between the two?	2664765	1471988970117	1471988970197		69
5278	56032	How would you explain the difference between the two?	How would you explain the difference between the two?	2664776	1471988970261	1471988970349		78
5278	56032	How would you explain the difference between the two?	How would you explain the difference between the two?	2664783	1471988970373	1471988970485		32
5278	56032	How would you explain the difference between the two?	How would you explain the difference between the two?	2664788	1471988970461	1471988970549		84
5278	56032	How would you explain the difference between the two?	How would you explain the difference between the two?	2664795	1471988970549	1471988970653		72
5278	56032	How would you explain the difference between the two?	How would you explain the difference between the two?	2664844	1471988970629	1471988970702		69
5278	56032	How would you explain the difference between the two?	How would you explain the difference between the two?	2664847	1471988970725	1471988970821		32
5278	56032	How would you explain the difference between the two?	How would you explain the difference between the two?	2664849	1471988970797	1471988970853		84
5278	56032	How would you explain the difference between the two?	How would you explain the difference between the two?	2664852	1471988970869	1471988970965		87
5278	56032	How would you explain the difference between the two?	How would you explain the difference between the two?	2664854	1471988970981	1471988971085		79
5278	56032	How would you explain the difference between the two?	How would you explain the difference between the two?	2664856	1471988971213	1471988971566	SHIFT	16
5278	56032	How would you explain the difference between the two?	How would you explain the difference between the two?	2664851	1471988971461	1471988971569		191
5278	56058	Yes I am here actually.	Yes, I am here actually.	2665152	1471988974485	1471988974797	SHIFT	16
5278	56058	Yes I am here actually.	Yes, I am here actually.	2665154	1471988974797	1471988974813		85
5278	56058	Yes I am here actually.	Yes, I am here actually.	2665165	1471988974845	1471988974974		69
5278	56058	Yes I am here actually.	Yes, I am here actually.	2665173	1471988975069	1471988975101		83
5278	56058	Yes I am here actually.	Yes, I am here actually.	2665188	1471988975293	1471988975389		8
5278	56058	Yes I am here actually.	Yes, I am here actually.	2665230	1471988975405	1471988975517		8
5278	56058	Yes I am here actually.	Yes, I am here actually.	2665234	1471988975621	1471988975672		8
5278	56058	Yes I am here actually.	Yes, I am here actually.	2665240	1471988975757	1471988975816		8
5278	56058	Yes I am here actually.	Yes, I am here actually.	2665245	1471988975900	1471988976000		8
5278	56058	Yes I am here actually.	Yes, I am here actually.	2665252	1471988975961	1471988976221	SHIFT	16
5278	56058	Yes I am here actually.	Yes, I am here actually.	2665304	1471988976182	1471988976277		89
5278	56058	Yes I am here actually.	Yes, I am here actually.	2665308	1471988976293	1471988976413		69
5278	56058	Yes I am here actually.	Yes, I am here actually.	2665316	1471988976469	1471988976573		83
5278	56058	Yes I am here actually.	Yes, I am here actually.	2665322	1471988976837	1471988976949		188
5278	56058	Yes I am here actually.	Yes, I am here actually.	2665330	1471988977021	1471988977143		32
5278	56058	Yes I am here actually.	Yes, I am here actually.	2665335	1471988977271	1471988977456	SHIFT	16
5278	56058	Yes I am here actually.	Yes, I am here actually.	2665362	1471988977365	1471988977468		73
5278	56058	Yes I am here actually.	Yes, I am here actually.	2665366	1471988977493	1471988977557		32
5278	56058	Yes I am here actually.	Yes, I am here actually.	2665368	1471988977597	1471988977693		65
5278	56058	Yes I am here actually.	Yes, I am here actually.	2665373	1471988977709	1471988977797		77
5278	56058	Yes I am here actually.	Yes, I am here actually.	2665379	1471988977845	1471988977925		32
5278	56058	Yes I am here actually.	Yes, I am here actually.	2665380	1471988977941	1471988978029		72
5278	56058	Yes I am here actually.	Yes, I am here actually.	2665424	1471988978030	1471988978126		69
5278	56058	Yes I am here actually.	Yes, I am here actually.	2665427	1471988978101	1471988978248		82
5278	56058	Yes I am here actually.	Yes, I am here actually.	2665430	1471988978221	1471988978333		69
5278	56058	Yes I am here actually.	Yes, I am here actually.	2665432	1471988978437	1471988978549		32
5278	56058	Yes I am here actually.	Yes, I am here actually.	2665435	1471988978693	1471988978845		65
5278	56058	Yes I am here actually.	Yes, I am here actually.	2665475	1471988978807	1471988978917		67
5278	56058	Yes I am here actually.	Yes, I am here actually.	2665481	1471988979062	1471988979173		84
5278	56058	Yes I am here actually.	Yes, I am here actually.	2665488	1471988979173	1471988979261		85
5278	56058	Yes I am here actually.	Yes, I am here actually.	2665493	1471988979317	1471988979413		65
5278	56058	Yes I am here actually.	Yes, I am here actually.	2665499	1471988979429	1471988979477		76
5278	56058	Yes I am here actually.	Yes, I am here actually.	2665504	1471988979573	1471988979669		76
5278	56058	Yes I am here actually.	Yes, I am here actually.	2665669	1471988979781	1471988979877		89
5278	56058	Yes I am here actually.	Yes, I am here actually.	2665673	1471988981301	1471988981453		190
5278	56074	It would lessen that anxiety that the officers are faced with.	It would lessen that anxiety that the officers are faced with.	2665888	1471988984477	1471988984781	SHIFT	16
5278	56074	It would lessen that anxiety that the officers are faced with.	It would lessen that anxiety that the officers are faced with.	2665896	1471988984741	1471988984821		73
5278	56074	It would lessen that anxiety that the officers are faced with.	It would lessen that anxiety that the officers are faced with.	2665902	1471988984845	1471988984933		84
5278	56074	It would lessen that anxiety that the officers are faced with.	It would lessen that anxiety that the officers are faced with.	2665909	1471988984933	1471988985062		32
5278	56074	It would lessen that anxiety that the officers are faced with.	It would lessen that anxiety that the officers are faced with.	2665913	1471988985037	1471988985165		87
5278	56074	It would lessen that anxiety that the officers are faced with.	It would lessen that anxiety that the officers are faced with.	2665938	1471988985141	1471988985205		79
5278	56074	It would lessen that anxiety that the officers are faced with.	It would lessen that anxiety that the officers are faced with.	2665946	1471988985221	1471988985317		85
5278	56074	It would lessen that anxiety that the officers are faced with.	It would lessen that anxiety that the officers are faced with.	2665951	1471988985357	1471988985445		76
5278	56074	It would lessen that anxiety that the officers are faced with.	It would lessen that anxiety that the officers are faced with.	2665956	1471988985461	1471988985533		68
5278	56074	It would lessen that anxiety that the officers are faced with.	It would lessen that anxiety that the officers are faced with.	2665962	1471988985557	1471988985645		32
5278	56074	It would lessen that anxiety that the officers are faced with.	It would lessen that anxiety that the officers are faced with.	2665969	1471988985749	1471988985885		76
5278	56074	It would lessen that anxiety that the officers are faced with.	It would lessen that anxiety that the officers are faced with.	2666024	1471988985861	1471988985957		69
5278	56074	It would lessen that anxiety that the officers are faced with.	It would lessen that anxiety that the officers are faced with.	2666028	1471988986029	1471988986069		83
5278	56074	It would lessen that anxiety that the officers are faced with.	It would lessen that anxiety that the officers are faced with.	2666031	1471988986189	1471988986293		83
5278	56074	It would lessen that anxiety that the officers are faced with.	It would lessen that anxiety that the officers are faced with.	2666035	1471988986341	1471988986461		69
5278	56074	It would lessen that anxiety that the officers are faced with.	It would lessen that anxiety that the officers are faced with.	2666039	1471988986533	1471988986637		78
5278	56074	It would lessen that anxiety that the officers are faced with.	It would lessen that anxiety that the officers are faced with.	2666043	1471988986661	1471988986781		32
5278	56074	It would lessen that anxiety that the officers are faced with.	It would lessen that anxiety that the officers are faced with.	2666082	1471988986693	1471988986797		84
5278	56074	It would lessen that anxiety that the officers are faced with.	It would lessen that anxiety that the officers are faced with.	2666087	1471988986877	1471988986973		72
5278	56074	It would lessen that anxiety that the officers are faced with.	It would lessen that anxiety that the officers are faced with.	2666093	1471988986949	1471988987125		65
5278	56074	It would lessen that anxiety that the officers are faced with.	It would lessen that anxiety that the officers are faced with.	2666099	1471988987069	1471988987197		84
5278	56074	It would lessen that anxiety that the officers are faced with.	It would lessen that anxiety that the officers are faced with.	2666101	1471988987229	1471988987309		32
5278	56074	It would lessen that anxiety that the officers are faced with.	It would lessen that anxiety that the officers are faced with.	2666106	1471988987421	1471988987573		65
5278	56074	It would lessen that anxiety that the officers are faced with.	It would lessen that anxiety that the officers are faced with.	2666154	1471988988061	1471988988188		78
5278	56074	It would lessen that anxiety that the officers are faced with.	It would lessen that anxiety that the officers are faced with.	2666158	1471988988389	1471988988492		88
5278	56074	It would lessen that anxiety that the officers are faced with.	It would lessen that anxiety that the officers are faced with.	2666162	1471988988533	1471988988644		73
5278	56074	It would lessen that anxiety that the officers are faced with.	It would lessen that anxiety that the officers are faced with.	2666168	1471988988661	1471988988804		69
5278	56074	It would lessen that anxiety that the officers are faced with.	It would lessen that anxiety that the officers are faced with.	2666226	1471988988781	1471988988909		84
5278	56074	It would lessen that anxiety that the officers are faced with.	It would lessen that anxiety that the officers are faced with.	2666228	1471988988980	1471988989085		89
5278	56074	It would lessen that anxiety that the officers are faced with.	It would lessen that anxiety that the officers are faced with.	2666230	1471988989085	1471988989180		32
5278	56074	It would lessen that anxiety that the officers are faced with.	It would lessen that anxiety that the officers are faced with.	2666233	1471988989349	1471988989492		84
5278	56074	It would lessen that anxiety that the officers are faced with.	It would lessen that anxiety that the officers are faced with.	2666237	1471988989508	1471988989621		72
5278	56074	It would lessen that anxiety that the officers are faced with.	It would lessen that anxiety that the officers are faced with.	2666243	1471988989621	1471988989801		65
5278	56074	It would lessen that anxiety that the officers are faced with.	It would lessen that anxiety that the officers are faced with.	2666268	1471988989724	1471988989822		84
5278	56074	It would lessen that anxiety that the officers are faced with.	It would lessen that anxiety that the officers are faced with.	2666272	1471988989869	1471988989981		32
5278	56074	It would lessen that anxiety that the officers are faced with.	It would lessen that anxiety that the officers are faced with.	2666278	1471988989981	1471988990116		84
5278	56074	It would lessen that anxiety that the officers are faced with.	It would lessen that anxiety that the officers are faced with.	2666280	1471988990085	1471988990174		72
5278	56074	It would lessen that anxiety that the officers are faced with.	It would lessen that anxiety that the officers are faced with.	2666284	1471988990175	1471988990269		69
5278	56074	It would lessen that anxiety that the officers are faced with.	It would lessen that anxiety that the officers are faced with.	2666289	1471988990269	1471988990373		32
5278	56074	It would lessen that anxiety that the officers are faced with.	It would lessen that anxiety that the officers are faced with.	2666333	1471988990452	1471988990556		79
5278	56074	It would lessen that anxiety that the officers are faced with.	It would lessen that anxiety that the officers are faced with.	2666341	1471988990685	1471988990828		70
5278	56074	It would lessen that anxiety that the officers are faced with.	It would lessen that anxiety that the officers are faced with.	2666346	1471988990925	1471988991020		70
5278	56074	It would lessen that anxiety that the officers are faced with.	It would lessen that anxiety that the officers are faced with.	2666350	1471988991076	1471988991188		73
5278	56074	It would lessen that anxiety that the officers are faced with.	It would lessen that anxiety that the officers are faced with.	2666353	1471988991205	1471988991292		67
5278	56074	It would lessen that anxiety that the officers are faced with.	It would lessen that anxiety that the officers are faced with.	2666382	1471988991277	1471988991460		69
5278	56074	It would lessen that anxiety that the officers are faced with.	It would lessen that anxiety that the officers are faced with.	2666386	1471988991436	1471988991532		82
5278	56074	It would lessen that anxiety that the officers are faced with.	It would lessen that anxiety that the officers are faced with.	2666391	1471988991556	1471988991636		83
5278	56074	It would lessen that anxiety that the officers are faced with.	It would lessen that anxiety that the officers are faced with.	2666395	1471988991676	1471988991781		32
5278	56074	It would lessen that anxiety that the officers are faced with.	It would lessen that anxiety that the officers are faced with.	2666399	1471988991708	1471988991892		65
5278	56074	It would lessen that anxiety that the officers are faced with.	It would lessen that anxiety that the officers are faced with.	2666443	1471988991836	1471988991957		82
5278	56074	It would lessen that anxiety that the officers are faced with.	It would lessen that anxiety that the officers are faced with.	2666452	1471988991933	1471988992052		69
5278	56074	It would lessen that anxiety that the officers are faced with.	It would lessen that anxiety that the officers are faced with.	2666465	1471988992236	1471988992372		32
5278	56074	It would lessen that anxiety that the officers are faced with.	It would lessen that anxiety that the officers are faced with.	2666473	1471988992484	1471988992604		70
5278	56074	It would lessen that anxiety that the officers are faced with.	It would lessen that anxiety that the officers are faced with.	2666482	1471988992580	1471988992716		65
5278	56074	It would lessen that anxiety that the officers are faced with.	It would lessen that anxiety that the officers are faced with.	2666488	1471988992717	1471988992868		67
5278	56074	It would lessen that anxiety that the officers are faced with.	It would lessen that anxiety that the officers are faced with.	2666503	1471988992820	1471988992925		69
5278	56074	It would lessen that anxiety that the officers are faced with.	It would lessen that anxiety that the officers are faced with.	2666504	1471988993036	1471988993100		68
5278	56074	It would lessen that anxiety that the officers are faced with.	It would lessen that anxiety that the officers are faced with.	2666507	1471988993164	1471988993300		32
5278	56074	It would lessen that anxiety that the officers are faced with.	It would lessen that anxiety that the officers are faced with.	2666511	1471988993260	1471988993340		87
5278	56074	It would lessen that anxiety that the officers are faced with.	It would lessen that anxiety that the officers are faced with.	2666515	1471988993372	1471988993476		73
5278	56074	It would lessen that anxiety that the officers are faced with.	It would lessen that anxiety that the officers are faced with.	2666519	1471988993477	1471988993588		84
5278	56074	It would lessen that anxiety that the officers are faced with.	It would lessen that anxiety that the officers are faced with.	2666536	1471988993564	1471988993636		72
5278	56074	It would lessen that anxiety that the officers are faced with.	It would lessen that anxiety that the officers are faced with.	2666540	1471988993812	1471988993876		190
5278	56091	What will happen to this project?	What will happen to this project?	2666765	1471988995708	1471988996610	SHIFT	16
5278	56091	What will happen to this project?	What will happen to this project?	2666767	1471988996500	1471988996632		87
5278	56091	What will happen to this project?	What will happen to this project?	2666769	1471988996791	1471988996921		72
5278	56091	What will happen to this project?	What will happen to this project?	2666774	1471988996921	1471988997085		65
5278	56091	What will happen to this project?	What will happen to this project?	2666779	1471988997037	1471988997161		84
5278	56091	What will happen to this project?	What will happen to this project?	2666785	1471988997166	1471988997263		32
5278	56091	What will happen to this project?	What will happen to this project?	2666832	1471988997236	1471988997372		87
5278	56091	What will happen to this project?	What will happen to this project?	2666836	1471988997373	1471988997436		73
5278	56091	What will happen to this project?	What will happen to this project?	2666842	1471988997532	1471988997564		76
5278	56091	What will happen to this project?	What will happen to this project?	2666848	1471988997684	1471988997796		76
5278	56091	What will happen to this project?	What will happen to this project?	2666851	1471988997813	1471988997916		32
5278	56091	What will happen to this project?	What will happen to this project?	2666854	1471988997947	1471988998052		72
5278	56091	What will happen to this project?	What will happen to this project?	2666882	1471988998054	1471988998172		65
5278	56091	What will happen to this project?	What will happen to this project?	2666886	1471988998173	1471988998228		80
5278	56091	What will happen to this project?	What will happen to this project?	2666891	1471988998300	1471988998396		80
5278	56091	What will happen to this project?	What will happen to this project?	2666897	1471988998412	1471988998508		69
5278	56091	What will happen to this project?	What will happen to this project?	2666900	1471988998588	1471988998692		78
5278	56091	What will happen to this project?	What will happen to this project?	2666939	1471988998716	1471988998812		32
5278	56091	What will happen to this project?	What will happen to this project?	2666944	1471988998852	1471988998940		84
5278	56091	What will happen to this project?	What will happen to this project?	2666950	1471988998980	1471988999070		79
5278	56091	What will happen to this project?	What will happen to this project?	2666957	1471988999028	1471988999132		32
5278	56091	What will happen to this project?	What will happen to this project?	2666963	1471988999156	1471988999292		84
5278	56091	What will happen to this project?	What will happen to this project?	2667002	1471988999308	1471988999404		72
5278	56091	What will happen to this project?	What will happen to this project?	2667007	1471988999524	1471988999636		73
5278	56091	What will happen to this project?	What will happen to this project?	2667013	1471988999652	1471988999758		83
5278	56091	What will happen to this project?	What will happen to this project?	2667018	1471988999804	1471988999860		32
5278	56091	What will happen to this project?	What will happen to this project?	2667023	1471988999932	1471989000037		80
5278	56091	What will happen to this project?	What will happen to this project?	2667102	1471989000039	1471989000100		82
5278	56091	What will happen to this project?	What will happen to this project?	2667109	1471989000196	1471989000337		79
5278	56091	What will happen to this project?	What will happen to this project?	2667121	1471989000909	1471989001032		74
5278	56091	What will happen to this project?	What will happen to this project?	2667132	1471989001036	1471989001124		69
5278	56091	What will happen to this project?	What will happen to this project?	2667143	1471989001165	1471989001277		67
5278	56091	What will happen to this project?	What will happen to this project?	2667162	1471989001397	1471989001476		84
5278	56091	What will happen to this project?	What will happen to this project?	2667164	1471989001589	1471989001884	SHIFT	16
5278	56091	What will happen to this project?	What will happen to this project?	2667168	1471989001780	1471989001885		191
5278	56101	What do you show as the storage schedule?	What do you show as the storage schedule	2667350	1471989003985	1471989004349	SHIFT	16
5278	56101	What do you show as the storage schedule?	What do you show as the storage schedule	2667355	1471989004260	1471989004420		87
5278	56101	What do you show as the storage schedule?	What do you show as the storage schedule	2667358	1471989004516	1471989004644		72
5278	56101	What do you show as the storage schedule?	What do you show as the storage schedule	2667360	1471989004660	1471989004820		65
5278	56101	What do you show as the storage schedule?	What do you show as the storage schedule	2667362	1471989004764	1471989004900		84
5278	56101	What do you show as the storage schedule?	What do you show as the storage schedule	2667401	1471989004844	1471989004924		32
5278	56101	What do you show as the storage schedule?	What do you show as the storage schedule	2667411	1471989005027	1471989005092		68
5278	56101	What do you show as the storage schedule?	What do you show as the storage schedule	2667421	1471989005093	1471989005212		79
5278	56101	What do you show as the storage schedule?	What do you show as the storage schedule	2667430	1471989005188	1471989005292		32
5278	56101	What do you show as the storage schedule?	What do you show as the storage schedule	2667436	1471989005308	1471989005428		89
5278	56101	What do you show as the storage schedule?	What do you show as the storage schedule	2667454	1471989005404	1471989005540		79
5278	56101	What do you show as the storage schedule?	What do you show as the storage schedule	2667462	1471989005516	1471989005612		85
5278	56101	What do you show as the storage schedule?	What do you show as the storage schedule	2667468	1471989005613	1471989005692		32
5278	56101	What do you show as the storage schedule?	What do you show as the storage schedule	2667474	1471989005708	1471989005788		83
5278	56101	What do you show as the storage schedule?	What do you show as the storage schedule	2667480	1471989005789	1471989005844		72
5278	56101	What do you show as the storage schedule?	What do you show as the storage schedule	2667484	1471989005868	1471989005997		79
5278	56101	What do you show as the storage schedule?	What do you show as the storage schedule	2667506	1471989005972	1471989006036		87
5278	56101	What do you show as the storage schedule?	What do you show as the storage schedule	2667508	1471989006060	1471989006220		65
5278	56101	What do you show as the storage schedule?	What do you show as the storage schedule	2667510	1471989006150	1471989006252		32
5278	56101	What do you show as the storage schedule?	What do you show as the storage schedule	2667513	1471989006660	1471989006740		8
5278	56101	What do you show as the storage schedule?	What do you show as the storage schedule	2667516	1471989006812	1471989006916		8
5278	56101	What do you show as the storage schedule?	What do you show as the storage schedule	2667519	1471989006996	1471989007100		32
5278	56101	What do you show as the storage schedule?	What do you show as the storage schedule	2667535	1471989007117	1471989007268		65
5278	56101	What do you show as the storage schedule?	What do you show as the storage schedule	2667538	1471989007213	1471989007324		83
5278	56101	What do you show as the storage schedule?	What do you show as the storage schedule	2667541	1471989007356	1471989007460		32
5278	56101	What do you show as the storage schedule?	What do you show as the storage schedule	2667544	1471989007476	1471989007620		84
5278	56101	What do you show as the storage schedule?	What do you show as the storage schedule	2667572	1471989007564	1471989007660		72
5278	56101	What do you show as the storage schedule?	What do you show as the storage schedule	2667575	1471989007660	1471989007772		69
5278	56101	What do you show as the storage schedule?	What do you show as the storage schedule	2667580	1471989007748	1471989007820		32
5278	56101	What do you show as the storage schedule?	What do you show as the storage schedule	2667585	1471989008029	1471989008187		83
5278	56101	What do you show as the storage schedule?	What do you show as the storage schedule	2667591	1471989008164	1471989008260		84
5278	56101	What do you show as the storage schedule?	What do you show as the storage schedule	2667636	1471989008316	1471989008428		79
5278	56101	What do you show as the storage schedule?	What do you show as the storage schedule	2667597	1471989008340	1471989008380		80
5278	56101	What do you show as the storage schedule?	What do you show as the storage schedule	2667640	1471989008429	1471989008492		82
5278	56101	What do you show as the storage schedule?	What do you show as the storage schedule	2667643	1471989008532	1471989008644		65
5278	56101	What do you show as the storage schedule?	What do you show as the storage schedule	2667645	1471989008761	1471989008852		71
5278	56101	What do you show as the storage schedule?	What do you show as the storage schedule	2667648	1471989008884	1471989008980		69
5278	56101	What do you show as the storage schedule?	What do you show as the storage schedule	2667651	1471989009188	1471989009268		8
5278	56101	What do you show as the storage schedule?	What do you show as the storage schedule	2667687	1471989009340	1471989009436		8
5278	56101	What do you show as the storage schedule?	What do you show as the storage schedule	2667689	1471989009532	1471989009604		8
5278	56101	What do you show as the storage schedule?	What do you show as the storage schedule	2667692	1471989009700	1471989009796		8
5278	56101	What do you show as the storage schedule?	What do you show as the storage schedule	2667695	1471989009892	1471989009980		8
5278	56101	What do you show as the storage schedule?	What do you show as the storage schedule	2667699	1471989009997	1471989010092		82
5278	56101	What do you show as the storage schedule?	What do you show as the storage schedule	2667736	1471989010124	1471989010300		65
5278	56101	What do you show as the storage schedule?	What do you show as the storage schedule	2667737	1471989010332	1471989010492		71
5278	56101	What do you show as the storage schedule?	What do you show as the storage schedule	2667739	1471989010468	1471989010556		69
5278	56101	What do you show as the storage schedule?	What do you show as the storage schedule	2667741	1471989010584	1471989010709		32
5278	56101	What do you show as the storage schedule?	What do you show as the storage schedule	2667744	1471989010818	1471989010960		83
5278	56101	What do you show as the storage schedule?	What do you show as the storage schedule	2667766	1471989010997	1471989011117		67
5278	56101	What do you show as the storage schedule?	What do you show as the storage schedule	2667769	1471989011117	1471989011212		72
5278	56101	What do you show as the storage schedule?	What do you show as the storage schedule	2667773	1471989011212	1471989011276		69
5278	56101	What do you show as the storage schedule?	What do you show as the storage schedule	2667777	1471989011380	1471989011452		68
5278	56101	What do you show as the storage schedule?	What do you show as the storage schedule	2667782	1471989011468	1471989011556		85
5278	56101	What do you show as the storage schedule?	What do you show as the storage schedule	2667793	1471989011532	1471989011652		76
5278	56101	What do you show as the storage schedule?	What do you show as the storage schedule	2667796	1471989011652	1471989011724		69
5278	56116	Email the consent to me.	Email the consent to me.	2667966	1471989014109	1471989014364	SHIFT	16
5278	56116	Email the consent to me.	Email the consent to me.	2667968	1471989014276	1471989014412		69
5278	56116	Email the consent to me.	Email the consent to me.	2667970	1471989014436	1471989014572		77
5278	56116	Email the consent to me.	Email the consent to me.	2667974	1471989014548	1471989014668		65
5278	56116	Email the consent to me.	Email the consent to me.	2667979	1471989014644	1471989014748		73
5278	56116	Email the consent to me.	Email the consent to me.	2667982	1471989014780	1471989014900		76
5278	56116	Email the consent to me.	Email the consent to me.	2668006	1471989014844	1471989014950		32
5278	56116	Email the consent to me.	Email the consent to me.	2668007	1471989014964	1471989015108		84
5278	56116	Email the consent to me.	Email the consent to me.	2668009	1471989015004	1471989015108		72
5278	56116	Email the consent to me.	Email the consent to me.	2668011	1471989015180	1471989015316		69
5278	56116	Email the consent to me.	Email the consent to me.	2668015	1471989015212	1471989015355		32
5278	56116	Email the consent to me.	Email the consent to me.	2668018	1471989015468	1471989015580		67
5278	56116	Email the consent to me.	Email the consent to me.	2668046	1471989015556	1471989015612		79
5278	56116	Email the consent to me.	Email the consent to me.	2668047	1471989015668	1471989015788		78
5278	56116	Email the consent to me.	Email the consent to me.	2668049	1471989015788	1471989015908		83
5278	56116	Email the consent to me.	Email the consent to me.	2668051	1471989015868	1471989015988		69
5278	56116	Email the consent to me.	Email the consent to me.	2668054	1471989016068	1471989016180		78
5278	56116	Email the consent to me.	Email the consent to me.	2668077	1471989016156	1471989016244		84
5278	56116	Email the consent to me.	Email the consent to me.	2668079	1471989016294	1471989016412		32
5278	56116	Email the consent to me.	Email the consent to me.	2668082	1471989016388	1471989016468		84
5278	56116	Email the consent to me.	Email the consent to me.	2668085	1471989016484	1471989016596		79
5278	56116	Email the consent to me.	Email the consent to me.	2668087	1471989016572	1471989016620		32
5278	56116	Email the consent to me.	Email the consent to me.	2668091	1471989016708	1471989016812		77
5278	56116	Email the consent to me.	Email the consent to me.	2668105	1471989016814	1471989016924		69
5278	56116	Email the consent to me.	Email the consent to me.	2668109	1471989017028	1471989017116		190
5278	56125	Will you come get me?	Will you come get me?	2668333	1471989019036	1471989019308	SHIFT	16
5278	56125	Will you come get me?	Will you come get me?	2668342	1471989019268	1471989019380		87
5278	56125	Will you come get me?	Will you come get me?	2668349	1471989019380	1471989019492		73
5278	56125	Will you come get me?	Will you come get me?	2668354	1471989019564	1471989019636		76
5278	56125	Will you come get me?	Will you come get me?	2668360	1471989019692	1471989019806		76
5278	56125	Will you come get me?	Will you come get me?	2668364	1471989020116	1471989020252		32
5278	56125	Will you come get me?	Will you come get me?	2668380	1471989020276	1471989020412		89
5278	56125	Will you come get me?	Will you come get me?	2668383	1471989020388	1471989020547		79
5278	56125	Will you come get me?	Will you come get me?	2668388	1471989020516	1471989020636		85
5278	56125	Will you come get me?	Will you come get me?	2668393	1471989020612	1471989020692		32
5278	56125	Will you come get me?	Will you come get me?	2668399	1471989020796	1471989020932		67
5278	56125	Will you come get me?	Will you come get me?	2668448	1471989020876	1471989020964		79
5278	56125	Will you come get me?	Will you come get me?	2668453	1471989021004	1471989021100		77
5278	56125	Will you come get me?	Will you come get me?	2668458	1471989021188	1471989021308		32
5278	56125	Will you come get me?	Will you come get me?	2668463	1471989021340	1471989021468		71
5278	56125	Will you come get me?	Will you come get me?	2668472	1471989021468	1471989021612		69
5278	56125	Will you come get me?	Will you come get me?	2668481	1471989021820	1471989021900		8
5278	56125	Will you come get me?	Will you come get me?	2668510	1471989021980	1471989022036		8
5278	56125	Will you come get me?	Will you come get me?	2668515	1471989022092	1471989022204		8
5278	56125	Will you come get me?	Will you come get me?	2668521	1471989022204	1471989022292		69
5278	56125	Will you come get me?	Will you come get me?	2668527	1471989022340	1471989022444		32
5278	56125	Will you come get me?	Will you come get me?	2668570	1471989022420	1471989022523		71
5278	56125	Will you come get me?	Will you come get me?	2668581	1471989022540	1471989022686		69
5278	56125	Will you come get me?	Will you come get me?	2668590	1471989022660	1471989022788		84
5278	56125	Will you come get me?	Will you come get me?	2668595	1471989022732	1471989022868		32
5278	56125	Will you come get me?	Will you come get me?	2668598	1471989022964	1471989023044		77
5278	56125	Will you come get me?	Will you come get me?	2668600	1471989023060	1471989023132		69
5278	56125	Will you come get me?	Will you come get me?	2668678	1471989023212	1471989024492	SHIFT	16
5278	56125	Will you come get me?	Will you come get me?	2668681	1471989024404	1471989024492		191
5278	56132	Weather is bad here.	Weather is bad here.	2668854	1471989026580	1471989026843	SHIFT	16
5278	56132	Weather is bad here.	Weather is bad here.	2668858	1471989026804	1471989026923		87
5278	56132	Weather is bad here.	Weather is bad here.	2668862	1471989027092	1471989027227		69
5278	56132	Weather is bad here.	Weather is bad here.	2668869	1471989027443	1471989027571		65
5278	56132	Weather is bad here.	Weather is bad here.	2668874	1471989027660	1471989027739		84
5278	56132	Weather is bad here.	Weather is bad here.	2668877	1471989027740	1471989027867		72
5278	56132	Weather is bad here.	Weather is bad here.	2668895	1471989027916	1471989028099		69
5278	56132	Weather is bad here.	Weather is bad here.	2668900	1471989028060	1471989028179		82
5278	56132	Weather is bad here.	Weather is bad here.	2668905	1471989028228	1471989028347		32
5278	56132	Weather is bad here.	Weather is bad here.	2668909	1471989028348	1471989028419		73
5278	56132	Weather is bad here.	Weather is bad here.	2668911	1471989028460	1471989028539		83
5278	56132	Weather is bad here.	Weather is bad here.	2668924	1471989028563	1471989028699		32
5278	56132	Weather is bad here.	Weather is bad here.	2668928	1471989028716	1471989028779		66
5278	56132	Weather is bad here.	Weather is bad here.	2668932	1471989028780	1471989028892		65
5278	56132	Weather is bad here.	Weather is bad here.	2668936	1471989028931	1471989029027		68
5278	56132	Weather is bad here.	Weather is bad here.	2668941	1471989029043	1471989029155		32
5278	56132	Weather is bad here.	Weather is bad here.	2668978	1471989029171	1471989029300		69
5278	56132	Weather is bad here.	Weather is bad here.	2668981	1471989029276	1471989029379		72
5278	56132	Weather is bad here.	Weather is bad here.	2668984	1471989029459	1471989029603		69
5278	56132	Weather is bad here.	Weather is bad here.	2668986	1471989029715	1471989029803		8
5278	56132	Weather is bad here.	Weather is bad here.	2668989	1471989029876	1471989030059		8
5278	56132	Weather is bad here.	Weather is bad here.	2669035	1471989030363	1471989030443		8
5278	56132	Weather is bad here.	Weather is bad here.	2669038	1471989030563	1471989030659		72
5278	56132	Weather is bad here.	Weather is bad here.	2669043	1471989030675	1471989030779		69
5278	56132	Weather is bad here.	Weather is bad here.	2669046	1471989030757	1471989030883		82
5278	56132	Weather is bad here.	Weather is bad here.	2669063	1471989030860	1471989030963		69
5278	56132	Weather is bad here.	Weather is bad here.	2669068	1471989031027	1471989031156		190
5278	56143	I'm glad you liked it.	I'm glad you liked it.	2669289	1471989032987	1471989033659	SHIFT	16
5278	56143	I'm glad you liked it.	I'm glad you liked it.	2669282	1471989033476	1471989033579		73
5278	56143	I'm glad you liked it.	I'm glad you liked it.	2669298	1471989033931	1471989034059		222
5278	56143	I'm glad you liked it.	I'm glad you liked it.	2669306	1471989034211	1471989034323		77
5278	56143	I'm glad you liked it.	I'm glad you liked it.	2669315	1471989034363	1471989034459		32
5278	56143	I'm glad you liked it.	I'm glad you liked it.	2669340	1471989034435	1471989034523		71
5278	56143	I'm glad you liked it.	I'm glad you liked it.	2669344	1471989034555	1471989034659		76
5278	56143	I'm glad you liked it.	I'm glad you liked it.	2669352	1471989034603	1471989034707		65
5278	56143	I'm glad you liked it.	I'm glad you liked it.	2669360	1471989034763	1471989034875		68
5278	56143	I'm glad you liked it.	I'm glad you liked it.	2669367	1471989034835	1471989034972		32
5278	56143	I'm glad you liked it.	I'm glad you liked it.	2669373	1471989034972	1471989035106		89
5278	56143	I'm glad you liked it.	I'm glad you liked it.	2669421	1471989035075	1471989035220		79
5278	56143	I'm glad you liked it.	I'm glad you liked it.	2669429	1471989035195	1471989035315		85
5278	56143	I'm glad you liked it.	I'm glad you liked it.	2669439	1471989035316	1471989035419		32
5278	56143	I'm glad you liked it.	I'm glad you liked it.	2669444	1471989035539	1471989035579		76
5278	56143	I'm glad you liked it.	I'm glad you liked it.	2669449	1471989035699	1471989035805		73
5278	56143	I'm glad you liked it.	I'm glad you liked it.	2669453	1471989035947	1471989036051		75
5278	56143	I'm glad you liked it.	I'm glad you liked it.	2669476	1471989036067	1471989036131		69
5278	56143	I'm glad you liked it.	I'm glad you liked it.	2669483	1471989036219	1471989036347		68
5278	56143	I'm glad you liked it.	I'm glad you liked it.	2669486	1471989036331	1471989036443		32
5278	56143	I'm glad you liked it.	I'm glad you liked it.	2669489	1471989036419	1471989036515		73
5278	56143	I'm glad you liked it.	I'm glad you liked it.	2669491	1471989036531	1471989036627		84
5278	56143	I'm glad you liked it.	I'm glad you liked it.	2669500	1471989036699	1471989036827		190
5278	56148	This is the crew.	This is the crew.	2669630	1471989038796	1471989039435	SHIFT	16
5278	56148	This is the crew.	This is the crew.	2669624	1471989038940	1471989039027		73
5278	56148	This is the crew.	This is the crew.	2669627	1471989039219	1471989039291		8
5278	56148	This is the crew.	This is the crew.	2669632	1471989039347	1471989039464		84
5278	56148	This is the crew.	This is the crew.	2669637	1471989039464	1471989039549		72
5278	56148	This is the crew.	This is the crew.	2669650	1471989039523	1471989039603		73
5278	56148	This is the crew.	This is the crew.	2669655	1471989039643	1471989039757		83
5278	56148	This is the crew.	This is the crew.	2669660	1471989039731	1471989039827		32
5278	56148	This is the crew.	This is the crew.	2669663	1471989039803	1471989039875		73
5278	56148	This is the crew.	This is the crew.	2669669	1471989039891	1471989039995		83
5278	56148	This is the crew.	This is the crew.	2669688	1471989039971	1471989040051		32
5278	56148	This is the crew.	This is the crew.	2669691	1471989040052	1471989040155		84
5278	56148	This is the crew.	This is the crew.	2669695	1471989040115	1471989040171		72
5278	56148	This is the crew.	This is the crew.	2669699	1471989040187	1471989040283		69
5278	56148	This is the crew.	This is the crew.	2669704	1471989040315	1471989040419		32
5278	56148	This is the crew.	This is the crew.	2669712	1471989040547	1471989040643		67
5278	56148	This is the crew.	This is the crew.	2669744	1471989040755	1471989040891		82
5278	56148	This is the crew.	This is the crew.	2669748	1471989040835	1471989040939		69
5278	56148	This is the crew.	This is the crew.	2669752	1471989040915	1471989041011		87
5278	56148	This is the crew.	This is the crew.	2669755	1471989041115	1471989041211		190
5278	56156	Washington was not moving toward a unilateral lifting of the embargo.	Washington was not moving toward a unilateral lifting of the embargo.	2669941	1471989043443	1471989043780	SHIFT	16
5278	56156	Washington was not moving toward a unilateral lifting of the embargo.	Washington was not moving toward a unilateral lifting of the embargo.	2669948	1471989043715	1471989043827		87
5278	56156	Washington was not moving toward a unilateral lifting of the embargo.	Washington was not moving toward a unilateral lifting of the embargo.	2669955	1471989043899	1471989044067		65
5278	56156	Washington was not moving toward a unilateral lifting of the embargo.	Washington was not moving toward a unilateral lifting of the embargo.	2669961	1471989044011	1471989044139		83
5278	56156	Washington was not moving toward a unilateral lifting of the embargo.	Washington was not moving toward a unilateral lifting of the embargo.	2669965	1471989044171	1471989044259		72
5278	56156	Washington was not moving toward a unilateral lifting of the embargo.	Washington was not moving toward a unilateral lifting of the embargo.	2669971	1471989044275	1471989044379		73
5278	56156	Washington was not moving toward a unilateral lifting of the embargo.	Washington was not moving toward a unilateral lifting of the embargo.	2669996	1471989044403	1471989044483		78
5278	56156	Washington was not moving toward a unilateral lifting of the embargo.	Washington was not moving toward a unilateral lifting of the embargo.	2670000	1471989044499	1471989044587		71
5278	56156	Washington was not moving toward a unilateral lifting of the embargo.	Washington was not moving toward a unilateral lifting of the embargo.	2670003	1471989044715	1471989044819		84
5278	56156	Washington was not moving toward a unilateral lifting of the embargo.	Washington was not moving toward a unilateral lifting of the embargo.	2670010	1471989044779	1471989044867		79
5278	56156	Washington was not moving toward a unilateral lifting of the embargo.	Washington was not moving toward a unilateral lifting of the embargo.	2670015	1471989044916	1471989045038		78
5278	56156	Washington was not moving toward a unilateral lifting of the embargo.	Washington was not moving toward a unilateral lifting of the embargo.	2670044	1471989045043	1471989045147		32
5278	56156	Washington was not moving toward a unilateral lifting of the embargo.	Washington was not moving toward a unilateral lifting of the embargo.	2670045	1471989045259	1471989045387		87
5278	56156	Washington was not moving toward a unilateral lifting of the embargo.	Washington was not moving toward a unilateral lifting of the embargo.	2670049	1471989045403	1471989045575		65
5278	56156	Washington was not moving toward a unilateral lifting of the embargo.	Washington was not moving toward a unilateral lifting of the embargo.	2670053	1471989045515	1471989045648		83
5278	56156	Washington was not moving toward a unilateral lifting of the embargo.	Washington was not moving toward a unilateral lifting of the embargo.	2670092	1471989045613	1471989045733		32
5278	56156	Washington was not moving toward a unilateral lifting of the embargo.	Washington was not moving toward a unilateral lifting of the embargo.	2670096	1471989045747	1471989045835		78
5278	56156	Washington was not moving toward a unilateral lifting of the embargo.	Washington was not moving toward a unilateral lifting of the embargo.	2670099	1471989045835	1471989045962		79
5278	56156	Washington was not moving toward a unilateral lifting of the embargo.	Washington was not moving toward a unilateral lifting of the embargo.	2670101	1471989045962	1471989046028		84
5278	56156	Washington was not moving toward a unilateral lifting of the embargo.	Washington was not moving toward a unilateral lifting of the embargo.	2670107	1471989046113	1471989046243		32
5278	56156	Washington was not moving toward a unilateral lifting of the embargo.	Washington was not moving toward a unilateral lifting of the embargo.	2670111	1471989046419	1471989046507		77
5278	56156	Washington was not moving toward a unilateral lifting of the embargo.	Washington was not moving toward a unilateral lifting of the embargo.	2670174	1471989047051	1471989047171		79
5278	56156	Washington was not moving toward a unilateral lifting of the embargo.	Washington was not moving toward a unilateral lifting of the embargo.	2670176	1471989047187	1471989047283		86
5278	56156	Washington was not moving toward a unilateral lifting of the embargo.	Washington was not moving toward a unilateral lifting of the embargo.	2670180	1471989047307	1471989047395		73
5278	56156	Washington was not moving toward a unilateral lifting of the embargo.	Washington was not moving toward a unilateral lifting of the embargo.	2670183	1471989047435	1471989047506		78
5278	56156	Washington was not moving toward a unilateral lifting of the embargo.	Washington was not moving toward a unilateral lifting of the embargo.	2670188	1471989047515	1471989047627		71
5278	56156	Washington was not moving toward a unilateral lifting of the embargo.	Washington was not moving toward a unilateral lifting of the embargo.	2670231	1471989047629	1471989047739		32
5278	56156	Washington was not moving toward a unilateral lifting of the embargo.	Washington was not moving toward a unilateral lifting of the embargo.	2670234	1471989047835	1471989047947		84
5278	56156	Washington was not moving toward a unilateral lifting of the embargo.	Washington was not moving toward a unilateral lifting of the embargo.	2670237	1471989048091	1471989048219		79
5278	56156	Washington was not moving toward a unilateral lifting of the embargo.	Washington was not moving toward a unilateral lifting of the embargo.	2670242	1471989048283	1471989048483		87
5278	56156	Washington was not moving toward a unilateral lifting of the embargo.	Washington was not moving toward a unilateral lifting of the embargo.	2670288	1471989048411	1471989048563		65
5278	56156	Washington was not moving toward a unilateral lifting of the embargo.	Washington was not moving toward a unilateral lifting of the embargo.	2670291	1471989048507	1471989048627		82
5278	56156	Washington was not moving toward a unilateral lifting of the embargo.	Washington was not moving toward a unilateral lifting of the embargo.	2670296	1471989048739	1471989048900		68
5278	56156	Washington was not moving toward a unilateral lifting of the embargo.	Washington was not moving toward a unilateral lifting of the embargo.	2670303	1471989049211	1471989049323		32
5278	56156	Washington was not moving toward a unilateral lifting of the embargo.	Washington was not moving toward a unilateral lifting of the embargo.	2670308	1471989049339	1471989049435		65
5278	56156	Washington was not moving toward a unilateral lifting of the embargo.	Washington was not moving toward a unilateral lifting of the embargo.	2670316	1471989049475	1471989049555		32
5278	56156	Washington was not moving toward a unilateral lifting of the embargo.	Washington was not moving toward a unilateral lifting of the embargo.	2670357	1471989049891	1471989049971		85
5278	56156	Washington was not moving toward a unilateral lifting of the embargo.	Washington was not moving toward a unilateral lifting of the embargo.	2670361	1471989050099	1471989050170		78
5278	56156	Washington was not moving toward a unilateral lifting of the embargo.	Washington was not moving toward a unilateral lifting of the embargo.	2670367	1471989050195	1471989050299		73
5278	56156	Washington was not moving toward a unilateral lifting of the embargo.	Washington was not moving toward a unilateral lifting of the embargo.	2670374	1471989050331	1471989050435		86
5278	56156	Washington was not moving toward a unilateral lifting of the embargo.	Washington was not moving toward a unilateral lifting of the embargo.	2670380	1471989050555	1471989050651		65
5278	56156	Washington was not moving toward a unilateral lifting of the embargo.	Washington was not moving toward a unilateral lifting of the embargo.	2670432	1471989050811	1471989050875		8
5278	56156	Washington was not moving toward a unilateral lifting of the embargo.	Washington was not moving toward a unilateral lifting of the embargo.	2670435	1471989050931	1471989051019		8
5278	56156	Washington was not moving toward a unilateral lifting of the embargo.	Washington was not moving toward a unilateral lifting of the embargo.	2670437	1471989051179	1471989051222		76
5278	56156	Washington was not moving toward a unilateral lifting of the embargo.	Washington was not moving toward a unilateral lifting of the embargo.	2670439	1471989051222	1471989051379		65
5278	56156	Washington was not moving toward a unilateral lifting of the embargo.	Washington was not moving toward a unilateral lifting of the embargo.	2670441	1471989051675	1471989051764		8
5278	56156	Washington was not moving toward a unilateral lifting of the embargo.	Washington was not moving toward a unilateral lifting of the embargo.	2670478	1471989051846	1471989051955		8
5278	56156	Washington was not moving toward a unilateral lifting of the embargo.	Washington was not moving toward a unilateral lifting of the embargo.	2670479	1471989052443	1471989052563		76
5278	56156	Washington was not moving toward a unilateral lifting of the embargo.	Washington was not moving toward a unilateral lifting of the embargo.	2670480	1471989052523	1471989052681		65
5278	56156	Washington was not moving toward a unilateral lifting of the embargo.	Washington was not moving toward a unilateral lifting of the embargo.	2670481	1471989052632	1471989052699		84
5278	56156	Washington was not moving toward a unilateral lifting of the embargo.	Washington was not moving toward a unilateral lifting of the embargo.	2670482	1471989052743	1471989052851		69
5278	56156	Washington was not moving toward a unilateral lifting of the embargo.	Washington was not moving toward a unilateral lifting of the embargo.	2670523	1471989052828	1471989052929		82
5278	56156	Washington was not moving toward a unilateral lifting of the embargo.	Washington was not moving toward a unilateral lifting of the embargo.	2670526	1471989053014	1471989053134		65
5278	56156	Washington was not moving toward a unilateral lifting of the embargo.	Washington was not moving toward a unilateral lifting of the embargo.	2670527	1471989053195	1471989053299		76
5278	56156	Washington was not moving toward a unilateral lifting of the embargo.	Washington was not moving toward a unilateral lifting of the embargo.	2670532	1471989053347	1471989053411		32
5278	56156	Washington was not moving toward a unilateral lifting of the embargo.	Washington was not moving toward a unilateral lifting of the embargo.	2670539	1471989053491	1471989053571		76
5278	56156	Washington was not moving toward a unilateral lifting of the embargo.	Washington was not moving toward a unilateral lifting of the embargo.	2670546	1471989053675	1471989053755		73
5278	56156	Washington was not moving toward a unilateral lifting of the embargo.	Washington was not moving toward a unilateral lifting of the embargo.	2670591	1471989053787	1471989053891		70
5278	56156	Washington was not moving toward a unilateral lifting of the embargo.	Washington was not moving toward a unilateral lifting of the embargo.	2670595	1471989053995	1471989054051		73
5278	56156	Washington was not moving toward a unilateral lifting of the embargo.	Washington was not moving toward a unilateral lifting of the embargo.	2670599	1471989054027	1471989054051		79
5278	56156	Washington was not moving toward a unilateral lifting of the embargo.	Washington was not moving toward a unilateral lifting of the embargo.	2670602	1471989054347	1471989054443		8
5278	56156	Washington was not moving toward a unilateral lifting of the embargo.	Washington was not moving toward a unilateral lifting of the embargo.	2670604	1471989054443	1471989054515		84
5278	56156	Washington was not moving toward a unilateral lifting of the embargo.	Washington was not moving toward a unilateral lifting of the embargo.	2670643	1471989054595	1471989054643		73
5278	56156	Washington was not moving toward a unilateral lifting of the embargo.	Washington was not moving toward a unilateral lifting of the embargo.	2670647	1471989054819	1471989054899		8
5278	56156	Washington was not moving toward a unilateral lifting of the embargo.	Washington was not moving toward a unilateral lifting of the embargo.	2670653	1471989054979	1471989055043		8
5278	56156	Washington was not moving toward a unilateral lifting of the embargo.	Washington was not moving toward a unilateral lifting of the embargo.	2670657	1471989055115	1471989055219		8
5278	56156	Washington was not moving toward a unilateral lifting of the embargo.	Washington was not moving toward a unilateral lifting of the embargo.	2670662	1471989055283	1471989055371		84
5278	56156	Washington was not moving toward a unilateral lifting of the embargo.	Washington was not moving toward a unilateral lifting of the embargo.	2670712	1471989055483	1471989055547		73
5278	56156	Washington was not moving toward a unilateral lifting of the embargo.	Washington was not moving toward a unilateral lifting of the embargo.	2670708	1471989055507	1471989055531		85
5278	56156	Washington was not moving toward a unilateral lifting of the embargo.	Washington was not moving toward a unilateral lifting of the embargo.	2670717	1471989055691	1471989055779		78
5278	56156	Washington was not moving toward a unilateral lifting of the embargo.	Washington was not moving toward a unilateral lifting of the embargo.	2670724	1471989056012	1471989056083		8
5278	56156	Washington was not moving toward a unilateral lifting of the embargo.	Washington was not moving toward a unilateral lifting of the embargo.	2670735	1471989056163	1471989056235		8
5278	56156	Washington was not moving toward a unilateral lifting of the embargo.	Washington was not moving toward a unilateral lifting of the embargo.	2670788	1471989056539	1471989056643		78
5278	56156	Washington was not moving toward a unilateral lifting of the embargo.	Washington was not moving toward a unilateral lifting of the embargo.	2670790	1471989056675	1471989056779		71
5278	56156	Washington was not moving toward a unilateral lifting of the embargo.	Washington was not moving toward a unilateral lifting of the embargo.	2670795	1471989056843	1471989056923		32
5278	56156	Washington was not moving toward a unilateral lifting of the embargo.	Washington was not moving toward a unilateral lifting of the embargo.	2670803	1471989056923	1471989057019		79
5278	56156	Washington was not moving toward a unilateral lifting of the embargo.	Washington was not moving toward a unilateral lifting of the embargo.	2670809	1471989057035	1471989057113		70
5278	56156	Washington was not moving toward a unilateral lifting of the embargo.	Washington was not moving toward a unilateral lifting of the embargo.	2670826	1471989057123	1471989057203		32
5278	56156	Washington was not moving toward a unilateral lifting of the embargo.	Washington was not moving toward a unilateral lifting of the embargo.	2670831	1471989057227	1471989057363		84
5278	56156	Washington was not moving toward a unilateral lifting of the embargo.	Washington was not moving toward a unilateral lifting of the embargo.	2670837	1471989057291	1471989057363		72
5278	56156	Washington was not moving toward a unilateral lifting of the embargo.	Washington was not moving toward a unilateral lifting of the embargo.	2670842	1471989057411	1471989057523		69
5278	56156	Washington was not moving toward a unilateral lifting of the embargo.	Washington was not moving toward a unilateral lifting of the embargo.	2670907	1471989057467	1471989057547		32
5278	56156	Washington was not moving toward a unilateral lifting of the embargo.	Washington was not moving toward a unilateral lifting of the embargo.	2670910	1471989057675	1471989057779		69
5278	56156	Washington was not moving toward a unilateral lifting of the embargo.	Washington was not moving toward a unilateral lifting of the embargo.	2670913	1471989057795	1471989057883		77
5278	56156	Washington was not moving toward a unilateral lifting of the embargo.	Washington was not moving toward a unilateral lifting of the embargo.	2670916	1471989057987	1471989058083		71
5278	56156	Washington was not moving toward a unilateral lifting of the embargo.	Washington was not moving toward a unilateral lifting of the embargo.	2670918	1471989058387	1471989058499		8
5278	56156	Washington was not moving toward a unilateral lifting of the embargo.	Washington was not moving toward a unilateral lifting of the embargo.	2670922	1471989058499	1471989058579		66
5278	56156	Washington was not moving toward a unilateral lifting of the embargo.	Washington was not moving toward a unilateral lifting of the embargo.	2670977	1471989058675	1471989058851		65
5278	56156	Washington was not moving toward a unilateral lifting of the embargo.	Washington was not moving toward a unilateral lifting of the embargo.	2670979	1471989058795	1471989058876		82
5278	56156	Washington was not moving toward a unilateral lifting of the embargo.	Washington was not moving toward a unilateral lifting of the embargo.	2670980	1471989059011	1471989059107		71
5278	56156	Washington was not moving toward a unilateral lifting of the embargo.	Washington was not moving toward a unilateral lifting of the embargo.	2670982	1471989059123	1471989059227		79
5278	56156	Washington was not moving toward a unilateral lifting of the embargo.	Washington was not moving toward a unilateral lifting of the embargo.	2670986	1471989059386	1471989059499		190
5278	56189	Where are they hitting the books at?	Where are they hitting the books at?	2671168	1471989061603	1471989061867	SHIFT	16
5278	56189	Where are they hitting the books at?	Where are they hitting the books at?	2671178	1471989061779	1471989061891		87
5278	56189	Where are they hitting the books at?	Where are they hitting the books at?	2671185	1471989061907	1471989061995		72
5278	56189	Where are they hitting the books at?	Where are they hitting the books at?	2671197	1471989061971	1471989062050		69
5278	56189	Where are they hitting the books at?	Where are they hitting the books at?	2671204	1471989062051	1471989062162		82
5278	56189	Where are they hitting the books at?	Where are they hitting the books at?	2671228	1471989062139	1471989062258		69
5278	56189	Where are they hitting the books at?	Where are they hitting the books at?	2671231	1471989062235	1471989062323		32
5278	56189	Where are they hitting the books at?	Where are they hitting the books at?	2671234	1471989062299	1471989062427		65
5278	56189	Where are they hitting the books at?	Where are they hitting the books at?	2671239	1471989062355	1471989062482		82
5278	56189	Where are they hitting the books at?	Where are they hitting the books at?	2671246	1471989062458	1471989062562		69
5278	56189	Where are they hitting the books at?	Where are they hitting the books at?	2671268	1471989062523	1471989062635		32
5278	56189	Where are they hitting the books at?	Where are they hitting the books at?	2671269	1471989062635	1471989062739		84
5278	56189	Where are they hitting the books at?	Where are they hitting the books at?	2671271	1471989062739	1471989062802		72
5278	56189	Where are they hitting the books at?	Where are they hitting the books at?	2671273	1471989062803	1471989062890		69
5278	56189	Where are they hitting the books at?	Where are they hitting the books at?	2671276	1471989062915	1471989062994		89
5278	56189	Where are they hitting the books at?	Where are they hitting the books at?	2671280	1471989063002	1471989063083		32
5278	56189	Where are they hitting the books at?	Where are they hitting the books at?	2671338	1471989063347	1471989063426		72
5278	56189	Where are they hitting the books at?	Where are they hitting the books at?	2671348	1471989063499	1471989063626		73
5278	56189	Where are they hitting the books at?	Where are they hitting the books at?	2671356	1471989063659	1471989063722		84
5278	56189	Where are they hitting the books at?	Where are they hitting the books at?	2671364	1471989063779	1471989063906		84
5278	56189	Where are they hitting the books at?	Where are they hitting the books at?	2671447	1471989063867	1471989063978		73
5278	56189	Where are they hitting the books at?	Where are they hitting the books at?	2671454	1471989064035	1471989064138		84
5278	56189	Where are they hitting the books at?	Where are they hitting the books at?	2671461	1471989064635	1471989064738		8
5278	56189	Where are they hitting the books at?	Where are they hitting the books at?	2671471	1471989064899	1471989065011		78
5278	56189	Where are they hitting the books at?	Where are they hitting the books at?	2671479	1471989065026	1471989065098		71
5278	56189	Where are they hitting the books at?	Where are they hitting the books at?	2671488	1471989065154	1471989065234		32
5278	56189	Where are they hitting the books at?	Where are they hitting the books at?	2671511	1471989065250	1471989065371		84
5278	56189	Where are they hitting the books at?	Where are they hitting the books at?	2671517	1471989065330	1471989065426		72
5278	56189	Where are they hitting the books at?	Where are they hitting the books at?	2671524	1471989065442	1471989065538		69
5278	56189	Where are they hitting the books at?	Where are they hitting the books at?	2671529	1471989065539	1471989065642		32
5278	56189	Where are they hitting the books at?	Where are they hitting the books at?	2671536	1471989065690	1471989065754		66
5278	56189	Where are they hitting the books at?	Where are they hitting the books at?	2671653	1471989065771	1471989065826		79
5278	56189	Where are they hitting the books at?	Where are they hitting the books at?	2671656	1471989065923	1471989066002		79
5278	56189	Where are they hitting the books at?	Where are they hitting the books at?	2671659	1471989066764	1471989066866		75
5278	56189	Where are they hitting the books at?	Where are they hitting the books at?	2671663	1471989066948	1471989067035		83
5278	56189	Where are they hitting the books at?	Where are they hitting the books at?	2671668	1471989067119	1471989067218		32
5278	56189	Where are they hitting the books at?	Where are they hitting the books at?	2671721	1471989067194	1471989067354		65
5278	56189	Where are they hitting the books at?	Where are they hitting the books at?	2671726	1471989067355	1471989067442		84
5278	56189	Where are they hitting the books at?	Where are they hitting the books at?	2671732	1471989067618	1471989067970	SHIFT	16
5278	56189	Where are they hitting the books at?	Where are they hitting the books at?	2671737	1471989067882	1471989067986		191
