PARTICIPANT_ID	TEST_SECTION_ID	SENTENCE	USER_INPUT	KEYSTROKE_ID	PRESS_TIME	RELEASE_TIME	LETTER	KEYCODE
5291	56244	We tried to copy it and it worked for us.	We tried to copy it and it worked for us.	2674372	1471989100108	1471989100283	SHIFT	16
5291	56244	We tried to copy it and it worked for us.	We tried to copy it and it worked for us.	2674374	1471989100194	1471989100378	W	87
5291	56244	We tried to copy it and it worked for us.	We tried to copy it and it worked for us.	2674376	1471989100442	1471989100610	e	69
5291	56244	We tried to copy it and it worked for us.	We tried to copy it and it worked for us.	2674380	1471989100666	1471989100835	 	32
5291	56244	We tried to copy it and it worked for us.	We tried to copy it and it worked for us.	2674385	1471989100802	1471989100970	r	82
5291	56244	We tried to copy it and it worked for us.	We tried to copy it and it worked for us.	2674390	1471989101523	1471989101611	BKSP	8
5291	56244	We tried to copy it and it worked for us.	We tried to copy it and it worked for us.	2674397	1471989102315	1471989102402	t	84
5291	56244	We tried to copy it and it worked for us.	We tried to copy it and it worked for us.	2674441	1471989102514	1471989102650	r	82
5291	56244	We tried to copy it and it worked for us.	We tried to copy it and it worked for us.	2674445	1471989102658	1471989102802	i	73
5291	56244	We tried to copy it and it worked for us.	We tried to copy it and it worked for us.	2674450	1471989102787	1471989102930	e	69
5291	56244	We tried to copy it and it worked for us.	We tried to copy it and it worked for us.	2674456	1471989103034	1471989103203	d	68
5291	56244	We tried to copy it and it worked for us.	We tried to copy it and it worked for us.	2674491	1471989103138	1471989103298	 	32
5291	56244	We tried to copy it and it worked for us.	We tried to copy it and it worked for us.	2674498	1471989103338	1471989103530	t	84
5291	56244	We tried to copy it and it worked for us.	We tried to copy it and it worked for us.	2674505	1471989103450	1471989103634	o	79
5291	56244	We tried to copy it and it worked for us.	We tried to copy it and it worked for us.	2674515	1471989103587	1471989103747	 	32
5291	56244	We tried to copy it and it worked for us.	We tried to copy it and it worked for us.	2674522	1471989103755	1471989103962	c	67
5291	56244	We tried to copy it and it worked for us.	We tried to copy it and it worked for us.	2674597	1471989103882	1471989104042	o	79
5291	56244	We tried to copy it and it worked for us.	We tried to copy it and it worked for us.	2674600	1471989104130	1471989104298	p	80
5291	56244	We tried to copy it and it worked for us.	We tried to copy it and it worked for us.	2674604	1471989104394	1471989104514	y	89
5291	56244	We tried to copy it and it worked for us.	We tried to copy it and it worked for us.	2674611	1471989104595	1471989104762	 	32
5291	56244	We tried to copy it and it worked for us.	We tried to copy it and it worked for us.	2674619	1471989104770	1471989104971	i	73
5291	56244	We tried to copy it and it worked for us.	We tried to copy it and it worked for us.	2674625	1471989104978	1471989105170	t	84
5291	56244	We tried to copy it and it worked for us.	We tried to copy it and it worked for us.	2674703	1471989105122	1471989105266	 	32
5291	56244	We tried to copy it and it worked for us.	We tried to copy it and it worked for us.	2674706	1471989105298	1471989105514	a	65
5291	56244	We tried to copy it and it worked for us.	We tried to copy it and it worked for us.	2674709	1471989105403	1471989105521	n	78
5291	56244	We tried to copy it and it worked for us.	We tried to copy it and it worked for us.	2674714	1471989105618	1471989105803	s	83
5291	56244	We tried to copy it and it worked for us.	We tried to copy it and it worked for us.	2674717	1471989105738	1471989105843	 	32
5291	56244	We tried to copy it and it worked for us.	We tried to copy it and it worked for us.	2674722	1471989106067	1471989106154	BKSP	8
5291	56244	We tried to copy it and it worked for us.	We tried to copy it and it worked for us.	2674728	1471989106211	1471989106347	BKSP	8
5291	56244	We tried to copy it and it worked for us.	We tried to copy it and it worked for us.	2674734	1471989106410	1471989106610	d	68
5291	56244	We tried to copy it and it worked for us.	We tried to copy it and it worked for us.	2674814	1471989106466	1471989106650	 	32
5291	56244	We tried to copy it and it worked for us.	We tried to copy it and it worked for us.	2674819	1471989107410	1471989107554	i	73
5291	56244	We tried to copy it and it worked for us.	We tried to copy it and it worked for us.	2674822	1471989107530	1471989107715	t	84
5291	56244	We tried to copy it and it worked for us.	We tried to copy it and it worked for us.	2674824	1471989107826	1471989107970	 	32
5291	56244	We tried to copy it and it worked for us.	We tried to copy it and it worked for us.	2674828	1471989107978	1471989108187	w	87
5291	56244	We tried to copy it and it worked for us.	We tried to copy it and it worked for us.	2674864	1471989108146	1471989108274	o	79
5291	56244	We tried to copy it and it worked for us.	We tried to copy it and it worked for us.	2674866	1471989108282	1471989108498	r	82
5291	56244	We tried to copy it and it worked for us.	We tried to copy it and it worked for us.	2674868	1471989108458	1471989108594	k	75
5291	56244	We tried to copy it and it worked for us.	We tried to copy it and it worked for us.	2674870	1471989108682	1471989108842	e	69
5291	56244	We tried to copy it and it worked for us.	We tried to copy it and it worked for us.	2674872	1471989108946	1471989109115	d	68
5291	56244	We tried to copy it and it worked for us.	We tried to copy it and it worked for us.	2674906	1471989109051	1471989109202	 	32
5291	56244	We tried to copy it and it worked for us.	We tried to copy it and it worked for us.	2674907	1471989109226	1471989109402	f	70
5291	56244	We tried to copy it and it worked for us.	We tried to copy it and it worked for us.	2674909	1471989109394	1471989109555	o	79
5291	56244	We tried to copy it and it worked for us.	We tried to copy it and it worked for us.	2674911	1471989109522	1471989109755	r	82
5291	56244	We tried to copy it and it worked for us.	We tried to copy it and it worked for us.	2674914	1471989109723	1471989109882	 	32
5291	56244	We tried to copy it and it worked for us.	We tried to copy it and it worked for us.	2674917	1471989110035	1471989110162	u	85
5291	56244	We tried to copy it and it worked for us.	We tried to copy it and it worked for us.	2675058	1471989110138	1471989110354	s	83
5291	56244	We tried to copy it and it worked for us.	We tried to copy it and it worked for us.	2675061	1471989110946	1471989111139	/	191
5291	56244	We tried to copy it and it worked for us.	We tried to copy it and it worked for us.	2675069	1471989111866	1471989111938	BKSP	8
5291	56244	We tried to copy it and it worked for us.	We tried to copy it and it worked for us.	2675077	1471989112210	1471989112283	.	190
5291	56266	He is expected to play in this week's game.	He is expected to play in this week's game.	2675307	1471989115362	1471989115562	SHIFT	16
5291	56266	He is expected to play in this week's game.	He is expected to play in this week's game.	2675309	1471989115466	1471989115594	H	72
5291	56266	He is expected to play in this week's game.	He is expected to play in this week's game.	2675313	1471989115642	1471989115826	e	69
5291	56266	He is expected to play in this week's game.	He is expected to play in this week's game.	2675317	1471989115763	1471989115898	 	32
5291	56266	He is expected to play in this week's game.	He is expected to play in this week's game.	2675322	1471989115938	1471989116090	i	73
5291	56266	He is expected to play in this week's game.	He is expected to play in this week's game.	2675384	1471989116067	1471989116258	s	83
5291	56266	He is expected to play in this week's game.	He is expected to play in this week's game.	2675391	1471989116210	1471989116354	 	32
5291	56266	He is expected to play in this week's game.	He is expected to play in this week's game.	2675398	1471989116450	1471989116602	e	69
5291	56266	He is expected to play in this week's game.	He is expected to play in this week's game.	2675406	1471989116730	1471989116906	x	88
5291	56266	He is expected to play in this week's game.	He is expected to play in this week's game.	2675414	1471989116914	1471989117082	p	80
5291	56266	He is expected to play in this week's game.	He is expected to play in this week's game.	2675422	1471989117106	1471989117234	e	69
5291	56266	He is expected to play in this week's game.	He is expected to play in this week's game.	2675486	1471989117387	1471989117530	c	67
5291	56266	He is expected to play in this week's game.	He is expected to play in this week's game.	2675491	1471989117650	1471989117754	t	84
5291	56266	He is expected to play in this week's game.	He is expected to play in this week's game.	2675496	1471989117874	1471989117970	e	69
5291	56266	He is expected to play in this week's game.	He is expected to play in this week's game.	2675504	1471989118074	1471989118250	d	68
5291	56266	He is expected to play in this week's game.	He is expected to play in this week's game.	2675550	1471989118155	1471989118322	 	32
5291	56266	He is expected to play in this week's game.	He is expected to play in this week's game.	2675553	1471989118338	1471989118522	t	84
5291	56266	He is expected to play in this week's game.	He is expected to play in this week's game.	2675560	1471989118427	1471989118626	o	79
5291	56266	He is expected to play in this week's game.	He is expected to play in this week's game.	2675568	1471989118538	1471989118755	 	32
5291	56266	He is expected to play in this week's game.	He is expected to play in this week's game.	2675575	1471989118762	1471989118890	p	80
5291	56266	He is expected to play in this week's game.	He is expected to play in this week's game.	2675583	1471989118994	1471989119138	l	76
5291	56266	He is expected to play in this week's game.	He is expected to play in this week's game.	2675617	1471989119154	1471989119347	a	65
5291	56266	He is expected to play in this week's game.	He is expected to play in this week's game.	2675621	1471989119347	1471989119467	y	89
5291	56266	He is expected to play in this week's game.	He is expected to play in this week's game.	2675626	1471989119522	1471989119690	 	32
5291	56266	He is expected to play in this week's game.	He is expected to play in this week's game.	2675632	1471989119667	1471989119810	i	73
5291	56266	He is expected to play in this week's game.	He is expected to play in this week's game.	2675639	1471989119875	1471989120018	n	78
5291	56266	He is expected to play in this week's game.	He is expected to play in this week's game.	2675684	1471989119970	1471989120114	 	32
5291	56266	He is expected to play in this week's game.	He is expected to play in this week's game.	2675688	1471989120146	1471989120322	t	84
5291	56266	He is expected to play in this week's game.	He is expected to play in this week's game.	2675696	1471989120283	1471989120394	h	72
5291	56266	He is expected to play in this week's game.	He is expected to play in this week's game.	2675705	1471989120482	1471989120642	i	73
5291	56266	He is expected to play in this week's game.	He is expected to play in this week's game.	2675711	1471989120666	1471989120890	s	83
5291	56266	He is expected to play in this week's game.	He is expected to play in this week's game.	2675773	1471989120786	1471989120938	 	32
5291	56266	He is expected to play in this week's game.	He is expected to play in this week's game.	2675778	1471989121106	1471989121282	w	87
5291	56266	He is expected to play in this week's game.	He is expected to play in this week's game.	2675785	1471989121386	1471989121459	e	69
5291	56266	He is expected to play in this week's game.	He is expected to play in this week's game.	2675790	1471989121563	1471989121690	e	69
5291	56266	He is expected to play in this week's game.	He is expected to play in this week's game.	2675793	1471989121730	1471989121914	k	75
5291	56266	He is expected to play in this week's game.	He is expected to play in this week's game.	2675796	1471989122218	1471989122354	'	222
5291	56266	He is expected to play in this week's game.	He is expected to play in this week's game.	2675857	1471989122530	1471989122754	s	83
5291	56266	He is expected to play in this week's game.	He is expected to play in this week's game.	2675859	1471989122650	1471989122850	 	32
5291	56266	He is expected to play in this week's game.	He is expected to play in this week's game.	2675861	1471989123226	1471989123426	g	71
5291	56266	He is expected to play in this week's game.	He is expected to play in this week's game.	2675863	1471989123410	1471989123650	a	65
5291	56266	He is expected to play in this week's game.	He is expected to play in this week's game.	2675958	1471989123586	1471989123722	m	77
5291	56266	He is expected to play in this week's game.	He is expected to play in this week's game.	2675961	1471989123834	1471989123994	e	69
5291	56266	He is expected to play in this week's game.	He is expected to play in this week's game.	2675964	1471989124618	1471989124690	.	190
5291	56276	Very foggy this morning.	Very foggy this morning.	2676327	1471989127402	1471989127666	SHIFT	16
5291	56276	Very foggy this morning.	Very foggy this morning.	2676329	1471989127554	1471989127698	B	66
5291	56276	Very foggy this morning.	Very foggy this morning.	2676333	1471989127906	1471989127994	e	69
5291	56276	Very foggy this morning.	Very foggy this morning.	2676336	1471989128242	1471989128346	BKSP	8
5291	56276	Very foggy this morning.	Very foggy this morning.	2676338	1471989128402	1471989128546	BKSP	8
5291	56276	Very foggy this morning.	Very foggy this morning.	2676340	1471989129218	1471989129402	SHIFT	16
5291	56276	Very foggy this morning.	Very foggy this morning.	2676342	1471989129306	1471989129450	V	86
5291	56276	Very foggy this morning.	Very foggy this morning.	2676344	1471989129546	1471989129738	e	69
5291	56276	Very foggy this morning.	Very foggy this morning.	2676397	1471989129658	1471989129850	r	82
5291	56276	Very foggy this morning.	Very foggy this morning.	2676402	1471989129890	1471989130042	y	89
5291	56276	Very foggy this morning.	Very foggy this morning.	2676409	1471989130106	1471989130314	 	32
5291	56276	Very foggy this morning.	Very foggy this morning.	2676413	1471989130466	1471989130666	f	70
5291	56276	Very foggy this morning.	Very foggy this morning.	2676418	1471989130618	1471989130786	o	79
5291	56276	Very foggy this morning.	Very foggy this morning.	2676422	1471989130962	1471989131082	g	71
5291	56276	Very foggy this morning.	Very foggy this morning.	2676448	1471989131162	1471989131330	g	71
5291	56276	Very foggy this morning.	Very foggy this morning.	2676451	1471989131370	1471989131491	y	89
5291	56276	Very foggy this morning.	Very foggy this morning.	2676455	1471989131491	1471989131667	 	32
5291	56276	Very foggy this morning.	Very foggy this morning.	2676458	1471989131674	1471989131834	t	84
5291	56276	Very foggy this morning.	Very foggy this morning.	2676524	1471989131802	1471989131914	h	72
5291	56276	Very foggy this morning.	Very foggy this morning.	2676525	1471989132011	1471989132155	i	73
5291	56276	Very foggy this morning.	Very foggy this morning.	2676527	1471989132219	1471989132427	s	83
5291	56276	Very foggy this morning.	Very foggy this morning.	2676530	1471989132363	1471989132523	 	32
5291	56276	Very foggy this morning.	Very foggy this morning.	2676534	1471989132747	1471989132891	m	77
5291	56276	Very foggy this morning.	Very foggy this morning.	2676537	1471989132939	1471989133091	o	79
5291	56276	Very foggy this morning.	Very foggy this morning.	2676597	1471989133051	1471989133267	r	82
5291	56276	Very foggy this morning.	Very foggy this morning.	2676601	1471989133228	1471989133371	n	78
5291	56276	Very foggy this morning.	Very foggy this morning.	2676608	1471989133435	1471989133555	i	73
5291	56276	Very foggy this morning.	Very foggy this morning.	2676615	1471989133603	1471989133715	n	78
5291	56276	Very foggy this morning.	Very foggy this morning.	2676622	1471989133683	1471989133835	g	71
5291	56276	Very foggy this morning.	Very foggy this morning.	2676628	1471989134052	1471989134155	/	191
5291	56276	Very foggy this morning.	Very foggy this morning.	2676721	1471989134963	1471989135035	BKSP	8
5291	56276	Very foggy this morning.	Very foggy this morning.	2676723	1471989135330	1471989135411	.	190
5291	56291	Maybe stuff we do more of next year.	Maybe stuff we do more of next year.	2676957	1471989137707	1471989137915	SHIFT	16
5291	56291	Maybe stuff we do more of next year.	Maybe stuff we do more of next year.	2676963	1471989137819	1471989137971	M	77
5291	56291	Maybe stuff we do more of next year.	Maybe stuff we do more of next year.	2676970	1471989138067	1471989138267	a	65
5291	56291	Maybe stuff we do more of next year.	Maybe stuff we do more of next year.	2676977	1471989138259	1471989138395	y	89
5291	56291	Maybe stuff we do more of next year.	Maybe stuff we do more of next year.	2676983	1471989138571	1471989138707	b	66
5291	56291	Maybe stuff we do more of next year.	Maybe stuff we do more of next year.	2676987	1471989138811	1471989138995	e	69
5291	56291	Maybe stuff we do more of next year.	Maybe stuff we do more of next year.	2677126	1471989138931	1471989139075	 	32
5291	56291	Maybe stuff we do more of next year.	Maybe stuff we do more of next year.	2677127	1471989139179	1471989139307	s	83
5291	56291	Maybe stuff we do more of next year.	Maybe stuff we do more of next year.	2677130	1471989139435	1471989139555	t	84
5291	56291	Maybe stuff we do more of next year.	Maybe stuff we do more of next year.	2677132	1471989139587	1471989139747	u	85
5291	56291	Maybe stuff we do more of next year.	Maybe stuff we do more of next year.	2677135	1471989140011	1471989140171	f	70
5291	56291	Maybe stuff we do more of next year.	Maybe stuff we do more of next year.	2677143	1471989140723	1471989140899	f	70
5291	56291	Maybe stuff we do more of next year.	Maybe stuff we do more of next year.	2677218	1471989140939	1471989141107	 	32
5291	56291	Maybe stuff we do more of next year.	Maybe stuff we do more of next year.	2677220	1471989141131	1471989141300	e	69
5291	56291	Maybe stuff we do more of next year.	Maybe stuff we do more of next year.	2677223	1471989141547	1471989141675	BKSP	8
5291	56291	Maybe stuff we do more of next year.	Maybe stuff we do more of next year.	2677225	1471989141676	1471989141851	w	87
5291	56291	Maybe stuff we do more of next year.	Maybe stuff we do more of next year.	2677229	1471989141939	1471989142115	e	69
5291	56291	Maybe stuff we do more of next year.	Maybe stuff we do more of next year.	2677265	1471989142051	1471989142251	 	32
5291	56291	Maybe stuff we do more of next year.	Maybe stuff we do more of next year.	2677269	1471989142363	1471989142571	d	68
5291	56291	Maybe stuff we do more of next year.	Maybe stuff we do more of next year.	2677273	1471989142516	1471989142731	o	79
5291	56291	Maybe stuff we do more of next year.	Maybe stuff we do more of next year.	2677277	1471989142691	1471989142851	 	32
5291	56291	Maybe stuff we do more of next year.	Maybe stuff we do more of next year.	2677282	1471989142907	1471989143027	m	77
5291	56291	Maybe stuff we do more of next year.	Maybe stuff we do more of next year.	2677286	1471989143115	1471989143291	o	79
5291	56291	Maybe stuff we do more of next year.	Maybe stuff we do more of next year.	2677312	1471989143260	1471989143539	r	82
5291	56291	Maybe stuff we do more of next year.	Maybe stuff we do more of next year.	2677317	1471989143459	1471989143643	 	69
5291	56291	Maybe stuff we do more of next year.	Maybe stuff we do more of next year.	2677322	1471989143731	1471989143906	o	79
5291	56291	Maybe stuff we do more of next year.	Maybe stuff we do more of next year.	2677328	1471989143827	1471989144043	f	70
5291	56291	Maybe stuff we do more of next year.	Maybe stuff we do more of next year.	2677366	1471989143979	1471989144139	 	32
5291	56291	Maybe stuff we do more of next year.	Maybe stuff we do more of next year.	2677369	1471989144171	1471989144315	n	78
5291	56291	Maybe stuff we do more of next year.	Maybe stuff we do more of next year.	2677372	1471989144283	1471989144459	e	69
5291	56291	Maybe stuff we do more of next year.	Maybe stuff we do more of next year.	2677377	1471989144587	1471989144715	x	88
5291	56291	Maybe stuff we do more of next year.	Maybe stuff we do more of next year.	2677381	1471989144827	1471989144987	t	84
5291	56291	Maybe stuff we do more of next year.	Maybe stuff we do more of next year.	2677548	1471989144923	1471989145075	 	32
5291	56291	Maybe stuff we do more of next year.	Maybe stuff we do more of next year.	2677552	1471989145291	1471989145379	y	89
5291	56291	Maybe stuff we do more of next year.	Maybe stuff we do more of next year.	2677555	1471989146139	1471989146235	e	69
5291	56291	Maybe stuff we do more of next year.	Maybe stuff we do more of next year.	2677558	1471989146307	1471989146475	a	65
5291	56291	Maybe stuff we do more of next year.	Maybe stuff we do more of next year.	2677562	1471989146499	1471989146651	r	82
5291	56291	Maybe stuff we do more of next year.	Maybe stuff we do more of next year.	2677569	1471989147699	1471989147835	.	190
5291	56307	I would love to take Dawn and Sara riding.	I would love to take Dawn and Sara riding.	2677755	1471989150123	1471989150347	SHIFT	16
5291	56307	I would love to take Dawn and Sara riding.	I would love to take Dawn and Sara riding.	2677760	1471989150251	1471989150363	I	73
5291	56307	I would love to take Dawn and Sara riding.	I would love to take Dawn and Sara riding.	2677763	1471989150403	1471989150603	 	32
5291	56307	I would love to take Dawn and Sara riding.	I would love to take Dawn and Sara riding.	2677766	1471989150979	1471989151243	w	87
5291	56307	I would love to take Dawn and Sara riding.	I would love to take Dawn and Sara riding.	2677823	1471989151099	1471989151274	o	79
5291	56307	I would love to take Dawn and Sara riding.	I would love to take Dawn and Sara riding.	2677825	1471989151203	1471989151371	u	85
5291	56307	I would love to take Dawn and Sara riding.	I would love to take Dawn and Sara riding.	2677830	1471989151459	1471989151603	l	76
5291	56307	I would love to take Dawn and Sara riding.	I would love to take Dawn and Sara riding.	2677835	1471989151571	1471989151787	d	68
5291	56307	I would love to take Dawn and Sara riding.	I would love to take Dawn and Sara riding.	2677837	1471989151699	1471989151851	 	32
5291	56307	I would love to take Dawn and Sara riding.	I would love to take Dawn and Sara riding.	2677842	1471989151915	1471989152066	l	76
5291	56307	I would love to take Dawn and Sara riding.	I would love to take Dawn and Sara riding.	2677846	1471989152147	1471989152299	o	79
5291	56307	I would love to take Dawn and Sara riding.	I would love to take Dawn and Sara riding.	2677913	1471989152443	1471989152595	v	86
5291	56307	I would love to take Dawn and Sara riding.	I would love to take Dawn and Sara riding.	2677915	1471989152891	1471989153075	e	69
5291	56307	I would love to take Dawn and Sara riding.	I would love to take Dawn and Sara riding.	2677916	1471989152963	1471989153171	 	32
5291	56307	I would love to take Dawn and Sara riding.	I would love to take Dawn and Sara riding.	2677917	1471989153195	1471989153387	t	84
5291	56307	I would love to take Dawn and Sara riding.	I would love to take Dawn and Sara riding.	2677993	1471989153338	1471989153539	o	79
5291	56307	I would love to take Dawn and Sara riding.	I would love to take Dawn and Sara riding.	2677995	1471989153482	1471989153642	 	32
5291	56307	I would love to take Dawn and Sara riding.	I would love to take Dawn and Sara riding.	2677999	1471989153811	1471989154003	t	84
5291	56307	I would love to take Dawn and Sara riding.	I would love to take Dawn and Sara riding.	2678001	1471989154059	1471989154283	a	65
5291	56307	I would love to take Dawn and Sara riding.	I would love to take Dawn and Sara riding.	2678003	1471989154171	1471989154315	k	75
5291	56307	I would love to take Dawn and Sara riding.	I would love to take Dawn and Sara riding.	2678006	1471989154411	1471989154642	e	69
5291	56307	I would love to take Dawn and Sara riding.	I would love to take Dawn and Sara riding.	2678101	1471989154523	1471989154715	 	32
5291	56307	I would love to take Dawn and Sara riding.	I would love to take Dawn and Sara riding.	2678104	1471989155299	1471989155507	SHIFT	16
5291	56307	I would love to take Dawn and Sara riding.	I would love to take Dawn and Sara riding.	2678108	1471989155427	1471989155595	D	68
5291	56307	I would love to take Dawn and Sara riding.	I would love to take Dawn and Sara riding.	2678115	1471989155763	1471989155963	a	65
5291	56307	I would love to take Dawn and Sara riding.	I would love to take Dawn and Sara riding.	2678131	1471989156323	1471989156555	w	87
5291	56307	I would love to take Dawn and Sara riding.	I would love to take Dawn and Sara riding.	2678138	1471989156523	1471989156683	n	78
5291	56307	I would love to take Dawn and Sara riding.	I would love to take Dawn and Sara riding.	2678144	1471989156739	1471989156875	 	32
5291	56307	I would love to take Dawn and Sara riding.	I would love to take Dawn and Sara riding.	2678179	1471989156955	1471989157163	a	65
5291	56307	I would love to take Dawn and Sara riding.	I would love to take Dawn and Sara riding.	2678182	1471989157059	1471989157203	n	78
5291	56307	I would love to take Dawn and Sara riding.	I would love to take Dawn and Sara riding.	2678186	1471989157274	1471989157483	d	68
5291	56307	I would love to take Dawn and Sara riding.	I would love to take Dawn and Sara riding.	2678190	1471989157355	1471989157498	 	32
5291	56307	I would love to take Dawn and Sara riding.	I would love to take Dawn and Sara riding.	2678192	1471989157739	1471989157971	SHIFT	16
5291	56307	I would love to take Dawn and Sara riding.	I would love to take Dawn and Sara riding.	2678264	1471989157859	1471989158035	S	83
5291	56307	I would love to take Dawn and Sara riding.	I would love to take Dawn and Sara riding.	2678269	1471989158091	1471989158259	a	65
5291	56307	I would love to take Dawn and Sara riding.	I would love to take Dawn and Sara riding.	2678276	1471989158283	1471989158475	r	82
5291	56307	I would love to take Dawn and Sara riding.	I would love to take Dawn and Sara riding.	2678284	1471989158643	1471989158867	a	65
5291	56307	I would love to take Dawn and Sara riding.	I would love to take Dawn and Sara riding.	2678294	1471989158755	1471989158931	 	32
5291	56307	I would love to take Dawn and Sara riding.	I would love to take Dawn and Sara riding.	2678301	1471989159059	1471989159267	r	82
5291	56307	I would love to take Dawn and Sara riding.	I would love to take Dawn and Sara riding.	2678395	1471989159211	1471989159371	i	73
5291	56307	I would love to take Dawn and Sara riding.	I would love to take Dawn and Sara riding.	2678400	1471989159547	1471989159731	s	83
5291	56307	I would love to take Dawn and Sara riding.	I would love to take Dawn and Sara riding.	2678405	1471989160042	1471989160179	BKSP	8
5291	56307	I would love to take Dawn and Sara riding.	I would love to take Dawn and Sara riding.	2678408	1471989160194	1471989160371	d	68
5291	56307	I would love to take Dawn and Sara riding.	I would love to take Dawn and Sara riding.	2678409	1471989160339	1471989160466	i	73
5291	56307	I would love to take Dawn and Sara riding.	I would love to take Dawn and Sara riding.	2678410	1471989160587	1471989160707	n	78
5291	56307	I would love to take Dawn and Sara riding.	I would love to take Dawn and Sara riding.	2678412	1471989160707	1471989160867	g	71
5291	56307	I would love to take Dawn and Sara riding.	I would love to take Dawn and Sara riding.	2678493	1471989161571	1471989161643	.	190
5291	56325	Two-thirds of our tickets have been sold in the United States.	Two-thirds of our tickets have been sold in the United States	2678896	1471989164819	1471989165067	SHIFT	16
5291	56325	Two-thirds of our tickets have been sold in the United States.	Two-thirds of our tickets have been sold in the United States	2678900	1471989165035	1471989165179	T	84
5291	56325	Two-thirds of our tickets have been sold in the United States.	Two-thirds of our tickets have been sold in the United States	2678904	1471989165347	1471989165547	w	87
5291	56325	Two-thirds of our tickets have been sold in the United States.	Two-thirds of our tickets have been sold in the United States	2678907	1471989165482	1471989165658	o	79
5291	56325	Two-thirds of our tickets have been sold in the United States.	Two-thirds of our tickets have been sold in the United States	2678911	1471989165731	1471989165907	 	32
5291	56325	Two-thirds of our tickets have been sold in the United States.	Two-thirds of our tickets have been sold in the United States	2678916	1471989166378	1471989166499	BKSP	8
5291	56325	Two-thirds of our tickets have been sold in the United States.	Two-thirds of our tickets have been sold in the United States	2678921	1471989167123	1471989167203	-	189
5291	56325	Two-thirds of our tickets have been sold in the United States.	Two-thirds of our tickets have been sold in the United States	2678998	1471989167723	1471989167875	t	84
5291	56325	Two-thirds of our tickets have been sold in the United States.	Two-thirds of our tickets have been sold in the United States	2679001	1471989167794	1471989167907	h	72
5291	56325	Two-thirds of our tickets have been sold in the United States.	Two-thirds of our tickets have been sold in the United States	2679005	1471989168003	1471989168147	i	73
5291	56325	Two-thirds of our tickets have been sold in the United States.	Two-thirds of our tickets have been sold in the United States	2679007	1471989168203	1471989168315	r	82
5291	56325	Two-thirds of our tickets have been sold in the United States.	Two-thirds of our tickets have been sold in the United States	2679013	1471989168475	1471989168571	d	68
5291	56325	Two-thirds of our tickets have been sold in the United States.	Two-thirds of our tickets have been sold in the United States	2679064	1471989168723	1471989168907	s	83
5291	56325	Two-thirds of our tickets have been sold in the United States.	Two-thirds of our tickets have been sold in the United States	2679069	1471989168819	1471989168954	 	32
5291	56325	Two-thirds of our tickets have been sold in the United States.	Two-thirds of our tickets have been sold in the United States	2679076	1471989169027	1471989169170	o	79
5291	56325	Two-thirds of our tickets have been sold in the United States.	Two-thirds of our tickets have been sold in the United States	2679079	1471989169115	1471989169299	f	70
5291	56325	Two-thirds of our tickets have been sold in the United States.	Two-thirds of our tickets have been sold in the United States	2679170	1471989169259	1471989169419	 	32
5291	56325	Two-thirds of our tickets have been sold in the United States.	Two-thirds of our tickets have been sold in the United States	2679173	1471989169515	1471989169698	o	79
5291	56325	Two-thirds of our tickets have been sold in the United States.	Two-thirds of our tickets have been sold in the United States	2679179	1471989169634	1471989169819	u	85
5291	56325	Two-thirds of our tickets have been sold in the United States.	Two-thirds of our tickets have been sold in the United States	2679185	1471989169882	1471989170115	r	82
5291	56325	Two-thirds of our tickets have been sold in the United States.	Two-thirds of our tickets have been sold in the United States	2679189	1471989170019	1471989170186	 	32
5291	56325	Two-thirds of our tickets have been sold in the United States.	Two-thirds of our tickets have been sold in the United States	2679194	1471989170259	1471989170411	t	84
5291	56325	Two-thirds of our tickets have been sold in the United States.	Two-thirds of our tickets have been sold in the United States	2679239	1471989170435	1471989170586	i	73
5291	56325	Two-thirds of our tickets have been sold in the United States.	Two-thirds of our tickets have been sold in the United States	2679242	1471989170683	1471989170859	c	67
5291	56325	Two-thirds of our tickets have been sold in the United States.	Two-thirds of our tickets have been sold in the United States	2679244	1471989170787	1471989170915	k	75
5291	56325	Two-thirds of our tickets have been sold in the United States.	Two-thirds of our tickets have been sold in the United States	2679249	1471989171083	1471989171203	e	69
5291	56325	Two-thirds of our tickets have been sold in the United States.	Two-thirds of our tickets have been sold in the United States	2679253	1471989171379	1471989171530	t	84
5291	56325	Two-thirds of our tickets have been sold in the United States.	Two-thirds of our tickets have been sold in the United States	2679326	1471989171667	1471989171898	s	83
5291	56325	Two-thirds of our tickets have been sold in the United States.	Two-thirds of our tickets have been sold in the United States	2679329	1471989171779	1471989171954	 	32
5291	56325	Two-thirds of our tickets have been sold in the United States.	Two-thirds of our tickets have been sold in the United States	2679333	1471989172058	1471989172211	h	72
5291	56325	Two-thirds of our tickets have been sold in the United States.	Two-thirds of our tickets have been sold in the United States	2679335	1471989172179	1471989172339	a	65
5291	56325	Two-thirds of our tickets have been sold in the United States.	Two-thirds of our tickets have been sold in the United States	2679338	1471989172443	1471989172555	v	86
5291	56325	Two-thirds of our tickets have been sold in the United States.	Two-thirds of our tickets have been sold in the United States	2679400	1471989172651	1471989172835	e	69
5291	56325	Two-thirds of our tickets have been sold in the United States.	Two-thirds of our tickets have been sold in the United States	2679403	1471989172731	1471989172867	 	32
5291	56325	Two-thirds of our tickets have been sold in the United States.	Two-thirds of our tickets have been sold in the United States	2679408	1471989172995	1471989173130	b	66
5291	56325	Two-thirds of our tickets have been sold in the United States.	Two-thirds of our tickets have been sold in the United States	2679418	1471989173283	1471989173386	e	69
5291	56325	Two-thirds of our tickets have been sold in the United States.	Two-thirds of our tickets have been sold in the United States	2679425	1471989173491	1471989173619	e	69
5291	56325	Two-thirds of our tickets have been sold in the United States.	Two-thirds of our tickets have been sold in the United States	2679479	1471989173603	1471989173755	n	78
5291	56325	Two-thirds of our tickets have been sold in the United States.	Two-thirds of our tickets have been sold in the United States	2679484	1471989173787	1471989173930	 	32
5291	56325	Two-thirds of our tickets have been sold in the United States.	Two-thirds of our tickets have been sold in the United States	2679488	1471989173962	1471989174155	s	83
5291	56325	Two-thirds of our tickets have been sold in the United States.	Two-thirds of our tickets have been sold in the United States	2679494	1471989174082	1471989174202	o	79
5291	56325	Two-thirds of our tickets have been sold in the United States.	Two-thirds of our tickets have been sold in the United States	2679500	1471989174291	1471989174450	l	76
5291	56325	Two-thirds of our tickets have been sold in the United States.	Two-thirds of our tickets have been sold in the United States	2679505	1471989174467	1471989174683	d	68
5291	56325	Two-thirds of our tickets have been sold in the United States.	Two-thirds of our tickets have been sold in the United States	2679540	1471989174538	1471989174723	 	32
5291	56325	Two-thirds of our tickets have been sold in the United States.	Two-thirds of our tickets have been sold in the United States	2679546	1471989174738	1471989174859	i	73
5291	56325	Two-thirds of our tickets have been sold in the United States.	Two-thirds of our tickets have been sold in the United States	2679550	1471989174931	1471989175075	n	78
5291	56325	Two-thirds of our tickets have been sold in the United States.	Two-thirds of our tickets have been sold in the United States	2679557	1471989175035	1471989175178	 	32
5291	56325	Two-thirds of our tickets have been sold in the United States.	Two-thirds of our tickets have been sold in the United States	2679562	1471989175194	1471989175379	t	84
5291	56325	Two-thirds of our tickets have been sold in the United States.	Two-thirds of our tickets have been sold in the United States	2679706	1471989175347	1471989175466	h	72
5291	56325	Two-thirds of our tickets have been sold in the United States.	Two-thirds of our tickets have been sold in the United States	2679709	1471989175498	1471989175746	e	69
5291	56325	Two-thirds of our tickets have been sold in the United States.	Two-thirds of our tickets have been sold in the United States	2679715	1471989175595	1471989175770	 	32
5291	56325	Two-thirds of our tickets have been sold in the United States.	Two-thirds of our tickets have been sold in the United States	2679725	1471989176123	1471989176523	SHIFT	16
5291	56325	Two-thirds of our tickets have been sold in the United States.	Two-thirds of our tickets have been sold in the United States	2679720	1471989176371	1471989176498	U	85
5291	56325	Two-thirds of our tickets have been sold in the United States.	Two-thirds of our tickets have been sold in the United States	2679730	1471989176955	1471989177067	n	78
5291	56325	Two-thirds of our tickets have been sold in the United States.	Two-thirds of our tickets have been sold in the United States	2679738	1471989177146	1471989177267	i	73
5291	56325	Two-thirds of our tickets have been sold in the United States.	Two-thirds of our tickets have been sold in the United States	2679842	1471989177315	1471989177483	t	84
5291	56325	Two-thirds of our tickets have been sold in the United States.	Two-thirds of our tickets have been sold in the United States	2679852	1471989177602	1471989177715	e	69
5291	56325	Two-thirds of our tickets have been sold in the United States.	Two-thirds of our tickets have been sold in the United States	2679860	1471989177891	1471989178027	d	68
5291	56325	Two-thirds of our tickets have been sold in the United States.	Two-thirds of our tickets have been sold in the United States	2679869	1471989178050	1471989178195	 	32
5291	56325	Two-thirds of our tickets have been sold in the United States.	Two-thirds of our tickets have been sold in the United States	2679875	1471989178483	1471989178682	SHIFT	16
5291	56325	Two-thirds of our tickets have been sold in the United States.	Two-thirds of our tickets have been sold in the United States	2679953	1471989178563	1471989178731	S	83
5291	56325	Two-thirds of our tickets have been sold in the United States.	Two-thirds of our tickets have been sold in the United States	2679957	1471989178835	1471989179003	t	84
5291	56325	Two-thirds of our tickets have been sold in the United States.	Two-thirds of our tickets have been sold in the United States	2679960	1471989178979	1471989179227	a	65
5291	56325	Two-thirds of our tickets have been sold in the United States.	Two-thirds of our tickets have been sold in the United States	2679963	1471989179219	1471989179403	t	84
5291	56325	Two-thirds of our tickets have been sold in the United States.	Two-thirds of our tickets have been sold in the United States	2679968	1471989179555	1471989179651	e	69
5291	56325	Two-thirds of our tickets have been sold in the United States.	Two-thirds of our tickets have been sold in the United States	2679974	1471989179827	1471989179979	s	83
5291	56357	Theresa, the formula BP is using is highlighted in red below.	Theresa, the formula BP is using is highlighted in red below.	2680263	1471989182435	1471989182627	SHIFT	16
5291	56357	Theresa, the formula BP is using is highlighted in red below.	Theresa, the formula BP is using is highlighted in red below.	2680267	1471989182546	1471989182738	T	84
5291	56357	Theresa, the formula BP is using is highlighted in red below.	Theresa, the formula BP is using is highlighted in red below.	2680272	1471989182715	1471989182842	h	72
5291	56357	Theresa, the formula BP is using is highlighted in red below.	Theresa, the formula BP is using is highlighted in red below.	2680276	1471989182979	1471989183155	e	69
5291	56357	Theresa, the formula BP is using is highlighted in red below.	Theresa, the formula BP is using is highlighted in red below.	2680279	1471989183123	1471989183339	r	82
5291	56357	Theresa, the formula BP is using is highlighted in red below.	Theresa, the formula BP is using is highlighted in red below.	2680282	1471989183627	1471989183754	e	69
5291	56357	Theresa, the formula BP is using is highlighted in red below.	Theresa, the formula BP is using is highlighted in red below.	2680429	1471989183947	1471989184082	s	83
5291	56357	Theresa, the formula BP is using is highlighted in red below.	Theresa, the formula BP is using is highlighted in red below.	2680434	1471989184379	1471989184531	a	65
5291	56357	Theresa, the formula BP is using is highlighted in red below.	Theresa, the formula BP is using is highlighted in red below.	2680438	1471989184779	1471989184970	,	188
5291	56357	Theresa, the formula BP is using is highlighted in red below.	Theresa, the formula BP is using is highlighted in red below.	2680444	1471989185203	1471989185371	 	32
5291	56357	Theresa, the formula BP is using is highlighted in red below.	Theresa, the formula BP is using is highlighted in red below.	2680449	1471989185619	1471989185794	t	84
5291	56357	Theresa, the formula BP is using is highlighted in red below.	Theresa, the formula BP is using is highlighted in red below.	2680544	1471989185707	1471989185842	h	72
5291	56357	Theresa, the formula BP is using is highlighted in red below.	Theresa, the formula BP is using is highlighted in red below.	2680549	1471989185986	1471989186194	e	69
5291	56357	Theresa, the formula BP is using is highlighted in red below.	Theresa, the formula BP is using is highlighted in red below.	2680556	1471989186107	1471989186267	 	32
5291	56357	Theresa, the formula BP is using is highlighted in red below.	Theresa, the formula BP is using is highlighted in red below.	2680565	1471989186370	1471989186523	f	70
5291	56357	Theresa, the formula BP is using is highlighted in red below.	Theresa, the formula BP is using is highlighted in red below.	2680577	1471989186579	1471989186754	o	79
5291	56357	Theresa, the formula BP is using is highlighted in red below.	Theresa, the formula BP is using is highlighted in red below.	2680630	1471989186739	1471989186899	r	82
5291	56357	Theresa, the formula BP is using is highlighted in red below.	Theresa, the formula BP is using is highlighted in red below.	2680637	1471989186939	1471989187090	m	77
5291	56357	Theresa, the formula BP is using is highlighted in red below.	Theresa, the formula BP is using is highlighted in red below.	2680644	1471989187195	1471989187315	u	85
5291	56357	Theresa, the formula BP is using is highlighted in red below.	Theresa, the formula BP is using is highlighted in red below.	2680653	1471989187410	1471989187547	l	76
5291	56357	Theresa, the formula BP is using is highlighted in red below.	Theresa, the formula BP is using is highlighted in red below.	2680661	1471989187579	1471989187803	a	65
5291	56357	Theresa, the formula BP is using is highlighted in red below.	Theresa, the formula BP is using is highlighted in red below.	2680815	1471989187682	1471989187843	 	32
5291	56357	Theresa, the formula BP is using is highlighted in red below.	Theresa, the formula BP is using is highlighted in red below.	2680824	1471989188283	1471989188859	SHIFT	16
5291	56357	Theresa, the formula BP is using is highlighted in red below.	Theresa, the formula BP is using is highlighted in red below.	2680820	1471989188451	1471989188595	B	66
5291	56357	Theresa, the formula BP is using is highlighted in red below.	Theresa, the formula BP is using is highlighted in red below.	2680830	1471989188739	1471989188899	P	80
5291	56357	Theresa, the formula BP is using is highlighted in red below.	Theresa, the formula BP is using is highlighted in red below.	2680836	1471989189019	1471989189210	 	32
5291	56357	Theresa, the formula BP is using is highlighted in red below.	Theresa, the formula BP is using is highlighted in red below.	2680843	1471989189603	1471989189763	i	73
5291	56357	Theresa, the formula BP is using is highlighted in red below.	Theresa, the formula BP is using is highlighted in red below.	2680847	1471989189962	1471989190178	s	83
5291	56357	Theresa, the formula BP is using is highlighted in red below.	Theresa, the formula BP is using is highlighted in red below.	2680887	1471989190083	1471989190266	 	32
5291	56357	Theresa, the formula BP is using is highlighted in red below.	Theresa, the formula BP is using is highlighted in red below.	2680890	1471989190474	1471989190635	u	85
5291	56357	Theresa, the formula BP is using is highlighted in red below.	Theresa, the formula BP is using is highlighted in red below.	2680894	1471989190779	1471989190995	s	83
5291	56357	Theresa, the formula BP is using is highlighted in red below.	Theresa, the formula BP is using is highlighted in red below.	2680897	1471989190898	1471989191043	i	73
5291	56357	Theresa, the formula BP is using is highlighted in red below.	Theresa, the formula BP is using is highlighted in red below.	2680900	1471989191147	1471989191290	n	78
5291	56357	Theresa, the formula BP is using is highlighted in red below.	Theresa, the formula BP is using is highlighted in red below.	2681004	1471989191275	1471989191483	g	71
5291	56357	Theresa, the formula BP is using is highlighted in red below.	Theresa, the formula BP is using is highlighted in red below.	2681012	1471989191435	1471989191555	 	32
5291	56357	Theresa, the formula BP is using is highlighted in red below.	Theresa, the formula BP is using is highlighted in red below.	2681018	1471989191675	1471989191826	i	73
5291	56357	Theresa, the formula BP is using is highlighted in red below.	Theresa, the formula BP is using is highlighted in red below.	2681023	1471989191850	1471989192075	s	83
5291	56357	Theresa, the formula BP is using is highlighted in red below.	Theresa, the formula BP is using is highlighted in red below.	2681030	1471989191994	1471989192147	 	32
5291	56357	Theresa, the formula BP is using is highlighted in red below.	Theresa, the formula BP is using is highlighted in red below.	2681035	1471989192579	1471989192691	h	72
5291	56357	Theresa, the formula BP is using is highlighted in red below.	Theresa, the formula BP is using is highlighted in red below.	2681118	1471989192763	1471989192907	i	73
5291	56357	Theresa, the formula BP is using is highlighted in red below.	Theresa, the formula BP is using is highlighted in red below.	2681124	1471989193043	1471989193219	g	71
5291	56357	Theresa, the formula BP is using is highlighted in red below.	Theresa, the formula BP is using is highlighted in red below.	2681130	1471989193163	1471989193290	h	72
5291	56357	Theresa, the formula BP is using is highlighted in red below.	Theresa, the formula BP is using is highlighted in red below.	2681136	1471989193467	1471989193586	l	76
5291	56357	Theresa, the formula BP is using is highlighted in red below.	Theresa, the formula BP is using is highlighted in red below.	2681141	1471989193667	1471989193802	i	73
5291	56357	Theresa, the formula BP is using is highlighted in red below.	Theresa, the formula BP is using is highlighted in red below.	2681187	1471989193890	1471989194043	g	71
5291	56357	Theresa, the formula BP is using is highlighted in red below.	Theresa, the formula BP is using is highlighted in red below.	2681192	1471989193970	1471989194122	h	72
5291	56357	Theresa, the formula BP is using is highlighted in red below.	Theresa, the formula BP is using is highlighted in red below.	2681197	1471989194194	1471989194354	t	84
5291	56357	Theresa, the formula BP is using is highlighted in red below.	Theresa, the formula BP is using is highlighted in red below.	2681200	1471989194483	1471989194594	e	69
5291	56357	Theresa, the formula BP is using is highlighted in red below.	Theresa, the formula BP is using is highlighted in red below.	2681205	1471989194699	1471989194876	d	68
5291	56357	Theresa, the formula BP is using is highlighted in red below.	Theresa, the formula BP is using is highlighted in red below.	2681230	1471989194763	1471989194915	 	32
5291	56357	Theresa, the formula BP is using is highlighted in red below.	Theresa, the formula BP is using is highlighted in red below.	2681234	1471989194915	1471989195058	i	73
5291	56357	Theresa, the formula BP is using is highlighted in red below.	Theresa, the formula BP is using is highlighted in red below.	2681236	1471989195131	1471989195258	n	78
5291	56357	Theresa, the formula BP is using is highlighted in red below.	Theresa, the formula BP is using is highlighted in red below.	2681240	1471989195210	1471989195339	 	32
5291	56357	Theresa, the formula BP is using is highlighted in red below.	Theresa, the formula BP is using is highlighted in red below.	2681243	1471989195363	1471989195586	r	82
5291	56357	Theresa, the formula BP is using is highlighted in red below.	Theresa, the formula BP is using is highlighted in red below.	2681328	1471989195491	1471989195659	e	69
5291	56357	Theresa, the formula BP is using is highlighted in red below.	Theresa, the formula BP is using is highlighted in red below.	2681335	1471989195978	1471989196154	d	68
5291	56357	Theresa, the formula BP is using is highlighted in red below.	Theresa, the formula BP is using is highlighted in red below.	2681340	1471989196114	1471989196282	 	32
5291	56357	Theresa, the formula BP is using is highlighted in red below.	Theresa, the formula BP is using is highlighted in red below.	2681347	1471989196395	1471989196538	b	66
5291	56357	Theresa, the formula BP is using is highlighted in red below.	Theresa, the formula BP is using is highlighted in red below.	2681351	1471989196650	1471989196851	e	69
5291	56357	Theresa, the formula BP is using is highlighted in red below.	Theresa, the formula BP is using is highlighted in red below.	2681451	1471989196786	1471989196907	l	76
5291	56357	Theresa, the formula BP is using is highlighted in red below.	Theresa, the formula BP is using is highlighted in red below.	2681456	1471989197011	1471989197170	o	79
5291	56357	Theresa, the formula BP is using is highlighted in red below.	Theresa, the formula BP is using is highlighted in red below.	2681460	1471989197186	1471989197370	w	87
5291	56357	Theresa, the formula BP is using is highlighted in red below.	Theresa, the formula BP is using is highlighted in red below.	2681464	1471989198026	1471989198106	.	190
5291	56387	I will call in 20 to 30 minutes.	I will call in 20 to 30 minutes.	2681667	1471989200978	1471989201195	SHIFT	16
5291	56387	I will call in 20 to 30 minutes.	I will call in 20 to 30 minutes.	2681670	1471989201115	1471989201211	I	73
5291	56387	I will call in 20 to 30 minutes.	I will call in 20 to 30 minutes.	2681673	1471989201275	1471989201458	 	32
5291	56387	I will call in 20 to 30 minutes.	I will call in 20 to 30 minutes.	2681677	1471989201731	1471989201930	w	87
5291	56387	I will call in 20 to 30 minutes.	I will call in 20 to 30 minutes.	2681682	1471989201922	1471989202034	i	73
5291	56387	I will call in 20 to 30 minutes.	I will call in 20 to 30 minutes.	2681688	1471989202155	1471989202251	l	76
5291	56387	I will call in 20 to 30 minutes.	I will call in 20 to 30 minutes.	2681735	1471989202314	1471989202450	l	76
5291	56387	I will call in 20 to 30 minutes.	I will call in 20 to 30 minutes.	2681743	1471989202402	1471989202586	 	32
5291	56387	I will call in 20 to 30 minutes.	I will call in 20 to 30 minutes.	2681750	1471989202562	1471989202706	c	67
5291	56387	I will call in 20 to 30 minutes.	I will call in 20 to 30 minutes.	2681756	1471989202738	1471989202930	a	65
5291	56387	I will call in 20 to 30 minutes.	I will call in 20 to 30 minutes.	2681824	1471989202906	1471989203003	l	76
5291	56387	I will call in 20 to 30 minutes.	I will call in 20 to 30 minutes.	2681830	1471989203074	1471989203258	l	76
5291	56387	I will call in 20 to 30 minutes.	I will call in 20 to 30 minutes.	2681836	1471989203186	1471989203394	 	32
5291	56387	I will call in 20 to 30 minutes.	I will call in 20 to 30 minutes.	2681840	1471989203387	1471989203522	i	73
5291	56387	I will call in 20 to 30 minutes.	I will call in 20 to 30 minutes.	2681845	1471989203595	1471989203778	n	78
5291	56387	I will call in 20 to 30 minutes.	I will call in 20 to 30 minutes.	2682071	1471989203714	1471989203866	 	32
5291	56387	I will call in 20 to 30 minutes.	I will call in 20 to 30 minutes.	2682082	1471989204562	1471989204643	2	98
5291	56387	I will call in 20 to 30 minutes.	I will call in 20 to 30 minutes.	2682094	1471989204714	1471989204819	0	96
5291	56387	I will call in 20 to 30 minutes.	I will call in 20 to 30 minutes.	2682103	1471989205051	1471989205187	 	32
5291	56387	I will call in 20 to 30 minutes.	I will call in 20 to 30 minutes.	2682110	1471989205610	1471989205738	o	79
5291	56387	I will call in 20 to 30 minutes.	I will call in 20 to 30 minutes.	2682117	1471989205746	1471989205979	r	82
5291	56387	I will call in 20 to 30 minutes.	I will call in 20 to 30 minutes.	2682285	1471989205899	1471989206082	 	32
5291	56387	I will call in 20 to 30 minutes.	I will call in 20 to 30 minutes.	2682292	1471989206330	1471989206427	BKSP	8
5291	56387	I will call in 20 to 30 minutes.	I will call in 20 to 30 minutes.	2682300	1471989206498	1471989206579	BKSP	8
5291	56387	I will call in 20 to 30 minutes.	I will call in 20 to 30 minutes.	2682306	1471989206659	1471989206787	BKSP	8
5291	56387	I will call in 20 to 30 minutes.	I will call in 20 to 30 minutes.	2682315	1471989206938	1471989207106	t	84
5291	56387	I will call in 20 to 30 minutes.	I will call in 20 to 30 minutes.	2682320	1471989207019	1471989207186	o	79
5291	56387	I will call in 20 to 30 minutes.	I will call in 20 to 30 minutes.	2682327	1471989207282	1471989207450	 	32
5291	56387	I will call in 20 to 30 minutes.	I will call in 20 to 30 minutes.	2682332	1471989207899	1471989207986	3	99
5291	56387	I will call in 20 to 30 minutes.	I will call in 20 to 30 minutes.	2682339	1471989208075	1471989208194	0	96
5291	56387	I will call in 20 to 30 minutes.	I will call in 20 to 30 minutes.	2682413	1471989208403	1471989208546	 	32
5291	56387	I will call in 20 to 30 minutes.	I will call in 20 to 30 minutes.	2682416	1471989208922	1471989209035	m	77
5291	56387	I will call in 20 to 30 minutes.	I will call in 20 to 30 minutes.	2682421	1471989209146	1471989209226	i	73
5291	56387	I will call in 20 to 30 minutes.	I will call in 20 to 30 minutes.	2682426	1471989209370	1471989209490	n	78
5291	56387	I will call in 20 to 30 minutes.	I will call in 20 to 30 minutes.	2682430	1471989209595	1471989209699	u	85
5291	56387	I will call in 20 to 30 minutes.	I will call in 20 to 30 minutes.	2682506	1471989209747	1471989209922	t	84
5291	56387	I will call in 20 to 30 minutes.	I will call in 20 to 30 minutes.	2682512	1471989210019	1471989210202	e	69
5291	56387	I will call in 20 to 30 minutes.	I will call in 20 to 30 minutes.	2682518	1471989210338	1471989210491	s	83
5291	56387	I will call in 20 to 30 minutes.	I will call in 20 to 30 minutes.	2682522	1471989211066	1471989211155	.	190
5291	56405	Team Chick hasn't been in the SuperBowl every year for no reason.	Team Chick hasn't been in the SuperBowl every year for no reason.	2682799	1471989214066	1471989214283	SHIFT	16
5291	56405	Team Chick hasn't been in the SuperBowl every year for no reason.	Team Chick hasn't been in the SuperBowl every year for no reason.	2682801	1471989214203	1471989214371	T	84
5291	56405	Team Chick hasn't been in the SuperBowl every year for no reason.	Team Chick hasn't been in the SuperBowl every year for no reason.	2682810	1471989214474	1471989214627	e	69
5291	56405	Team Chick hasn't been in the SuperBowl every year for no reason.	Team Chick hasn't been in the SuperBowl every year for no reason.	2682813	1471989214787	1471989214986	a	65
5291	56405	Team Chick hasn't been in the SuperBowl every year for no reason.	Team Chick hasn't been in the SuperBowl every year for no reason.	2682819	1471989214931	1471989215082	m	77
5291	56405	Team Chick hasn't been in the SuperBowl every year for no reason.	Team Chick hasn't been in the SuperBowl every year for no reason.	2682820	1471989215115	1471989215267	 	32
5291	56405	Team Chick hasn't been in the SuperBowl every year for no reason.	Team Chick hasn't been in the SuperBowl every year for no reason.	2682887	1471989215715	1471989215899	SHIFT	16
5291	56405	Team Chick hasn't been in the SuperBowl every year for no reason.	Team Chick hasn't been in the SuperBowl every year for no reason.	2682892	1471989215827	1471989216019	C	67
5291	56405	Team Chick hasn't been in the SuperBowl every year for no reason.	Team Chick hasn't been in the SuperBowl every year for no reason.	2682897	1471989215987	1471989216139	h	72
5291	56405	Team Chick hasn't been in the SuperBowl every year for no reason.	Team Chick hasn't been in the SuperBowl every year for no reason.	2682901	1471989216218	1471989216331	i	73
5291	56405	Team Chick hasn't been in the SuperBowl every year for no reason.	Team Chick hasn't been in the SuperBowl every year for no reason.	2682908	1471989216443	1471989216658	c	67
5291	56405	Team Chick hasn't been in the SuperBowl every year for no reason.	Team Chick hasn't been in the SuperBowl every year for no reason.	2683034	1471989216563	1471989216746	k	75
5291	56405	Team Chick hasn't been in the SuperBowl every year for no reason.	Team Chick hasn't been in the SuperBowl every year for no reason.	2683044	1471989216730	1471989216930	 	32
5291	56405	Team Chick hasn't been in the SuperBowl every year for no reason.	Team Chick hasn't been in the SuperBowl every year for no reason.	2683052	1471989217099	1471989217290	h	72
5291	56405	Team Chick hasn't been in the SuperBowl every year for no reason.	Team Chick hasn't been in the SuperBowl every year for no reason.	2683058	1471989217274	1471989217467	a	65
5291	56405	Team Chick hasn't been in the SuperBowl every year for no reason.	Team Chick hasn't been in the SuperBowl every year for no reason.	2683063	1471989217682	1471989217819	s	83
5291	56405	Team Chick hasn't been in the SuperBowl every year for no reason.	Team Chick hasn't been in the SuperBowl every year for no reason.	2683066	1471989217931	1471989218067	n	78
5291	56405	Team Chick hasn't been in the SuperBowl every year for no reason.	Team Chick hasn't been in the SuperBowl every year for no reason.	2683212	1471989218627	1471989218787	'	222
5291	56405	Team Chick hasn't been in the SuperBowl every year for no reason.	Team Chick hasn't been in the SuperBowl every year for no reason.	2683219	1471989218923	1471989219131	t	84
5291	56405	Team Chick hasn't been in the SuperBowl every year for no reason.	Team Chick hasn't been in the SuperBowl every year for no reason.	2683225	1471989219067	1471989219267	 	32
5291	56405	Team Chick hasn't been in the SuperBowl every year for no reason.	Team Chick hasn't been in the SuperBowl every year for no reason.	2683232	1471989219722	1471989219874	b	66
5291	56405	Team Chick hasn't been in the SuperBowl every year for no reason.	Team Chick hasn't been in the SuperBowl every year for no reason.	2683238	1471989219987	1471989220066	e	69
5291	56405	Team Chick hasn't been in the SuperBowl every year for no reason.	Team Chick hasn't been in the SuperBowl every year for no reason.	2683292	1471989220162	1471989220298	e	69
5291	56405	Team Chick hasn't been in the SuperBowl every year for no reason.	Team Chick hasn't been in the SuperBowl every year for no reason.	2683295	1471989220299	1471989220450	n	78
5291	56405	Team Chick hasn't been in the SuperBowl every year for no reason.	Team Chick hasn't been in the SuperBowl every year for no reason.	2683299	1471989220418	1471989220570	 	32
5291	56405	Team Chick hasn't been in the SuperBowl every year for no reason.	Team Chick hasn't been in the SuperBowl every year for no reason.	2683305	1471989220618	1471989220722	i	73
5291	56405	Team Chick hasn't been in the SuperBowl every year for no reason.	Team Chick hasn't been in the SuperBowl every year for no reason.	2683308	1471989220770	1471989220922	n	78
5291	56405	Team Chick hasn't been in the SuperBowl every year for no reason.	Team Chick hasn't been in the SuperBowl every year for no reason.	2683411	1471989220875	1471989221019	 	32
5291	56405	Team Chick hasn't been in the SuperBowl every year for no reason.	Team Chick hasn't been in the SuperBowl every year for no reason.	2683414	1471989221098	1471989221275	t	84
5291	56405	Team Chick hasn't been in the SuperBowl every year for no reason.	Team Chick hasn't been in the SuperBowl every year for no reason.	2683419	1471989221234	1471989221362	h	72
5291	56405	Team Chick hasn't been in the SuperBowl every year for no reason.	Team Chick hasn't been in the SuperBowl every year for no reason.	2683425	1471989221379	1471989221618	e	69
5291	56405	Team Chick hasn't been in the SuperBowl every year for no reason.	Team Chick hasn't been in the SuperBowl every year for no reason.	2683432	1471989221522	1471989221690	 	32
5291	56405	Team Chick hasn't been in the SuperBowl every year for no reason.	Team Chick hasn't been in the SuperBowl every year for no reason.	2683441	1471989221946	1471989222163	SHIFT	16
5291	56405	Team Chick hasn't been in the SuperBowl every year for no reason.	Team Chick hasn't been in the SuperBowl every year for no reason.	2683516	1471989222067	1471989222266	S	83
5291	56405	Team Chick hasn't been in the SuperBowl every year for no reason.	Team Chick hasn't been in the SuperBowl every year for no reason.	2683523	1471989222282	1471989222466	u	85
5291	56405	Team Chick hasn't been in the SuperBowl every year for no reason.	Team Chick hasn't been in the SuperBowl every year for no reason.	2683532	1471989222842	1471989223034	p	80
5291	56405	Team Chick hasn't been in the SuperBowl every year for no reason.	Team Chick hasn't been in the SuperBowl every year for no reason.	2683541	1471989223019	1471989223202	e	69
5291	56405	Team Chick hasn't been in the SuperBowl every year for no reason.	Team Chick hasn't been in the SuperBowl every year for no reason.	2683548	1471989223106	1471989223314	r	82
5291	56405	Team Chick hasn't been in the SuperBowl every year for no reason.	Team Chick hasn't been in the SuperBowl every year for no reason.	2683698	1471989223258	1471989223402	 	32
5291	56405	Team Chick hasn't been in the SuperBowl every year for no reason.	Team Chick hasn't been in the SuperBowl every year for no reason.	2683703	1471989223643	1471989223810	BKSP	8
5291	56405	Team Chick hasn't been in the SuperBowl every year for no reason.	Team Chick hasn't been in the SuperBowl every year for no reason.	2683710	1471989224412	1471989224682	SHIFT	16
5291	56405	Team Chick hasn't been in the SuperBowl every year for no reason.	Team Chick hasn't been in the SuperBowl every year for no reason.	2683717	1471989224507	1471989224730	B	66
5291	56405	Team Chick hasn't been in the SuperBowl every year for no reason.	Team Chick hasn't been in the SuperBowl every year for no reason.	2683722	1471989225114	1471989225267	o	79
5291	56405	Team Chick hasn't been in the SuperBowl every year for no reason.	Team Chick hasn't been in the SuperBowl every year for no reason.	2683730	1471989225298	1471989225506	w	87
5291	56405	Team Chick hasn't been in the SuperBowl every year for no reason.	Team Chick hasn't been in the SuperBowl every year for no reason.	2683740	1471989225450	1471989225643	l	76
5291	56405	Team Chick hasn't been in the SuperBowl every year for no reason.	Team Chick hasn't been in the SuperBowl every year for no reason.	2683749	1471989225650	1471989225858	 	32
5291	56405	Team Chick hasn't been in the SuperBowl every year for no reason.	Team Chick hasn't been in the SuperBowl every year for no reason.	2683823	1471989226026	1471989226178	e	69
5291	56405	Team Chick hasn't been in the SuperBowl every year for no reason.	Team Chick hasn't been in the SuperBowl every year for no reason.	2683829	1471989226330	1471989226474	v	86
5291	56405	Team Chick hasn't been in the SuperBowl every year for no reason.	Team Chick hasn't been in the SuperBowl every year for no reason.	2683832	1471989226602	1471989226794	e	69
5291	56405	Team Chick hasn't been in the SuperBowl every year for no reason.	Team Chick hasn't been in the SuperBowl every year for no reason.	2683835	1471989226722	1471989226914	r	82
5291	56405	Team Chick hasn't been in the SuperBowl every year for no reason.	Team Chick hasn't been in the SuperBowl every year for no reason.	2683837	1471989227019	1471989227178	y	89
5291	56405	Team Chick hasn't been in the SuperBowl every year for no reason.	Team Chick hasn't been in the SuperBowl every year for no reason.	2683961	1471989227202	1471989227379	 	32
5291	56405	Team Chick hasn't been in the SuperBowl every year for no reason.	Team Chick hasn't been in the SuperBowl every year for no reason.	2683966	1471989227482	1471989227642	y	89
5291	56405	Team Chick hasn't been in the SuperBowl every year for no reason.	Team Chick hasn't been in the SuperBowl every year for no reason.	2683971	1471989227762	1471989227938	e	69
5291	56405	Team Chick hasn't been in the SuperBowl every year for no reason.	Team Chick hasn't been in the SuperBowl every year for no reason.	2683977	1471989228082	1471989228242	a	65
5291	56405	Team Chick hasn't been in the SuperBowl every year for no reason.	Team Chick hasn't been in the SuperBowl every year for no reason.	2684176	1471989228347	1471989228490	r	82
5291	56405	Team Chick hasn't been in the SuperBowl every year for no reason.	Team Chick hasn't been in the SuperBowl every year for no reason.	2683982	1471989228418	1471989228482	t	84
5291	56405	Team Chick hasn't been in the SuperBowl every year for no reason.	Team Chick hasn't been in the SuperBowl every year for no reason.	2684182	1471989228458	1471989228538	 	32
5291	56405	Team Chick hasn't been in the SuperBowl every year for no reason.	Team Chick hasn't been in the SuperBowl every year for no reason.	2684188	1471989228835	1471989228946	BKSP	8
5291	56405	Team Chick hasn't been in the SuperBowl every year for no reason.	Team Chick hasn't been in the SuperBowl every year for no reason.	2684194	1471989229026	1471989229162	BKSP	8
5291	56405	Team Chick hasn't been in the SuperBowl every year for no reason.	Team Chick hasn't been in the SuperBowl every year for no reason.	2684199	1471989229355	1471989229498	 	32
5291	56405	Team Chick hasn't been in the SuperBowl every year for no reason.	Team Chick hasn't been in the SuperBowl every year for no reason.	2684201	1471989230082	1471989230291	f	70
5291	56405	Team Chick hasn't been in the SuperBowl every year for no reason.	Team Chick hasn't been in the SuperBowl every year for no reason.	2684203	1471989230355	1471989230514	o	79
5291	56405	Team Chick hasn't been in the SuperBowl every year for no reason.	Team Chick hasn't been in the SuperBowl every year for no reason.	2684207	1471989230610	1471989230867	r	82
5291	56405	Team Chick hasn't been in the SuperBowl every year for no reason.	Team Chick hasn't been in the SuperBowl every year for no reason.	2684280	1471989230762	1471989230939	 	32
5291	56405	Team Chick hasn't been in the SuperBowl every year for no reason.	Team Chick hasn't been in the SuperBowl every year for no reason.	2684284	1471989231002	1471989231122	n	78
5291	56405	Team Chick hasn't been in the SuperBowl every year for no reason.	Team Chick hasn't been in the SuperBowl every year for no reason.	2684289	1471989231402	1471989231586	o	79
5291	56405	Team Chick hasn't been in the SuperBowl every year for no reason.	Team Chick hasn't been in the SuperBowl every year for no reason.	2684291	1471989231610	1471989231779	 	32
5291	56405	Team Chick hasn't been in the SuperBowl every year for no reason.	Team Chick hasn't been in the SuperBowl every year for no reason.	2684295	1471989231898	1471989232123	r	82
5291	56405	Team Chick hasn't been in the SuperBowl every year for no reason.	Team Chick hasn't been in the SuperBowl every year for no reason.	2684378	1471989232010	1471989232218	e	69
5291	56405	Team Chick hasn't been in the SuperBowl every year for no reason.	Team Chick hasn't been in the SuperBowl every year for no reason.	2684382	1471989232290	1471989232466	a	65
5291	56405	Team Chick hasn't been in the SuperBowl every year for no reason.	Team Chick hasn't been in the SuperBowl every year for no reason.	2684390	1471989232450	1471989232666	s	83
5291	56405	Team Chick hasn't been in the SuperBowl every year for no reason.	Team Chick hasn't been in the SuperBowl every year for no reason.	2684387	1471989232578	1471989232659	o	79
5291	56405	Team Chick hasn't been in the SuperBowl every year for no reason.	Team Chick hasn't been in the SuperBowl every year for no reason.	2684396	1471989232755	1471989232898	n	78
5291	56405	Team Chick hasn't been in the SuperBowl every year for no reason.	Team Chick hasn't been in the SuperBowl every year for no reason.	2684401	1471989233266	1471989233443	/	191
5291	56405	Team Chick hasn't been in the SuperBowl every year for no reason.	Team Chick hasn't been in the SuperBowl every year for no reason.	2684537	1471989234138	1471989234234	BKSP	8
5291	56405	Team Chick hasn't been in the SuperBowl every year for no reason.	Team Chick hasn't been in the SuperBowl every year for no reason.	2684543	1471989234491	1471989234570	.	190
5291	56447	New switches can also be added to the Paging System.	New switches can also be added to the Paging System.	2684895	1471989238539	1471989238739	SHIFT	16
5291	56447	New switches can also be added to the Paging System.	New switches can also be added to the Paging System.	2684900	1471989238650	1471989238786	N	78
5291	56447	New switches can also be added to the Paging System.	New switches can also be added to the Paging System.	2684904	1471989238875	1471989239026	e	69
5291	56447	New switches can also be added to the Paging System.	New switches can also be added to the Paging System.	2684907	1471989239146	1471989239363	w	87
5291	56447	New switches can also be added to the Paging System.	New switches can also be added to the Paging System.	2684913	1471989239266	1471989239450	 	32
5291	56447	New switches can also be added to the Paging System.	New switches can also be added to the Paging System.	2684918	1471989239586	1471989239746	s	83
5291	56447	New switches can also be added to the Paging System.	New switches can also be added to the Paging System.	2685000	1471989239970	1471989240154	w	87
5291	56447	New switches can also be added to the Paging System.	New switches can also be added to the Paging System.	2685005	1471989240522	1471989240675	i	73
5291	56447	New switches can also be added to the Paging System.	New switches can also be added to the Paging System.	2685010	1471989240746	1471989240914	t	84
5291	56447	New switches can also be added to the Paging System.	New switches can also be added to the Paging System.	2685013	1471989241226	1471989241411	c	67
5291	56447	New switches can also be added to the Paging System.	New switches can also be added to the Paging System.	2685085	1471989241346	1471989241474	h	72
5291	56447	New switches can also be added to the Paging System.	New switches can also be added to the Paging System.	2685089	1471989241538	1471989241650	e	69
5291	56447	New switches can also be added to the Paging System.	New switches can also be added to the Paging System.	2685093	1471989241771	1471989241978	s	83
5291	56447	New switches can also be added to the Paging System.	New switches can also be added to the Paging System.	2685099	1471989241938	1471989242122	 	32
5291	56447	New switches can also be added to the Paging System.	New switches can also be added to the Paging System.	2685103	1471989242194	1471989242322	c	67
5291	56447	New switches can also be added to the Paging System.	New switches can also be added to the Paging System.	2685105	1471989242379	1471989242594	a	65
5291	56447	New switches can also be added to the Paging System.	New switches can also be added to the Paging System.	2685228	1471989242522	1471989242682	n	78
5291	56447	New switches can also be added to the Paging System.	New switches can also be added to the Paging System.	2685231	1471989242650	1471989242794	 	32
5291	56447	New switches can also be added to the Paging System.	New switches can also be added to the Paging System.	2685237	1471989242858	1471989242946	s	83
5291	56447	New switches can also be added to the Paging System.	New switches can also be added to the Paging System.	2685239	1471989243530	1471989243666	BKSP	8
5291	56447	New switches can also be added to the Paging System.	New switches can also be added to the Paging System.	2685241	1471989243722	1471989243914	a	65
5291	56447	New switches can also be added to the Paging System.	New switches can also be added to the Paging System.	2685243	1471989243850	1471989243986	l	76
5291	56447	New switches can also be added to the Paging System.	New switches can also be added to the Paging System.	2685246	1471989244162	1471989244354	s	83
5291	56447	New switches can also be added to the Paging System.	New switches can also be added to the Paging System.	2685294	1471989244258	1471989244434	o	79
5291	56447	New switches can also be added to the Paging System.	New switches can also be added to the Paging System.	2685297	1471989244474	1471989244634	 	32
5291	56447	New switches can also be added to the Paging System.	New switches can also be added to the Paging System.	2685302	1471989244738	1471989244865	b	66
5291	56447	New switches can also be added to the Paging System.	New switches can also be added to the Paging System.	2685310	1471989245019	1471989245131	e	69
5291	56447	New switches can also be added to the Paging System.	New switches can also be added to the Paging System.	2685317	1471989245242	1471989245435	d	68
5291	56447	New switches can also be added to the Paging System.	New switches can also be added to the Paging System.	2685517	1471989245323	1471989245490	 	32
5291	56447	New switches can also be added to the Paging System.	New switches can also be added to the Paging System.	2685521	1471989246106	1471989246186	BKSP	8
5291	56447	New switches can also be added to the Paging System.	New switches can also be added to the Paging System.	2685526	1471989246258	1471989246402	BKSP	8
5291	56447	New switches can also be added to the Paging System.	New switches can also be added to the Paging System.	2685534	1471989246442	1471989246651	 	32
5291	56447	New switches can also be added to the Paging System.	New switches can also be added to the Paging System.	2685541	1471989246755	1471989246922	a	65
5291	56447	New switches can also be added to the Paging System.	New switches can also be added to the Paging System.	2685553	1471989247034	1471989247131	d	68
5291	56447	New switches can also be added to the Paging System.	New switches can also be added to the Paging System.	2685563	1471989247227	1471989247330	d	68
5291	56447	New switches can also be added to the Paging System.	New switches can also be added to the Paging System.	2685569	1471989247426	1471989247546	e	69
5291	56447	New switches can also be added to the Paging System.	New switches can also be added to the Paging System.	2685583	1471989247642	1471989247827	d	68
5291	56447	New switches can also be added to the Paging System.	New switches can also be added to the Paging System.	2685587	1471989247779	1471989247954	 	32
5291	56447	New switches can also be added to the Paging System.	New switches can also be added to the Paging System.	2685593	1471989247946	1471989248146	t	84
5291	56447	New switches can also be added to the Paging System.	New switches can also be added to the Paging System.	2685602	1471989248050	1471989248226	o	79
5291	56447	New switches can also be added to the Paging System.	New switches can also be added to the Paging System.	2685685	1471989248178	1471989248338	 	32
5291	56447	New switches can also be added to the Paging System.	New switches can also be added to the Paging System.	2685689	1471989248274	1471989248475	t	84
5291	56447	New switches can also be added to the Paging System.	New switches can also be added to the Paging System.	2685693	1471989248417	1471989248530	h	72
5291	56447	New switches can also be added to the Paging System.	New switches can also be added to the Paging System.	2685697	1471989248586	1471989248802	e	69
5291	56447	New switches can also be added to the Paging System.	New switches can also be added to the Paging System.	2685701	1471989248666	1471989248850	 	32
5291	56447	New switches can also be added to the Paging System.	New switches can also be added to the Paging System.	2685704	1471989248938	1471989249218	a	65
5291	56447	New switches can also be added to the Paging System.	New switches can also be added to the Paging System.	2685880	1471989249050	1471989249226	p	80
5291	56447	New switches can also be added to the Paging System.	New switches can also be added to the Paging System.	2685884	1471989249642	1471989249746	BKSP	8
5291	56447	New switches can also be added to the Paging System.	New switches can also be added to the Paging System.	2685888	1471989249802	1471989249930	BKSP	8
5291	56447	New switches can also be added to the Paging System.	New switches can also be added to the Paging System.	2685894	1471989250363	1471989250738	SHIFT	16
5291	56447	New switches can also be added to the Paging System.	New switches can also be added to the Paging System.	2685897	1471989250578	1471989250778	P	80
5291	56447	New switches can also be added to the Paging System.	New switches can also be added to the Paging System.	2685903	1471989250946	1471989251114	a	65
5291	56447	New switches can also be added to the Paging System.	New switches can also be added to the Paging System.	2685909	1471989251290	1471989251434	g	71
5291	56447	New switches can also be added to the Paging System.	New switches can also be added to the Paging System.	2685914	1471989251458	1471989251586	i	73
5291	56447	New switches can also be added to the Paging System.	New switches can also be added to the Paging System.	2685917	1471989251666	1471989251810	n	78
5291	56447	New switches can also be added to the Paging System.	New switches can also be added to the Paging System.	2686006	1471989251882	1471989252106	g	71
5291	56447	New switches can also be added to the Paging System.	New switches can also be added to the Paging System.	2686013	1471989251987	1471989252154	 	32
5291	56447	New switches can also be added to the Paging System.	New switches can also be added to the Paging System.	2686017	1471989252475	1471989252706	SHIFT	16
5291	56447	New switches can also be added to the Paging System.	New switches can also be added to the Paging System.	2686022	1471989252602	1471989252802	S	83
5291	56447	New switches can also be added to the Paging System.	New switches can also be added to the Paging System.	2686025	1471989253075	1471989253202	y	89
5291	56447	New switches can also be added to the Paging System.	New switches can also be added to the Paging System.	2686030	1471989253203	1471989253410	s	83
5291	56447	New switches can also be added to the Paging System.	New switches can also be added to the Paging System.	2686142	1471989253546	1471989253674	t	84
5291	56447	New switches can also be added to the Paging System.	New switches can also be added to the Paging System.	2686144	1471989253818	1471989253994	e	69
5291	56447	New switches can also be added to the Paging System.	New switches can also be added to the Paging System.	2686147	1471989253978	1471989254122	m	77
5291	56447	New switches can also be added to the Paging System.	New switches can also be added to the Paging System.	2686149	1471989254906	1471989254986	.	190
5291	56478	I liked your flag.	I liked your flag.	2686445	1471989257442	1471989257738	SHIFT	16
5291	56478	I liked your flag.	I liked your flag.	2686449	1471989257634	1471989257762	I	73
5291	56478	I liked your flag.	I liked your flag.	2686453	1471989257794	1471989257954	 	32
5291	56478	I liked your flag.	I liked your flag.	2686458	1471989257969	1471989258130	l	76
5291	56478	I liked your flag.	I liked your flag.	2686460	1471989258170	1471989258306	i	73
5291	56478	I liked your flag.	I liked your flag.	2686466	1471989258410	1471989258546	k	75
5291	56478	I liked your flag.	I liked your flag.	2686537	1471989258562	1471989258722	e	69
5291	56478	I liked your flag.	I liked your flag.	2686548	1471989258842	1471989259042	d	68
5291	56478	I liked your flag.	I liked your flag.	2686554	1471989258954	1471989259098	 	32
5291	56478	I liked your flag.	I liked your flag.	2686565	1471989259275	1471989259402	y	89
5291	56478	I liked your flag.	I liked your flag.	2686574	1471989259418	1471989259610	o	79
5291	56478	I liked your flag.	I liked your flag.	2686678	1471989259522	1471989259714	u	85
5291	56478	I liked your flag.	I liked your flag.	2686680	1471989259834	1471989260074	r	82
5291	56478	I liked your flag.	I liked your flag.	2686684	1471989259978	1471989260178	 	32
5291	56478	I liked your flag.	I liked your flag.	2686689	1471989260306	1471989260490	f	70
5291	56478	I liked your flag.	I liked your flag.	2686693	1471989260730	1471989260882	l	76
5291	56478	I liked your flag.	I liked your flag.	2686700	1471989260939	1471989261106	a	65
5291	56478	I liked your flag.	I liked your flag.	2686872	1471989261234	1471989261354	g	71
5291	56478	I liked your flag.	I liked your flag.	2686881	1471989261722	1471989261922	/	191
5291	56478	I liked your flag.	I liked your flag.	2686889	1471989262386	1471989262450	BKSP	8
5291	56478	I liked your flag.	I liked your flag.	2686895	1471989263242	1471989263322	.	190
5291	56493	Drop him if he was on your Fantasy roster.	Drop him if he was on your Fantasy roster	2687155	1471989266426	1471989266610	SHIFT	16
5291	56493	Drop him if he was on your Fantasy roster.	Drop him if he was on your Fantasy roster	2687159	1471989266562	1471989266722	D	68
5291	56493	Drop him if he was on your Fantasy roster.	Drop him if he was on your Fantasy roster	2687162	1471989266898	1471989267066	r	82
5291	56493	Drop him if he was on your Fantasy roster.	Drop him if he was on your Fantasy roster	2687164	1471989267410	1471989267586	o	79
5291	56493	Drop him if he was on your Fantasy roster.	Drop him if he was on your Fantasy roster	2687166	1471989267642	1471989267794	p	80
5291	56493	Drop him if he was on your Fantasy roster.	Drop him if he was on your Fantasy roster	2687268	1471989267754	1471989267914	 	32
5291	56493	Drop him if he was on your Fantasy roster.	Drop him if he was on your Fantasy roster	2687270	1471989268514	1471989268642	h	72
5291	56493	Drop him if he was on your Fantasy roster.	Drop him if he was on your Fantasy roster	2687274	1471989268674	1471989268810	i	73
5291	56493	Drop him if he was on your Fantasy roster.	Drop him if he was on your Fantasy roster	2687278	1471989268906	1471989269114	m	77
5291	56493	Drop him if he was on your Fantasy roster.	Drop him if he was on your Fantasy roster	2687282	1471989269090	1471989269258	 	32
5291	56493	Drop him if he was on your Fantasy roster.	Drop him if he was on your Fantasy roster	2687288	1471989269442	1471989269529	o	79
5291	56493	Drop him if he was on your Fantasy roster.	Drop him if he was on your Fantasy roster	2687367	1471989269842	1471989269954	BKSP	8
5291	56493	Drop him if he was on your Fantasy roster.	Drop him if he was on your Fantasy roster	2687373	1471989270185	1471989270306	i	73
5291	56493	Drop him if he was on your Fantasy roster.	Drop him if he was on your Fantasy roster	2687377	1471989270355	1471989270570	f	70
5291	56493	Drop him if he was on your Fantasy roster.	Drop him if he was on your Fantasy roster	2687381	1471989270466	1471989270626	 	32
5291	56493	Drop him if he was on your Fantasy roster.	Drop him if he was on your Fantasy roster	2687385	1471989270802	1471989270930	h	72
5291	56493	Drop him if he was on your Fantasy roster.	Drop him if he was on your Fantasy roster	2687447	1471989270874	1471989271106	e	69
5291	56493	Drop him if he was on your Fantasy roster.	Drop him if he was on your Fantasy roster	2687451	1471989271050	1471989271178	 	32
5291	56493	Drop him if he was on your Fantasy roster.	Drop him if he was on your Fantasy roster	2687455	1471989271250	1471989271434	w	87
5291	56493	Drop him if he was on your Fantasy roster.	Drop him if he was on your Fantasy roster	2687459	1471989271506	1471989271665	a	65
5291	56493	Drop him if he was on your Fantasy roster.	Drop him if he was on your Fantasy roster	2687462	1471989271586	1471989271810	s	83
5291	56493	Drop him if he was on your Fantasy roster.	Drop him if he was on your Fantasy roster	2687559	1471989271730	1471989271906	 	32
5291	56493	Drop him if he was on your Fantasy roster.	Drop him if he was on your Fantasy roster	2687563	1471989272090	1471989272218	y	89
5291	56493	Drop him if he was on your Fantasy roster.	Drop him if he was on your Fantasy roster	2687568	1471989272266	1471989272482	o	79
5291	56493	Drop him if he was on your Fantasy roster.	Drop him if he was on your Fantasy roster	2687571	1471989272370	1471989272594	u	85
5291	56493	Drop him if he was on your Fantasy roster.	Drop him if he was on your Fantasy roster	2687579	1471989273002	1471989273266	r	82
5291	56493	Drop him if he was on your Fantasy roster.	Drop him if he was on your Fantasy roster	2687694	1471989273155	1471989273314	 	32
5291	56493	Drop him if he was on your Fantasy roster.	Drop him if he was on your Fantasy roster	2687698	1471989273650	1471989273898	SHIFT	16
5291	56493	Drop him if he was on your Fantasy roster.	Drop him if he was on your Fantasy roster	2687707	1471989273770	1471989274018	F	70
5291	56493	Drop him if he was on your Fantasy roster.	Drop him if he was on your Fantasy roster	2687710	1471989274058	1471989274282	a	65
5291	56493	Drop him if he was on your Fantasy roster.	Drop him if he was on your Fantasy roster	2687715	1471989274338	1471989274498	n	78
5291	56493	Drop him if he was on your Fantasy roster.	Drop him if he was on your Fantasy roster	2687721	1471989274602	1471989274786	t	84
5291	56493	Drop him if he was on your Fantasy roster.	Drop him if he was on your Fantasy roster	2687725	1471989274802	1471989274970	a	65
5291	56493	Drop him if he was on your Fantasy roster.	Drop him if he was on your Fantasy roster	2687806	1471989275218	1471989275354	s	83
5291	56493	Drop him if he was on your Fantasy roster.	Drop him if he was on your Fantasy roster	2687811	1471989275506	1471989275650	y	89
5291	56493	Drop him if he was on your Fantasy roster.	Drop him if he was on your Fantasy roster	2687816	1471989275690	1471989275866	 	32
5291	56493	Drop him if he was on your Fantasy roster.	Drop him if he was on your Fantasy roster	2687824	1471989276074	1471989276266	r	82
5291	56493	Drop him if he was on your Fantasy roster.	Drop him if he was on your Fantasy roster	2687832	1471989276298	1471989276481	o	79
5291	56493	Drop him if he was on your Fantasy roster.	Drop him if he was on your Fantasy roster	2688234	1471989276754	1471989276922	s	83
5291	56493	Drop him if he was on your Fantasy roster.	Drop him if he was on your Fantasy roster	2688236	1471989277057	1471989277210	t	84
5291	56493	Drop him if he was on your Fantasy roster.	Drop him if he was on your Fantasy roster	2688240	1471989277322	1471989277545	e	69
5291	56493	Drop him if he was on your Fantasy roster.	Drop him if he was on your Fantasy roster	2688243	1471989277458	1471989277674	r	82
5291	56493	Drop him if he was on your Fantasy roster.	Drop him if he was on your Fantasy roster	2688245	1471989281610	1471989281698	o	79
5291	56493	Drop him if he was on your Fantasy roster.	Drop him if he was on your Fantasy roster	2688306	1471989281906	1471989282002	n	78
5291	56493	Drop him if he was on your Fantasy roster.	Drop him if he was on your Fantasy roster	2688311	1471989282122	1471989282258	 	32
5291	56524	I have some more data coming.	I have some more data coming.	2688504	1471989285098	1471989285322	SHIFT	16
5291	56524	I have some more data coming.	I have some more data coming.	2688507	1471989285250	1471989285346	I	73
5291	56524	I have some more data coming.	I have some more data coming.	2688510	1471989285402	1471989285570	 	32
5291	56524	I have some more data coming.	I have some more data coming.	2688516	1471989285698	1471989285858	h	72
5291	56524	I have some more data coming.	I have some more data coming.	2688520	1471989285826	1471989285978	a	65
5291	56524	I have some more data coming.	I have some more data coming.	2688525	1471989286170	1471989286306	v	86
5291	56524	I have some more data coming.	I have some more data coming.	2688553	1471989286410	1471989286594	e	69
5291	56524	I have some more data coming.	I have some more data coming.	2688557	1471989286489	1471989286649	 	32
5291	56524	I have some more data coming.	I have some more data coming.	2688560	1471989286705	1471989286898	s	83
5291	56524	I have some more data coming.	I have some more data coming.	2688565	1471989286794	1471989286945	o	79
5291	56524	I have some more data coming.	I have some more data coming.	2688570	1471989287018	1471989287169	m	77
5291	56524	I have some more data coming.	I have some more data coming.	2688603	1471989287082	1471989287298	e	69
5291	56524	I have some more data coming.	I have some more data coming.	2688605	1471989287234	1471989287378	 	32
5291	56524	I have some more data coming.	I have some more data coming.	2688609	1471989287610	1471989287738	m	77
5291	56524	I have some more data coming.	I have some more data coming.	2688613	1471989287818	1471989287970	o	79
5291	56524	I have some more data coming.	I have some more data coming.	2688622	1471989287938	1471989288178	r	82
5291	56524	I have some more data coming.	I have some more data coming.	2688715	1471989288065	1471989288314	e	69
5291	56524	I have some more data coming.	I have some more data coming.	2688721	1471989288162	1471989288361	 	32
5291	56524	I have some more data coming.	I have some more data coming.	2688727	1471989288538	1471989288698	d	68
5291	56524	I have some more data coming.	I have some more data coming.	2688732	1471989288882	1471989289146	a	65
5291	56524	I have some more data coming.	I have some more data coming.	2688740	1471989289330	1471989289506	t	84
5291	56524	I have some more data coming.	I have some more data coming.	2688741	1471989289594	1471989289810	a	65
5291	56524	I have some more data coming.	I have some more data coming.	2688786	1471989289762	1471989289913	 	32
5291	56524	I have some more data coming.	I have some more data coming.	2688793	1471989289994	1471989290178	c	67
5291	56524	I have some more data coming.	I have some more data coming.	2688802	1471989290106	1471989290241	o	79
5291	56524	I have some more data coming.	I have some more data coming.	2688808	1471989290322	1471989290466	m	77
5291	56524	I have some more data coming.	I have some more data coming.	2688814	1471989290498	1471989290633	i	73
5291	56524	I have some more data coming.	I have some more data coming.	2688816	1471989290674	1471989290833	n	78
5291	56524	I have some more data coming.	I have some more data coming.	2688942	1471989290898	1471989291074	g	71
5291	56524	I have some more data coming.	I have some more data coming.	2688944	1471989291442	1471989291618	/	191
5291	56524	I have some more data coming.	I have some more data coming.	2688948	1471989291906	1471989292010	BKSP	8
5291	56524	I have some more data coming.	I have some more data coming.	2688951	1471989292682	1471989292769	.	190
5291	56537	See what concerts we have for you in your city.	See what concerts we have for you in your city.	2689139	1471989295466	1471989295673	SHIFT	16
5291	56537	See what concerts we have for you in your city.	See what concerts we have for you in your city.	2689142	1471989295626	1471989295778	S	83
5291	56537	See what concerts we have for you in your city.	See what concerts we have for you in your city.	2689146	1471989295890	1471989295978	e	69
5291	56537	See what concerts we have for you in your city.	See what concerts we have for you in your city.	2689149	1471989296074	1471989296242	e	69
5291	56537	See what concerts we have for you in your city.	See what concerts we have for you in your city.	2689152	1471989296218	1471989296394	 	32
5291	56537	See what concerts we have for you in your city.	See what concerts we have for you in your city.	2689209	1471989296370	1471989296570	w	87
5291	56537	See what concerts we have for you in your city.	See what concerts we have for you in your city.	2689212	1471989296522	1471989296674	h	72
5291	56537	See what concerts we have for you in your city.	See what concerts we have for you in your city.	2689215	1471989296722	1471989296842	a	65
5291	56537	See what concerts we have for you in your city.	See what concerts we have for you in your city.	2689219	1471989296946	1471989297113	t	84
5291	56537	See what concerts we have for you in your city.	See what concerts we have for you in your city.	2689224	1471989297034	1471989297210	 	32
5291	56537	See what concerts we have for you in your city.	See what concerts we have for you in your city.	2689228	1471989297306	1471989297489	c	67
5291	56537	See what concerts we have for you in your city.	See what concerts we have for you in your city.	2689291	1471989297410	1471989297514	o	79
5291	56537	See what concerts we have for you in your city.	See what concerts we have for you in your city.	2689294	1471989297610	1471989297762	n	78
5291	56537	See what concerts we have for you in your city.	See what concerts we have for you in your city.	2689296	1471989297818	1471989297962	c	67
5291	56537	See what concerts we have for you in your city.	See what concerts we have for you in your city.	2689300	1471989298122	1471989298338	e	69
5291	56537	See what concerts we have for you in your city.	See what concerts we have for you in your city.	2689302	1471989298257	1471989298458	r	82
5291	56537	See what concerts we have for you in your city.	See what concerts we have for you in your city.	2689306	1471989298706	1471989298850	t	84
5291	56537	See what concerts we have for you in your city.	See what concerts we have for you in your city.	2689366	1471989298970	1471989299210	s	83
5291	56537	See what concerts we have for you in your city.	See what concerts we have for you in your city.	2689368	1471989299122	1471989299282	 	32
5291	56537	See what concerts we have for you in your city.	See what concerts we have for you in your city.	2689371	1471989299378	1471989299554	w	87
5291	56537	See what concerts we have for you in your city.	See what concerts we have for you in your city.	2689373	1471989299601	1471989299826	e	69
5291	56537	See what concerts we have for you in your city.	See what concerts we have for you in your city.	2689441	1471989299730	1471989299898	 	32
5291	56537	See what concerts we have for you in your city.	See what concerts we have for you in your city.	2689443	1471989299977	1471989300130	h	72
5291	56537	See what concerts we have for you in your city.	See what concerts we have for you in your city.	2689447	1471989300121	1471989300273	a	65
5291	56537	See what concerts we have for you in your city.	See what concerts we have for you in your city.	2689452	1471989300409	1471989300522	v	86
5291	56537	See what concerts we have for you in your city.	See what concerts we have for you in your city.	2689458	1471989300658	1471989300874	e	69
5291	56537	See what concerts we have for you in your city.	See what concerts we have for you in your city.	2689506	1471989300745	1471989300906	 	32
5291	56537	See what concerts we have for you in your city.	See what concerts we have for you in your city.	2689508	1471989301042	1471989301210	f	70
5291	56537	See what concerts we have for you in your city.	See what concerts we have for you in your city.	2689512	1471989301170	1471989301346	o	79
5291	56537	See what concerts we have for you in your city.	See what concerts we have for you in your city.	2689516	1471989301321	1471989301546	r	82
5291	56537	See what concerts we have for you in your city.	See what concerts we have for you in your city.	2689519	1471989301458	1471989301610	 	32
5291	56537	See what concerts we have for you in your city.	See what concerts we have for you in your city.	2689521	1471989301681	1471989301809	y	89
5291	56537	See what concerts we have for you in your city.	See what concerts we have for you in your city.	2689553	1471989301825	1471989302018	o	79
5291	56537	See what concerts we have for you in your city.	See what concerts we have for you in your city.	2689556	1471989301938	1471989302138	u	85
5291	56537	See what concerts we have for you in your city.	See what concerts we have for you in your city.	2689560	1471989302082	1471989302274	 	32
5291	56537	See what concerts we have for you in your city.	See what concerts we have for you in your city.	2689567	1471989302290	1471989302417	i	73
5291	56537	See what concerts we have for you in your city.	See what concerts we have for you in your city.	2689573	1471989302466	1471989302642	n	78
5291	56537	See what concerts we have for you in your city.	See what concerts we have for you in your city.	2689627	1471989302577	1471989302770	 	32
5291	56537	See what concerts we have for you in your city.	See what concerts we have for you in your city.	2689632	1471989302866	1471989302994	y	89
5291	56537	See what concerts we have for you in your city.	See what concerts we have for you in your city.	2689640	1471989303034	1471989303202	o	79
5291	56537	See what concerts we have for you in your city.	See what concerts we have for you in your city.	2689648	1471989303130	1471989303338	u	85
5291	56537	See what concerts we have for you in your city.	See what concerts we have for you in your city.	2689658	1471989303354	1471989303585	r	82
5291	56537	See what concerts we have for you in your city.	See what concerts we have for you in your city.	2689756	1471989303465	1471989303658	 	32
5291	56537	See what concerts we have for you in your city.	See what concerts we have for you in your city.	2689762	1471989303745	1471989303938	c	67
5291	56537	See what concerts we have for you in your city.	See what concerts we have for you in your city.	2689769	1471989303817	1471989303985	i	73
5291	56537	See what concerts we have for you in your city.	See what concerts we have for you in your city.	2689776	1471989304082	1471989304274	t	84
5291	56537	See what concerts we have for you in your city.	See what concerts we have for you in your city.	2689781	1471989304306	1471989304474	y	89
5291	56537	See what concerts we have for you in your city.	See what concerts we have for you in your city.	2689787	1471989305082	1471989305170	.	190
5291	56550	She was going to leave at 8 or 9.	She was going to leave at 8 or 9.	2690026	1471989307618	1471989307818	SHIFT	16
5291	56550	She was going to leave at 8 or 9.	She was going to leave at 8 or 9.	2690029	1471989307794	1471989307978	S	83
5291	56550	She was going to leave at 8 or 9.	She was going to leave at 8 or 9.	2690031	1471989308210	1471989308346	h	72
5291	56550	She was going to leave at 8 or 9.	She was going to leave at 8 or 9.	2690036	1471989308361	1471989308562	e	69
5291	56550	She was going to leave at 8 or 9.	She was going to leave at 8 or 9.	2690041	1471989308482	1471989308618	 	32
5291	56550	She was going to leave at 8 or 9.	She was going to leave at 8 or 9.	2690045	1471989308713	1471989308865	w	87
5291	56550	She was going to leave at 8 or 9.	She was going to leave at 8 or 9.	2690065	1471989308946	1471989309129	a	65
5291	56550	She was going to leave at 8 or 9.	She was going to leave at 8 or 9.	2690067	1471989309042	1471989309242	s	83
5291	56550	She was going to leave at 8 or 9.	She was going to leave at 8 or 9.	2690068	1471989309106	1471989309289	 	32
5291	56550	She was going to leave at 8 or 9.	She was going to leave at 8 or 9.	2690071	1471989309418	1471989309586	g	71
5291	56550	She was going to leave at 8 or 9.	She was going to leave at 8 or 9.	2690129	1471989309529	1471989309682	o	79
5291	56550	She was going to leave at 8 or 9.	She was going to leave at 8 or 9.	2690132	1471989309786	1471989309883	i	73
5291	56550	She was going to leave at 8 or 9.	She was going to leave at 8 or 9.	2690136	1471989310018	1471989310138	n	78
5291	56550	She was going to leave at 8 or 9.	She was going to leave at 8 or 9.	2690138	1471989310153	1471989310362	g	71
5291	56550	She was going to leave at 8 or 9.	She was going to leave at 8 or 9.	2690141	1471989310322	1471989310450	 	32
5291	56550	She was going to leave at 8 or 9.	She was going to leave at 8 or 9.	2690145	1471989310506	1471989310722	t	84
5291	56550	She was going to leave at 8 or 9.	She was going to leave at 8 or 9.	2690181	1471989310625	1471989310833	o	79
5291	56550	She was going to leave at 8 or 9.	She was going to leave at 8 or 9.	2690182	1471989310753	1471989310953	 	32
5291	56550	She was going to leave at 8 or 9.	She was going to leave at 8 or 9.	2690183	1471989311450	1471989311609	l	76
5291	56550	She was going to leave at 8 or 9.	She was going to leave at 8 or 9.	2690184	1471989311586	1471989311746	e	69
5291	56550	She was going to leave at 8 or 9.	She was going to leave at 8 or 9.	2690185	1471989311826	1471989312026	a	65
5291	56550	She was going to leave at 8 or 9.	She was going to leave at 8 or 9.	2690187	1471989312153	1471989312297	v	86
5291	56550	She was going to leave at 8 or 9.	She was going to leave at 8 or 9.	2690225	1471989312425	1471989312641	e	69
5291	56550	She was going to leave at 8 or 9.	She was going to leave at 8 or 9.	2690229	1471989312569	1471989312761	 	32
5291	56550	She was going to leave at 8 or 9.	She was going to leave at 8 or 9.	2690234	1471989312809	1471989312976	a	65
5291	56550	She was going to leave at 8 or 9.	She was going to leave at 8 or 9.	2690238	1471989313072	1471989313297	t	84
5291	56550	She was going to leave at 8 or 9.	She was going to leave at 8 or 9.	2690341	1471989313177	1471989313368	 	32
5291	56550	She was going to leave at 8 or 9.	She was going to leave at 8 or 9.	2690345	1471989313960	1471989314081	8	56
5291	56550	She was going to leave at 8 or 9.	She was going to leave at 8 or 9.	2690349	1471989314185	1471989314369	 	32
5291	56550	She was going to leave at 8 or 9.	She was going to leave at 8 or 9.	2690355	1471989314633	1471989314801	o	79
5291	56550	She was going to leave at 8 or 9.	She was going to leave at 8 or 9.	2690359	1471989314816	1471989315016	r	82
5291	56550	She was going to leave at 8 or 9.	She was going to leave at 8 or 9.	2690511	1471989314945	1471989315128	 	32
5291	56550	She was going to leave at 8 or 9.	She was going to leave at 8 or 9.	2690514	1471989315265	1471989315433	9	57
5291	56550	She was going to leave at 8 or 9.	She was going to leave at 8 or 9.	2690522	1471989315928	1471989316080	\	220
5291	56550	She was going to leave at 8 or 9.	She was going to leave at 8 or 9.	2690526	1471989316977	1471989317081	BKSP	8
5291	56550	She was going to leave at 8 or 9.	She was going to leave at 8 or 9.	2690533	1471989317408	1471989317497	.	190
