PARTICIPANT_ID	TEST_SECTION_ID	SENTENCE	USER_INPUT	KEYSTROKE_ID	PRESS_TIME	RELEASE_TIME	LETTER	KEYCODE
5326	56602	He also ruled out extending the safe areas.	He also ruled out extending the safe areas.	2692241	1471989337126	1471989337412	SHIFT	16
5326	56602	He also ruled out extending the safe areas.	He also ruled out extending the safe areas.	2692245	1471989337345	1471989337474	H	72
5326	56602	He also ruled out extending the safe areas.	He also ruled out extending the safe areas.	2692250	1471989337553	1471989337687	e	69
5326	56602	He also ruled out extending the safe areas.	He also ruled out extending the safe areas.	2692256	1471989337734	1471989337873	 	32
5326	56602	He also ruled out extending the safe areas.	He also ruled out extending the safe areas.	2692262	1471989338131	1471989338256	a	65
5326	56602	He also ruled out extending the safe areas.	He also ruled out extending the safe areas.	2692267	1471989338350	1471989338476	l	76
5326	56602	He also ruled out extending the safe areas.	He also ruled out extending the safe areas.	2692318	1471989338564	1471989338737	s	83
5326	56602	He also ruled out extending the safe areas.	He also ruled out extending the safe areas.	2692320	1471989338862	1471989339004	o	79
5326	56602	He also ruled out extending the safe areas.	He also ruled out extending the safe areas.	2692325	1471989339176	1471989339295	 	32
5326	56602	He also ruled out extending the safe areas.	He also ruled out extending the safe areas.	2692329	1471989339493	1471989339639	r	82
5326	56602	He also ruled out extending the safe areas.	He also ruled out extending the safe areas.	2692335	1471989339733	1471989339841	u	85
5326	56602	He also ruled out extending the safe areas.	He also ruled out extending the safe areas.	2692373	1471989340031	1471989340199	l	76
5326	56602	He also ruled out extending the safe areas.	He also ruled out extending the safe areas.	2692375	1471989340158	1471989340274	e	69
5326	56602	He also ruled out extending the safe areas.	He also ruled out extending the safe areas.	2692380	1471989340461	1471989340559	d	68
5326	56602	He also ruled out extending the safe areas.	He also ruled out extending the safe areas.	2692383	1471989340793	1471989340923	 	32
5326	56602	He also ruled out extending the safe areas.	He also ruled out extending the safe areas.	2692387	1471989341096	1471989341236	o	79
5326	56602	He also ruled out extending the safe areas.	He also ruled out extending the safe areas.	2692490	1471989341352	1471989341488	u	85
5326	56602	He also ruled out extending the safe areas.	He also ruled out extending the safe areas.	2692492	1471989341754	1471989341912	t	84
5326	56602	He also ruled out extending the safe areas.	He also ruled out extending the safe areas.	2692497	1471989342108	1471989342271	 	32
5326	56602	He also ruled out extending the safe areas.	He also ruled out extending the safe areas.	2692502	1471989343619	1471989343723	e	69
5326	56602	He also ruled out extending the safe areas.	He also ruled out extending the safe areas.	2692507	1471989343895	1471989344021	x	88
5326	56602	He also ruled out extending the safe areas.	He also ruled out extending the safe areas.	2692549	1471989344134	1471989344225	t	84
5326	56602	He also ruled out extending the safe areas.	He also ruled out extending the safe areas.	2692551	1471989344303	1471989344456	e	69
5326	56602	He also ruled out extending the safe areas.	He also ruled out extending the safe areas.	2692553	1471989344488	1471989344577	n	78
5326	56602	He also ruled out extending the safe areas.	He also ruled out extending the safe areas.	2692555	1471989344694	1471989344869	d	68
5326	56602	He also ruled out extending the safe areas.	He also ruled out extending the safe areas.	2692557	1471989344869	1471989344991	i	73
5326	56602	He also ruled out extending the safe areas.	He also ruled out extending the safe areas.	2692618	1471989345112	1471989345254	n	78
5326	56602	He also ruled out extending the safe areas.	He also ruled out extending the safe areas.	2692621	1471989345347	1471989345488	g	71
5326	56602	He also ruled out extending the safe areas.	He also ruled out extending the safe areas.	2692623	1471989345732	1471989345902	 	32
5326	56602	He also ruled out extending the safe areas.	He also ruled out extending the safe areas.	2692625	1471989345995	1471989346106	t	84
5326	56602	He also ruled out extending the safe areas.	He also ruled out extending the safe areas.	2692629	1471989346199	1471989346339	h	72
5326	56602	He also ruled out extending the safe areas.	He also ruled out extending the safe areas.	2692657	1471989346395	1471989346520	e	69
5326	56602	He also ruled out extending the safe areas.	He also ruled out extending the safe areas.	2692664	1471989346551	1471989346686	 	32
5326	56602	He also ruled out extending the safe areas.	He also ruled out extending the safe areas.	2692669	1471989346757	1471989346957	s	83
5326	56602	He also ruled out extending the safe areas.	He also ruled out extending the safe areas.	2692673	1471989346889	1471989347082	a	65
5326	56602	He also ruled out extending the safe areas.	He also ruled out extending the safe areas.	2692679	1471989347254	1471989347375	f	70
5326	56602	He also ruled out extending the safe areas.	He also ruled out extending the safe areas.	2692762	1471989347428	1471989347554	e	69
5326	56602	He also ruled out extending the safe areas.	He also ruled out extending the safe areas.	2692764	1471989347586	1471989347739	 	32
5326	56602	He also ruled out extending the safe areas.	He also ruled out extending the safe areas.	2692766	1471989348015	1471989348091	r	82
5326	56602	He also ruled out extending the safe areas.	He also ruled out extending the safe areas.	2692768	1471989348626	1471989348726	BKSP	8
5326	56602	He also ruled out extending the safe areas.	He also ruled out extending the safe areas.	2692772	1471989349070	1471989349143	a	65
5326	56602	He also ruled out extending the safe areas.	He also ruled out extending the safe areas.	2692777	1471989349518	1471989349684	e	69
5326	56602	He also ruled out extending the safe areas.	He also ruled out extending the safe areas.	2692862	1471989350109	1471989350253	BKSP	8
5326	56602	He also ruled out extending the safe areas.	He also ruled out extending the safe areas.	2692866	1471989350284	1471989350393	r	82
5326	56602	He also ruled out extending the safe areas.	He also ruled out extending the safe areas.	2692869	1471989350343	1471989350518	e	69
5326	56602	He also ruled out extending the safe areas.	He also ruled out extending the safe areas.	2692874	1471989350565	1471989350759	a	65
5326	56602	He also ruled out extending the safe areas.	He also ruled out extending the safe areas.	2692879	1471989350733	1471989350853	s	83
5326	56602	He also ruled out extending the safe areas.	He also ruled out extending the safe areas.	2692882	1471989351560	1471989351719	.	190
5326	56621	OK to make changes, change out original.	OK to make changes, change out original.	2693206	1471989356164	1471989357902	SHIFT	16
5326	56621	OK to make changes, change out original.	OK to make changes, change out original.	2693201	1471989357044	1471989357201	O	79
5326	56621	OK to make changes, change out original.	OK to make changes, change out original.	2693203	1471989357529	1471989357699	K	75
5326	56621	OK to make changes, change out original.	OK to make changes, change out original.	2693209	1471989358201	1471989358351	 	32
5326	56621	OK to make changes, change out original.	OK to make changes, change out original.	2693212	1471989358523	1471989358653	t	84
5326	56621	OK to make changes, change out original.	OK to make changes, change out original.	2693215	1471989358668	1471989358790	o	79
5326	56621	OK to make changes, change out original.	OK to make changes, change out original.	2693260	1471989358753	1471989358905	 	32
5326	56621	OK to make changes, change out original.	OK to make changes, change out original.	2693262	1471989358897	1471989359064	m	77
5326	56621	OK to make changes, change out original.	OK to make changes, change out original.	2693266	1471989359096	1471989359265	a	65
5326	56621	OK to make changes, change out original.	OK to make changes, change out original.	2693269	1471989359328	1471989359484	k	75
5326	56621	OK to make changes, change out original.	OK to make changes, change out original.	2693272	1471989359797	1471989359905	e	69
5326	56621	OK to make changes, change out original.	OK to make changes, change out original.	2693275	1471989360092	1471989360232	 	32
5326	56621	OK to make changes, change out original.	OK to make changes, change out original.	2693314	1471989360349	1471989360500	c	67
5326	56621	OK to make changes, change out original.	OK to make changes, change out original.	2693318	1471989360562	1471989360656	h	72
5326	56621	OK to make changes, change out original.	OK to make changes, change out original.	2693321	1471989360735	1471989360858	a	65
5326	56621	OK to make changes, change out original.	OK to make changes, change out original.	2693326	1471989360835	1471989360985	n	78
5326	56621	OK to make changes, change out original.	OK to make changes, change out original.	2693332	1471989361125	1471989361234	g	71
5326	56621	OK to make changes, change out original.	OK to make changes, change out original.	2693401	1471989361301	1471989361413	e	69
5326	56621	OK to make changes, change out original.	OK to make changes, change out original.	2693403	1471989361883	1471989361986	s	83
5326	56621	OK to make changes, change out original.	OK to make changes, change out original.	2693405	1471989362236	1471989362382	,	188
5326	56621	OK to make changes, change out original.	OK to make changes, change out original.	2693407	1471989362444	1471989362582	 	32
5326	56621	OK to make changes, change out original.	OK to make changes, change out original.	2693408	1471989362895	1471989363033	c	67
5326	56621	OK to make changes, change out original.	OK to make changes, change out original.	2693454	1471989363138	1471989363223	h	72
5326	56621	OK to make changes, change out original.	OK to make changes, change out original.	2693455	1471989363301	1471989363466	a	65
5326	56621	OK to make changes, change out original.	OK to make changes, change out original.	2693456	1471989363482	1471989363616	n	78
5326	56621	OK to make changes, change out original.	OK to make changes, change out original.	2693457	1471989363910	1471989364052	g	71
5326	56621	OK to make changes, change out original.	OK to make changes, change out original.	2693459	1471989364333	1471989364436	e	69
5326	56621	OK to make changes, change out original.	OK to make changes, change out original.	2693532	1471989364549	1471989364638	 	32
5326	56621	OK to make changes, change out original.	OK to make changes, change out original.	2693533	1471989365028	1471989365166	o	79
5326	56621	OK to make changes, change out original.	OK to make changes, change out original.	2693534	1471989365353	1471989365484	u	85
5326	56621	OK to make changes, change out original.	OK to make changes, change out original.	2693536	1471989365625	1471989365751	t	84
5326	56621	OK to make changes, change out original.	OK to make changes, change out original.	2693538	1471989365830	1471989365905	 	32
5326	56621	OK to make changes, change out original.	OK to make changes, change out original.	2693616	1471989366134	1471989366284	p	80
5326	56621	OK to make changes, change out original.	OK to make changes, change out original.	2693618	1471989366754	1471989366818	BKSP	8
5326	56621	OK to make changes, change out original.	OK to make changes, change out original.	2693620	1471989367586	1471989367703	o	79
5326	56621	OK to make changes, change out original.	OK to make changes, change out original.	2693621	1471989367844	1471989367968	r	82
5326	56621	OK to make changes, change out original.	OK to make changes, change out original.	2693622	1471989368061	1471989368169	i	73
5326	56621	OK to make changes, change out original.	OK to make changes, change out original.	2693623	1471989368216	1471989368334	g	71
5326	56621	OK to make changes, change out original.	OK to make changes, change out original.	2693666	1471989368302	1471989368448	i	73
5326	56621	OK to make changes, change out original.	OK to make changes, change out original.	2693667	1471989368479	1471989368585	n	78
5326	56621	OK to make changes, change out original.	OK to make changes, change out original.	2693668	1471989368617	1471989368797	a	65
5326	56621	OK to make changes, change out original.	OK to make changes, change out original.	2693669	1471989368860	1471989368954	l	76
5326	56621	OK to make changes, change out original.	OK to make changes, change out original.	2693670	1471989369767	1471989369837	.	190
5326	56635	If the Penskes have any luck at all, they could be unstoppable.	If the Penskes have any luck at all, they could be unstoppable.	2693868	1471989372512	1471989373017	SHIFT	16
5326	56635	If the Penskes have any luck at all, they could be unstoppable.	If the Penskes have any luck at all, they could be unstoppable.	2693864	1471989372902	1471989373017	I	73
5326	56635	If the Penskes have any luck at all, they could be unstoppable.	If the Penskes have any luck at all, they could be unstoppable.	2693870	1471989373376	1471989373468	f	70
5326	56635	If the Penskes have any luck at all, they could be unstoppable.	If the Penskes have any luck at all, they could be unstoppable.	2693872	1471989373718	1471989373848	 	32
5326	56635	If the Penskes have any luck at all, they could be unstoppable.	If the Penskes have any luck at all, they could be unstoppable.	2693874	1471989374165	1471989374267	t	84
5326	56635	If the Penskes have any luck at all, they could be unstoppable.	If the Penskes have any luck at all, they could be unstoppable.	2693876	1471989374439	1471989374582	h	72
5326	56635	If the Penskes have any luck at all, they could be unstoppable.	If the Penskes have any luck at all, they could be unstoppable.	2693967	1471989374676	1471989374785	e	69
5326	56635	If the Penskes have any luck at all, they could be unstoppable.	If the Penskes have any luck at all, they could be unstoppable.	2693972	1471989374848	1471989374982	 	32
5326	56635	If the Penskes have any luck at all, they could be unstoppable.	If the Penskes have any luck at all, they could be unstoppable.	2693974	1471989375638	1471989376036	SHIFT	16
5326	56635	If the Penskes have any luck at all, they could be unstoppable.	If the Penskes have any luck at all, they could be unstoppable.	2693978	1471989375987	1471989376099	P	80
5326	56635	If the Penskes have any luck at all, they could be unstoppable.	If the Penskes have any luck at all, they could be unstoppable.	2693981	1471989376333	1471989376481	e	69
5326	56635	If the Penskes have any luck at all, they could be unstoppable.	If the Penskes have any luck at all, they could be unstoppable.	2693984	1471989376825	1471989377011	n	78
5326	56635	If the Penskes have any luck at all, they could be unstoppable.	If the Penskes have any luck at all, they could be unstoppable.	2694040	1471989377405	1471989377517	s	83
5326	56635	If the Penskes have any luck at all, they could be unstoppable.	If the Penskes have any luck at all, they could be unstoppable.	2694044	1471989377689	1471989377847	k	75
5326	56635	If the Penskes have any luck at all, they could be unstoppable.	If the Penskes have any luck at all, they could be unstoppable.	2694047	1471989377894	1471989378033	e	69
5326	56635	If the Penskes have any luck at all, they could be unstoppable.	If the Penskes have any luck at all, they could be unstoppable.	2694049	1471989378189	1471989378347	s	83
5326	56635	If the Penskes have any luck at all, they could be unstoppable.	If the Penskes have any luck at all, they could be unstoppable.	2694051	1471989378485	1471989378646	 	32
5326	56635	If the Penskes have any luck at all, they could be unstoppable.	If the Penskes have any luck at all, they could be unstoppable.	2694077	1471989378740	1471989378879	h	72
5326	56635	If the Penskes have any luck at all, they could be unstoppable.	If the Penskes have any luck at all, they could be unstoppable.	2694079	1471989378895	1471989379047	a	65
5326	56635	If the Penskes have any luck at all, they could be unstoppable.	If the Penskes have any luck at all, they could be unstoppable.	2694081	1471989379110	1471989379232	v	86
5326	56635	If the Penskes have any luck at all, they could be unstoppable.	If the Penskes have any luck at all, they could be unstoppable.	2694083	1471989379318	1471989379447	e	69
5326	56635	If the Penskes have any luck at all, they could be unstoppable.	If the Penskes have any luck at all, they could be unstoppable.	2694085	1471989379510	1471989379648	 	32
5326	56635	If the Penskes have any luck at all, they could be unstoppable.	If the Penskes have any luck at all, they could be unstoppable.	2694126	1471989379664	1471989379812	a	65
5326	56635	If the Penskes have any luck at all, they could be unstoppable.	If the Penskes have any luck at all, they could be unstoppable.	2694128	1471989379858	1471989379982	n	78
5326	56635	If the Penskes have any luck at all, they could be unstoppable.	If the Penskes have any luck at all, they could be unstoppable.	2694131	1471989380138	1471989380262	y	89
5326	56635	If the Penskes have any luck at all, they could be unstoppable.	If the Penskes have any luck at all, they could be unstoppable.	2694134	1471989380576	1471989380697	 	32
5326	56635	If the Penskes have any luck at all, they could be unstoppable.	If the Penskes have any luck at all, they could be unstoppable.	2694138	1471989380775	1471989380899	l	76
5326	56635	If the Penskes have any luck at all, they could be unstoppable.	If the Penskes have any luck at all, they could be unstoppable.	2694213	1471989381066	1471989381182	u	85
5326	56635	If the Penskes have any luck at all, they could be unstoppable.	If the Penskes have any luck at all, they could be unstoppable.	2694215	1471989381385	1471989381529	c	67
5326	56635	If the Penskes have any luck at all, they could be unstoppable.	If the Penskes have any luck at all, they could be unstoppable.	2694217	1471989381604	1471989381762	k	75
5326	56635	If the Penskes have any luck at all, they could be unstoppable.	If the Penskes have any luck at all, they could be unstoppable.	2694219	1471989382074	1471989382179	 	32
5326	56635	If the Penskes have any luck at all, they could be unstoppable.	If the Penskes have any luck at all, they could be unstoppable.	2694222	1471989382382	1471989382529	a	65
5326	56635	If the Penskes have any luck at all, they could be unstoppable.	If the Penskes have any luck at all, they could be unstoppable.	2694271	1471989382652	1471989382735	t	84
5326	56635	If the Penskes have any luck at all, they could be unstoppable.	If the Penskes have any luck at all, they could be unstoppable.	2694274	1471989382875	1471989382984	 	32
5326	56635	If the Penskes have any luck at all, they could be unstoppable.	If the Penskes have any luck at all, they could be unstoppable.	2694278	1471989383077	1471989383228	a	65
5326	56635	If the Penskes have any luck at all, they could be unstoppable.	If the Penskes have any luck at all, they could be unstoppable.	2694280	1471989383400	1471989383498	l	76
5326	56635	If the Penskes have any luck at all, they could be unstoppable.	If the Penskes have any luck at all, they could be unstoppable.	2694282	1471989383733	1471989383834	l	76
5326	56635	If the Penskes have any luck at all, they could be unstoppable.	If the Penskes have any luck at all, they could be unstoppable.	2694307	1471989384238	1471989384377	,	188
5326	56635	If the Penskes have any luck at all, they could be unstoppable.	If the Penskes have any luck at all, they could be unstoppable.	2694309	1471989384367	1471989384511	 	32
5326	56635	If the Penskes have any luck at all, they could be unstoppable.	If the Penskes have any luck at all, they could be unstoppable.	2694312	1471989384698	1471989384778	g	84
5326	56635	If the Penskes have any luck at all, they could be unstoppable.	If the Penskes have any luck at all, they could be unstoppable.	2694314	1471989384879	1471989384982	h	72
5326	56635	If the Penskes have any luck at all, they could be unstoppable.	If the Penskes have any luck at all, they could be unstoppable.	2694415	1471989385061	1471989385181	e	69
5326	56635	If the Penskes have any luck at all, they could be unstoppable.	If the Penskes have any luck at all, they could be unstoppable.	2694419	1471989385252	1471989385348	y	89
5326	56635	If the Penskes have any luck at all, they could be unstoppable.	If the Penskes have any luck at all, they could be unstoppable.	2694424	1471989385739	1471989385847	BKSP	8
5326	56635	If the Penskes have any luck at all, they could be unstoppable.	If the Penskes have any luck at all, they could be unstoppable.	2694430	1471989385909	1471989386000	BKSP	8
5326	56635	If the Penskes have any luck at all, they could be unstoppable.	If the Penskes have any luck at all, they could be unstoppable.	2694436	1471989386063	1471989386148	BKSP	8
5326	56635	If the Penskes have any luck at all, they could be unstoppable.	If the Penskes have any luck at all, they could be unstoppable.	2694442	1471989386382	1471989386466	BKSP	8
5326	56635	If the Penskes have any luck at all, they could be unstoppable.	If the Penskes have any luck at all, they could be unstoppable.	2694445	1471989386856	1471989386934	h	72
5326	56635	If the Penskes have any luck at all, they could be unstoppable.	If the Penskes have any luck at all, they could be unstoppable.	2694447	1471989387091	1471989387198	e	69
5326	56635	If the Penskes have any luck at all, they could be unstoppable.	If the Penskes have any luck at all, they could be unstoppable.	2694449	1471989388328	1471989388430	y	89
5326	56635	If the Penskes have any luck at all, they could be unstoppable.	If the Penskes have any luck at all, they could be unstoppable.	2694491	1471989388482	1471989388615	 	32
5326	56635	If the Penskes have any luck at all, they could be unstoppable.	If the Penskes have any luck at all, they could be unstoppable.	2694494	1471989388802	1471989388928	c	67
5326	56635	If the Penskes have any luck at all, they could be unstoppable.	If the Penskes have any luck at all, they could be unstoppable.	2694497	1471989389240	1471989389365	o	79
5326	56635	If the Penskes have any luck at all, they could be unstoppable.	If the Penskes have any luck at all, they could be unstoppable.	2694500	1471989389577	1471989389679	u	85
5326	56635	If the Penskes have any luck at all, they could be unstoppable.	If the Penskes have any luck at all, they could be unstoppable.	2694503	1471989389835	1471989389995	l	76
5326	56635	If the Penskes have any luck at all, they could be unstoppable.	If the Penskes have any luck at all, they could be unstoppable.	2694575	1471989390276	1471989390460	d	68
5326	56635	If the Penskes have any luck at all, they could be unstoppable.	If the Penskes have any luck at all, they could be unstoppable.	2694580	1471989390726	1471989390912	 	32
5326	56635	If the Penskes have any luck at all, they could be unstoppable.	If the Penskes have any luck at all, they could be unstoppable.	2694583	1471989391006	1471989391128	b	66
5326	56635	If the Penskes have any luck at all, they could be unstoppable.	If the Penskes have any luck at all, they could be unstoppable.	2694586	1471989391190	1471989391312	e	69
5326	56635	If the Penskes have any luck at all, they could be unstoppable.	If the Penskes have any luck at all, they could be unstoppable.	2694588	1471989391375	1471989391512	 	32
5326	56635	If the Penskes have any luck at all, they could be unstoppable.	If the Penskes have any luck at all, they could be unstoppable.	2694696	1471989391662	1471989391768	u	85
5326	56635	If the Penskes have any luck at all, they could be unstoppable.	If the Penskes have any luck at all, they could be unstoppable.	2694699	1471989391846	1471989391979	n	78
5326	56635	If the Penskes have any luck at all, they could be unstoppable.	If the Penskes have any luck at all, they could be unstoppable.	2694700	1471989392104	1471989392243	s	83
5326	56635	If the Penskes have any luck at all, they could be unstoppable.	If the Penskes have any luck at all, they could be unstoppable.	2694701	1471989392399	1471989392559	t	84
5326	56635	If the Penskes have any luck at all, they could be unstoppable.	If the Penskes have any luck at all, they could be unstoppable.	2694702	1471989393722	1471989393817	p	80
5326	56635	If the Penskes have any luck at all, they could be unstoppable.	If the Penskes have any luck at all, they could be unstoppable.	2694896	1471989394881	1471989394965	BKSP	8
5326	56635	If the Penskes have any luck at all, they could be unstoppable.	If the Penskes have any luck at all, they could be unstoppable.	2694899	1471989395308	1471989395460	o	79
5326	56635	If the Penskes have any luck at all, they could be unstoppable.	If the Penskes have any luck at all, they could be unstoppable.	2694906	1471989395993	1471989396095	p	80
5326	56635	If the Penskes have any luck at all, they could be unstoppable.	If the Penskes have any luck at all, they could be unstoppable.	2694913	1471989396157	1471989396294	p	80
5326	56635	If the Penskes have any luck at all, they could be unstoppable.	If the Penskes have any luck at all, they could be unstoppable.	2694918	1471989397910	1471989398057	a	65
5326	56635	If the Penskes have any luck at all, they could be unstoppable.	If the Penskes have any luck at all, they could be unstoppable.	2694923	1471989398088	1471989398180	b	66
5326	56635	If the Penskes have any luck at all, they could be unstoppable.	If the Penskes have any luck at all, they could be unstoppable.	2694951	1471989398575	1471989398647	l	76
5326	56635	If the Penskes have any luck at all, they could be unstoppable.	If the Penskes have any luck at all, they could be unstoppable.	2694953	1471989398787	1471989398928	e	69
5326	56635	If the Penskes have any luck at all, they could be unstoppable.	If the Penskes have any luck at all, they could be unstoppable.	2694956	1471989399084	1471989399167	.	190
5326	56658	Joel will handle this.	Joel will handle this.	2695146	1471989401794	1471989402186	SHIFT	16
5326	56658	Joel will handle this.	Joel will handle this.	2695148	1471989402153	1471989402261	J	74
5326	56658	Joel will handle this.	Joel will handle this.	2695150	1471989402417	1471989402511	o	79
5326	56658	Joel will handle this.	Joel will handle this.	2695152	1471989402667	1471989402809	e	69
5326	56658	Joel will handle this.	Joel will handle this.	2695154	1471989403028	1471989403127	l	76
5326	56658	Joel will handle this.	Joel will handle this.	2695155	1471989403418	1471989403557	 	32
5326	56658	Joel will handle this.	Joel will handle this.	2695181	1471989403651	1471989403790	w	87
5326	56658	Joel will handle this.	Joel will handle this.	2695184	1471989403900	1471989404011	i	73
5326	56658	Joel will handle this.	Joel will handle this.	2695187	1471989404199	1471989404293	l	76
5326	56658	Joel will handle this.	Joel will handle this.	2695190	1471989404386	1471989404493	l	76
5326	56658	Joel will handle this.	Joel will handle this.	2695193	1471989404743	1471989404889	 	32
5326	56658	Joel will handle this.	Joel will handle this.	2695253	1471989405037	1471989405163	h	72
5326	56658	Joel will handle this.	Joel will handle this.	2695257	1471989405144	1471989405293	a	65
5326	56658	Joel will handle this.	Joel will handle this.	2695260	1471989405309	1471989405444	n	78
5326	56658	Joel will handle this.	Joel will handle this.	2695263	1471989405553	1471989405708	d	68
5326	56658	Joel will handle this.	Joel will handle this.	2695266	1471989405849	1471989405989	l	76
5326	56658	Joel will handle this.	Joel will handle this.	2695336	1471989406058	1471989406177	e	69
5326	56658	Joel will handle this.	Joel will handle this.	2695339	1471989406256	1471989406392	 	32
5326	56658	Joel will handle this.	Joel will handle this.	2695343	1471989406471	1471989406591	t	84
5326	56658	Joel will handle this.	Joel will handle this.	2695347	1471989407455	1471989407575	h	72
5326	56658	Joel will handle this.	Joel will handle this.	2695350	1471989407685	1471989407777	i	73
5326	56658	Joel will handle this.	Joel will handle this.	2695374	1471989407935	1471989408058	s	83
5326	56658	Joel will handle this.	Joel will handle this.	2695377	1471989408246	1471989408331	.	190
5326	56669	I will call you Monday morning to discuss.	I will call you Monday morning to discuss.	2695549	1471989410919	1471989411346	SHIFT	16
5326	56669	I will call you Monday morning to discuss.	I will call you Monday morning to discuss.	2695554	1471989411301	1471989411408	I	73
5326	56669	I will call you Monday morning to discuss.	I will call you Monday morning to discuss.	2695558	1471989411533	1471989411657	 	32
5326	56669	I will call you Monday morning to discuss.	I will call you Monday morning to discuss.	2695563	1471989411720	1471989411843	w	87
5326	56669	I will call you Monday morning to discuss.	I will call you Monday morning to discuss.	2695567	1471989411921	1471989412009	i	73
5326	56669	I will call you Monday morning to discuss.	I will call you Monday morning to discuss.	2695572	1471989412165	1471989412260	l	76
5326	56669	I will call you Monday morning to discuss.	I will call you Monday morning to discuss.	2695625	1471989412336	1471989412443	l	76
5326	56669	I will call you Monday morning to discuss.	I will call you Monday morning to discuss.	2695628	1471989412553	1471989412691	 	32
5326	56669	I will call you Monday morning to discuss.	I will call you Monday morning to discuss.	2695633	1471989412769	1471989412890	c	67
5326	56669	I will call you Monday morning to discuss.	I will call you Monday morning to discuss.	2695635	1471989413077	1471989413176	a	65
5326	56669	I will call you Monday morning to discuss.	I will call you Monday morning to discuss.	2695641	1471989413333	1471989413459	l	76
5326	56669	I will call you Monday morning to discuss.	I will call you Monday morning to discuss.	2695732	1471989413648	1471989413742	l	76
5326	56669	I will call you Monday morning to discuss.	I will call you Monday morning to discuss.	2695737	1471989413914	1471989414042	 	32
5326	56669	I will call you Monday morning to discuss.	I will call you Monday morning to discuss.	2695741	1471989414472	1471989414560	y	89
5326	56669	I will call you Monday morning to discuss.	I will call you Monday morning to discuss.	2695744	1471989414779	1471989414920	o	79
5326	56669	I will call you Monday morning to discuss.	I will call you Monday morning to discuss.	2695746	1471989415054	1471989415172	u	85
5326	56669	I will call you Monday morning to discuss.	I will call you Monday morning to discuss.	2695831	1471989415312	1471989415472	 	32
5326	56669	I will call you Monday morning to discuss.	I will call you Monday morning to discuss.	2695835	1471989415504	1471989415792	SHIFT	16
5326	56669	I will call you Monday morning to discuss.	I will call you Monday morning to discuss.	2695834	1471989415660	1471989415774	M	77
5326	56669	I will call you Monday morning to discuss.	I will call you Monday morning to discuss.	2695836	1471989416011	1471989416170	o	79
5326	56669	I will call you Monday morning to discuss.	I will call you Monday morning to discuss.	2695837	1471989416373	1471989416521	n	78
5326	56669	I will call you Monday morning to discuss.	I will call you Monday morning to discuss.	2695839	1471989416693	1471989416825	d	68
5326	56669	I will call you Monday morning to discuss.	I will call you Monday morning to discuss.	2695994	1471989416981	1471989417140	a	65
5326	56669	I will call you Monday morning to discuss.	I will call you Monday morning to discuss.	2695996	1471989418488	1471989418593	y	89
5326	56669	I will call you Monday morning to discuss.	I will call you Monday morning to discuss.	2695997	1471989418780	1471989418937	 	32
5326	56669	I will call you Monday morning to discuss.	I will call you Monday morning to discuss.	2695999	1471989419109	1471989419239	m	77
5326	56669	I will call you Monday morning to discuss.	I will call you Monday morning to discuss.	2696001	1471989419426	1471989419558	o	79
5326	56669	I will call you Monday morning to discuss.	I will call you Monday morning to discuss.	2696062	1471989419719	1471989419806	r	82
5326	56669	I will call you Monday morning to discuss.	I will call you Monday morning to discuss.	2696064	1471989419916	1471989420056	n	78
5326	56669	I will call you Monday morning to discuss.	I will call you Monday morning to discuss.	2696066	1471989420181	1471989420321	i	73
5326	56669	I will call you Monday morning to discuss.	I will call you Monday morning to discuss.	2696068	1471989420400	1471989420506	n	78
5326	56669	I will call you Monday morning to discuss.	I will call you Monday morning to discuss.	2696069	1471989420584	1471989420704	g	71
5326	56669	I will call you Monday morning to discuss.	I will call you Monday morning to discuss.	2696201	1471989420845	1471989420972	 	32
5326	56669	I will call you Monday morning to discuss.	I will call you Monday morning to discuss.	2696203	1471989421066	1471989421141	t	84
5326	56669	I will call you Monday morning to discuss.	I will call you Monday morning to discuss.	2696206	1471989421281	1471989421390	i	73
5326	56669	I will call you Monday morning to discuss.	I will call you Monday morning to discuss.	2696210	1471989422001	1471989422090	BKSP	8
5326	56669	I will call you Monday morning to discuss.	I will call you Monday morning to discuss.	2696212	1471989422845	1471989422959	o	79
5326	56669	I will call you Monday morning to discuss.	I will call you Monday morning to discuss.	2696215	1471989423099	1471989423207	 	32
5326	56669	I will call you Monday morning to discuss.	I will call you Monday morning to discuss.	2696274	1471989423374	1471989423473	d	68
5326	56669	I will call you Monday morning to discuss.	I will call you Monday morning to discuss.	2696276	1471989423552	1471989423643	i	73
5326	56669	I will call you Monday morning to discuss.	I will call you Monday morning to discuss.	2696280	1471989423768	1471989423890	s	83
5326	56669	I will call you Monday morning to discuss.	I will call you Monday morning to discuss.	2696284	1471989424046	1471989424173	c	67
5326	56669	I will call you Monday morning to discuss.	I will call you Monday morning to discuss.	2696289	1471989424283	1471989424358	u	85
5326	56669	I will call you Monday morning to discuss.	I will call you Monday morning to discuss.	2696402	1471989424549	1471989424657	s	83
5326	56669	I will call you Monday morning to discuss.	I will call you Monday morning to discuss.	2696404	1471989424735	1471989424842	s	83
5326	56669	I will call you Monday morning to discuss.	I will call you Monday morning to discuss.	2696407	1471989425154	1471989425241	.	190
5326	56688	I didn't think we had it.	I didn't think we had it.	2696693	1471989428818	1471989429323	SHIFT	16
5326	56688	I didn't think we had it.	I didn't think we had it.	2696698	1471989429304	1471989429438	I	73
5326	56688	I didn't think we had it.	I didn't think we had it.	2696704	1471989429657	1471989429770	 	32
5326	56688	I didn't think we had it.	I didn't think we had it.	2696705	1471989429910	1471989430007	d	68
5326	56688	I didn't think we had it.	I didn't think we had it.	2696707	1471989430241	1471989430371	i	73
5326	56688	I didn't think we had it.	I didn't think we had it.	2696708	1471989431797	1471989431906	d	68
5326	56688	I didn't think we had it.	I didn't think we had it.	2696898	1471989432059	1471989432203	n	78
5326	56688	I didn't think we had it.	I didn't think we had it.	2696900	1471989434206	1471989434289	'	222
5326	56688	I didn't think we had it.	I didn't think we had it.	2696904	1471989434871	1471989434956	t	84
5326	56688	I didn't think we had it.	I didn't think we had it.	2696907	1471989435435	1471989435569	 	32
5326	56688	I didn't think we had it.	I didn't think we had it.	2696910	1471989435756	1471989435887	t	84
5326	56688	I didn't think we had it.	I didn't think we had it.	2696979	1471989436063	1471989436187	h	72
5326	56688	I didn't think we had it.	I didn't think we had it.	2696980	1471989436312	1471989436435	i	73
5326	56688	I didn't think we had it.	I didn't think we had it.	2696981	1471989436560	1471989436703	n	78
5326	56688	I didn't think we had it.	I didn't think we had it.	2696982	1471989436828	1471989436954	k	75
5326	56688	I didn't think we had it.	I didn't think we had it.	2696983	1471989437110	1471989437252	 	32
5326	56688	I didn't think we had it.	I didn't think we had it.	2697026	1471989437349	1471989437468	w	87
5326	56688	I didn't think we had it.	I didn't think we had it.	2697031	1471989437546	1471989437672	e	69
5326	56688	I didn't think we had it.	I didn't think we had it.	2697038	1471989437718	1471989437850	 	32
5326	56688	I didn't think we had it.	I didn't think we had it.	2697047	1471989437929	1471989438006	h	72
5326	56688	I didn't think we had it.	I didn't think we had it.	2697054	1471989438053	1471989438187	a	65
5326	56688	I didn't think we had it.	I didn't think we had it.	2697104	1471989438204	1471989438334	d	68
5326	56688	I didn't think we had it.	I didn't think we had it.	2697109	1471989438381	1471989438507	 	32
5326	56688	I didn't think we had it.	I didn't think we had it.	2697115	1471989438601	1471989438688	i	73
5326	56688	I didn't think we had it.	I didn't think we had it.	2697122	1471989438814	1471989438921	t	84
5326	56688	I didn't think we had it.	I didn't think we had it.	2697129	1471989439061	1471989439139	.	190
5326	56707	He did not say when that would be.	He did not say when that would be.	2697402	1471989441654	1471989442322	SHIFT	16
5326	56707	He did not say when that would be.	He did not say when that would be.	2697406	1471989442249	1471989442337	H	72
5326	56707	He did not say when that would be.	He did not say when that would be.	2697413	1471989442541	1471989442653	e	69
5326	56707	He did not say when that would be.	He did not say when that would be.	2697417	1471989442700	1471989442820	 	32
5326	56707	He did not say when that would be.	He did not say when that would be.	2697421	1471989442913	1471989443019	d	68
5326	56707	He did not say when that would be.	He did not say when that would be.	2697428	1471989443128	1471989443221	i	73
5326	56707	He did not say when that would be.	He did not say when that would be.	2697473	1471989443349	1471989443453	d	68
5326	56707	He did not say when that would be.	He did not say when that would be.	2697477	1471989443563	1471989443702	 	32
5326	56707	He did not say when that would be.	He did not say when that would be.	2697482	1471989443811	1471989443917	n	78
5326	56707	He did not say when that would be.	He did not say when that would be.	2697487	1471989444057	1471989444138	i	73
5326	56707	He did not say when that would be.	He did not say when that would be.	2697492	1471989444471	1471989444570	t	84
5326	56707	He did not say when that would be.	He did not say when that would be.	2697696	1471989444795	1471989444918	 	32
5326	56707	He did not say when that would be.	He did not say when that would be.	2697700	1471989445370	1471989445454	BKSP	8
5326	56707	He did not say when that would be.	He did not say when that would be.	2697704	1471989445516	1471989445621	BKSP	8
5326	56707	He did not say when that would be.	He did not say when that would be.	2697709	1471989445668	1471989445753	BKSP	8
5326	56707	He did not say when that would be.	He did not say when that would be.	2697713	1471989446555	1471989446670	o	79
5326	56707	He did not say when that would be.	He did not say when that would be.	2697717	1471989447120	1471989447203	t	84
5326	56707	He did not say when that would be.	He did not say when that would be.	2697722	1471989447547	1471989447685	 	32
5326	56707	He did not say when that would be.	He did not say when that would be.	2697725	1471989447810	1471989447981	s	83
5326	56707	He did not say when that would be.	He did not say when that would be.	2697831	1471989448110	1471989448251	a	65
5326	56707	He did not say when that would be.	He did not say when that would be.	2697836	1471989448689	1471989448817	y	89
5326	56707	He did not say when that would be.	He did not say when that would be.	2697843	1471989449271	1471989449436	 	32
5326	56707	He did not say when that would be.	He did not say when that would be.	2697846	1471989449700	1471989449845	w	87
5326	56707	He did not say when that would be.	He did not say when that would be.	2697851	1471989449986	1471989450100	h	72
5326	56707	He did not say when that would be.	He did not say when that would be.	2697933	1471989450272	1471989450399	e	69
5326	56707	He did not say when that would be.	He did not say when that would be.	2697940	1471989450649	1471989450767	n	78
5326	56707	He did not say when that would be.	He did not say when that would be.	2697948	1471989450961	1471989451100	 	32
5326	56707	He did not say when that would be.	He did not say when that would be.	2697955	1471989451287	1471989451384	t	84
5326	56707	He did not say when that would be.	He did not say when that would be.	2697961	1471989451588	1471989451669	h	72
5326	56707	He did not say when that would be.	He did not say when that would be.	2698056	1471989451849	1471989451983	a	65
5326	56707	He did not say when that would be.	He did not say when that would be.	2698060	1471989452125	1471989452202	t	84
5326	56707	He did not say when that would be.	He did not say when that would be.	2698068	1471989452374	1471989452483	 	32
5326	56707	He did not say when that would be.	He did not say when that would be.	2698072	1471989452624	1471989452735	w	87
5326	56707	He did not say when that would be.	He did not say when that would be.	2698077	1471989452844	1471989452950	o	79
5326	56707	He did not say when that would be.	He did not say when that would be.	2698180	1471989453093	1471989453169	u	85
5326	56707	He did not say when that would be.	He did not say when that would be.	2698182	1471989453310	1471989453418	l	76
5326	56707	He did not say when that would be.	He did not say when that would be.	2698184	1471989453511	1471989453634	d	68
5326	56707	He did not say when that would be.	He did not say when that would be.	2698192	1471989454638	1471989454781	 	32
5326	56707	He did not say when that would be.	He did not say when that would be.	2698197	1471989454859	1471989454951	b	66
5326	56707	He did not say when that would be.	He did not say when that would be.	2698224	1471989455168	1471989455284	e	69
5326	56707	He did not say when that would be.	He did not say when that would be.	2698227	1471989455378	1471989455485	.	190
5326	56729	Just told them I thought it would be impossible.	Just told them I thought it would be impossible.	2698545	1471989458014	1471989458751	SHIFT	16
5326	56729	Just told them I thought it would be impossible.	Just told them I thought it would be impossible.	2698550	1471989458624	1471989458782	J	74
5326	56729	Just told them I thought it would be impossible.	Just told them I thought it would be impossible.	2698553	1471989458954	1471989459111	u	85
5326	56729	Just told them I thought it would be impossible.	Just told them I thought it would be impossible.	2698560	1471989459221	1471989459365	s	83
5326	56729	Just told them I thought it would be impossible.	Just told them I thought it would be impossible.	2698564	1471989459506	1471989459600	t	84
5326	56729	Just told them I thought it would be impossible.	Just told them I thought it would be impossible.	2698570	1471989459803	1471989459931	 	32
5326	56729	Just told them I thought it would be impossible.	Just told them I thought it would be impossible.	2698635	1471989460206	1471989460331	t	84
5326	56729	Just told them I thought it would be impossible.	Just told them I thought it would be impossible.	2698637	1471989460501	1471989460601	o	79
5326	56729	Just told them I thought it would be impossible.	Just told them I thought it would be impossible.	2698640	1471989460710	1471989460845	l	76
5326	56729	Just told them I thought it would be impossible.	Just told them I thought it would be impossible.	2698643	1471989460923	1471989461045	d	68
5326	56729	Just told them I thought it would be impossible.	Just told them I thought it would be impossible.	2698646	1471989461155	1471989461298	 	32
5326	56729	Just told them I thought it would be impossible.	Just told them I thought it would be impossible.	2698781	1471989461416	1471989461516	y	89
5326	56729	Just told them I thought it would be impossible.	Just told them I thought it would be impossible.	2698787	1471989461734	1471989461863	h	72
5326	56729	Just told them I thought it would be impossible.	Just told them I thought it would be impossible.	2698793	1471989461948	1471989462079	e	69
5326	56729	Just told them I thought it would be impossible.	Just told them I thought it would be impossible.	2698798	1471989462612	1471989462701	BKSP	8
5326	56729	Just told them I thought it would be impossible.	Just told them I thought it would be impossible.	2698801	1471989462794	1471989462884	BKSP	8
5326	56729	Just told them I thought it would be impossible.	Just told them I thought it would be impossible.	2698803	1471989463134	1471989463262	BKSP	8
5326	56729	Just told them I thought it would be impossible.	Just told them I thought it would be impossible.	2698804	1471989463497	1471989463630	t	84
5326	56729	Just told them I thought it would be impossible.	Just told them I thought it would be impossible.	2698805	1471989463787	1471989463880	h	72
5326	56729	Just told them I thought it would be impossible.	Just told them I thought it would be impossible.	2698893	1471989464021	1471989464145	e	69
5326	56729	Just told them I thought it would be impossible.	Just told them I thought it would be impossible.	2698899	1471989464364	1471989464497	m	77
5326	56729	Just told them I thought it would be impossible.	Just told them I thought it would be impossible.	2698904	1471989464623	1471989464733	 	32
5326	56729	Just told them I thought it would be impossible.	Just told them I thought it would be impossible.	2698915	1471989464826	1471989465209	SHIFT	16
5326	56729	Just told them I thought it would be impossible.	Just told them I thought it would be impossible.	2698910	1471989465045	1471989465178	I	73
5326	56729	Just told them I thought it would be impossible.	Just told them I thought it would be impossible.	2698919	1471989465428	1471989465547	 	32
5326	56729	Just told them I thought it would be impossible.	Just told them I thought it would be impossible.	2698986	1471989465630	1471989465793	t	84
5326	56729	Just told them I thought it would be impossible.	Just told them I thought it would be impossible.	2698990	1471989466043	1471989466147	h	72
5326	56729	Just told them I thought it would be impossible.	Just told them I thought it would be impossible.	2698997	1471989466209	1471989466332	o	79
5326	56729	Just told them I thought it would be impossible.	Just told them I thought it would be impossible.	2699004	1471989466488	1471989466599	u	85
5326	56729	Just told them I thought it would be impossible.	Just told them I thought it would be impossible.	2699011	1471989466771	1471989466880	g	71
5326	56729	Just told them I thought it would be impossible.	Just told them I thought it would be impossible.	2699120	1471989467034	1471989467161	h	72
5326	56729	Just told them I thought it would be impossible.	Just told them I thought it would be impossible.	2699123	1471989467302	1471989467430	t	84
5326	56729	Just told them I thought it would be impossible.	Just told them I thought it would be impossible.	2699127	1471989467820	1471989467948	 	32
5326	56729	Just told them I thought it would be impossible.	Just told them I thought it would be impossible.	2699131	1471989468104	1471989468244	i	73
5326	56729	Just told them I thought it would be impossible.	Just told them I thought it would be impossible.	2699133	1471989468400	1471989468513	t	84
5326	56729	Just told them I thought it would be impossible.	Just told them I thought it would be impossible.	2699191	1471989468645	1471989468762	 	32
5326	56729	Just told them I thought it would be impossible.	Just told them I thought it would be impossible.	2699195	1471989468950	1471989469078	w	87
5326	56729	Just told them I thought it would be impossible.	Just told them I thought it would be impossible.	2699198	1471989469200	1471989469329	o	79
5326	56729	Just told them I thought it would be impossible.	Just told them I thought it would be impossible.	2699200	1471989469454	1471989469550	u	85
5326	56729	Just told them I thought it would be impossible.	Just told them I thought it would be impossible.	2699204	1471989469721	1471989469846	l	76
5326	56729	Just told them I thought it would be impossible.	Just told them I thought it would be impossible.	2699254	1471989470006	1471989470098	d	68
5326	56729	Just told them I thought it would be impossible.	Just told them I thought it would be impossible.	2699260	1471989470332	1471989470478	 	32
5326	56729	Just told them I thought it would be impossible.	Just told them I thought it would be impossible.	2699264	1471989470587	1471989470727	b	66
5326	56729	Just told them I thought it would be impossible.	Just told them I thought it would be impossible.	2699267	1471989470805	1471989470901	e	69
5326	56729	Just told them I thought it would be impossible.	Just told them I thought it would be impossible.	2699271	1471989471026	1471989471147	 	32
5326	56729	Just told them I thought it would be impossible.	Just told them I thought it would be impossible.	2699329	1471989471323	1471989471446	i	73
5326	56729	Just told them I thought it would be impossible.	Just told them I thought it would be impossible.	2699333	1471989471571	1471989471681	m	77
5326	56729	Just told them I thought it would be impossible.	Just told them I thought it would be impossible.	2699342	1471989471870	1471989472012	p	80
5326	56729	Just told them I thought it would be impossible.	Just told them I thought it would be impossible.	2699347	1471989472090	1471989472213	o	79
5326	56729	Just told them I thought it would be impossible.	Just told them I thought it would be impossible.	2699352	1471989472354	1471989472448	s	83
5326	56729	Just told them I thought it would be impossible.	Just told them I thought it would be impossible.	2699433	1471989472568	1471989472664	s	83
5326	56729	Just told them I thought it would be impossible.	Just told them I thought it would be impossible.	2699436	1471989472789	1471989472943	i	73
5326	56729	Just told them I thought it would be impossible.	Just told them I thought it would be impossible.	2699438	1471989473083	1471989473167	b	66
5326	56729	Just told them I thought it would be impossible.	Just told them I thought it would be impossible.	2699440	1471989473355	1471989473494	l	76
5326	56729	Just told them I thought it would be impossible.	Just told them I thought it would be impossible.	2699444	1471989473604	1471989473714	e	69
5326	56729	Just told them I thought it would be impossible.	Just told them I thought it would be impossible.	2699466	1471989473883	1471989473965	.	190
5326	56756	This is the limit.	This is the limit.	2699712	1471989476729	1471989477545	SHIFT	16
5326	56756	This is the limit.	This is the limit.	2699708	1471989477407	1471989477482	T	84
5326	56756	This is the limit.	This is the limit.	2699717	1471989477670	1471989477777	h	72
5326	56756	This is the limit.	This is the limit.	2699721	1471989477949	1471989478063	i	73
5326	56756	This is the limit.	This is the limit.	2699726	1471989478204	1471989478357	s	83
5326	56756	This is the limit.	This is the limit.	2699730	1471989478576	1471989478693	 	32
5326	56756	This is the limit.	This is the limit.	2699856	1471989479368	1471989479479	i	73
5326	56756	This is the limit.	This is the limit.	2699860	1471989479589	1471989479711	s	83
5326	56756	This is the limit.	This is the limit.	2699865	1471989480228	1471989480362	 	32
5326	56756	This is the limit.	This is the limit.	2699871	1471989480550	1471989480631	t	84
5326	56756	This is the limit.	This is the limit.	2699879	1471989480741	1471989480861	h	72
5326	56756	This is the limit.	This is the limit.	2699940	1471989480954	1471989481062	e	69
5326	56756	This is the limit.	This is the limit.	2699944	1471989481109	1471989481197	 	32
5326	56756	This is the limit.	This is the limit.	2699947	1471989481359	1471989481493	l	76
5326	56756	This is the limit.	This is the limit.	2699949	1471989481602	1471989481663	i	73
5326	56756	This is the limit.	This is the limit.	2699952	1471989481772	1471989481848	m	77
5326	56756	This is the limit.	This is the limit.	2700042	1471989481966	1471989482063	i	73
5326	56756	This is the limit.	This is the limit.	2700045	1471989482203	1471989482312	t	84
5326	56756	This is the limit.	This is the limit.	2700046	1471989482986	1471989483049	.	190
5326	56765	Talk to you soon.	Talk to you soon.	2700316	1471989485624	1471989486068	SHIFT	16
5326	56765	Talk to you soon.	Talk to you soon.	2700320	1471989486036	1471989486098	T	84
5326	56765	Talk to you soon.	Talk to you soon.	2700327	1471989486286	1471989486407	a	65
5326	56765	Talk to you soon.	Talk to you soon.	2700337	1471989486548	1471989486661	l	76
5326	56765	Talk to you soon.	Talk to you soon.	2700344	1471989486786	1471989486840	k	75
5326	56765	Talk to you soon.	Talk to you soon.	2700352	1471989487020	1471989487109	 	32
5326	56765	Talk to you soon.	Talk to you soon.	2700433	1471989487213	1471989487358	t	84
5326	56765	Talk to you soon.	Talk to you soon.	2700437	1471989487891	1471989488042	o	79
5326	56765	Talk to you soon.	Talk to you soon.	2700440	1471989488104	1471989488212	 	32
5326	56765	Talk to you soon.	Talk to you soon.	2700444	1471989488462	1471989488562	y	89
5326	56765	Talk to you soon.	Talk to you soon.	2700448	1471989488671	1471989488807	o	79
5326	56765	Talk to you soon.	Talk to you soon.	2700508	1471989488963	1471989489077	u	85
5326	56765	Talk to you soon.	Talk to you soon.	2700510	1471989489217	1471989489357	 	32
5326	56765	Talk to you soon.	Talk to you soon.	2700515	1471989489404	1471989489533	s	83
5326	56765	Talk to you soon.	Talk to you soon.	2700521	1471989489721	1471989489811	o	79
5326	56765	Talk to you soon.	Talk to you soon.	2700525	1471989489889	1471989489992	o	79
5326	56765	Talk to you soon.	Talk to you soon.	2700552	1471989490115	1471989490211	n	78
5326	56765	Talk to you soon.	Talk to you soon.	2700556	1471989490382	1471989490494	.	190
5326	56779	What number should he call you on?	What number should he call you ?	2700911	1471989493108	1471989493515	SHIFT	16
5326	56779	What number should he call you on?	What number should he call you ?	2700912	1471989493468	1471989493609	W	87
5326	56779	What number should he call you on?	What number should he call you ?	2700914	1471989493734	1471989493873	a	65
5326	56779	What number should he call you on?	What number should he call you ?	2700916	1471989494328	1471989494426	BKSP	8
5326	56779	What number should he call you on?	What number should he call you ?	2700918	1471989494911	1471989495007	h	72
5326	56779	What number should he call you on?	What number should he call you ?	2700920	1471989495101	1471989495241	a	65
5326	56779	What number should he call you on?	What number should he call you ?	2700922	1471989495256	1471989495345	t	84
5326	56779	What number should he call you on?	What number should he call you ?	2701025	1471989495614	1471989495772	 	32
5326	56779	What number should he call you on?	What number should he call you ?	2701028	1471989495960	1471989496138	n	78
5326	56779	What number should he call you on?	What number should he call you ?	2701032	1471989496232	1471989496343	u	85
5326	56779	What number should he call you on?	What number should he call you ?	2701045	1471989496483	1471989496638	m	77
5326	56779	What number should he call you on?	What number should he call you ?	2701050	1471989496826	1471989496875	b	66
5326	56779	What number should he call you on?	What number should he call you ?	2701123	1471989497359	1471989497575	e	69
5326	56779	What number should he call you on?	What number should he call you ?	2701127	1471989497474	1471989497622	r	82
5326	56779	What number should he call you on?	What number should he call you ?	2701130	1471989497747	1471989497894	 	32
5326	56779	What number should he call you on?	What number should he call you ?	2701136	1471989498045	1471989498187	s	83
5326	56779	What number should he call you on?	What number should he call you ?	2701139	1471989498266	1471989498344	h	72
5326	56779	What number should he call you on?	What number should he call you ?	2701300	1471989498662	1471989498808	o	79
5326	56779	What number should he call you on?	What number should he call you ?	2701304	1471989499263	1471989499374	u	85
5326	56779	What number should he call you on?	What number should he call you ?	2701306	1471989499655	1471989499791	l	76
5326	56779	What number should he call you on?	What number should he call you ?	2701309	1471989499978	1471989500089	d	68
5326	56779	What number should he call you on?	What number should he call you ?	2701311	1471989500845	1471989501030	 	32
5326	56779	What number should he call you on?	What number should he call you ?	2701345	1471989501144	1471989501304	h	72
5326	56779	What number should he call you on?	What number should he call you ?	2701347	1471989501336	1471989501458	e	69
5326	56779	What number should he call you on?	What number should he call you ?	2701352	1471989501489	1471989501608	 	32
5326	56779	What number should he call you on?	What number should he call you ?	2701358	1471989501686	1471989501862	c	67
5326	56779	What number should he call you on?	What number should he call you ?	2701429	1471989501806	1471989501984	a	65
5326	56779	What number should he call you on?	What number should he call you ?	2701431	1471989502188	1471989502258	l	76
5326	56779	What number should he call you on?	What number should he call you ?	2701435	1471989502352	1471989502443	l	76
5326	56779	What number should he call you on?	What number should he call you ?	2701440	1471989502584	1471989502675	 	32
5326	56779	What number should he call you on?	What number should he call you ?	2701444	1471989502800	1471989502939	y	89
5326	56779	What number should he call you on?	What number should he call you ?	2701449	1471989503033	1471989503189	o	79
5326	56779	What number should he call you on?	What number should he call you ?	2701512	1471989503281	1471989503361	u	85
5326	56779	What number should he call you on?	What number should he call you ?	2701517	1471989503580	1471989503736	 	32
5326	56779	What number should he call you on?	What number should he call you ?	2701523	1471989503736	1471989503893	SHIFT	16
5326	56779	What number should he call you on?	What number should he call you ?	2701528	1471989503799	1471989503939	?	191
5326	56800	Couldn't risk the uncertainty.	Couldn't risk the uncertainty.	2702047	1471989506534	1471989507466	SHIFT	16
5326	56800	Couldn't risk the uncertainty.	Couldn't risk the uncertainty.	2702043	1471989507268	1471989507372	C	67
5326	56800	Couldn't risk the uncertainty.	Couldn't risk the uncertainty.	2702052	1471989508354	1471989508504	o	79
5326	56800	Couldn't risk the uncertainty.	Couldn't risk the uncertainty.	2702059	1471989508692	1471989508775	u	85
5326	56800	Couldn't risk the uncertainty.	Couldn't risk the uncertainty.	2702063	1471989509742	1471989509823	d	68
5326	56800	Couldn't risk the uncertainty.	Couldn't risk the uncertainty.	2702068	1471989510359	1471989510502	BKSP	8
5326	56800	Couldn't risk the uncertainty.	Couldn't risk the uncertainty.	2702075	1471989511552	1471989511642	l	76
5326	56800	Couldn't risk the uncertainty.	Couldn't risk the uncertainty.	2702300	1471989511846	1471989511940	d	68
5326	56800	Couldn't risk the uncertainty.	Couldn't risk the uncertainty.	2702304	1471989512803	1471989512951	n	78
5326	56800	Couldn't risk the uncertainty.	Couldn't risk the uncertainty.	2702309	1471989514159	1471989514315	SHIFT	16
5326	56800	Couldn't risk the uncertainty.	Couldn't risk the uncertainty.	2702315	1471989514646	1471989514724	'	222
5326	56800	Couldn't risk the uncertainty.	Couldn't risk the uncertainty.	2702320	1471989515114	1471989515190	t	84
5326	56800	Couldn't risk the uncertainty.	Couldn't risk the uncertainty.	2702324	1471989515502	1471989515622	 	32
5326	56800	Couldn't risk the uncertainty.	Couldn't risk the uncertainty.	2702468	1471989516309	1471989516438	r	82
5326	56800	Couldn't risk the uncertainty.	Couldn't risk the uncertainty.	2702470	1471989516594	1471989516718	i	73
5326	56800	Couldn't risk the uncertainty.	Couldn't risk the uncertainty.	2702476	1471989516796	1471989516937	s	83
5326	56800	Couldn't risk the uncertainty.	Couldn't risk the uncertainty.	2702482	1471989517328	1471989517486	k	75
5326	56800	Couldn't risk the uncertainty.	Couldn't risk the uncertainty.	2702488	1471989517783	1471989517871	 	32
5326	56800	Couldn't risk the uncertainty.	Couldn't risk the uncertainty.	2702553	1471989518053	1471989518141	t	84
5326	56800	Couldn't risk the uncertainty.	Couldn't risk the uncertainty.	2702554	1471989518330	1471989518467	h	72
5326	56800	Couldn't risk the uncertainty.	Couldn't risk the uncertainty.	2702557	1471989518623	1471989518765	e	69
5326	56800	Couldn't risk the uncertainty.	Couldn't risk the uncertainty.	2702559	1471989518874	1471989519004	 	32
5326	56800	Couldn't risk the uncertainty.	Couldn't risk the uncertainty.	2702565	1471989519223	1471989519368	u	85
5326	56800	Couldn't risk the uncertainty.	Couldn't risk the uncertainty.	2702646	1471989519556	1471989519683	n	78
5326	56800	Couldn't risk the uncertainty.	Couldn't risk the uncertainty.	2702648	1471989519777	1471989519920	c	67
5326	56800	Couldn't risk the uncertainty.	Couldn't risk the uncertainty.	2702650	1471989520060	1471989520288	e	69
5326	56800	Couldn't risk the uncertainty.	Couldn't risk the uncertainty.	2702653	1471989520233	1471989520398	r	82
5326	56800	Couldn't risk the uncertainty.	Couldn't risk the uncertainty.	2702655	1471989520538	1471989520622	t	84
5326	56800	Couldn't risk the uncertainty.	Couldn't risk the uncertainty.	2702783	1471989520735	1471989520823	a	65
5326	56800	Couldn't risk the uncertainty.	Couldn't risk the uncertainty.	2702787	1471989521166	1471989521299	i	73
5326	56800	Couldn't risk the uncertainty.	Couldn't risk the uncertainty.	2702792	1471989521627	1471989521779	n	78
5326	56800	Couldn't risk the uncertainty.	Couldn't risk the uncertainty.	2702798	1471989521888	1471989522017	l	76
5326	56800	Couldn't risk the uncertainty.	Couldn't risk the uncertainty.	2702803	1471989522535	1471989522607	y	89
5326	56800	Couldn't risk the uncertainty.	Couldn't risk the uncertainty.	2702949	1471989523703	1471989523817	BKSP	8
5326	56800	Couldn't risk the uncertainty.	Couldn't risk the uncertainty.	2702952	1471989524760	1471989524890	BKSP	8
5326	56800	Couldn't risk the uncertainty.	Couldn't risk the uncertainty.	2702955	1471989524871	1471989525002	t	84
5326	56800	Couldn't risk the uncertainty.	Couldn't risk the uncertainty.	2702959	1471989524922	1471989525033	y	89
5326	56800	Couldn't risk the uncertainty.	Couldn't risk the uncertainty.	2702963	1471989525632	1471989525689	.	190
5326	56827	So, we need to get these resolved.	So, we need to get resolved.	2703243	1471989528135	1471989528471	SHIFT	16
5326	56827	So, we need to get these resolved.	So, we need to get resolved.	2703246	1471989528390	1471989528534	S	83
5326	56827	So, we need to get these resolved.	So, we need to get resolved.	2703249	1471989528862	1471989528922	o	79
5326	56827	So, we need to get these resolved.	So, we need to get resolved.	2703255	1471989529502	1471989529649	,	188
5326	56827	So, we need to get these resolved.	So, we need to get resolved.	2703260	1471989529774	1471989529949	 	32
5326	56827	So, we need to get these resolved.	So, we need to get resolved.	2703267	1471989530074	1471989530217	w	87
5326	56827	So, we need to get these resolved.	So, we need to get resolved.	2703332	1471989530323	1471989530421	e	69
5326	56827	So, we need to get these resolved.	So, we need to get resolved.	2703334	1471989530514	1471989530664	 	32
5326	56827	So, we need to get these resolved.	So, we need to get resolved.	2703338	1471989530710	1471989530817	n	78
5326	56827	So, we need to get these resolved.	So, we need to get resolved.	2703339	1471989530989	1471989531098	e	69
5326	56827	So, we need to get these resolved.	So, we need to get resolved.	2703342	1471989531161	1471989531268	e	69
5326	56827	So, we need to get these resolved.	So, we need to get resolved.	2703422	1471989531384	1471989531501	d	68
5326	56827	So, we need to get these resolved.	So, we need to get resolved.	2703428	1471989531751	1471989531901	 	32
5326	56827	So, we need to get these resolved.	So, we need to get resolved.	2703432	1471989532245	1471989532354	t	84
5326	56827	So, we need to get these resolved.	So, we need to get resolved.	2703437	1471989532511	1471989532634	o	79
5326	56827	So, we need to get these resolved.	So, we need to get resolved.	2703441	1471989532805	1471989532951	 	32
5326	56827	So, we need to get these resolved.	So, we need to get resolved.	2703490	1471989533124	1471989533251	g	71
5326	56827	So, we need to get these resolved.	So, we need to get resolved.	2703492	1471989533360	1471989533498	e	69
5326	56827	So, we need to get these resolved.	So, we need to get resolved.	2703495	1471989533576	1471989533685	t	84
5326	56827	So, we need to get these resolved.	So, we need to get resolved.	2703497	1471989533841	1471989533981	 	32
5326	56827	So, we need to get these resolved.	So, we need to get resolved.	2703498	1471989534075	1471989534303	r	82
5326	56827	So, we need to get these resolved.	So, we need to get resolved.	2703566	1471989534262	1471989534383	e	69
5326	56827	So, we need to get these resolved.	So, we need to get resolved.	2703569	1471989534493	1471989534603	s	83
5326	56827	So, we need to get these resolved.	So, we need to get resolved.	2703575	1471989534697	1471989534786	o	79
5326	56827	So, we need to get these resolved.	So, we need to get resolved.	2703580	1471989534896	1471989535051	l	76
5326	56827	So, we need to get these resolved.	So, we need to get resolved.	2703582	1471989535223	1471989535366	v	86
5326	56827	So, we need to get these resolved.	So, we need to get resolved.	2703588	1471989535475	1471989535616	e	69
5326	56827	So, we need to get these resolved.	So, we need to get resolved.	2703609	1471989535704	1471989535817	d	68
5326	56827	So, we need to get these resolved.	So, we need to get resolved.	2703611	1471989535942	1471989536051	.	190
5326	56840	I'll let you know after lunch.	I'll let you know after lunch.	2704009	1471989539369	1471989539983	SHIFT	16
5326	56840	I'll let you know after lunch.	I'll let you know after lunch.	2704012	1471989540278	1471989540712	SHIFT	16
5326	56840	I'll let you know after lunch.	I'll let you know after lunch.	2704011	1471989540528	1471989540665	I	73
5326	56840	I'll let you know after lunch.	I'll let you know after lunch.	2704013	1471989541168	1471989541268	'	222
5326	56840	I'll let you know after lunch.	I'll let you know after lunch.	2704014	1471989541710	1471989541801	l	76
5326	56840	I'll let you know after lunch.	I'll let you know after lunch.	2704015	1471989541895	1471989541999	l	76
5326	56840	I'll let you know after lunch.	I'll let you know after lunch.	2704016	1471989542234	1471989542286	 	32
5326	56840	I'll let you know after lunch.	I'll let you know after lunch.	2704196	1471989542596	1471989542746	l	76
5326	56840	I'll let you know after lunch.	I'll let you know after lunch.	2704202	1471989542933	1471989543065	e	69
5326	56840	I'll let you know after lunch.	I'll let you know after lunch.	2704208	1471989543253	1471989543319	t	84
5326	56840	I'll let you know after lunch.	I'll let you know after lunch.	2704214	1471989544289	1471989544414	 	32
5326	56840	I'll let you know after lunch.	I'll let you know after lunch.	2704216	1471989544742	1471989544882	y	89
5326	56840	I'll let you know after lunch.	I'll let you know after lunch.	2704297	1471989544991	1471989545133	o	79
5326	56840	I'll let you know after lunch.	I'll let you know after lunch.	2704300	1471989545290	1471989545381	u	85
5326	56840	I'll let you know after lunch.	I'll let you know after lunch.	2704303	1471989545506	1471989545630	 	32
5326	56840	I'll let you know after lunch.	I'll let you know after lunch.	2704306	1471989545692	1471989545785	k	75
5326	56840	I'll let you know after lunch.	I'll let you know after lunch.	2704310	1471989546144	1471989546335	n	78
5326	56840	I'll let you know after lunch.	I'll let you know after lunch.	2704398	1471989546248	1471989546400	o	79
5326	56840	I'll let you know after lunch.	I'll let you know after lunch.	2704402	1471989546384	1471989546501	w	87
5326	56840	I'll let you know after lunch.	I'll let you know after lunch.	2704405	1471989547155	1471989547328	 	32
5326	56840	I'll let you know after lunch.	I'll let you know after lunch.	2704409	1471989547485	1471989547597	a	65
5326	56840	I'll let you know after lunch.	I'll let you know after lunch.	2704412	1471989547847	1471989547964	f	70
5326	56840	I'll let you know after lunch.	I'll let you know after lunch.	2704415	1471989548089	1471989548215	t	84
5326	56840	I'll let you know after lunch.	I'll let you know after lunch.	2704474	1471989548470	1471989548673	e	69
5326	56840	I'll let you know after lunch.	I'll let you know after lunch.	2704479	1471989548630	1471989548779	r	82
5326	56840	I'll let you know after lunch.	I'll let you know after lunch.	2704485	1471989548873	1471989548997	 	32
5326	56840	I'll let you know after lunch.	I'll let you know after lunch.	2704489	1471989549231	1471989549394	l	76
5326	56840	I'll let you know after lunch.	I'll let you know after lunch.	2704494	1471989549582	1471989549698	u	85
5326	56840	I'll let you know after lunch.	I'll let you know after lunch.	2704575	1471989549879	1471989550015	n	78
5326	56840	I'll let you know after lunch.	I'll let you know after lunch.	2704576	1471989550141	1471989550263	c	67
5326	56840	I'll let you know after lunch.	I'll let you know after lunch.	2704577	1471989550388	1471989550466	h	72
5326	56840	I'll let you know after lunch.	I'll let you know after lunch.	2704578	1471989550887	1471989550967	.	190
5326	56856	It was the best dinner table conversation we've had in a long time.	It was the best dinner table conversation we've had in a long time.	2704941	1471989553717	1471989554522	SHIFT	16
5326	56856	It was the best dinner table conversation we've had in a long time.	It was the best dinner table conversation we've had in a long time.	2704939	1471989554238	1471989554350	I	73
5326	56856	It was the best dinner table conversation we've had in a long time.	It was the best dinner table conversation we've had in a long time.	2704943	1471989555176	1471989555266	t	84
5326	56856	It was the best dinner table conversation we've had in a long time.	It was the best dinner table conversation we've had in a long time.	2704946	1471989555563	1471989555744	 	32
5326	56856	It was the best dinner table conversation we've had in a long time.	It was the best dinner table conversation we've had in a long time.	2704950	1471989555869	1471989555997	w	87
5326	56856	It was the best dinner table conversation we've had in a long time.	It was the best dinner table conversation we've had in a long time.	2704954	1471989556294	1471989556556	a	65
5326	56856	It was the best dinner table conversation we've had in a long time.	It was the best dinner table conversation we've had in a long time.	2705022	1471989556587	1471989556714	s	83
5326	56856	It was the best dinner table conversation we've had in a long time.	It was the best dinner table conversation we've had in a long time.	2705027	1471989556839	1471989556994	 	32
5326	56856	It was the best dinner table conversation we've had in a long time.	It was the best dinner table conversation we've had in a long time.	2705031	1471989557182	1471989557297	t	84
5326	56856	It was the best dinner table conversation we've had in a long time.	It was the best dinner table conversation we've had in a long time.	2705036	1471989557391	1471989557528	h	72
5326	56856	It was the best dinner table conversation we've had in a long time.	It was the best dinner table conversation we've had in a long time.	2705039	1471989557731	1471989557846	e	69
5326	56856	It was the best dinner table conversation we've had in a long time.	It was the best dinner table conversation we've had in a long time.	2705109	1471989557946	1471989558110	 	32
5326	56856	It was the best dinner table conversation we've had in a long time.	It was the best dinner table conversation we've had in a long time.	2705112	1471989558126	1471989558302	b	66
5326	56856	It was the best dinner table conversation we've had in a long time.	It was the best dinner table conversation we've had in a long time.	2705115	1471989558293	1471989558425	e	69
5326	56856	It was the best dinner table conversation we've had in a long time.	It was the best dinner table conversation we've had in a long time.	2705117	1471989558550	1471989558678	s	83
5326	56856	It was the best dinner table conversation we've had in a long time.	It was the best dinner table conversation we've had in a long time.	2705118	1471989559006	1471989559130	t	84
5326	56856	It was the best dinner table conversation we've had in a long time.	It was the best dinner table conversation we've had in a long time.	2705193	1471989559314	1471989559460	 	32
5326	56856	It was the best dinner table conversation we've had in a long time.	It was the best dinner table conversation we've had in a long time.	2705196	1471989559601	1471989559712	d	68
5326	56856	It was the best dinner table conversation we've had in a long time.	It was the best dinner table conversation we've had in a long time.	2705198	1471989559837	1471989559978	i	73
5326	56856	It was the best dinner table conversation we've had in a long time.	It was the best dinner table conversation we've had in a long time.	2705203	1471989560150	1471989560232	n	78
5326	56856	It was the best dinner table conversation we've had in a long time.	It was the best dinner table conversation we've had in a long time.	2705207	1471989560311	1471989560428	n	78
5326	56856	It was the best dinner table conversation we've had in a long time.	It was the best dinner table conversation we've had in a long time.	2705289	1471989560594	1471989560728	e	69
5326	56856	It was the best dinner table conversation we've had in a long time.	It was the best dinner table conversation we've had in a long time.	2705292	1471989560916	1471989561043	r	82
5326	56856	It was the best dinner table conversation we've had in a long time.	It was the best dinner table conversation we've had in a long time.	2705295	1471989561121	1471989561309	 	32
5326	56856	It was the best dinner table conversation we've had in a long time.	It was the best dinner table conversation we've had in a long time.	2705299	1471989561465	1471989561549	t	84
5326	56856	It was the best dinner table conversation we've had in a long time.	It was the best dinner table conversation we've had in a long time.	2705305	1471989561612	1471989561761	a	65
5326	56856	It was the best dinner table conversation we've had in a long time.	It was the best dinner table conversation we've had in a long time.	2705400	1471989561915	1471989562043	b	66
5326	56856	It was the best dinner table conversation we've had in a long time.	It was the best dinner table conversation we've had in a long time.	2705404	1471989562154	1471989562312	l	76
5326	56856	It was the best dinner table conversation we've had in a long time.	It was the best dinner table conversation we've had in a long time.	2705409	1471989562481	1471989562613	e	69
5326	56856	It was the best dinner table conversation we've had in a long time.	It was the best dinner table conversation we've had in a long time.	2705411	1471989563130	1471989563216	 	32
5326	56856	It was the best dinner table conversation we've had in a long time.	It was the best dinner table conversation we've had in a long time.	2705417	1471989563404	1471989563510	c	67
5326	56856	It was the best dinner table conversation we've had in a long time.	It was the best dinner table conversation we've had in a long time.	2705483	1471989563635	1471989563794	o	79
5326	56856	It was the best dinner table conversation we've had in a long time.	It was the best dinner table conversation we've had in a long time.	2705485	1471989563982	1471989564126	n	78
5326	56856	It was the best dinner table conversation we've had in a long time.	It was the best dinner table conversation we've had in a long time.	2705487	1471989564392	1471989564527	v	86
5326	56856	It was the best dinner table conversation we've had in a long time.	It was the best dinner table conversation we've had in a long time.	2705489	1471989564636	1471989564762	e	69
5326	56856	It was the best dinner table conversation we've had in a long time.	It was the best dinner table conversation we've had in a long time.	2705490	1471989564840	1471989564931	r	82
5326	56856	It was the best dinner table conversation we've had in a long time.	It was the best dinner table conversation we've had in a long time.	2705567	1471989565178	1471989565381	s	83
5326	56856	It was the best dinner table conversation we've had in a long time.	It was the best dinner table conversation we've had in a long time.	2705574	1471989565280	1471989565474	a	65
5326	56856	It was the best dinner table conversation we've had in a long time.	It was the best dinner table conversation we've had in a long time.	2705582	1471989565631	1471989565730	t	84
5326	56856	It was the best dinner table conversation we've had in a long time.	It was the best dinner table conversation we've had in a long time.	2705588	1471989565875	1471989566093	i	73
5326	56856	It was the best dinner table conversation we've had in a long time.	It was the best dinner table conversation we've had in a long time.	2705778	1471989565950	1471989566130	o	79
5326	56856	It was the best dinner table conversation we've had in a long time.	It was the best dinner table conversation we've had in a long time.	2705782	1471989566411	1471989566559	n	78
5326	56856	It was the best dinner table conversation we've had in a long time.	It was the best dinner table conversation we've had in a long time.	2705786	1471989566809	1471989566942	 	32
5326	56856	It was the best dinner table conversation we've had in a long time.	It was the best dinner table conversation we've had in a long time.	2705789	1471989567192	1471989567375	w	87
5326	56856	It was the best dinner table conversation we've had in a long time.	It was the best dinner table conversation we've had in a long time.	2705793	1471989567593	1471989567680	e	69
5326	56856	It was the best dinner table conversation we've had in a long time.	It was the best dinner table conversation we've had in a long time.	2705799	1471989568936	1471989569090	'	222
5326	56856	It was the best dinner table conversation we've had in a long time.	It was the best dinner table conversation we've had in a long time.	2705943	1471989569502	1471989569628	v	86
5326	56856	It was the best dinner table conversation we've had in a long time.	It was the best dinner table conversation we've had in a long time.	2705945	1471989569753	1471989569878	e	69
5326	56856	It was the best dinner table conversation we've had in a long time.	It was the best dinner table conversation we've had in a long time.	2705949	1471989570191	1471989570327	 	32
5326	56856	It was the best dinner table conversation we've had in a long time.	It was the best dinner table conversation we've had in a long time.	2705956	1471989570686	1471989570765	h	72
5326	56856	It was the best dinner table conversation we've had in a long time.	It was the best dinner table conversation we've had in a long time.	2705960	1471989570812	1471989570996	a	65
5326	56856	It was the best dinner table conversation we've had in a long time.	It was the best dinner table conversation we've had in a long time.	2706076	1471989570927	1471989571074	d	68
5326	56856	It was the best dinner table conversation we've had in a long time.	It was the best dinner table conversation we've had in a long time.	2706078	1471989571089	1471989571240	 	32
5326	56856	It was the best dinner table conversation we've had in a long time.	It was the best dinner table conversation we've had in a long time.	2706084	1471989571396	1471989571543	i	73
5326	56856	It was the best dinner table conversation we've had in a long time.	It was the best dinner table conversation we've had in a long time.	2706090	1471989571746	1471989571894	n	78
5326	56856	It was the best dinner table conversation we've had in a long time.	It was the best dinner table conversation we've had in a long time.	2706097	1471989572112	1471989572241	 	32
5326	56856	It was the best dinner table conversation we've had in a long time.	It was the best dinner table conversation we've had in a long time.	2706104	1471989572366	1471989572493	a	65
5326	56856	It was the best dinner table conversation we've had in a long time.	It was the best dinner table conversation we've had in a long time.	2706180	1471989572604	1471989572757	 	32
5326	56856	It was the best dinner table conversation we've had in a long time.	It was the best dinner table conversation we've had in a long time.	2706183	1471989572928	1471989573092	l	76
5326	56856	It was the best dinner table conversation we've had in a long time.	It was the best dinner table conversation we've had in a long time.	2706186	1471989573186	1471989573324	o	79
5326	56856	It was the best dinner table conversation we've had in a long time.	It was the best dinner table conversation we've had in a long time.	2706189	1471989573465	1471989573609	n	78
5326	56856	It was the best dinner table conversation we've had in a long time.	It was the best dinner table conversation we've had in a long time.	2706193	1471989573687	1471989573826	g	71
5326	56856	It was the best dinner table conversation we've had in a long time.	It was the best dinner table conversation we've had in a long time.	2706236	1471989573888	1471989574027	 	32
5326	56856	It was the best dinner table conversation we've had in a long time.	It was the best dinner table conversation we've had in a long time.	2706239	1471989574074	1471989574176	t	84
5326	56856	It was the best dinner table conversation we've had in a long time.	It was the best dinner table conversation we've had in a long time.	2706242	1471989574223	1471989574327	i	73
5326	56856	It was the best dinner table conversation we've had in a long time.	It was the best dinner table conversation we've had in a long time.	2706245	1471989574406	1471989574512	m	77
5326	56856	It was the best dinner table conversation we've had in a long time.	It was the best dinner table conversation we've had in a long time.	2706249	1471989574622	1471989574697	e	69
5326	56856	It was the best dinner table conversation we've had in a long time.	It was the best dinner table conversation we've had in a long time.	2706265	1471989574864	1471989574962	.	190
