PARTICIPANT_ID	TEST_SECTION_ID	SENTENCE	USER_INPUT	KEYSTROKE_ID	PRESS_TIME	RELEASE_TIME	LETTER	KEYCODE
5336	56692	The rates would become effective after endorsement by parliament.	The rates would become effective after endorsement by parliment.	2697584	1471989197457	1471989197680		16
5336	56692	The rates would become effective after endorsement by parliament.	The rates would become effective after endorsement by parliment.	2697589	1471989197528	1471989197681		84
5336	56692	The rates would become effective after endorsement by parliament.	The rates would become effective after endorsement by parliment.	2697596	1471989197824	1471989197928		72
5336	56692	The rates would become effective after endorsement by parliament.	The rates would become effective after endorsement by parliment.	2697603	1471989198440	1471989198464		61
5336	56692	The rates would become effective after endorsement by parliament.	The rates would become effective after endorsement by parliment.	2697649	1471989198442	1471989198470	BKSP	8
5336	56692	The rates would become effective after endorsement by parliament.	The rates would become effective after endorsement by parliment.	2697653	1471989198584	1471989198632		61
5336	56692	The rates would become effective after endorsement by parliament.	The rates would become effective after endorsement by parliment.	2697655	1471989198752	1471989198832		8
5336	56692	The rates would become effective after endorsement by parliament.	The rates would become effective after endorsement by parliment.	2697657	1471989198928	1471989198984		8
5336	56692	The rates would become effective after endorsement by parliament.	The rates would become effective after endorsement by parliment.	2697661	1471989199072	1471989199128		8
5336	56692	The rates would become effective after endorsement by parliament.	The rates would become effective after endorsement by parliment.	2697664	1471989199216	1471989199264		8
5336	56692	The rates would become effective after endorsement by parliament.	The rates would become effective after endorsement by parliment.	2697777	1471989199344	1471989199408		8
5336	56692	The rates would become effective after endorsement by parliament.	The rates would become effective after endorsement by parliment.	2697782	1471989199448	1471989199928	SHIFT	16
5336	56692	The rates would become effective after endorsement by parliament.	The rates would become effective after endorsement by parliment.	2697787	1471989199808	1471989199928		84
5336	56692	The rates would become effective after endorsement by parliament.	The rates would become effective after endorsement by parliment.	2697792	1471989200152	1471989200248		72
5336	56692	The rates would become effective after endorsement by parliament.	The rates would become effective after endorsement by parliment.	2697796	1471989200920	1471989201088		69
5336	56692	The rates would become effective after endorsement by parliament.	The rates would become effective after endorsement by parliment.	2697820	1471989201016	1471989201160		32
5336	56692	The rates would become effective after endorsement by parliament.	The rates would become effective after endorsement by parliment.	2697823	1471989201264	1471989201400		82
5336	56692	The rates would become effective after endorsement by parliament.	The rates would become effective after endorsement by parliment.	2697827	1471989201344	1471989201463		65
5336	56692	The rates would become effective after endorsement by parliament.	The rates would become effective after endorsement by parliment.	2697832	1471989201568	1471989201680		84
5336	56692	The rates would become effective after endorsement by parliament.	The rates would become effective after endorsement by parliment.	2697839	1471989201736	1471989201928		69
5336	56692	The rates would become effective after endorsement by parliament.	The rates would become effective after endorsement by parliment.	2697886	1471989201816	1471989201976		83
5336	56692	The rates would become effective after endorsement by parliament.	The rates would become effective after endorsement by parliment.	2697891	1471989201976	1471989202120		32
5336	56692	The rates would become effective after endorsement by parliament.	The rates would become effective after endorsement by parliment.	2697896	1471989202151	1471989202288		87
5336	56692	The rates would become effective after endorsement by parliament.	The rates would become effective after endorsement by parliment.	2697900	1471989202288	1471989202383		79
5336	56692	The rates would become effective after endorsement by parliament.	The rates would become effective after endorsement by parliment.	2697903	1471989202544	1471989202607		85
5336	56692	The rates would become effective after endorsement by parliament.	The rates would become effective after endorsement by parliment.	2697907	1471989202792	1471989202904		76
5336	56692	The rates would become effective after endorsement by parliament.	The rates would become effective after endorsement by parliment.	2697930	1471989202906	1471989203031		68
5336	56692	The rates would become effective after endorsement by parliament.	The rates would become effective after endorsement by parliment.	2697937	1471989203000	1471989203111		32
5336	56692	The rates would become effective after endorsement by parliament.	The rates would become effective after endorsement by parliment.	2697942	1471989203215	1471989203335		66
5336	56692	The rates would become effective after endorsement by parliament.	The rates would become effective after endorsement by parliment.	2697946	1471989203296	1471989203416		69
5336	56692	The rates would become effective after endorsement by parliament.	The rates would become effective after endorsement by parliment.	2697953	1471989203496	1471989203616		67
5336	56692	The rates would become effective after endorsement by parliament.	The rates would become effective after endorsement by parliment.	2698020	1471989203592	1471989203720		79
5336	56692	The rates would become effective after endorsement by parliament.	The rates would become effective after endorsement by parliment.	2698021	1471989203688	1471989203760		77
5336	56692	The rates would become effective after endorsement by parliament.	The rates would become effective after endorsement by parliment.	2698025	1471989203720	1471989203855		69
5336	56692	The rates would become effective after endorsement by parliament.	The rates would become effective after endorsement by parliment.	2698027	1471989203816	1471989203952		32
5336	56692	The rates would become effective after endorsement by parliament.	The rates would become effective after endorsement by parliment.	2698031	1471989204224	1471989204336		69
5336	56692	The rates would become effective after endorsement by parliament.	The rates would become effective after endorsement by parliment.	2698035	1471989204432	1471989204536		70
5336	56692	The rates would become effective after endorsement by parliament.	The rates would become effective after endorsement by parliment.	2698088	1471989204624	1471989204855		69
5336	56692	The rates would become effective after endorsement by parliament.	The rates would become effective after endorsement by parliment.	2698092	1471989204856	1471989204920		67
5336	56692	The rates would become effective after endorsement by parliament.	The rates would become effective after endorsement by parliment.	2698096	1471989205184	1471989205247		8
5336	56692	The rates would become effective after endorsement by parliament.	The rates would become effective after endorsement by parliment.	2698118	1471989205336	1471989205399		8
5336	56692	The rates would become effective after endorsement by parliament.	The rates would become effective after endorsement by parliment.	2698120	1471989205496	1471989205536		8
5336	56692	The rates would become effective after endorsement by parliament.	The rates would become effective after endorsement by parliment.	2698124	1471989205624	1471989205744		70
5336	56692	The rates would become effective after endorsement by parliament.	The rates would become effective after endorsement by parliment.	2698122	1471989205625	1471989205704	BKSP	8
5336	56692	The rates would become effective after endorsement by parliament.	The rates would become effective after endorsement by parliment.	2698126	1471989205744	1471989205864		69
5336	56692	The rates would become effective after endorsement by parliament.	The rates would become effective after endorsement by parliment.	2698164	1471989205840	1471989205976		67
5336	56692	The rates would become effective after endorsement by parliament.	The rates would become effective after endorsement by parliment.	2698167	1471989206096	1471989206159		8
5336	56692	The rates would become effective after endorsement by parliament.	The rates would become effective after endorsement by parliment.	2698170	1471989206256	1471989206312		8
5336	56692	The rates would become effective after endorsement by parliament.	The rates would become effective after endorsement by parliment.	2698173	1471989206392	1471989206479		8
5336	56692	The rates would become effective after endorsement by parliament.	The rates would become effective after endorsement by parliment.	2698176	1471989206448	1471989206568		70
5336	56692	The rates would become effective after endorsement by parliament.	The rates would become effective after endorsement by parliment.	2698230	1471989206544	1471989206687		69
5336	56692	The rates would become effective after endorsement by parliament.	The rates would become effective after endorsement by parliment.	2698232	1471989206648	1471989206784		67
5336	56692	The rates would become effective after endorsement by parliament.	The rates would become effective after endorsement by parliment.	2698235	1471989206920	1471989207040		84
5336	56692	The rates would become effective after endorsement by parliament.	The rates would become effective after endorsement by parliment.	2698238	1471989207328	1471989207431		73
5336	56692	The rates would become effective after endorsement by parliament.	The rates would become effective after endorsement by parliment.	2698242	1471989207528	1471989207671		86
5336	56692	The rates would become effective after endorsement by parliament.	The rates would become effective after endorsement by parliment.	2698300	1471989207608	1471989207752		69
5336	56692	The rates would become effective after endorsement by parliament.	The rates would become effective after endorsement by parliment.	2698301	1471989207720	1471989207880		32
5336	56692	The rates would become effective after endorsement by parliament.	The rates would become effective after endorsement by parliment.	2698304	1471989208024	1471989208151		65
5336	56692	The rates would become effective after endorsement by parliament.	The rates would become effective after endorsement by parliment.	2698309	1471989208256	1471989208376		70
5336	56692	The rates would become effective after endorsement by parliament.	The rates would become effective after endorsement by parliment.	2698315	1471989208504	1471989208576		84
5336	56692	The rates would become effective after endorsement by parliament.	The rates would become effective after endorsement by parliment.	2698381	1471989208582	1471989208727		69
5336	56692	The rates would become effective after endorsement by parliament.	The rates would become effective after endorsement by parliment.	2698385	1471989208680	1471989208816		82
5336	56692	The rates would become effective after endorsement by parliament.	The rates would become effective after endorsement by parliment.	2698388	1471989209008	1471989209064		8
5336	56692	The rates would become effective after endorsement by parliament.	The rates would become effective after endorsement by parliment.	2698392	1471989209296	1471989209360		8
5336	56692	The rates would become effective after endorsement by parliament.	The rates would become effective after endorsement by parliment.	2698396	1471989209440	1471989209511		8
5336	56692	The rates would become effective after endorsement by parliament.	The rates would become effective after endorsement by parliment.	2698453	1471989209608	1471989209672		8
5336	56692	The rates would become effective after endorsement by parliament.	The rates would become effective after endorsement by parliment.	2698457	1471989210288	1471989210383		84
5336	56692	The rates would become effective after endorsement by parliament.	The rates would become effective after endorsement by parliment.	2698466	1471989210448	1471989210559		69
5336	56692	The rates would become effective after endorsement by parliament.	The rates would become effective after endorsement by parliment.	2698474	1471989210504	1471989210640		82
5336	56692	The rates would become effective after endorsement by parliament.	The rates would become effective after endorsement by parliment.	2698555	1471989210608	1471989210743		32
5336	56692	The rates would become effective after endorsement by parliament.	The rates would become effective after endorsement by parliment.	2698558	1471989211168	1471989211280		69
5336	56692	The rates would become effective after endorsement by parliament.	The rates would become effective after endorsement by parliment.	2698563	1471989211351	1471989211431		77
5336	56692	The rates would become effective after endorsement by parliament.	The rates would become effective after endorsement by parliment.	2698567	1471989211432	1471989211528		68
5336	56692	The rates would become effective after endorsement by parliament.	The rates would become effective after endorsement by parliment.	2698572	1471989211744	1471989211824		8
5336	56692	The rates would become effective after endorsement by parliament.	The rates would become effective after endorsement by parliment.	2698575	1471989211904	1471989211992		8
5336	56692	The rates would become effective after endorsement by parliament.	The rates would become effective after endorsement by parliment.	2698639	1471989212128	1471989212224		78
5336	56692	The rates would become effective after endorsement by parliament.	The rates would become effective after endorsement by parliment.	2698642	1471989212263	1471989212344		68
5336	56692	The rates would become effective after endorsement by parliament.	The rates would become effective after endorsement by parliment.	2698645	1471989212432	1471989212535		79
5336	56692	The rates would become effective after endorsement by parliament.	The rates would become effective after endorsement by parliment.	2698648	1471989212984	1471989213072		82
5336	56692	The rates would become effective after endorsement by parliament.	The rates would become effective after endorsement by parliment.	2698652	1471989213192	1471989213320		83
5336	56692	The rates would become effective after endorsement by parliament.	The rates would become effective after endorsement by parliment.	2698700	1471989213248	1471989213352		69
5336	56692	The rates would become effective after endorsement by parliament.	The rates would become effective after endorsement by parliment.	2698703	1471989213552	1471989213584		77
5336	56692	The rates would become effective after endorsement by parliament.	The rates would become effective after endorsement by parliment.	2698706	1471989213624	1471989213664		69
5336	56692	The rates would become effective after endorsement by parliament.	The rates would become effective after endorsement by parliment.	2698709	1471989214072	1471989214151		78
5336	56692	The rates would become effective after endorsement by parliament.	The rates would become effective after endorsement by parliment.	2698712	1471989214216	1471989214360		84
5336	56692	The rates would become effective after endorsement by parliament.	The rates would become effective after endorsement by parliment.	2698735	1471989214362	1471989214479		32
5336	56692	The rates would become effective after endorsement by parliament.	The rates would become effective after endorsement by parliment.	2698738	1471989214584	1471989214648		8
5336	56692	The rates would become effective after endorsement by parliament.	The rates would become effective after endorsement by parliment.	2698740	1471989214760	1471989214792		8
5336	56692	The rates would become effective after endorsement by parliament.	The rates would become effective after endorsement by parliment.	2698742	1471989214856	1471989214936		8
5336	56692	The rates would become effective after endorsement by parliament.	The rates would become effective after endorsement by parliment.	2698744	1471989215016	1471989215080		8
5336	56692	The rates would become effective after endorsement by parliament.	The rates would become effective after endorsement by parliment.	2698860	1471989216280	1471989216432		78
5336	56692	The rates would become effective after endorsement by parliament.	The rates would become effective after endorsement by parliment.	2698863	1471989216352	1471989216504		84
5336	56692	The rates would become effective after endorsement by parliament.	The rates would become effective after endorsement by parliment.	2698866	1471989216488	1471989216631		32
5336	56692	The rates would become effective after endorsement by parliament.	The rates would become effective after endorsement by parliment.	2698870	1471989216752	1471989216816		66
5336	56692	The rates would become effective after endorsement by parliament.	The rates would become effective after endorsement by parliment.	2698873	1471989216920	1471989217040		89
5336	56692	The rates would become effective after endorsement by parliament.	The rates would become effective after endorsement by parliment.	2698951	1471989217192	1471989217303		32
5336	56692	The rates would become effective after endorsement by parliament.	The rates would become effective after endorsement by parliment.	2698953	1471989217984	1471989218064		80
5336	56692	The rates would become effective after endorsement by parliament.	The rates would become effective after endorsement by parliment.	2698956	1471989218032	1471989218168		65
5336	56692	The rates would become effective after endorsement by parliament.	The rates would become effective after endorsement by parliment.	2698960	1471989218120	1471989218240		82
5336	56692	The rates would become effective after endorsement by parliament.	The rates would become effective after endorsement by parliment.	2698985	1471989218200	1471989218287		76
5336	56692	The rates would become effective after endorsement by parliament.	The rates would become effective after endorsement by parliment.	2698992	1471989218384	1471989218504		73
5336	56692	The rates would become effective after endorsement by parliament.	The rates would become effective after endorsement by parliment.	2698999	1471989218464	1471989218551		77
5336	56692	The rates would become effective after endorsement by parliament.	The rates would become effective after endorsement by parliment.	2699006	1471989218552	1471989218632		69
5336	56692	The rates would become effective after endorsement by parliament.	The rates would become effective after endorsement by parliment.	2699013	1471989218632	1471989218744		78
5336	56692	The rates would become effective after endorsement by parliament.	The rates would become effective after endorsement by parliment.	2699020	1471989218744	1471989218840		84
5336	56692	The rates would become effective after endorsement by parliament.	The rates would become effective after endorsement by parliment.	2699084	1471989219608	1471989219696		190
5336	56746	Let me know if it doesn't go away.	Let me know if it doesn't go away.	2699242	1471989222416	1471989222496		76
5336	56746	Let me know if it doesn't go away.	Let me know if it doesn't go away.	2699246	1471989222496	1471989222640		69
5336	56746	Let me know if it doesn't go away.	Let me know if it doesn't go away.	2699250	1471989222624	1471989222784		84
5336	56746	Let me know if it doesn't go away.	Let me know if it doesn't go away.	2699256	1471989222784	1471989222864		32
5336	56746	Let me know if it doesn't go away.	Let me know if it doesn't go away.	2699261	1471989222887	1471989222984		77
5336	56746	Let me know if it doesn't go away.	Let me know if it doesn't go away.	2699419	1471989223160	1471989223959		8
5336	56746	Let me know if it doesn't go away.	Let me know if it doesn't go away.	2699424	1471989224048	1471989224992	SHIFT	16
5336	56746	Let me know if it doesn't go away.	Let me know if it doesn't go away.	2699421	1471989224783	1471989224872		76
5336	56746	Let me know if it doesn't go away.	Let me know if it doesn't go away.	2699428	1471989225040	1471989225144		69
5336	56746	Let me know if it doesn't go away.	Let me know if it doesn't go away.	2699432	1471989225328	1471989225472		84
5336	56746	Let me know if it doesn't go away.	Let me know if it doesn't go away.	2699486	1471989225432	1471989225536		32
5336	56746	Let me know if it doesn't go away.	Let me know if it doesn't go away.	2699491	1471989225536	1471989225664		77
5336	56746	Let me know if it doesn't go away.	Let me know if it doesn't go away.	2699497	1471989225664	1471989225752		69
5336	56746	Let me know if it doesn't go away.	Let me know if it doesn't go away.	2699498	1471989225696	1471989225816		32
5336	56746	Let me know if it doesn't go away.	Let me know if it doesn't go away.	2699500	1471989226128	1471989226248		75
5336	56746	Let me know if it doesn't go away.	Let me know if it doesn't go away.	2699502	1471989226248	1471989226328		78
5336	56746	Let me know if it doesn't go away.	Let me know if it doesn't go away.	2699523	1471989226360	1471989226472		79
5336	56746	Let me know if it doesn't go away.	Let me know if it doesn't go away.	2699529	1471989226440	1471989226552		87
5336	56746	Let me know if it doesn't go away.	Let me know if it doesn't go away.	2699537	1471989226504	1471989226615		32
5336	56746	Let me know if it doesn't go away.	Let me know if it doesn't go away.	2699543	1471989226744	1471989226848		73
5336	56746	Let me know if it doesn't go away.	Let me know if it doesn't go away.	2699549	1471989226848	1471989226992		70
5336	56746	Let me know if it doesn't go away.	Let me know if it doesn't go away.	2699572	1471989226944	1471989227064		32
5336	56746	Let me know if it doesn't go away.	Let me know if it doesn't go away.	2699576	1471989227192	1471989227280		73
5336	56746	Let me know if it doesn't go away.	Let me know if it doesn't go away.	2699584	1471989227248	1471989227400		84
5336	56746	Let me know if it doesn't go away.	Let me know if it doesn't go away.	2699588	1471989227360	1471989227480		32
5336	56746	Let me know if it doesn't go away.	Let me know if it doesn't go away.	2699592	1471989227705	1471989227808		68
5336	56746	Let me know if it doesn't go away.	Let me know if it doesn't go away.	2699595	1471989227847	1471989227943		79
5336	56746	Let me know if it doesn't go away.	Let me know if it doesn't go away.	2699668	1471989227968	1471989228088		69
5336	56746	Let me know if it doesn't go away.	Let me know if it doesn't go away.	2699672	1471989228032	1471989228168		83
5336	56746	Let me know if it doesn't go away.	Let me know if it doesn't go away.	2699675	1471989228192	1471989228287		78
5336	56746	Let me know if it doesn't go away.	Let me know if it doesn't go away.	2699679	1471989229384	1471989229480		190
5336	56746	Let me know if it doesn't go away.	Let me know if it doesn't go away.	2699683	1471989229480	1471989229608		84
5336	56746	Let me know if it doesn't go away.	Let me know if it doesn't go away.	2699719	1471989229610	1471989229735		32
5336	56746	Let me know if it doesn't go away.	Let me know if it doesn't go away.	2699725	1471989230224	1471989230304		8
5336	56746	Let me know if it doesn't go away.	Let me know if it doesn't go away.	2699728	1471989230392	1471989230456		8
5336	56746	Let me know if it doesn't go away.	Let me know if it doesn't go away.	2699733	1471989230536	1471989230576		8
5336	56746	Let me know if it doesn't go away.	Let me know if it doesn't go away.	2699739	1471989230656	1471989230719		8
5336	56746	Let me know if it doesn't go away.	Let me know if it doesn't go away.	2699859	1471989231592	1471989231672		78
5336	56746	Let me know if it doesn't go away.	Let me know if it doesn't go away.	2699863	1471989231768	1471989231880		59
5336	56746	Let me know if it doesn't go away.	Let me know if it doesn't go away.	2699868	1471989231856	1471989231984		84
5336	56746	Let me know if it doesn't go away.	Let me know if it doesn't go away.	2699877	1471989231952	1471989232072		32
5336	56746	Let me know if it doesn't go away.	Let me know if it doesn't go away.	2699882	1471989232776	1471989232831		8
5336	56746	Let me know if it doesn't go away.	Let me know if it doesn't go away.	2700020	1471989232936	1471989232984		8
5336	56746	Let me know if it doesn't go away.	Let me know if it doesn't go away.	2700023	1471989233056	1471989233135		8
5336	56746	Let me know if it doesn't go away.	Let me know if it doesn't go away.	2700029	1471989233856	1471989233936		59
5336	56746	Let me know if it doesn't go away.	Let me know if it doesn't go away.	2700033	1471989234608	1471989234671		8
5336	56746	Let me know if it doesn't go away.	Let me know if it doesn't go away.	2700037	1471989234839	1471989234920		222
5336	56746	Let me know if it doesn't go away.	Let me know if it doesn't go away.	2700165	1471989235328	1471989235424		8
5336	56746	Let me know if it doesn't go away.	Let me know if it doesn't go away.	2700170	1471989235648	1471989235784		84
5336	56746	Let me know if it doesn't go away.	Let me know if it doesn't go away.	2700174	1471989235736	1471989235879		32
5336	56746	Let me know if it doesn't go away.	Let me know if it doesn't go away.	2700177	1471989236384	1471989236480		71
5336	56746	Let me know if it doesn't go away.	Let me know if it doesn't go away.	2700180	1471989236512	1471989236600		79
5336	56746	Let me know if it doesn't go away.	Let me know if it doesn't go away.	2700245	1471989236672	1471989236799		32
5336	56746	Let me know if it doesn't go away.	Let me know if it doesn't go away.	2700251	1471989237000	1471989237176		65
5336	56746	Let me know if it doesn't go away.	Let me know if it doesn't go away.	2700253	1471989237128	1471989237255		87
5336	56746	Let me know if it doesn't go away.	Let me know if it doesn't go away.	2700258	1471989237256	1471989237389		65
5336	56746	Let me know if it doesn't go away.	Let me know if it doesn't go away.	2700264	1471989237952	1471989238039		89
5336	56746	Let me know if it doesn't go away.	Let me know if it doesn't go away.	2700346	1471989238168	1471989238263		190
5336	56746	Let me know if it doesn't go away.	Let me know if it doesn't go away.	2700351	1471989238327	1471989238440		220
5336	56773	What will happen to this project?	What will happen to this project?	2700536	1471989239136	1471989241647		8
5336	56773	What will happen to this project?	What will happen to this project?	2700532	1471989241048	1471989241112		87
5336	56773	What will happen to this project?	What will happen to this project?	2700540	1471989241663	1471989241880	SHIFT	16
5336	56773	What will happen to this project?	What will happen to this project?	2700544	1471989241784	1471989241880		87
5336	56773	What will happen to this project?	What will happen to this project?	2700547	1471989241880	1471989241960		72
5336	56773	What will happen to this project?	What will happen to this project?	2700550	1471989242048	1471989242159		65
5336	56773	What will happen to this project?	What will happen to this project?	2700554	1471989242191	1471989242288		84
5336	56773	What will happen to this project?	What will happen to this project?	2700600	1471989242400	1471989242528		32
5336	56773	What will happen to this project?	What will happen to this project?	2700603	1471989242623	1471989242743		87
5336	56773	What will happen to this project?	What will happen to this project?	2700606	1471989242816	1471989242896		73
5336	56773	What will happen to this project?	What will happen to this project?	2700609	1471989243032	1471989243071		76
5336	56773	What will happen to this project?	What will happen to this project?	2700611	1471989243160	1471989243207		76
5336	56773	What will happen to this project?	What will happen to this project?	2700688	1471989243376	1471989243495		32
5336	56773	What will happen to this project?	What will happen to this project?	2700689	1471989243624	1471989243735		72
5336	56773	What will happen to this project?	What will happen to this project?	2700692	1471989244000	1471989244079		65
5336	56773	What will happen to this project?	What will happen to this project?	2700699	1471989244272	1471989244343		80
5336	56773	What will happen to this project?	What will happen to this project?	2700706	1471989244464	1471989244559		80
5336	56773	What will happen to this project?	What will happen to this project?	2700747	1471989244752	1471989244848		69
5336	56773	What will happen to this project?	What will happen to this project?	2700751	1471989244896	1471989245000		78
5336	56773	What will happen to this project?	What will happen to this project?	2700757	1471989245048	1471989245175		32
5336	56773	What will happen to this project?	What will happen to this project?	2700760	1471989245191	1471989245303		84
5336	56773	What will happen to this project?	What will happen to this project?	2700818	1471989245280	1471989245368		79
5336	56773	What will happen to this project?	What will happen to this project?	2700820	1471989245368	1471989245496		32
5336	56773	What will happen to this project?	What will happen to this project?	2700826	1471989245536	1471989245632		84
5336	56773	What will happen to this project?	What will happen to this project?	2700831	1471989245568	1471989245720		72
5336	56773	What will happen to this project?	What will happen to this project?	2700837	1471989245992	1471989246055		73
5336	56773	What will happen to this project?	What will happen to this project?	2700845	1471989246112	1471989246216		83
5336	56773	What will happen to this project?	What will happen to this project?	2700923	1471989246168	1471989246311		32
5336	56773	What will happen to this project?	What will happen to this project?	2700927	1471989246528	1471989246607		82
5336	56773	What will happen to this project?	What will happen to this project?	2700930	1471989246832	1471989246927		8
5336	56773	What will happen to this project?	What will happen to this project?	2700934	1471989247288	1471989247360		80
5336	56773	What will happen to this project?	What will happen to this project?	2700938	1471989247360	1471989247472		82
5336	56773	What will happen to this project?	What will happen to this project?	2700943	1471989247472	1471989247584		79
5336	56773	What will happen to this project?	What will happen to this project?	2701018	1471989247744	1471989247832		74
5336	56773	What will happen to this project?	What will happen to this project?	2701022	1471989247864	1471989248031		69
5336	56773	What will happen to this project?	What will happen to this project?	2701027	1471989247960	1471989248048		67
5336	56773	What will happen to this project?	What will happen to this project?	2701033	1471989248264	1471989248362		84
5336	56773	What will happen to this project?	What will happen to this project?	2701043	1471989248448	1471989248704	SHIFT	16
5336	56773	What will happen to this project?	What will happen to this project?	2701035	1471989248536	1471989248705		191
5336	56786	Clinton said Tuesday he would make an announcement by Thursday.	Clinton said Tuesday he would make an announcement by Thursday	2701208	1471989251008	1471989251208	SHIFT	16
5336	56786	Clinton said Tuesday he would make an announcement by Thursday.	Clinton said Tuesday he would make an announcement by Thursday	2701214	1471989251096	1471989251208		67
5336	56786	Clinton said Tuesday he would make an announcement by Thursday.	Clinton said Tuesday he would make an announcement by Thursday	2701219	1471989251184	1471989251239		76
5336	56786	Clinton said Tuesday he would make an announcement by Thursday.	Clinton said Tuesday he would make an announcement by Thursday	2701223	1471989251344	1471989251464		73
5336	56786	Clinton said Tuesday he would make an announcement by Thursday.	Clinton said Tuesday he would make an announcement by Thursday	2701227	1471989251440	1471989251512		78
5336	56786	Clinton said Tuesday he would make an announcement by Thursday.	Clinton said Tuesday he would make an announcement by Thursday	2701270	1471989251496	1471989251600		84
5336	56786	Clinton said Tuesday he would make an announcement by Thursday.	Clinton said Tuesday he would make an announcement by Thursday	2701272	1471989251600	1471989251727		79
5336	56786	Clinton said Tuesday he would make an announcement by Thursday.	Clinton said Tuesday he would make an announcement by Thursday	2701276	1471989251984	1471989252063		8
5336	56786	Clinton said Tuesday he would make an announcement by Thursday.	Clinton said Tuesday he would make an announcement by Thursday	2701281	1471989252160	1471989252223		8
5336	56786	Clinton said Tuesday he would make an announcement by Thursday.	Clinton said Tuesday he would make an announcement by Thursday	2701286	1471989252295	1471989252368		8
5336	56786	Clinton said Tuesday he would make an announcement by Thursday.	Clinton said Tuesday he would make an announcement by Thursday	2701290	1471989252448	1471989252527		8
5336	56786	Clinton said Tuesday he would make an announcement by Thursday.	Clinton said Tuesday he would make an announcement by Thursday	2701312	1471989252592	1471989252656		8
5336	56786	Clinton said Tuesday he would make an announcement by Thursday.	Clinton said Tuesday he would make an announcement by Thursday	2701317	1471989252823	1471989252911		76
5336	56786	Clinton said Tuesday he would make an announcement by Thursday.	Clinton said Tuesday he would make an announcement by Thursday	2701320	1471989253007	1471989253138		73
5336	56786	Clinton said Tuesday he would make an announcement by Thursday.	Clinton said Tuesday he would make an announcement by Thursday	2701324	1471989253133	1471989253192		78
5336	56786	Clinton said Tuesday he would make an announcement by Thursday.	Clinton said Tuesday he would make an announcement by Thursday	2701327	1471989253192	1471989253288		84
5336	56786	Clinton said Tuesday he would make an announcement by Thursday.	Clinton said Tuesday he would make an announcement by Thursday	2701388	1471989253256	1471989253408		79
5336	56786	Clinton said Tuesday he would make an announcement by Thursday.	Clinton said Tuesday he would make an announcement by Thursday	2701392	1471989253360	1471989253472		78
5336	56786	Clinton said Tuesday he would make an announcement by Thursday.	Clinton said Tuesday he would make an announcement by Thursday	2701395	1471989253760	1471989253904		32
5336	56786	Clinton said Tuesday he would make an announcement by Thursday.	Clinton said Tuesday he would make an announcement by Thursday	2701398	1471989253968	1471989254096		83
5336	56786	Clinton said Tuesday he would make an announcement by Thursday.	Clinton said Tuesday he would make an announcement by Thursday	2701402	1471989254096	1471989254200		65
5336	56786	Clinton said Tuesday he would make an announcement by Thursday.	Clinton said Tuesday he would make an announcement by Thursday	2701407	1471989254352	1471989254463		73
5336	56786	Clinton said Tuesday he would make an announcement by Thursday.	Clinton said Tuesday he would make an announcement by Thursday	2701510	1471989254432	1471989254588		68
5336	56786	Clinton said Tuesday he would make an announcement by Thursday.	Clinton said Tuesday he would make an announcement by Thursday	2701515	1471989254528	1471989254648		32
5336	56786	Clinton said Tuesday he would make an announcement by Thursday.	Clinton said Tuesday he would make an announcement by Thursday	2701526	1471989255248	1471989255776	SHIFT	16
5336	56786	Clinton said Tuesday he would make an announcement by Thursday.	Clinton said Tuesday he would make an announcement by Thursday	2701521	1471989255576	1471989255664		84
5336	56786	Clinton said Tuesday he would make an announcement by Thursday.	Clinton said Tuesday he would make an announcement by Thursday	2701530	1471989255840	1471989255920		85
5336	56786	Clinton said Tuesday he would make an announcement by Thursday.	Clinton said Tuesday he would make an announcement by Thursday	2701535	1471989255952	1471989256080		69
5336	56786	Clinton said Tuesday he would make an announcement by Thursday.	Clinton said Tuesday he would make an announcement by Thursday	2701603	1471989256016	1471989256144		83
5336	56786	Clinton said Tuesday he would make an announcement by Thursday.	Clinton said Tuesday he would make an announcement by Thursday	2701611	1471989256248	1471989256392		68
5336	56786	Clinton said Tuesday he would make an announcement by Thursday.	Clinton said Tuesday he would make an announcement by Thursday	2701618	1471989256352	1471989256480		65
5336	56786	Clinton said Tuesday he would make an announcement by Thursday.	Clinton said Tuesday he would make an announcement by Thursday	2701627	1471989256520	1471989256632		89
5336	56786	Clinton said Tuesday he would make an announcement by Thursday.	Clinton said Tuesday he would make an announcement by Thursday	2701635	1471989256888	1471989257016		32
5336	56786	Clinton said Tuesday he would make an announcement by Thursday.	Clinton said Tuesday he would make an announcement by Thursday	2701641	1471989257336	1471989257416		72
5336	56786	Clinton said Tuesday he would make an announcement by Thursday.	Clinton said Tuesday he would make an announcement by Thursday	2701663	1471989257420	1471989257536		69
5336	56786	Clinton said Tuesday he would make an announcement by Thursday.	Clinton said Tuesday he would make an announcement by Thursday	2701667	1471989257512	1471989257615		32
5336	56786	Clinton said Tuesday he would make an announcement by Thursday.	Clinton said Tuesday he would make an announcement by Thursday	2701670	1471989257656	1471989257744		87
5336	56786	Clinton said Tuesday he would make an announcement by Thursday.	Clinton said Tuesday he would make an announcement by Thursday	2701674	1471989257744	1471989257832		79
5336	56786	Clinton said Tuesday he would make an announcement by Thursday.	Clinton said Tuesday he would make an announcement by Thursday	2701677	1471989257976	1471989258056		85
5336	56786	Clinton said Tuesday he would make an announcement by Thursday.	Clinton said Tuesday he would make an announcement by Thursday	2701711	1471989258192	1471989258288		76
5336	56786	Clinton said Tuesday he would make an announcement by Thursday.	Clinton said Tuesday he would make an announcement by Thursday	2701716	1471989258288	1471989258392		68
5336	56786	Clinton said Tuesday he would make an announcement by Thursday.	Clinton said Tuesday he would make an announcement by Thursday	2701721	1471989258368	1471989258471		32
5336	56786	Clinton said Tuesday he would make an announcement by Thursday.	Clinton said Tuesday he would make an announcement by Thursday	2701725	1471989258424	1471989258528		77
5336	56786	Clinton said Tuesday he would make an announcement by Thursday.	Clinton said Tuesday he would make an announcement by Thursday	2701729	1471989258528	1471989258624		65
5336	56786	Clinton said Tuesday he would make an announcement by Thursday.	Clinton said Tuesday he would make an announcement by Thursday	2701770	1471989258720	1471989258832		75
5336	56786	Clinton said Tuesday he would make an announcement by Thursday.	Clinton said Tuesday he would make an announcement by Thursday	2701777	1471989258784	1471989258912		69
5336	56786	Clinton said Tuesday he would make an announcement by Thursday.	Clinton said Tuesday he would make an announcement by Thursday	2701788	1471989258872	1471989259016		32
5336	56786	Clinton said Tuesday he would make an announcement by Thursday.	Clinton said Tuesday he would make an announcement by Thursday	2701795	1471989259152	1471989259240		65
5336	56786	Clinton said Tuesday he would make an announcement by Thursday.	Clinton said Tuesday he would make an announcement by Thursday	2701808	1471989259296	1471989259343		78
5336	56786	Clinton said Tuesday he would make an announcement by Thursday.	Clinton said Tuesday he would make an announcement by Thursday	2701845	1471989259360	1471989259472		32
5336	56786	Clinton said Tuesday he would make an announcement by Thursday.	Clinton said Tuesday he would make an announcement by Thursday	2701854	1471989259536	1471989259608		65
5336	56786	Clinton said Tuesday he would make an announcement by Thursday.	Clinton said Tuesday he would make an announcement by Thursday	2701865	1471989259872	1471989259936		78
5336	56786	Clinton said Tuesday he would make an announcement by Thursday.	Clinton said Tuesday he would make an announcement by Thursday	2701872	1471989260000	1471989260064		78
5336	56786	Clinton said Tuesday he would make an announcement by Thursday.	Clinton said Tuesday he would make an announcement by Thursday	2701877	1471989260144	1471989260248		79
5336	56786	Clinton said Tuesday he would make an announcement by Thursday.	Clinton said Tuesday he would make an announcement by Thursday	2701894	1471989260352	1471989260464		85
5336	56786	Clinton said Tuesday he would make an announcement by Thursday.	Clinton said Tuesday he would make an announcement by Thursday	2701899	1471989260440	1471989260552		78
5336	56786	Clinton said Tuesday he would make an announcement by Thursday.	Clinton said Tuesday he would make an announcement by Thursday	2701903	1471989260504	1471989260616		67
5336	56786	Clinton said Tuesday he would make an announcement by Thursday.	Clinton said Tuesday he would make an announcement by Thursday	2701911	1471989260552	1471989260663		69
5336	56786	Clinton said Tuesday he would make an announcement by Thursday.	Clinton said Tuesday he would make an announcement by Thursday	2701919	1471989260664	1471989260743		77
5336	56786	Clinton said Tuesday he would make an announcement by Thursday.	Clinton said Tuesday he would make an announcement by Thursday	2701966	1471989261328	1471989261440		69
5336	56786	Clinton said Tuesday he would make an announcement by Thursday.	Clinton said Tuesday he would make an announcement by Thursday	2701968	1471989261440	1471989261536		78
5336	56786	Clinton said Tuesday he would make an announcement by Thursday.	Clinton said Tuesday he would make an announcement by Thursday	2701973	1471989261536	1471989261680		84
5336	56786	Clinton said Tuesday he would make an announcement by Thursday.	Clinton said Tuesday he would make an announcement by Thursday	2701977	1471989261616	1471989261775		32
5336	56786	Clinton said Tuesday he would make an announcement by Thursday.	Clinton said Tuesday he would make an announcement by Thursday	2701981	1471989262072	1471989262152		66
5336	56786	Clinton said Tuesday he would make an announcement by Thursday.	Clinton said Tuesday he would make an announcement by Thursday	2702029	1471989262320	1471989262464		89
5336	56786	Clinton said Tuesday he would make an announcement by Thursday.	Clinton said Tuesday he would make an announcement by Thursday	2702031	1471989262416	1471989262560		32
5336	56786	Clinton said Tuesday he would make an announcement by Thursday.	Clinton said Tuesday he would make an announcement by Thursday	2702032	1471989262880	1471989263048		84
5336	56786	Clinton said Tuesday he would make an announcement by Thursday.	Clinton said Tuesday he would make an announcement by Thursday	2702034	1471989262960	1471989263071		72
5336	56786	Clinton said Tuesday he would make an announcement by Thursday.	Clinton said Tuesday he would make an announcement by Thursday	2702038	1471989263240	1471989263288		8
5336	56786	Clinton said Tuesday he would make an announcement by Thursday.	Clinton said Tuesday he would make an announcement by Thursday	2702107	1471989263368	1471989263464		8
5336	56786	Clinton said Tuesday he would make an announcement by Thursday.	Clinton said Tuesday he would make an announcement by Thursday	2702110	1471989263464	1471989263672	SHIFT	16
5336	56786	Clinton said Tuesday he would make an announcement by Thursday.	Clinton said Tuesday he would make an announcement by Thursday	2702117	1471989263560	1471989263672		84
5336	56786	Clinton said Tuesday he would make an announcement by Thursday.	Clinton said Tuesday he would make an announcement by Thursday	2702123	1471989263808	1471989263904		72
5336	56786	Clinton said Tuesday he would make an announcement by Thursday.	Clinton said Tuesday he would make an announcement by Thursday	2702129	1471989264144	1471989264208		85
5336	56786	Clinton said Tuesday he would make an announcement by Thursday.	Clinton said Tuesday he would make an announcement by Thursday	2702135	1471989264448	1471989264528		82
5336	56786	Clinton said Tuesday he would make an announcement by Thursday.	Clinton said Tuesday he would make an announcement by Thursday	2702205	1471989264752	1471989264856		83
5336	56786	Clinton said Tuesday he would make an announcement by Thursday.	Clinton said Tuesday he would make an announcement by Thursday	2702209	1471989265120	1471989265240		68
5336	56786	Clinton said Tuesday he would make an announcement by Thursday.	Clinton said Tuesday he would make an announcement by Thursday	2702211	1471989265200	1471989265320		65
5336	56786	Clinton said Tuesday he would make an announcement by Thursday.	Clinton said Tuesday he would make an announcement by Thursday	2702215	1471989265904	1471989265984		89
5336	56813	I will try and find out.	I will try and find out	2702380	1471989267721	1471989268111	SHIFT	16
5336	56813	I will try and find out.	I will try and find out	2702378	1471989267992	1471989268080		73
5336	56813	I will try and find out.	I will try and find out	2702385	1471989268192	1471989268319		32
5336	56813	I will try and find out.	I will try and find out	2702392	1471989268288	1471989268399		87
5336	56813	I will try and find out.	I will try and find out	2702397	1471989268400	1471989268464		73
5336	56813	I will try and find out.	I will try and find out	2702405	1471989268624	1471989268648		76
5336	56813	I will try and find out.	I will try and find out	2702446	1471989268768	1471989268832		76
5336	56813	I will try and find out.	I will try and find out	2702451	1471989268936	1471989269040		32
5336	56813	I will try and find out.	I will try and find out	2702456	1471989269168	1471989269344		84
5336	56813	I will try and find out.	I will try and find out	2702462	1471989269296	1471989269432		82
5336	56813	I will try and find out.	I will try and find out	2702466	1471989269488	1471989269616		89
5336	56813	I will try and find out.	I will try and find out	2702522	1471989269584	1471989269728		32
5336	56813	I will try and find out.	I will try and find out	2702524	1471989269776	1471989269840		65
5336	56813	I will try and find out.	I will try and find out	2702526	1471989269840	1471989269919		78
5336	56813	I will try and find out.	I will try and find out	2702528	1471989270232	1471989270367		68
5336	56813	I will try and find out.	I will try and find out	2702530	1471989270328	1471989270447		32
5336	56813	I will try and find out.	I will try and find out	2702536	1471989270696	1471989270728		70
5336	56813	I will try and find out.	I will try and find out	2702581	1471989271144	1471989271288		73
5336	56813	I will try and find out.	I will try and find out	2702585	1471989271240	1471989271351		78
5336	56813	I will try and find out.	I will try and find out	2702590	1471989271376	1471989271504		68
5336	56813	I will try and find out.	I will try and find out	2702594	1471989271472	1471989271583		32
5336	56813	I will try and find out.	I will try and find out	2702597	1471989271584	1471989271656		79
5336	56813	I will try and find out.	I will try and find out	2702658	1471989271784	1471989271840		73
5336	56813	I will try and find out.	I will try and find out	2702661	1471989271840	1471989271944		84
5336	56813	I will try and find out.	I will try and find out	2702665	1471989272192	1471989272240		8
5336	56813	I will try and find out.	I will try and find out	2702667	1471989272328	1471989272408		8
5336	56813	I will try and find out.	I will try and find out	2702668	1471989272736	1471989272815		85
5336	56813	I will try and find out.	I will try and find out	2702673	1471989272864	1471989272951		84
5336	56820	There was no such accord.	There was no such accord.	2702859	1471989275008	1471989275247	SHIFT	16
5336	56820	There was no such accord.	There was no such accord.	2702862	1471989275192	1471989275312		84
5336	56820	There was no such accord.	There was no such accord.	2702864	1471989275344	1471989275431		72
5336	56820	There was no such accord.	There was no such accord.	2702865	1471989275528	1471989275592		69
5336	56820	There was no such accord.	There was no such accord.	2702866	1471989275928	1471989275976		8
5336	56820	There was no such accord.	There was no such accord.	2702922	1471989276440	1471989276576		82
5336	56820	There was no such accord.	There was no such accord.	2702924	1471989276544	1471989276639		69
5336	56820	There was no such accord.	There was no such accord.	2702926	1471989276624	1471989276784		32
5336	56820	There was no such accord.	There was no such accord.	2702928	1471989276832	1471989276944		87
5336	56820	There was no such accord.	There was no such accord.	2702930	1471989277104	1471989277248		65
5336	56820	There was no such accord.	There was no such accord.	2703006	1471989277200	1471989277343		83
5336	56820	There was no such accord.	There was no such accord.	2703013	1471989277384	1471989277536		32
5336	56820	There was no such accord.	There was no such accord.	2703019	1471989278320	1471989278448		78
5336	56820	There was no such accord.	There was no such accord.	2703024	1471989278400	1471989278487		79
5336	56820	There was no such accord.	There was no such accord.	2703030	1471989278488	1471989278608		32
5336	56820	There was no such accord.	There was no such accord.	2703032	1471989278728	1471989278831		83
5336	56820	There was no such accord.	There was no such accord.	2703094	1471989279600	1471989279688		85
5336	56820	There was no such accord.	There was no such accord.	2703095	1471989279688	1471989279799		67
5336	56820	There was no such accord.	There was no such accord.	2703097	1471989279752	1471989279847		72
5336	56820	There was no such accord.	There was no such accord.	2703100	1471989279879	1471989280016		32
5336	56820	There was no such accord.	There was no such accord.	2703199	1471989279968	1471989280120		65
5336	56820	There was no such accord.	There was no such accord.	2703204	1471989280088	1471989280160		67
5336	56820	There was no such accord.	There was no such accord.	2703208	1471989280256	1471989280368		67
5336	56820	There was no such accord.	There was no such accord.	2703212	1471989280368	1471989280472		79
5336	56820	There was no such accord.	There was no such accord.	2703215	1471989280664	1471989280768		68
5336	56820	There was no such accord.	There was no such accord.	2703219	1471989281256	1471989281312		8
5336	56820	There was no such accord.	There was no such accord.	2703308	1471989281392	1471989281472		8
5336	56820	There was no such accord.	There was no such accord.	2703310	1471989282344	1471989282408		79
5336	56820	There was no such accord.	There was no such accord.	2703312	1471989282455	1471989282528		82
5336	56820	There was no such accord.	There was no such accord.	2703314	1471989282640	1471989282751		68
5336	56820	There was no such accord.	There was no such accord.	2703318	1471989282783	1471989282855		190
5336	56832	Apparently, BP is using the correct pricing.	Apparently, BP is using the correct pricing	2703469	1471989284625	1471989285024	SHIFT	16
5336	56832	Apparently, BP is using the correct pricing.	Apparently, BP is using the correct pricing	2703473	1471989284889	1471989285024		65
5336	56832	Apparently, BP is using the correct pricing.	Apparently, BP is using the correct pricing	2703476	1471989285047	1471989285096		80
5336	56832	Apparently, BP is using the correct pricing.	Apparently, BP is using the correct pricing	2703478	1471989285200	1471989285287		80
5336	56832	Apparently, BP is using the correct pricing.	Apparently, BP is using the correct pricing	2703481	1471989285696	1471989285832		65
5336	56832	Apparently, BP is using the correct pricing.	Apparently, BP is using the correct pricing	2703603	1471989285784	1471989285896		82
5336	56832	Apparently, BP is using the correct pricing.	Apparently, BP is using the correct pricing	2703604	1471989286592	1471989286671		8
5336	56832	Apparently, BP is using the correct pricing.	Apparently, BP is using the correct pricing	2703605	1471989287480	1471989287575		82
5336	56832	Apparently, BP is using the correct pricing.	Apparently, BP is using the correct pricing	2703606	1471989287672	1471989287768		69
5336	56832	Apparently, BP is using the correct pricing.	Apparently, BP is using the correct pricing	2703608	1471989287800	1471989287880		77
5336	56832	Apparently, BP is using the correct pricing.	Apparently, BP is using the correct pricing	2703612	1471989287951	1471989288063		84
5336	56832	Apparently, BP is using the correct pricing.	Apparently, BP is using the correct pricing	2703638	1471989288568	1471989288648		8
5336	56832	Apparently, BP is using the correct pricing.	Apparently, BP is using the correct pricing	2703643	1471989288720	1471989288824		8
5336	56832	Apparently, BP is using the correct pricing.	Apparently, BP is using the correct pricing	2703651	1471989288776	1471989288904		78
5336	56832	Apparently, BP is using the correct pricing.	Apparently, BP is using the correct pricing	2703735	1471989288825	1471989288905		74
5336	56832	Apparently, BP is using the correct pricing.	Apparently, BP is using the correct pricing	2703739	1471989288864	1471989288952		84
5336	56832	Apparently, BP is using the correct pricing.	Apparently, BP is using the correct pricing	2703742	1471989289240	1471989289303		8
5336	56832	Apparently, BP is using the correct pricing.	Apparently, BP is using the correct pricing	2703744	1471989289496	1471989289584		8
5336	56832	Apparently, BP is using the correct pricing.	Apparently, BP is using the correct pricing	2703746	1471989289616	1471989289711		84
5336	56832	Apparently, BP is using the correct pricing.	Apparently, BP is using the correct pricing	2703747	1471989289816	1471989289935		76
5336	56832	Apparently, BP is using the correct pricing.	Apparently, BP is using the correct pricing	2703748	1471989290136	1471989290264		89
5336	56832	Apparently, BP is using the correct pricing.	Apparently, BP is using the correct pricing	2703929	1471989290224	1471989290359		32
5336	56832	Apparently, BP is using the correct pricing.	Apparently, BP is using the correct pricing	2703932	1471989290584	1471989290680		8
5336	56832	Apparently, BP is using the correct pricing.	Apparently, BP is using the correct pricing	2703935	1471989291320	1471989291400		188
5336	56832	Apparently, BP is using the correct pricing.	Apparently, BP is using the correct pricing	2703938	1471989291488	1471989291608		32
5336	56832	Apparently, BP is using the correct pricing.	Apparently, BP is using the correct pricing	2703946	1471989291688	1471989292984	SHIFT	16
5336	56832	Apparently, BP is using the correct pricing.	Apparently, BP is using the correct pricing	2703942	1471989292104	1471989292496		66
5336	56832	Apparently, BP is using the correct pricing.	Apparently, BP is using the correct pricing	2703950	1471989293111	1471989293191		80
5336	56832	Apparently, BP is using the correct pricing.	Apparently, BP is using the correct pricing	2704030	1471989293494	1471989293592		8
5336	56832	Apparently, BP is using the correct pricing.	Apparently, BP is using the correct pricing	2704038	1471989293592	1471989293944	SHIFT	16
5336	56832	Apparently, BP is using the correct pricing.	Apparently, BP is using the correct pricing	2704035	1471989293736	1471989293832		80
5336	56832	Apparently, BP is using the correct pricing.	Apparently, BP is using the correct pricing	2704041	1471989294071	1471989294184		32
5336	56832	Apparently, BP is using the correct pricing.	Apparently, BP is using the correct pricing	2704044	1471989294432	1471989294488		73
5336	56832	Apparently, BP is using the correct pricing.	Apparently, BP is using the correct pricing	2704049	1471989294520	1471989294655		83
5336	56832	Apparently, BP is using the correct pricing.	Apparently, BP is using the correct pricing	2704165	1471989294592	1471989294720		32
5336	56832	Apparently, BP is using the correct pricing.	Apparently, BP is using the correct pricing	2704167	1471989295344	1471989295456		73
5336	56832	Apparently, BP is using the correct pricing.	Apparently, BP is using the correct pricing	2704169	1471989295760	1471989295856		8
5336	56832	Apparently, BP is using the correct pricing.	Apparently, BP is using the correct pricing	2704172	1471989296168	1471989296232		85
5336	56832	Apparently, BP is using the correct pricing.	Apparently, BP is using the correct pricing	2704177	1471989296272	1471989296360		83
5336	56832	Apparently, BP is using the correct pricing.	Apparently, BP is using the correct pricing	2704183	1471989296360	1471989296471		73
5336	56832	Apparently, BP is using the correct pricing.	Apparently, BP is using the correct pricing	2704225	1471989296424	1471989296552		78
5336	56832	Apparently, BP is using the correct pricing.	Apparently, BP is using the correct pricing	2704226	1471989296504	1471989296696		71
5336	56832	Apparently, BP is using the correct pricing.	Apparently, BP is using the correct pricing	2704229	1471989296632	1471989296783		32
5336	56832	Apparently, BP is using the correct pricing.	Apparently, BP is using the correct pricing	2704233	1471989296736	1471989296879		84
5336	56832	Apparently, BP is using the correct pricing.	Apparently, BP is using the correct pricing	2704238	1471989296880	1471989296960		72
5336	56832	Apparently, BP is using the correct pricing.	Apparently, BP is using the correct pricing	2704242	1471989296960	1471989297119		69
5336	56832	Apparently, BP is using the correct pricing.	Apparently, BP is using the correct pricing	2704270	1471989297056	1471989297191		32
5336	56832	Apparently, BP is using the correct pricing.	Apparently, BP is using the correct pricing	2704274	1471989297192	1471989297304		67
5336	56832	Apparently, BP is using the correct pricing.	Apparently, BP is using the correct pricing	2704277	1471989297288	1471989297376		79
5336	56832	Apparently, BP is using the correct pricing.	Apparently, BP is using the correct pricing	2704280	1471989297423	1471989297472		82
5336	56832	Apparently, BP is using the correct pricing.	Apparently, BP is using the correct pricing	2704281	1471989297536	1471989297632		82
5336	56832	Apparently, BP is using the correct pricing.	Apparently, BP is using the correct pricing	2704284	1471989297648	1471989297791		69
5336	56832	Apparently, BP is using the correct pricing.	Apparently, BP is using the correct pricing	2704307	1471989297736	1471989297855		67
5336	56832	Apparently, BP is using the correct pricing.	Apparently, BP is using the correct pricing	2704309	1471989297960	1471989298096		84
5336	56832	Apparently, BP is using the correct pricing.	Apparently, BP is using the correct pricing	2704312	1471989298048	1471989298192		32
5336	56832	Apparently, BP is using the correct pricing.	Apparently, BP is using the correct pricing	2704314	1471989298120	1471989298216		80
5336	56832	Apparently, BP is using the correct pricing.	Apparently, BP is using the correct pricing	2704317	1471989298240	1471989298352		82
5336	56832	Apparently, BP is using the correct pricing.	Apparently, BP is using the correct pricing	2704320	1471989298352	1471989298432		73
5336	56832	Apparently, BP is using the correct pricing.	Apparently, BP is using the correct pricing	2704340	1471989298434	1471989298528		67
5336	56832	Apparently, BP is using the correct pricing.	Apparently, BP is using the correct pricing	2704343	1471989298528	1471989298647		73
5336	56832	Apparently, BP is using the correct pricing.	Apparently, BP is using the correct pricing	2704345	1471989298592	1471989298712		78
5336	56832	Apparently, BP is using the correct pricing.	Apparently, BP is using the correct pricing	2704348	1471989298648	1471989298759		71
5336	56850	I wonder if RBS is another institution which could move quickly.	I wonder if RBS is another institution which could move quickly.	2704465	1471989300784	1471989301183	SHIFT	16
5336	56850	I wonder if RBS is another institution which could move quickly.	I wonder if RBS is another institution which could move quickly.	2704462	1471989301032	1471989301127		73
5336	56850	I wonder if RBS is another institution which could move quickly.	I wonder if RBS is another institution which could move quickly.	2704468	1471989301159	1471989301304		32
5336	56850	I wonder if RBS is another institution which could move quickly.	I wonder if RBS is another institution which could move quickly.	2704473	1471989301304	1471989301451		87
5336	56850	I wonder if RBS is another institution which could move quickly.	I wonder if RBS is another institution which could move quickly.	2704478	1471989301344	1471989301479		79
5336	56850	I wonder if RBS is another institution which could move quickly.	I wonder if RBS is another institution which could move quickly.	2704508	1471989301455	1471989301560		78
5336	56850	I wonder if RBS is another institution which could move quickly.	I wonder if RBS is another institution which could move quickly.	2704511	1471989301496	1471989301615		68
5336	56850	I wonder if RBS is another institution which could move quickly.	I wonder if RBS is another institution which could move quickly.	2704514	1471989301695	1471989301816		69
5336	56850	I wonder if RBS is another institution which could move quickly.	I wonder if RBS is another institution which could move quickly.	2704517	1471989301736	1471989301863		82
5336	56850	I wonder if RBS is another institution which could move quickly.	I wonder if RBS is another institution which could move quickly.	2704521	1471989301816	1471989301959		32
5336	56850	I wonder if RBS is another institution which could move quickly.	I wonder if RBS is another institution which could move quickly.	2704526	1471989301960	1471989302072		73
5336	56850	I wonder if RBS is another institution which could move quickly.	I wonder if RBS is another institution which could move quickly.	2704616	1471989302074	1471989302200		70
5336	56850	I wonder if RBS is another institution which could move quickly.	I wonder if RBS is another institution which could move quickly.	2704620	1471989302168	1471989302280		32
5336	56850	I wonder if RBS is another institution which could move quickly.	I wonder if RBS is another institution which could move quickly.	2704675	1471989302944	1471989304056	SHIFT	16
5336	56850	I wonder if RBS is another institution which could move quickly.	I wonder if RBS is another institution which could move quickly.	2704624	1471989303408	1471989303488		82
5336	56850	I wonder if RBS is another institution which could move quickly.	I wonder if RBS is another institution which could move quickly.	2704633	1471989303560	1471989303656		66
5336	56850	I wonder if RBS is another institution which could move quickly.	I wonder if RBS is another institution which could move quickly.	2704640	1471989303727	1471989303880		83
5336	56850	I wonder if RBS is another institution which could move quickly.	I wonder if RBS is another institution which could move quickly.	2704681	1471989304056	1471989304175		32
5336	56850	I wonder if RBS is another institution which could move quickly.	I wonder if RBS is another institution which could move quickly.	2704685	1471989304367	1471989304480		73
5336	56850	I wonder if RBS is another institution which could move quickly.	I wonder if RBS is another institution which could move quickly.	2704691	1471989304480	1471989304560		83
5336	56850	I wonder if RBS is another institution which could move quickly.	I wonder if RBS is another institution which could move quickly.	2704696	1471989304512	1471989304648		32
5336	56850	I wonder if RBS is another institution which could move quickly.	I wonder if RBS is another institution which could move quickly.	2704711	1471989304624	1471989304752		65
5336	56850	I wonder if RBS is another institution which could move quickly.	I wonder if RBS is another institution which could move quickly.	2704714	1471989304752	1471989304850		78
5336	56850	I wonder if RBS is another institution which could move quickly.	I wonder if RBS is another institution which could move quickly.	2704717	1471989304850	1471989304904		79
5336	56850	I wonder if RBS is another institution which could move quickly.	I wonder if RBS is another institution which could move quickly.	2704718	1471989304888	1471989304991		84
5336	56850	I wonder if RBS is another institution which could move quickly.	I wonder if RBS is another institution which could move quickly.	2704721	1471989305023	1471989305120		72
5336	56850	I wonder if RBS is another institution which could move quickly.	I wonder if RBS is another institution which could move quickly.	2704763	1471989305272	1471989305344		8
5336	56850	I wonder if RBS is another institution which could move quickly.	I wonder if RBS is another institution which could move quickly.	2704769	1471989305432	1471989305488		8
5336	56850	I wonder if RBS is another institution which could move quickly.	I wonder if RBS is another institution which could move quickly.	2704771	1471989305568	1471989305672		8
5336	56850	I wonder if RBS is another institution which could move quickly.	I wonder if RBS is another institution which could move quickly.	2704776	1471989305848	1471989305904		79
5336	56850	I wonder if RBS is another institution which could move quickly.	I wonder if RBS is another institution which could move quickly.	2704847	1471989306048	1471989306119		8
5336	56850	I wonder if RBS is another institution which could move quickly.	I wonder if RBS is another institution which could move quickly.	2704849	1471989306200	1471989306293		8
5336	56850	I wonder if RBS is another institution which could move quickly.	I wonder if RBS is another institution which could move quickly.	2704852	1471989306392	1471989306496		79
5336	56850	I wonder if RBS is another institution which could move quickly.	I wonder if RBS is another institution which could move quickly.	2704855	1471989306704	1471989306767		8
5336	56850	I wonder if RBS is another institution which could move quickly.	I wonder if RBS is another institution which could move quickly.	2704860	1471989306831	1471989306920		8
5336	56850	I wonder if RBS is another institution which could move quickly.	I wonder if RBS is another institution which could move quickly.	2704889	1471989307016	1471989307120		79
5336	56850	I wonder if RBS is another institution which could move quickly.	I wonder if RBS is another institution which could move quickly.	2704892	1471989307448	1471989307536		84
5336	56850	I wonder if RBS is another institution which could move quickly.	I wonder if RBS is another institution which could move quickly.	2704894	1471989307536	1471989307615		72
5336	56850	I wonder if RBS is another institution which could move quickly.	I wonder if RBS is another institution which could move quickly.	2704896	1471989307639	1471989307752		69
5336	56850	I wonder if RBS is another institution which could move quickly.	I wonder if RBS is another institution which could move quickly.	2704961	1471989307696	1471989307839		82
5336	56850	I wonder if RBS is another institution which could move quickly.	I wonder if RBS is another institution which could move quickly.	2704964	1471989307808	1471989307968		32
5336	56850	I wonder if RBS is another institution which could move quickly.	I wonder if RBS is another institution which could move quickly.	2704967	1471989308538	1471989308647		73
5336	56850	I wonder if RBS is another institution which could move quickly.	I wonder if RBS is another institution which could move quickly.	2704972	1471989308616	1471989308704		78
5336	56850	I wonder if RBS is another institution which could move quickly.	I wonder if RBS is another institution which could move quickly.	2704977	1471989308672	1471989308767		83
5336	56850	I wonder if RBS is another institution which could move quickly.	I wonder if RBS is another institution which could move quickly.	2704982	1471989308768	1471989308872		73
5336	56850	I wonder if RBS is another institution which could move quickly.	I wonder if RBS is another institution which could move quickly.	2705035	1471989309168	1471989309304		84
5336	56850	I wonder if RBS is another institution which could move quickly.	I wonder if RBS is another institution which could move quickly.	2705037	1471989309464	1471989309528		8
5336	56850	I wonder if RBS is another institution which could move quickly.	I wonder if RBS is another institution which could move quickly.	2705041	1471989309608	1471989309695		8
5336	56850	I wonder if RBS is another institution which could move quickly.	I wonder if RBS is another institution which could move quickly.	2705049	1471989309727	1471989309848		84
5336	56850	I wonder if RBS is another institution which could move quickly.	I wonder if RBS is another institution which could move quickly.	2705055	1471989309848	1471989309936		73
5336	56850	I wonder if RBS is another institution which could move quickly.	I wonder if RBS is another institution which could move quickly.	2705140	1471989310184	1471989310264		84
5336	56850	I wonder if RBS is another institution which could move quickly.	I wonder if RBS is another institution which could move quickly.	2705143	1471989310287	1471989310384		73
5336	56850	I wonder if RBS is another institution which could move quickly.	I wonder if RBS is another institution which could move quickly.	2705145	1471989310616	1471989310704		8
5336	56850	I wonder if RBS is another institution which could move quickly.	I wonder if RBS is another institution which could move quickly.	2705149	1471989310864	1471989310944		85
5336	56850	I wonder if RBS is another institution which could move quickly.	I wonder if RBS is another institution which could move quickly.	2705156	1471989311520	1471989311616		84
5336	56850	I wonder if RBS is another institution which could move quickly.	I wonder if RBS is another institution which could move quickly.	2705237	1471989311592	1471989311664		73
5336	56850	I wonder if RBS is another institution which could move quickly.	I wonder if RBS is another institution which could move quickly.	2705240	1471989311743	1471989311888		79
5336	56850	I wonder if RBS is another institution which could move quickly.	I wonder if RBS is another institution which could move quickly.	2705244	1471989311816	1471989311936		78
5336	56850	I wonder if RBS is another institution which could move quickly.	I wonder if RBS is another institution which could move quickly.	2705248	1471989311936	1471989312080		32
5336	56850	I wonder if RBS is another institution which could move quickly.	I wonder if RBS is another institution which could move quickly.	2705254	1471989312680	1471989312784		87
5336	56850	I wonder if RBS is another institution which could move quickly.	I wonder if RBS is another institution which could move quickly.	2705257	1471989312888	1471989313016		72
5336	56850	I wonder if RBS is another institution which could move quickly.	I wonder if RBS is another institution which could move quickly.	2705313	1471989312984	1471989313096		73
5336	56850	I wonder if RBS is another institution which could move quickly.	I wonder if RBS is another institution which could move quickly.	2705317	1471989313096	1471989313168		67
5336	56850	I wonder if RBS is another institution which could move quickly.	I wonder if RBS is another institution which could move quickly.	2705320	1471989313168	1471989313263		72
5336	56850	I wonder if RBS is another institution which could move quickly.	I wonder if RBS is another institution which could move quickly.	2705327	1471989313488	1471989313655		32
5336	56850	I wonder if RBS is another institution which could move quickly.	I wonder if RBS is another institution which could move quickly.	2705330	1471989313816	1471989313919		67
5336	56850	I wonder if RBS is another institution which could move quickly.	I wonder if RBS is another institution which could move quickly.	2705390	1471989313880	1471989313960		79
5336	56850	I wonder if RBS is another institution which could move quickly.	I wonder if RBS is another institution which could move quickly.	2705392	1471989314432	1471989314527		85
5336	56850	I wonder if RBS is another institution which could move quickly.	I wonder if RBS is another institution which could move quickly.	2705396	1471989314704	1471989314799		76
5336	56850	I wonder if RBS is another institution which could move quickly.	I wonder if RBS is another institution which could move quickly.	2705399	1471989314872	1471989314976		68
5336	56850	I wonder if RBS is another institution which could move quickly.	I wonder if RBS is another institution which could move quickly.	2705405	1471989314936	1471989315064		32
5336	56850	I wonder if RBS is another institution which could move quickly.	I wonder if RBS is another institution which could move quickly.	2705408	1471989315175	1471989315296		77
5336	56850	I wonder if RBS is another institution which could move quickly.	I wonder if RBS is another institution which could move quickly.	2705474	1471989315298	1471989315400		79
5336	56850	I wonder if RBS is another institution which could move quickly.	I wonder if RBS is another institution which could move quickly.	2705476	1471989315400	1471989315504		86
5336	56850	I wonder if RBS is another institution which could move quickly.	I wonder if RBS is another institution which could move quickly.	2705479	1471989315615	1471989315735		69
5336	56850	I wonder if RBS is another institution which could move quickly.	I wonder if RBS is another institution which could move quickly.	2705481	1471989315904	1471989316040		32
5336	56850	I wonder if RBS is another institution which could move quickly.	I wonder if RBS is another institution which could move quickly.	2705484	1471989316600	1471989316704		81
5336	56850	I wonder if RBS is another institution which could move quickly.	I wonder if RBS is another institution which could move quickly.	2705521	1471989316705	1471989316752		85
5336	56850	I wonder if RBS is another institution which could move quickly.	I wonder if RBS is another institution which could move quickly.	2705528	1471989316856	1471989316944		73
5336	56850	I wonder if RBS is another institution which could move quickly.	I wonder if RBS is another institution which could move quickly.	2705535	1471989316944	1471989317008		67
5336	56850	I wonder if RBS is another institution which could move quickly.	I wonder if RBS is another institution which could move quickly.	2705540	1471989317040	1471989317168		75
5336	56850	I wonder if RBS is another institution which could move quickly.	I wonder if RBS is another institution which could move quickly.	2705543	1471989317328	1471989317424		76
5336	56850	I wonder if RBS is another institution which could move quickly.	I wonder if RBS is another institution which could move quickly.	2705605	1471989317426	1471989317520		89
5336	56850	I wonder if RBS is another institution which could move quickly.	I wonder if RBS is another institution which could move quickly.	2705608	1471989318352	1471989318456		190
5336	56880	On my way back.	On my way back.	2705825	1471989320256	1471989320623	SHIFT	16
5336	56880	On my way back.	On my way back.	2705820	1471989320416	1471989320520		79
5336	56880	On my way back.	On my way back.	2705828	1471989320752	1471989320864		78
5336	56880	On my way back.	On my way back.	2705832	1471989321072	1471989321239		32
5336	56880	On my way back.	On my way back.	2705835	1471989321360	1471989321448		77
5336	56880	On my way back.	On my way back.	2705839	1471989321480	1471989321600		89
5336	56880	On my way back.	On my way back.	2705953	1471989321560	1471989321696		32
5336	56880	On my way back.	On my way back.	2705958	1471989321880	1471989322000		87
5336	56880	On my way back.	On my way back.	2705963	1471989321960	1471989322072		65
5336	56880	On my way back.	On my way back.	2705966	1471989322584	1471989322688		89
5336	56880	On my way back.	On my way back.	2705970	1471989322783	1471989322896		32
5336	56880	On my way back.	On my way back.	2705974	1471989322960	1471989323063		66
5336	56880	On my way back.	On my way back.	2706049	1471989323065	1471989323183		65
5336	56880	On my way back.	On my way back.	2706054	1471989323136	1471989323248		67
5336	56880	On my way back.	On my way back.	2706059	1471989323216	1471989323311		75
5336	56880	On my way back.	On my way back.	2706062	1471989324000	1471989324088		190
5336	56887	Two-thirds of our tickets have been sold in the United States.	Two-thirds of our tickets have been sold in the united states/	2706324	1471989325768	1471989326112	SHIFT	16
5336	56887	Two-thirds of our tickets have been sold in the United States.	Two-thirds of our tickets have been sold in the united states/	2706327	1471989325976	1471989326112		84
5336	56887	Two-thirds of our tickets have been sold in the United States.	Two-thirds of our tickets have been sold in the united states/	2706330	1471989326560	1471989326648		87
5336	56887	Two-thirds of our tickets have been sold in the United States.	Two-thirds of our tickets have been sold in the united states/	2706334	1471989326648	1471989326711		79
5336	56887	Two-thirds of our tickets have been sold in the United States.	Two-thirds of our tickets have been sold in the united states/	2706338	1471989326840	1471989326928		173
5336	56887	Two-thirds of our tickets have been sold in the United States.	Two-thirds of our tickets have been sold in the united states/	2706345	1471989327784	1471989327888		84
5336	56887	Two-thirds of our tickets have been sold in the United States.	Two-thirds of our tickets have been sold in the united states/	2706382	1471989327890	1471989327976		72
5336	56887	Two-thirds of our tickets have been sold in the United States.	Two-thirds of our tickets have been sold in the united states/	2706386	1471989328160	1471989328223		73
5336	56887	Two-thirds of our tickets have been sold in the United States.	Two-thirds of our tickets have been sold in the united states/	2706390	1471989328352	1471989328448		82
5336	56887	Two-thirds of our tickets have been sold in the United States.	Two-thirds of our tickets have been sold in the united states/	2706395	1471989328592	1471989328647		8
5336	56887	Two-thirds of our tickets have been sold in the United States.	Two-thirds of our tickets have been sold in the united states/	2706420	1471989328728	1471989328815		8
5336	56887	Two-thirds of our tickets have been sold in the United States.	Two-thirds of our tickets have been sold in the united states/	2706425	1471989328816	1471989328888		82
5336	56887	Two-thirds of our tickets have been sold in the United States.	Two-thirds of our tickets have been sold in the united states/	2706431	1471989329000	1471989329127		68
5336	56887	Two-thirds of our tickets have been sold in the United States.	Two-thirds of our tickets have been sold in the united states/	2706438	1471989329096	1471989329200		83
5336	56887	Two-thirds of our tickets have been sold in the United States.	Two-thirds of our tickets have been sold in the united states/	2706443	1471989329400	1471989329528		32
5336	56887	Two-thirds of our tickets have been sold in the United States.	Two-thirds of our tickets have been sold in the united states/	2706510	1471989329824	1471989329911		70
5336	56887	Two-thirds of our tickets have been sold in the United States.	Two-thirds of our tickets have been sold in the united states/	2706512	1471989330152	1471989330208		8
5336	56887	Two-thirds of our tickets have been sold in the United States.	Two-thirds of our tickets have been sold in the united states/	2706516	1471989330544	1471989330656		79
5336	56887	Two-thirds of our tickets have been sold in the United States.	Two-thirds of our tickets have been sold in the united states/	2706520	1471989330656	1471989330744		70
5336	56887	Two-thirds of our tickets have been sold in the United States.	Two-thirds of our tickets have been sold in the united states/	2706525	1471989330744	1471989330840		32
5336	56887	Two-thirds of our tickets have been sold in the United States.	Two-thirds of our tickets have been sold in the united states/	2706607	1471989330792	1471989330888		79
5336	56887	Two-thirds of our tickets have been sold in the United States.	Two-thirds of our tickets have been sold in the united states/	2706613	1471989330992	1471989331088		85
5336	56887	Two-thirds of our tickets have been sold in the United States.	Two-thirds of our tickets have been sold in the united states/	2706621	1471989331103	1471989331224		82
5336	56887	Two-thirds of our tickets have been sold in the United States.	Two-thirds of our tickets have been sold in the united states/	2706627	1471989331176	1471989331304		32
5336	56887	Two-thirds of our tickets have been sold in the United States.	Two-thirds of our tickets have been sold in the united states/	2706630	1471989331808	1471989331911		84
5336	56887	Two-thirds of our tickets have been sold in the United States.	Two-thirds of our tickets have been sold in the united states/	2706632	1471989331951	1471989332032		73
5336	56887	Two-thirds of our tickets have been sold in the United States.	Two-thirds of our tickets have been sold in the united states/	2706672	1471989332056	1471989332143		67
5336	56887	Two-thirds of our tickets have been sold in the United States.	Two-thirds of our tickets have been sold in the united states/	2706673	1471989332120	1471989332192		73
5336	56887	Two-thirds of our tickets have been sold in the United States.	Two-thirds of our tickets have been sold in the united states/	2706674	1471989332280	1471989332375		69
5336	56887	Two-thirds of our tickets have been sold in the United States.	Two-thirds of our tickets have been sold in the united states/	2706676	1471989332399	1471989332488		84
5336	56887	Two-thirds of our tickets have been sold in the United States.	Two-thirds of our tickets have been sold in the united states/	2706678	1471989332792	1471989332871		8
5336	56887	Two-thirds of our tickets have been sold in the United States.	Two-thirds of our tickets have been sold in the united states/	2706733	1471989332968	1471989333015		8
5336	56887	Two-thirds of our tickets have been sold in the United States.	Two-thirds of our tickets have been sold in the united states/	2706737	1471989333104	1471989333191		8
5336	56887	Two-thirds of our tickets have been sold in the United States.	Two-thirds of our tickets have been sold in the united states/	2706742	1471989333368	1471989333472		75
5336	56887	Two-thirds of our tickets have been sold in the United States.	Two-thirds of our tickets have been sold in the united states/	2706744	1471989333576	1471989333672		69
5336	56887	Two-thirds of our tickets have been sold in the United States.	Two-thirds of our tickets have been sold in the united states/	2706748	1471989333735	1471989333832		84
5336	56887	Two-thirds of our tickets have been sold in the United States.	Two-thirds of our tickets have been sold in the united states/	2706836	1471989333864	1471989333999		83
5336	56887	Two-thirds of our tickets have been sold in the United States.	Two-thirds of our tickets have been sold in the united states/	2706840	1471989333944	1471989334087		32
5336	56887	Two-thirds of our tickets have been sold in the United States.	Two-thirds of our tickets have been sold in the united states/	2706845	1471989334736	1471989334815		72
5336	56887	Two-thirds of our tickets have been sold in the United States.	Two-thirds of our tickets have been sold in the united states/	2706848	1471989334976	1471989335080		65
5336	56887	Two-thirds of our tickets have been sold in the United States.	Two-thirds of our tickets have been sold in the united states/	2706854	1471989335080	1471989335247		86
5336	56887	Two-thirds of our tickets have been sold in the United States.	Two-thirds of our tickets have been sold in the united states/	2706936	1471989335168	1471989335288		69
5336	56887	Two-thirds of our tickets have been sold in the United States.	Two-thirds of our tickets have been sold in the united states/	2706943	1471989335249	1471989335383		32
5336	56887	Two-thirds of our tickets have been sold in the United States.	Two-thirds of our tickets have been sold in the united states/	2706948	1471989335496	1471989335624		66
5336	56887	Two-thirds of our tickets have been sold in the United States.	Two-thirds of our tickets have been sold in the united states/	2706956	1471989335576	1471989335639		69
5336	56887	Two-thirds of our tickets have been sold in the United States.	Two-thirds of our tickets have been sold in the united states/	2706959	1471989335728	1471989335807		69
5336	56887	Two-thirds of our tickets have been sold in the United States.	Two-thirds of our tickets have been sold in the united states/	2706962	1471989336648	1471989336760		78
5336	56887	Two-thirds of our tickets have been sold in the United States.	Two-thirds of our tickets have been sold in the united states/	2706982	1471989336784	1471989336879		32
5336	56887	Two-thirds of our tickets have been sold in the United States.	Two-thirds of our tickets have been sold in the united states/	2706983	1471989336927	1471989337048		83
5336	56887	Two-thirds of our tickets have been sold in the United States.	Two-thirds of our tickets have been sold in the united states/	2706984	1471989337048	1471989337128		79
5336	56887	Two-thirds of our tickets have been sold in the United States.	Two-thirds of our tickets have been sold in the united states/	2706986	1471989337280	1471989337375		76
5336	56887	Two-thirds of our tickets have been sold in the United States.	Two-thirds of our tickets have been sold in the united states/	2706991	1471989337472	1471989337592		68
5336	56887	Two-thirds of our tickets have been sold in the United States.	Two-thirds of our tickets have been sold in the united states/	2707044	1471989337680	1471989337816		73
5336	56887	Two-thirds of our tickets have been sold in the United States.	Two-thirds of our tickets have been sold in the united states/	2707048	1471989338000	1471989338096		8
5336	56887	Two-thirds of our tickets have been sold in the United States.	Two-thirds of our tickets have been sold in the united states/	2707054	1471989338159	1471989338272		32
5336	56887	Two-thirds of our tickets have been sold in the United States.	Two-thirds of our tickets have been sold in the united states/	2707063	1471989338272	1471989338407		73
5336	56887	Two-thirds of our tickets have been sold in the United States.	Two-thirds of our tickets have been sold in the united states/	2707086	1471989338376	1471989338472		78
5336	56887	Two-thirds of our tickets have been sold in the United States.	Two-thirds of our tickets have been sold in the united states/	2707088	1471989338409	1471989338535		32
5336	56887	Two-thirds of our tickets have been sold in the United States.	Two-thirds of our tickets have been sold in the united states/	2707090	1471989338568	1471989338656		84
5336	56887	Two-thirds of our tickets have been sold in the United States.	Two-thirds of our tickets have been sold in the united states/	2707092	1471989338656	1471989338743		72
5336	56887	Two-thirds of our tickets have been sold in the United States.	Two-thirds of our tickets have been sold in the united states/	2707095	1471989338776	1471989338911		69
5336	56887	Two-thirds of our tickets have been sold in the United States.	Two-thirds of our tickets have been sold in the united states/	2707119	1471989338848	1471989338976		32
5336	56887	Two-thirds of our tickets have been sold in the United States.	Two-thirds of our tickets have been sold in the united states/	2707123	1471989338991	1471989339119		85
5336	56887	Two-thirds of our tickets have been sold in the United States.	Two-thirds of our tickets have been sold in the united states/	2707130	1471989339088	1471989339207		78
5336	56887	Two-thirds of our tickets have been sold in the United States.	Two-thirds of our tickets have been sold in the united states/	2707137	1471989339208	1471989339319		73
5336	56887	Two-thirds of our tickets have been sold in the United States.	Two-thirds of our tickets have been sold in the united states/	2707144	1471989339304	1471989339384		84
5336	56887	Two-thirds of our tickets have been sold in the United States.	Two-thirds of our tickets have been sold in the united states/	2707151	1471989339440	1471989339600		69
5336	56887	Two-thirds of our tickets have been sold in the United States.	Two-thirds of our tickets have been sold in the united states/	2707181	1471989339512	1471989339624		68
5336	56887	Two-thirds of our tickets have been sold in the United States.	Two-thirds of our tickets have been sold in the united states/	2707185	1471989339602	1471989339752		32
5336	56887	Two-thirds of our tickets have been sold in the United States.	Two-thirds of our tickets have been sold in the united states/	2707189	1471989339720	1471989339847		83
5336	56887	Two-thirds of our tickets have been sold in the United States.	Two-thirds of our tickets have been sold in the united states/	2707193	1471989339871	1471989340016		84
5336	56887	Two-thirds of our tickets have been sold in the United States.	Two-thirds of our tickets have been sold in the united states/	2707195	1471989340016	1471989340111		65
5336	56887	Two-thirds of our tickets have been sold in the United States.	Two-thirds of our tickets have been sold in the united states/	2707198	1471989340159	1471989340328		84
5336	56887	Two-thirds of our tickets have been sold in the United States.	Two-thirds of our tickets have been sold in the united states/	2707257	1471989340256	1471989340384		69
5336	56887	Two-thirds of our tickets have been sold in the United States.	Two-thirds of our tickets have been sold in the united states/	2707263	1471989340456	1471989340584		83
5336	56887	Two-thirds of our tickets have been sold in the United States.	Two-thirds of our tickets have been sold in the united states/	2707268	1471989341128	1471989341248		191
5336	56911	It's all about making the whole story public.	It's all about making the whole story public.	2707433	1471989343000	1471989343432	SHIFT	16
5336	56911	It's all about making the whole story public.	It's all about making the whole story public.	2707431	1471989343119	1471989343216		73
5336	56911	It's all about making the whole story public.	It's all about making the whole story public.	2707439	1471989343544	1471989343664		84
5336	56911	It's all about making the whole story public.	It's all about making the whole story public.	2707443	1471989344328	1471989344423		222
5336	56911	It's all about making the whole story public.	It's all about making the whole story public.	2707448	1471989344392	1471989344520		83
5336	56911	It's all about making the whole story public.	It's all about making the whole story public.	2707489	1471989344472	1471989344600		32
5336	56911	It's all about making the whole story public.	It's all about making the whole story public.	2707492	1471989345024	1471989345103		65
5336	56911	It's all about making the whole story public.	It's all about making the whole story public.	2707497	1471989345119	1471989345176		76
5336	56911	It's all about making the whole story public.	It's all about making the whole story public.	2707500	1471989345255	1471989345335		76
5336	56911	It's all about making the whole story public.	It's all about making the whole story public.	2707505	1471989345304	1471989345439		32
5336	56911	It's all about making the whole story public.	It's all about making the whole story public.	2707508	1471989345440	1471989345551		65
5336	56911	It's all about making the whole story public.	It's all about making the whole story public.	2707521	1471989345512	1471989345623		66
5336	56911	It's all about making the whole story public.	It's all about making the whole story public.	2707524	1471989345576	1471989345639		79
5336	56911	It's all about making the whole story public.	It's all about making the whole story public.	2707527	1471989345768	1471989345839		85
5336	56911	It's all about making the whole story public.	It's all about making the whole story public.	2707531	1471989345840	1471989345983		84
5336	56911	It's all about making the whole story public.	It's all about making the whole story public.	2707534	1471989345952	1471989346080		32
5336	56911	It's all about making the whole story public.	It's all about making the whole story public.	2707538	1471989346232	1471989346336		77
5336	56911	It's all about making the whole story public.	It's all about making the whole story public.	2707548	1471989346376	1471989346488		65
5336	56911	It's all about making the whole story public.	It's all about making the whole story public.	2707551	1471989346456	1471989346519		75
5336	56911	It's all about making the whole story public.	It's all about making the whole story public.	2707553	1471989346616	1471989346744		73
5336	56911	It's all about making the whole story public.	It's all about making the whole story public.	2707601	1471989346704	1471989346840		71
5336	56911	It's all about making the whole story public.	It's all about making the whole story public.	2707604	1471989346808	1471989346936		32
5336	56911	It's all about making the whole story public.	It's all about making the whole story public.	2707610	1471989346984	1471989347104		84
5336	56911	It's all about making the whole story public.	It's all about making the whole story public.	2707614	1471989347296	1471989347359		8
5336	56911	It's all about making the whole story public.	It's all about making the whole story public.	2707617	1471989347456	1471989347519		8
5336	56911	It's all about making the whole story public.	It's all about making the whole story public.	2707620	1471989347600	1471989347664		8
5336	56911	It's all about making the whole story public.	It's all about making the whole story public.	2707637	1471989347744	1471989347856		8
5336	56911	It's all about making the whole story public.	It's all about making the whole story public.	2707639	1471989347824	1471989347944		78
5336	56911	It's all about making the whole story public.	It's all about making the whole story public.	2707645	1471989347887	1471989348008		71
5336	56911	It's all about making the whole story public.	It's all about making the whole story public.	2707649	1471989348063	1471989348191		32
5336	56911	It's all about making the whole story public.	It's all about making the whole story public.	2707651	1471989348280	1471989348407		84
5336	56911	It's all about making the whole story public.	It's all about making the whole story public.	2707690	1471989348472	1471989348576		72
5336	56911	It's all about making the whole story public.	It's all about making the whole story public.	2707695	1471989348576	1471989348672		69
5336	56911	It's all about making the whole story public.	It's all about making the whole story public.	2707700	1471989348648	1471989348784		32
5336	56911	It's all about making the whole story public.	It's all about making the whole story public.	2707706	1471989348816	1471989348888		87
5336	56911	It's all about making the whole story public.	It's all about making the whole story public.	2707711	1471989349080	1471989349207		72
5336	56911	It's all about making the whole story public.	It's all about making the whole story public.	2707735	1471989349272	1471989349335		79
5336	56911	It's all about making the whole story public.	It's all about making the whole story public.	2707737	1471989349448	1471989349543		76
5336	56911	It's all about making the whole story public.	It's all about making the whole story public.	2707740	1471989349488	1471989349608		69
5336	56911	It's all about making the whole story public.	It's all about making the whole story public.	2707742	1471989349559	1471989349712		32
5336	56911	It's all about making the whole story public.	It's all about making the whole story public.	2707744	1471989349759	1471989349856		83
5336	56911	It's all about making the whole story public.	It's all about making the whole story public.	2707822	1471989349968	1471989350071		84
5336	56911	It's all about making the whole story public.	It's all about making the whole story public.	2707825	1471989350103	1471989350199		79
5336	56911	It's all about making the whole story public.	It's all about making the whole story public.	2707828	1471989350215	1471989350327		82
5336	56911	It's all about making the whole story public.	It's all about making the whole story public.	2707832	1471989350472	1471989350600		89
5336	56911	It's all about making the whole story public.	It's all about making the whole story public.	2707834	1471989351072	1471989351200		32
5336	56911	It's all about making the whole story public.	It's all about making the whole story public.	2707911	1471989351312	1471989351408		80
5336	56911	It's all about making the whole story public.	It's all about making the whole story public.	2707914	1471989351576	1471989351703		85
5336	56911	It's all about making the whole story public.	It's all about making the whole story public.	2707918	1471989351751	1471989351792		66
5336	56911	It's all about making the whole story public.	It's all about making the whole story public.	2707923	1471989352256	1471989352312		8
5336	56911	It's all about making the whole story public.	It's all about making the whole story public.	2708073	1471989353000	1471989353064		75
5336	56911	It's all about making the whole story public.	It's all about making the whole story public.	2708079	1471989353424	1471989353519		8
5336	56911	It's all about making the whole story public.	It's all about making the whole story public.	2708083	1471989353600	1471989353695		8
5336	56911	It's all about making the whole story public.	It's all about making the whole story public.	2708086	1471989353952	1471989354024		76
5336	56911	It's all about making the whole story public.	It's all about making the whole story public.	2708244	1471989354152	1471989354207		73
5336	56911	It's all about making the whole story public.	It's all about making the whole story public.	2708246	1471989354240	1471989354327		67
5336	56911	It's all about making the whole story public.	It's all about making the whole story public.	2708248	1471989355016	1471989355080		191
5336	56911	It's all about making the whole story public.	It's all about making the whole story public.	2708250	1471989355512	1471989355600		8
5336	56911	It's all about making the whole story public.	It's all about making the whole story public.	2708252	1471989356120	1471989356232		190
5336	56932	I know he's working on it.	I know he's working on it.	2708432	1471989357640	1471989357943	SHIFT	16
5336	56932	I know he's working on it.	I know he's working on it.	2708430	1471989357848	1471989357928		73
5336	56932	I know he's working on it.	I know he's working on it.	2708435	1471989358064	1471989358175		32
5336	56932	I know he's working on it.	I know he's working on it.	2708436	1471989358256	1471989358383		75
5336	56932	I know he's working on it.	I know he's working on it.	2708438	1471989358352	1471989358431		78
5336	56932	I know he's working on it.	I know he's working on it.	2708440	1471989358455	1471989358615		79
5336	56932	I know he's working on it.	I know he's working on it.	2708506	1471989358544	1471989358656		87
5336	56932	I know he's working on it.	I know he's working on it.	2708510	1471989358617	1471989358752		32
5336	56932	I know he's working on it.	I know he's working on it.	2708512	1471989358847	1471989358944		72
5336	56932	I know he's working on it.	I know he's working on it.	2708516	1471989358975	1471989359071		69
5336	56932	I know he's working on it.	I know he's working on it.	2708520	1471989359632	1471989359727		222
5336	56932	I know he's working on it.	I know he's working on it.	2708526	1471989359728	1471989359848		83
5336	56932	I know he's working on it.	I know he's working on it.	2708645	1471989359808	1471989359936		32
5336	56932	I know he's working on it.	I know he's working on it.	2708649	1471989360384	1471989360464		87
5336	56932	I know he's working on it.	I know he's working on it.	2708653	1471989360544	1471989360624		79
5336	56932	I know he's working on it.	I know he's working on it.	2708658	1471989361144	1471989361232		8
5336	56932	I know he's working on it.	I know he's working on it.	2708665	1471989361488	1471989361559		82
5336	56932	I know he's working on it.	I know he's working on it.	2708670	1471989361808	1471989361887		8
5336	56932	I know he's working on it.	I know he's working on it.	2708705	1471989362168	1471989362224		79
5336	56932	I know he's working on it.	I know he's working on it.	2708709	1471989362256	1471989362351		82
5336	56932	I know he's working on it.	I know he's working on it.	2708713	1471989362352	1471989362391		75
5336	56932	I know he's working on it.	I know he's working on it.	2708718	1471989362480	1471989362624		73
5336	56932	I know he's working on it.	I know he's working on it.	2708777	1471989362576	1471989362688		78
5336	56932	I know he's working on it.	I know he's working on it.	2708783	1471989362627	1471989362776		71
5336	56932	I know he's working on it.	I know he's working on it.	2708788	1471989362760	1471989362895		32
5336	56932	I know he's working on it.	I know he's working on it.	2708796	1471989363136	1471989363200		8
5336	56932	I know he's working on it.	I know he's working on it.	2708801	1471989363288	1471989363359		8
5336	56932	I know he's working on it.	I know he's working on it.	2708805	1471989363448	1471989363511		8
5336	56932	I know he's working on it.	I know he's working on it.	2708830	1471989363584	1471989363648		8
5336	56932	I know he's working on it.	I know he's working on it.	2708831	1471989363728	1471989363840		8
5336	56932	I know he's working on it.	I know he's working on it.	2708834	1471989364408	1471989364528		73
5336	56932	I know he's working on it.	I know he's working on it.	2708837	1471989364496	1471989364608		78
5336	56932	I know he's working on it.	I know he's working on it.	2708876	1471989364584	1471989364720		71
5336	56932	I know he's working on it.	I know he's working on it.	2708880	1471989364656	1471989364783		32
5336	56932	I know he's working on it.	I know he's working on it.	2708883	1471989364823	1471989364976		79
5336	56932	I know he's working on it.	I know he's working on it.	2708887	1471989364952	1471989365064		78
5336	56932	I know he's working on it.	I know he's working on it.	2708891	1471989365064	1471989365159		32
5336	56932	I know he's working on it.	I know he's working on it.	2708897	1471989365160	1471989365255		73
5336	56932	I know he's working on it.	I know he's working on it.	2708970	1471989365257	1471989365335		84
5336	56932	I know he's working on it.	I know he's working on it.	2708972	1471989366224	1471989366343		190
5336	56950	We are all fragile.	We are all fragile.	2709193	1471989367864	1471989368239	SHIFT	16
5336	56950	We are all fragile.	We are all fragile.	2709187	1471989368120	1471989368216		87
5336	56950	We are all fragile.	We are all fragile.	2709199	1471989368384	1471989368520		69
5336	56950	We are all fragile.	We are all fragile.	2709203	1471989368520	1471989368664		32
5336	56950	We are all fragile.	We are all fragile.	2709208	1471989368632	1471989368744		65
5336	56950	We are all fragile.	We are all fragile.	2709211	1471989368767	1471989368968		82
5336	56950	We are all fragile.	We are all fragile.	2709266	1471989368880	1471989369023		69
5336	56950	We are all fragile.	We are all fragile.	2709270	1471989368992	1471989369120		32
5336	56950	We are all fragile.	We are all fragile.	2709279	1471989369144	1471989369240		65
5336	56950	We are all fragile.	We are all fragile.	2709284	1471989369392	1471989369455		76
5336	56950	We are all fragile.	We are all fragile.	2709288	1471989369552	1471989369642		76
5336	56950	We are all fragile.	We are all fragile.	2709293	1471989369672	1471989369816		32
5336	56950	We are all fragile.	We are all fragile.	2709323	1471989369928	1471989370088		70
5336	56950	We are all fragile.	We are all fragile.	2709329	1471989370056	1471989370184		82
5336	56950	We are all fragile.	We are all fragile.	2709336	1471989370248	1471989370376		65
5336	56950	We are all fragile.	We are all fragile.	2709345	1471989370456	1471989370544		71
5336	56950	We are all fragile.	We are all fragile.	2709352	1471989370544	1471989370608		73
5336	56950	We are all fragile.	We are all fragile.	2709457	1471989370720	1471989370800		76
5336	56950	We are all fragile.	We are all fragile.	2709460	1471989370800	1471989370863		69
5336	56950	We are all fragile.	We are all fragile.	2709464	1471989371680	1471989371743	SHIFT	16
5336	56950	We are all fragile.	We are all fragile.	2709470	1471989372064	1471989372159		190
5336	56962	This transaction is expected to close next year.	This transaction is expected to close next year.	2709591	1471989374200	1471989374559	SHIFT	16
5336	56962	This transaction is expected to close next year.	This transaction is expected to close next year.	2709596	1471989374456	1471989374560		84
5336	56962	This transaction is expected to close next year.	This transaction is expected to close next year.	2709602	1471989374672	1471989374751		72
5336	56962	This transaction is expected to close next year.	This transaction is expected to close next year.	2709609	1471989374904	1471989375008		73
5336	56962	This transaction is expected to close next year.	This transaction is expected to close next year.	2709613	1471989374968	1471989375072		83
5336	56962	This transaction is expected to close next year.	This transaction is expected to close next year.	2709676	1471989375040	1471989375168		32
5336	56962	This transaction is expected to close next year.	This transaction is expected to close next year.	2709679	1471989375264	1471989375536		84
5336	56962	This transaction is expected to close next year.	This transaction is expected to close next year.	2709686	1471989375400	1471989375536		82
5336	56962	This transaction is expected to close next year.	This transaction is expected to close next year.	2709693	1471989375655	1471989375776		65
5336	56962	This transaction is expected to close next year.	This transaction is expected to close next year.	2709699	1471989375776	1471989375888		78
5336	56962	This transaction is expected to close next year.	This transaction is expected to close next year.	2709707	1471989376360	1471989376448		83
5336	56962	This transaction is expected to close next year.	This transaction is expected to close next year.	2709822	1471989376624	1471989376736		67
5336	56962	This transaction is expected to close next year.	This transaction is expected to close next year.	2709829	1471989377280	1471989377376		8
5336	56962	This transaction is expected to close next year.	This transaction is expected to close next year.	2709837	1471989377616	1471989377743		65
5336	56962	This transaction is expected to close next year.	This transaction is expected to close next year.	2709840	1471989377704	1471989377807		67
5336	56962	This transaction is expected to close next year.	This transaction is expected to close next year.	2709844	1471989377960	1471989378064		84
5336	56962	This transaction is expected to close next year.	This transaction is expected to close next year.	2709929	1471989378065	1471989378127		73
5336	56962	This transaction is expected to close next year.	This transaction is expected to close next year.	2709932	1471989378272	1471989378432		79
5336	56962	This transaction is expected to close next year.	This transaction is expected to close next year.	2709936	1471989378728	1471989378840		78
5336	56962	This transaction is expected to close next year.	This transaction is expected to close next year.	2709943	1471989378920	1471989379047		32
5336	56962	This transaction is expected to close next year.	This transaction is expected to close next year.	2709946	1471989379048	1471989379168		73
5336	56962	This transaction is expected to close next year.	This transaction is expected to close next year.	2710023	1471989379152	1471989379271		83
5336	56962	This transaction is expected to close next year.	This transaction is expected to close next year.	2710028	1471989379224	1471989379351		32
5336	56962	This transaction is expected to close next year.	This transaction is expected to close next year.	2710031	1471989379632	1471989379696		69
5336	56962	This transaction is expected to close next year.	This transaction is expected to close next year.	2710036	1471989379856	1471989379960		88
5336	56962	This transaction is expected to close next year.	This transaction is expected to close next year.	2710042	1471989379992	1471989380104		80
5336	56962	This transaction is expected to close next year.	This transaction is expected to close next year.	2710047	1471989380368	1471989380488		69
5336	56962	This transaction is expected to close next year.	This transaction is expected to close next year.	2710069	1471989380490	1471989380608		67
5336	56962	This transaction is expected to close next year.	This transaction is expected to close next year.	2710073	1471989380728	1471989380823		84
5336	56962	This transaction is expected to close next year.	This transaction is expected to close next year.	2710079	1471989380912	1471989381047		69
5336	56962	This transaction is expected to close next year.	This transaction is expected to close next year.	2710159	1471989381048	1471989381088		68
5336	56962	This transaction is expected to close next year.	This transaction is expected to close next year.	2710164	1471989381160	1471989381256		32
5336	56962	This transaction is expected to close next year.	This transaction is expected to close next year.	2710172	1471989381824	1471989381872		8
5336	56962	This transaction is expected to close next year.	This transaction is expected to close next year.	2710181	1471989381976	1471989382080		8
5336	56962	This transaction is expected to close next year.	This transaction is expected to close next year.	2710188	1471989382151	1471989382256		32
5336	56962	This transaction is expected to close next year.	This transaction is expected to close next year.	2710194	1471989382279	1471989382392		84
5336	56962	This transaction is expected to close next year.	This transaction is expected to close next year.	2710238	1471989382393	1471989382504		79
5336	56962	This transaction is expected to close next year.	This transaction is expected to close next year.	2710241	1471989382504	1471989382640		32
5336	56962	This transaction is expected to close next year.	This transaction is expected to close next year.	2710243	1471989382671	1471989382775		67
5336	56962	This transaction is expected to close next year.	This transaction is expected to close next year.	2710245	1471989382744	1471989382817		76
5336	56962	This transaction is expected to close next year.	This transaction is expected to close next year.	2710246	1471989382920	1471989383071		83
5336	56962	This transaction is expected to close next year.	This transaction is expected to close next year.	2710286	1471989383024	1471989383087		69
5336	56962	This transaction is expected to close next year.	This transaction is expected to close next year.	2710292	1471989383304	1471989383368		8
5336	56962	This transaction is expected to close next year.	This transaction is expected to close next year.	2710299	1471989383448	1471989383528		8
5336	56962	This transaction is expected to close next year.	This transaction is expected to close next year.	2710302	1471989383632	1471989383752		79
5336	56962	This transaction is expected to close next year.	This transaction is expected to close next year.	2710306	1471989383696	1471989383832		83
5336	56962	This transaction is expected to close next year.	This transaction is expected to close next year.	2710381	1471989383752	1471989383911		69
5336	56962	This transaction is expected to close next year.	This transaction is expected to close next year.	2710383	1471989383864	1471989384016		32
5336	56962	This transaction is expected to close next year.	This transaction is expected to close next year.	2710386	1471989384528	1471989384651		78
5336	56962	This transaction is expected to close next year.	This transaction is expected to close next year.	2710387	1471989384632	1471989384784		69
5336	56962	This transaction is expected to close next year.	This transaction is expected to close next year.	2710391	1471989384728	1471989384847		67
5336	56962	This transaction is expected to close next year.	This transaction is expected to close next year.	2710395	1471989384960	1471989385112		84
5336	56962	This transaction is expected to close next year.	This transaction is expected to close next year.	2710555	1471989385080	1471989385223		32
5336	56962	This transaction is expected to close next year.	This transaction is expected to close next year.	2710559	1471989385400	1471989385456		8
5336	56962	This transaction is expected to close next year.	This transaction is expected to close next year.	2710567	1471989385552	1471989385616		8
5336	56962	This transaction is expected to close next year.	This transaction is expected to close next year.	2710573	1471989385712	1471989385808		8
5336	56962	This transaction is expected to close next year.	This transaction is expected to close next year.	2710582	1471989386336	1471989386384		88
5336	56962	This transaction is expected to close next year.	This transaction is expected to close next year.	2710590	1471989386904	1471989387048		84
5336	56962	This transaction is expected to close next year.	This transaction is expected to close next year.	2710655	1471989387136	1471989387264		32
5336	56962	This transaction is expected to close next year.	This transaction is expected to close next year.	2710661	1471989387327	1471989387415		89
5336	56962	This transaction is expected to close next year.	This transaction is expected to close next year.	2710668	1471989387392	1471989387528		69
5336	56962	This transaction is expected to close next year.	This transaction is expected to close next year.	2710673	1471989387472	1471989387575		65
5336	56962	This transaction is expected to close next year.	This transaction is expected to close next year.	2710680	1471989388048	1471989388160		82
5336	56962	This transaction is expected to close next year.	This transaction is expected to close next year.	2710709	1471989388464	1471989388560		190
5336	56983	He is pretty tapped into it all.	He is pretty tapped into it all.	2710955	1471989390336	1471989390591	SHIFT	16
5336	56983	He is pretty tapped into it all.	He is pretty tapped into it all.	2710947	1471989390464	1471989390560		72
5336	56983	He is pretty tapped into it all.	He is pretty tapped into it all.	2710959	1471989390800	1471989390928		69
5336	56983	He is pretty tapped into it all.	He is pretty tapped into it all.	2710963	1471989391072	1471989391200		32
5336	56983	He is pretty tapped into it all.	He is pretty tapped into it all.	2710971	1471989391215	1471989391319		73
5336	56983	He is pretty tapped into it all.	He is pretty tapped into it all.	2710978	1471989391320	1471989391448		83
5336	56983	He is pretty tapped into it all.	He is pretty tapped into it all.	2711038	1471989391384	1471989391520		32
5336	56983	He is pretty tapped into it all.	He is pretty tapped into it all.	2711043	1471989391712	1471989391736		219
5336	56983	He is pretty tapped into it all.	He is pretty tapped into it all.	2711044	1471989392072	1471989392175		82
5336	56983	He is pretty tapped into it all.	He is pretty tapped into it all.	2711046	1471989392280	1471989392359		8
5336	56983	He is pretty tapped into it all.	He is pretty tapped into it all.	2711049	1471989392568	1471989392680		8
5336	56983	He is pretty tapped into it all.	He is pretty tapped into it all.	2711105	1471989392776	1471989392888		8
5336	56983	He is pretty tapped into it all.	He is pretty tapped into it all.	2711109	1471989392983	1471989393096		80
5336	56983	He is pretty tapped into it all.	He is pretty tapped into it all.	2711115	1471989393224	1471989393343		82
5336	56983	He is pretty tapped into it all.	He is pretty tapped into it all.	2711120	1471989393296	1471989393399		69
5336	56983	He is pretty tapped into it all.	He is pretty tapped into it all.	2711124	1471989393672	1471989393768		84
5336	56983	He is pretty tapped into it all.	He is pretty tapped into it all.	2711175	1471989393848	1471989393928		84
5336	56983	He is pretty tapped into it all.	He is pretty tapped into it all.	2711180	1471989394064	1471989394184		89
5336	56983	He is pretty tapped into it all.	He is pretty tapped into it all.	2711186	1471989394152	1471989394296		32
5336	56983	He is pretty tapped into it all.	He is pretty tapped into it all.	2711192	1471989394320	1471989394464		84
5336	56983	He is pretty tapped into it all.	He is pretty tapped into it all.	2711196	1471989394536	1471989394656		65
5336	56983	He is pretty tapped into it all.	He is pretty tapped into it all.	2711206	1471989394657	1471989394712		80
5336	56983	He is pretty tapped into it all.	He is pretty tapped into it all.	2711209	1471989394808	1471989394992		69
5336	56983	He is pretty tapped into it all.	He is pretty tapped into it all.	2711337	1471989394872	1471989395016		68
5336	56983	He is pretty tapped into it all.	He is pretty tapped into it all.	2711344	1471989394952	1471989395095		32
5336	56983	He is pretty tapped into it all.	He is pretty tapped into it all.	2711350	1471989395536	1471989395624		8
5336	56983	He is pretty tapped into it all.	He is pretty tapped into it all.	2711359	1471989395688	1471989395767		8
5336	56983	He is pretty tapped into it all.	He is pretty tapped into it all.	2711368	1471989395855	1471989395912		8
5336	56983	He is pretty tapped into it all.	He is pretty tapped into it all.	2711377	1471989395960	1471989396063		8
5336	56983	He is pretty tapped into it all.	He is pretty tapped into it all.	2711383	1471989396256	1471989396351		219
5336	56983	He is pretty tapped into it all.	He is pretty tapped into it all.	2711467	1471989396640	1471989396855		8
5336	56983	He is pretty tapped into it all.	He is pretty tapped into it all.	2711473	1471989397040	1471989397136		8
5336	56983	He is pretty tapped into it all.	He is pretty tapped into it all.	2711478	1471989397264	1471989397328		219
5336	56983	He is pretty tapped into it all.	He is pretty tapped into it all.	2711482	1471989397792	1471989397920		8
5336	56983	He is pretty tapped into it all.	He is pretty tapped into it all.	2711542	1471989398096	1471989398191		8
5336	56983	He is pretty tapped into it all.	He is pretty tapped into it all.	2711548	1471989398288	1471989398424		80
5336	56983	He is pretty tapped into it all.	He is pretty tapped into it all.	2711553	1471989398664	1471989398743		69
5336	56983	He is pretty tapped into it all.	He is pretty tapped into it all.	2711565	1471989398808	1471989398920		68
5336	56983	He is pretty tapped into it all.	He is pretty tapped into it all.	2711572	1471989398920	1471989399048		32
5336	56983	He is pretty tapped into it all.	He is pretty tapped into it all.	2711713	1471989399264	1471989399383		73
5336	56983	He is pretty tapped into it all.	He is pretty tapped into it all.	2711717	1471989400104	1471989400168		78
5336	56983	He is pretty tapped into it all.	He is pretty tapped into it all.	2711720	1471989400231	1471989400320		84
5336	56983	He is pretty tapped into it all.	He is pretty tapped into it all.	2711725	1471989400288	1471989400400		79
5336	56983	He is pretty tapped into it all.	He is pretty tapped into it all.	2711729	1471989400528	1471989400672		32
5336	56983	He is pretty tapped into it all.	He is pretty tapped into it all.	2711756	1471989400673	1471989400784		73
5336	56983	He is pretty tapped into it all.	He is pretty tapped into it all.	2711767	1471989400784	1471989400888		84
5336	56983	He is pretty tapped into it all.	He is pretty tapped into it all.	2711773	1471989400848	1471989400991		32
5336	56983	He is pretty tapped into it all.	He is pretty tapped into it all.	2711779	1471989401016	1471989401128		65
5336	56983	He is pretty tapped into it all.	He is pretty tapped into it all.	2711859	1471989401080	1471989401160		76
5336	56983	He is pretty tapped into it all.	He is pretty tapped into it all.	2711866	1471989401224	1471989401312		76
5336	56983	He is pretty tapped into it all.	He is pretty tapped into it all.	2711873	1471989401968	1471989402096		190
