PARTICIPANT_ID	TEST_SECTION_ID	SENTENCE	USER_INPUT	KEYSTROKE_ID	PRESS_TIME	RELEASE_TIME	LETTER	KEYCODE
5347	56865	Ibrahim sent arms and explosives by sea to the Indian west coast.	Ibrahim sent arms and explosives by sea to the Indian west coast. 	2705452	1471989560430	1471989560700	SHIFT	16
5347	56865	Ibrahim sent arms and explosives by sea to the Indian west coast.	Ibrahim sent arms and explosives by sea to the Indian west coast. 	2705448	1471989560591	1471989560629	I	73
5347	56865	Ibrahim sent arms and explosives by sea to the Indian west coast.	Ibrahim sent arms and explosives by sea to the Indian west coast. 	2705457	1471989560709	1471989560744	n	78
5347	56865	Ibrahim sent arms and explosives by sea to the Indian west coast.	Ibrahim sent arms and explosives by sea to the Indian west coast. 	2705461	1471989561468	1471989561564	BKSP	8
5347	56865	Ibrahim sent arms and explosives by sea to the Indian west coast.	Ibrahim sent arms and explosives by sea to the Indian west coast. 	2705464	1471989561733	1471989561804	b	66
5347	56865	Ibrahim sent arms and explosives by sea to the Indian west coast.	Ibrahim sent arms and explosives by sea to the Indian west coast. 	2705467	1471989561989	1471989562076	r	82
5347	56865	Ibrahim sent arms and explosives by sea to the Indian west coast.	Ibrahim sent arms and explosives by sea to the Indian west coast. 	2705469	1471989562117	1471989562204	a	65
5347	56865	Ibrahim sent arms and explosives by sea to the Indian west coast.	Ibrahim sent arms and explosives by sea to the Indian west coast. 	2705496	1471989562349	1471989562428	h	72
5347	56865	Ibrahim sent arms and explosives by sea to the Indian west coast.	Ibrahim sent arms and explosives by sea to the Indian west coast. 	2705499	1471989562509	1471989562588	i	73
5347	56865	Ibrahim sent arms and explosives by sea to the Indian west coast.	Ibrahim sent arms and explosives by sea to the Indian west coast. 	2705501	1471989562645	1471989562756	m	77
5347	56865	Ibrahim sent arms and explosives by sea to the Indian west coast.	Ibrahim sent arms and explosives by sea to the Indian west coast. 	2705504	1471989562805	1471989562868	 	32
5347	56865	Ibrahim sent arms and explosives by sea to the Indian west coast.	Ibrahim sent arms and explosives by sea to the Indian west coast. 	2705509	1471989563253	1471989563348	s	83
5347	56865	Ibrahim sent arms and explosives by sea to the Indian west coast.	Ibrahim sent arms and explosives by sea to the Indian west coast. 	2705569	1471989563413	1471989563504	e	69
5347	56865	Ibrahim sent arms and explosives by sea to the Indian west coast.	Ibrahim sent arms and explosives by sea to the Indian west coast. 	2705575	1471989563485	1471989563556	n	78
5347	56865	Ibrahim sent arms and explosives by sea to the Indian west coast.	Ibrahim sent arms and explosives by sea to the Indian west coast. 	2705583	1471989563605	1471989563660	t	84
5347	56865	Ibrahim sent arms and explosives by sea to the Indian west coast.	Ibrahim sent arms and explosives by sea to the Indian west coast. 	2705589	1471989563693	1471989563748	 	32
5347	56865	Ibrahim sent arms and explosives by sea to the Indian west coast.	Ibrahim sent arms and explosives by sea to the Indian west coast. 	2705592	1471989564093	1471989564204	a	65
5347	56865	Ibrahim sent arms and explosives by sea to the Indian west coast.	Ibrahim sent arms and explosives by sea to the Indian west coast. 	2705632	1471989564245	1471989564348	r	82
5347	56865	Ibrahim sent arms and explosives by sea to the Indian west coast.	Ibrahim sent arms and explosives by sea to the Indian west coast. 	2705639	1471989564413	1471989564492	m	77
5347	56865	Ibrahim sent arms and explosives by sea to the Indian west coast.	Ibrahim sent arms and explosives by sea to the Indian west coast. 	2705647	1471989564517	1471989564588	s	83
5347	56865	Ibrahim sent arms and explosives by sea to the Indian west coast.	Ibrahim sent arms and explosives by sea to the Indian west coast. 	2705652	1471989564797	1471989564852	 	32
5347	56865	Ibrahim sent arms and explosives by sea to the Indian west coast.	Ibrahim sent arms and explosives by sea to the Indian west coast. 	2705659	1471989565005	1471989565100	a	65
5347	56865	Ibrahim sent arms and explosives by sea to the Indian west coast.	Ibrahim sent arms and explosives by sea to the Indian west coast. 	2705695	1471989565109	1471989565174	n	78
5347	56865	Ibrahim sent arms and explosives by sea to the Indian west coast.	Ibrahim sent arms and explosives by sea to the Indian west coast. 	2705700	1471989565173	1471989565244	d	68
5347	56865	Ibrahim sent arms and explosives by sea to the Indian west coast.	Ibrahim sent arms and explosives by sea to the Indian west coast. 	2705707	1471989565285	1471989565340	 	32
5347	56865	Ibrahim sent arms and explosives by sea to the Indian west coast.	Ibrahim sent arms and explosives by sea to the Indian west coast. 	2705712	1471989565557	1471989565636	e	69
5347	56865	Ibrahim sent arms and explosives by sea to the Indian west coast.	Ibrahim sent arms and explosives by sea to the Indian west coast. 	2705716	1471989565765	1471989565844	x	88
5347	56865	Ibrahim sent arms and explosives by sea to the Indian west coast.	Ibrahim sent arms and explosives by sea to the Indian west coast. 	2705823	1471989565904	1471989565964	p	80
5347	56865	Ibrahim sent arms and explosives by sea to the Indian west coast.	Ibrahim sent arms and explosives by sea to the Indian west coast. 	2705826	1471989566077	1471989566156	l	76
5347	56865	Ibrahim sent arms and explosives by sea to the Indian west coast.	Ibrahim sent arms and explosives by sea to the Indian west coast. 	2705830	1471989566445	1471989566532	o	79
5347	56865	Ibrahim sent arms and explosives by sea to the Indian west coast.	Ibrahim sent arms and explosives by sea to the Indian west coast. 	2705831	1471989566996	1471989567052	BKSP	8
5347	56865	Ibrahim sent arms and explosives by sea to the Indian west coast.	Ibrahim sent arms and explosives by sea to the Indian west coast. 	2705834	1471989567527	1471989567588	o	79
5347	56865	Ibrahim sent arms and explosives by sea to the Indian west coast.	Ibrahim sent arms and explosives by sea to the Indian west coast. 	2705837	1471989567661	1471989567780	s	83
5347	56865	Ibrahim sent arms and explosives by sea to the Indian west coast.	Ibrahim sent arms and explosives by sea to the Indian west coast. 	2705892	1471989567861	1471989567940	i	73
5347	56865	Ibrahim sent arms and explosives by sea to the Indian west coast.	Ibrahim sent arms and explosives by sea to the Indian west coast. 	2705896	1471989568029	1471989568092	v	86
5347	56865	Ibrahim sent arms and explosives by sea to the Indian west coast.	Ibrahim sent arms and explosives by sea to the Indian west coast. 	2705901	1471989568149	1471989568220	e	69
5347	56865	Ibrahim sent arms and explosives by sea to the Indian west coast.	Ibrahim sent arms and explosives by sea to the Indian west coast. 	2705908	1471989568325	1471989568412	s	83
5347	56865	Ibrahim sent arms and explosives by sea to the Indian west coast.	Ibrahim sent arms and explosives by sea to the Indian west coast. 	2705916	1471989568533	1471989568588	 	32
5347	56865	Ibrahim sent arms and explosives by sea to the Indian west coast.	Ibrahim sent arms and explosives by sea to the Indian west coast. 	2705997	1471989568733	1471989568804	b	66
5347	56865	Ibrahim sent arms and explosives by sea to the Indian west coast.	Ibrahim sent arms and explosives by sea to the Indian west coast. 	2706005	1471989568949	1471989569036	y	89
5347	56865	Ibrahim sent arms and explosives by sea to the Indian west coast.	Ibrahim sent arms and explosives by sea to the Indian west coast. 	2706013	1471989569381	1471989569420	 	32
5347	56865	Ibrahim sent arms and explosives by sea to the Indian west coast.	Ibrahim sent arms and explosives by sea to the Indian west coast. 	2706024	1471989569581	1471989569676	s	83
5347	56865	Ibrahim sent arms and explosives by sea to the Indian west coast.	Ibrahim sent arms and explosives by sea to the Indian west coast. 	2706031	1471989569757	1471989569852	e	69
5347	56865	Ibrahim sent arms and explosives by sea to the Indian west coast.	Ibrahim sent arms and explosives by sea to the Indian west coast. 	2706083	1471989569909	1471989569988	a	65
5347	56865	Ibrahim sent arms and explosives by sea to the Indian west coast.	Ibrahim sent arms and explosives by sea to the Indian west coast. 	2706087	1471989570269	1471989570332	 	32
5347	56865	Ibrahim sent arms and explosives by sea to the Indian west coast.	Ibrahim sent arms and explosives by sea to the Indian west coast. 	2706093	1471989570429	1471989570508	t	84
5347	56865	Ibrahim sent arms and explosives by sea to the Indian west coast.	Ibrahim sent arms and explosives by sea to the Indian west coast. 	2706099	1471989570493	1471989570556	o	79
5347	56865	Ibrahim sent arms and explosives by sea to the Indian west coast.	Ibrahim sent arms and explosives by sea to the Indian west coast. 	2706106	1471989570605	1471989570668	 	32
5347	56865	Ibrahim sent arms and explosives by sea to the Indian west coast.	Ibrahim sent arms and explosives by sea to the Indian west coast. 	2706173	1471989570893	1471989570957	t	84
5347	56865	Ibrahim sent arms and explosives by sea to the Indian west coast.	Ibrahim sent arms and explosives by sea to the Indian west coast. 	2706174	1471989570949	1471989571020	h	72
5347	56865	Ibrahim sent arms and explosives by sea to the Indian west coast.	Ibrahim sent arms and explosives by sea to the Indian west coast. 	2706175	1471989571037	1471989571100	e	69
5347	56865	Ibrahim sent arms and explosives by sea to the Indian west coast.	Ibrahim sent arms and explosives by sea to the Indian west coast. 	2706177	1471989571125	1471989571164	 	32
5347	56865	Ibrahim sent arms and explosives by sea to the Indian west coast.	Ibrahim sent arms and explosives by sea to the Indian west coast. 	2706244	1471989571660	1471989571772	SHIFT	16
5347	56865	Ibrahim sent arms and explosives by sea to the Indian west coast.	Ibrahim sent arms and explosives by sea to the Indian west coast. 	2706179	1471989571701	1471989571757	I	73
5347	56865	Ibrahim sent arms and explosives by sea to the Indian west coast.	Ibrahim sent arms and explosives by sea to the Indian west coast. 	2706247	1471989571829	1471989571892	n	78
5347	56865	Ibrahim sent arms and explosives by sea to the Indian west coast.	Ibrahim sent arms and explosives by sea to the Indian west coast. 	2706251	1471989571919	1471989571996	d	68
5347	56865	Ibrahim sent arms and explosives by sea to the Indian west coast.	Ibrahim sent arms and explosives by sea to the Indian west coast. 	2706256	1471989572117	1471989572172	e	69
5347	56865	Ibrahim sent arms and explosives by sea to the Indian west coast.	Ibrahim sent arms and explosives by sea to the Indian west coast. 	2706262	1471989572333	1471989572388	i	73
5347	56865	Ibrahim sent arms and explosives by sea to the Indian west coast.	Ibrahim sent arms and explosives by sea to the Indian west coast. 	2706269	1471989572549	1471989572620	BKSP	8
5347	56865	Ibrahim sent arms and explosives by sea to the Indian west coast.	Ibrahim sent arms and explosives by sea to the Indian west coast. 	2706274	1471989572669	1471989572749	BKSP	8
5347	56865	Ibrahim sent arms and explosives by sea to the Indian west coast.	Ibrahim sent arms and explosives by sea to the Indian west coast. 	2706279	1471989572901	1471989572933	i	73
5347	56865	Ibrahim sent arms and explosives by sea to the Indian west coast.	Ibrahim sent arms and explosives by sea to the Indian west coast. 	2706346	1471989572941	1471989572989	a	65
5347	56865	Ibrahim sent arms and explosives by sea to the Indian west coast.	Ibrahim sent arms and explosives by sea to the Indian west coast. 	2706350	1471989573030	1471989573078	a	65
5347	56865	Ibrahim sent arms and explosives by sea to the Indian west coast.	Ibrahim sent arms and explosives by sea to the Indian west coast. 	2706355	1471989573653	1471989573700	BKSP	8
5347	56865	Ibrahim sent arms and explosives by sea to the Indian west coast.	Ibrahim sent arms and explosives by sea to the Indian west coast. 	2706360	1471989573829	1471989573910	n	78
5347	56865	Ibrahim sent arms and explosives by sea to the Indian west coast.	Ibrahim sent arms and explosives by sea to the Indian west coast. 	2706363	1471989573965	1471989574029	 	32
5347	56865	Ibrahim sent arms and explosives by sea to the Indian west coast.	Ibrahim sent arms and explosives by sea to the Indian west coast. 	2706367	1471989574205	1471989574300	w	87
5347	56865	Ibrahim sent arms and explosives by sea to the Indian west coast.	Ibrahim sent arms and explosives by sea to the Indian west coast. 	2706419	1471989574559	1471989574654	s	83
5347	56865	Ibrahim sent arms and explosives by sea to the Indian west coast.	Ibrahim sent arms and explosives by sea to the Indian west coast. 	2706424	1471989574749	1471989574820	t	84
5347	56865	Ibrahim sent arms and explosives by sea to the Indian west coast.	Ibrahim sent arms and explosives by sea to the Indian west coast. 	2706427	1471989575077	1471989575132	BKSP	8
5347	56865	Ibrahim sent arms and explosives by sea to the Indian west coast.	Ibrahim sent arms and explosives by sea to the Indian west coast. 	2706433	1471989575189	1471989575244	BKSP	8
5347	56865	Ibrahim sent arms and explosives by sea to the Indian west coast.	Ibrahim sent arms and explosives by sea to the Indian west coast. 	2706440	1471989575269	1471989575364	e	69
5347	56865	Ibrahim sent arms and explosives by sea to the Indian west coast.	Ibrahim sent arms and explosives by sea to the Indian west coast. 	2706444	1471989575421	1471989575516	s	83
5347	56865	Ibrahim sent arms and explosives by sea to the Indian west coast.	Ibrahim sent arms and explosives by sea to the Indian west coast. 	2706448	1471989575589	1471989575668	t	84
5347	56865	Ibrahim sent arms and explosives by sea to the Indian west coast.	Ibrahim sent arms and explosives by sea to the Indian west coast. 	2706475	1471989575749	1471989575812	 	32
5347	56865	Ibrahim sent arms and explosives by sea to the Indian west coast.	Ibrahim sent arms and explosives by sea to the Indian west coast. 	2706476	1471989576061	1471989576133	c	67
5347	56865	Ibrahim sent arms and explosives by sea to the Indian west coast.	Ibrahim sent arms and explosives by sea to the Indian west coast. 	2706478	1471989576141	1471989576204	o	79
5347	56865	Ibrahim sent arms and explosives by sea to the Indian west coast.	Ibrahim sent arms and explosives by sea to the Indian west coast. 	2706480	1471989576213	1471989576300	u	85
5347	56865	Ibrahim sent arms and explosives by sea to the Indian west coast.	Ibrahim sent arms and explosives by sea to the Indian west coast. 	2706482	1471989576309	1471989576381	s	83
5347	56865	Ibrahim sent arms and explosives by sea to the Indian west coast.	Ibrahim sent arms and explosives by sea to the Indian west coast. 	2706582	1471989576454	1471989576550	a	65
5347	56865	Ibrahim sent arms and explosives by sea to the Indian west coast.	Ibrahim sent arms and explosives by sea to the Indian west coast. 	2706586	1471989576702	1471989576748	BKSP	8
5347	56865	Ibrahim sent arms and explosives by sea to the Indian west coast.	Ibrahim sent arms and explosives by sea to the Indian west coast. 	2706591	1471989576821	1471989576877	BKSP	8
5347	56865	Ibrahim sent arms and explosives by sea to the Indian west coast.	Ibrahim sent arms and explosives by sea to the Indian west coast. 	2706595	1471989577167	1471989577246	BKSP	8
5347	56865	Ibrahim sent arms and explosives by sea to the Indian west coast.	Ibrahim sent arms and explosives by sea to the Indian west coast. 	2706601	1471989577294	1471989577437	a	65
5347	56865	Ibrahim sent arms and explosives by sea to the Indian west coast.	Ibrahim sent arms and explosives by sea to the Indian west coast. 	2706609	1471989577389	1471989577510	s	83
5347	56865	Ibrahim sent arms and explosives by sea to the Indian west coast.	Ibrahim sent arms and explosives by sea to the Indian west coast. 	2706618	1471989577599	1471989577677	t	84
5347	56865	Ibrahim sent arms and explosives by sea to the Indian west coast.	Ibrahim sent arms and explosives by sea to the Indian west coast. 	2706624	1471989577853	1471989577948	.	190
5347	56865	Ibrahim sent arms and explosives by sea to the Indian west coast.	Ibrahim sent arms and explosives by sea to the Indian west coast. 	2706680	1471989578029	1471989578076	 	32
5347	56901	I wouldn't worry about coming in today.	I wouldn't worry about coming in today. 	2707183	1471989585060	1471989585308	SHIFT	16
5347	56901	I wouldn't worry about coming in today.	I wouldn't worry about coming in today. 	2707191	1471989585492	1471989585940	SHIFT	16
5347	56901	I wouldn't worry about coming in today.	I wouldn't worry about coming in today. 	2707187	1471989585837	1471989585900	I	73
5347	56901	I wouldn't worry about coming in today.	I wouldn't worry about coming in today. 	2707194	1471989585973	1471989586036	 	32
5347	56901	I wouldn't worry about coming in today.	I wouldn't worry about coming in today. 	2707197	1471989586341	1471989586420	w	87
5347	56901	I wouldn't worry about coming in today.	I wouldn't worry about coming in today. 	2707200	1471989586429	1471989586500	o	79
5347	56901	I wouldn't worry about coming in today.	I wouldn't worry about coming in today. 	2707239	1471989586493	1471989586572	u	85
5347	56901	I wouldn't worry about coming in today.	I wouldn't worry about coming in today. 	2707247	1471989586637	1471989586718	l	76
5347	56901	I wouldn't worry about coming in today.	I wouldn't worry about coming in today. 	2707252	1471989586709	1471989586772	d	68
5347	56901	I wouldn't worry about coming in today.	I wouldn't worry about coming in today. 	2707261	1471989586997	1471989587092	n	78
5347	56901	I wouldn't worry about coming in today.	I wouldn't worry about coming in today. 	2707266	1471989587157	1471989587261	'	222
5347	56901	I wouldn't worry about coming in today.	I wouldn't worry about coming in today. 	2707273	1471989587285	1471989587356	t	84
5347	56901	I wouldn't worry about coming in today.	I wouldn't worry about coming in today. 	2707307	1471989587373	1471989587412	 	32
5347	56901	I wouldn't worry about coming in today.	I wouldn't worry about coming in today. 	2707311	1471989587725	1471989587804	w	87
5347	56901	I wouldn't worry about coming in today.	I wouldn't worry about coming in today. 	2707313	1471989587821	1471989587893	o	79
5347	56901	I wouldn't worry about coming in today.	I wouldn't worry about coming in today. 	2707316	1471989587997	1471989588061	r	82
5347	56901	I wouldn't worry about coming in today.	I wouldn't worry about coming in today. 	2707318	1471989588126	1471989588191	r	82
5347	56901	I wouldn't worry about coming in today.	I wouldn't worry about coming in today. 	2707338	1471989588293	1471989588357	y	89
5347	56901	I wouldn't worry about coming in today.	I wouldn't worry about coming in today. 	2707342	1471989588429	1471989588524	 	32
5347	56901	I wouldn't worry about coming in today.	I wouldn't worry about coming in today. 	2707346	1471989588661	1471989588756	a	65
5347	56901	I wouldn't worry about coming in today.	I wouldn't worry about coming in today. 	2707350	1471989588765	1471989588828	b	66
5347	56901	I wouldn't worry about coming in today.	I wouldn't worry about coming in today. 	2707355	1471989588902	1471989588989	o	79
5347	56901	I wouldn't worry about coming in today.	I wouldn't worry about coming in today. 	2707370	1471989589006	1471989589092	u	85
5347	56901	I wouldn't worry about coming in today.	I wouldn't worry about coming in today. 	2707374	1471989589117	1471989589180	t	84
5347	56901	I wouldn't worry about coming in today.	I wouldn't worry about coming in today. 	2707378	1471989589221	1471989589276	 	32
5347	56901	I wouldn't worry about coming in today.	I wouldn't worry about coming in today. 	2707381	1471989589573	1471989589644	c	67
5347	56901	I wouldn't worry about coming in today.	I wouldn't worry about coming in today. 	2707385	1471989589669	1471989589724	o	79
5347	56901	I wouldn't worry about coming in today.	I wouldn't worry about coming in today. 	2707407	1471989589797	1471989589869	m	77
5347	56901	I wouldn't worry about coming in today.	I wouldn't worry about coming in today. 	2707411	1471989589925	1471989589980	i	73
5347	56901	I wouldn't worry about coming in today.	I wouldn't worry about coming in today. 	2707415	1471989590021	1471989590092	n	78
5347	56901	I wouldn't worry about coming in today.	I wouldn't worry about coming in today. 	2707418	1471989590157	1471989590229	g	71
5347	56901	I wouldn't worry about coming in today.	I wouldn't worry about coming in today. 	2707425	1471989590325	1471989590388	 	32
5347	56901	I wouldn't worry about coming in today.	I wouldn't worry about coming in today. 	2707458	1471989590550	1471989590613	i	73
5347	56901	I wouldn't worry about coming in today.	I wouldn't worry about coming in today. 	2707460	1471989590678	1471989590733	n	78
5347	56901	I wouldn't worry about coming in today.	I wouldn't worry about coming in today. 	2707463	1471989590789	1471989590837	 	32
5347	56901	I wouldn't worry about coming in today.	I wouldn't worry about coming in today. 	2707464	1471989590934	1471989591020	t	84
5347	56901	I wouldn't worry about coming in today.	I wouldn't worry about coming in today. 	2707541	1471989591013	1471989591092	o	79
5347	56901	I wouldn't worry about coming in today.	I wouldn't worry about coming in today. 	2707544	1471989591165	1471989591236	d	68
5347	56901	I wouldn't worry about coming in today.	I wouldn't worry about coming in today. 	2707547	1471989591269	1471989591333	y	89
5347	56901	I wouldn't worry about coming in today.	I wouldn't worry about coming in today. 	2707550	1471989591301	1471989591372	a	65
5347	56901	I wouldn't worry about coming in today.	I wouldn't worry about coming in today. 	2707554	1471989592013	1471989592092	BKSP	8
5347	56901	I wouldn't worry about coming in today.	I wouldn't worry about coming in today. 	2707555	1471989592125	1471989592205	a	65
5347	56901	I wouldn't worry about coming in today.	I wouldn't worry about coming in today. 	2707556	1471989592429	1471989592484	BKSP	8
5347	56901	I wouldn't worry about coming in today.	I wouldn't worry about coming in today. 	2707557	1471989592549	1471989592612	BKSP	8
5347	56901	I wouldn't worry about coming in today.	I wouldn't worry about coming in today. 	2707558	1471989592718	1471989592788	a	65
5347	56901	I wouldn't worry about coming in today.	I wouldn't worry about coming in today. 	2707585	1471989592749	1471989592812	y	89
5347	56901	I wouldn't worry about coming in today.	I wouldn't worry about coming in today. 	2707592	1471989593005	1471989593110	.	190
5347	56901	I wouldn't worry about coming in today.	I wouldn't worry about coming in today. 	2707597	1471989593149	1471989593212	 	32
5347	56922	Opening on the back nine she birdied the 11th and bogeyed the next.	Opening on the back nine she birdied the 11th and bogeyed the next. 	2707943	1471989597141	1471989597652	SHIFT	16
5347	56922	Opening on the back nine she birdied the 11th and bogeyed the next.	Opening on the back nine she birdied the 11th and bogeyed the next. 	2707940	1471989597517	1471989597588	O	79
5347	56922	Opening on the back nine she birdied the 11th and bogeyed the next.	Opening on the back nine she birdied the 11th and bogeyed the next. 	2707947	1471989597709	1471989597805	p	80
5347	56922	Opening on the back nine she birdied the 11th and bogeyed the next.	Opening on the back nine she birdied the 11th and bogeyed the next. 	2707949	1471989598141	1471989598196	n	78
5347	56922	Opening on the back nine she birdied the 11th and bogeyed the next.	Opening on the back nine she birdied the 11th and bogeyed the next. 	2707951	1471989598237	1471989598300	e	69
5347	56922	Opening on the back nine she birdied the 11th and bogeyed the next.	Opening on the back nine she birdied the 11th and bogeyed the next. 	2707954	1471989598645	1471989598708	BKSP	8
5347	56922	Opening on the back nine she birdied the 11th and bogeyed the next.	Opening on the back nine she birdied the 11th and bogeyed the next. 	2707957	1471989598765	1471989598812	BKSP	8
5347	56922	Opening on the back nine she birdied the 11th and bogeyed the next.	Opening on the back nine she birdied the 11th and bogeyed the next. 	2707963	1471989598869	1471989598949	e	69
5347	56922	Opening on the back nine she birdied the 11th and bogeyed the next.	Opening on the back nine she birdied the 11th and bogeyed the next. 	2707964	1471989598981	1471989599055	n	78
5347	56922	Opening on the back nine she birdied the 11th and bogeyed the next.	Opening on the back nine she birdied the 11th and bogeyed the next. 	2707968	1471989599085	1471989599164	i	73
5347	56922	Opening on the back nine she birdied the 11th and bogeyed the next.	Opening on the back nine she birdied the 11th and bogeyed the next. 	2707975	1471989599181	1471989599252	n	78
5347	56922	Opening on the back nine she birdied the 11th and bogeyed the next.	Opening on the back nine she birdied the 11th and bogeyed the next. 	2707983	1471989599277	1471989599348	g	71
5347	56922	Opening on the back nine she birdied the 11th and bogeyed the next.	Opening on the back nine she birdied the 11th and bogeyed the next. 	2708091	1471989599341	1471989599404	 	32
5347	56922	Opening on the back nine she birdied the 11th and bogeyed the next.	Opening on the back nine she birdied the 11th and bogeyed the next. 	2708095	1471989599653	1471989599733	o	79
5347	56922	Opening on the back nine she birdied the 11th and bogeyed the next.	Opening on the back nine she birdied the 11th and bogeyed the next. 	2708100	1471989599805	1471989599860	n	78
5347	56922	Opening on the back nine she birdied the 11th and bogeyed the next.	Opening on the back nine she birdied the 11th and bogeyed the next. 	2708103	1471989599949	1471989599984	 	32
5347	56922	Opening on the back nine she birdied the 11th and bogeyed the next.	Opening on the back nine she birdied the 11th and bogeyed the next. 	2708109	1471989600093	1471989600220	t	84
5347	56922	Opening on the back nine she birdied the 11th and bogeyed the next.	Opening on the back nine she birdied the 11th and bogeyed the next. 	2708117	1471989600413	1471989600492	 	32
5347	56922	Opening on the back nine she birdied the 11th and bogeyed the next.	Opening on the back nine she birdied the 11th and bogeyed the next. 	2708239	1471989600868	1471989600916	BKSP	8
5347	56922	Opening on the back nine she birdied the 11th and bogeyed the next.	Opening on the back nine she birdied the 11th and bogeyed the next. 	2708241	1471989600997	1471989601036	BKSP	8
5347	56922	Opening on the back nine she birdied the 11th and bogeyed the next.	Opening on the back nine she birdied the 11th and bogeyed the next. 	2708243	1471989601165	1471989601247	h	72
5347	56922	Opening on the back nine she birdied the 11th and bogeyed the next.	Opening on the back nine she birdied the 11th and bogeyed the next. 	2708245	1471989601237	1471989601294	e	69
5347	56922	Opening on the back nine she birdied the 11th and bogeyed the next.	Opening on the back nine she birdied the 11th and bogeyed the next. 	2708247	1471989601373	1471989601436	 	32
5347	56922	Opening on the back nine she birdied the 11th and bogeyed the next.	Opening on the back nine she birdied the 11th and bogeyed the next. 	2708249	1471989601693	1471989601748	BKSP	8
5347	56922	Opening on the back nine she birdied the 11th and bogeyed the next.	Opening on the back nine she birdied the 11th and bogeyed the next. 	2708251	1471989601820	1471989601884	BKSP	8
5347	56922	Opening on the back nine she birdied the 11th and bogeyed the next.	Opening on the back nine she birdied the 11th and bogeyed the next. 	2708253	1471989602013	1471989602076	BKSP	8
5347	56922	Opening on the back nine she birdied the 11th and bogeyed the next.	Opening on the back nine she birdied the 11th and bogeyed the next. 	2708256	1471989602133	1471989602204	t	84
5347	56922	Opening on the back nine she birdied the 11th and bogeyed the next.	Opening on the back nine she birdied the 11th and bogeyed the next. 	2708260	1471989602213	1471989602294	h	72
5347	56922	Opening on the back nine she birdied the 11th and bogeyed the next.	Opening on the back nine she birdied the 11th and bogeyed the next. 	2708303	1471989602293	1471989602356	e	69
5347	56922	Opening on the back nine she birdied the 11th and bogeyed the next.	Opening on the back nine she birdied the 11th and bogeyed the next. 	2708310	1471989602381	1471989602436	 	32
5347	56922	Opening on the back nine she birdied the 11th and bogeyed the next.	Opening on the back nine she birdied the 11th and bogeyed the next. 	2708314	1471989602781	1471989602852	b	66
5347	56922	Opening on the back nine she birdied the 11th and bogeyed the next.	Opening on the back nine she birdied the 11th and bogeyed the next. 	2708317	1471989602884	1471989602972	a	65
5347	56922	Opening on the back nine she birdied the 11th and bogeyed the next.	Opening on the back nine she birdied the 11th and bogeyed the next. 	2708319	1471989603069	1471989603116	k	75
5347	56922	Opening on the back nine she birdied the 11th and bogeyed the next.	Opening on the back nine she birdied the 11th and bogeyed the next. 	2708452	1471989603095	1471989603180	c	67
5347	56922	Opening on the back nine she birdied the 11th and bogeyed the next.	Opening on the back nine she birdied the 11th and bogeyed the next. 	2708455	1471989603644	1471989603708	BKSP	8
5347	56922	Opening on the back nine she birdied the 11th and bogeyed the next.	Opening on the back nine she birdied the 11th and bogeyed the next. 	2708461	1471989603781	1471989603844	c	67
5347	56922	Opening on the back nine she birdied the 11th and bogeyed the next.	Opening on the back nine she birdied the 11th and bogeyed the next. 	2708466	1471989604076	1471989604140	BKSP	8
5347	56922	Opening on the back nine she birdied the 11th and bogeyed the next.	Opening on the back nine she birdied the 11th and bogeyed the next. 	2708470	1471989604229	1471989604324	c	67
5347	56922	Opening on the back nine she birdied the 11th and bogeyed the next.	Opening on the back nine she birdied the 11th and bogeyed the next. 	2708473	1471989604516	1471989604580	BKSP	8
5347	56922	Opening on the back nine she birdied the 11th and bogeyed the next.	Opening on the back nine she birdied the 11th and bogeyed the next. 	2708476	1471989604644	1471989604716	BKSP	8
5347	56922	Opening on the back nine she birdied the 11th and bogeyed the next.	Opening on the back nine she birdied the 11th and bogeyed the next. 	2708478	1471989604797	1471989604887	c	67
5347	56922	Opening on the back nine she birdied the 11th and bogeyed the next.	Opening on the back nine she birdied the 11th and bogeyed the next. 	2708480	1471989604869	1471989604948	k	75
5347	56922	Opening on the back nine she birdied the 11th and bogeyed the next.	Opening on the back nine she birdied the 11th and bogeyed the next. 	2708481	1471989605021	1471989605076	 	32
5347	56922	Opening on the back nine she birdied the 11th and bogeyed the next.	Opening on the back nine she birdied the 11th and bogeyed the next. 	2708515	1471989605213	1471989605284	n	78
5347	56922	Opening on the back nine she birdied the 11th and bogeyed the next.	Opening on the back nine she birdied the 11th and bogeyed the next. 	2708518	1471989605349	1471989605420	i	73
5347	56922	Opening on the back nine she birdied the 11th and bogeyed the next.	Opening on the back nine she birdied the 11th and bogeyed the next. 	2708524	1471989605485	1471989605556	n	78
5347	56922	Opening on the back nine she birdied the 11th and bogeyed the next.	Opening on the back nine she birdied the 11th and bogeyed the next. 	2708529	1471989605949	1471989606020	e	69
5347	56922	Opening on the back nine she birdied the 11th and bogeyed the next.	Opening on the back nine she birdied the 11th and bogeyed the next. 	2708533	1471989606077	1471989606132	 	32
5347	56922	Opening on the back nine she birdied the 11th and bogeyed the next.	Opening on the back nine she birdied the 11th and bogeyed the next. 	2708562	1471989606285	1471989606375	s	83
5347	56922	Opening on the back nine she birdied the 11th and bogeyed the next.	Opening on the back nine she birdied the 11th and bogeyed the next. 	2708564	1471989606365	1471989606428	h	72
5347	56922	Opening on the back nine she birdied the 11th and bogeyed the next.	Opening on the back nine she birdied the 11th and bogeyed the next. 	2708569	1471989606501	1471989606573	e	69
5347	56922	Opening on the back nine she birdied the 11th and bogeyed the next.	Opening on the back nine she birdied the 11th and bogeyed the next. 	2708574	1471989606597	1471989606660	 	32
5347	56922	Opening on the back nine she birdied the 11th and bogeyed the next.	Opening on the back nine she birdied the 11th and bogeyed the next. 	2708580	1471989606806	1471989606876	b	66
5347	56922	Opening on the back nine she birdied the 11th and bogeyed the next.	Opening on the back nine she birdied the 11th and bogeyed the next. 	2708686	1471989607085	1471989607156	i	73
5347	56922	Opening on the back nine she birdied the 11th and bogeyed the next.	Opening on the back nine she birdied the 11th and bogeyed the next. 	2708691	1471989607253	1471989607348	r	82
5347	56922	Opening on the back nine she birdied the 11th and bogeyed the next.	Opening on the back nine she birdied the 11th and bogeyed the next. 	2708697	1471989607581	1471989607669	d	68
5347	56922	Opening on the back nine she birdied the 11th and bogeyed the next.	Opening on the back nine she birdied the 11th and bogeyed the next. 	2708700	1471989607901	1471989607932	e	69
5347	56922	Opening on the back nine she birdied the 11th and bogeyed the next.	Opening on the back nine she birdied the 11th and bogeyed the next. 	2708706	1471989608286	1471989608372	BKSP	8
5347	56922	Opening on the back nine she birdied the 11th and bogeyed the next.	Opening on the back nine she birdied the 11th and bogeyed the next. 	2708711	1471989608485	1471989608565	i	73
5347	56922	Opening on the back nine she birdied the 11th and bogeyed the next.	Opening on the back nine she birdied the 11th and bogeyed the next. 	2708735	1471989608557	1471989608644	e	69
5347	56922	Opening on the back nine she birdied the 11th and bogeyed the next.	Opening on the back nine she birdied the 11th and bogeyed the next. 	2708738	1471989608717	1471989608796	d	68
5347	56922	Opening on the back nine she birdied the 11th and bogeyed the next.	Opening on the back nine she birdied the 11th and bogeyed the next. 	2708742	1471989608821	1471989608884	 	32
5347	56922	Opening on the back nine she birdied the 11th and bogeyed the next.	Opening on the back nine she birdied the 11th and bogeyed the next. 	2708747	1471989608981	1471989609052	t	84
5347	56922	Opening on the back nine she birdied the 11th and bogeyed the next.	Opening on the back nine she birdied the 11th and bogeyed the next. 	2708754	1471989609021	1471989609084	h	72
5347	56922	Opening on the back nine she birdied the 11th and bogeyed the next.	Opening on the back nine she birdied the 11th and bogeyed the next. 	2708759	1471989609149	1471989609197	e	69
5347	56922	Opening on the back nine she birdied the 11th and bogeyed the next.	Opening on the back nine she birdied the 11th and bogeyed the next. 	2708857	1471989609199	1471989609244	 	32
5347	56922	Opening on the back nine she birdied the 11th and bogeyed the next.	Opening on the back nine she birdied the 11th and bogeyed the next. 	2708870	1471989609468	1471989610260	SHIFT	16
5347	56922	Opening on the back nine she birdied the 11th and bogeyed the next.	Opening on the back nine she birdied the 11th and bogeyed the next. 	2708863	1471989609989	1471989610052	!	49
5347	56922	Opening on the back nine she birdied the 11th and bogeyed the next.	Opening on the back nine she birdied the 11th and bogeyed the next. 	2708867	1471989610117	1471989610204	!	49
5347	56922	Opening on the back nine she birdied the 11th and bogeyed the next.	Opening on the back nine she birdied the 11th and bogeyed the next. 	2708874	1471989610573	1471989610652	BKSP	8
5347	56922	Opening on the back nine she birdied the 11th and bogeyed the next.	Opening on the back nine she birdied the 11th and bogeyed the next. 	2708878	1471989610709	1471989610780	BKSP	8
5347	56922	Opening on the back nine she birdied the 11th and bogeyed the next.	Opening on the back nine she birdied the 11th and bogeyed the next. 	2708884	1471989610973	1471989611044	1	49
5347	56922	Opening on the back nine she birdied the 11th and bogeyed the next.	Opening on the back nine she birdied the 11th and bogeyed the next. 	2708888	1471989611109	1471989611172	1	49
5347	56922	Opening on the back nine she birdied the 11th and bogeyed the next.	Opening on the back nine she birdied the 11th and bogeyed the next. 	2708910	1471989611365	1471989611444	t	84
5347	56922	Opening on the back nine she birdied the 11th and bogeyed the next.	Opening on the back nine she birdied the 11th and bogeyed the next. 	2708917	1471989611453	1471989611516	h	72
5347	56922	Opening on the back nine she birdied the 11th and bogeyed the next.	Opening on the back nine she birdied the 11th and bogeyed the next. 	2708926	1471989611613	1471989611660	 	32
5347	56922	Opening on the back nine she birdied the 11th and bogeyed the next.	Opening on the back nine she birdied the 11th and bogeyed the next. 	2708933	1471989611741	1471989611805	a	65
5347	56922	Opening on the back nine she birdied the 11th and bogeyed the next.	Opening on the back nine she birdied the 11th and bogeyed the next. 	2708940	1471989611806	1471989611860	n	78
5347	56922	Opening on the back nine she birdied the 11th and bogeyed the next.	Opening on the back nine she birdied the 11th and bogeyed the next. 	2708990	1471989611877	1471989611941	d	68
5347	56922	Opening on the back nine she birdied the 11th and bogeyed the next.	Opening on the back nine she birdied the 11th and bogeyed the next. 	2708996	1471989611933	1471989611988	 	32
5347	56922	Opening on the back nine she birdied the 11th and bogeyed the next.	Opening on the back nine she birdied the 11th and bogeyed the next. 	2709002	1471989612309	1471989612388	b	66
5347	56922	Opening on the back nine she birdied the 11th and bogeyed the next.	Opening on the back nine she birdied the 11th and bogeyed the next. 	2709010	1471989612653	1471989612724	g	71
5347	56922	Opening on the back nine she birdied the 11th and bogeyed the next.	Opening on the back nine she birdied the 11th and bogeyed the next. 	2709018	1471989612845	1471989612933	o	79
5347	56922	Opening on the back nine she birdied the 11th and bogeyed the next.	Opening on the back nine she birdied the 11th and bogeyed the next. 	2709119	1471989613116	1471989613165	BKSP	8
5347	56922	Opening on the back nine she birdied the 11th and bogeyed the next.	Opening on the back nine she birdied the 11th and bogeyed the next. 	2709125	1471989613221	1471989613284	BKSP	8
5347	56922	Opening on the back nine she birdied the 11th and bogeyed the next.	Opening on the back nine she birdied the 11th and bogeyed the next. 	2709135	1471989613446	1471989613449	o	79
5347	56922	Opening on the back nine she birdied the 11th and bogeyed the next.	Opening on the back nine she birdied the 11th and bogeyed the next. 	2709141	1471989613525	1471989613621	g	71
5347	56922	Opening on the back nine she birdied the 11th and bogeyed the next.	Opening on the back nine she birdied the 11th and bogeyed the next. 	2709147	1471989613709	1471989613804	e	69
5347	56922	Opening on the back nine she birdied the 11th and bogeyed the next.	Opening on the back nine she birdied the 11th and bogeyed the next. 	2709154	1471989614269	1471989614324	y	89
5347	56922	Opening on the back nine she birdied the 11th and bogeyed the next.	Opening on the back nine she birdied the 11th and bogeyed the next. 	2709163	1471989614365	1471989614445	e	69
5347	56922	Opening on the back nine she birdied the 11th and bogeyed the next.	Opening on the back nine she birdied the 11th and bogeyed the next. 	2709246	1471989614525	1471989614588	d	68
5347	56922	Opening on the back nine she birdied the 11th and bogeyed the next.	Opening on the back nine she birdied the 11th and bogeyed the next. 	2709249	1471989614917	1471989614956	 	32
5347	56922	Opening on the back nine she birdied the 11th and bogeyed the next.	Opening on the back nine she birdied the 11th and bogeyed the next. 	2709255	1471989615101	1471989615149	i	73
5347	56922	Opening on the back nine she birdied the 11th and bogeyed the next.	Opening on the back nine she birdied the 11th and bogeyed the next. 	2709260	1471989615493	1471989615556	BKSP	8
5347	56922	Opening on the back nine she birdied the 11th and bogeyed the next.	Opening on the back nine she birdied the 11th and bogeyed the next. 	2709268	1471989615589	1471989615660	t	84
5347	56922	Opening on the back nine she birdied the 11th and bogeyed the next.	Opening on the back nine she birdied the 11th and bogeyed the next. 	2709274	1471989615677	1471989615757	h	72
5347	56922	Opening on the back nine she birdied the 11th and bogeyed the next.	Opening on the back nine she birdied the 11th and bogeyed the next. 	2709342	1471989615749	1471989615812	e	69
5347	56922	Opening on the back nine she birdied the 11th and bogeyed the next.	Opening on the back nine she birdied the 11th and bogeyed the next. 	2709349	1471989615845	1471989615892	 	32
5347	56922	Opening on the back nine she birdied the 11th and bogeyed the next.	Opening on the back nine she birdied the 11th and bogeyed the next. 	2709354	1471989616053	1471989616124	n	78
5347	56922	Opening on the back nine she birdied the 11th and bogeyed the next.	Opening on the back nine she birdied the 11th and bogeyed the next. 	2709361	1471989616141	1471989616228	e	69
5347	56922	Opening on the back nine she birdied the 11th and bogeyed the next.	Opening on the back nine she birdied the 11th and bogeyed the next. 	2709368	1471989616621	1471989616716	x	88
5347	56922	Opening on the back nine she birdied the 11th and bogeyed the next.	Opening on the back nine she birdied the 11th and bogeyed the next. 	2709374	1471989616861	1471989616932	t	84
5347	56922	Opening on the back nine she birdied the 11th and bogeyed the next.	Opening on the back nine she birdied the 11th and bogeyed the next. 	2709404	1471989616973	1471989617044	.	190
5347	56922	Opening on the back nine she birdied the 11th and bogeyed the next.	Opening on the back nine she birdied the 11th and bogeyed the next. 	2709405	1471989617101	1471989617180	 	32
5347	56958	I'm waiting until she comes home.	I'm waiting unitl she comes home.	2709576	1471989620021	1471989620252	SHIFT	16
5347	56958	I'm waiting until she comes home.	I'm waiting unitl she comes home.	2709574	1471989620142	1471989620221	I	73
5347	56958	I'm waiting until she comes home.	I'm waiting unitl she comes home.	2709580	1471989620373	1471989620492	'	222
5347	56958	I'm waiting until she comes home.	I'm waiting unitl she comes home.	2709586	1471989620606	1471989620708	m	77
5347	56958	I'm waiting until she comes home.	I'm waiting unitl she comes home.	2709593	1471989620741	1471989620805	 	32
5347	56958	I'm waiting until she comes home.	I'm waiting unitl she comes home.	2709599	1471989620957	1471989621012	w	87
5347	56958	I'm waiting until she comes home.	I'm waiting unitl she comes home.	2709658	1471989621237	1471989621334	a	65
5347	56958	I'm waiting until she comes home.	I'm waiting unitl she comes home.	2709660	1471989621351	1471989621420	i	73
5347	56958	I'm waiting until she comes home.	I'm waiting unitl she comes home.	2709663	1471989621469	1471989621542	t	84
5347	56958	I'm waiting until she comes home.	I'm waiting unitl she comes home.	2709666	1471989621501	1471989621644	n	78
5347	56958	I'm waiting until she comes home.	I'm waiting unitl she comes home.	2709671	1471989622044	1471989622124	BKSP	8
5347	56958	I'm waiting until she comes home.	I'm waiting unitl she comes home.	2709678	1471989622253	1471989622324	i	73
5347	56958	I'm waiting until she comes home.	I'm waiting unitl she comes home.	2709709	1471989622357	1471989622436	n	78
5347	56958	I'm waiting until she comes home.	I'm waiting unitl she comes home.	2709715	1471989622478	1471989622558	g	71
5347	56958	I'm waiting until she comes home.	I'm waiting unitl she comes home.	2709719	1471989622566	1471989622620	 	32
5347	56958	I'm waiting until she comes home.	I'm waiting unitl she comes home.	2709725	1471989622733	1471989622804	w	87
5347	56958	I'm waiting until she comes home.	I'm waiting unitl she comes home.	2709732	1471989622884	1471989622948	u	85
5347	56958	I'm waiting until she comes home.	I'm waiting unitl she comes home.	2709853	1471989623525	1471989623572	BKSP	8
5347	56958	I'm waiting until she comes home.	I'm waiting unitl she comes home.	2709857	1471989623636	1471989623684	BKSP	8
5347	56958	I'm waiting until she comes home.	I'm waiting unitl she comes home.	2709860	1471989623821	1471989623892	u	85
5347	56958	I'm waiting until she comes home.	I'm waiting unitl she comes home.	2709863	1471989623997	1471989624076	n	78
5347	56958	I'm waiting until she comes home.	I'm waiting unitl she comes home.	2709865	1471989624125	1471989624204	i	73
5347	56958	I'm waiting until she comes home.	I'm waiting unitl she comes home.	2709869	1471989624213	1471989624292	t	84
5347	56958	I'm waiting until she comes home.	I'm waiting unitl she comes home.	2709877	1471989624421	1471989624492	l	76
5347	56958	I'm waiting until she comes home.	I'm waiting unitl she comes home.	2709919	1471989624549	1471989624620	 	32
5347	56958	I'm waiting until she comes home.	I'm waiting unitl she comes home.	2709923	1471989624805	1471989624884	s	83
5347	56958	I'm waiting until she comes home.	I'm waiting unitl she comes home.	2709928	1471989624861	1471989624932	h	72
5347	56958	I'm waiting until she comes home.	I'm waiting unitl she comes home.	2709933	1471989625013	1471989625076	e	69
5347	56958	I'm waiting until she comes home.	I'm waiting unitl she comes home.	2709935	1471989625141	1471989625220	 	32
5347	56958	I'm waiting until she comes home.	I'm waiting unitl she comes home.	2709994	1471989625653	1471989625732	c	67
5347	56958	I'm waiting until she comes home.	I'm waiting unitl she comes home.	2709998	1471989625805	1471989625852	o	79
5347	56958	I'm waiting until she comes home.	I'm waiting unitl she comes home.	2710005	1471989625949	1471989626020	m	77
5347	56958	I'm waiting until she comes home.	I'm waiting unitl she comes home.	2710010	1471989626069	1471989626140	e	69
5347	56958	I'm waiting until she comes home.	I'm waiting unitl she comes home.	2710014	1471989626245	1471989626316	s	83
5347	56958	I'm waiting until she comes home.	I'm waiting unitl she comes home.	2710056	1471989626397	1471989626436	 	32
5347	56958	I'm waiting until she comes home.	I'm waiting unitl she comes home.	2710060	1471989626549	1471989626628	h	72
5347	56958	I'm waiting until she comes home.	I'm waiting unitl she comes home.	2710064	1471989626717	1471989626828	o	79
5347	56958	I'm waiting until she comes home.	I'm waiting unitl she comes home.	2710070	1471989626894	1471989626981	m	77
5347	56958	I'm waiting until she comes home.	I'm waiting unitl she comes home.	2710076	1471989627021	1471989627076	e	69
5347	56958	I'm waiting until she comes home.	I'm waiting unitl she comes home.	2710147	1471989627741	1471989627836	.	190
5347	56977	Martha Stewart will not be dining with us this Thanksgiving.	Martha Stewart will not be dining with us this Thanksgiving.	2710424	1471989631004	1471989631132	SHIFT	16
5347	56977	Martha Stewart will not be dining with us this Thanksgiving.	Martha Stewart will not be dining with us this Thanksgiving.	2710427	1471989631109	1471989631172	M	77
5347	56977	Martha Stewart will not be dining with us this Thanksgiving.	Martha Stewart will not be dining with us this Thanksgiving.	2710434	1471989631269	1471989631372	a	65
5347	56977	Martha Stewart will not be dining with us this Thanksgiving.	Martha Stewart will not be dining with us this Thanksgiving.	2710439	1471989631461	1471989631574	r	82
5347	56977	Martha Stewart will not be dining with us this Thanksgiving.	Martha Stewart will not be dining with us this Thanksgiving.	2710446	1471989631573	1471989631636	h	72
5347	56977	Martha Stewart will not be dining with us this Thanksgiving.	Martha Stewart will not be dining with us this Thanksgiving.	2710456	1471989631685	1471989631756	t	84
5347	56977	Martha Stewart will not be dining with us this Thanksgiving.	Martha Stewart will not be dining with us this Thanksgiving.	2710579	1471989632053	1471989632116	a	65
5347	56977	Martha Stewart will not be dining with us this Thanksgiving.	Martha Stewart will not be dining with us this Thanksgiving.	2710584	1471989632356	1471989632420	BKSP	8
5347	56977	Martha Stewart will not be dining with us this Thanksgiving.	Martha Stewart will not be dining with us this Thanksgiving.	2710588	1471989632485	1471989632557	BKSP	8
5347	56977	Martha Stewart will not be dining with us this Thanksgiving.	Martha Stewart will not be dining with us this Thanksgiving.	2710594	1471989632837	1471989632925	BKSP	8
5347	56977	Martha Stewart will not be dining with us this Thanksgiving.	Martha Stewart will not be dining with us this Thanksgiving.	2710602	1471989632965	1471989633044	t	84
5347	56977	Martha Stewart will not be dining with us this Thanksgiving.	Martha Stewart will not be dining with us this Thanksgiving.	2710610	1471989633053	1471989633132	h	72
5347	56977	Martha Stewart will not be dining with us this Thanksgiving.	Martha Stewart will not be dining with us this Thanksgiving.	2710617	1471989633173	1471989633252	a	65
5347	56977	Martha Stewart will not be dining with us this Thanksgiving.	Martha Stewart will not be dining with us this Thanksgiving.	2710622	1471989633324	1471989633396	 	32
5347	56977	Martha Stewart will not be dining with us this Thanksgiving.	Martha Stewart will not be dining with us this Thanksgiving.	2710715	1471989633796	1471989633972	SHIFT	16
5347	56977	Martha Stewart will not be dining with us this Thanksgiving.	Martha Stewart will not be dining with us this Thanksgiving.	2710721	1471989633901	1471989634020	S	83
5347	56977	Martha Stewart will not be dining with us this Thanksgiving.	Martha Stewart will not be dining with us this Thanksgiving.	2710724	1471989634157	1471989634228	t	84
5347	56977	Martha Stewart will not be dining with us this Thanksgiving.	Martha Stewart will not be dining with us this Thanksgiving.	2710728	1471989634317	1471989634372	e	69
5347	56977	Martha Stewart will not be dining with us this Thanksgiving.	Martha Stewart will not be dining with us this Thanksgiving.	2710731	1471989634725	1471989634797	w	87
5347	56977	Martha Stewart will not be dining with us this Thanksgiving.	Martha Stewart will not be dining with us this Thanksgiving.	2710736	1471989634868	1471989634964	a	65
5347	56977	Martha Stewart will not be dining with us this Thanksgiving.	Martha Stewart will not be dining with us this Thanksgiving.	2710802	1471989635053	1471989635140	r	82
5347	56977	Martha Stewart will not be dining with us this Thanksgiving.	Martha Stewart will not be dining with us this Thanksgiving.	2710810	1471989635261	1471989635340	t	84
5347	56977	Martha Stewart will not be dining with us this Thanksgiving.	Martha Stewart will not be dining with us this Thanksgiving.	2710816	1471989635549	1471989635612	 	32
5347	56977	Martha Stewart will not be dining with us this Thanksgiving.	Martha Stewart will not be dining with us this Thanksgiving.	2710824	1471989635813	1471989635884	w	87
5347	56977	Martha Stewart will not be dining with us this Thanksgiving.	Martha Stewart will not be dining with us this Thanksgiving.	2710833	1471989635925	1471989636004	i	73
5347	56977	Martha Stewart will not be dining with us this Thanksgiving.	Martha Stewart will not be dining with us this Thanksgiving.	2710859	1471989636077	1471989636140	l	76
5347	56977	Martha Stewart will not be dining with us this Thanksgiving.	Martha Stewart will not be dining with us this Thanksgiving.	2710865	1471989636204	1471989636244	l	76
5347	56977	Martha Stewart will not be dining with us this Thanksgiving.	Martha Stewart will not be dining with us this Thanksgiving.	2710872	1471989636285	1471989636356	 	32
5347	56977	Martha Stewart will not be dining with us this Thanksgiving.	Martha Stewart will not be dining with us this Thanksgiving.	2710880	1471989636445	1471989636516	n	78
5347	56977	Martha Stewart will not be dining with us this Thanksgiving.	Martha Stewart will not be dining with us this Thanksgiving.	2710887	1471989636557	1471989636644	o	79
5347	56977	Martha Stewart will not be dining with us this Thanksgiving.	Martha Stewart will not be dining with us this Thanksgiving.	2711005	1471989636677	1471989636740	t	84
5347	56977	Martha Stewart will not be dining with us this Thanksgiving.	Martha Stewart will not be dining with us this Thanksgiving.	2711007	1471989636717	1471989636780	 	32
5347	56977	Martha Stewart will not be dining with us this Thanksgiving.	Martha Stewart will not be dining with us this Thanksgiving.	2711011	1471989636901	1471989636972	b	66
5347	56977	Martha Stewart will not be dining with us this Thanksgiving.	Martha Stewart will not be dining with us this Thanksgiving.	2711015	1471989637005	1471989637060	e	69
5347	56977	Martha Stewart will not be dining with us this Thanksgiving.	Martha Stewart will not be dining with us this Thanksgiving.	2711019	1471989638261	1471989638316	 	32
5347	56977	Martha Stewart will not be dining with us this Thanksgiving.	Martha Stewart will not be dining with us this Thanksgiving.	2711073	1471989638493	1471989638596	i	73
5347	56977	Martha Stewart will not be dining with us this Thanksgiving.	Martha Stewart will not be dining with us this Thanksgiving.	2711077	1471989638614	1471989638692	d	68
5347	56977	Martha Stewart will not be dining with us this Thanksgiving.	Martha Stewart will not be dining with us this Thanksgiving.	2711080	1471989638941	1471989638996	BKSP	8
5347	56977	Martha Stewart will not be dining with us this Thanksgiving.	Martha Stewart will not be dining with us this Thanksgiving.	2711083	1471989639053	1471989639124	BKSP	8
5347	56977	Martha Stewart will not be dining with us this Thanksgiving.	Martha Stewart will not be dining with us this Thanksgiving.	2711087	1471989639141	1471989639220	d	68
5347	56977	Martha Stewart will not be dining with us this Thanksgiving.	Martha Stewart will not be dining with us this Thanksgiving.	2711092	1471989639269	1471989639340	i	73
5347	56977	Martha Stewart will not be dining with us this Thanksgiving.	Martha Stewart will not be dining with us this Thanksgiving.	2711094	1471989639404	1471989639484	n	78
5347	56977	Martha Stewart will not be dining with us this Thanksgiving.	Martha Stewart will not be dining with us this Thanksgiving.	2711187	1471989639533	1471989639596	g	71
5347	56977	Martha Stewart will not be dining with us this Thanksgiving.	Martha Stewart will not be dining with us this Thanksgiving.	2711191	1471989639613	1471989639692	i	73
5347	56977	Martha Stewart will not be dining with us this Thanksgiving.	Martha Stewart will not be dining with us this Thanksgiving.	2711195	1471989639749	1471989639820	n	78
5347	56977	Martha Stewart will not be dining with us this Thanksgiving.	Martha Stewart will not be dining with us this Thanksgiving.	2711197	1471989640020	1471989640084	BKSP	8
5347	56977	Martha Stewart will not be dining with us this Thanksgiving.	Martha Stewart will not be dining with us this Thanksgiving.	2711200	1471989640141	1471989640212	BKSP	8
5347	56977	Martha Stewart will not be dining with us this Thanksgiving.	Martha Stewart will not be dining with us this Thanksgiving.	2711201	1471989640261	1471989640316	BKSP	8
5347	56977	Martha Stewart will not be dining with us this Thanksgiving.	Martha Stewart will not be dining with us this Thanksgiving.	2711204	1471989640677	1471989640756	i	73
5347	56977	Martha Stewart will not be dining with us this Thanksgiving.	Martha Stewart will not be dining with us this Thanksgiving.	2711205	1471989640814	1471989640924	n	78
5347	56977	Martha Stewart will not be dining with us this Thanksgiving.	Martha Stewart will not be dining with us this Thanksgiving.	2711357	1471989640965	1471989641044	 	32
5347	56977	Martha Stewart will not be dining with us this Thanksgiving.	Martha Stewart will not be dining with us this Thanksgiving.	2711363	1471989641101	1471989641172	g	71
5347	56977	Martha Stewart will not be dining with us this Thanksgiving.	Martha Stewart will not be dining with us this Thanksgiving.	2711370	1471989641693	1471989641748	BKSP	8
5347	56977	Martha Stewart will not be dining with us this Thanksgiving.	Martha Stewart will not be dining with us this Thanksgiving.	2711380	1471989641821	1471989641900	BKSP	8
5347	56977	Martha Stewart will not be dining with us this Thanksgiving.	Martha Stewart will not be dining with us this Thanksgiving.	2711384	1471989642005	1471989642084	g	71
5347	56977	Martha Stewart will not be dining with us this Thanksgiving.	Martha Stewart will not be dining with us this Thanksgiving.	2711388	1471989642342	1471989642420	 	32
5347	56977	Martha Stewart will not be dining with us this Thanksgiving.	Martha Stewart will not be dining with us this Thanksgiving.	2711390	1471989642597	1471989642660	w	87
5347	56977	Martha Stewart will not be dining with us this Thanksgiving.	Martha Stewart will not be dining with us this Thanksgiving.	2711398	1471989642701	1471989642764	i	73
5347	56977	Martha Stewart will not be dining with us this Thanksgiving.	Martha Stewart will not be dining with us this Thanksgiving.	2711402	1471989642812	1471989642892	t	84
5347	56977	Martha Stewart will not be dining with us this Thanksgiving.	Martha Stewart will not be dining with us this Thanksgiving.	2711407	1471989642845	1471989642908	h	72
5347	56977	Martha Stewart will not be dining with us this Thanksgiving.	Martha Stewart will not be dining with us this Thanksgiving.	2711412	1471989642981	1471989643052	 	32
5347	56977	Martha Stewart will not be dining with us this Thanksgiving.	Martha Stewart will not be dining with us this Thanksgiving.	2711418	1471989643140	1471989643221	u	85
5347	56977	Martha Stewart will not be dining with us this Thanksgiving.	Martha Stewart will not be dining with us this Thanksgiving.	2711541	1471989643212	1471989643276	s	83
5347	56977	Martha Stewart will not be dining with us this Thanksgiving.	Martha Stewart will not be dining with us this Thanksgiving.	2711546	1471989643318	1471989643388	 	32
5347	56977	Martha Stewart will not be dining with us this Thanksgiving.	Martha Stewart will not be dining with us this Thanksgiving.	2711554	1471989643773	1471989643860	t	84
5347	56977	Martha Stewart will not be dining with us this Thanksgiving.	Martha Stewart will not be dining with us this Thanksgiving.	2711563	1471989643869	1471989643932	h	72
5347	56977	Martha Stewart will not be dining with us this Thanksgiving.	Martha Stewart will not be dining with us this Thanksgiving.	2711571	1471989643973	1471989644036	i	73
5347	56977	Martha Stewart will not be dining with us this Thanksgiving.	Martha Stewart will not be dining with us this Thanksgiving.	2711579	1471989644284	1471989644324	BKSP	8
5347	56977	Martha Stewart will not be dining with us this Thanksgiving.	Martha Stewart will not be dining with us this Thanksgiving.	2711586	1471989644404	1471989644468	BKSP	8
5347	56977	Martha Stewart will not be dining with us this Thanksgiving.	Martha Stewart will not be dining with us this Thanksgiving.	2711592	1471989645116	1471989645188	h	72
5347	56977	Martha Stewart will not be dining with us this Thanksgiving.	Martha Stewart will not be dining with us this Thanksgiving.	2711641	1471989645253	1471989645340	i	73
5347	56977	Martha Stewart will not be dining with us this Thanksgiving.	Martha Stewart will not be dining with us this Thanksgiving.	2711646	1471989645357	1471989645412	s	83
5347	56977	Martha Stewart will not be dining with us this Thanksgiving.	Martha Stewart will not be dining with us this Thanksgiving.	2711651	1471989645445	1471989645508	 	32
5347	56977	Martha Stewart will not be dining with us this Thanksgiving.	Martha Stewart will not be dining with us this Thanksgiving.	2711655	1471989645708	1471989645908	SHIFT	16
5347	56977	Martha Stewart will not be dining with us this Thanksgiving.	Martha Stewart will not be dining with us this Thanksgiving.	2711662	1471989645845	1471989645924	T	84
5347	56977	Martha Stewart will not be dining with us this Thanksgiving.	Martha Stewart will not be dining with us this Thanksgiving.	2711666	1471989645933	1471989645988	h	72
5347	56977	Martha Stewart will not be dining with us this Thanksgiving.	Martha Stewart will not be dining with us this Thanksgiving.	2711711	1471989646045	1471989646132	a	65
5347	56977	Martha Stewart will not be dining with us this Thanksgiving.	Martha Stewart will not be dining with us this Thanksgiving.	2711716	1471989646140	1471989646220	n	78
5347	56977	Martha Stewart will not be dining with us this Thanksgiving.	Martha Stewart will not be dining with us this Thanksgiving.	2711719	1471989646293	1471989646372	k	75
5347	56977	Martha Stewart will not be dining with us this Thanksgiving.	Martha Stewart will not be dining with us this Thanksgiving.	2711722	1471989646405	1471989646484	s	83
5347	56977	Martha Stewart will not be dining with us this Thanksgiving.	Martha Stewart will not be dining with us this Thanksgiving.	2711727	1471989646749	1471989646828	g	71
5347	56977	Martha Stewart will not be dining with us this Thanksgiving.	Martha Stewart will not be dining with us this Thanksgiving.	2711823	1471989646861	1471989646956	i	73
5347	56977	Martha Stewart will not be dining with us this Thanksgiving.	Martha Stewart will not be dining with us this Thanksgiving.	2711828	1471989647461	1471989647548	v	86
5347	56977	Martha Stewart will not be dining with us this Thanksgiving.	Martha Stewart will not be dining with us this Thanksgiving.	2711832	1471989647565	1471989647652	i	73
5347	56977	Martha Stewart will not be dining with us this Thanksgiving.	Martha Stewart will not be dining with us this Thanksgiving.	2711837	1471989647685	1471989647772	n	78
5347	56977	Martha Stewart will not be dining with us this Thanksgiving.	Martha Stewart will not be dining with us this Thanksgiving.	2711842	1471989647804	1471989647884	g	71
5347	56977	Martha Stewart will not be dining with us this Thanksgiving.	Martha Stewart will not be dining with us this Thanksgiving.	2711879	1471989648005	1471989648092	.	190
5347	57003	Would you mind taking the lead on this?	WOuld you mind taking the lead on this?	2712079	1471989650932	1471989651108	SHIFT	16
5347	57003	Would you mind taking the lead on this?	WOuld you mind taking the lead on this?	2712081	1471989651037	1471989651116	W	87
5347	57003	Would you mind taking the lead on this?	WOuld you mind taking the lead on this?	2712083	1471989651093	1471989651148	O	79
5347	57003	Would you mind taking the lead on this?	WOuld you mind taking the lead on this?	2712085	1471989651173	1471989651252	u	85
5347	57003	Would you mind taking the lead on this?	WOuld you mind taking the lead on this?	2712088	1471989651317	1471989651404	l	76
5347	57003	Would you mind taking the lead on this?	WOuld you mind taking the lead on this?	2712091	1471989651429	1471989651508	d	68
5347	57003	Would you mind taking the lead on this?	WOuld you mind taking the lead on this?	2712148	1471989651533	1471989651604	 	32
5347	57003	Would you mind taking the lead on this?	WOuld you mind taking the lead on this?	2712153	1471989652221	1471989652316	y	89
5347	57003	Would you mind taking the lead on this?	WOuld you mind taking the lead on this?	2712157	1471989652389	1471989652484	o	79
5347	57003	Would you mind taking the lead on this?	WOuld you mind taking the lead on this?	2712161	1471989652461	1471989652572	u	85
5347	57003	Would you mind taking the lead on this?	WOuld you mind taking the lead on this?	2712164	1471989652589	1471989652668	 	32
5347	57003	Would you mind taking the lead on this?	WOuld you mind taking the lead on this?	2712190	1471989652997	1471989653084	m	77
5347	57003	Would you mind taking the lead on this?	WOuld you mind taking the lead on this?	2712195	1471989653140	1471989653212	i	73
5347	57003	Would you mind taking the lead on this?	WOuld you mind taking the lead on this?	2712201	1471989653253	1471989653324	n	78
5347	57003	Would you mind taking the lead on this?	WOuld you mind taking the lead on this?	2712207	1471989653351	1471989653428	d	68
5347	57003	Would you mind taking the lead on this?	WOuld you mind taking the lead on this?	2712212	1471989653485	1471989653564	 	32
5347	57003	Would you mind taking the lead on this?	WOuld you mind taking the lead on this?	2712286	1471989654013	1471989654076	t	84
5347	57003	Would you mind taking the lead on this?	WOuld you mind taking the lead on this?	2712288	1471989654141	1471989654220	a	65
5347	57003	Would you mind taking the lead on this?	WOuld you mind taking the lead on this?	2712292	1471989654236	1471989654292	k	75
5347	57003	Would you mind taking the lead on this?	WOuld you mind taking the lead on this?	2712296	1471989654373	1471989654460	i	73
5347	57003	Would you mind taking the lead on this?	WOuld you mind taking the lead on this?	2712298	1471989654501	1471989654580	n	78
5347	57003	Would you mind taking the lead on this?	WOuld you mind taking the lead on this?	2712318	1471989654620	1471989654700	g	71
5347	57003	Would you mind taking the lead on this?	WOuld you mind taking the lead on this?	2712323	1471989654732	1471989654797	 	32
5347	57003	Would you mind taking the lead on this?	WOuld you mind taking the lead on this?	2712329	1471989654885	1471989654940	t	84
5347	57003	Would you mind taking the lead on this?	WOuld you mind taking the lead on this?	2712336	1471989654917	1471989654996	h	72
5347	57003	Would you mind taking the lead on this?	WOuld you mind taking the lead on this?	2712347	1471989655005	1471989655068	e	69
5347	57003	Would you mind taking the lead on this?	WOuld you mind taking the lead on this?	2712399	1471989655077	1471989655140	 	32
5347	57003	Would you mind taking the lead on this?	WOuld you mind taking the lead on this?	2712402	1471989655309	1471989655364	l	76
5347	57003	Would you mind taking the lead on this?	WOuld you mind taking the lead on this?	2712405	1471989655420	1471989655500	e	69
5347	57003	Would you mind taking the lead on this?	WOuld you mind taking the lead on this?	2712408	1471989655557	1471989655644	a	65
5347	57003	Would you mind taking the lead on this?	WOuld you mind taking the lead on this?	2712412	1471989655741	1471989655797	d	68
5347	57003	Would you mind taking the lead on this?	WOuld you mind taking the lead on this?	2712485	1471989656124	1471989656196	 	32
5347	57003	Would you mind taking the lead on this?	WOuld you mind taking the lead on this?	2712488	1471989656277	1471989656348	o	79
5347	57003	Would you mind taking the lead on this?	WOuld you mind taking the lead on this?	2712493	1471989656421	1471989656508	n	78
5347	57003	Would you mind taking the lead on this?	WOuld you mind taking the lead on this?	2712500	1471989656581	1471989656644	 	32
5347	57003	Would you mind taking the lead on this?	WOuld you mind taking the lead on this?	2712503	1471989656685	1471989656772	t	84
5347	57003	Would you mind taking the lead on this?	WOuld you mind taking the lead on this?	2712598	1471989656780	1471989656836	h	72
5347	57003	Would you mind taking the lead on this?	WOuld you mind taking the lead on this?	2712602	1471989656861	1471989656956	i	73
5347	57003	Would you mind taking the lead on this?	WOuld you mind taking the lead on this?	2712607	1471989656948	1471989657036	s	83
5347	57003	Would you mind taking the lead on this?	WOuld you mind taking the lead on this?	2712610	1471989657500	1471989657652	SHIFT	16
5347	57003	Would you mind taking the lead on this?	WOuld you mind taking the lead on this?	2712617	1471989657581	1471989657668	?	191
5347	57022	I'll email her later tonight.	I'll email her later tonight.	2712884	1471989660844	1471989661012	SHIFT	16
5347	57022	I'll email her later tonight.	I'll email her later tonight.	2712889	1471989660956	1471989661036	I	73
5347	57022	I'll email her later tonight.	I'll email her later tonight.	2712895	1471989661140	1471989661268	'	222
5347	57022	I'll email her later tonight.	I'll email her later tonight.	2712903	1471989661557	1471989661604	l	76
5347	57022	I'll email her later tonight.	I'll email her later tonight.	2712910	1471989661652	1471989661716	l	76
5347	57022	I'll email her later tonight.	I'll email her later tonight.	2712915	1471989661780	1471989661852	 	32
5347	57022	I'll email her later tonight.	I'll email her later tonight.	2712968	1471989662005	1471989662084	e	69
5347	57022	I'll email her later tonight.	I'll email her later tonight.	2712970	1471989662101	1471989662172	m	77
5347	57022	I'll email her later tonight.	I'll email her later tonight.	2712973	1471989662212	1471989662276	a	65
5347	57022	I'll email her later tonight.	I'll email her later tonight.	2712974	1471989662285	1471989662364	i	73
5347	57022	I'll email her later tonight.	I'll email her later tonight.	2712976	1471989662549	1471989662620	l	76
5347	57022	I'll email her later tonight.	I'll email her later tonight.	2713006	1471989662685	1471989662748	 	32
5347	57022	I'll email her later tonight.	I'll email her later tonight.	2713008	1471989662900	1471989662964	h	72
5347	57022	I'll email her later tonight.	I'll email her later tonight.	2713012	1471989663004	1471989663124	e	69
5347	57022	I'll email her later tonight.	I'll email her later tonight.	2713015	1471989663125	1471989663228	r	82
5347	57022	I'll email her later tonight.	I'll email her later tonight.	2713018	1471989663276	1471989663332	 	32
5347	57022	I'll email her later tonight.	I'll email her later tonight.	2713062	1471989663477	1471989663524	l	76
5347	57022	I'll email her later tonight.	I'll email her later tonight.	2713066	1471989663556	1471989663644	a	65
5347	57022	I'll email her later tonight.	I'll email her later tonight.	2713069	1471989663700	1471989663764	t	84
5347	57022	I'll email her later tonight.	I'll email her later tonight.	2713072	1471989663812	1471989663916	e	69
5347	57022	I'll email her later tonight.	I'll email her later tonight.	2713115	1471989663893	1471989663964	r	82
5347	57022	I'll email her later tonight.	I'll email her later tonight.	2713123	1471989664012	1471989664084	 	32
5347	57022	I'll email her later tonight.	I'll email her later tonight.	2713130	1471989664245	1471989664325	t	84
5347	57022	I'll email her later tonight.	I'll email her later tonight.	2713140	1471989664333	1471989664404	o	79
5347	57022	I'll email her later tonight.	I'll email her later tonight.	2713155	1471989664492	1471989664564	n	78
5347	57022	I'll email her later tonight.	I'll email her later tonight.	2713164	1471989664621	1471989664700	i	73
5347	57022	I'll email her later tonight.	I'll email her later tonight.	2713216	1471989664725	1471989664772	g	71
5347	57022	I'll email her later tonight.	I'll email her later tonight.	2713224	1471989664796	1471989664876	h	72
5347	57022	I'll email her later tonight.	I'll email her later tonight.	2713234	1471989664893	1471989664972	t	84
5347	57022	I'll email her later tonight.	I'll email her later tonight.	2713242	1471989665221	1471989665300	.	190
5347	57034	We need this verified.	We need this verified. 	2713539	1471989665364	1471989668492	SHIFT	16
5347	57034	We need this verified.	We need this verified. 	2713544	1471989668452	1471989668524	W	87
5347	57034	We need this verified.	We need this verified. 	2713550	1471989668605	1471989668684	e	69
5347	57034	We need this verified.	We need this verified. 	2713556	1471989668773	1471989668852	 	32
5347	57034	We need this verified.	We need this verified. 	2713563	1471989668980	1471989669060	n	78
5347	57034	We need this verified.	We need this verified. 	2713570	1471989669093	1471989669156	e	69
5347	57034	We need this verified.	We need this verified. 	2713636	1471989669212	1471989669276	e	69
5347	57034	We need this verified.	We need this verified. 	2713640	1471989669533	1471989669604	 	32
5347	57034	We need this verified.	We need this verified. 	2713644	1471989669900	1471989669964	BKSP	8
5347	57034	We need this verified.	We need this verified. 	2713647	1471989670005	1471989670091	d	68
5347	57034	We need this verified.	We need this verified. 	2713649	1471989670101	1471989670180	 	32
5347	57034	We need this verified.	We need this verified. 	2713653	1471989670239	1471989670300	t	84
5347	57034	We need this verified.	We need this verified. 	2713701	1471989670277	1471989670332	h	72
5347	57034	We need this verified.	We need this verified. 	2713706	1471989670390	1471989670471	i	73
5347	57034	We need this verified.	We need this verified. 	2713708	1471989670445	1471989670508	s	83
5347	57034	We need this verified.	We need this verified. 	2713710	1471989670533	1471989670612	 	32
5347	57034	We need this verified.	We need this verified. 	2713715	1471989670940	1471989671012	v	86
5347	57034	We need this verified.	We need this verified. 	2713719	1471989671053	1471989671180	e	69
5347	57034	We need this verified.	We need this verified. 	2713777	1471989671166	1471989671244	r	82
5347	57034	We need this verified.	We need this verified. 	2713781	1471989671293	1471989671365	i	73
5347	57034	We need this verified.	We need this verified. 	2713783	1471989671732	1471989671828	f	70
5347	57034	We need this verified.	We need this verified. 	2713785	1471989671861	1471989671916	i	73
5347	57034	We need this verified.	We need this verified. 	2713789	1471989671981	1471989672076	e	69
5347	57034	We need this verified.	We need this verified. 	2713792	1471989672148	1471989672212	d	68
5347	57034	We need this verified.	We need this verified. 	2713904	1471989672293	1471989672332	n	78
5347	57034	We need this verified.	We need this verified. 	2713909	1471989672533	1471989672612	.	190
5347	57034	We need this verified.	We need this verified. 	2713912	1471989672796	1471989672862	BKSP	8
5347	57034	We need this verified.	We need this verified. 	2713918	1471989673132	1471989673212	BKSP	8
5347	57034	We need this verified.	We need this verified. 	2713927	1471989673361	1471989673460	.	190
5347	57034	We need this verified.	We need this verified. 	2713933	1471989673501	1471989673573	 	32
5347	57049	The alleged offences occurred before Alan Sugar took control.	The alleged offences occurred before Alan Sugar took control.	2714469	1471989681252	1471989681444	SHIFT	16
5347	57049	The alleged offences occurred before Alan Sugar took control.	The alleged offences occurred before Alan Sugar took control.	2714471	1471989681357	1471989681460	T	84
5347	57049	The alleged offences occurred before Alan Sugar took control.	The alleged offences occurred before Alan Sugar took control.	2714474	1471989681452	1471989681524	h	72
5347	57049	The alleged offences occurred before Alan Sugar took control.	The alleged offences occurred before Alan Sugar took control.	2714478	1471989681549	1471989681612	e	69
5347	57049	The alleged offences occurred before Alan Sugar took control.	The alleged offences occurred before Alan Sugar took control.	2714482	1471989681604	1471989681668	 	32
5347	57049	The alleged offences occurred before Alan Sugar took control.	The alleged offences occurred before Alan Sugar took control.	2714486	1471989681980	1471989682036	a	65
5347	57049	The alleged offences occurred before Alan Sugar took control.	The alleged offences occurred before Alan Sugar took control.	2714525	1471989682061	1471989682116	l	76
5347	57049	The alleged offences occurred before Alan Sugar took control.	The alleged offences occurred before Alan Sugar took control.	2714531	1471989682172	1471989682236	l	76
5347	57049	The alleged offences occurred before Alan Sugar took control.	The alleged offences occurred before Alan Sugar took control.	2714535	1471989682300	1471989682372	e	69
5347	57049	The alleged offences occurred before Alan Sugar took control.	The alleged offences occurred before Alan Sugar took control.	2714537	1471989682517	1471989682588	g	71
5347	57049	The alleged offences occurred before Alan Sugar took control.	The alleged offences occurred before Alan Sugar took control.	2714540	1471989682660	1471989682748	e	69
5347	57049	The alleged offences occurred before Alan Sugar took control.	The alleged offences occurred before Alan Sugar took control.	2714602	1471989682844	1471989682924	d	68
5347	57049	The alleged offences occurred before Alan Sugar took control.	The alleged offences occurred before Alan Sugar took control.	2714608	1471989683228	1471989683276	 	32
5347	57049	The alleged offences occurred before Alan Sugar took control.	The alleged offences occurred before Alan Sugar took control.	2714613	1471989683468	1471989683540	o	79
5347	57049	The alleged offences occurred before Alan Sugar took control.	The alleged offences occurred before Alan Sugar took control.	2714618	1471989683604	1471989683652	f	70
5347	57049	The alleged offences occurred before Alan Sugar took control.	The alleged offences occurred before Alan Sugar took control.	2714624	1471989683716	1471989683772	f	70
5347	57049	The alleged offences occurred before Alan Sugar took control.	The alleged offences occurred before Alan Sugar took control.	2714697	1471989683820	1471989683924	e	69
5347	57049	The alleged offences occurred before Alan Sugar took control.	The alleged offences occurred before Alan Sugar took control.	2714706	1471989684044	1471989684100	c	67
5347	57049	The alleged offences occurred before Alan Sugar took control.	The alleged offences occurred before Alan Sugar took control.	2714716	1471989684173	1471989684212	e	69
5347	57049	The alleged offences occurred before Alan Sugar took control.	The alleged offences occurred before Alan Sugar took control.	2714725	1471989684285	1471989684348	n	78
5347	57049	The alleged offences occurred before Alan Sugar took control.	The alleged offences occurred before Alan Sugar took control.	2714732	1471989684708	1471989684779	BKSP	8
5347	57049	The alleged offences occurred before Alan Sugar took control.	The alleged offences occurred before Alan Sugar took control.	2714737	1471989684876	1471989684940	s	83
5347	57049	The alleged offences occurred before Alan Sugar took control.	The alleged offences occurred before Alan Sugar took control.	2714870	1471989685260	1471989685324	BKSP	8
5347	57049	The alleged offences occurred before Alan Sugar took control.	The alleged offences occurred before Alan Sugar took control.	2714879	1471989685813	1471989685916	BKSP	8
5347	57049	The alleged offences occurred before Alan Sugar took control.	The alleged offences occurred before Alan Sugar took control.	2714888	1471989685980	1471989686044	BKSP	8
5347	57049	The alleged offences occurred before Alan Sugar took control.	The alleged offences occurred before Alan Sugar took control.	2714895	1471989686196	1471989686268	n	78
5347	57049	The alleged offences occurred before Alan Sugar took control.	The alleged offences occurred before Alan Sugar took control.	2714902	1471989686284	1471989686404	c	67
5347	57049	The alleged offences occurred before Alan Sugar took control.	The alleged offences occurred before Alan Sugar took control.	2714908	1471989686396	1471989686476	e	69
5347	57049	The alleged offences occurred before Alan Sugar took control.	The alleged offences occurred before Alan Sugar took control.	2714911	1471989686852	1471989686948	s	83
5347	57049	The alleged offences occurred before Alan Sugar took control.	The alleged offences occurred before Alan Sugar took control.	2714914	1471989687093	1471989687164	 	32
5347	57049	The alleged offences occurred before Alan Sugar took control.	The alleged offences occurred before Alan Sugar took control.	2714932	1471989687372	1471989687436	o	79
5347	57049	The alleged offences occurred before Alan Sugar took control.	The alleged offences occurred before Alan Sugar took control.	2714934	1471989687540	1471989687604	c	67
5347	57049	The alleged offences occurred before Alan Sugar took control.	The alleged offences occurred before Alan Sugar took control.	2714937	1471989687660	1471989687732	c	67
5347	57049	The alleged offences occurred before Alan Sugar took control.	The alleged offences occurred before Alan Sugar took control.	2714940	1471989687836	1471989687908	u	85
5347	57049	The alleged offences occurred before Alan Sugar took control.	The alleged offences occurred before Alan Sugar took control.	2714943	1471989687964	1471989688044	r	82
5347	57049	The alleged offences occurred before Alan Sugar took control.	The alleged offences occurred before Alan Sugar took control.	2715026	1471989688076	1471989688188	e	69
5347	57049	The alleged offences occurred before Alan Sugar took control.	The alleged offences occurred before Alan Sugar took control.	2715027	1471989688716	1471989688780	BKSP	8
5347	57049	The alleged offences occurred before Alan Sugar took control.	The alleged offences occurred before Alan Sugar took control.	2715028	1471989688804	1471989688884	r	82
5347	57049	The alleged offences occurred before Alan Sugar took control.	The alleged offences occurred before Alan Sugar took control.	2715030	1471989688917	1471989689004	e	69
5347	57049	The alleged offences occurred before Alan Sugar took control.	The alleged offences occurred before Alan Sugar took control.	2715031	1471989689141	1471989689260	d	68
5347	57049	The alleged offences occurred before Alan Sugar took control.	The alleged offences occurred before Alan Sugar took control.	2715032	1471989689388	1471989689460	 	32
5347	57049	The alleged offences occurred before Alan Sugar took control.	The alleged offences occurred before Alan Sugar took control.	2715089	1471989689612	1471989689684	b	66
5347	57049	The alleged offences occurred before Alan Sugar took control.	The alleged offences occurred before Alan Sugar took control.	2715092	1471989689716	1471989689796	e	69
5347	57049	The alleged offences occurred before Alan Sugar took control.	The alleged offences occurred before Alan Sugar took control.	2715097	1471989689964	1471989690060	f	70
5347	57049	The alleged offences occurred before Alan Sugar took control.	The alleged offences occurred before Alan Sugar took control.	2715103	1471989690044	1471989690100	o	79
5347	57049	The alleged offences occurred before Alan Sugar took control.	The alleged offences occurred before Alan Sugar took control.	2715106	1471989690164	1471989690252	r	82
5347	57049	The alleged offences occurred before Alan Sugar took control.	The alleged offences occurred before Alan Sugar took control.	2715174	1471989690269	1471989690356	e	69
5347	57049	The alleged offences occurred before Alan Sugar took control.	The alleged offences occurred before Alan Sugar took control.	2715177	1471989690444	1471989690532	 	32
5347	57049	The alleged offences occurred before Alan Sugar took control.	The alleged offences occurred before Alan Sugar took control.	2715183	1471989690828	1471989691052	SHIFT	16
5347	57049	The alleged offences occurred before Alan Sugar took control.	The alleged offences occurred before Alan Sugar took control.	2715181	1471989690956	1471989691044	A	65
5347	57049	The alleged offences occurred before Alan Sugar took control.	The alleged offences occurred before Alan Sugar took control.	2715185	1471989691077	1471989691148	l	76
5347	57049	The alleged offences occurred before Alan Sugar took control.	The alleged offences occurred before Alan Sugar took control.	2715187	1471989691325	1471989691404	a	65
5347	57049	The alleged offences occurred before Alan Sugar took control.	The alleged offences occurred before Alan Sugar took control.	2715258	1471989691517	1471989691612	n	78
5347	57049	The alleged offences occurred before Alan Sugar took control.	The alleged offences occurred before Alan Sugar took control.	2715263	1471989691764	1471989691820	 	32
5347	57049	The alleged offences occurred before Alan Sugar took control.	The alleged offences occurred before Alan Sugar took control.	2715267	1471989691964	1471989692132	SHIFT	16
5347	57049	The alleged offences occurred before Alan Sugar took control.	The alleged offences occurred before Alan Sugar took control.	2715271	1471989692084	1471989692132	S	83
5347	57049	The alleged offences occurred before Alan Sugar took control.	The alleged offences occurred before Alan Sugar took control.	2715274	1471989692189	1471989692260	u	85
5347	57049	The alleged offences occurred before Alan Sugar took control.	The alleged offences occurred before Alan Sugar took control.	2715277	1471989692429	1471989692508	g	71
5347	57049	The alleged offences occurred before Alan Sugar took control.	The alleged offences occurred before Alan Sugar took control.	2715328	1471989692860	1471989692964	a	65
5347	57049	The alleged offences occurred before Alan Sugar took control.	The alleged offences occurred before Alan Sugar took control.	2715331	1471989693020	1471989693092	r	82
5347	57049	The alleged offences occurred before Alan Sugar took control.	The alleged offences occurred before Alan Sugar took control.	2715336	1471989693156	1471989693212	 	32
5347	57049	The alleged offences occurred before Alan Sugar took control.	The alleged offences occurred before Alan Sugar took control.	2715342	1471989693452	1471989693516	t	84
5347	57049	The alleged offences occurred before Alan Sugar took control.	The alleged offences occurred before Alan Sugar took control.	2715347	1471989693556	1471989693628	o	79
5347	57049	The alleged offences occurred before Alan Sugar took control.	The alleged offences occurred before Alan Sugar took control.	2715381	1471989693685	1471989693756	o	79
5347	57049	The alleged offences occurred before Alan Sugar took control.	The alleged offences occurred before Alan Sugar took control.	2715384	1471989693812	1471989693932	k	75
5347	57049	The alleged offences occurred before Alan Sugar took control.	The alleged offences occurred before Alan Sugar took control.	2715391	1471989693988	1471989694052	 	32
5347	57049	The alleged offences occurred before Alan Sugar took control.	The alleged offences occurred before Alan Sugar took control.	2715400	1471989694188	1471989694268	c	67
5347	57049	The alleged offences occurred before Alan Sugar took control.	The alleged offences occurred before Alan Sugar took control.	2715468	1471989694261	1471989694316	o	79
5347	57049	The alleged offences occurred before Alan Sugar took control.	The alleged offences occurred before Alan Sugar took control.	2715473	1471989694388	1471989694468	n	78
5347	57049	The alleged offences occurred before Alan Sugar took control.	The alleged offences occurred before Alan Sugar took control.	2715478	1471989694516	1471989694588	t	84
5347	57049	The alleged offences occurred before Alan Sugar took control.	The alleged offences occurred before Alan Sugar took control.	2715483	1471989694724	1471989694812	r	82
5347	57049	The alleged offences occurred before Alan Sugar took control.	The alleged offences occurred before Alan Sugar took control.	2715486	1471989694917	1471989694996	o	79
5347	57049	The alleged offences occurred before Alan Sugar took control.	The alleged offences occurred before Alan Sugar took control.	2715495	1471989695084	1471989695172	l	76
5347	57049	The alleged offences occurred before Alan Sugar took control.	The alleged offences occurred before Alan Sugar took control.	2715526	1471989695340	1471989695516	.	190
5347	57081	Ruth, the market drove us back for the weekend.	Ruth, the market drove us back for the weekend.	2716112	1471989705045	1471989705220	SHIFT	16
5347	57081	Ruth, the market drove us back for the weekend.	Ruth, the market drove us back for the weekend.	2716114	1471989705158	1471989705268	R	82
5347	57081	Ruth, the market drove us back for the weekend.	Ruth, the market drove us back for the weekend.	2716118	1471989705246	1471989705317	u	85
5347	57081	Ruth, the market drove us back for the weekend.	Ruth, the market drove us back for the weekend.	2716122	1471989705358	1471989705428	t	84
5347	57081	Ruth, the market drove us back for the weekend.	Ruth, the market drove us back for the weekend.	2716126	1471989705412	1471989705460	h	72
5347	57081	Ruth, the market drove us back for the weekend.	Ruth, the market drove us back for the weekend.	2716134	1471989705622	1471989705708	,	188
5347	57081	Ruth, the market drove us back for the weekend.	Ruth, the market drove us back for the weekend.	2716145	1471989705781	1471989705837	 	32
5347	57081	Ruth, the market drove us back for the weekend.	Ruth, the market drove us back for the weekend.	2716149	1471989705917	1471989705989	t	84
5347	57081	Ruth, the market drove us back for the weekend.	Ruth, the market drove us back for the weekend.	2716151	1471989705948	1471989706020	h	72
5347	57081	Ruth, the market drove us back for the weekend.	Ruth, the market drove us back for the weekend.	2716154	1471989706054	1471989706092	e	69
5347	57081	Ruth, the market drove us back for the weekend.	Ruth, the market drove us back for the weekend.	2716228	1471989706076	1471989706164	 	32
5347	57081	Ruth, the market drove us back for the weekend.	Ruth, the market drove us back for the weekend.	2716229	1471989706324	1471989706389	m	77
5347	57081	Ruth, the market drove us back for the weekend.	Ruth, the market drove us back for the weekend.	2716233	1471989706414	1471989706508	a	65
5347	57081	Ruth, the market drove us back for the weekend.	Ruth, the market drove us back for the weekend.	2716238	1471989706572	1471989706668	r	82
5347	57081	Ruth, the market drove us back for the weekend.	Ruth, the market drove us back for the weekend.	2716242	1471989706757	1471989706829	k	75
5347	57081	Ruth, the market drove us back for the weekend.	Ruth, the market drove us back for the weekend.	2716248	1471989707092	1471989707204	e	69
5347	57081	Ruth, the market drove us back for the weekend.	Ruth, the market drove us back for the weekend.	2716277	1471989707262	1471989707332	t	84
5347	57081	Ruth, the market drove us back for the weekend.	Ruth, the market drove us back for the weekend.	2716281	1471989707372	1471989707444	 	32
5347	57081	Ruth, the market drove us back for the weekend.	Ruth, the market drove us back for the weekend.	2716284	1471989707637	1471989707732	d	68
5347	57081	Ruth, the market drove us back for the weekend.	Ruth, the market drove us back for the weekend.	2716288	1471989707829	1471989707916	r	82
5347	57081	Ruth, the market drove us back for the weekend.	Ruth, the market drove us back for the weekend.	2716295	1471989708013	1471989708108	o	79
5347	57081	Ruth, the market drove us back for the weekend.	Ruth, the market drove us back for the weekend.	2716344	1471989708141	1471989708213	v	86
5347	57081	Ruth, the market drove us back for the weekend.	Ruth, the market drove us back for the weekend.	2716348	1471989708262	1471989708332	e	69
5347	57081	Ruth, the market drove us back for the weekend.	Ruth, the market drove us back for the weekend.	2716351	1471989708397	1471989708493	 	32
5347	57081	Ruth, the market drove us back for the weekend.	Ruth, the market drove us back for the weekend.	2716352	1471989708620	1471989708700	u	85
5347	57081	Ruth, the market drove us back for the weekend.	Ruth, the market drove us back for the weekend.	2716392	1471989708694	1471989708789	s	83
5347	57081	Ruth, the market drove us back for the weekend.	Ruth, the market drove us back for the weekend.	2716399	1471989708948	1471989709005	 	32
5347	57081	Ruth, the market drove us back for the weekend.	Ruth, the market drove us back for the weekend.	2716404	1471989709142	1471989709212	b	66
5347	57081	Ruth, the market drove us back for the weekend.	Ruth, the market drove us back for the weekend.	2716408	1471989709236	1471989709325	a	65
5347	57081	Ruth, the market drove us back for the weekend.	Ruth, the market drove us back for the weekend.	2716412	1471989709405	1471989709469	c	67
5347	57081	Ruth, the market drove us back for the weekend.	Ruth, the market drove us back for the weekend.	2716414	1471989709470	1471989709532	k	75
5347	57081	Ruth, the market drove us back for the weekend.	Ruth, the market drove us back for the weekend.	2716438	1471989709596	1471989709660	 	32
5347	57081	Ruth, the market drove us back for the weekend.	Ruth, the market drove us back for the weekend.	2716444	1471989709838	1471989709932	f	70
5347	57081	Ruth, the market drove us back for the weekend.	Ruth, the market drove us back for the weekend.	2716453	1471989710022	1471989710133	r	79
5347	57081	Ruth, the market drove us back for the weekend.	Ruth, the market drove us back for the weekend.	2716460	1471989710286	1471989710356	 	32
5347	57081	Ruth, the market drove us back for the weekend.	Ruth, the market drove us back for the weekend.	2716507	1471989710422	1471989710484	t	84
5347	57081	Ruth, the market drove us back for the weekend.	Ruth, the market drove us back for the weekend.	2716512	1471989710477	1471989710540	h	72
5347	57081	Ruth, the market drove us back for the weekend.	Ruth, the market drove us back for the weekend.	2716516	1471989710565	1471989710621	e	69
5347	57081	Ruth, the market drove us back for the weekend.	Ruth, the market drove us back for the weekend.	2716520	1471989710638	1471989710685	 	32
5347	57081	Ruth, the market drove us back for the weekend.	Ruth, the market drove us back for the weekend.	2716523	1471989711108	1471989711204	w	87
5347	57081	Ruth, the market drove us back for the weekend.	Ruth, the market drove us back for the weekend.	2716576	1471989711302	1471989711372	e	69
5347	57081	Ruth, the market drove us back for the weekend.	Ruth, the market drove us back for the weekend.	2716581	1471989711766	1471989711845	e	69
5347	57081	Ruth, the market drove us back for the weekend.	Ruth, the market drove us back for the weekend.	2716584	1471989711918	1471989711988	k	75
5347	57081	Ruth, the market drove us back for the weekend.	Ruth, the market drove us back for the weekend.	2716589	1471989712150	1471989712213	e	69
5347	57081	Ruth, the market drove us back for the weekend.	Ruth, the market drove us back for the weekend.	2716594	1471989712246	1471989712302	n	78
5347	57081	Ruth, the market drove us back for the weekend.	Ruth, the market drove us back for the weekend.	2716629	1471989712333	1471989712404	d	68
5347	57081	Ruth, the market drove us back for the weekend.	Ruth, the market drove us back for the weekend.	2716635	1471989712694	1471989712773	.	190
5347	57103	I think I'm OK.	I think I'm OK. 	2716807	1471989715269	1471989715380	SHIFT	16
5347	57103	I think I'm OK.	I think I'm OK. 	2716809	1471989715350	1471989715412	I	73
5347	57103	I think I'm OK.	I think I'm OK. 	2716813	1471989715476	1471989715548	 	32
5347	57103	I think I'm OK.	I think I'm OK. 	2716818	1471989715756	1471989715829	t	84
5347	57103	I think I'm OK.	I think I'm OK. 	2716823	1471989715836	1471989715891	h	72
5347	57103	I think I'm OK.	I think I'm OK. 	2716825	1471989715902	1471989715980	i	73
5347	57103	I think I'm OK.	I think I'm OK. 	2716872	1471989716053	1471989716133	n	78
5347	57103	I think I'm OK.	I think I'm OK. 	2716874	1471989716182	1471989716284	k	75
5347	57103	I think I'm OK.	I think I'm OK. 	2716877	1471989716398	1471989716452	 	32
5347	57103	I think I'm OK.	I think I'm OK. 	2716881	1471989716740	1471989716836	SHIFT	16
5347	57103	I think I'm OK.	I think I'm OK. 	2716884	1471989716782	1471989716868	I	73
5347	57103	I think I'm OK.	I think I'm OK. 	2716888	1471989716989	1471989717100	'	222
5347	57103	I think I'm OK.	I think I'm OK. 	2716962	1471989717197	1471989717281	m	77
5347	57103	I think I'm OK.	I think I'm OK. 	2716966	1471989717359	1471989717428	 	32
5347	57103	I think I'm OK.	I think I'm OK. 	2716978	1471989717716	1471989718140	SHIFT	16
5347	57103	I think I'm OK.	I think I'm OK. 	2716971	1471989717813	1471989717877	O	79
5347	57103	I think I'm OK.	I think I'm OK. 	2716975	1471989717958	1471989718069	K	75
5347	57103	I think I'm OK.	I think I'm OK. 	2716980	1471989718317	1471989718444	.	190
5347	57103	I think I'm OK.	I think I'm OK. 	2716997	1471989718557	1471989718619	 	32
5347	57112	I think I have given the gaffer a decision to make.	I think I have given the gaffer a decision to make.  	2717482	1471989727564	1471989727725	SHIFT	16
5347	57112	I think I have given the gaffer a decision to make.	I think I have given the gaffer a decision to make.  	2717486	1471989727676	1471989727740	I	73
5347	57112	I think I have given the gaffer a decision to make.	I think I have given the gaffer a decision to make.  	2717490	1471989727812	1471989727892	 	32
5347	57112	I think I have given the gaffer a decision to make.	I think I have given the gaffer a decision to make.  	2717496	1471989728020	1471989728100	t	84
5347	57112	I think I have given the gaffer a decision to make.	I think I have given the gaffer a decision to make.  	2717503	1471989728068	1471989728139	h	72
5347	57112	I think I have given the gaffer a decision to make.	I think I have given the gaffer a decision to make.  	2717508	1471989728180	1471989728236	i	73
5347	57112	I think I have given the gaffer a decision to make.	I think I have given the gaffer a decision to make.  	2717551	1471989728293	1471989728388	n	78
5347	57112	I think I have given the gaffer a decision to make.	I think I have given the gaffer a decision to make.  	2717555	1471989728452	1471989728524	k	75
5347	57112	I think I have given the gaffer a decision to make.	I think I have given the gaffer a decision to make.  	2717562	1471989728558	1471989728636	 	32
5347	57112	I think I have given the gaffer a decision to make.	I think I have given the gaffer a decision to make.  	2717567	1471989728908	1471989729012	SHIFT	16
5347	57112	I think I have given the gaffer a decision to make.	I think I have given the gaffer a decision to make.  	2717574	1471989728949	1471989729012	I	73
5347	57112	I think I have given the gaffer a decision to make.	I think I have given the gaffer a decision to make.  	2717578	1471989729060	1471989729140	 	32
5347	57112	I think I have given the gaffer a decision to make.	I think I have given the gaffer a decision to make.  	2717593	1471989729229	1471989729292	h	72
5347	57112	I think I have given the gaffer a decision to make.	I think I have given the gaffer a decision to make.  	2717596	1471989729308	1471989729413	a	65
5347	57112	I think I have given the gaffer a decision to make.	I think I have given the gaffer a decision to make.  	2717602	1471989729420	1471989729484	v	86
5347	57112	I think I have given the gaffer a decision to make.	I think I have given the gaffer a decision to make.  	2717608	1471989729517	1471989729597	e	69
5347	57112	I think I have given the gaffer a decision to make.	I think I have given the gaffer a decision to make.  	2717612	1471989729613	1471989729700	 	32
5347	57112	I think I have given the gaffer a decision to make.	I think I have given the gaffer a decision to make.  	2717646	1471989730045	1471989730124	g	71
5347	57112	I think I have given the gaffer a decision to make.	I think I have given the gaffer a decision to make.  	2717649	1471989730166	1471989730244	i	73
5347	57112	I think I have given the gaffer a decision to make.	I think I have given the gaffer a decision to make.  	2717653	1471989730317	1471989730387	v	86
5347	57112	I think I have given the gaffer a decision to make.	I think I have given the gaffer a decision to make.  	2717657	1471989730420	1471989730508	e	69
5347	57112	I think I have given the gaffer a decision to make.	I think I have given the gaffer a decision to make.  	2717663	1471989730565	1471989730668	n	78
5347	57112	I think I have given the gaffer a decision to make.	I think I have given the gaffer a decision to make.  	2717694	1471989730837	1471989730893	 	32
5347	57112	I think I have given the gaffer a decision to make.	I think I have given the gaffer a decision to make.  	2717695	1471989730958	1471989731036	t	84
5347	57112	I think I have given the gaffer a decision to make.	I think I have given the gaffer a decision to make.  	2717697	1471989731013	1471989731093	h	72
5347	57112	I think I have given the gaffer a decision to make.	I think I have given the gaffer a decision to make.  	2717699	1471989731126	1471989731196	e	69
5347	57112	I think I have given the gaffer a decision to make.	I think I have given the gaffer a decision to make.  	2717701	1471989731222	1471989731292	 	32
5347	57112	I think I have given the gaffer a decision to make.	I think I have given the gaffer a decision to make.  	2717763	1471989731564	1471989731635	g	71
5347	57112	I think I have given the gaffer a decision to make.	I think I have given the gaffer a decision to make.  	2717765	1471989731742	1471989731844	a	65
5347	57112	I think I have given the gaffer a decision to make.	I think I have given the gaffer a decision to make.  	2717767	1471989731958	1471989732004	f	70
5347	57112	I think I have given the gaffer a decision to make.	I think I have given the gaffer a decision to make.  	2717772	1471989732077	1471989732157	f	70
5347	57112	I think I have given the gaffer a decision to make.	I think I have given the gaffer a decision to make.  	2717777	1471989732212	1471989732339	e	69
5347	57112	I think I have given the gaffer a decision to make.	I think I have given the gaffer a decision to make.  	2717834	1471989732309	1471989732388	r	82
5347	57112	I think I have given the gaffer a decision to make.	I think I have given the gaffer a decision to make.  	2717840	1471989732444	1471989732524	 	32
5347	57112	I think I have given the gaffer a decision to make.	I think I have given the gaffer a decision to make.  	2717846	1471989732606	1471989732676	a	65
5347	57112	I think I have given the gaffer a decision to make.	I think I have given the gaffer a decision to make.  	2717852	1471989732741	1471989732797	 	32
5347	57112	I think I have given the gaffer a decision to make.	I think I have given the gaffer a decision to make.  	2717856	1471989732908	1471989732997	d	68
5347	57112	I think I have given the gaffer a decision to make.	I think I have given the gaffer a decision to make.  	2717861	1471989733092	1471989733133	e	69
5347	57112	I think I have given the gaffer a decision to make.	I think I have given the gaffer a decision to make.  	2717904	1471989733557	1471989733637	c	67
5347	57112	I think I have given the gaffer a decision to make.	I think I have given the gaffer a decision to make.  	2717907	1471989733686	1471989733781	i	73
5347	57112	I think I have given the gaffer a decision to make.	I think I have given the gaffer a decision to make.  	2717910	1471989733940	1471989734029	s	83
5347	57112	I think I have given the gaffer a decision to make.	I think I have given the gaffer a decision to make.  	2717916	1471989734036	1471989734129	i	73
5347	57112	I think I have given the gaffer a decision to make.	I think I have given the gaffer a decision to make.  	2717923	1471989734150	1471989734252	o	79
5347	57112	I think I have given the gaffer a decision to make.	I think I have given the gaffer a decision to make.  	2717953	1471989734293	1471989734366	n	78
5347	57112	I think I have given the gaffer a decision to make.	I think I have given the gaffer a decision to make.  	2717957	1471989734420	1471989734484	 	32
5347	57112	I think I have given the gaffer a decision to make.	I think I have given the gaffer a decision to make.  	2717960	1471989734550	1471989734620	t	84
5347	57112	I think I have given the gaffer a decision to make.	I think I have given the gaffer a decision to make.  	2717962	1471989734589	1471989734668	o	79
5347	57112	I think I have given the gaffer a decision to make.	I think I have given the gaffer a decision to make.  	2717963	1471989734725	1471989734788	 	32
5347	57112	I think I have given the gaffer a decision to make.	I think I have given the gaffer a decision to make.  	2717984	1471989734892	1471989734964	m	77
5347	57112	I think I have given the gaffer a decision to make.	I think I have given the gaffer a decision to make.  	2717986	1471989734988	1471989735044	a	65
5347	57112	I think I have given the gaffer a decision to make.	I think I have given the gaffer a decision to make.  	2717990	1471989735076	1471989735148	k	75
5347	57112	I think I have given the gaffer a decision to make.	I think I have given the gaffer a decision to make.  	2717996	1471989735204	1471989735268	e	69
5347	57112	I think I have given the gaffer a decision to make.	I think I have given the gaffer a decision to make.  	2718001	1471989735340	1471989735436	.	190
5347	57112	I think I have given the gaffer a decision to make.	I think I have given the gaffer a decision to make.  	2718055	1471989735532	1471989735572	 	32
5347	57112	I think I have given the gaffer a decision to make.	I think I have given the gaffer a decision to make.  	2718059	1471989735587	1471989735723	SHIFT	16
5347	57112	I think I have given the gaffer a decision to make.	I think I have given the gaffer a decision to make.  	2718064	1471989735844	1471989735923	 	32
5347	57133	The Senate should approve a 14-year-old treaty.	The Senate should approve a 14-year-old treaty. 	2718407	1471989742988	1471989743132	SHIFT	16
5347	57133	The Senate should approve a 14-year-old treaty.	The Senate should approve a 14-year-old treaty. 	2718410	1471989743110	1471989743188	T	84
5347	57133	The Senate should approve a 14-year-old treaty.	The Senate should approve a 14-year-old treaty. 	2718412	1471989743164	1471989743244	h	72
5347	57133	The Senate should approve a 14-year-old treaty.	The Senate should approve a 14-year-old treaty. 	2718413	1471989743252	1471989743324	e	69
5347	57133	The Senate should approve a 14-year-old treaty.	The Senate should approve a 14-year-old treaty. 	2718414	1471989743317	1471989743403	 	32
5347	57133	The Senate should approve a 14-year-old treaty.	The Senate should approve a 14-year-old treaty. 	2718415	1471989743516	1471989743596	s	83
5347	57133	The Senate should approve a 14-year-old treaty.	The Senate should approve a 14-year-old treaty. 	2718472	1471989743972	1471989744035	BKSP	8
5347	57133	The Senate should approve a 14-year-old treaty.	The Senate should approve a 14-year-old treaty. 	2718475	1471989744060	1471989744212	SHIFT	16
5347	57133	The Senate should approve a 14-year-old treaty.	The Senate should approve a 14-year-old treaty. 	2718477	1471989744132	1471989744267	S	83
5347	57133	The Senate should approve a 14-year-old treaty.	The Senate should approve a 14-year-old treaty. 	2718482	1471989744325	1471989744403	e	69
5347	57133	The Senate should approve a 14-year-old treaty.	The Senate should approve a 14-year-old treaty. 	2718486	1471989744453	1471989744532	n	78
5347	57133	The Senate should approve a 14-year-old treaty.	The Senate should approve a 14-year-old treaty. 	2718492	1471989744796	1471989744883	a	65
5347	57133	The Senate should approve a 14-year-old treaty.	The Senate should approve a 14-year-old treaty. 	2718495	1471989744948	1471989745011	t	84
5347	57133	The Senate should approve a 14-year-old treaty.	The Senate should approve a 14-year-old treaty. 	2718516	1471989745068	1471989745140	e	69
5347	57133	The Senate should approve a 14-year-old treaty.	The Senate should approve a 14-year-old treaty. 	2718519	1471989745228	1471989745308	 	32
5347	57133	The Senate should approve a 14-year-old treaty.	The Senate should approve a 14-year-old treaty. 	2718522	1471989745404	1471989745475	s	83
5347	57133	The Senate should approve a 14-year-old treaty.	The Senate should approve a 14-year-old treaty. 	2718525	1471989745508	1471989745595	h	72
5347	57133	The Senate should approve a 14-year-old treaty.	The Senate should approve a 14-year-old treaty. 	2718528	1471989745628	1471989745723	o	79
5347	57133	The Senate should approve a 14-year-old treaty.	The Senate should approve a 14-year-old treaty. 	2718554	1471989745725	1471989745827	u	85
5347	57133	The Senate should approve a 14-year-old treaty.	The Senate should approve a 14-year-old treaty. 	2718555	1471989745892	1471989745988	l	76
5347	57133	The Senate should approve a 14-year-old treaty.	The Senate should approve a 14-year-old treaty. 	2718557	1471989746012	1471989746067	d	68
5347	57133	The Senate should approve a 14-year-old treaty.	The Senate should approve a 14-year-old treaty. 	2718562	1471989746084	1471989746164	 	32
5347	57133	The Senate should approve a 14-year-old treaty.	The Senate should approve a 14-year-old treaty. 	2718566	1471989746276	1471989746364	a	65
5347	57133	The Senate should approve a 14-year-old treaty.	The Senate should approve a 14-year-old treaty. 	2718639	1471989746453	1471989746532	p	80
5347	57133	The Senate should approve a 14-year-old treaty.	The Senate should approve a 14-year-old treaty. 	2718642	1471989746596	1471989746676	p	80
5347	57133	The Senate should approve a 14-year-old treaty.	The Senate should approve a 14-year-old treaty. 	2718645	1471989746932	1471989747012	o	79
5347	57133	The Senate should approve a 14-year-old treaty.	The Senate should approve a 14-year-old treaty. 	2718648	1471989747372	1471989747419	BKSP	8
5347	57133	The Senate should approve a 14-year-old treaty.	The Senate should approve a 14-year-old treaty. 	2718650	1471989747444	1471989747539	r	82
5347	57133	The Senate should approve a 14-year-old treaty.	The Senate should approve a 14-year-old treaty. 	2718653	1471989747549	1471989747644	o	79
5347	57133	The Senate should approve a 14-year-old treaty.	The Senate should approve a 14-year-old treaty. 	2718676	1471989747677	1471989747740	v	86
5347	57133	The Senate should approve a 14-year-old treaty.	The Senate should approve a 14-year-old treaty. 	2718681	1471989747788	1471989747851	e	69
5347	57133	The Senate should approve a 14-year-old treaty.	The Senate should approve a 14-year-old treaty. 	2718689	1471989747932	1471989748019	 	32
5347	57133	The Senate should approve a 14-year-old treaty.	The Senate should approve a 14-year-old treaty. 	2718697	1471989748084	1471989748156	a	65
5347	57133	The Senate should approve a 14-year-old treaty.	The Senate should approve a 14-year-old treaty. 	2718701	1471989748189	1471989748259	 	32
5347	57133	The Senate should approve a 14-year-old treaty.	The Senate should approve a 14-year-old treaty. 	2718820	1471989749156	1471989749244	1	49
5347	57133	The Senate should approve a 14-year-old treaty.	The Senate should approve a 14-year-old treaty. 	2718824	1471989749308	1471989749396	4	52
5347	57133	The Senate should approve a 14-year-old treaty.	The Senate should approve a 14-year-old treaty. 	2718826	1471989750572	1471989750651	-	189
5347	57133	The Senate should approve a 14-year-old treaty.	The Senate should approve a 14-year-old treaty. 	2718831	1471989750852	1471989750932	y	89
5347	57133	The Senate should approve a 14-year-old treaty.	The Senate should approve a 14-year-old treaty. 	2718836	1471989751028	1471989751139	a	65
5347	57133	The Senate should approve a 14-year-old treaty.	The Senate should approve a 14-year-old treaty. 	2718956	1471989751180	1471989751268	r	82
5347	57133	The Senate should approve a 14-year-old treaty.	The Senate should approve a 14-year-old treaty. 	2718959	1471989751780	1471989751843	BKSP	8
5347	57133	The Senate should approve a 14-year-old treaty.	The Senate should approve a 14-year-old treaty. 	2718961	1471989751908	1471989751972	BKSP	8
5347	57133	The Senate should approve a 14-year-old treaty.	The Senate should approve a 14-year-old treaty. 	2718964	1471989751980	1471989752069	e	69
5347	57133	The Senate should approve a 14-year-old treaty.	The Senate should approve a 14-year-old treaty. 	2718970	1471989752108	1471989752219	a	65
5347	57133	The Senate should approve a 14-year-old treaty.	The Senate should approve a 14-year-old treaty. 	2718975	1471989752244	1471989752339	r	82
5347	57133	The Senate should approve a 14-year-old treaty.	The Senate should approve a 14-year-old treaty. 	2718981	1471989753180	1471989753251	-	189
5347	57133	The Senate should approve a 14-year-old treaty.	The Senate should approve a 14-year-old treaty. 	2719023	1471989753420	1471989753499	o	79
5347	57133	The Senate should approve a 14-year-old treaty.	The Senate should approve a 14-year-old treaty. 	2719027	1471989753589	1471989753667	l	76
5347	57133	The Senate should approve a 14-year-old treaty.	The Senate should approve a 14-year-old treaty. 	2719030	1471989753700	1471989753780	d	68
5347	57133	The Senate should approve a 14-year-old treaty.	The Senate should approve a 14-year-old treaty. 	2719034	1471989754164	1471989754243	 	32
5347	57133	The Senate should approve a 14-year-old treaty.	The Senate should approve a 14-year-old treaty. 	2719038	1471989754428	1471989754499	t	84
5347	57133	The Senate should approve a 14-year-old treaty.	The Senate should approve a 14-year-old treaty. 	2719061	1471989754604	1471989754675	r	82
5347	57133	The Senate should approve a 14-year-old treaty.	The Senate should approve a 14-year-old treaty. 	2719063	1471989754708	1471989754811	e	69
5347	57133	The Senate should approve a 14-year-old treaty.	The Senate should approve a 14-year-old treaty. 	2719065	1471989754836	1471989754931	a	65
5347	57133	The Senate should approve a 14-year-old treaty.	The Senate should approve a 14-year-old treaty. 	2719068	1471989754956	1471989755036	t	84
5347	57133	The Senate should approve a 14-year-old treaty.	The Senate should approve a 14-year-old treaty. 	2719073	1471989755157	1471989755236	y	89
5347	57133	The Senate should approve a 14-year-old treaty.	The Senate should approve a 14-year-old treaty. 	2719106	1471989755460	1471989755548	.	190
5347	57133	The Senate should approve a 14-year-old treaty.	The Senate should approve a 14-year-old treaty. 	2719108	1471989755580	1471989755652	 	32
5347	57155	Paris had ruled out participation in such an invasion force.	Paris had ruled out participation in such an invasion force. 	2719525	1471989762809	1471989763016	SHIFT	16
5347	57155	Paris had ruled out participation in such an invasion force.	Paris had ruled out participation in such an invasion force. 	2719528	1471989762957	1471989763025	P	80
5347	57155	Paris had ruled out participation in such an invasion force.	Paris had ruled out participation in such an invasion force. 	2719531	1471989763146	1471989763257	a	65
5347	57155	Paris had ruled out participation in such an invasion force.	Paris had ruled out participation in such an invasion force. 	2719535	1471989763345	1471989763425	r	82
5347	57155	Paris had ruled out participation in such an invasion force.	Paris had ruled out participation in such an invasion force. 	2719539	1471989763442	1471989763528	i	73
5347	57155	Paris had ruled out participation in such an invasion force.	Paris had ruled out participation in such an invasion force. 	2719542	1471989763633	1471989763706	s	83
5347	57155	Paris had ruled out participation in such an invasion force.	Paris had ruled out participation in such an invasion force. 	2719580	1471989763842	1471989763912	 	32
5347	57155	Paris had ruled out participation in such an invasion force.	Paris had ruled out participation in such an invasion force. 	2719584	1471989764065	1471989764132	h	72
5347	57155	Paris had ruled out participation in such an invasion force.	Paris had ruled out participation in such an invasion force. 	2719589	1471989764130	1471989764208	a	65
5347	57155	Paris had ruled out participation in such an invasion force.	Paris had ruled out participation in such an invasion force. 	2719593	1471989764257	1471989764328	d	68
5347	57155	Paris had ruled out participation in such an invasion force.	Paris had ruled out participation in such an invasion force. 	2719596	1471989764377	1471989764424	 	32
5347	57155	Paris had ruled out participation in such an invasion force.	Paris had ruled out participation in such an invasion force. 	2719632	1471989764673	1471989764753	r	82
5347	57155	Paris had ruled out participation in such an invasion force.	Paris had ruled out participation in such an invasion force. 	2719635	1471989764770	1471989764850	u	85
5347	57155	Paris had ruled out participation in such an invasion force.	Paris had ruled out participation in such an invasion force. 	2719639	1471989764921	1471989765008	l	76
5347	57155	Paris had ruled out participation in such an invasion force.	Paris had ruled out participation in such an invasion force. 	2719644	1471989765052	1471989765152	e	69
5347	57155	Paris had ruled out participation in such an invasion force.	Paris had ruled out participation in such an invasion force. 	2719650	1471989765202	1471989765282	d	68
5347	57155	Paris had ruled out participation in such an invasion force.	Paris had ruled out participation in such an invasion force. 	2719677	1471989765321	1471989765369	 	32
5347	57155	Paris had ruled out participation in such an invasion force.	Paris had ruled out participation in such an invasion force. 	2719679	1471989765425	1471989765514	o	79
5347	57155	Paris had ruled out participation in such an invasion force.	Paris had ruled out participation in such an invasion force. 	2719681	1471989765532	1471989765633	u	85
5347	57155	Paris had ruled out participation in such an invasion force.	Paris had ruled out participation in such an invasion force. 	2719683	1471989765650	1471989765720	t	84
5347	57155	Paris had ruled out participation in such an invasion force.	Paris had ruled out participation in such an invasion force. 	2719686	1471989765769	1471989765841	 	32
5347	57155	Paris had ruled out participation in such an invasion force.	Paris had ruled out participation in such an invasion force. 	2719714	1471989766089	1471989766168	p	80
5347	57155	Paris had ruled out participation in such an invasion force.	Paris had ruled out participation in such an invasion force. 	2719717	1471989766210	1471989766297	a	65
5347	57155	Paris had ruled out participation in such an invasion force.	Paris had ruled out participation in such an invasion force. 	2719720	1471989766369	1471989766472	r	82
5347	57155	Paris had ruled out participation in such an invasion force.	Paris had ruled out participation in such an invasion force. 	2719724	1471989766633	1471989766706	t	84
5347	57155	Paris had ruled out participation in such an invasion force.	Paris had ruled out participation in such an invasion force. 	2719727	1471989766753	1471989766848	i	73
5347	57155	Paris had ruled out participation in such an invasion force.	Paris had ruled out participation in such an invasion force. 	2719779	1471989767073	1471989767152	c	67
5347	57155	Paris had ruled out participation in such an invasion force.	Paris had ruled out participation in such an invasion force. 	2719785	1471989767185	1471989767264	i	73
5347	57155	Paris had ruled out participation in such an invasion force.	Paris had ruled out participation in such an invasion force. 	2719794	1471989767697	1471989767793	p	80
5347	57155	Paris had ruled out participation in such an invasion force.	Paris had ruled out participation in such an invasion force. 	2719807	1471989767929	1471989768016	a	65
5347	57155	Paris had ruled out participation in such an invasion force.	Paris had ruled out participation in such an invasion force. 	2719815	1471989768113	1471989768186	i	84
5347	57155	Paris had ruled out participation in such an invasion force.	Paris had ruled out participation in such an invasion force. 	2719864	1471989768306	1471989768418	o	79
5347	57155	Paris had ruled out participation in such an invasion force.	Paris had ruled out participation in such an invasion force. 	2719866	1471989768682	1471989768784	n	78
5347	57155	Paris had ruled out participation in such an invasion force.	Paris had ruled out participation in such an invasion force. 	2719870	1471989768849	1471989768922	 	32
5347	57155	Paris had ruled out participation in such an invasion force.	Paris had ruled out participation in such an invasion force. 	2719876	1471989769041	1471989769098	i	73
5347	57155	Paris had ruled out participation in such an invasion force.	Paris had ruled out participation in such an invasion force. 	2719880	1471989769170	1471989769254	n	78
5347	57155	Paris had ruled out participation in such an invasion force.	Paris had ruled out participation in such an invasion force. 	2719890	1471989769274	1471989769320	 	32
5347	57155	Paris had ruled out participation in such an invasion force.	Paris had ruled out participation in such an invasion force. 	2719895	1471989769409	1471989769504	s	83
5347	57155	Paris had ruled out participation in such an invasion force.	Paris had ruled out participation in such an invasion force. 	2719902	1471989769514	1471989769585	u	85
5347	57155	Paris had ruled out participation in such an invasion force.	Paris had ruled out participation in such an invasion force. 	2719907	1471989769667	1471989769737	c	67
5347	57155	Paris had ruled out participation in such an invasion force.	Paris had ruled out participation in such an invasion force. 	2719911	1471989769746	1471989769832	h	72
5347	57155	Paris had ruled out participation in such an invasion force.	Paris had ruled out participation in such an invasion force. 	2719939	1471989769912	1471989769952	 	32
5347	57155	Paris had ruled out participation in such an invasion force.	Paris had ruled out participation in such an invasion force. 	2719943	1471989770017	1471989770080	a	65
5347	57155	Paris had ruled out participation in such an invasion force.	Paris had ruled out participation in such an invasion force. 	2719948	1471989770129	1471989770192	n	78
5347	57155	Paris had ruled out participation in such an invasion force.	Paris had ruled out participation in such an invasion force. 	2719951	1471989770257	1471989770320	 	32
5347	57155	Paris had ruled out participation in such an invasion force.	Paris had ruled out participation in such an invasion force. 	2719954	1471989770473	1471989770544	i	73
5347	57155	Paris had ruled out participation in such an invasion force.	Paris had ruled out participation in such an invasion force. 	2719994	1471989770858	1471989770920	n	78
5347	57155	Paris had ruled out participation in such an invasion force.	Paris had ruled out participation in such an invasion force. 	2720000	1471989771041	1471989771136	v	86
5347	57155	Paris had ruled out participation in such an invasion force.	Paris had ruled out participation in such an invasion force. 	2720007	1471989771186	1471989771289	a	65
5347	57155	Paris had ruled out participation in such an invasion force.	Paris had ruled out participation in such an invasion force. 	2720013	1471989771569	1471989771656	s	83
5347	57155	Paris had ruled out participation in such an invasion force.	Paris had ruled out participation in such an invasion force. 	2720018	1471989771689	1471989771752	i	73
5347	57155	Paris had ruled out participation in such an invasion force.	Paris had ruled out participation in such an invasion force. 	2720032	1471989771798	1471989771878	o	79
5347	57155	Paris had ruled out participation in such an invasion force.	Paris had ruled out participation in such an invasion force. 	2720034	1471989771930	1471989772011	n	78
5347	57155	Paris had ruled out participation in such an invasion force.	Paris had ruled out participation in such an invasion force. 	2720037	1471989772065	1471989772122	 	32
5347	57155	Paris had ruled out participation in such an invasion force.	Paris had ruled out participation in such an invasion force. 	2720041	1471989772201	1471989772304	f	70
5347	57155	Paris had ruled out participation in such an invasion force.	Paris had ruled out participation in such an invasion force. 	2720058	1471989772297	1471989772344	o	79
5347	57155	Paris had ruled out participation in such an invasion force.	Paris had ruled out participation in such an invasion force. 	2720061	1471989772385	1471989772482	r	82
5347	57155	Paris had ruled out participation in such an invasion force.	Paris had ruled out participation in such an invasion force. 	2720063	1471989772642	1471989772721	c	67
5347	57155	Paris had ruled out participation in such an invasion force.	Paris had ruled out participation in such an invasion force. 	2720065	1471989772753	1471989772841	e	69
5347	57155	Paris had ruled out participation in such an invasion force.	Paris had ruled out participation in such an invasion force. 	2720069	1471989772929	1471989773016	.	190
5347	57155	Paris had ruled out participation in such an invasion force.	Paris had ruled out participation in such an invasion force. 	2720075	1471989773057	1471989773128	 	32
5347	57179	I wonder if RBS is another institution which could move quickly.	I wonder if RBS is another instituion which could move quickly. 	2720485	1471989780784	1471989780925	SHIFT	16
5347	57179	I wonder if RBS is another institution which could move quickly.	I wonder if RBS is another instituion which could move quickly. 	2720488	1471989780850	1471989780928	I	73
5347	57179	I wonder if RBS is another institution which could move quickly.	I wonder if RBS is another instituion which could move quickly. 	2720493	1471989780994	1471989781074	 	32
5347	57179	I wonder if RBS is another institution which could move quickly.	I wonder if RBS is another instituion which could move quickly. 	2720500	1471989781146	1471989781209	w	87
5347	57179	I wonder if RBS is another institution which could move quickly.	I wonder if RBS is another instituion which could move quickly. 	2720506	1471989781602	1471989781664	o	79
5347	57179	I wonder if RBS is another institution which could move quickly.	I wonder if RBS is another instituion which could move quickly. 	2720510	1471989781757	1471989781833	n	78
5347	57179	I wonder if RBS is another institution which could move quickly.	I wonder if RBS is another instituion which could move quickly. 	2720521	1471989781873	1471989781945	d	68
5347	57179	I wonder if RBS is another institution which could move quickly.	I wonder if RBS is another instituion which could move quickly. 	2720524	1471989782049	1471989782128	e	69
5347	57179	I wonder if RBS is another institution which could move quickly.	I wonder if RBS is another instituion which could move quickly. 	2720529	1471989782138	1471989782218	r	82
5347	57179	I wonder if RBS is another institution which could move quickly.	I wonder if RBS is another instituion which could move quickly. 	2720532	1471989782249	1471989782305	 	32
5347	57179	I wonder if RBS is another institution which could move quickly.	I wonder if RBS is another instituion which could move quickly. 	2720537	1471989782377	1471989782456	i	73
5347	57179	I wonder if RBS is another institution which could move quickly.	I wonder if RBS is another instituion which could move quickly. 	2720598	1471989782497	1471989782569	f	70
5347	57179	I wonder if RBS is another institution which could move quickly.	I wonder if RBS is another instituion which could move quickly. 	2720599	1471989782601	1471989782648	 	32
5347	57179	I wonder if RBS is another institution which could move quickly.	I wonder if RBS is another instituion which could move quickly. 	2720673	1471989782880	1471989783633	SHIFT	16
5347	57179	I wonder if RBS is another institution which could move quickly.	I wonder if RBS is another instituion which could move quickly. 	2720603	1471989783106	1471989783208	R	82
5347	57179	I wonder if RBS is another institution which could move quickly.	I wonder if RBS is another instituion which could move quickly. 	2720608	1471989783321	1471989783402	B	66
5347	57179	I wonder if RBS is another institution which could move quickly.	I wonder if RBS is another instituion which could move quickly. 	2720612	1471989783505	1471989783593	R	82
5347	57179	I wonder if RBS is another institution which could move quickly.	I wonder if RBS is another instituion which could move quickly. 	2720677	1471989783963	1471989784024	BKSP	8
5347	57179	I wonder if RBS is another institution which could move quickly.	I wonder if RBS is another instituion which could move quickly. 	2720685	1471989784072	1471989784368	SHIFT	16
5347	57179	I wonder if RBS is another institution which could move quickly.	I wonder if RBS is another instituion which could move quickly. 	2720681	1471989784233	1471989784361	S	83
5347	57179	I wonder if RBS is another institution which could move quickly.	I wonder if RBS is another instituion which could move quickly. 	2720689	1471989784498	1471989784561	 	32
5347	57179	I wonder if RBS is another institution which could move quickly.	I wonder if RBS is another instituion which could move quickly. 	2720692	1471989784626	1471989784696	i	73
5347	57179	I wonder if RBS is another institution which could move quickly.	I wonder if RBS is another instituion which could move quickly. 	2720696	1471989784690	1471989784768	s	83
5347	57179	I wonder if RBS is another institution which could move quickly.	I wonder if RBS is another instituion which could move quickly. 	2720701	1471989784810	1471989784856	 	32
5347	57179	I wonder if RBS is another institution which could move quickly.	I wonder if RBS is another instituion which could move quickly. 	2720719	1471989785097	1471989785187	a	65
5347	57179	I wonder if RBS is another institution which could move quickly.	I wonder if RBS is another instituion which could move quickly. 	2720722	1471989785177	1471989785240	n	78
5347	57179	I wonder if RBS is another institution which could move quickly.	I wonder if RBS is another instituion which could move quickly. 	2720724	1471989785329	1471989785409	o	79
5347	57179	I wonder if RBS is another institution which could move quickly.	I wonder if RBS is another instituion which could move quickly. 	2720725	1471989785458	1471989785528	t	84
5347	57179	I wonder if RBS is another institution which could move quickly.	I wonder if RBS is another instituion which could move quickly. 	2720766	1471989785505	1471989785576	h	72
5347	57179	I wonder if RBS is another institution which could move quickly.	I wonder if RBS is another instituion which could move quickly. 	2720769	1471989785681	1471989785793	e	69
5347	57179	I wonder if RBS is another institution which could move quickly.	I wonder if RBS is another instituion which could move quickly. 	2720774	1471989785761	1471989785848	r	82
5347	57179	I wonder if RBS is another institution which could move quickly.	I wonder if RBS is another instituion which could move quickly. 	2720777	1471989785905	1471989785952	 	32
5347	57179	I wonder if RBS is another institution which could move quickly.	I wonder if RBS is another instituion which could move quickly. 	2720782	1471989786097	1471989786169	i	73
5347	57179	I wonder if RBS is another institution which could move quickly.	I wonder if RBS is another instituion which could move quickly. 	2720786	1471989786273	1471989786320	n	78
5347	57179	I wonder if RBS is another institution which could move quickly.	I wonder if RBS is another instituion which could move quickly. 	2720830	1471989786505	1471989786592	t	84
5347	57179	I wonder if RBS is another institution which could move quickly.	I wonder if RBS is another instituion which could move quickly. 	2720832	1471989786801	1471989786858	s	83
5347	57179	I wonder if RBS is another institution which could move quickly.	I wonder if RBS is another instituion which could move quickly. 	2720835	1471989787041	1471989787096	BKSP	8
5347	57179	I wonder if RBS is another institution which could move quickly.	I wonder if RBS is another instituion which could move quickly. 	2720838	1471989787153	1471989787224	BKSP	8
5347	57179	I wonder if RBS is another institution which could move quickly.	I wonder if RBS is another instituion which could move quickly. 	2720841	1471989787186	1471989787256	s	83
5347	57179	I wonder if RBS is another institution which could move quickly.	I wonder if RBS is another instituion which could move quickly. 	2720845	1471989787329	1471989787417	t	84
5347	57179	I wonder if RBS is another institution which could move quickly.	I wonder if RBS is another instituion which could move quickly. 	2720849	1471989787425	1471989787496	i	73
5347	57179	I wonder if RBS is another institution which could move quickly.	I wonder if RBS is another instituion which could move quickly. 	2720920	1471989788033	1471989788112	t	84
5347	57179	I wonder if RBS is another institution which could move quickly.	I wonder if RBS is another instituion which could move quickly. 	2720927	1471989788161	1471989788248	u	85
5347	57179	I wonder if RBS is another institution which could move quickly.	I wonder if RBS is another instituion which could move quickly. 	2720930	1471989788297	1471989788384	i	73
5347	57179	I wonder if RBS is another institution which could move quickly.	I wonder if RBS is another instituion which could move quickly. 	2720940	1471989788537	1471989788640	o	79
5347	57179	I wonder if RBS is another institution which could move quickly.	I wonder if RBS is another instituion which could move quickly. 	2720946	1471989788704	1471989788816	n	78
5347	57179	I wonder if RBS is another institution which could move quickly.	I wonder if RBS is another instituion which could move quickly. 	2720978	1471989788873	1471989788960	 	32
5347	57179	I wonder if RBS is another institution which could move quickly.	I wonder if RBS is another instituion which could move quickly. 	2720980	1471989789081	1471989789152	w	87
5347	57179	I wonder if RBS is another institution which could move quickly.	I wonder if RBS is another instituion which could move quickly. 	2720985	1471989789145	1471989789200	h	72
5347	57179	I wonder if RBS is another institution which could move quickly.	I wonder if RBS is another instituion which could move quickly. 	2720989	1471989789257	1471989789344	i	73
5347	57179	I wonder if RBS is another institution which could move quickly.	I wonder if RBS is another instituion which could move quickly. 	2720995	1471989789385	1471989789464	c	67
5347	57179	I wonder if RBS is another institution which could move quickly.	I wonder if RBS is another instituion which could move quickly. 	2721026	1471989789449	1471989789512	h	72
5347	57179	I wonder if RBS is another institution which could move quickly.	I wonder if RBS is another instituion which could move quickly. 	2721028	1471989789585	1471989789656	 	32
5347	57179	I wonder if RBS is another institution which could move quickly.	I wonder if RBS is another instituion which could move quickly. 	2721033	1471989789961	1471989790048	c	67
5347	57179	I wonder if RBS is another institution which could move quickly.	I wonder if RBS is another instituion which could move quickly. 	2721037	1471989790088	1471989790152	o	79
5347	57179	I wonder if RBS is another institution which could move quickly.	I wonder if RBS is another instituion which could move quickly. 	2721041	1471989790185	1471989790256	u	85
5347	57179	I wonder if RBS is another institution which could move quickly.	I wonder if RBS is another instituion which could move quickly. 	2721044	1471989790329	1471989790408	l	76
5347	57179	I wonder if RBS is another institution which could move quickly.	I wonder if RBS is another instituion which could move quickly. 	2721055	1471989790417	1471989790488	d	68
5347	57179	I wonder if RBS is another institution which could move quickly.	I wonder if RBS is another instituion which could move quickly. 	2721058	1471989790497	1471989790544	 	32
5347	57179	I wonder if RBS is another institution which could move quickly.	I wonder if RBS is another instituion which could move quickly. 	2721061	1471989790704	1471989790792	m	77
5347	57179	I wonder if RBS is another institution which could move quickly.	I wonder if RBS is another instituion which could move quickly. 	2721064	1471989790849	1471989790920	o	79
5347	57179	I wonder if RBS is another institution which could move quickly.	I wonder if RBS is another instituion which could move quickly. 	2721068	1471989790953	1471989791016	v	86
5347	57179	I wonder if RBS is another institution which could move quickly.	I wonder if RBS is another instituion which could move quickly. 	2721149	1471989791073	1471989791121	e	69
5347	57179	I wonder if RBS is another institution which could move quickly.	I wonder if RBS is another instituion which could move quickly. 	2721155	1471989791185	1471989791232	 	32
5347	57179	I wonder if RBS is another institution which could move quickly.	I wonder if RBS is another instituion which could move quickly. 	2721161	1471989791912	1471989791992	q	81
5347	57179	I wonder if RBS is another institution which could move quickly.	I wonder if RBS is another instituion which could move quickly. 	2721167	1471989792105	1471989792184	u	85
5347	57179	I wonder if RBS is another institution which could move quickly.	I wonder if RBS is another instituion which could move quickly. 	2721171	1471989792265	1471989792336	i	73
5347	57179	I wonder if RBS is another institution which could move quickly.	I wonder if RBS is another instituion which could move quickly. 	2721252	1471989792466	1471989792552	c	67
5347	57179	I wonder if RBS is another institution which could move quickly.	I wonder if RBS is another instituion which could move quickly. 	2721258	1471989792985	1471989793040	k	75
5347	57179	I wonder if RBS is another institution which could move quickly.	I wonder if RBS is another instituion which could move quickly. 	2721263	1471989793121	1471989793200	l	76
5347	57179	I wonder if RBS is another institution which could move quickly.	I wonder if RBS is another instituion which could move quickly. 	2721267	1471989793288	1471989793360	y	89
5347	57179	I wonder if RBS is another institution which could move quickly.	I wonder if RBS is another instituion which could move quickly. 	2721271	1471989793849	1471989793920	.	190
5347	57179	I wonder if RBS is another institution which could move quickly.	I wonder if RBS is another instituion which could move quickly. 	2721274	1471989793977	1471989794032	 	32
