PARTICIPANT_ID	TEST_SECTION_ID	SENTENCE	USER_INPUT	KEYSTROKE_ID	PRESS_TIME	RELEASE_TIME	LETTER	KEYCODE
5353	56917	on Friday, October 26th.	on friday, October 26th.	2707728	1471989595763	1471989595938	o	79
5353	56917	on Friday, October 26th.	on friday, October 26th.	2707731	1471989595906	1471989596010	n	78
5353	56917	on Friday, October 26th.	on friday, October 26th.	2707733	1471989596098	1471989596250	 	32
5353	56917	on Friday, October 26th.	on friday, October 26th.	2707736	1471989596186	1471989596314	f	70
5353	56917	on Friday, October 26th.	on friday, October 26th.	2707738	1471989596346	1471989596530	i	73
5353	56917	on Friday, October 26th.	on friday, October 26th.	2707852	1471989596482	1471989596634	r	82
5353	56917	on Friday, October 26th.	on friday, October 26th.	2707856	1471989596810	1471989596962	d	68
5353	56917	on Friday, October 26th.	on friday, October 26th.	2707862	1471989596962	1471989597130	a	65
5353	56917	on Friday, October 26th.	on friday, October 26th.	2707870	1471989597306	1471989597370	BKSP	8
5353	56917	on Friday, October 26th.	on friday, October 26th.	2707878	1471989597434	1471989597514	BKSP	8
5353	56917	on Friday, October 26th.	on friday, October 26th.	2707887	1471989597586	1471989597666	BKSP	8
5353	56917	on Friday, October 26th.	on friday, October 26th.	2707893	1471989597754	1471989597858	BKSP	8
5353	56917	on Friday, October 26th.	on friday, October 26th.	2707898	1471989597946	1471989598050	r	82
5353	56917	on Friday, October 26th.	on friday, October 26th.	2707903	1471989598378	1471989598458	i	73
5353	56917	on Friday, October 26th.	on friday, October 26th.	2707907	1471989598458	1471989598626	d	68
5353	56917	on Friday, October 26th.	on friday, October 26th.	2707984	1471989598627	1471989598802	a	65
5353	56917	on Friday, October 26th.	on friday, October 26th.	2707988	1471989598778	1471989598890	y	89
5353	56917	on Friday, October 26th.	on friday, October 26th.	2707994	1471989599002	1471989599106	 	32
5353	56917	on Friday, October 26th.	on friday, October 26th.	2708002	1471989599578	1471989599658	BKSP	8
5353	56917	on Friday, October 26th.	on friday, October 26th.	2708009	1471989599874	1471989599954	,	188
5353	56917	on Friday, October 26th.	on friday, October 26th.	2708018	1471989600042	1471989600138	 	32
5353	56917	on Friday, October 26th.	on friday, October 26th.	2708142	1471989600122	1471989600258	CAPS_LOCK	20
5353	56917	on Friday, October 26th.	on friday, October 26th.	2708147	1471989600258	1471989600378	O	79
5353	56917	on Friday, October 26th.	on friday, October 26th.	2708153	1471989600354	1471989600514	CAPS_LOCK	20
5353	56917	on Friday, October 26th.	on friday, October 26th.	2708158	1471989600570	1471989600690	c	67
5353	56917	on Friday, October 26th.	on friday, October 26th.	2708164	1471989600818	1471989600986	t	84
5353	56917	on Friday, October 26th.	on friday, October 26th.	2708174	1471989600986	1471989601146	i	73
5353	56917	on Friday, October 26th.	on friday, October 26th.	2708180	1471989601546	1471989601634	BKSP	8
5353	56917	on Friday, October 26th.	on friday, October 26th.	2708187	1471989601938	1471989602026	o	79
5353	56917	on Friday, October 26th.	on friday, October 26th.	2708389	1471989602154	1471989602250	b	66
5353	56917	on Friday, October 26th.	on friday, October 26th.	2708390	1471989602290	1471989602474	e	69
5353	56917	on Friday, October 26th.	on friday, October 26th.	2708394	1471989602378	1471989602538	r	82
5353	56917	on Friday, October 26th.	on friday, October 26th.	2708397	1471989602538	1471989602626	 	32
5353	56917	on Friday, October 26th.	on friday, October 26th.	2708399	1471989603418	1471989603490	ARw_DOWN	40
5353	56917	on Friday, October 26th.	on friday, October 26th.	2708404	1471989604810	1471989604906	2	50
5353	56917	on Friday, October 26th.	on friday, October 26th.	2708656	1471989604938	1471989605010	6	54
5353	56917	on Friday, October 26th.	on friday, October 26th.	2708662	1471989605105	1471989605210	t	84
5353	56917	on Friday, October 26th.	on friday, October 26th.	2708668	1471989605257	1471989605322	h	72
5353	56917	on Friday, October 26th.	on friday, October 26th.	2708673	1471989605914	1471989605978	.	190
5353	56947	He left the Jets  win over Miami in the second half on October.	He left the Jets win over Miami in the second half on October.	2709047	1471989612873	1471989613017	CAPS_LOCK	20
5353	56947	He left the Jets  win over Miami in the second half on October.	He left the Jets win over Miami in the second half on October.	2709050	1471989613041	1471989613153	H	72
5353	56947	He left the Jets  win over Miami in the second half on October.	He left the Jets win over Miami in the second half on October.	2709054	1471989613154	1471989613257	CAPS_LOCK	20
5353	56947	He left the Jets  win over Miami in the second half on October.	He left the Jets win over Miami in the second half on October.	2709057	1471989613305	1471989613441	 	32
5353	56947	He left the Jets  win over Miami in the second half on October.	He left the Jets win over Miami in the second half on October.	2709060	1471989613417	1471989613601	e	69
5353	56947	He left the Jets  win over Miami in the second half on October.	He left the Jets win over Miami in the second half on October.	2709065	1471989613689	1471989613737	BKSP	8
5353	56947	He left the Jets  win over Miami in the second half on October.	He left the Jets win over Miami in the second half on October.	2709071	1471989613825	1471989613921	BKSP	8
5353	56947	He left the Jets  win over Miami in the second half on October.	He left the Jets win over Miami in the second half on October.	2709074	1471989613945	1471989614065	e	69
5353	56947	He left the Jets  win over Miami in the second half on October.	He left the Jets win over Miami in the second half on October.	2709080	1471989614065	1471989614121	 	32
5353	56947	He left the Jets  win over Miami in the second half on October.	He left the Jets win over Miami in the second half on October.	2709099	1471989614193	1471989614313	l	76
5353	56947	He left the Jets  win over Miami in the second half on October.	He left the Jets win over Miami in the second half on October.	2709104	1471989614273	1471989614473	e	69
5353	56947	He left the Jets  win over Miami in the second half on October.	He left the Jets win over Miami in the second half on October.	2709110	1471989614417	1471989614545	f	70
5353	56947	He left the Jets  win over Miami in the second half on October.	He left the Jets win over Miami in the second half on October.	2709115	1471989614673	1471989614777	t	84
5353	56947	He left the Jets  win over Miami in the second half on October.	He left the Jets win over Miami in the second half on October.	2709121	1471989614777	1471989614889	 	32
5353	56947	He left the Jets  win over Miami in the second half on October.	He left the Jets win over Miami in the second half on October.	2709170	1471989614891	1471989614985	t	84
5353	56947	He left the Jets  win over Miami in the second half on October.	He left the Jets win over Miami in the second half on October.	2709174	1471989615033	1471989615065	h	72
5353	56947	He left the Jets  win over Miami in the second half on October.	He left the Jets win over Miami in the second half on October.	2709178	1471989615065	1471989615177	e	69
5353	56947	He left the Jets  win over Miami in the second half on October.	He left the Jets win over Miami in the second half on October.	2709183	1471989615257	1471989615353	 	32
5353	56947	He left the Jets  win over Miami in the second half on October.	He left the Jets win over Miami in the second half on October.	2709189	1471989615353	1471989615473	CAPS_LOCK	20
5353	56947	He left the Jets  win over Miami in the second half on October.	He left the Jets win over Miami in the second half on October.	2709195	1471989615473	1471989615561	J	74
5353	56947	He left the Jets  win over Miami in the second half on October.	He left the Jets win over Miami in the second half on October.	2709259	1471989615563	1471989615673	CAPS_LOCK	20
5353	56947	He left the Jets  win over Miami in the second half on October.	He left the Jets win over Miami in the second half on October.	2709264	1471989615793	1471989615993	e	69
5353	56947	He left the Jets  win over Miami in the second half on October.	He left the Jets win over Miami in the second half on October.	2709271	1471989615945	1471989616089	t	84
5353	56947	He left the Jets  win over Miami in the second half on October.	He left the Jets win over Miami in the second half on October.	2709277	1471989616185	1471989616313	s	83
5353	56947	He left the Jets  win over Miami in the second half on October.	He left the Jets win over Miami in the second half on October.	2709285	1471989616313	1471989616441	 	32
5353	56947	He left the Jets  win over Miami in the second half on October.	He left the Jets win over Miami in the second half on October.	2709287	1471989616441	1471989616569	w	87
5353	56947	He left the Jets  win over Miami in the second half on October.	He left the Jets win over Miami in the second half on October.	2709359	1471989616545	1471989616697	i	73
5353	56947	He left the Jets  win over Miami in the second half on October.	He left the Jets win over Miami in the second half on October.	2709366	1471989616665	1471989616785	n	78
5353	56947	He left the Jets  win over Miami in the second half on October.	He left the Jets win over Miami in the second half on October.	2709372	1471989616921	1471989617041	 	32
5353	56947	He left the Jets  win over Miami in the second half on October.	He left the Jets win over Miami in the second half on October.	2709377	1471989617193	1471989617329	o	79
5353	56947	He left the Jets  win over Miami in the second half on October.	He left the Jets win over Miami in the second half on October.	2709383	1471989617433	1471989617513	v	86
5353	56947	He left the Jets  win over Miami in the second half on October.	He left the Jets win over Miami in the second half on October.	2709390	1471989617529	1471989617713	e	69
5353	56947	He left the Jets  win over Miami in the second half on October.	He left the Jets win over Miami in the second half on October.	2709453	1471989617665	1471989617801	r	82
5353	56947	He left the Jets  win over Miami in the second half on October.	He left the Jets win over Miami in the second half on October.	2709455	1471989617777	1471989617889	 	32
5353	56947	He left the Jets  win over Miami in the second half on October.	He left the Jets win over Miami in the second half on October.	2709459	1471989618225	1471989618353	CAPS_LOCK	20
5353	56947	He left the Jets  win over Miami in the second half on October.	He left the Jets win over Miami in the second half on October.	2709463	1471989618353	1471989618449	M	77
5353	56947	He left the Jets  win over Miami in the second half on October.	He left the Jets win over Miami in the second half on October.	2709465	1471989618449	1471989618569	CAPS_LOCK	20
5353	56947	He left the Jets  win over Miami in the second half on October.	He left the Jets win over Miami in the second half on October.	2709469	1471989618705	1471989618801	i	73
5353	56947	He left the Jets  win over Miami in the second half on October.	He left the Jets win over Miami in the second half on October.	2709471	1471989618817	1471989618953	a	65
5353	56947	He left the Jets  win over Miami in the second half on October.	He left the Jets win over Miami in the second half on October.	2709474	1471989619017	1471989619153	m	77
5353	56947	He left the Jets  win over Miami in the second half on October.	He left the Jets win over Miami in the second half on October.	2709503	1471989619177	1471989619305	a	65
5353	56947	He left the Jets  win over Miami in the second half on October.	He left the Jets win over Miami in the second half on October.	2709506	1471989619577	1471989619641	BKSP	8
5353	56947	He left the Jets  win over Miami in the second half on October.	He left the Jets win over Miami in the second half on October.	2709509	1471989619793	1471989619873	i	73
5353	56947	He left the Jets  win over Miami in the second half on October.	He left the Jets win over Miami in the second half on October.	2709514	1471989619993	1471989620089	 	32
5353	56947	He left the Jets  win over Miami in the second half on October.	He left the Jets win over Miami in the second half on October.	2709519	1471989620145	1471989620305	i	73
5353	56947	He left the Jets  win over Miami in the second half on October.	He left the Jets win over Miami in the second half on October.	2709535	1471989620257	1471989620321	n	78
5353	56947	He left the Jets  win over Miami in the second half on October.	He left the Jets win over Miami in the second half on October.	2709538	1471989620425	1471989620505	 	32
5353	56947	He left the Jets  win over Miami in the second half on October.	He left the Jets win over Miami in the second half on October.	2709541	1471989620505	1471989620601	t	84
5353	56947	He left the Jets  win over Miami in the second half on October.	He left the Jets win over Miami in the second half on October.	2709545	1471989620601	1471989620689	h	72
5353	56947	He left the Jets  win over Miami in the second half on October.	He left the Jets win over Miami in the second half on October.	2709547	1471989620665	1471989620769	e	69
5353	56947	He left the Jets  win over Miami in the second half on October.	He left the Jets win over Miami in the second half on October.	2709551	1471989620793	1471989620889	 	32
5353	56947	He left the Jets  win over Miami in the second half on October.	He left the Jets win over Miami in the second half on October.	2709587	1471989620921	1471989621081	s	83
5353	56947	He left the Jets  win over Miami in the second half on October.	He left the Jets win over Miami in the second half on October.	2709592	1471989621065	1471989621201	e	69
5353	56947	He left the Jets  win over Miami in the second half on October.	He left the Jets win over Miami in the second half on October.	2709598	1471989621585	1471989621705	c	67
5353	56947	He left the Jets  win over Miami in the second half on October.	He left the Jets win over Miami in the second half on October.	2709607	1471989621705	1471989621833	o	79
5353	56947	He left the Jets  win over Miami in the second half on October.	He left the Jets win over Miami in the second half on October.	2709685	1471989621817	1471989621921	n	78
5353	56947	He left the Jets  win over Miami in the second half on October.	He left the Jets win over Miami in the second half on October.	2709692	1471989621921	1471989622041	d	68
5353	56947	He left the Jets  win over Miami in the second half on October.	He left the Jets win over Miami in the second half on October.	2709700	1471989622041	1471989622107	 	32
5353	56947	He left the Jets  win over Miami in the second half on October.	He left the Jets win over Miami in the second half on October.	2709706	1471989622265	1471989622425	a	65
5353	56947	He left the Jets  win over Miami in the second half on October.	He left the Jets win over Miami in the second half on October.	2709716	1471989622889	1471989622977	BKSP	8
5353	56947	He left the Jets  win over Miami in the second half on October.	He left the Jets win over Miami in the second half on October.	2709721	1471989623129	1471989623217	h	72
5353	56947	He left the Jets  win over Miami in the second half on October.	He left the Jets win over Miami in the second half on October.	2709730	1471989623217	1471989623345	a	65
5353	56947	He left the Jets  win over Miami in the second half on October.	He left the Jets win over Miami in the second half on October.	2709770	1471989623346	1471989623457	l	76
5353	56947	He left the Jets  win over Miami in the second half on October.	He left the Jets win over Miami in the second half on October.	2709775	1471989623481	1471989623609	f	70
5353	56947	He left the Jets  win over Miami in the second half on October.	He left the Jets win over Miami in the second half on October.	2709782	1471989623609	1471989623705	 	32
5353	56947	He left the Jets  win over Miami in the second half on October.	He left the Jets win over Miami in the second half on October.	2709788	1471989623849	1471989623945	BKSP	8
5353	56947	He left the Jets  win over Miami in the second half on October.	He left the Jets win over Miami in the second half on October.	2709796	1471989624089	1471989624161	 	32
5353	56947	He left the Jets  win over Miami in the second half on October.	He left the Jets win over Miami in the second half on October.	2709802	1471989624209	1471989624377	o	79
5353	56947	He left the Jets  win over Miami in the second half on October.	He left the Jets win over Miami in the second half on October.	2709971	1471989624353	1471989624449	n	78
5353	56947	He left the Jets  win over Miami in the second half on October.	He left the Jets win over Miami in the second half on October.	2709973	1471989624561	1471989624665	 	32
5353	56947	He left the Jets  win over Miami in the second half on October.	He left the Jets win over Miami in the second half on October.	2709975	1471989624977	1471989625129	CAPS_LOCK	20
5353	56947	He left the Jets  win over Miami in the second half on October.	He left the Jets win over Miami in the second half on October.	2709978	1471989625129	1471989625241	O	79
5353	56947	He left the Jets  win over Miami in the second half on October.	He left the Jets win over Miami in the second half on October.	2709983	1471989625241	1471989625353	CAPS_LOCK	20
5353	56947	He left the Jets  win over Miami in the second half on October.	He left the Jets win over Miami in the second half on October.	2709989	1471989625456	1471989625585	c	67
5353	56947	He left the Jets  win over Miami in the second half on October.	He left the Jets win over Miami in the second half on October.	2709995	1471989625769	1471989625921	t	84
5353	56947	He left the Jets  win over Miami in the second half on October.	He left the Jets win over Miami in the second half on October.	2710003	1471989626545	1471989626641	o	79
5353	56947	He left the Jets  win over Miami in the second half on October.	He left the Jets win over Miami in the second half on October.	2710124	1471989626865	1471989626977	b	66
5353	56947	He left the Jets  win over Miami in the second half on October.	He left the Jets win over Miami in the second half on October.	2710130	1471989627041	1471989627249	e	69
5353	56947	He left the Jets  win over Miami in the second half on October.	He left the Jets win over Miami in the second half on October.	2710134	1471989627161	1471989627328	r	82
5353	56947	He left the Jets  win over Miami in the second half on October.	He left the Jets win over Miami in the second half on October.	2710137	1471989627889	1471989627977	/	191
5353	56947	He left the Jets  win over Miami in the second half on October.	He left the Jets win over Miami in the second half on October.	2710140	1471989628265	1471989628353	BKSP	8
5353	56947	He left the Jets  win over Miami in the second half on October.	He left the Jets win over Miami in the second half on October.	2710143	1471989628609	1471989628680	.	190
5353	56976	But the Chiefs might depend on the run, so his numbers may be limited.	But the Chiefts might depend on the run, so hid numbers may be limited.	2710433	1471989631720	1471989631840	CAPS_LOCK	20
5353	56976	But the Chiefs might depend on the run, so his numbers may be limited.	But the Chiefts might depend on the run, so hid numbers may be limited.	2710440	1471989631888	1471989631992	B	66
5353	56976	But the Chiefs might depend on the run, so his numbers may be limited.	But the Chiefts might depend on the run, so hid numbers may be limited.	2710448	1471989631993	1471989632096	CAPS_LOCK	20
5353	56976	But the Chiefs might depend on the run, so his numbers may be limited.	But the Chiefts might depend on the run, so hid numbers may be limited.	2710458	1471989632097	1471989632192	u	85
5353	56976	But the Chiefs might depend on the run, so his numbers may be limited.	But the Chiefts might depend on the run, so hid numbers may be limited.	2710466	1471989632216	1471989632320	t	84
5353	56976	But the Chiefs might depend on the run, so his numbers may be limited.	But the Chiefts might depend on the run, so hid numbers may be limited.	2710472	1471989632321	1471989632440	 	32
5353	56976	But the Chiefs might depend on the run, so his numbers may be limited.	But the Chiefts might depend on the run, so hid numbers may be limited.	2710478	1471989632441	1471989632520	t	84
5353	56976	But the Chiefs might depend on the run, so his numbers may be limited.	But the Chiefts might depend on the run, so hid numbers may be limited.	2710561	1471989632522	1471989632624	h	72
5353	56976	But the Chiefs might depend on the run, so his numbers may be limited.	But the Chiefts might depend on the run, so hid numbers may be limited.	2710566	1471989632625	1471989632720	e	69
5353	56976	But the Chiefs might depend on the run, so his numbers may be limited.	But the Chiefts might depend on the run, so hid numbers may be limited.	2710572	1471989632736	1471989632840	 	32
5353	56976	But the Chiefs might depend on the run, so his numbers may be limited.	But the Chiefts might depend on the run, so hid numbers may be limited.	2710581	1471989632864	1471989633008	CAPS_LOCK	20
5353	56976	But the Chiefs might depend on the run, so his numbers may be limited.	But the Chiefts might depend on the run, so hid numbers may be limited.	2710591	1471989633289	1471989633408	C	67
5353	56976	But the Chiefs might depend on the run, so his numbers may be limited.	But the Chiefts might depend on the run, so hid numbers may be limited.	2710596	1471989633552	1471989633712	CAPS_LOCK	20
5353	56976	But the Chiefs might depend on the run, so his numbers may be limited.	But the Chiefts might depend on the run, so hid numbers may be limited.	2710605	1471989633784	1471989633912	h	72
5353	56976	But the Chiefs might depend on the run, so his numbers may be limited.	But the Chiefts might depend on the run, so hid numbers may be limited.	2710675	1471989634080	1471989634240	i	73
5353	56976	But the Chiefs might depend on the run, so his numbers may be limited.	But the Chiefts might depend on the run, so hid numbers may be limited.	2710683	1471989634216	1471989634408	e	69
5353	56976	But the Chiefs might depend on the run, so his numbers may be limited.	But the Chiefts might depend on the run, so hid numbers may be limited.	2710687	1471989634409	1471989634552	f	70
5353	56976	But the Chiefs might depend on the run, so his numbers may be limited.	But the Chiefts might depend on the run, so hid numbers may be limited.	2710691	1471989634760	1471989634880	t	84
5353	56976	But the Chiefs might depend on the run, so his numbers may be limited.	But the Chiefts might depend on the run, so hid numbers may be limited.	2710696	1471989635008	1471989635152	s	83
5353	56976	But the Chiefs might depend on the run, so his numbers may be limited.	But the Chiefts might depend on the run, so hid numbers may be limited.	2710873	1471989635154	1471989635232	 	32
5353	56976	But the Chiefs might depend on the run, so his numbers may be limited.	But the Chiefts might depend on the run, so hid numbers may be limited.	2710879	1471989635368	1471989635448	,	188
5353	56976	But the Chiefs might depend on the run, so his numbers may be limited.	But the Chiefts might depend on the run, so hid numbers may be limited.	2710886	1471989635872	1471989635976	BKSP	8
5353	56976	But the Chiefs might depend on the run, so his numbers may be limited.	But the Chiefts might depend on the run, so hid numbers may be limited.	2710891	1471989636136	1471989636232	m	77
5353	56976	But the Chiefs might depend on the run, so his numbers may be limited.	But the Chiefts might depend on the run, so hid numbers may be limited.	2710894	1471989637272	1471989637360	i	73
5353	56976	But the Chiefs might depend on the run, so his numbers may be limited.	But the Chiefts might depend on the run, so hid numbers may be limited.	2710897	1471989637360	1471989637432	g	71
5353	56976	But the Chiefs might depend on the run, so his numbers may be limited.	But the Chiefts might depend on the run, so hid numbers may be limited.	2710930	1471989637472	1471989637560	h	72
5353	56976	But the Chiefs might depend on the run, so his numbers may be limited.	But the Chiefts might depend on the run, so hid numbers may be limited.	2710935	1471989637560	1471989637648	t	84
5353	56976	But the Chiefs might depend on the run, so his numbers may be limited.	But the Chiefts might depend on the run, so hid numbers may be limited.	2710941	1471989637680	1471989637760	 	32
5353	56976	But the Chiefs might depend on the run, so his numbers may be limited.	But the Chiefts might depend on the run, so hid numbers may be limited.	2710946	1471989637872	1471989638104	d	68
5353	56976	But the Chiefs might depend on the run, so his numbers may be limited.	But the Chiefts might depend on the run, so hid numbers may be limited.	2711001	1471989638024	1471989638168	e	69
5353	56976	But the Chiefs might depend on the run, so his numbers may be limited.	But the Chiefts might depend on the run, so hid numbers may be limited.	2711004	1471989638192	1471989638296	p	80
5353	56976	But the Chiefs might depend on the run, so his numbers may be limited.	But the Chiefts might depend on the run, so hid numbers may be limited.	2711009	1471989638320	1471989638432	e	69
5353	56976	But the Chiefs might depend on the run, so his numbers may be limited.	But the Chiefts might depend on the run, so hid numbers may be limited.	2711013	1471989638464	1471989638544	n	78
5353	56976	But the Chiefs might depend on the run, so his numbers may be limited.	But the Chiefts might depend on the run, so hid numbers may be limited.	2711017	1471989638616	1471989638768	d	68
5353	56976	But the Chiefs might depend on the run, so his numbers may be limited.	But the Chiefts might depend on the run, so hid numbers may be limited.	2711020	1471989638808	1471989638896	 	32
5353	56976	But the Chiefs might depend on the run, so his numbers may be limited.	But the Chiefts might depend on the run, so hid numbers may be limited.	2711047	1471989638984	1471989639136	o	79
5353	56976	But the Chiefs might depend on the run, so his numbers may be limited.	But the Chiefts might depend on the run, so hid numbers may be limited.	2711048	1471989639136	1471989639224	n	78
5353	56976	But the Chiefs might depend on the run, so his numbers may be limited.	But the Chiefts might depend on the run, so hid numbers may be limited.	2711051	1471989639352	1471989639448	 	32
5353	56976	But the Chiefs might depend on the run, so his numbers may be limited.	But the Chiefts might depend on the run, so hid numbers may be limited.	2711053	1471989639448	1471989639544	t	84
5353	56976	But the Chiefs might depend on the run, so his numbers may be limited.	But the Chiefts might depend on the run, so hid numbers may be limited.	2711055	1471989639544	1471989639624	h	72
5353	56976	But the Chiefs might depend on the run, so his numbers may be limited.	But the Chiefts might depend on the run, so hid numbers may be limited.	2711086	1471989639625	1471989639720	e	69
5353	56976	But the Chiefs might depend on the run, so his numbers may be limited.	But the Chiefts might depend on the run, so hid numbers may be limited.	2711090	1471989639752	1471989639848	 	32
5353	56976	But the Chiefs might depend on the run, so his numbers may be limited.	But the Chiefts might depend on the run, so hid numbers may be limited.	2711093	1471989639880	1471989639984	r	82
5353	56976	But the Chiefs might depend on the run, so his numbers may be limited.	But the Chiefts might depend on the run, so hid numbers may be limited.	2711096	1471989640008	1471989640120	u	85
5353	56976	But the Chiefs might depend on the run, so his numbers may be limited.	But the Chiefts might depend on the run, so hid numbers may be limited.	2711098	1471989640208	1471989640280	n	78
5353	56976	But the Chiefs might depend on the run, so his numbers may be limited.	But the Chiefts might depend on the run, so hid numbers may be limited.	2711164	1471989640696	1471989640777	,	188
5353	56976	But the Chiefs might depend on the run, so his numbers may be limited.	But the Chiefts might depend on the run, so hid numbers may be limited.	2711169	1471989640864	1471989640960	 	32
5353	56976	But the Chiefs might depend on the run, so his numbers may be limited.	But the Chiefts might depend on the run, so hid numbers may be limited.	2711174	1471989640992	1471989641096	s	83
5353	56976	But the Chiefs might depend on the run, so his numbers may be limited.	But the Chiefts might depend on the run, so hid numbers may be limited.	2711181	1471989641064	1471989641192	o	79
5353	56976	But the Chiefs might depend on the run, so his numbers may be limited.	But the Chiefts might depend on the run, so hid numbers may be limited.	2711185	1471989641272	1471989641376	 	32
5353	56976	But the Chiefs might depend on the run, so his numbers may be limited.	But the Chiefts might depend on the run, so hid numbers may be limited.	2711240	1471989641448	1471989641640	h	72
5353	56976	But the Chiefs might depend on the run, so his numbers may be limited.	But the Chiefts might depend on the run, so hid numbers may be limited.	2711245	1471989641584	1471989641744	i	73
5353	56976	But the Chiefs might depend on the run, so his numbers may be limited.	But the Chiefts might depend on the run, so hid numbers may be limited.	2711251	1471989641728	1471989641872	d	68
5353	56976	But the Chiefs might depend on the run, so his numbers may be limited.	But the Chiefts might depend on the run, so hid numbers may be limited.	2711255	1471989641872	1471989641960	 	32
5353	56976	But the Chiefs might depend on the run, so his numbers may be limited.	But the Chiefts might depend on the run, so hid numbers may be limited.	2711260	1471989642096	1471989642168	n	78
5353	56976	But the Chiefs might depend on the run, so his numbers may be limited.	But the Chiefts might depend on the run, so hid numbers may be limited.	2711351	1471989642296	1471989642360	u	85
5353	56976	But the Chiefs might depend on the run, so his numbers may be limited.	But the Chiefts might depend on the run, so hid numbers may be limited.	2711358	1471989642776	1471989642840	m	77
5353	56976	But the Chiefs might depend on the run, so his numbers may be limited.	But the Chiefts might depend on the run, so hid numbers may be limited.	2711367	1471989642968	1471989643072	b	66
5353	56976	But the Chiefs might depend on the run, so his numbers may be limited.	But the Chiefts might depend on the run, so hid numbers may be limited.	2711376	1471989643072	1471989643273	e	69
5353	56976	But the Chiefs might depend on the run, so his numbers may be limited.	But the Chiefts might depend on the run, so hid numbers may be limited.	2711423	1471989643200	1471989643312	r	82
5353	56976	But the Chiefs might depend on the run, so his numbers may be limited.	But the Chiefts might depend on the run, so hid numbers may be limited.	2711427	1471989643392	1471989643536	s	83
5353	56976	But the Chiefs might depend on the run, so his numbers may be limited.	But the Chiefts might depend on the run, so hid numbers may be limited.	2711431	1471989643512	1471989643608	 	32
5353	56976	But the Chiefs might depend on the run, so his numbers may be limited.	But the Chiefts might depend on the run, so hid numbers may be limited.	2711435	1471989643712	1471989643824	m	77
5353	56976	But the Chiefs might depend on the run, so his numbers may be limited.	But the Chiefts might depend on the run, so hid numbers may be limited.	2711440	1471989643800	1471989643992	a	65
5353	56976	But the Chiefs might depend on the run, so his numbers may be limited.	But the Chiefts might depend on the run, so hid numbers may be limited.	2711443	1471989643992	1471989644104	y	89
5353	56976	But the Chiefs might depend on the run, so his numbers may be limited.	But the Chiefts might depend on the run, so hid numbers may be limited.	2711517	1471989644224	1471989644280	 	32
5353	56976	But the Chiefs might depend on the run, so his numbers may be limited.	But the Chiefts might depend on the run, so hid numbers may be limited.	2711518	1471989644624	1471989644736	b	66
5353	56976	But the Chiefs might depend on the run, so his numbers may be limited.	But the Chiefts might depend on the run, so hid numbers may be limited.	2711519	1471989644736	1471989644848	e	69
5353	56976	But the Chiefs might depend on the run, so his numbers may be limited.	But the Chiefts might depend on the run, so hid numbers may be limited.	2711520	1471989644840	1471989644928	 	32
5353	56976	But the Chiefs might depend on the run, so his numbers may be limited.	But the Chiefts might depend on the run, so hid numbers may be limited.	2711521	1471989645032	1471989645128	BKSP	8
5353	56976	But the Chiefs might depend on the run, so his numbers may be limited.	But the Chiefts might depend on the run, so hid numbers may be limited.	2711523	1471989645240	1471989645312	 	32
5353	56976	But the Chiefs might depend on the run, so his numbers may be limited.	But the Chiefts might depend on the run, so hid numbers may be limited.	2711669	1471989645360	1471989645504	l	76
5353	56976	But the Chiefs might depend on the run, so his numbers may be limited.	But the Chiefts might depend on the run, so hid numbers may be limited.	2711672	1471989645528	1471989645648	i	73
5353	56976	But the Chiefs might depend on the run, so his numbers may be limited.	But the Chiefts might depend on the run, so hid numbers may be limited.	2711677	1471989645752	1471989645872	m	77
5353	56976	But the Chiefs might depend on the run, so his numbers may be limited.	But the Chiefts might depend on the run, so hid numbers may be limited.	2711679	1471989646584	1471989646680	i	73
5353	56976	But the Chiefs might depend on the run, so his numbers may be limited.	But the Chiefts might depend on the run, so hid numbers may be limited.	2711682	1471989646792	1471989646936	t	84
5353	56976	But the Chiefs might depend on the run, so his numbers may be limited.	But the Chiefts might depend on the run, so hid numbers may be limited.	2711893	1471989647008	1471989647184	e	69
5353	56976	But the Chiefs might depend on the run, so his numbers may be limited.	But the Chiefts might depend on the run, so hid numbers may be limited.	2711897	1471989647248	1471989647378	d	68
5353	56976	But the Chiefs might depend on the run, so his numbers may be limited.	But the Chiefts might depend on the run, so hid numbers may be limited.	2711903	1471989647784	1471989647864	/	191
5353	56976	But the Chiefs might depend on the run, so his numbers may be limited.	But the Chiefts might depend on the run, so hid numbers may be limited.	2711910	1471989648304	1471989648384	BKSP	8
5353	56976	But the Chiefs might depend on the run, so his numbers may be limited.	But the Chiefts might depend on the run, so hid numbers may be limited.	2711913	1471989648768	1471989648832	.	190
5353	57004	Add a Star Trek convention and sports memorabilia show to the mix.	Add a Star Trek convention and sports memorabilia show to the mix.	2712108	1471989650976	1471989651120	CAPS_LOCK	20
5353	57004	Add a Star Trek convention and sports memorabilia show to the mix.	Add a Star Trek convention and sports memorabilia show to the mix.	2712109	1471989651240	1471989651344	A	65
5353	57004	Add a Star Trek convention and sports memorabilia show to the mix.	Add a Star Trek convention and sports memorabilia show to the mix.	2712111	1471989651488	1471989651615	CAPS_LOCK	20
5353	57004	Add a Star Trek convention and sports memorabilia show to the mix.	Add a Star Trek convention and sports memorabilia show to the mix.	2712113	1471989652200	1471989652271	d	68
5353	57004	Add a Star Trek convention and sports memorabilia show to the mix.	Add a Star Trek convention and sports memorabilia show to the mix.	2712115	1471989652367	1471989652479	d	68
5353	57004	Add a Star Trek convention and sports memorabilia show to the mix.	Add a Star Trek convention and sports memorabilia show to the mix.	2712119	1471989652527	1471989652623	 	32
5353	57004	Add a Star Trek convention and sports memorabilia show to the mix.	Add a Star Trek convention and sports memorabilia show to the mix.	2712123	1471989652624	1471989652775	a	65
5353	57004	Add a Star Trek convention and sports memorabilia show to the mix.	Add a Star Trek convention and sports memorabilia show to the mix.	2712221	1471989652744	1471989652839	 	32
5353	57004	Add a Star Trek convention and sports memorabilia show to the mix.	Add a Star Trek convention and sports memorabilia show to the mix.	2712225	1471989653127	1471989653263	CAPS_LOCK	20
5353	57004	Add a Star Trek convention and sports memorabilia show to the mix.	Add a Star Trek convention and sports memorabilia show to the mix.	2712231	1471989653431	1471989653519	S	83
5353	57004	Add a Star Trek convention and sports memorabilia show to the mix.	Add a Star Trek convention and sports memorabilia show to the mix.	2712238	1471989653623	1471989653759	CAPS_LOCK	20
5353	57004	Add a Star Trek convention and sports memorabilia show to the mix.	Add a Star Trek convention and sports memorabilia show to the mix.	2712242	1471989653863	1471989653959	t	84
5353	57004	Add a Star Trek convention and sports memorabilia show to the mix.	Add a Star Trek convention and sports memorabilia show to the mix.	2712247	1471989654055	1471989654263	a	65
5353	57004	Add a Star Trek convention and sports memorabilia show to the mix.	Add a Star Trek convention and sports memorabilia show to the mix.	2712254	1471989654224	1471989654351	r	82
5353	57004	Add a Star Trek convention and sports memorabilia show to the mix.	Add a Star Trek convention and sports memorabilia show to the mix.	2712261	1471989654391	1471989654511	 	32
5353	57004	Add a Star Trek convention and sports memorabilia show to the mix.	Add a Star Trek convention and sports memorabilia show to the mix.	2712338	1471989654513	1471989654671	CAPS_LOCK	20
5353	57004	Add a Star Trek convention and sports memorabilia show to the mix.	Add a Star Trek convention and sports memorabilia show to the mix.	2712346	1471989654711	1471989654831	T	84
5353	57004	Add a Star Trek convention and sports memorabilia show to the mix.	Add a Star Trek convention and sports memorabilia show to the mix.	2712352	1471989654879	1471989655095	CAPS_LOCK	20
5353	57004	Add a Star Trek convention and sports memorabilia show to the mix.	Add a Star Trek convention and sports memorabilia show to the mix.	2712354	1471989655096	1471989655295	r	82
5353	57004	Add a Star Trek convention and sports memorabilia show to the mix.	Add a Star Trek convention and sports memorabilia show to the mix.	2712360	1471989655247	1471989655399	e	69
5353	57004	Add a Star Trek convention and sports memorabilia show to the mix.	Add a Star Trek convention and sports memorabilia show to the mix.	2712371	1471989655535	1471989655655	k	75
5353	57004	Add a Star Trek convention and sports memorabilia show to the mix.	Add a Star Trek convention and sports memorabilia show to the mix.	2712377	1471989655719	1471989655879	 	32
5353	57004	Add a Star Trek convention and sports memorabilia show to the mix.	Add a Star Trek convention and sports memorabilia show to the mix.	2712481	1471989656007	1471989656111	c	67
5353	57004	Add a Star Trek convention and sports memorabilia show to the mix.	Add a Star Trek convention and sports memorabilia show to the mix.	2712483	1471989656607	1471989656751	o	79
5353	57004	Add a Star Trek convention and sports memorabilia show to the mix.	Add a Star Trek convention and sports memorabilia show to the mix.	2712487	1471989656727	1471989656855	n	78
5353	57004	Add a Star Trek convention and sports memorabilia show to the mix.	Add a Star Trek convention and sports memorabilia show to the mix.	2712492	1471989657199	1471989657391	v	86
5353	57004	Add a Star Trek convention and sports memorabilia show to the mix.	Add a Star Trek convention and sports memorabilia show to the mix.	2712546	1471989657359	1471989657543	e	69
5353	57004	Add a Star Trek convention and sports memorabilia show to the mix.	Add a Star Trek convention and sports memorabilia show to the mix.	2712552	1471989657503	1471989657639	n	78
5353	57004	Add a Star Trek convention and sports memorabilia show to the mix.	Add a Star Trek convention and sports memorabilia show to the mix.	2712560	1471989657591	1471989657751	t	84
5353	57004	Add a Star Trek convention and sports memorabilia show to the mix.	Add a Star Trek convention and sports memorabilia show to the mix.	2712566	1471989657735	1471989657991	i	73
5353	57004	Add a Star Trek convention and sports memorabilia show to the mix.	Add a Star Trek convention and sports memorabilia show to the mix.	2712572	1471989657871	1471989658031	o	79
5353	57004	Add a Star Trek convention and sports memorabilia show to the mix.	Add a Star Trek convention and sports memorabilia show to the mix.	2712627	1471989658015	1471989658103	n	78
5353	57004	Add a Star Trek convention and sports memorabilia show to the mix.	Add a Star Trek convention and sports memorabilia show to the mix.	2712631	1471989658207	1471989658319	 	32
5353	57004	Add a Star Trek convention and sports memorabilia show to the mix.	Add a Star Trek convention and sports memorabilia show to the mix.	2712634	1471989658431	1471989658607	a	65
5353	57004	Add a Star Trek convention and sports memorabilia show to the mix.	Add a Star Trek convention and sports memorabilia show to the mix.	2712636	1471989658535	1471989658631	n	78
5353	57004	Add a Star Trek convention and sports memorabilia show to the mix.	Add a Star Trek convention and sports memorabilia show to the mix.	2712638	1471989658647	1471989658751	d	68
5353	57004	Add a Star Trek convention and sports memorabilia show to the mix.	Add a Star Trek convention and sports memorabilia show to the mix.	2712640	1471989658767	1471989658847	 	32
5353	57004	Add a Star Trek convention and sports memorabilia show to the mix.	Add a Star Trek convention and sports memorabilia show to the mix.	2712688	1471989658903	1471989659047	s	83
5353	57004	Add a Star Trek convention and sports memorabilia show to the mix.	Add a Star Trek convention and sports memorabilia show to the mix.	2712693	1471989659271	1471989659439	p	80
5353	57004	Add a Star Trek convention and sports memorabilia show to the mix.	Add a Star Trek convention and sports memorabilia show to the mix.	2712697	1471989659399	1471989659639	o	79
5353	57004	Add a Star Trek convention and sports memorabilia show to the mix.	Add a Star Trek convention and sports memorabilia show to the mix.	2712701	1471989659519	1471989659639	r	82
5353	57004	Add a Star Trek convention and sports memorabilia show to the mix.	Add a Star Trek convention and sports memorabilia show to the mix.	2712706	1471989659727	1471989659839	t	84
5353	57004	Add a Star Trek convention and sports memorabilia show to the mix.	Add a Star Trek convention and sports memorabilia show to the mix.	2712804	1471989659903	1471989660047	s	83
5353	57004	Add a Star Trek convention and sports memorabilia show to the mix.	Add a Star Trek convention and sports memorabilia show to the mix.	2712807	1471989660023	1471989660127	 	32
5353	57004	Add a Star Trek convention and sports memorabilia show to the mix.	Add a Star Trek convention and sports memorabilia show to the mix.	2712811	1471989660263	1471989660335	BKSP	8
5353	57004	Add a Star Trek convention and sports memorabilia show to the mix.	Add a Star Trek convention and sports memorabilia show to the mix.	2712817	1471989660791	1471989660871	 	32
5353	57004	Add a Star Trek convention and sports memorabilia show to the mix.	Add a Star Trek convention and sports memorabilia show to the mix.	2712823	1471989660959	1471989661071	m	77
5353	57004	Add a Star Trek convention and sports memorabilia show to the mix.	Add a Star Trek convention and sports memorabilia show to the mix.	2712828	1471989661343	1471989661439	e	69
5353	57004	Add a Star Trek convention and sports memorabilia show to the mix.	Add a Star Trek convention and sports memorabilia show to the mix.	2712937	1471989661487	1471989661607	m	77
5353	57004	Add a Star Trek convention and sports memorabilia show to the mix.	Add a Star Trek convention and sports memorabilia show to the mix.	2712943	1471989661879	1471989661999	o	79
5353	57004	Add a Star Trek convention and sports memorabilia show to the mix.	Add a Star Trek convention and sports memorabilia show to the mix.	2712953	1471989662023	1471989662159	r	82
5353	57004	Add a Star Trek convention and sports memorabilia show to the mix.	Add a Star Trek convention and sports memorabilia show to the mix.	2712959	1471989662695	1471989662847	a	65
5353	57004	Add a Star Trek convention and sports memorabilia show to the mix.	Add a Star Trek convention and sports memorabilia show to the mix.	2712964	1471989662895	1471989663023	b	66
5353	57004	Add a Star Trek convention and sports memorabilia show to the mix.	Add a Star Trek convention and sports memorabilia show to the mix.	2713219	1471989663183	1471989663391	l	76
5353	57004	Add a Star Trek convention and sports memorabilia show to the mix.	Add a Star Trek convention and sports memorabilia show to the mix.	2713225	1471989663391	1471989663503	i	73
5353	57004	Add a Star Trek convention and sports memorabilia show to the mix.	Add a Star Trek convention and sports memorabilia show to the mix.	2713231	1471989664679	1471989664751	BKSP	8
5353	57004	Add a Star Trek convention and sports memorabilia show to the mix.	Add a Star Trek convention and sports memorabilia show to the mix.	2713240	1471989664839	1471989664943	BKSP	8
5353	57004	Add a Star Trek convention and sports memorabilia show to the mix.	Add a Star Trek convention and sports memorabilia show to the mix.	2713250	1471989665575	1471989665703	i	73
5353	57004	Add a Star Trek convention and sports memorabilia show to the mix.	Add a Star Trek convention and sports memorabilia show to the mix.	2713259	1471989665839	1471989666015	l	76
5353	57004	Add a Star Trek convention and sports memorabilia show to the mix.	Add a Star Trek convention and sports memorabilia show to the mix.	2713266	1471989666015	1471989666151	i	73
5353	57004	Add a Star Trek convention and sports memorabilia show to the mix.	Add a Star Trek convention and sports memorabilia show to the mix.	2713326	1471989666071	1471989666239	a	65
5353	57004	Add a Star Trek convention and sports memorabilia show to the mix.	Add a Star Trek convention and sports memorabilia show to the mix.	2713331	1471989666311	1471989666439	 	32
5353	57004	Add a Star Trek convention and sports memorabilia show to the mix.	Add a Star Trek convention and sports memorabilia show to the mix.	2713338	1471989666615	1471989666727	s	83
5353	57004	Add a Star Trek convention and sports memorabilia show to the mix.	Add a Star Trek convention and sports memorabilia show to the mix.	2713343	1471989666727	1471989666823	h	72
5353	57004	Add a Star Trek convention and sports memorabilia show to the mix.	Add a Star Trek convention and sports memorabilia show to the mix.	2713349	1471989666943	1471989667071	o	79
5353	57004	Add a Star Trek convention and sports memorabilia show to the mix.	Add a Star Trek convention and sports memorabilia show to the mix.	2713356	1471989667071	1471989667183	w	87
5353	57004	Add a Star Trek convention and sports memorabilia show to the mix.	Add a Star Trek convention and sports memorabilia show to the mix.	2713404	1471989667184	1471989667287	 	32
5353	57004	Add a Star Trek convention and sports memorabilia show to the mix.	Add a Star Trek convention and sports memorabilia show to the mix.	2713409	1471989667711	1471989667871	t	84
5353	57004	Add a Star Trek convention and sports memorabilia show to the mix.	Add a Star Trek convention and sports memorabilia show to the mix.	2713415	1471989667791	1471989667903	o	79
5353	57004	Add a Star Trek convention and sports memorabilia show to the mix.	Add a Star Trek convention and sports memorabilia show to the mix.	2713422	1471989667991	1471989668095	 	32
5353	57004	Add a Star Trek convention and sports memorabilia show to the mix.	Add a Star Trek convention and sports memorabilia show to the mix.	2713467	1471989668071	1471989668207	t	84
5353	57004	Add a Star Trek convention and sports memorabilia show to the mix.	Add a Star Trek convention and sports memorabilia show to the mix.	2713474	1471989668207	1471989668287	h	72
5353	57004	Add a Star Trek convention and sports memorabilia show to the mix.	Add a Star Trek convention and sports memorabilia show to the mix.	2713482	1471989668247	1471989668351	e	69
5353	57004	Add a Star Trek convention and sports memorabilia show to the mix.	Add a Star Trek convention and sports memorabilia show to the mix.	2713488	1471989668383	1471989668463	 	32
5353	57004	Add a Star Trek convention and sports memorabilia show to the mix.	Add a Star Trek convention and sports memorabilia show to the mix.	2713494	1471989668559	1471989668631	m	77
5353	57004	Add a Star Trek convention and sports memorabilia show to the mix.	Add a Star Trek convention and sports memorabilia show to the mix.	2713499	1471989668727	1471989668823	i	73
5353	57004	Add a Star Trek convention and sports memorabilia show to the mix.	Add a Star Trek convention and sports memorabilia show to the mix.	2713618	1471989669071	1471989669199	z	90
5353	57004	Add a Star Trek convention and sports memorabilia show to the mix.	Add a Star Trek convention and sports memorabilia show to the mix.	2713620	1471989669687	1471989669799	BKSP	8
5353	57004	Add a Star Trek convention and sports memorabilia show to the mix.	Add a Star Trek convention and sports memorabilia show to the mix.	2713622	1471989669799	1471989669911	x	88
5353	57004	Add a Star Trek convention and sports memorabilia show to the mix.	Add a Star Trek convention and sports memorabilia show to the mix.	2713627	1471989669983	1471989670063	.	190
5353	57040	Please make sure Bob Kelley is on the list.	Please make sure Bob Kelly is on the list.	2713874	1471989672351	1471989672519	CAPS_LOCK	20
5353	57040	Please make sure Bob Kelley is on the list.	Please make sure Bob Kelly is on the list.	2713878	1471989672871	1471989672983	P	80
5353	57040	Please make sure Bob Kelley is on the list.	Please make sure Bob Kelly is on the list.	2713881	1471989672959	1471989673071	CAPS_LOCK	20
5353	57040	Please make sure Bob Kelley is on the list.	Please make sure Bob Kelly is on the list.	2713885	1471989673111	1471989673183	l	76
5353	57040	Please make sure Bob Kelley is on the list.	Please make sure Bob Kelly is on the list.	2713891	1471989673223	1471989673351	e	69
5353	57040	Please make sure Bob Kelley is on the list.	Please make sure Bob Kelly is on the list.	2713896	1471989673487	1471989673647	a	65
5353	57040	Please make sure Bob Kelley is on the list.	Please make sure Bob Kelly is on the list.	2713902	1471989674007	1471989674167	s	83
5353	57040	Please make sure Bob Kelley is on the list.	Please make sure Bob Kelly is on the list.	2713945	1471989674168	1471989674295	e	69
5353	57040	Please make sure Bob Kelley is on the list.	Please make sure Bob Kelly is on the list.	2713950	1471989674295	1471989674399	 	32
5353	57040	Please make sure Bob Kelley is on the list.	Please make sure Bob Kelly is on the list.	2713954	1471989674462	1471989674559	m	77
5353	57040	Please make sure Bob Kelley is on the list.	Please make sure Bob Kelly is on the list.	2713957	1471989674535	1471989674670	a	65
5353	57040	Please make sure Bob Kelley is on the list.	Please make sure Bob Kelly is on the list.	2713961	1471989674702	1471989674798	k	75
5353	57040	Please make sure Bob Kelley is on the list.	Please make sure Bob Kelly is on the list.	2714060	1471989674783	1471989674895	e	69
5353	57040	Please make sure Bob Kelley is on the list.	Please make sure Bob Kelly is on the list.	2714067	1471989674926	1471989675030	 	32
5353	57040	Please make sure Bob Kelley is on the list.	Please make sure Bob Kelly is on the list.	2714074	1471989675031	1471989675175	s	83
5353	57040	Please make sure Bob Kelley is on the list.	Please make sure Bob Kelly is on the list.	2714081	1471989675222	1471989675407	u	85
5353	57040	Please make sure Bob Kelley is on the list.	Please make sure Bob Kelly is on the list.	2714087	1471989675335	1471989675422	r	82
5353	57040	Please make sure Bob Kelley is on the list.	Please make sure Bob Kelly is on the list.	2714093	1471989676294	1471989676406	e	69
5353	57040	Please make sure Bob Kelley is on the list.	Please make sure Bob Kelly is on the list.	2714167	1471989676518	1471989676614	 	32
5353	57040	Please make sure Bob Kelley is on the list.	Please make sure Bob Kelly is on the list.	2714170	1471989676646	1471989676774	CAPS_LOCK	20
5353	57040	Please make sure Bob Kelley is on the list.	Please make sure Bob Kelly is on the list.	2714175	1471989676798	1471989676902	B	66
5353	57040	Please make sure Bob Kelley is on the list.	Please make sure Bob Kelly is on the list.	2714178	1471989676903	1471989677006	CAPS_LOCK	20
5353	57040	Please make sure Bob Kelley is on the list.	Please make sure Bob Kelly is on the list.	2714182	1471989677486	1471989677590	o	79
5353	57040	Please make sure Bob Kelley is on the list.	Please make sure Bob Kelly is on the list.	2714185	1471989677591	1471989677694	d	68
5353	57040	Please make sure Bob Kelley is on the list.	Please make sure Bob Kelly is on the list.	2714188	1471989677766	1471989677854	 	32
5353	57040	Please make sure Bob Kelley is on the list.	Please make sure Bob Kelly is on the list.	2714299	1471989677990	1471989678046	BKSP	8
5353	57040	Please make sure Bob Kelley is on the list.	Please make sure Bob Kelly is on the list.	2714302	1471989678126	1471989678222	BKSP	8
5353	57040	Please make sure Bob Kelley is on the list.	Please make sure Bob Kelly is on the list.	2714307	1471989678822	1471989678894	b	66
5353	57040	Please make sure Bob Kelley is on the list.	Please make sure Bob Kelly is on the list.	2714310	1471989679014	1471989679118	 	32
5353	57040	Please make sure Bob Kelley is on the list.	Please make sure Bob Kelly is on the list.	2714312	1471989679119	1471989679230	CAPS_LOCK	20
5353	57040	Please make sure Bob Kelley is on the list.	Please make sure Bob Kelly is on the list.	2714314	1471989679278	1471989679422	K	75
5353	57040	Please make sure Bob Kelley is on the list.	Please make sure Bob Kelly is on the list.	2714315	1471989679423	1471989679574	CAPS_LOCK	20
5353	57040	Please make sure Bob Kelley is on the list.	Please make sure Bob Kelly is on the list.	2714316	1471989679718	1471989679886	e	69
5353	57040	Please make sure Bob Kelley is on the list.	Please make sure Bob Kelly is on the list.	2714317	1471989679934	1471989679958	l	76
5353	57040	Please make sure Bob Kelley is on the list.	Please make sure Bob Kelly is on the list.	2714427	1471989680038	1471989680158	l	76
5353	57040	Please make sure Bob Kelley is on the list.	Please make sure Bob Kelly is on the list.	2714429	1471989680638	1471989680782	u	85
5353	57040	Please make sure Bob Kelley is on the list.	Please make sure Bob Kelly is on the list.	2714431	1471989680806	1471989680902	 	32
5353	57040	Please make sure Bob Kelley is on the list.	Please make sure Bob Kelly is on the list.	2714433	1471989681022	1471989681094	BKSP	8
5353	57040	Please make sure Bob Kelley is on the list.	Please make sure Bob Kelly is on the list.	2714436	1471989681334	1471989681422	BKSP	8
5353	57040	Please make sure Bob Kelley is on the list.	Please make sure Bob Kelly is on the list.	2714438	1471989681646	1471989681726	y	89
5353	57040	Please make sure Bob Kelley is on the list.	Please make sure Bob Kelly is on the list.	2714440	1471989681854	1471989681934	 	32
5353	57040	Please make sure Bob Kelley is on the list.	Please make sure Bob Kelly is on the list.	2714460	1471989681990	1471989682150	i	73
5353	57040	Please make sure Bob Kelley is on the list.	Please make sure Bob Kelly is on the list.	2714464	1471989682126	1471989682230	s	83
5353	57040	Please make sure Bob Kelley is on the list.	Please make sure Bob Kelly is on the list.	2714468	1471989682246	1471989682350	 	32
5353	57040	Please make sure Bob Kelley is on the list.	Please make sure Bob Kelly is on the list.	2714472	1471989682422	1471989682583	o	79
5353	57040	Please make sure Bob Kelley is on the list.	Please make sure Bob Kelly is on the list.	2714504	1471989682542	1471989682654	n	78
5353	57040	Please make sure Bob Kelley is on the list.	Please make sure Bob Kelly is on the list.	2714509	1471989682750	1471989682854	 	32
5353	57040	Please make sure Bob Kelley is on the list.	Please make sure Bob Kelly is on the list.	2714515	1471989682855	1471989682974	t	84
5353	57040	Please make sure Bob Kelley is on the list.	Please make sure Bob Kelly is on the list.	2714521	1471989682974	1471989683054	h	72
5353	57040	Please make sure Bob Kelley is on the list.	Please make sure Bob Kelly is on the list.	2714526	1471989683086	1471989683198	e	69
5353	57040	Please make sure Bob Kelley is on the list.	Please make sure Bob Kelly is on the list.	2714577	1471989683158	1471989683254	 	32
5353	57040	Please make sure Bob Kelley is on the list.	Please make sure Bob Kelly is on the list.	2714583	1471989683326	1471989683486	l	76
5353	57040	Please make sure Bob Kelley is on the list.	Please make sure Bob Kelly is on the list.	2714590	1471989683462	1471989683598	i	73
5353	57040	Please make sure Bob Kelley is on the list.	Please make sure Bob Kelly is on the list.	2714594	1471989683566	1471989683750	s	83
5353	57040	Please make sure Bob Kelley is on the list.	Please make sure Bob Kelly is on the list.	2714598	1471989683718	1471989683830	t	84
5353	57040	Please make sure Bob Kelley is on the list.	Please make sure Bob Kelly is on the list.	2714606	1471989684070	1471989684134	/	92
5353	57040	Please make sure Bob Kelley is on the list.	Please make sure Bob Kelly is on the list.	2714707	1471989684518	1471989684606	BKSP	8
5353	57040	Please make sure Bob Kelley is on the list.	Please make sure Bob Kelly is on the list.	2714713	1471989685230	1471989685294	.	190
5353	57066	Please coordinate with him.	Please coordinate with him.	2715096	1471989689822	1471989689974	CAPS_LOCK	20
5353	57066	Please coordinate with him.	Please coordinate with him.	2715101	1471989690126	1471989690302	P	80
5353	57066	Please coordinate with him.	Please coordinate with him.	2715107	1471989690254	1471989690406	CAPS_LOCK	20
5353	57066	Please coordinate with him.	Please coordinate with him.	2715113	1471989690406	1471989690566	l	76
5353	57066	Please coordinate with him.	Please coordinate with him.	2715117	1471989690510	1471989690654	e	69
5353	57066	Please coordinate with him.	Please coordinate with him.	2715121	1471989690694	1471989690982	a	65
5353	57066	Please coordinate with him.	Please coordinate with him.	2715198	1471989690918	1471989691126	d	68
5353	57066	Please coordinate with him.	Please coordinate with him.	2715201	1471989691078	1471989691190	e	69
5353	57066	Please coordinate with him.	Please coordinate with him.	2715205	1471989691262	1471989691374	 	32
5353	57066	Please coordinate with him.	Please coordinate with him.	2715213	1471989691622	1471989691710	BKSP	8
5353	57066	Please coordinate with him.	Please coordinate with him.	2715216	1471989691830	1471989691886	BKSP	8
5353	57066	Please coordinate with him.	Please coordinate with him.	2715218	1471989691982	1471989692086	BKSP	8
5353	57066	Please coordinate with him.	Please coordinate with him.	2715225	1471989692086	1471989692222	s	83
5353	57066	Please coordinate with him.	Please coordinate with him.	2715231	1471989692238	1471989692358	e	69
5353	57066	Please coordinate with him.	Please coordinate with him.	2715235	1471989692358	1471989692478	 	32
5353	57066	Please coordinate with him.	Please coordinate with him.	2715344	1471989692686	1471989692838	c	67
5353	57066	Please coordinate with him.	Please coordinate with him.	2715346	1471989693446	1471989693526	o	79
5353	57066	Please coordinate with him.	Please coordinate with him.	2715351	1471989693630	1471989693726	o	79
5353	57066	Please coordinate with him.	Please coordinate with him.	2715354	1471989693734	1471989693878	r	82
5353	57066	Please coordinate with him.	Please coordinate with him.	2715358	1471989694310	1471989694422	d	68
5353	57066	Please coordinate with him.	Please coordinate with him.	2715426	1471989694390	1471989694566	i	73
5353	57066	Please coordinate with him.	Please coordinate with him.	2715430	1471989694510	1471989694670	n	78
5353	57066	Please coordinate with him.	Please coordinate with him.	2715437	1471989694670	1471989694862	a	65
5353	57066	Please coordinate with him.	Please coordinate with him.	2715440	1471989694862	1471989695022	t	84
5353	57066	Please coordinate with him.	Please coordinate with him.	2715443	1471989694990	1471989695134	e	69
5353	57066	Please coordinate with him.	Please coordinate with him.	2715446	1471989695158	1471989695286	 	32
5353	57066	Please coordinate with him.	Please coordinate with him.	2715479	1471989695318	1471989695462	w	87
5353	57066	Please coordinate with him.	Please coordinate with him.	2715484	1471989695446	1471989695582	i	73
5353	57066	Please coordinate with him.	Please coordinate with him.	2715491	1471989695566	1471989695686	t	84
5353	57066	Please coordinate with him.	Please coordinate with him.	2715500	1471989695670	1471989695790	h	72
5353	57066	Please coordinate with him.	Please coordinate with him.	2715506	1471989695854	1471989695950	 	32
5353	57066	Please coordinate with him.	Please coordinate with him.	2715620	1471989696013	1471989696102	h	72
5353	57066	Please coordinate with him.	Please coordinate with him.	2715625	1471989696214	1471989696270	i	73
5353	57066	Please coordinate with him.	Please coordinate with him.	2715629	1471989696678	1471989696742	m	77
5353	57066	Please coordinate with him.	Please coordinate with him.	2715634	1471989696990	1471989697070	.	190
5353	57084	Yes, I am playing.	Yes, I am playing.	2715831	1471989700102	1471989700245	CAPS_LOCK	20
5353	57084	Yes, I am playing.	Yes, I am playing.	2715833	1471989700533	1471989700637	Y	89
5353	57084	Yes, I am playing.	Yes, I am playing.	2715835	1471989700709	1471989700853	CAPS_LOCK	20
5353	57084	Yes, I am playing.	Yes, I am playing.	2715839	1471989700997	1471989701085	e	69
5353	57084	Yes, I am playing.	Yes, I am playing.	2715844	1471989701221	1471989701341	s	83
5353	57084	Yes, I am playing.	Yes, I am playing.	2715852	1471989701342	1471989701437	m	77
5353	57084	Yes, I am playing.	Yes, I am playing.	2715861	1471989701597	1471989701693	,	188
5353	57084	Yes, I am playing.	Yes, I am playing.	2715969	1471989701837	1471989701933	 	32
5353	57084	Yes, I am playing.	Yes, I am playing.	2715973	1471989701901	1471989702021	CAPS_LOCK	20
5353	57084	Yes, I am playing.	Yes, I am playing.	2715977	1471989702061	1471989702189	I	73
5353	57084	Yes, I am playing.	Yes, I am playing.	2715980	1471989702149	1471989702325	CAPS_LOCK	20
5353	57084	Yes, I am playing.	Yes, I am playing.	2715984	1471989702453	1471989702525	BKSP	8
5353	57084	Yes, I am playing.	Yes, I am playing.	2715988	1471989702589	1471989702653	BKSP	8
5353	57084	Yes, I am playing.	Yes, I am playing.	2715990	1471989702741	1471989702805	BKSP	8
5353	57084	Yes, I am playing.	Yes, I am playing.	2715992	1471989702885	1471989703005	BKSP	8
5353	57084	Yes, I am playing.	Yes, I am playing.	2715994	1471989703381	1471989703469	,	188
5353	57084	Yes, I am playing.	Yes, I am playing.	2715997	1471989703589	1471989703701	 	32
5353	57084	Yes, I am playing.	Yes, I am playing.	2716001	1471989703653	1471989703789	CAPS_LOCK	20
5353	57084	Yes, I am playing.	Yes, I am playing.	2716008	1471989703805	1471989703941	I	73
5353	57084	Yes, I am playing.	Yes, I am playing.	2716043	1471989703943	1471989704053	CAPS_LOCK	20
5353	57084	Yes, I am playing.	Yes, I am playing.	2716044	1471989704101	1471989704197	 	32
5353	57084	Yes, I am playing.	Yes, I am playing.	2716045	1471989704301	1471989704453	a	65
5353	57084	Yes, I am playing.	Yes, I am playing.	2716049	1471989704413	1471989704501	m	77
5353	57084	Yes, I am playing.	Yes, I am playing.	2716052	1471989704581	1471989704677	 	32
5353	57084	Yes, I am playing.	Yes, I am playing.	2716055	1471989704877	1471989705013	p	80
5353	57084	Yes, I am playing.	Yes, I am playing.	2716084	1471989705045	1471989705181	l	76
5353	57084	Yes, I am playing.	Yes, I am playing.	2716086	1471989705181	1471989705312	a	65
5353	57084	Yes, I am playing.	Yes, I am playing.	2716089	1471989705333	1471989705485	y	89
5353	57084	Yes, I am playing.	Yes, I am playing.	2716094	1471989705517	1471989705725	i	73
5353	57084	Yes, I am playing.	Yes, I am playing.	2716136	1471989705661	1471989705797	n	78
5353	57084	Yes, I am playing.	Yes, I am playing.	2716140	1471989705797	1471989705893	g	71
5353	57084	Yes, I am playing.	Yes, I am playing.	2716142	1471989705949	1471989706053	.	190
5353	57093	Drop him if he was on your Fantasy roster.	Drop him if he was on your Fantasy roster.	2716436	1471989708925	1471989709053	CAPS_LOCK	20
5353	57093	Drop him if he was on your Fantasy roster.	Drop him if he was on your Fantasy roster.	2716439	1471989709229	1471989709341	D	68
5353	57093	Drop him if he was on your Fantasy roster.	Drop him if he was on your Fantasy roster.	2716449	1471989709381	1471989709565	CAPS_LOCK	20
5353	57093	Drop him if he was on your Fantasy roster.	Drop him if he was on your Fantasy roster.	2716457	1471989709645	1471989709765	r	82
5353	57093	Drop him if he was on your Fantasy roster.	Drop him if he was on your Fantasy roster.	2716465	1471989709749	1471989709909	o	79
5353	57093	Drop him if he was on your Fantasy roster.	Drop him if he was on your Fantasy roster.	2716471	1471989709861	1471989710021	p	80
5353	57093	Drop him if he was on your Fantasy roster.	Drop him if he was on your Fantasy roster.	2716474	1471989710869	1471989710957	 	32
5353	57093	Drop him if he was on your Fantasy roster.	Drop him if he was on your Fantasy roster.	2716574	1471989711309	1471989711365	h	72
5353	57093	Drop him if he was on your Fantasy roster.	Drop him if he was on your Fantasy roster.	2716578	1471989711501	1471989711565	i	73
5353	57093	Drop him if he was on your Fantasy roster.	Drop him if he was on your Fantasy roster.	2716582	1471989711725	1471989711797	 	32
5353	57093	Drop him if he was on your Fantasy roster.	Drop him if he was on your Fantasy roster.	2716586	1471989711917	1471989712005	 	32
5353	57093	Drop him if he was on your Fantasy roster.	Drop him if he was on your Fantasy roster.	2716591	1471989712869	1471989712933	i	73
5353	57093	Drop him if he was on your Fantasy roster.	Drop him if he was on your Fantasy roster.	2716725	1471989712917	1471989713045	f	70
5353	57093	Drop him if he was on your Fantasy roster.	Drop him if he was on your Fantasy roster.	2716728	1471989713653	1471989713789	BKSP	8
5353	57093	Drop him if he was on your Fantasy roster.	Drop him if he was on your Fantasy roster.	2716733	1471989713877	1471989713957	BKSP	8
5353	57093	Drop him if he was on your Fantasy roster.	Drop him if he was on your Fantasy roster.	2716735	1471989714037	1471989714117	BKSP	8
5353	57093	Drop him if he was on your Fantasy roster.	Drop him if he was on your Fantasy roster.	2716739	1471989714197	1471989714317	BKSP	8
5353	57093	Drop him if he was on your Fantasy roster.	Drop him if he was on your Fantasy roster.	2716741	1471989714813	1471989714877	m	77
5353	57093	Drop him if he was on your Fantasy roster.	Drop him if he was on your Fantasy roster.	2716744	1471989714965	1471989715053	 	32
5353	57093	Drop him if he was on your Fantasy roster.	Drop him if he was on your Fantasy roster.	2716746	1471989715149	1471989715253	i	73
5353	57093	Drop him if he was on your Fantasy roster.	Drop him if he was on your Fantasy roster.	2716750	1471989715229	1471989715405	f	70
5353	57093	Drop him if he was on your Fantasy roster.	Drop him if he was on your Fantasy roster.	2716753	1471989715405	1471989715485	 	32
5353	57093	Drop him if he was on your Fantasy roster.	Drop him if he was on your Fantasy roster.	2716811	1471989715565	1471989715685	h	72
5353	57093	Drop him if he was on your Fantasy roster.	Drop him if he was on your Fantasy roster.	2716815	1471989715645	1471989715781	e	69
5353	57093	Drop him if he was on your Fantasy roster.	Drop him if he was on your Fantasy roster.	2716820	1471989715805	1471989715949	 	32
5353	57093	Drop him if he was on your Fantasy roster.	Drop him if he was on your Fantasy roster.	2716822	1471989716285	1471989716389	w	87
5353	57093	Drop him if he was on your Fantasy roster.	Drop him if he was on your Fantasy roster.	2716826	1471989716509	1471989716685	a	65
5353	57093	Drop him if he was on your Fantasy roster.	Drop him if he was on your Fantasy roster.	2716858	1471989716629	1471989716789	s	83
5353	57093	Drop him if he was on your Fantasy roster.	Drop him if he was on your Fantasy roster.	2716860	1471989716773	1471989716893	 	32
5353	57093	Drop him if he was on your Fantasy roster.	Drop him if he was on your Fantasy roster.	2716864	1471989716941	1471989717101	o	79
5353	57093	Drop him if he was on your Fantasy roster.	Drop him if he was on your Fantasy roster.	2716866	1471989717045	1471989717149	n	78
5353	57093	Drop him if he was on your Fantasy roster.	Drop him if he was on your Fantasy roster.	2716868	1471989717261	1471989717397	 	32
5353	57093	Drop him if he was on your Fantasy roster.	Drop him if he was on your Fantasy roster.	2716915	1471989717365	1471989717525	y	89
5353	57093	Drop him if he was on your Fantasy roster.	Drop him if he was on your Fantasy roster.	2716919	1471989717525	1471989717717	o	79
5353	57093	Drop him if he was on your Fantasy roster.	Drop him if he was on your Fantasy roster.	2716923	1471989717645	1471989717781	u	85
5353	57093	Drop him if he was on your Fantasy roster.	Drop him if he was on your Fantasy roster.	2716928	1471989717757	1471989717949	r	82
5353	57093	Drop him if he was on your Fantasy roster.	Drop him if he was on your Fantasy roster.	2716931	1471989717924	1471989718029	 	32
5353	57093	Drop him if he was on your Fantasy roster.	Drop him if he was on your Fantasy roster.	2716935	1471989718165	1471989718261	BKSP	8
5353	57093	Drop him if he was on your Fantasy roster.	Drop him if he was on your Fantasy roster.	2716940	1471989718381	1471989718493	 	32
5353	57093	Drop him if he was on your Fantasy roster.	Drop him if he was on your Fantasy roster.	2717018	1471989718494	1471989718653	CAPS_LOCK	20
5353	57093	Drop him if he was on your Fantasy roster.	Drop him if he was on your Fantasy roster.	2717019	1471989718677	1471989718821	F	70
5353	57093	Drop him if he was on your Fantasy roster.	Drop him if he was on your Fantasy roster.	2717020	1471989718797	1471989718949	CAPS_LOCK	20
5353	57093	Drop him if he was on your Fantasy roster.	Drop him if he was on your Fantasy roster.	2717021	1471989719077	1471989719188	a	65
5353	57093	Drop him if he was on your Fantasy roster.	Drop him if he was on your Fantasy roster.	2717022	1471989719477	1471989719573	n	78
5353	57093	Drop him if he was on your Fantasy roster.	Drop him if he was on your Fantasy roster.	2717023	1471989719765	1471989719917	t	84
5353	57093	Drop him if he was on your Fantasy roster.	Drop him if he was on your Fantasy roster.	2717024	1471989720036	1471989720172	a	65
5353	57093	Drop him if he was on your Fantasy roster.	Drop him if he was on your Fantasy roster.	2717143	1471989720325	1471989720477	s	83
5353	57093	Drop him if he was on your Fantasy roster.	Drop him if he was on your Fantasy roster.	2717146	1471989720508	1471989720668	y	89
5353	57093	Drop him if he was on your Fantasy roster.	Drop him if he was on your Fantasy roster.	2717150	1471989721173	1471989721260	 	32
5353	57093	Drop him if he was on your Fantasy roster.	Drop him if he was on your Fantasy roster.	2717152	1471989721268	1471989721428	CAPS_LOCK	20
5353	57093	Drop him if he was on your Fantasy roster.	Drop him if he was on your Fantasy roster.	2717156	1471989721820	1471989721956	R	82
5353	57093	Drop him if he was on your Fantasy roster.	Drop him if he was on your Fantasy roster.	2717158	1471989722028	1471989722204	CAPS_LOCK	20
5353	57093	Drop him if he was on your Fantasy roster.	Drop him if he was on your Fantasy roster.	2717161	1471989722244	1471989722324	BKSP	8
5353	57093	Drop him if he was on your Fantasy roster.	Drop him if he was on your Fantasy roster.	2717164	1471989722420	1471989722516	BKSP	8
5353	57093	Drop him if he was on your Fantasy roster.	Drop him if he was on your Fantasy roster.	2717168	1471989722708	1471989722812	 	32
5353	57093	Drop him if he was on your Fantasy roster.	Drop him if he was on your Fantasy roster.	2717182	1471989722796	1471989722940	r	82
5353	57093	Drop him if he was on your Fantasy roster.	Drop him if he was on your Fantasy roster.	2717186	1471989722941	1471989723124	o	79
5353	57093	Drop him if he was on your Fantasy roster.	Drop him if he was on your Fantasy roster.	2717190	1471989723052	1471989723220	s	83
5353	57093	Drop him if he was on your Fantasy roster.	Drop him if he was on your Fantasy roster.	2717197	1471989723268	1471989723436	t	84
5353	57093	Drop him if he was on your Fantasy roster.	Drop him if he was on your Fantasy roster.	2717203	1471989723404	1471989723660	e	69
5353	57093	Drop him if he was on your Fantasy roster.	Drop him if he was on your Fantasy roster.	2717272	1471989723620	1471989723796	r	82
5353	57093	Drop him if he was on your Fantasy roster.	Drop him if he was on your Fantasy roster.	2717274	1471989724396	1471989724476	.	190
5353	57093	Drop him if he was on your Fantasy roster.	Drop him if he was on your Fantasy roster.	2717276	1471989724716	1471989724788	SHIFT	16
5353	57122	I have a touch of food poisoning this morning but I may be in later.	I have a touch of food poisoning this morning but I may be in later.	2717480	1471989727372	1471989727508	CAPS_LOCK	20
5353	57122	I have a touch of food poisoning this morning but I may be in later.	I have a touch of food poisoning this morning but I may be in later.	2717484	1471989727556	1471989727652	I	73
5353	57122	I have a touch of food poisoning this morning but I may be in later.	I have a touch of food poisoning this morning but I may be in later.	2717488	1471989727653	1471989727788	CAPS_LOCK	20
5353	57122	I have a touch of food poisoning this morning but I may be in later.	I have a touch of food poisoning this morning but I may be in later.	2717494	1471989727772	1471989727860	 	32
5353	57122	I have a touch of food poisoning this morning but I may be in later.	I have a touch of food poisoning this morning but I may be in later.	2717499	1471989728020	1471989728060	a	72
5353	57122	I have a touch of food poisoning this morning but I may be in later.	I have a touch of food poisoning this morning but I may be in later.	2717504	1471989728748	1471989728844	v	86
5353	57122	I have a touch of food poisoning this morning but I may be in later.	I have a touch of food poisoning this morning but I may be in later.	2717559	1471989728820	1471989728916	e	69
5353	57122	I have a touch of food poisoning this morning but I may be in later.	I have a touch of food poisoning this morning but I may be in later.	2717563	1471989728972	1471989729052	 	32
5353	57122	I have a touch of food poisoning this morning but I may be in later.	I have a touch of food poisoning this morning but I may be in later.	2717569	1471989729028	1471989729196	a	65
5353	57122	I have a touch of food poisoning this morning but I may be in later.	I have a touch of food poisoning this morning but I may be in later.	2717576	1471989729172	1471989729300	 	32
5353	57122	I have a touch of food poisoning this morning but I may be in later.	I have a touch of food poisoning this morning but I may be in later.	2717579	1471989729468	1471989729604	t	84
5353	57122	I have a touch of food poisoning this morning but I may be in later.	I have a touch of food poisoning this morning but I may be in later.	2717582	1471989729628	1471989729876	o	79
5353	57122	I have a touch of food poisoning this morning but I may be in later.	I have a touch of food poisoning this morning but I may be in later.	2717616	1471989729804	1471989729900	u	85
5353	57122	I have a touch of food poisoning this morning but I may be in later.	I have a touch of food poisoning this morning but I may be in later.	2717618	1471989729878	1471989730036	c	67
5353	57122	I have a touch of food poisoning this morning but I may be in later.	I have a touch of food poisoning this morning but I may be in later.	2717622	1471989730044	1471989730172	h	72
5353	57122	I have a touch of food poisoning this morning but I may be in later.	I have a touch of food poisoning this morning but I may be in later.	2717626	1471989730252	1471989730364	 	32
5353	57122	I have a touch of food poisoning this morning but I may be in later.	I have a touch of food poisoning this morning but I may be in later.	2717628	1471989730404	1471989730556	o	79
5353	57122	I have a touch of food poisoning this morning but I may be in later.	I have a touch of food poisoning this morning but I may be in later.	2717696	1471989730540	1471989730676	f	70
5353	57122	I have a touch of food poisoning this morning but I may be in later.	I have a touch of food poisoning this morning but I may be in later.	2717698	1471989730692	1471989730828	 	32
5353	57122	I have a touch of food poisoning this morning but I may be in later.	I have a touch of food poisoning this morning but I may be in later.	2717700	1471989730900	1471989731060	g	71
5353	57122	I have a touch of food poisoning this morning but I may be in later.	I have a touch of food poisoning this morning but I may be in later.	2717703	1471989731260	1471989731316	BKSP	8
5353	57122	I have a touch of food poisoning this morning but I may be in later.	I have a touch of food poisoning this morning but I may be in later.	2717706	1471989731404	1471989731492	BKSP	8
5353	57122	I have a touch of food poisoning this morning but I may be in later.	I have a touch of food poisoning this morning but I may be in later.	2717710	1471989731620	1471989731740	 	32
5353	57122	I have a touch of food poisoning this morning but I may be in later.	I have a touch of food poisoning this morning but I may be in later.	2717715	1471989731804	1471989731940	f	70
5353	57122	I have a touch of food poisoning this morning but I may be in later.	I have a touch of food poisoning this morning but I may be in later.	2717720	1471989731940	1471989731996	o	79
5353	57122	I have a touch of food poisoning this morning but I may be in later.	I have a touch of food poisoning this morning but I may be in later.	2717741	1471989732076	1471989732164	o	79
5353	57122	I have a touch of food poisoning this morning but I may be in later.	I have a touch of food poisoning this morning but I may be in later.	2717748	1471989732164	1471989732292	d	68
5353	57122	I have a touch of food poisoning this morning but I may be in later.	I have a touch of food poisoning this morning but I may be in later.	2717754	1471989732292	1471989732380	 	32
5353	57122	I have a touch of food poisoning this morning but I may be in later.	I have a touch of food poisoning this morning but I may be in later.	2717758	1471989732468	1471989732644	p	80
5353	57122	I have a touch of food poisoning this morning but I may be in later.	I have a touch of food poisoning this morning but I may be in later.	2717919	1471989732588	1471989732772	o	79
5353	57122	I have a touch of food poisoning this morning but I may be in later.	I have a touch of food poisoning this morning but I may be in later.	2717924	1471989733582	1471989733692	i	73
5353	57122	I have a touch of food poisoning this morning but I may be in later.	I have a touch of food poisoning this morning but I may be in later.	2717929	1471989733692	1471989733828	s	83
5353	57122	I have a touch of food poisoning this morning but I may be in later.	I have a touch of food poisoning this morning but I may be in later.	2717936	1471989734436	1471989734556	o	79
5353	57122	I have a touch of food poisoning this morning but I may be in later.	I have a touch of food poisoning this morning but I may be in later.	2717942	1471989734636	1471989734796	n	78
5353	57122	I have a touch of food poisoning this morning but I may be in later.	I have a touch of food poisoning this morning but I may be in later.	2717945	1471989734884	1471989735052	i	73
5353	57122	I have a touch of food poisoning this morning but I may be in later.	I have a touch of food poisoning this morning but I may be in later.	2717988	1471989735053	1471989735172	n	78
5353	57122	I have a touch of food poisoning this morning but I may be in later.	I have a touch of food poisoning this morning but I may be in later.	2717993	1471989735220	1471989735356	g	71
5353	57122	I have a touch of food poisoning this morning but I may be in later.	I have a touch of food poisoning this morning but I may be in later.	2717999	1471989735340	1471989735444	 	32
5353	57122	I have a touch of food poisoning this morning but I may be in later.	I have a touch of food poisoning this morning but I may be in later.	2718003	1471989735564	1471989735636	h	72
5353	57122	I have a touch of food poisoning this morning but I may be in later.	I have a touch of food poisoning this morning but I may be in later.	2718006	1471989735932	1471989736004	BKSP	8
5353	57122	I have a touch of food poisoning this morning but I may be in later.	I have a touch of food poisoning this morning but I may be in later.	2718010	1471989736028	1471989736156	t	84
5353	57122	I have a touch of food poisoning this morning but I may be in later.	I have a touch of food poisoning this morning but I may be in later.	2718029	1471989736196	1471989736420	h	72
5353	57122	I have a touch of food poisoning this morning but I may be in later.	I have a touch of food poisoning this morning but I may be in later.	2718033	1471989736324	1471989736508	i	73
5353	57122	I have a touch of food poisoning this morning but I may be in later.	I have a touch of food poisoning this morning but I may be in later.	2718036	1471989736468	1471989736612	s	83
5353	57122	I have a touch of food poisoning this morning but I may be in later.	I have a touch of food poisoning this morning but I may be in later.	2718037	1471989736612	1471989736708	 	32
5353	57122	I have a touch of food poisoning this morning but I may be in later.	I have a touch of food poisoning this morning but I may be in later.	2718039	1471989736780	1471989736876	m	77
5353	57122	I have a touch of food poisoning this morning but I may be in later.	I have a touch of food poisoning this morning but I may be in later.	2718082	1471989736956	1471989737124	o	79
5353	57122	I have a touch of food poisoning this morning but I may be in later.	I have a touch of food poisoning this morning but I may be in later.	2718087	1471989737068	1471989737196	r	82
5353	57122	I have a touch of food poisoning this morning but I may be in later.	I have a touch of food poisoning this morning but I may be in later.	2718092	1471989737180	1471989737316	n	78
5353	57122	I have a touch of food poisoning this morning but I may be in later.	I have a touch of food poisoning this morning but I may be in later.	2718095	1471989737364	1471989737516	i	73
5353	57122	I have a touch of food poisoning this morning but I may be in later.	I have a touch of food poisoning this morning but I may be in later.	2718097	1471989737516	1471989737628	n	78
5353	57122	I have a touch of food poisoning this morning but I may be in later.	I have a touch of food poisoning this morning but I may be in later.	2718115	1471989737629	1471989737796	g	71
5353	57122	I have a touch of food poisoning this morning but I may be in later.	I have a touch of food poisoning this morning but I may be in later.	2718118	1471989737748	1471989737844	 	32
5353	57122	I have a touch of food poisoning this morning but I may be in later.	I have a touch of food poisoning this morning but I may be in later.	2718122	1471989738068	1471989738212	b	66
5353	57122	I have a touch of food poisoning this morning but I may be in later.	I have a touch of food poisoning this morning but I may be in later.	2718128	1471989738212	1471989738316	u	85
5353	57122	I have a touch of food poisoning this morning but I may be in later.	I have a touch of food poisoning this morning but I may be in later.	2718131	1471989738340	1471989738444	t	84
5353	57122	I have a touch of food poisoning this morning but I may be in later.	I have a touch of food poisoning this morning but I may be in later.	2718164	1471989738445	1471989738556	 	32
5353	57122	I have a touch of food poisoning this morning but I may be in later.	I have a touch of food poisoning this morning but I may be in later.	2718165	1471989738556	1471989738676	CAPS_LOCK	20
5353	57122	I have a touch of food poisoning this morning but I may be in later.	I have a touch of food poisoning this morning but I may be in later.	2718166	1471989738676	1471989738828	I	73
5353	57122	I have a touch of food poisoning this morning but I may be in later.	I have a touch of food poisoning this morning but I may be in later.	2718167	1471989738764	1471989738884	CAPS_LOCK	20
5353	57122	I have a touch of food poisoning this morning but I may be in later.	I have a touch of food poisoning this morning but I may be in later.	2718170	1471989738948	1471989739044	 	32
5353	57122	I have a touch of food poisoning this morning but I may be in later.	I have a touch of food poisoning this morning but I may be in later.	2718175	1471989739508	1471989739604	m	77
5353	57122	I have a touch of food poisoning this morning but I may be in later.	I have a touch of food poisoning this morning but I may be in later.	2718181	1471989739604	1471989739740	a	65
5353	57122	I have a touch of food poisoning this morning but I may be in later.	I have a touch of food poisoning this morning but I may be in later.	2718204	1471989739756	1471989739900	y	89
5353	57122	I have a touch of food poisoning this morning but I may be in later.	I have a touch of food poisoning this morning but I may be in later.	2718207	1471989740004	1471989740108	 	32
5353	57122	I have a touch of food poisoning this morning but I may be in later.	I have a touch of food poisoning this morning but I may be in later.	2718212	1471989740204	1471989740276	b	66
5353	57122	I have a touch of food poisoning this morning but I may be in later.	I have a touch of food poisoning this morning but I may be in later.	2718217	1471989740276	1471989740411	e	69
5353	57122	I have a touch of food poisoning this morning but I may be in later.	I have a touch of food poisoning this morning but I may be in later.	2718222	1471989740460	1471989740556	 	32
5353	57122	I have a touch of food poisoning this morning but I may be in later.	I have a touch of food poisoning this morning but I may be in later.	2718302	1471989741252	1471989741356	i	73
5353	57122	I have a touch of food poisoning this morning but I may be in later.	I have a touch of food poisoning this morning but I may be in later.	2718305	1471989741708	1471989741772	n	78
5353	57122	I have a touch of food poisoning this morning but I may be in later.	I have a touch of food poisoning this morning but I may be in later.	2718309	1471989741884	1471989741956	 	32
5353	57122	I have a touch of food poisoning this morning but I may be in later.	I have a touch of food poisoning this morning but I may be in later.	2718314	1471989742220	1471989742340	l	76
5353	57122	I have a touch of food poisoning this morning but I may be in later.	I have a touch of food poisoning this morning but I may be in later.	2718396	1471989742316	1471989742644	a	65
5353	57122	I have a touch of food poisoning this morning but I may be in later.	I have a touch of food poisoning this morning but I may be in later.	2718398	1471989742580	1471989742739	t	84
5353	57122	I have a touch of food poisoning this morning but I may be in later.	I have a touch of food poisoning this morning but I may be in later.	2718401	1471989742740	1471989742971	e	69
5353	57122	I have a touch of food poisoning this morning but I may be in later.	I have a touch of food poisoning this morning but I may be in later.	2718404	1471989742924	1471989743075	r	82
5353	57122	I have a touch of food poisoning this morning but I may be in later.	I have a touch of food poisoning this morning but I may be in later.	2718408	1471989743195	1471989743292	.	190
5353	57141	I don't think we need to make a big deal of this.	I don't think we need to make a big deal of this.	2718558	1471989746244	1471989746387	CAPS_LOCK	20
5353	57141	I don't think we need to make a big deal of this.	I don't think we need to make a big deal of this.	2718561	1471989746388	1471989746499	I	73
5353	57141	I don't think we need to make a big deal of this.	I don't think we need to make a big deal of this.	2718565	1471989746483	1471989746627	CAPS_LOCK	20
5353	57141	I don't think we need to make a big deal of this.	I don't think we need to make a big deal of this.	2718569	1471989746628	1471989746747	 	32
5353	57141	I don't think we need to make a big deal of this.	I don't think we need to make a big deal of this.	2718572	1471989746715	1471989746867	d	68
5353	57141	I don't think we need to make a big deal of this.	I don't think we need to make a big deal of this.	2718575	1471989746827	1471989746979	o	79
5353	57141	I don't think we need to make a big deal of this.	I don't think we need to make a big deal of this.	2718576	1471989746980	1471989747083	n	78
5353	57141	I don't think we need to make a big deal of this.	I don't think we need to make a big deal of this.	2718640	1471989747084	1471989747211	t	84
5353	57141	I don't think we need to make a big deal of this.	I don't think we need to make a big deal of this.	2718644	1471989747235	1471989747323	 	32
5353	57141	I don't think we need to make a big deal of this.	I don't think we need to make a big deal of this.	2718646	1471989747539	1471989747603	BKSP	8
5353	57141	I don't think we need to make a big deal of this.	I don't think we need to make a big deal of this.	2718649	1471989747675	1471989747779	BKSP	8
5353	57141	I don't think we need to make a big deal of this.	I don't think we need to make a big deal of this.	2718651	1471989747987	1471989748059	'	222
5353	57141	I don't think we need to make a big deal of this.	I don't think we need to make a big deal of this.	2718652	1471989748060	1471989748195	t	84
5353	57141	I don't think we need to make a big deal of this.	I don't think we need to make a big deal of this.	2718654	1471989748211	1471989748315	 	32
5353	57141	I don't think we need to make a big deal of this.	I don't think we need to make a big deal of this.	2718687	1471989748316	1471989748467	t	84
5353	57141	I don't think we need to make a big deal of this.	I don't think we need to make a big deal of this.	2718696	1471989748451	1471989748603	h	72
5353	57141	I don't think we need to make a big deal of this.	I don't think we need to make a big deal of this.	2718700	1471989748531	1471989748715	i	73
5353	57141	I don't think we need to make a big deal of this.	I don't think we need to make a big deal of this.	2718703	1471989748683	1471989748795	n	78
5353	57141	I don't think we need to make a big deal of this.	I don't think we need to make a big deal of this.	2718705	1471989748859	1471989749036	k	75
5353	57141	I don't think we need to make a big deal of this.	I don't think we need to make a big deal of this.	2718728	1471989749052	1471989749219	 	32
5353	57141	I don't think we need to make a big deal of this.	I don't think we need to make a big deal of this.	2718730	1471989749619	1471989749803	w	87
5353	57141	I don't think we need to make a big deal of this.	I don't think we need to make a big deal of this.	2718732	1471989749763	1471989749907	e	69
5353	57141	I don't think we need to make a big deal of this.	I don't think we need to make a big deal of this.	2718734	1471989749875	1471989749955	 	32
5353	57141	I don't think we need to make a big deal of this.	I don't think we need to make a big deal of this.	2718737	1471989750035	1471989750131	n	78
5353	57141	I don't think we need to make a big deal of this.	I don't think we need to make a big deal of this.	2718757	1471989750133	1471989750211	e	69
5353	57141	I don't think we need to make a big deal of this.	I don't think we need to make a big deal of this.	2718761	1471989750299	1471989750475	e	69
5353	57141	I don't think we need to make a big deal of this.	I don't think we need to make a big deal of this.	2718766	1471989750443	1471989750579	d	68
5353	57141	I don't think we need to make a big deal of this.	I don't think we need to make a big deal of this.	2718769	1471989750580	1471989750675	 	32
5353	57141	I don't think we need to make a big deal of this.	I don't think we need to make a big deal of this.	2718774	1471989750715	1471989750859	t	84
5353	57141	I don't think we need to make a big deal of this.	I don't think we need to make a big deal of this.	2718813	1471989750827	1471989750939	o	79
5353	57141	I don't think we need to make a big deal of this.	I don't think we need to make a big deal of this.	2718816	1471989751011	1471989751131	 	32
5353	57141	I don't think we need to make a big deal of this.	I don't think we need to make a big deal of this.	2718822	1471989751211	1471989751339	m	77
5353	57141	I don't think we need to make a big deal of this.	I don't think we need to make a big deal of this.	2718828	1471989751339	1471989751483	a	65
5353	57141	I don't think we need to make a big deal of this.	I don't think we need to make a big deal of this.	2718832	1471989751483	1471989751587	k	75
5353	57141	I don't think we need to make a big deal of this.	I don't think we need to make a big deal of this.	2718837	1471989751603	1471989751699	e	69
5353	57141	I don't think we need to make a big deal of this.	I don't think we need to make a big deal of this.	2718887	1471989751707	1471989751795	 	32
5353	57141	I don't think we need to make a big deal of this.	I don't think we need to make a big deal of this.	2718893	1471989751795	1471989751947	a	65
5353	57141	I don't think we need to make a big deal of this.	I don't think we need to make a big deal of this.	2718896	1471989751947	1471989752043	 	32
5353	57141	I don't think we need to make a big deal of this.	I don't think we need to make a big deal of this.	2718899	1471989752683	1471989752763	b	66
5353	57141	I don't think we need to make a big deal of this.	I don't think we need to make a big deal of this.	2718902	1471989752979	1471989752995	i	73
5353	57141	I don't think we need to make a big deal of this.	I don't think we need to make a big deal of this.	2718986	1471989753019	1471989753179	g	71
5353	57141	I don't think we need to make a big deal of this.	I don't think we need to make a big deal of this.	2718988	1471989753771	1471989753875	 	32
5353	57141	I don't think we need to make a big deal of this.	I don't think we need to make a big deal of this.	2718990	1471989753835	1471989754035	d	68
5353	57141	I don't think we need to make a big deal of this.	I don't think we need to make a big deal of this.	2718992	1471989753963	1471989754155	e	69
5353	57141	I don't think we need to make a big deal of this.	I don't think we need to make a big deal of this.	2718995	1471989754179	1471989754371	a	65
5353	57141	I don't think we need to make a big deal of this.	I don't think we need to make a big deal of this.	2719012	1471989754323	1471989754443	l	76
5353	57141	I don't think we need to make a big deal of this.	I don't think we need to make a big deal of this.	2719014	1471989754515	1471989754627	 	32
5353	57141	I don't think we need to make a big deal of this.	I don't think we need to make a big deal of this.	2719017	1471989754627	1471989754779	o	79
5353	57141	I don't think we need to make a big deal of this.	I don't think we need to make a big deal of this.	2719021	1471989754739	1471989754843	f	70
5353	57141	I don't think we need to make a big deal of this.	I don't think we need to make a big deal of this.	2719025	1471989754875	1471989755011	 	32
5353	57141	I don't think we need to make a big deal of this.	I don't think we need to make a big deal of this.	2719069	1471989754955	1471989755075	t	84
5353	57141	I don't think we need to make a big deal of this.	I don't think we need to make a big deal of this.	2719072	1471989755012	1471989755235	h	72
5353	57141	I don't think we need to make a big deal of this.	I don't think we need to make a big deal of this.	2719076	1471989755115	1471989755283	i	73
5353	57141	I don't think we need to make a big deal of this.	I don't think we need to make a big deal of this.	2719080	1471989755235	1471989755355	s	83
5353	57141	I don't think we need to make a big deal of this.	I don't think we need to make a big deal of this.	2719083	1471989755643	1471989755707	.	190
5353	57153	Ruth, here is an estimated November purchase.	Ruth, here is an estimated Novemember purchase.	2719317	1471989758987	1471989759115	CAPS_LOCK	20
5353	57153	Ruth, here is an estimated November purchase.	Ruth, here is an estimated Novemember purchase.	2719322	1471989759275	1471989759371	R	82
5353	57153	Ruth, here is an estimated November purchase.	Ruth, here is an estimated Novemember purchase.	2719329	1471989759419	1471989759547	CAPS_LOCK	20
5353	57153	Ruth, here is an estimated November purchase.	Ruth, here is an estimated Novemember purchase.	2719335	1471989759587	1471989759691	u	85
5353	57153	Ruth, here is an estimated November purchase.	Ruth, here is an estimated Novemember purchase.	2719344	1471989759691	1471989759803	t	84
5353	57153	Ruth, here is an estimated November purchase.	Ruth, here is an estimated Novemember purchase.	2719353	1471989759835	1471989759931	h	72
5353	57153	Ruth, here is an estimated November purchase.	Ruth, here is an estimated Novemember purchase.	2719356	1471989760299	1471989760371	,	188
5353	57153	Ruth, here is an estimated November purchase.	Ruth, here is an estimated Novemember purchase.	2719374	1471989760475	1471989760547	 	32
5353	57153	Ruth, here is an estimated November purchase.	Ruth, here is an estimated Novemember purchase.	2719377	1471989760611	1471989760747	h	72
5353	57153	Ruth, here is an estimated November purchase.	Ruth, here is an estimated Novemember purchase.	2719379	1471989760675	1471989760827	e	69
5353	57153	Ruth, here is an estimated November purchase.	Ruth, here is an estimated Novemember purchase.	2719381	1471989760803	1471989760939	r	82
5353	57153	Ruth, here is an estimated November purchase.	Ruth, here is an estimated Novemember purchase.	2719383	1471989760939	1471989761083	e	69
5353	57153	Ruth, here is an estimated November purchase.	Ruth, here is an estimated Novemember purchase.	2719396	1471989761067	1471989761147	 	32
5353	57153	Ruth, here is an estimated November purchase.	Ruth, here is an estimated Novemember purchase.	2719400	1471989761203	1471989761339	i	73
5353	57153	Ruth, here is an estimated November purchase.	Ruth, here is an estimated Novemember purchase.	2719405	1471989761307	1471989761411	s	83
5353	57153	Ruth, here is an estimated November purchase.	Ruth, here is an estimated Novemember purchase.	2719411	1471989761443	1471989761539	 	32
5353	57153	Ruth, here is an estimated November purchase.	Ruth, here is an estimated Novemember purchase.	2719416	1471989761539	1471989761659	a	65
5353	57153	Ruth, here is an estimated November purchase.	Ruth, here is an estimated Novemember purchase.	2719454	1471989761627	1471989761739	n	78
5353	57153	Ruth, here is an estimated November purchase.	Ruth, here is an estimated Novemember purchase.	2719457	1471989761803	1471989761931	 	32
5353	57153	Ruth, here is an estimated November purchase.	Ruth, here is an estimated Novemember purchase.	2719460	1471989761899	1471989762019	e	69
5353	57153	Ruth, here is an estimated November purchase.	Ruth, here is an estimated Novemember purchase.	2719461	1471989762107	1471989762291	s	83
5353	57153	Ruth, here is an estimated November purchase.	Ruth, here is an estimated Novemember purchase.	2719462	1471989762291	1471989762411	t	84
5353	57153	Ruth, here is an estimated November purchase.	Ruth, here is an estimated Novemember purchase.	2719463	1471989762459	1471989762587	i	73
5353	57153	Ruth, here is an estimated November purchase.	Ruth, here is an estimated Novemember purchase.	2719482	1471989762659	1471989762811	m	77
5353	57153	Ruth, here is an estimated November purchase.	Ruth, here is an estimated Novemember purchase.	2719484	1471989762827	1471989763003	a	65
5353	57153	Ruth, here is an estimated November purchase.	Ruth, here is an estimated Novemember purchase.	2719488	1471989762963	1471989763107	t	84
5353	57153	Ruth, here is an estimated November purchase.	Ruth, here is an estimated Novemember purchase.	2719492	1471989763131	1471989763363	e	69
5353	57153	Ruth, here is an estimated November purchase.	Ruth, here is an estimated Novemember purchase.	2719554	1471989763315	1471989763467	d	68
5353	57153	Ruth, here is an estimated November purchase.	Ruth, here is an estimated Novemember purchase.	2719559	1471989763467	1471989763579	 	32
5353	57153	Ruth, here is an estimated November purchase.	Ruth, here is an estimated Novemember purchase.	2719566	1471989763691	1471989763811	CAPS_LOCK	20
5353	57153	Ruth, here is an estimated November purchase.	Ruth, here is an estimated Novemember purchase.	2719571	1471989763867	1471989763979	N	78
5353	57153	Ruth, here is an estimated November purchase.	Ruth, here is an estimated Novemember purchase.	2719576	1471989763947	1471989764099	CAPS_LOCK	20
5353	57153	Ruth, here is an estimated November purchase.	Ruth, here is an estimated Novemember purchase.	2719582	1471989764131	1471989764267	o	79
5353	57153	Ruth, here is an estimated November purchase.	Ruth, here is an estimated Novemember purchase.	2719586	1471989764595	1471989764683	v	86
5353	57153	Ruth, here is an estimated November purchase.	Ruth, here is an estimated Novemember purchase.	2719590	1471989764683	1471989764835	e	69
5353	57153	Ruth, here is an estimated November purchase.	Ruth, here is an estimated Novemember purchase.	2719685	1471989764939	1471989765011	m	77
5353	57153	Ruth, here is an estimated November purchase.	Ruth, here is an estimated Novemember purchase.	2719687	1471989765251	1471989765339	e	69
5353	57153	Ruth, here is an estimated November purchase.	Ruth, here is an estimated Novemember purchase.	2719689	1471989766163	1471989766243	m	77
5353	57153	Ruth, here is an estimated November purchase.	Ruth, here is an estimated Novemember purchase.	2719691	1471989766443	1471989766523	b	66
5353	57153	Ruth, here is an estimated November purchase.	Ruth, here is an estimated Novemember purchase.	2719693	1471989766570	1471989766707	e	69
5353	57153	Ruth, here is an estimated November purchase.	Ruth, here is an estimated Novemember purchase.	2719764	1471989766667	1471989766810	r	82
5353	57153	Ruth, here is an estimated November purchase.	Ruth, here is an estimated Novemember purchase.	2719766	1471989766811	1471989766907	 	32
5353	57153	Ruth, here is an estimated November purchase.	Ruth, here is an estimated Novemember purchase.	2719768	1471989767034	1471989767162	CAPS_LOCK	20
5353	57153	Ruth, here is an estimated November purchase.	Ruth, here is an estimated Novemember purchase.	2719774	1471989767395	1471989767530	CAPS_LOCK	20
5353	57153	Ruth, here is an estimated November purchase.	Ruth, here is an estimated Novemember purchase.	2719782	1471989767594	1471989767722	p	80
5353	57153	Ruth, here is an estimated November purchase.	Ruth, here is an estimated Novemember purchase.	2719791	1471989767810	1471989767979	u	85
5353	57153	Ruth, here is an estimated November purchase.	Ruth, here is an estimated Novemember purchase.	2719801	1471989767914	1471989768042	r	82
5353	57153	Ruth, here is an estimated November purchase.	Ruth, here is an estimated Novemember purchase.	2719810	1471989768474	1471989768610	c	67
5353	57153	Ruth, here is an estimated November purchase.	Ruth, here is an estimated Novemember purchase.	2719841	1471989768611	1471989768707	h	72
5353	57153	Ruth, here is an estimated November purchase.	Ruth, here is an estimated Novemember purchase.	2719847	1471989768707	1471989768850	a	65
5353	57153	Ruth, here is an estimated November purchase.	Ruth, here is an estimated Novemember purchase.	2719851	1471989768882	1471989768914	n	78
5353	57153	Ruth, here is an estimated November purchase.	Ruth, here is an estimated Novemember purchase.	2719854	1471989769226	1471989769346	BKSP	8
5353	57153	Ruth, here is an estimated November purchase.	Ruth, here is an estimated Novemember purchase.	2719855	1471989769347	1471989769506	s	83
5353	57153	Ruth, here is an estimated November purchase.	Ruth, here is an estimated Novemember purchase.	2719872	1471989769482	1471989769642	e	69
5353	57153	Ruth, here is an estimated November purchase.	Ruth, here is an estimated Novemember purchase.	2719878	1471989769666	1471989769738	.	190
5353	57172	Opposition leaders have urged him to call off the visit.	Oppostition leaders have urged him to call off the visit.	2720076	1471989772698	1471989772842	CAPS_LOCK	20
5353	57172	Opposition leaders have urged him to call off the visit.	Oppostition leaders have urged him to call off the visit.	2720078	1471989772842	1471989772954	O	79
5353	57172	Opposition leaders have urged him to call off the visit.	Oppostition leaders have urged him to call off the visit.	2720081	1471989772946	1471989773082	CAPS_LOCK	20
5353	57172	Opposition leaders have urged him to call off the visit.	Oppostition leaders have urged him to call off the visit.	2720083	1471989773290	1471989773354	p	80
5353	57172	Opposition leaders have urged him to call off the visit.	Oppostition leaders have urged him to call off the visit.	2720088	1471989773450	1471989773570	p	80
5353	57172	Opposition leaders have urged him to call off the visit.	Oppostition leaders have urged him to call off the visit.	2720094	1471989773826	1471989773938	o	79
5353	57172	Opposition leaders have urged him to call off the visit.	Oppostition leaders have urged him to call off the visit.	2720098	1471989773939	1471989774058	s	83
5353	57172	Opposition leaders have urged him to call off the visit.	Oppostition leaders have urged him to call off the visit.	2720114	1471989774138	1471989774266	t	84
5353	57172	Opposition leaders have urged him to call off the visit.	Oppostition leaders have urged him to call off the visit.	2720116	1471989774267	1471989774410	i	73
5353	57172	Opposition leaders have urged him to call off the visit.	Oppostition leaders have urged him to call off the visit.	2720118	1471989774450	1471989774578	t	84
5353	57172	Opposition leaders have urged him to call off the visit.	Oppostition leaders have urged him to call off the visit.	2720120	1471989774578	1471989774850	i	73
5353	57172	Opposition leaders have urged him to call off the visit.	Oppostition leaders have urged him to call off the visit.	2720174	1471989774714	1471989774890	o	79
5353	57172	Opposition leaders have urged him to call off the visit.	Oppostition leaders have urged him to call off the visit.	2720178	1471989774874	1471989774978	n	78
5353	57172	Opposition leaders have urged him to call off the visit.	Oppostition leaders have urged him to call off the visit.	2720182	1471989775138	1471989775274	 	32
5353	57172	Opposition leaders have urged him to call off the visit.	Oppostition leaders have urged him to call off the visit.	2720188	1471989775458	1471989775530	BKSP	8
5353	57172	Opposition leaders have urged him to call off the visit.	Oppostition leaders have urged him to call off the visit.	2720193	1471989775674	1471989775730	 	32
5353	57172	Opposition leaders have urged him to call off the visit.	Oppostition leaders have urged him to call off the visit.	2720197	1471989775794	1471989776002	l	76
5353	57172	Opposition leaders have urged him to call off the visit.	Oppostition leaders have urged him to call off the visit.	2720227	1471989775882	1471989776058	e	69
5353	57172	Opposition leaders have urged him to call off the visit.	Oppostition leaders have urged him to call off the visit.	2720229	1471989776058	1471989776330	a	65
5353	57172	Opposition leaders have urged him to call off the visit.	Oppostition leaders have urged him to call off the visit.	2720230	1471989776210	1471989776362	d	68
5353	57172	Opposition leaders have urged him to call off the visit.	Oppostition leaders have urged him to call off the visit.	2720232	1471989776362	1471989776698	e	69
5353	57172	Opposition leaders have urged him to call off the visit.	Oppostition leaders have urged him to call off the visit.	2720235	1471989776602	1471989776722	r	82
5353	57172	Opposition leaders have urged him to call off the visit.	Oppostition leaders have urged him to call off the visit.	2720238	1471989776834	1471989777018	s	83
5353	57172	Opposition leaders have urged him to call off the visit.	Oppostition leaders have urged him to call off the visit.	2720264	1471989777034	1471989777138	 	32
5353	57172	Opposition leaders have urged him to call off the visit.	Oppostition leaders have urged him to call off the visit.	2720269	1471989777242	1471989777330	h	72
5353	57172	Opposition leaders have urged him to call off the visit.	Oppostition leaders have urged him to call off the visit.	2720272	1471989777330	1471989777490	a	65
5353	57172	Opposition leaders have urged him to call off the visit.	Oppostition leaders have urged him to call off the visit.	2720275	1471989777490	1471989777586	v	86
5353	57172	Opposition leaders have urged him to call off the visit.	Oppostition leaders have urged him to call off the visit.	2720280	1471989777586	1471989777706	e	69
5353	57172	Opposition leaders have urged him to call off the visit.	Oppostition leaders have urged him to call off the visit.	2720327	1471989777738	1471989777810	 	32
5353	57172	Opposition leaders have urged him to call off the visit.	Oppostition leaders have urged him to call off the visit.	2720330	1471989777922	1471989778050	u	85
5353	57172	Opposition leaders have urged him to call off the visit.	Oppostition leaders have urged him to call off the visit.	2720334	1471989778026	1471989778122	r	82
5353	57172	Opposition leaders have urged him to call off the visit.	Oppostition leaders have urged him to call off the visit.	2720336	1471989778506	1471989778594	g	71
5353	57172	Opposition leaders have urged him to call off the visit.	Oppostition leaders have urged him to call off the visit.	2720339	1471989778778	1471989778962	e	69
5353	57172	Opposition leaders have urged him to call off the visit.	Oppostition leaders have urged him to call off the visit.	2720389	1471989779018	1471989779162	d	68
5353	57172	Opposition leaders have urged him to call off the visit.	Oppostition leaders have urged him to call off the visit.	2720391	1471989779162	1471989779250	 	32
5353	57172	Opposition leaders have urged him to call off the visit.	Oppostition leaders have urged him to call off the visit.	2720392	1471989779394	1471989779474	BKSP	8
5353	57172	Opposition leaders have urged him to call off the visit.	Oppostition leaders have urged him to call off the visit.	2720394	1471989779618	1471989779706	 	32
5353	57172	Opposition leaders have urged him to call off the visit.	Oppostition leaders have urged him to call off the visit.	2720396	1471989779802	1471989779874	h	72
5353	57172	Opposition leaders have urged him to call off the visit.	Oppostition leaders have urged him to call off the visit.	2720397	1471989780018	1471989780090	i	73
5353	57172	Opposition leaders have urged him to call off the visit.	Oppostition leaders have urged him to call off the visit.	2720421	1471989780266	1471989780338	m	77
5353	57172	Opposition leaders have urged him to call off the visit.	Oppostition leaders have urged him to call off the visit.	2720424	1471989780450	1471989780562	 	32
5353	57172	Opposition leaders have urged him to call off the visit.	Oppostition leaders have urged him to call off the visit.	2720430	1471989780538	1471989780666	t	84
5353	57172	Opposition leaders have urged him to call off the visit.	Oppostition leaders have urged him to call off the visit.	2720436	1471989780626	1471989780746	o	79
5353	57172	Opposition leaders have urged him to call off the visit.	Oppostition leaders have urged him to call off the visit.	2720441	1471989780834	1471989780954	 	32
5353	57172	Opposition leaders have urged him to call off the visit.	Oppostition leaders have urged him to call off the visit.	2720454	1471989780955	1471989781106	c	67
5353	57172	Opposition leaders have urged him to call off the visit.	Oppostition leaders have urged him to call off the visit.	2720460	1471989781106	1471989781266	a	65
5353	57172	Opposition leaders have urged him to call off the visit.	Oppostition leaders have urged him to call off the visit.	2720457	1471989781194	1471989781234	l	76
5353	57172	Opposition leaders have urged him to call off the visit.	Oppostition leaders have urged him to call off the visit.	2720462	1471989781306	1471989781394	l	76
5353	57172	Opposition leaders have urged him to call off the visit.	Oppostition leaders have urged him to call off the visit.	2720464	1471989781474	1471989781594	 	32
5353	57172	Opposition leaders have urged him to call off the visit.	Oppostition leaders have urged him to call off the visit.	2720494	1471989781626	1471989781794	o	79
5353	57172	Opposition leaders have urged him to call off the visit.	Oppostition leaders have urged him to call off the visit.	2720499	1471989781730	1471989781866	f	70
5353	57172	Opposition leaders have urged him to call off the visit.	Oppostition leaders have urged him to call off the visit.	2720505	1471989782154	1471989782266	f	70
5353	57172	Opposition leaders have urged him to call off the visit.	Oppostition leaders have urged him to call off the visit.	2720509	1471989782330	1471989782434	 	32
5353	57172	Opposition leaders have urged him to call off the visit.	Oppostition leaders have urged him to call off the visit.	2720513	1471989782434	1471989782570	t	84
5353	57172	Opposition leaders have urged him to call off the visit.	Oppostition leaders have urged him to call off the visit.	2720550	1471989782530	1471989782658	h	72
5353	57172	Opposition leaders have urged him to call off the visit.	Oppostition leaders have urged him to call off the visit.	2720554	1471989782658	1471989782786	e	69
5353	57172	Opposition leaders have urged him to call off the visit.	Oppostition leaders have urged him to call off the visit.	2720557	1471989782786	1471989782898	 	32
5353	57172	Opposition leaders have urged him to call off the visit.	Oppostition leaders have urged him to call off the visit.	2720561	1471989783034	1471989783154	v	86
5353	57172	Opposition leaders have urged him to call off the visit.	Oppostition leaders have urged him to call off the visit.	2720567	1471989783194	1471989783306	i	73
5353	57172	Opposition leaders have urged him to call off the visit.	Oppostition leaders have urged him to call off the visit.	2720570	1471989783362	1471989783514	s	83
5353	57172	Opposition leaders have urged him to call off the visit.	Oppostition leaders have urged him to call off the visit.	2720638	1471989783522	1471989783634	i	73
5353	57172	Opposition leaders have urged him to call off the visit.	Oppostition leaders have urged him to call off the visit.	2720644	1471989783658	1471989783802	t	84
5353	57172	Opposition leaders have urged him to call off the visit.	Oppostition leaders have urged him to call off the visit.	2720647	1471989784242	1471989784314	.	190
5353	57189	Get with Mary for format.	Get with Mary for format.	2720817	1471989786826	1471989786946	CAPS_LOCK	20
5353	57189	Get with Mary for format.	Get with Mary for format.	2720819	1471989787002	1471989787098	G	71
5353	57189	Get with Mary for format.	Get with Mary for format.	2720822	1471989787098	1471989787234	CAPS_LOCK	20
5353	57189	Get with Mary for format.	Get with Mary for format.	2720825	1471989787386	1471989787594	e	69
5353	57189	Get with Mary for format.	Get with Mary for format.	2720828	1471989787546	1471989787674	t	84
5353	57189	Get with Mary for format.	Get with Mary for format.	2720833	1471989787698	1471989787801	 	32
5353	57189	Get with Mary for format.	Get with Mary for format.	2720836	1471989787833	1471989787946	w	87
5353	57189	Get with Mary for format.	Get with Mary for format.	2720892	1471989787930	1471989788058	i	73
5353	57189	Get with Mary for format.	Get with Mary for format.	2720894	1471989788026	1471989788170	t	84
5353	57189	Get with Mary for format.	Get with Mary for format.	2720897	1471989788153	1471989788266	h	72
5353	57189	Get with Mary for format.	Get with Mary for format.	2720902	1471989788337	1471989788457	 	32
5353	57189	Get with Mary for format.	Get with Mary for format.	2720909	1471989788418	1471989788577	CAPS_LOCK	20
5353	57189	Get with Mary for format.	Get with Mary for format.	2720910	1471989788593	1471989788713	M	77
5353	57189	Get with Mary for format.	Get with Mary for format.	2720913	1471989788682	1471989788793	CAPS_LOCK	20
5353	57189	Get with Mary for format.	Get with Mary for format.	2720923	1471989788905	1471989789114	a	65
5353	57189	Get with Mary for format.	Get with Mary for format.	2720988	1471989789074	1471989789226	r	82
5353	57189	Get with Mary for format.	Get with Mary for format.	2720991	1471989789730	1471989789842	y	89
5353	57189	Get with Mary for format.	Get with Mary for format.	2720997	1471989789937	1471989790057	 	32
5353	57189	Get with Mary for format.	Get with Mary for format.	2720998	1471989789986	1471989790089	f	70
5353	57189	Get with Mary for format.	Get with Mary for format.	2720999	1471989790121	1471989790241	o	79
5353	57189	Get with Mary for format.	Get with Mary for format.	2721031	1471989790210	1471989790313	r	82
5353	57189	Get with Mary for format.	Get with Mary for format.	2721034	1471989790337	1471989790473	 	32
5353	57189	Get with Mary for format.	Get with Mary for format.	2721038	1471989790585	1471989790697	f	70
5353	57189	Get with Mary for format.	Get with Mary for format.	2721040	1471989790721	1471989790842	o	79
5353	57189	Get with Mary for format.	Get with Mary for format.	2721043	1471989790842	1471989790969	r	82
5353	57189	Get with Mary for format.	Get with Mary for format.	2721046	1471989790993	1471989791121	m	77
5353	57189	Get with Mary for format.	Get with Mary for format.	2721147	1471989791123	1471989791265	a	65
5353	57189	Get with Mary for format.	Get with Mary for format.	2721153	1471989791297	1471989791473	t	84
5353	57189	Get with Mary for format.	Get with Mary for format.	2721158	1471989792457	1471989792537	.	190
5353	57198	He said Telecom was still in a position of substantial protection.	He said Telecom was still in a position of substantial protection.	2721365	1471989794953	1471989795097	CAPS_LOCK	20
5353	57198	He said Telecom was still in a position of substantial protection.	He said Telecom was still in a position of substantial protection.	2721367	1471989795153	1471989795257	H	72
5353	57198	He said Telecom was still in a position of substantial protection.	He said Telecom was still in a position of substantial protection.	2721369	1471989795233	1471989795361	CAPS_LOCK	20
5353	57198	He said Telecom was still in a position of substantial protection.	He said Telecom was still in a position of substantial protection.	2721372	1471989795721	1471989795825	e	69
5353	57198	He said Telecom was still in a position of substantial protection.	He said Telecom was still in a position of substantial protection.	2721376	1471989795857	1471989795969	 	32
5353	57198	He said Telecom was still in a position of substantial protection.	He said Telecom was still in a position of substantial protection.	2721380	1471989795969	1471989796113	s	83
5353	57198	He said Telecom was still in a position of substantial protection.	He said Telecom was still in a position of substantial protection.	2721384	1471989796137	1471989796329	a	65
5353	57198	He said Telecom was still in a position of substantial protection.	He said Telecom was still in a position of substantial protection.	2721445	1471989796297	1471989796425	i	73
5353	57198	He said Telecom was still in a position of substantial protection.	He said Telecom was still in a position of substantial protection.	2721447	1471989796425	1471989796529	d	68
5353	57198	He said Telecom was still in a position of substantial protection.	He said Telecom was still in a position of substantial protection.	2721450	1471989796593	1471989796697	 	32
5353	57198	He said Telecom was still in a position of substantial protection.	He said Telecom was still in a position of substantial protection.	2721453	1471989796841	1471989796937	BKSP	8
5353	57198	He said Telecom was still in a position of substantial protection.	He said Telecom was still in a position of substantial protection.	2721456	1471989797073	1471989797169	 	32
5353	57198	He said Telecom was still in a position of substantial protection.	He said Telecom was still in a position of substantial protection.	2721462	1471989797153	1471989797297	CAPS_LOCK	20
5353	57198	He said Telecom was still in a position of substantial protection.	He said Telecom was still in a position of substantial protection.	2721467	1471989797345	1471989797433	T	84
5353	57198	He said Telecom was still in a position of substantial protection.	He said Telecom was still in a position of substantial protection.	2721472	1471989797481	1471989797777	CAPS_LOCK	20
5353	57198	He said Telecom was still in a position of substantial protection.	He said Telecom was still in a position of substantial protection.	2721476	1471989797969	1471989798073	e	69
5353	57198	He said Telecom was still in a position of substantial protection.	He said Telecom was still in a position of substantial protection.	2721514	1471989798153	1471989798297	l	76
5353	57198	He said Telecom was still in a position of substantial protection.	He said Telecom was still in a position of substantial protection.	2721517	1471989798289	1471989798441	e	69
5353	57198	He said Telecom was still in a position of substantial protection.	He said Telecom was still in a position of substantial protection.	2721524	1471989799177	1471989799289	c	67
5353	57198	He said Telecom was still in a position of substantial protection.	He said Telecom was still in a position of substantial protection.	2721529	1471989799241	1471989799425	o	79
5353	57198	He said Telecom was still in a position of substantial protection.	He said Telecom was still in a position of substantial protection.	2721535	1471989799425	1471989799529	m	77
5353	57198	He said Telecom was still in a position of substantial protection.	He said Telecom was still in a position of substantial protection.	2721591	1471989799673	1471989799777	 	32
5353	57198	He said Telecom was still in a position of substantial protection.	He said Telecom was still in a position of substantial protection.	2721594	1471989799801	1471989799929	w	87
5353	57198	He said Telecom was still in a position of substantial protection.	He said Telecom was still in a position of substantial protection.	2721599	1471989800257	1471989800473	a	65
5353	57198	He said Telecom was still in a position of substantial protection.	He said Telecom was still in a position of substantial protection.	2721602	1471989800401	1471989800537	s	83
5353	57198	He said Telecom was still in a position of substantial protection.	He said Telecom was still in a position of substantial protection.	2721609	1471989800561	1471989800665	 	32
5353	57198	He said Telecom was still in a position of substantial protection.	He said Telecom was still in a position of substantial protection.	2721677	1471989801249	1471989801425	s	83
5353	57198	He said Telecom was still in a position of substantial protection.	He said Telecom was still in a position of substantial protection.	2721679	1471989801401	1471989801561	t	84
5353	57198	He said Telecom was still in a position of substantial protection.	He said Telecom was still in a position of substantial protection.	2721681	1471989801585	1471989801673	i	73
5353	57198	He said Telecom was still in a position of substantial protection.	He said Telecom was still in a position of substantial protection.	2721683	1471989801769	1471989801849	l	76
5353	57198	He said Telecom was still in a position of substantial protection.	He said Telecom was still in a position of substantial protection.	2721686	1471989801921	1471989802009	l	76
5353	57198	He said Telecom was still in a position of substantial protection.	He said Telecom was still in a position of substantial protection.	2721711	1471989802097	1471989802193	 	32
5353	57198	He said Telecom was still in a position of substantial protection.	He said Telecom was still in a position of substantial protection.	2721716	1471989802225	1471989802377	i	73
5353	57198	He said Telecom was still in a position of substantial protection.	He said Telecom was still in a position of substantial protection.	2721723	1471989802353	1471989802433	n	78
5353	57198	He said Telecom was still in a position of substantial protection.	He said Telecom was still in a position of substantial protection.	2721729	1471989802537	1471989802625	 	32
5353	57198	He said Telecom was still in a position of substantial protection.	He said Telecom was still in a position of substantial protection.	2721736	1471989802641	1471989802785	a	65
5353	57198	He said Telecom was still in a position of substantial protection.	He said Telecom was still in a position of substantial protection.	2721805	1471989802753	1471989802865	 	32
5353	57198	He said Telecom was still in a position of substantial protection.	He said Telecom was still in a position of substantial protection.	2721807	1471989803017	1471989803193	p	80
5353	57198	He said Telecom was still in a position of substantial protection.	He said Telecom was still in a position of substantial protection.	2721809	1471989803177	1471989803305	o	79
5353	57198	He said Telecom was still in a position of substantial protection.	He said Telecom was still in a position of substantial protection.	2721811	1471989803273	1471989803409	s	83
5353	57198	He said Telecom was still in a position of substantial protection.	He said Telecom was still in a position of substantial protection.	2721813	1471989803817	1471989803977	t	84
5353	57198	He said Telecom was still in a position of substantial protection.	He said Telecom was still in a position of substantial protection.	2721814	1471989804265	1471989804353	BKSP	8
5353	57198	He said Telecom was still in a position of substantial protection.	He said Telecom was still in a position of substantial protection.	2721815	1471989804497	1471989804617	i	73
5353	57198	He said Telecom was still in a position of substantial protection.	He said Telecom was still in a position of substantial protection.	2721879	1471989805233	1471989805361	t	84
5353	57198	He said Telecom was still in a position of substantial protection.	He said Telecom was still in a position of substantial protection.	2721882	1471989805481	1471989805825	i	73
5353	57198	He said Telecom was still in a position of substantial protection.	He said Telecom was still in a position of substantial protection.	2721885	1471989805641	1471989805881	o	79
5353	57198	He said Telecom was still in a position of substantial protection.	He said Telecom was still in a position of substantial protection.	2721889	1471989806153	1471989806273	n	78
5353	57198	He said Telecom was still in a position of substantial protection.	He said Telecom was still in a position of substantial protection.	2721894	1471989806401	1471989806537	 	32
5353	57198	He said Telecom was still in a position of substantial protection.	He said Telecom was still in a position of substantial protection.	2721934	1471989806561	1471989806737	o	79
5353	57198	He said Telecom was still in a position of substantial protection.	He said Telecom was still in a position of substantial protection.	2721938	1471989806697	1471989806865	f	70
5353	57198	He said Telecom was still in a position of substantial protection.	He said Telecom was still in a position of substantial protection.	2721942	1471989806841	1471989806977	 	32
5353	57198	He said Telecom was still in a position of substantial protection.	He said Telecom was still in a position of substantial protection.	2721945	1471989807009	1471989807185	s	83
5353	57198	He said Telecom was still in a position of substantial protection.	He said Telecom was still in a position of substantial protection.	2721946	1471989807313	1471989807425	u	85
5353	57198	He said Telecom was still in a position of substantial protection.	He said Telecom was still in a position of substantial protection.	2722017	1471989807569	1471989807697	b	66
5353	57198	He said Telecom was still in a position of substantial protection.	He said Telecom was still in a position of substantial protection.	2722019	1471989807873	1471989808001	s	83
5353	57198	He said Telecom was still in a position of substantial protection.	He said Telecom was still in a position of substantial protection.	2722020	1471989808297	1471989808441	t	84
5353	57198	He said Telecom was still in a position of substantial protection.	He said Telecom was still in a position of substantial protection.	2722021	1471989808513	1471989808681	a	65
5353	57198	He said Telecom was still in a position of substantial protection.	He said Telecom was still in a position of substantial protection.	2722024	1471989809185	1471989809249	n	78
5353	57198	He said Telecom was still in a position of substantial protection.	He said Telecom was still in a position of substantial protection.	2722073	1471989809649	1471989809792	t	84
5353	57198	He said Telecom was still in a position of substantial protection.	He said Telecom was still in a position of substantial protection.	2722076	1471989809793	1471989809905	i	73
5353	57198	He said Telecom was still in a position of substantial protection.	He said Telecom was still in a position of substantial protection.	2722080	1471989809905	1471989810049	a	65
5353	57198	He said Telecom was still in a position of substantial protection.	He said Telecom was still in a position of substantial protection.	2722084	1471989810033	1471989810137	l	76
5353	57198	He said Telecom was still in a position of substantial protection.	He said Telecom was still in a position of substantial protection.	2722092	1471989810232	1471989810361	 	32
5353	57198	He said Telecom was still in a position of substantial protection.	He said Telecom was still in a position of substantial protection.	2722138	1471989810665	1471989810849	p	80
5353	57198	He said Telecom was still in a position of substantial protection.	He said Telecom was still in a position of substantial protection.	2722144	1471989810809	1471989810953	r	82
5353	57198	He said Telecom was still in a position of substantial protection.	He said Telecom was still in a position of substantial protection.	2722150	1471989810912	1471989811105	o	79
5353	57198	He said Telecom was still in a position of substantial protection.	He said Telecom was still in a position of substantial protection.	2722157	1471989811089	1471989811241	t	84
5353	57198	He said Telecom was still in a position of substantial protection.	He said Telecom was still in a position of substantial protection.	2722162	1471989811281	1471989811392	e	69
5353	57198	He said Telecom was still in a position of substantial protection.	He said Telecom was still in a position of substantial protection.	2722212	1471989811513	1471989811665	c	67
5353	57198	He said Telecom was still in a position of substantial protection.	He said Telecom was still in a position of substantial protection.	2722215	1471989811809	1471989811977	t	84
5353	57198	He said Telecom was still in a position of substantial protection.	He said Telecom was still in a position of substantial protection.	2722218	1471989811977	1471989812217	i	73
5353	57198	He said Telecom was still in a position of substantial protection.	He said Telecom was still in a position of substantial protection.	2722222	1471989812041	1471989812249	o	79
5353	57198	He said Telecom was still in a position of substantial protection.	He said Telecom was still in a position of substantial protection.	2722312	1471989812217	1471989812344	n	78
5353	57198	He said Telecom was still in a position of substantial protection.	He said Telecom was still in a position of substantial protection.	2722318	1471989812857	1471989812928	,	188
5353	57198	He said Telecom was still in a position of substantial protection.	He said Telecom was still in a position of substantial protection.	2722323	1471989813296	1471989813368	BKSP	8
5353	57198	He said Telecom was still in a position of substantial protection.	He said Telecom was still in a position of substantial protection.	2722327	1471989813624	1471989813688	.	190
5353	57219	The French diplomat meanwhile reiterated his condemnation.	The French diplomat meanwhile reiterated his condemnation.	2722477	1471989815880	1471989816016	CAPS_LOCK	20
5353	57219	The French diplomat meanwhile reiterated his condemnation.	The French diplomat meanwhile reiterated his condemnation.	2722479	1471989816096	1471989816264	T	84
5353	57219	The French diplomat meanwhile reiterated his condemnation.	The French diplomat meanwhile reiterated his condemnation.	2722483	1471989816304	1471989816464	CAPS_LOCK	20
5353	57219	The French diplomat meanwhile reiterated his condemnation.	The French diplomat meanwhile reiterated his condemnation.	2722490	1471989816544	1471989816640	h	72
5353	57219	The French diplomat meanwhile reiterated his condemnation.	The French diplomat meanwhile reiterated his condemnation.	2722498	1471989816608	1471989816712	e	69
5353	57219	The French diplomat meanwhile reiterated his condemnation.	The French diplomat meanwhile reiterated his condemnation.	2722506	1471989816776	1471989816888	 	32
5353	57219	The French diplomat meanwhile reiterated his condemnation.	The French diplomat meanwhile reiterated his condemnation.	2722510	1471989817776	1471989817904	CAPS_LOCK	20
5353	57219	The French diplomat meanwhile reiterated his condemnation.	The French diplomat meanwhile reiterated his condemnation.	2722517	1471989817920	1471989818040	F	70
5353	57219	The French diplomat meanwhile reiterated his condemnation.	The French diplomat meanwhile reiterated his condemnation.	2722546	1471989818072	1471989818232	CAPS_LOCK	20
5353	57219	The French diplomat meanwhile reiterated his condemnation.	The French diplomat meanwhile reiterated his condemnation.	2722549	1471989818233	1471989818384	r	82
5353	57219	The French diplomat meanwhile reiterated his condemnation.	The French diplomat meanwhile reiterated his condemnation.	2722552	1471989818385	1471989818544	e	69
5353	57219	The French diplomat meanwhile reiterated his condemnation.	The French diplomat meanwhile reiterated his condemnation.	2722556	1471989818592	1471989818728	n	78
5353	57219	The French diplomat meanwhile reiterated his condemnation.	The French diplomat meanwhile reiterated his condemnation.	2722559	1471989818729	1471989818864	c	67
5353	57219	The French diplomat meanwhile reiterated his condemnation.	The French diplomat meanwhile reiterated his condemnation.	2722563	1471989818896	1471989819056	h	72
5353	57219	The French diplomat meanwhile reiterated his condemnation.	The French diplomat meanwhile reiterated his condemnation.	2722667	1471989819336	1471989819448	 	32
5353	57219	The French diplomat meanwhile reiterated his condemnation.	The French diplomat meanwhile reiterated his condemnation.	2722669	1471989819424	1471989819544	CAPS_LOCK	20
5353	57219	The French diplomat meanwhile reiterated his condemnation.	The French diplomat meanwhile reiterated his condemnation.	2722672	1471989819720	1471989819864	CAPS_LOCK	20
5353	57219	The French diplomat meanwhile reiterated his condemnation.	The French diplomat meanwhile reiterated his condemnation.	2722674	1471989819944	1471989820112	d	68
5353	57219	The French diplomat meanwhile reiterated his condemnation.	The French diplomat meanwhile reiterated his condemnation.	2722676	1471989820216	1471989820392	i	73
5353	57219	The French diplomat meanwhile reiterated his condemnation.	The French diplomat meanwhile reiterated his condemnation.	2722678	1471989821304	1471989821376	p	80
5353	57219	The French diplomat meanwhile reiterated his condemnation.	The French diplomat meanwhile reiterated his condemnation.	2722681	1471989821584	1471989821656	l	76
5353	57219	The French diplomat meanwhile reiterated his condemnation.	The French diplomat meanwhile reiterated his condemnation.	2722729	1471989821816	1471989821888	o	79
5353	57219	The French diplomat meanwhile reiterated his condemnation.	The French diplomat meanwhile reiterated his condemnation.	2722732	1471989822104	1471989822248	m	77
5353	57219	The French diplomat meanwhile reiterated his condemnation.	The French diplomat meanwhile reiterated his condemnation.	2722735	1471989822200	1471989822384	a	65
5353	57219	The French diplomat meanwhile reiterated his condemnation.	The French diplomat meanwhile reiterated his condemnation.	2722736	1471989822384	1471989822520	t	84
5353	57219	The French diplomat meanwhile reiterated his condemnation.	The French diplomat meanwhile reiterated his condemnation.	2722739	1471989822520	1471989822600	 	32
5353	57219	The French diplomat meanwhile reiterated his condemnation.	The French diplomat meanwhile reiterated his condemnation.	2722810	1471989822848	1471989822960	m	77
5353	57219	The French diplomat meanwhile reiterated his condemnation.	The French diplomat meanwhile reiterated his condemnation.	2722813	1471989822936	1471989823080	e	69
5353	57219	The French diplomat meanwhile reiterated his condemnation.	The French diplomat meanwhile reiterated his condemnation.	2722816	1471989823080	1471989823280	a	65
5353	57219	The French diplomat meanwhile reiterated his condemnation.	The French diplomat meanwhile reiterated his condemnation.	2722819	1471989823224	1471989823304	n	78
5353	57219	The French diplomat meanwhile reiterated his condemnation.	The French diplomat meanwhile reiterated his condemnation.	2722820	1471989823640	1471989823760	w	87
5353	57219	The French diplomat meanwhile reiterated his condemnation.	The French diplomat meanwhile reiterated his condemnation.	2722873	1471989823761	1471989823832	h	72
5353	57219	The French diplomat meanwhile reiterated his condemnation.	The French diplomat meanwhile reiterated his condemnation.	2722876	1471989824248	1471989824336	i	73
5353	57219	The French diplomat meanwhile reiterated his condemnation.	The French diplomat meanwhile reiterated his condemnation.	2722879	1471989824456	1471989824568	l	76
5353	57219	The French diplomat meanwhile reiterated his condemnation.	The French diplomat meanwhile reiterated his condemnation.	2722883	1471989824600	1471989824704	e	69
5353	57219	The French diplomat meanwhile reiterated his condemnation.	The French diplomat meanwhile reiterated his condemnation.	2722888	1471989824744	1471989824848	 	32
5353	57219	The French diplomat meanwhile reiterated his condemnation.	The French diplomat meanwhile reiterated his condemnation.	2723074	1471989825144	1471989825248	r	82
5353	57219	The French diplomat meanwhile reiterated his condemnation.	The French diplomat meanwhile reiterated his condemnation.	2723076	1471989825520	1471989825664	e	69
5353	57219	The French diplomat meanwhile reiterated his condemnation.	The French diplomat meanwhile reiterated his condemnation.	2723080	1471989825784	1471989825920	i	73
5353	57219	The French diplomat meanwhile reiterated his condemnation.	The French diplomat meanwhile reiterated his condemnation.	2723083	1471989826880	1471989826952	BKSP	8
5353	57219	The French diplomat meanwhile reiterated his condemnation.	The French diplomat meanwhile reiterated his condemnation.	2723087	1471989827056	1471989827160	BKSP	8
5353	57219	The French diplomat meanwhile reiterated his condemnation.	The French diplomat meanwhile reiterated his condemnation.	2723091	1471989827584	1471989827696	e	69
5353	57219	The French diplomat meanwhile reiterated his condemnation.	The French diplomat meanwhile reiterated his condemnation.	2723094	1471989827704	1471989827800	i	73
5353	57219	The French diplomat meanwhile reiterated his condemnation.	The French diplomat meanwhile reiterated his condemnation.	2723215	1471989828384	1471989828480	t	84
5353	57219	The French diplomat meanwhile reiterated his condemnation.	The French diplomat meanwhile reiterated his condemnation.	2723219	1471989828656	1471989828896	e	69
5353	57219	The French diplomat meanwhile reiterated his condemnation.	The French diplomat meanwhile reiterated his condemnation.	2723224	1471989828832	1471989828976	r	82
5353	57219	The French diplomat meanwhile reiterated his condemnation.	The French diplomat meanwhile reiterated his condemnation.	2723226	1471989829888	1471989830120	a	65
5353	57219	The French diplomat meanwhile reiterated his condemnation.	The French diplomat meanwhile reiterated his condemnation.	2723342	1471989830096	1471989830288	t	84
5353	57219	The French diplomat meanwhile reiterated his condemnation.	The French diplomat meanwhile reiterated his condemnation.	2723347	1471989830288	1471989830496	e	69
5353	57219	The French diplomat meanwhile reiterated his condemnation.	The French diplomat meanwhile reiterated his condemnation.	2723350	1471989830472	1471989830632	d	68
5353	57219	The French diplomat meanwhile reiterated his condemnation.	The French diplomat meanwhile reiterated his condemnation.	2723353	1471989830656	1471989830744	 	32
5353	57219	The French diplomat meanwhile reiterated his condemnation.	The French diplomat meanwhile reiterated his condemnation.	2723356	1471989831480	1471989831664	h	72
5353	57219	The French diplomat meanwhile reiterated his condemnation.	The French diplomat meanwhile reiterated his condemnation.	2723460	1471989831608	1471989831784	i	73
5353	57219	The French diplomat meanwhile reiterated his condemnation.	The French diplomat meanwhile reiterated his condemnation.	2723463	1471989831712	1471989831848	s	83
5353	57219	The French diplomat meanwhile reiterated his condemnation.	The French diplomat meanwhile reiterated his condemnation.	2723467	1471989831880	1471989832016	 	32
5353	57219	The French diplomat meanwhile reiterated his condemnation.	The French diplomat meanwhile reiterated his condemnation.	2723477	1471989832223	1471989832432	s	83
5353	57219	The French diplomat meanwhile reiterated his condemnation.	The French diplomat meanwhile reiterated his condemnation.	2723482	1471989832784	1471989832880	BKSP	8
5353	57219	The French diplomat meanwhile reiterated his condemnation.	The French diplomat meanwhile reiterated his condemnation.	2723488	1471989832968	1471989833072	BKSP	8
5353	57219	The French diplomat meanwhile reiterated his condemnation.	The French diplomat meanwhile reiterated his condemnation.	2723494	1471989833192	1471989833304	 	32
5353	57219	The French diplomat meanwhile reiterated his condemnation.	The French diplomat meanwhile reiterated his condemnation.	2723545	1471989833288	1471989833440	c	67
5353	57219	The French diplomat meanwhile reiterated his condemnation.	The French diplomat meanwhile reiterated his condemnation.	2723547	1471989833384	1471989833568	o	79
5353	57219	The French diplomat meanwhile reiterated his condemnation.	The French diplomat meanwhile reiterated his condemnation.	2723549	1471989833528	1471989833672	n	78
5353	57219	The French diplomat meanwhile reiterated his condemnation.	The French diplomat meanwhile reiterated his condemnation.	2723551	1471989833952	1471989834152	d	68
5353	57219	The French diplomat meanwhile reiterated his condemnation.	The French diplomat meanwhile reiterated his condemnation.	2723552	1471989834104	1471989834263	e	69
5353	57219	The French diplomat meanwhile reiterated his condemnation.	The French diplomat meanwhile reiterated his condemnation.	2723554	1471989834264	1471989834384	m	77
5353	57219	The French diplomat meanwhile reiterated his condemnation.	The French diplomat meanwhile reiterated his condemnation.	2723599	1471989834720	1471989834848	n	78
5353	57219	The French diplomat meanwhile reiterated his condemnation.	The French diplomat meanwhile reiterated his condemnation.	2723601	1471989834871	1471989835048	a	65
5353	57219	The French diplomat meanwhile reiterated his condemnation.	The French diplomat meanwhile reiterated his condemnation.	2723603	1471989835024	1471989835200	t	84
5353	57219	The French diplomat meanwhile reiterated his condemnation.	The French diplomat meanwhile reiterated his condemnation.	2723698	1471989835152	1471989835408	i	73
5353	57219	The French diplomat meanwhile reiterated his condemnation.	The French diplomat meanwhile reiterated his condemnation.	2723605	1471989835223	1471989835368	o	79
5353	57219	The French diplomat meanwhile reiterated his condemnation.	The French diplomat meanwhile reiterated his condemnation.	2723701	1471989835369	1471989835503	n	78
5353	57219	The French diplomat meanwhile reiterated his condemnation.	The French diplomat meanwhile reiterated his condemnation.	2723708	1471989836648	1471989836711	.	190
