PARTICIPANT_ID	TEST_SECTION_ID	SENTENCE	USER_INPUT	KEYSTROKE_ID	PRESS_TIME	RELEASE_TIME	LETTER	KEYCODE
5466	58317	No obligation to pay.	No obligation to pay.	2773224	1471990927986	1471990928664	SHIFT	16
5466	58317	No obligation to pay.	No obligation to pay.	2773228	1471990928603	1471990928754	N	78
5466	58317	No obligation to pay.	No obligation to pay.	2773231	1471990928699	1471990928912	o	79
5466	58317	No obligation to pay.	No obligation to pay.	2773235	1471990928752	1471990928936	 	32
5466	58317	No obligation to pay.	No obligation to pay.	2773238	1471990929006	1471990929174	o	79
5466	58317	No obligation to pay.	No obligation to pay.	2773244	1471990929315	1471990929418	b	66
5466	58317	No obligation to pay.	No obligation to pay.	2773306	1471990929483	1471990929649	l	76
5466	58317	No obligation to pay.	No obligation to pay.	2773310	1471990929650	1471990929784	i	73
5466	58317	No obligation to pay.	No obligation to pay.	2773316	1471990930077	1471990930180	g	71
5466	58317	No obligation to pay.	No obligation to pay.	2773322	1471990930180	1471990930338	a	65
5466	58317	No obligation to pay.	No obligation to pay.	2773354	1471990930337	1471990930432	t	84
5466	58317	No obligation to pay.	No obligation to pay.	2773360	1471990930378	1471990930558	i	73
5466	58317	No obligation to pay.	No obligation to pay.	2773367	1471990930456	1471990930621	o	79
5466	58317	No obligation to pay.	No obligation to pay.	2773377	1471990930533	1471990930690	n	78
5466	58317	No obligation to pay.	No obligation to pay.	2773385	1471990930661	1471990930779	 	32
5466	58317	No obligation to pay.	No obligation to pay.	2773390	1471990930952	1471990931054	t	84
5466	58317	No obligation to pay.	No obligation to pay.	2773414	1471990931024	1471990931173	o	79
5466	58317	No obligation to pay.	No obligation to pay.	2773416	1471990931142	1471990931285	 	32
5466	58317	No obligation to pay.	No obligation to pay.	2773420	1471990931285	1471990931411	p	80
5466	58317	No obligation to pay.	No obligation to pay.	2773423	1471990931470	1471990931615	a	65
5466	58317	No obligation to pay.	No obligation to pay.	2773429	1471990931613	1471990931670	y	89
5466	58317	No obligation to pay.	No obligation to pay.	2773434	1471990931878	1471990931981	.	190
5466	58330	We will address tomorrow with Stan.	We will address tomorrow with Stan.	2773772	1471990935277	1471990936519	SHIFT	16
5466	58330	We will address tomorrow with Stan.	We will address tomorrow with Stan.	2773774	1471990936520	1471990936640	w	87
5466	58330	We will address tomorrow with Stan.	We will address tomorrow with Stan.	2773780	1471990936582	1471990936746	e	69
5466	58330	We will address tomorrow with Stan.	We will address tomorrow with Stan.	2773776	1471990936638	1471990936709	l	76
5466	58330	We will address tomorrow with Stan.	We will address tomorrow with Stan.	2773784	1471990937332	1471990937483	BKSP	8
5466	58330	We will address tomorrow with Stan.	We will address tomorrow with Stan.	2773789	1471990937538	1471990937642	 	32
5466	58330	We will address tomorrow with Stan.	We will address tomorrow with Stan.	2773795	1471990937801	1471990937871	BKSP	8
5466	58330	We will address tomorrow with Stan.	We will address tomorrow with Stan.	2773800	1471990937974	1471990938030	BKSP	8
5466	58330	We will address tomorrow with Stan.	We will address tomorrow with Stan.	2773806	1471990938132	1471990938211	BKSP	8
5466	58330	We will address tomorrow with Stan.	We will address tomorrow with Stan.	2773814	1471990938774	1471990939124	SHIFT	16
5466	58330	We will address tomorrow with Stan.	We will address tomorrow with Stan.	2773844	1471990939054	1471990939181	W	87
5466	58330	We will address tomorrow with Stan.	We will address tomorrow with Stan.	2773847	1471990939196	1471990939308	e	69
5466	58330	We will address tomorrow with Stan.	We will address tomorrow with Stan.	2773852	1471990939325	1471990939436	 	32
5466	58330	We will address tomorrow with Stan.	We will address tomorrow with Stan.	2773857	1471990939600	1471990939694	w	87
5466	58330	We will address tomorrow with Stan.	We will address tomorrow with Stan.	2773860	1471990939792	1471990939943	i	73
5466	58330	We will address tomorrow with Stan.	We will address tomorrow with Stan.	2773939	1471990939912	1471990940036	l	76
5466	58330	We will address tomorrow with Stan.	We will address tomorrow with Stan.	2773942	1471990940015	1471990940108	 	32
5466	58330	We will address tomorrow with Stan.	We will address tomorrow with Stan.	2773945	1471990940147	1471990940322	l	76
5466	58330	We will address tomorrow with Stan.	We will address tomorrow with Stan.	2773950	1471990940594	1471990940697	BKSP	8
5466	58330	We will address tomorrow with Stan.	We will address tomorrow with Stan.	2773955	1471990940777	1471990940839	BKSP	8
5466	58330	We will address tomorrow with Stan.	We will address tomorrow with Stan.	2773961	1471990941261	1471990941435	l	76
5466	58330	We will address tomorrow with Stan.	We will address tomorrow with Stan.	2773967	1471990941413	1471990941527	 	32
5466	58330	We will address tomorrow with Stan.	We will address tomorrow with Stan.	2773973	1471990941528	1471990941663	a	65
5466	58330	We will address tomorrow with Stan.	We will address tomorrow with Stan.	2773999	1471990941661	1471990941741	d	68
5466	58330	We will address tomorrow with Stan.	We will address tomorrow with Stan.	2774002	1471990941860	1471990941955	d	68
5466	58330	We will address tomorrow with Stan.	We will address tomorrow with Stan.	2774007	1471990942043	1471990942144	r	82
5466	58330	We will address tomorrow with Stan.	We will address tomorrow with Stan.	2774010	1471990942113	1471990942183	e	69
5466	58330	We will address tomorrow with Stan.	We will address tomorrow with Stan.	2774013	1471990942213	1471990942341	s	83
5466	58330	We will address tomorrow with Stan.	We will address tomorrow with Stan.	2774016	1471990942444	1471990942634	s	83
5466	58330	We will address tomorrow with Stan.	We will address tomorrow with Stan.	2774037	1471990942582	1471990942700	 	32
5466	58330	We will address tomorrow with Stan.	We will address tomorrow with Stan.	2774043	1471990942809	1471990942915	t	84
5466	58330	We will address tomorrow with Stan.	We will address tomorrow with Stan.	2774052	1471990942913	1471990943087	o	79
5466	58330	We will address tomorrow with Stan.	We will address tomorrow with Stan.	2774059	1471990943087	1471990943227	m	77
5466	58330	We will address tomorrow with Stan.	We will address tomorrow with Stan.	2774065	1471990943205	1471990943363	o	79
5466	58330	We will address tomorrow with Stan.	We will address tomorrow with Stan.	2774096	1471990943338	1471990943416	r	82
5466	58330	We will address tomorrow with Stan.	We will address tomorrow with Stan.	2774100	1471990943503	1471990943613	r	82
5466	58330	We will address tomorrow with Stan.	We will address tomorrow with Stan.	2774104	1471990943560	1471990943804	o	79
5466	58330	We will address tomorrow with Stan.	We will address tomorrow with Stan.	2774108	1471990943707	1471990943824	w	87
5466	58330	We will address tomorrow with Stan.	We will address tomorrow with Stan.	2774115	1471990943750	1471990943899	 	32
5466	58330	We will address tomorrow with Stan.	We will address tomorrow with Stan.	2774119	1471990944023	1471990944142	w	87
5466	58330	We will address tomorrow with Stan.	We will address tomorrow with Stan.	2774167	1471990944199	1471990944386	i	73
5466	58330	We will address tomorrow with Stan.	We will address tomorrow with Stan.	2774160	1471990944221	1471990944366	t	84
5466	58330	We will address tomorrow with Stan.	We will address tomorrow with Stan.	2774173	1471990944364	1471990944537	h	72
5466	58330	We will address tomorrow with Stan.	We will address tomorrow with Stan.	2774177	1471990944467	1471990944601	 	32
5466	58330	We will address tomorrow with Stan.	We will address tomorrow with Stan.	2774184	1471990944741	1471990944996	a	65
5466	58330	We will address tomorrow with Stan.	We will address tomorrow with Stan.	2774343	1471990945263	1471990945397	BKSP	8
5466	58330	We will address tomorrow with Stan.	We will address tomorrow with Stan.	2774350	1471990945353	1471990945582	SHIFT	16
5466	58330	We will address tomorrow with Stan.	We will address tomorrow with Stan.	2774352	1471990945528	1471990945640	S	83
5466	58330	We will address tomorrow with Stan.	We will address tomorrow with Stan.	2774356	1471990945767	1471990945852	t	84
5466	58330	We will address tomorrow with Stan.	We will address tomorrow with Stan.	2774360	1471990945828	1471990945970	a	65
5466	58330	We will address tomorrow with Stan.	We will address tomorrow with Stan.	2774363	1471990946131	1471990946242	n	78
5466	58330	We will address tomorrow with Stan.	We will address tomorrow with Stan.	2774367	1471990946635	1471990946786	.	190
5466	58345	A bit behind on my emails.	A bit behind on my email.	2774606	1471990949116	1471990949275	SHIFT	16
5466	58345	A bit behind on my emails.	A bit behind on my email.	2774609	1471990949970	1471990950793	SHIFT	16
5466	58345	A bit behind on my emails.	A bit behind on my email.	2774611	1471990950731	1471990950875	A	65
5466	58345	A bit behind on my emails.	A bit behind on my email.	2774613	1471990950873	1471990950987	 	32
5466	58345	A bit behind on my emails.	A bit behind on my email.	2774616	1471990951063	1471990951224	b	66
5466	58345	A bit behind on my emails.	A bit behind on my email.	2774620	1471990951222	1471990951398	i	73
5466	58345	A bit behind on my emails.	A bit behind on my email.	2774625	1471990951398	1471990951475	t	84
5466	58345	A bit behind on my emails.	A bit behind on my email.	2774784	1471990951525	1471990951628	 	32
5466	58345	A bit behind on my emails.	A bit behind on my email.	2774788	1471990951721	1471990951823	h	72
5466	58345	A bit behind on my emails.	A bit behind on my email.	2774794	1471990951824	1471990951917	e	69
5466	58345	A bit behind on my emails.	A bit behind on my email.	2774800	1471990952512	1471990952559	BKSP	8
5466	58345	A bit behind on my emails.	A bit behind on my email.	2774803	1471990953982	1471990954109	BKSP	8
5466	58345	A bit behind on my emails.	A bit behind on my email.	2774805	1471990954281	1471990954407	b	66
5466	58345	A bit behind on my emails.	A bit behind on my email.	2774807	1471990954408	1471990954511	e	69
5466	58345	A bit behind on my emails.	A bit behind on my email.	2774814	1471990954535	1471990954679	h	72
5466	58345	A bit behind on my emails.	A bit behind on my email.	2774817	1471990954677	1471990954859	i	73
5466	58345	A bit behind on my emails.	A bit behind on my email.	2774824	1471990954787	1471990954952	n	78
5466	58345	A bit behind on my emails.	A bit behind on my email.	2774829	1471990954888	1471990955029	d	68
5466	58345	A bit behind on my emails.	A bit behind on my email.	2774883	1471990955009	1471990955135	 	32
5466	58345	A bit behind on my emails.	A bit behind on my email.	2774887	1471990955119	1471990955333	o	79
5466	58345	A bit behind on my emails.	A bit behind on my email.	2774888	1471990955259	1471990955409	n	78
5466	58345	A bit behind on my emails.	A bit behind on my email.	2774891	1471990955330	1471990955506	 	32
5466	58345	A bit behind on my emails.	A bit behind on my email.	2774894	1471990955839	1471990955949	m	77
5466	58345	A bit behind on my emails.	A bit behind on my email.	2774898	1471990956078	1471990956171	y	89
5466	58345	A bit behind on my emails.	A bit behind on my email.	2774970	1471990956150	1471990956236	 	32
5466	58345	A bit behind on my emails.	A bit behind on my email.	2774972	1471990956336	1471990956439	e	69
5466	58345	A bit behind on my emails.	A bit behind on my email.	2774974	1471990956384	1471990956502	m	77
5466	58345	A bit behind on my emails.	A bit behind on my email.	2774978	1471990956550	1471990956674	i	73
5466	58345	A bit behind on my emails.	A bit behind on my email.	2774981	1471990956675	1471990956817	a	65
5466	58345	A bit behind on my emails.	A bit behind on my email.	2774991	1471990957156	1471990957252	BKSP	8
5466	58345	A bit behind on my emails.	A bit behind on my email.	2774997	1471990957313	1471990957385	BKSP	8
5466	58345	A bit behind on my emails.	A bit behind on my email.	2775003	1471990957412	1471990957515	a	65
5466	58345	A bit behind on my emails.	A bit behind on my email.	2775030	1471990957580	1471990957675	i	73
5466	58345	A bit behind on my emails.	A bit behind on my email.	2775032	1471990957620	1471990957738	l	76
5466	58345	A bit behind on my emails.	A bit behind on my email.	2775035	1471990957850	1471990957976	.	190
5466	58361	Clinton has pressed for a multilateral lifting of the embargo.	Clinon has pressed for a multilateral lifting of th eembargo	2775203	1471990960761	1471990961935	SHIFT	16
5466	58361	Clinton has pressed for a multilateral lifting of the embargo.	Clinon has pressed for a multilateral lifting of th eembargo	2775207	1471990961906	1471990962055	C	67
5466	58361	Clinton has pressed for a multilateral lifting of the embargo.	Clinon has pressed for a multilateral lifting of th eembargo	2775211	1471990961978	1471990962144	l	76
5466	58361	Clinton has pressed for a multilateral lifting of the embargo.	Clinon has pressed for a multilateral lifting of th eembargo	2775216	1471990962087	1471990962293	i	73
5466	58361	Clinton has pressed for a multilateral lifting of the embargo.	Clinon has pressed for a multilateral lifting of th eembargo	2775221	1471990962254	1471990962468	n	78
5466	58361	Clinton has pressed for a multilateral lifting of the embargo.	Clinon has pressed for a multilateral lifting of th eembargo	2775246	1471990962466	1471990962665	o	79
5466	58361	Clinton has pressed for a multilateral lifting of the embargo.	Clinon has pressed for a multilateral lifting of th eembargo	2775248	1471990962616	1471990962757	n	78
5466	58361	Clinton has pressed for a multilateral lifting of the embargo.	Clinon has pressed for a multilateral lifting of th eembargo	2775251	1471990962704	1471990962854	 	32
5466	58361	Clinton has pressed for a multilateral lifting of the embargo.	Clinon has pressed for a multilateral lifting of th eembargo	2775258	1471990962907	1471990963040	h	72
5466	58361	Clinton has pressed for a multilateral lifting of the embargo.	Clinon has pressed for a multilateral lifting of th eembargo	2775263	1471990962928	1471990963085	a	65
5466	58361	Clinton has pressed for a multilateral lifting of the embargo.	Clinon has pressed for a multilateral lifting of th eembargo	2775354	1471990963041	1471990963204	s	83
5466	58361	Clinton has pressed for a multilateral lifting of the embargo.	Clinon has pressed for a multilateral lifting of th eembargo	2775356	1471990963145	1471990963278	 	32
5466	58361	Clinton has pressed for a multilateral lifting of the embargo.	Clinon has pressed for a multilateral lifting of th eembargo	2775358	1471990963347	1471990963545	r	82
5466	58361	Clinton has pressed for a multilateral lifting of the embargo.	Clinon has pressed for a multilateral lifting of th eembargo	2775361	1471990963388	1471990963586	p	80
5466	58361	Clinton has pressed for a multilateral lifting of the embargo.	Clinon has pressed for a multilateral lifting of th eembargo	2775365	1471990963994	1471990964081	BKSP	8
5466	58361	Clinton has pressed for a multilateral lifting of the embargo.	Clinon has pressed for a multilateral lifting of th eembargo	2775368	1471990964136	1471990964223	BKSP	8
5466	58361	Clinton has pressed for a multilateral lifting of the embargo.	Clinon has pressed for a multilateral lifting of th eembargo	2775371	1471990964291	1471990964466	r	82
5466	58361	Clinton has pressed for a multilateral lifting of the embargo.	Clinon has pressed for a multilateral lifting of th eembargo	2775400	1471990964420	1471990964530	p	80
5466	58361	Clinton has pressed for a multilateral lifting of the embargo.	Clinon has pressed for a multilateral lifting of th eembargo	2775401	1471990964714	1471990964793	BKSP	8
5466	58361	Clinton has pressed for a multilateral lifting of the embargo.	Clinon has pressed for a multilateral lifting of th eembargo	2775402	1471990964880	1471990964967	BKSP	8
5466	58361	Clinton has pressed for a multilateral lifting of the embargo.	Clinon has pressed for a multilateral lifting of th eembargo	2775403	1471990965174	1471990965265	p	80
5466	58361	Clinton has pressed for a multilateral lifting of the embargo.	Clinon has pressed for a multilateral lifting of th eembargo	2775407	1471990965195	1471990965351	r	82
5466	58361	Clinton has pressed for a multilateral lifting of the embargo.	Clinon has pressed for a multilateral lifting of th eembargo	2775411	1471990965265	1471990965398	e	69
5466	58361	Clinton has pressed for a multilateral lifting of the embargo.	Clinon has pressed for a multilateral lifting of th eembargo	2775416	1471990965351	1471990965476	s	83
5466	58361	Clinton has pressed for a multilateral lifting of the embargo.	Clinon has pressed for a multilateral lifting of th eembargo	2775422	1471990965555	1471990965732	s	83
5466	58361	Clinton has pressed for a multilateral lifting of the embargo.	Clinon has pressed for a multilateral lifting of th eembargo	2775458	1471990965730	1471990965897	e	69
5466	58361	Clinton has pressed for a multilateral lifting of the embargo.	Clinon has pressed for a multilateral lifting of th eembargo	2775463	1471990966079	1471990966183	d	68
5466	58361	Clinton has pressed for a multilateral lifting of the embargo.	Clinon has pressed for a multilateral lifting of th eembargo	2775470	1471990966249	1471990966359	 	32
5466	58361	Clinton has pressed for a multilateral lifting of the embargo.	Clinon has pressed for a multilateral lifting of th eembargo	2775475	1471990966452	1471990966556	f	70
5466	58361	Clinton has pressed for a multilateral lifting of the embargo.	Clinon has pressed for a multilateral lifting of th eembargo	2775477	1471990966554	1471990966784	o	79
5466	58361	Clinton has pressed for a multilateral lifting of the embargo.	Clinon has pressed for a multilateral lifting of th eembargo	2775602	1471990966657	1471990966785	r	82
5466	58361	Clinton has pressed for a multilateral lifting of the embargo.	Clinon has pressed for a multilateral lifting of th eembargo	2775603	1471990966699	1471990966824	 	32
5466	58361	Clinton has pressed for a multilateral lifting of the embargo.	Clinon has pressed for a multilateral lifting of th eembargo	2775606	1471990966883	1471990966985	a	65
5466	58361	Clinton has pressed for a multilateral lifting of the embargo.	Clinon has pressed for a multilateral lifting of th eembargo	2775609	1471990966966	1471990967101	 	32
5466	58361	Clinton has pressed for a multilateral lifting of the embargo.	Clinon has pressed for a multilateral lifting of th eembargo	2775613	1471990967218	1471990967353	m	77
5466	58361	Clinton has pressed for a multilateral lifting of the embargo.	Clinon has pressed for a multilateral lifting of th eembargo	2775620	1471990967704	1471990967775	i	73
5466	58361	Clinton has pressed for a multilateral lifting of the embargo.	Clinon has pressed for a multilateral lifting of th eembargo	2775624	1471990968264	1471990968374	BKSP	8
5466	58361	Clinton has pressed for a multilateral lifting of the embargo.	Clinon has pressed for a multilateral lifting of th eembargo	2775628	1471990968740	1471990968820	u	85
5466	58361	Clinton has pressed for a multilateral lifting of the embargo.	Clinon has pressed for a multilateral lifting of th eembargo	2775640	1471990968860	1471990969051	l	76
5466	58361	Clinton has pressed for a multilateral lifting of the embargo.	Clinon has pressed for a multilateral lifting of th eembargo	2775642	1471990969089	1471990969169	t	84
5466	58361	Clinton has pressed for a multilateral lifting of the embargo.	Clinon has pressed for a multilateral lifting of th eembargo	2775648	1471990969167	1471990969279	i	73
5466	58361	Clinton has pressed for a multilateral lifting of the embargo.	Clinon has pressed for a multilateral lifting of th eembargo	2775655	1471990969406	1471990969578	l	76
5466	58361	Clinton has pressed for a multilateral lifting of the embargo.	Clinon has pressed for a multilateral lifting of th eembargo	2775680	1471990969490	1471990969632	a	65
5466	58361	Clinton has pressed for a multilateral lifting of the embargo.	Clinon has pressed for a multilateral lifting of th eembargo	2775684	1471990969580	1471990969743	t	84
5466	58361	Clinton has pressed for a multilateral lifting of the embargo.	Clinon has pressed for a multilateral lifting of th eembargo	2775689	1471990969743	1471990969908	e	69
5466	58361	Clinton has pressed for a multilateral lifting of the embargo.	Clinon has pressed for a multilateral lifting of th eembargo	2775696	1471990969846	1471990970003	r	82
5466	58361	Clinton has pressed for a multilateral lifting of the embargo.	Clinon has pressed for a multilateral lifting of th eembargo	2775700	1471990970003	1471990970127	a	65
5466	58361	Clinton has pressed for a multilateral lifting of the embargo.	Clinon has pressed for a multilateral lifting of th eembargo	2775740	1471990970091	1471990970264	l	76
5466	58361	Clinton has pressed for a multilateral lifting of the embargo.	Clinon has pressed for a multilateral lifting of th eembargo	2775746	1471990970194	1471990970335	 	32
5466	58361	Clinton has pressed for a multilateral lifting of the embargo.	Clinon has pressed for a multilateral lifting of th eembargo	2775750	1471990970527	1471990970653	l	76
5466	58361	Clinton has pressed for a multilateral lifting of the embargo.	Clinon has pressed for a multilateral lifting of th eembargo	2775756	1471990970606	1471990970761	i	73
5466	58361	Clinton has pressed for a multilateral lifting of the embargo.	Clinon has pressed for a multilateral lifting of th eembargo	2775762	1471990970714	1471990970792	f	70
5466	58361	Clinton has pressed for a multilateral lifting of the embargo.	Clinon has pressed for a multilateral lifting of th eembargo	2775765	1471990970911	1471990971014	t	84
5466	58361	Clinton has pressed for a multilateral lifting of the embargo.	Clinon has pressed for a multilateral lifting of th eembargo	2775792	1471990971013	1471990971124	i	73
5466	58361	Clinton has pressed for a multilateral lifting of the embargo.	Clinon has pressed for a multilateral lifting of th eembargo	2775796	1471990971101	1471990971211	n	78
5466	58361	Clinton has pressed for a multilateral lifting of the embargo.	Clinon has pressed for a multilateral lifting of th eembargo	2775799	1471990971297	1471990971424	g	71
5466	58361	Clinton has pressed for a multilateral lifting of the embargo.	Clinon has pressed for a multilateral lifting of th eembargo	2775801	1471990971403	1471990971505	 	32
5466	58361	Clinton has pressed for a multilateral lifting of the embargo.	Clinon has pressed for a multilateral lifting of th eembargo	2775833	1471990971480	1471990971756	o	79
5466	58361	Clinton has pressed for a multilateral lifting of the embargo.	Clinon has pressed for a multilateral lifting of th eembargo	2775804	1471990971637	1471990971728	f	70
5466	58361	Clinton has pressed for a multilateral lifting of the embargo.	Clinon has pressed for a multilateral lifting of th eembargo	2775839	1471990971725	1471990971835	 	32
5466	58361	Clinton has pressed for a multilateral lifting of the embargo.	Clinon has pressed for a multilateral lifting of th eembargo	2775844	1471990972152	1471990972302	t	84
5466	58361	Clinton has pressed for a multilateral lifting of the embargo.	Clinon has pressed for a multilateral lifting of th eembargo	2775846	1471990972256	1471990972412	h	72
5466	58361	Clinton has pressed for a multilateral lifting of the embargo.	Clinon has pressed for a multilateral lifting of th eembargo	2775849	1471990972359	1471990972515	e	32
5466	58361	Clinton has pressed for a multilateral lifting of the embargo.	Clinon has pressed for a multilateral lifting of th eembargo	2775851	1471990972592	1471990972702	e	69
5466	58361	Clinton has pressed for a multilateral lifting of the embargo.	Clinon has pressed for a multilateral lifting of th eembargo	2775864	1471990972672	1471990972790	m	77
5466	58361	Clinton has pressed for a multilateral lifting of the embargo.	Clinon has pressed for a multilateral lifting of th eembargo	2775867	1471990972949	1471990973115	b	66
5466	58361	Clinton has pressed for a multilateral lifting of the embargo.	Clinon has pressed for a multilateral lifting of th eembargo	2775870	1471990973026	1471990973136	a	65
5466	58361	Clinton has pressed for a multilateral lifting of the embargo.	Clinon has pressed for a multilateral lifting of th eembargo	2775874	1471990973225	1471990973336	r	82
5466	58361	Clinton has pressed for a multilateral lifting of the embargo.	Clinon has pressed for a multilateral lifting of th eembargo	2775879	1471990973367	1471990973510	g	71
5466	58361	Clinton has pressed for a multilateral lifting of the embargo.	Clinon has pressed for a multilateral lifting of th eembargo	2775882	1471990973526	1471990973710	o	79
5466	58382	They spent about two hours at Larnaca airport.	They spend about two hours at Larnaca airport.	2776016	1471990975945	1471990976168	SHIFT	16
5466	58382	They spent about two hours at Larnaca airport.	They spend about two hours at Larnaca airport.	2776019	1471990976090	1471990976294	T	84
5466	58382	They spent about two hours at Larnaca airport.	They spend about two hours at Larnaca airport.	2776024	1471990976169	1471990976309	h	72
5466	58382	They spent about two hours at Larnaca airport.	They spend about two hours at Larnaca airport.	2776031	1471990976230	1471990976395	e	69
5466	58382	They spent about two hours at Larnaca airport.	They spend about two hours at Larnaca airport.	2776038	1471990976459	1471990976610	y	89
5466	58382	They spent about two hours at Larnaca airport.	They spend about two hours at Larnaca airport.	2776082	1471990976580	1471990976706	 	32
5466	58382	They spent about two hours at Larnaca airport.	They spend about two hours at Larnaca airport.	2776089	1471990976725	1471990976900	s	83
5466	58382	They spent about two hours at Larnaca airport.	They spend about two hours at Larnaca airport.	2776095	1471990976832	1471990977013	p	80
5466	58382	They spent about two hours at Larnaca airport.	They spend about two hours at Larnaca airport.	2776100	1471990976979	1471990977098	e	69
5466	58382	They spent about two hours at Larnaca airport.	They spend about two hours at Larnaca airport.	2776104	1471990977130	1471990977312	n	78
5466	58382	They spent about two hours at Larnaca airport.	They spend about two hours at Larnaca airport.	2776122	1471990977232	1471990977354	d	68
5466	58382	They spent about two hours at Larnaca airport.	They spend about two hours at Larnaca airport.	2776125	1471990977352	1471990977469	 	32
5466	58382	They spent about two hours at Larnaca airport.	They spend about two hours at Larnaca airport.	2776128	1471990977443	1471990977624	a	65
5466	58382	They spent about two hours at Larnaca airport.	They spend about two hours at Larnaca airport.	2776129	1471990977538	1471990977650	b	66
5466	58382	They spent about two hours at Larnaca airport.	They spend about two hours at Larnaca airport.	2776132	1471990977649	1471990977871	o	79
5466	58382	They spent about two hours at Larnaca airport.	They spend about two hours at Larnaca airport.	2776142	1471990977783	1471990977996	u	85
5466	58382	They spent about two hours at Larnaca airport.	They spend about two hours at Larnaca airport.	2776144	1471990977873	1471990977999	t	84
5466	58382	They spent about two hours at Larnaca airport.	They spend about two hours at Larnaca airport.	2776146	1471990977994	1471990978112	 	32
5466	58382	They spent about two hours at Larnaca airport.	They spend about two hours at Larnaca airport.	2776149	1471990978112	1471990978150	w	87
5466	58382	They spent about two hours at Larnaca airport.	They spend about two hours at Larnaca airport.	2776152	1471990978181	1471990978308	t	84
5466	58382	They spent about two hours at Larnaca airport.	They spend about two hours at Larnaca airport.	2776254	1471990978284	1471990978401	w	87
5466	58382	They spent about two hours at Larnaca airport.	They spend about two hours at Larnaca airport.	2776256	1471990978547	1471990978610	=	187
5466	58382	They spent about two hours at Larnaca airport.	They spend about two hours at Larnaca airport.	2776258	1471990978714	1471990978802	BKSP	8
5466	58382	They spent about two hours at Larnaca airport.	They spend about two hours at Larnaca airport.	2776260	1471990978897	1471990978928	BKSP	8
5466	58382	They spent about two hours at Larnaca airport.	They spend about two hours at Larnaca airport.	2776263	1471990979015	1471990979118	BKSP	8
5466	58382	They spent about two hours at Larnaca airport.	They spend about two hours at Larnaca airport.	2776266	1471990979178	1471990979304	t	84
5466	58382	They spent about two hours at Larnaca airport.	They spend about two hours at Larnaca airport.	2776274	1471990979281	1471990979429	w	87
5466	58382	They spent about two hours at Larnaca airport.	They spend about two hours at Larnaca airport.	2776270	1471990979371	1471990979407	o	79
5466	58382	They spent about two hours at Larnaca airport.	They spend about two hours at Larnaca airport.	2776279	1471990979599	1471990979710	BKSP	8
5466	58382	They spent about two hours at Larnaca airport.	They spend about two hours at Larnaca airport.	2776283	1471990979749	1471990979861	BKSP	8
5466	58382	They spent about two hours at Larnaca airport.	They spend about two hours at Larnaca airport.	2776285	1471990979931	1471990980011	BKSP	8
5466	58382	They spent about two hours at Larnaca airport.	They spend about two hours at Larnaca airport.	2776289	1471990980089	1471990980185	BKSP	8
5466	58382	They spent about two hours at Larnaca airport.	They spend about two hours at Larnaca airport.	2776292	1471990980253	1471990980363	t	84
5466	58382	They spent about two hours at Larnaca airport.	They spend about two hours at Larnaca airport.	2776296	1471990980315	1471990980472	w	87
5466	58382	They spent about two hours at Larnaca airport.	They spend about two hours at Larnaca airport.	2776297	1471990980436	1471990980632	o	79
5466	58382	They spent about two hours at Larnaca airport.	They spend about two hours at Larnaca airport.	2776298	1471990980570	1471990980696	 	32
5466	58382	They spent about two hours at Larnaca airport.	They spend about two hours at Larnaca airport.	2776299	1471990980901	1471990980974	h	72
5466	58382	They spent about two hours at Larnaca airport.	They spend about two hours at Larnaca airport.	2776301	1471990980971	1471990981171	o	79
5466	58382	They spent about two hours at Larnaca airport.	They spend about two hours at Larnaca airport.	2776323	1471990981107	1471990981232	u	85
5466	58382	They spent about two hours at Larnaca airport.	They spend about two hours at Larnaca airport.	2776325	1471990981193	1471990981342	r	82
5466	58382	They spent about two hours at Larnaca airport.	They spend about two hours at Larnaca airport.	2776330	1471990981261	1471990981437	s	83
5466	58382	They spent about two hours at Larnaca airport.	They spend about two hours at Larnaca airport.	2776334	1471990981434	1471990981557	 	32
5466	58382	They spent about two hours at Larnaca airport.	They spend about two hours at Larnaca airport.	2776338	1471990981752	1471990981927	a	65
5466	58382	They spent about two hours at Larnaca airport.	They spend about two hours at Larnaca airport.	2776374	1471990981873	1471990982046	t	84
5466	58382	They spent about two hours at Larnaca airport.	They spend about two hours at Larnaca airport.	2776378	1471990981977	1471990982159	 	32
5466	58382	They spent about two hours at Larnaca airport.	They spend about two hours at Larnaca airport.	2776383	1471990982160	1471990982305	l	76
5466	58382	They spent about two hours at Larnaca airport.	They spend about two hours at Larnaca airport.	2776387	1471990982258	1471990982306	a	65
5466	58382	They spent about two hours at Larnaca airport.	They spend about two hours at Larnaca airport.	2776392	1471990982531	1471990982617	BKSP	8
5466	58382	They spent about two hours at Larnaca airport.	They spend about two hours at Larnaca airport.	2776397	1471990982696	1471990982783	BKSP	8
5466	58382	They spent about two hours at Larnaca airport.	They spend about two hours at Larnaca airport.	2776404	1471990982858	1471990983041	SHIFT	16
5466	58382	They spent about two hours at Larnaca airport.	They spend about two hours at Larnaca airport.	2776408	1471990982981	1471990983147	L	76
5466	58382	They spent about two hours at Larnaca airport.	They spend about two hours at Larnaca airport.	2776410	1471990983183	1471990983310	a	65
5466	58382	They spent about two hours at Larnaca airport.	They spend about two hours at Larnaca airport.	2776452	1471990983343	1471990983438	r	82
5466	58382	They spent about two hours at Larnaca airport.	They spend about two hours at Larnaca airport.	2776453	1471990983477	1471990983596	n	78
5466	58382	They spent about two hours at Larnaca airport.	They spend about two hours at Larnaca airport.	2776456	1471990983811	1471990983930	c	67
5466	58382	They spent about two hours at Larnaca airport.	They spend about two hours at Larnaca airport.	2776459	1471990983931	1471990984048	a	65
5466	58382	They spent about two hours at Larnaca airport.	They spend about two hours at Larnaca airport.	2776462	1471990984347	1471990984442	BKSP	8
5466	58382	They spent about two hours at Larnaca airport.	They spend about two hours at Larnaca airport.	2776465	1471990984569	1471990984712	BKSP	8
5466	58382	They spent about two hours at Larnaca airport.	They spend about two hours at Larnaca airport.	2776468	1471990985203	1471990985314	a	65
5466	58382	They spent about two hours at Larnaca airport.	They spend about two hours at Larnaca airport.	2776562	1471990985818	1471990985953	c	67
5466	58382	They spent about two hours at Larnaca airport.	They spend about two hours at Larnaca airport.	2776567	1471990985991	1471990986134	a	65
5466	58382	They spent about two hours at Larnaca airport.	They spend about two hours at Larnaca airport.	2776572	1471990986091	1471990986217	 	32
5466	58382	They spent about two hours at Larnaca airport.	They spend about two hours at Larnaca airport.	2776575	1471990987156	1471990987458	SHIFT	16
5466	58382	They spent about two hours at Larnaca airport.	They spend about two hours at Larnaca airport.	2776578	1471990987379	1471990987490	A	65
5466	58382	They spent about two hours at Larnaca airport.	They spend about two hours at Larnaca airport.	2776580	1471990987555	1471990987674	i	73
5466	58382	They spent about two hours at Larnaca airport.	They spend about two hours at Larnaca airport.	2776661	1471990988323	1471990988410	BKSP	8
5466	58382	They spent about two hours at Larnaca airport.	They spend about two hours at Larnaca airport.	2776664	1471990988481	1471990988576	BKSP	8
5466	58382	They spent about two hours at Larnaca airport.	They spend about two hours at Larnaca airport.	2776667	1471990988619	1471990988786	a	65
5466	58382	They spent about two hours at Larnaca airport.	They spend about two hours at Larnaca airport.	2776670	1471990988804	1471990988947	i	73
5466	58382	They spent about two hours at Larnaca airport.	They spend about two hours at Larnaca airport.	2776672	1471990989321	1471990989418	r	82
5466	58382	They spent about two hours at Larnaca airport.	They spend about two hours at Larnaca airport.	2776676	1471990989642	1471990989721	p	80
5466	58382	They spent about two hours at Larnaca airport.	They spend about two hours at Larnaca airport.	2776679	1471990989831	1471990989902	o	79
5466	58382	They spent about two hours at Larnaca airport.	They spend about two hours at Larnaca airport.	2776735	1471990990036	1471990990147	t	84
5466	58382	They spent about two hours at Larnaca airport.	They spend about two hours at Larnaca airport.	2776737	1471990990485	1471990990605	BKSP	8
5466	58382	They spent about two hours at Larnaca airport.	They spend about two hours at Larnaca airport.	2776739	1471990990623	1471990990719	r	82
5466	58382	They spent about two hours at Larnaca airport.	They spend about two hours at Larnaca airport.	2776741	1471990990814	1471990990909	t	84
5466	58382	They spent about two hours at Larnaca airport.	They spend about two hours at Larnaca airport.	2776744	1471990991222	1471990991349	.	190
5466	58398	The Mercedes engine takes advantage of extra boost.	The Mercedes engine takes advantage of extra boost.	2776931	1471990993383	1471990993846	SHIFT	16
5466	58398	The Mercedes engine takes advantage of extra boost.	The Mercedes engine takes advantage of extra boost.	2776933	1471990993793	1471990993926	T	84
5466	58398	The Mercedes engine takes advantage of extra boost.	The Mercedes engine takes advantage of extra boost.	2776935	1471990993879	1471990994036	h	72
5466	58398	The Mercedes engine takes advantage of extra boost.	The Mercedes engine takes advantage of extra boost.	2776937	1471990993973	1471990994130	e	69
5466	58398	The Mercedes engine takes advantage of extra boost.	The Mercedes engine takes advantage of extra boost.	2776941	1471990994309	1471990994420	 	32
5466	58398	The Mercedes engine takes advantage of extra boost.	The Mercedes engine takes advantage of extra boost.	2776943	1471990994646	1471990994812	SHIFT	16
5466	58398	The Mercedes engine takes advantage of extra boost.	The Mercedes engine takes advantage of extra boost.	2777008	1471990994752	1471990994870	M	77
5466	58398	The Mercedes engine takes advantage of extra boost.	The Mercedes engine takes advantage of extra boost.	2777011	1471990994870	1471990994967	e	69
5466	58398	The Mercedes engine takes advantage of extra boost.	The Mercedes engine takes advantage of extra boost.	2777013	1471990994962	1471990995098	r	82
5466	58398	The Mercedes engine takes advantage of extra boost.	The Mercedes engine takes advantage of extra boost.	2777016	1471990995464	1471990995607	c	67
5466	58398	The Mercedes engine takes advantage of extra boost.	The Mercedes engine takes advantage of extra boost.	2777019	1471990995560	1471990995685	e	69
5466	58398	The Mercedes engine takes advantage of extra boost.	The Mercedes engine takes advantage of extra boost.	2777023	1471990995878	1471990995972	d	68
5466	58398	The Mercedes engine takes advantage of extra boost.	The Mercedes engine takes advantage of extra boost.	2777041	1471990996066	1471990996193	e	69
5466	58398	The Mercedes engine takes advantage of extra boost.	The Mercedes engine takes advantage of extra boost.	2777045	1471990996193	1471990996361	s	83
5466	58398	The Mercedes engine takes advantage of extra boost.	The Mercedes engine takes advantage of extra boost.	2777048	1471990996359	1471990996465	 	32
5466	58398	The Mercedes engine takes advantage of extra boost.	The Mercedes engine takes advantage of extra boost.	2777053	1471990996541	1471990996667	e	69
5466	58398	The Mercedes engine takes advantage of extra boost.	The Mercedes engine takes advantage of extra boost.	2777089	1471990996638	1471990996755	n	78
5466	58398	The Mercedes engine takes advantage of extra boost.	The Mercedes engine takes advantage of extra boost.	2777094	1471990996946	1471990997025	g	71
5466	58398	The Mercedes engine takes advantage of extra boost.	The Mercedes engine takes advantage of extra boost.	2777099	1471990997073	1471990997247	i	73
5466	58398	The Mercedes engine takes advantage of extra boost.	The Mercedes engine takes advantage of extra boost.	2777104	1471990997224	1471990997476	n	78
5466	58398	The Mercedes engine takes advantage of extra boost.	The Mercedes engine takes advantage of extra boost.	2777106	1471990997389	1471990997530	e	69
5466	58398	The Mercedes engine takes advantage of extra boost.	The Mercedes engine takes advantage of extra boost.	2777123	1471990997501	1471990997660	 	32
5466	58398	The Mercedes engine takes advantage of extra boost.	The Mercedes engine takes advantage of extra boost.	2777126	1471990997752	1471990997854	t	84
5466	58398	The Mercedes engine takes advantage of extra boost.	The Mercedes engine takes advantage of extra boost.	2777130	1471990997822	1471990998003	a	65
5466	58398	The Mercedes engine takes advantage of extra boost.	The Mercedes engine takes advantage of extra boost.	2777135	1471990997959	1471990998100	k	75
5466	58398	The Mercedes engine takes advantage of extra boost.	The Mercedes engine takes advantage of extra boost.	2777144	1471990998177	1471990998336	s	83
5466	58398	The Mercedes engine takes advantage of extra boost.	The Mercedes engine takes advantage of extra boost.	2777232	1471990998305	1471990998479	e	69
5466	58398	The Mercedes engine takes advantage of extra boost.	The Mercedes engine takes advantage of extra boost.	2777234	1471990998585	1471990998664	BKSP	8
5466	58398	The Mercedes engine takes advantage of extra boost.	The Mercedes engine takes advantage of extra boost.	2777237	1471990998767	1471990998874	BKSP	8
5466	58398	The Mercedes engine takes advantage of extra boost.	The Mercedes engine takes advantage of extra boost.	2777242	1471990998875	1471990998993	e	69
5466	58398	The Mercedes engine takes advantage of extra boost.	The Mercedes engine takes advantage of extra boost.	2777247	1471990998929	1471990999095	s	83
5466	58398	The Mercedes engine takes advantage of extra boost.	The Mercedes engine takes advantage of extra boost.	2777252	1471990999058	1471990999184	 	32
5466	58398	The Mercedes engine takes advantage of extra boost.	The Mercedes engine takes advantage of extra boost.	2777256	1471990999325	1471990999460	e	69
5466	58398	The Mercedes engine takes advantage of extra boost.	The Mercedes engine takes advantage of extra boost.	2777258	1471990999918	1471991000020	BKSP	8
5466	58398	The Mercedes engine takes advantage of extra boost.	The Mercedes engine takes advantage of extra boost.	2777329	1471990999977	1471991000103	a	65
5466	58398	The Mercedes engine takes advantage of extra boost.	The Mercedes engine takes advantage of extra boost.	2777331	1471991000118	1471991000263	d	68
5466	58398	The Mercedes engine takes advantage of extra boost.	The Mercedes engine takes advantage of extra boost.	2777334	1471991000477	1471991000612	v	86
5466	58398	The Mercedes engine takes advantage of extra boost.	The Mercedes engine takes advantage of extra boost.	2777335	1471991000613	1471991000762	a	65
5466	58398	The Mercedes engine takes advantage of extra boost.	The Mercedes engine takes advantage of extra boost.	2777337	1471991000939	1471991001050	n	78
5466	58398	The Mercedes engine takes advantage of extra boost.	The Mercedes engine takes advantage of extra boost.	2777340	1471991001168	1471991001232	t	84
5466	58398	The Mercedes engine takes advantage of extra boost.	The Mercedes engine takes advantage of extra boost.	2777391	1471991001261	1471991001420	a	65
5466	58398	The Mercedes engine takes advantage of extra boost.	The Mercedes engine takes advantage of extra boost.	2777397	1471991001484	1471991001627	g	71
5466	58398	The Mercedes engine takes advantage of extra boost.	The Mercedes engine takes advantage of extra boost.	2777405	1471991001571	1471991001728	e	69
5466	58398	The Mercedes engine takes advantage of extra boost.	The Mercedes engine takes advantage of extra boost.	2777411	1471991001684	1471991001833	 	32
5466	58398	The Mercedes engine takes advantage of extra boost.	The Mercedes engine takes advantage of extra boost.	2777418	1471991001834	1471991002078	o	79
5466	58398	The Mercedes engine takes advantage of extra boost.	The Mercedes engine takes advantage of extra boost.	2777479	1471991001998	1471991002163	f	70
5466	58398	The Mercedes engine takes advantage of extra boost.	The Mercedes engine takes advantage of extra boost.	2777484	1471991002126	1471991002245	 	32
5466	58398	The Mercedes engine takes advantage of extra boost.	The Mercedes engine takes advantage of extra boost.	2777489	1471991002295	1471991002408	e	69
5466	58398	The Mercedes engine takes advantage of extra boost.	The Mercedes engine takes advantage of extra boost.	2777496	1471991002510	1471991002694	x	88
5466	58398	The Mercedes engine takes advantage of extra boost.	The Mercedes engine takes advantage of extra boost.	2777501	1471991002845	1471991002932	t	84
5466	58398	The Mercedes engine takes advantage of extra boost.	The Mercedes engine takes advantage of extra boost.	2777580	1471991003011	1471991003224	r	82
5466	58398	The Mercedes engine takes advantage of extra boost.	The Mercedes engine takes advantage of extra boost.	2777505	1471991003090	1471991003137	e	69
5466	58398	The Mercedes engine takes advantage of extra boost.	The Mercedes engine takes advantage of extra boost.	2777584	1471991003139	1471991003305	a	65
5466	58398	The Mercedes engine takes advantage of extra boost.	The Mercedes engine takes advantage of extra boost.	2777589	1471991003664	1471991003751	BKSP	8
5466	58398	The Mercedes engine takes advantage of extra boost.	The Mercedes engine takes advantage of extra boost.	2777594	1471991003822	1471991003937	BKSP	8
5466	58398	The Mercedes engine takes advantage of extra boost.	The Mercedes engine takes advantage of extra boost.	2777598	1471991003937	1471991004072	a	65
5466	58398	The Mercedes engine takes advantage of extra boost.	The Mercedes engine takes advantage of extra boost.	2777602	1471991004331	1471991004402	 	32
5466	58398	The Mercedes engine takes advantage of extra boost.	The Mercedes engine takes advantage of extra boost.	2777605	1471991004494	1471991004589	b	66
5466	58398	The Mercedes engine takes advantage of extra boost.	The Mercedes engine takes advantage of extra boost.	2777608	1471991004622	1471991004710	o	79
5466	58398	The Mercedes engine takes advantage of extra boost.	The Mercedes engine takes advantage of extra boost.	2777624	1471991004780	1471991004898	o	79
5466	58398	The Mercedes engine takes advantage of extra boost.	The Mercedes engine takes advantage of extra boost.	2777629	1471991004848	1471991004998	s	83
5466	58398	The Mercedes engine takes advantage of extra boost.	The Mercedes engine takes advantage of extra boost.	2777633	1471991004952	1471991005077	t	84
5466	58398	The Mercedes engine takes advantage of extra boost.	The Mercedes engine takes advantage of extra boost.	2777639	1471991005030	1471991005132	,	188
5466	58398	The Mercedes engine takes advantage of extra boost.	The Mercedes engine takes advantage of extra boost.	2777642	1471991005308	1471991005403	.	190
5466	58398	The Mercedes engine takes advantage of extra boost.	The Mercedes engine takes advantage of extra boost.	2777680	1471991005619	1471991005739	BKSP	8
5466	58398	The Mercedes engine takes advantage of extra boost.	The Mercedes engine takes advantage of extra boost.	2777684	1471991005826	1471991005904	BKSP	8
5466	58398	The Mercedes engine takes advantage of extra boost.	The Mercedes engine takes advantage of extra boost.	2777688	1471991006150	1471991006230	.	190
5466	58419	Megan, we only bought this on KN for the 30th.	Megan, we only bought this on KN for the 30th.	2777774	1471991008360	1471991008614	SHIFT	16
5466	58419	Megan, we only bought this on KN for the 30th.	Megan, we only bought this on KN for the 30th.	2777778	1471991008514	1471991008631	M	77
5466	58419	Megan, we only bought this on KN for the 30th.	Megan, we only bought this on KN for the 30th.	2777781	1471991008616	1471991008709	e	69
5466	58419	Megan, we only bought this on KN for the 30th.	Megan, we only bought this on KN for the 30th.	2777784	1471991008845	1471991008988	g	71
5466	58419	Megan, we only bought this on KN for the 30th.	Megan, we only bought this on KN for the 30th.	2777785	1471991009042	1471991009144	a	65
5466	58419	Megan, we only bought this on KN for the 30th.	Megan, we only bought this on KN for the 30th.	2777786	1471991009161	1471991009336	n	78
5466	58419	Megan, we only bought this on KN for the 30th.	Megan, we only bought this on KN for the 30th.	2777898	1471991009299	1471991009401	 	32
5466	58419	Megan, we only bought this on KN for the 30th.	Megan, we only bought this on KN for the 30th.	2777903	1471991009976	1471991010023	BKSP	8
5466	58419	Megan, we only bought this on KN for the 30th.	Megan, we only bought this on KN for the 30th.	2777907	1471991010317	1471991010500	,	188
5466	58419	Megan, we only bought this on KN for the 30th.	Megan, we only bought this on KN for the 30th.	2777911	1471991010437	1471991010515	 	32
5466	58419	Megan, we only bought this on KN for the 30th.	Megan, we only bought this on KN for the 30th.	2777913	1471991010839	1471991010965	w	87
5466	58419	Megan, we only bought this on KN for the 30th.	Megan, we only bought this on KN for the 30th.	2777917	1471991010942	1471991011108	e	69
5466	58419	Megan, we only bought this on KN for the 30th.	Megan, we only bought this on KN for the 30th.	2777950	1471991011080	1471991011205	 	32
5466	58419	Megan, we only bought this on KN for the 30th.	Megan, we only bought this on KN for the 30th.	2777953	1471991011206	1471991011378	o	79
5466	58419	Megan, we only bought this on KN for the 30th.	Megan, we only bought this on KN for the 30th.	2777956	1471991011322	1471991011495	n	78
5466	58419	Megan, we only bought this on KN for the 30th.	Megan, we only bought this on KN for the 30th.	2777960	1471991011465	1471991011711	l	76
5466	58419	Megan, we only bought this on KN for the 30th.	Megan, we only bought this on KN for the 30th.	2777967	1471991011638	1471991011803	y	89
5466	58419	Megan, we only bought this on KN for the 30th.	Megan, we only bought this on KN for the 30th.	2778046	1471991011750	1471991011908	 	32
5466	58419	Megan, we only bought this on KN for the 30th.	Megan, we only bought this on KN for the 30th.	2778048	1471991011936	1471991012047	b	66
5466	58419	Megan, we only bought this on KN for the 30th.	Megan, we only bought this on KN for the 30th.	2778053	1471991012096	1471991012335	o	79
5466	58419	Megan, we only bought this on KN for the 30th.	Megan, we only bought this on KN for the 30th.	2778056	1471991012254	1471991012372	u	85
5466	58419	Megan, we only bought this on KN for the 30th.	Megan, we only bought this on KN for the 30th.	2778060	1471991012707	1471991012851	g	71
5466	58419	Megan, we only bought this on KN for the 30th.	Megan, we only bought this on KN for the 30th.	2778064	1471991012889	1471991013088	h	72
5466	58419	Megan, we only bought this on KN for the 30th.	Megan, we only bought this on KN for the 30th.	2778095	1471991013057	1471991013184	t	84
5466	58419	Megan, we only bought this on KN for the 30th.	Megan, we only bought this on KN for the 30th.	2778097	1471991013182	1471991013327	 	32
5466	58419	Megan, we only bought this on KN for the 30th.	Megan, we only bought this on KN for the 30th.	2778099	1471991013451	1471991013633	t	84
5466	58419	Megan, we only bought this on KN for the 30th.	Megan, we only bought this on KN for the 30th.	2778101	1471991013499	1471991013722	h	72
5466	58419	Megan, we only bought this on KN for the 30th.	Megan, we only bought this on KN for the 30th.	2778103	1471991013658	1471991013886	i	73
5466	58419	Megan, we only bought this on KN for the 30th.	Megan, we only bought this on KN for the 30th.	2778169	1471991013782	1471991013907	s	83
5466	58419	Megan, we only bought this on KN for the 30th.	Megan, we only bought this on KN for the 30th.	2778172	1471991013824	1471991014022	 	32
5466	58419	Megan, we only bought this on KN for the 30th.	Megan, we only bought this on KN for the 30th.	2778177	1471991014148	1471991014348	o	79
5466	58419	Megan, we only bought this on KN for the 30th.	Megan, we only bought this on KN for the 30th.	2778182	1471991014298	1471991014415	n	78
5466	58419	Megan, we only bought this on KN for the 30th.	Megan, we only bought this on KN for the 30th.	2778188	1471991014346	1471991014520	 	32
5466	58419	Megan, we only bought this on KN for the 30th.	Megan, we only bought this on KN for the 30th.	2778250	1471991014519	1471991015421	SHIFT	16
5466	58419	Megan, we only bought this on KN for the 30th.	Megan, we only bought this on KN for the 30th.	2778193	1471991014652	1471991014803	K	75
5466	58419	Megan, we only bought this on KN for the 30th.	Megan, we only bought this on KN for the 30th.	2778197	1471991015210	1471991015337	N	78
5466	58419	Megan, we only bought this on KN for the 30th.	Megan, we only bought this on KN for the 30th.	2778254	1471991015421	1471991015567	 	32
5466	58419	Megan, we only bought this on KN for the 30th.	Megan, we only bought this on KN for the 30th.	2778259	1471991015568	1471991015700	o	79
5466	58419	Megan, we only bought this on KN for the 30th.	Megan, we only bought this on KN for the 30th.	2778264	1471991015676	1471991015818	f	70
5466	58419	Megan, we only bought this on KN for the 30th.	Megan, we only bought this on KN for the 30th.	2778271	1471991016140	1471991016243	BKSP	8
5466	58419	Megan, we only bought this on KN for the 30th.	Megan, we only bought this on KN for the 30th.	2778275	1471991016313	1471991016385	BKSP	8
5466	58419	Megan, we only bought this on KN for the 30th.	Megan, we only bought this on KN for the 30th.	2778280	1471991016445	1471991016524	f	70
5466	58419	Megan, we only bought this on KN for the 30th.	Megan, we only bought this on KN for the 30th.	2778284	1471991016597	1471991016804	o	79
5466	58419	Megan, we only bought this on KN for the 30th.	Megan, we only bought this on KN for the 30th.	2778298	1471991016666	1471991016825	r	82
5466	58419	Megan, we only bought this on KN for the 30th.	Megan, we only bought this on KN for the 30th.	2778300	1471991016842	1471991016977	 	32
5466	58419	Megan, we only bought this on KN for the 30th.	Megan, we only bought this on KN for the 30th.	2778301	1471991017182	1471991017404	t	84
5466	58419	Megan, we only bought this on KN for the 30th.	Megan, we only bought this on KN for the 30th.	2778386	1471991017270	1471991017453	h	72
5466	58419	Megan, we only bought this on KN for the 30th.	Megan, we only bought this on KN for the 30th.	2778400	1471991017324	1471991017533	e	69
5466	58419	Megan, we only bought this on KN for the 30th.	Megan, we only bought this on KN for the 30th.	2778395	1471991017373	1471991017532	 	32
5466	58419	Megan, we only bought this on KN for the 30th.	Megan, we only bought this on KN for the 30th.	2778407	1471991018000	1471991018126	3	51
5466	58419	Megan, we only bought this on KN for the 30th.	Megan, we only bought this on KN for the 30th.	2778414	1471991018098	1471991018223	0	48
5466	58419	Megan, we only bought this on KN for the 30th.	Megan, we only bought this on KN for the 30th.	2778421	1471991018381	1471991018532	t	84
5466	58419	Megan, we only bought this on KN for the 30th.	Megan, we only bought this on KN for the 30th.	2778425	1471991018461	1471991018570	h	72
5466	58419	Megan, we only bought this on KN for the 30th.	Megan, we only bought this on KN for the 30th.	2778431	1471991018978	1471991019098	.	190
5466	58436	What did Mark say?	What did Mark say?	2778598	1471991021188	1471991021595	SHIFT	16
5466	58436	What did Mark say?	What did Mark say?	2778599	1471991021493	1471991021658	W	87
5466	58436	What did Mark say?	What did Mark say?	2778602	1471991021683	1471991021818	h	72
5466	58436	What did Mark say?	What did Mark say?	2778604	1471991021818	1471991021959	a	65
5466	58436	What did Mark say?	What did Mark say?	2778610	1471991021991	1471991022134	t	84
5466	58436	What did Mark say?	What did Mark say?	2778614	1471991022176	1471991022327	 	32
5466	58436	What did Mark say?	What did Mark say?	2778652	1471991022723	1471991022818	d	68
5466	58436	What did Mark say?	What did Mark say?	2778654	1471991022795	1471991022953	i	73
5466	58436	What did Mark say?	What did Mark say?	2778659	1471991022951	1471991023040	d	32
5466	58436	What did Mark say?	What did Mark say?	2778664	1471991023204	1471991023267	m	77
5466	58436	What did Mark say?	What did Mark say?	2778747	1471991023368	1471991023510	SHIFT	16
5466	58436	What did Mark say?	What did Mark say?	2778749	1471991023586	1471991023691	BKSP	8
5466	58436	What did Mark say?	What did Mark say?	2778752	1471991023761	1471991023816	BKSP	8
5466	58436	What did Mark say?	What did Mark say?	2778755	1471991023903	1471991023965	BKSP	8
5466	58436	What did Mark say?	What did Mark say?	2778757	1471991024017	1471991024153	d	68
5466	58436	What did Mark say?	What did Mark say?	2778763	1471991024179	1471991024298	 	32
5466	58436	What did Mark say?	What did Mark say?	2778767	1471991024396	1471991024757	SHIFT	16
5466	58436	What did Mark say?	What did Mark say?	2778771	1471991024646	1471991024758	M	77
5466	58436	What did Mark say?	What did Mark say?	2778777	1471991024881	1471991025016	A	20
5466	58436	What did Mark say?	What did Mark say?	2778964	1471991025014	1471991025157	R	82
5466	58436	What did Mark say?	What did Mark say?	2778968	1471991025127	1471991025269	K	75
5466	58436	What did Mark say?	What did Mark say?	2778973	1471991025318	1471991025365	 	32
5466	58436	What did Mark say?	What did Mark say?	2778979	1471991025435	1471991025555	BKSP	8
5466	58436	What did Mark say?	What did Mark say?	2778984	1471991025618	1471991025688	BKSP	8
5466	58436	What did Mark say?	What did Mark say?	2778991	1471991025768	1471991025839	BKSP	8
5466	58436	What did Mark say?	What did Mark say?	2778997	1471991025934	1471991026013	BKSP	8
5466	58436	What did Mark say?	What did Mark say?	2779003	1471991026080	1471991026191	CAPS_LOCK	20
5466	58436	What did Mark say?	What did Mark say?	2779009	1471991026408	1471991026528	=	187
5466	58436	What did Mark say?	What did Mark say?	2779014	1471991026880	1471991026975	BKSP	8
5466	58436	What did Mark say?	What did Mark say?	2779018	1471991027737	1471991027825	SHIFT	16
5466	58436	What did Mark say?	What did Mark say?	2779021	1471991028218	1471991028385	a	65
5466	58436	What did Mark say?	What did Mark say?	2779023	1471991028761	1471991028879	r	82
5466	58436	What did Mark say?	What did Mark say?	2779071	1471991028857	1471991028998	k	75
5466	58436	What did Mark say?	What did Mark say?	2779073	1471991028969	1471991029095	 	32
5466	58436	What did Mark say?	What did Mark say?	2779076	1471991029170	1471991029288	s	83
5466	58436	What did Mark say?	What did Mark say?	2779079	1471991029289	1471991029440	a	65
5466	58436	What did Mark say?	What did Mark say?	2779084	1471991029438	1471991029463	y	89
5466	58436	What did Mark say?	What did Mark say?	2779085	1471991029995	1471991030353	SHIFT	16
5466	58436	What did Mark say?	What did Mark say?	2779089	1471991030126	1471991030254	?	191
5466	58454	Call me anytime for information.	Call me anytiem for information.	2779286	1471991032974	1471991033157	SHIFT	16
5466	58454	Call me anytime for information.	Call me anytiem for information.	2779290	1471991033112	1471991033278	C	67
5466	58454	Call me anytime for information.	Call me anytiem for information.	2779294	1471991033278	1471991033425	a	65
5466	58454	Call me anytime for information.	Call me anytiem for information.	2779292	1471991033335	1471991033398	l	76
5466	58454	Call me anytime for information.	Call me anytiem for information.	2779297	1471991033491	1471991033706	l	76
5466	58454	Call me anytime for information.	Call me anytiem for information.	2779299	1471991033818	1471991033914	 	32
5466	58454	Call me anytime for information.	Call me anytiem for information.	2779359	1471991034062	1471991034167	e	69
5466	58454	Call me anytime for information.	Call me anytiem for information.	2779361	1471991034164	1471991034284	m	77
5466	58454	Call me anytime for information.	Call me anytiem for information.	2779365	1471991034468	1471991034565	BKSP	8
5466	58454	Call me anytime for information.	Call me anytiem for information.	2779370	1471991034643	1471991034730	BKSP	8
5466	58454	Call me anytime for information.	Call me anytiem for information.	2779380	1471991034943	1471991035135	m	77
5466	58454	Call me anytime for information.	Call me anytiem for information.	2779376	1471991034989	1471991035108	e	69
5466	58454	Call me anytime for information.	Call me anytiem for information.	2779458	1471991035133	1471991035248	 	32
5466	58454	Call me anytime for information.	Call me anytiem for information.	2779466	1471991035248	1471991035374	a	65
5466	58454	Call me anytime for information.	Call me anytiem for information.	2779475	1471991035329	1471991035446	n	78
5466	58454	Call me anytime for information.	Call me anytiem for information.	2779479	1471991035557	1471991035749	u	85
5466	58454	Call me anytime for information.	Call me anytiem for information.	2779488	1471991036124	1471991036171	y	89
5466	58454	Call me anytime for information.	Call me anytiem for information.	2779492	1471991036459	1471991036531	BKSP	8
5466	58454	Call me anytime for information.	Call me anytiem for information.	2779497	1471991036618	1471991036713	BKSP	8
5466	58454	Call me anytime for information.	Call me anytiem for information.	2779500	1471991036742	1471991036869	t	84
5466	58454	Call me anytime for information.	Call me anytiem for information.	2779608	1471991037156	1471991037195	t	84
5466	58454	Call me anytime for information.	Call me anytiem for information.	2779613	1471991037557	1471991037698	i	73
5466	58454	Call me anytime for information.	Call me anytiem for information.	2779618	1471991037875	1471991037978	BKSP	8
5466	58454	Call me anytime for information.	Call me anytiem for information.	2779623	1471991038049	1471991038104	BKSP	8
5466	58454	Call me anytime for information.	Call me anytiem for information.	2779630	1471991038175	1471991038262	BKSP	8
5466	58454	Call me anytime for information.	Call me anytiem for information.	2779637	1471991038739	1471991038826	y	89
5466	58454	Call me anytime for information.	Call me anytiem for information.	2779644	1471991038928	1471991039055	t	84
5466	58454	Call me anytime for information.	Call me anytiem for information.	2779670	1471991039025	1471991039229	i	73
5466	58454	Call me anytime for information.	Call me anytiem for information.	2779676	1471991039165	1471991039300	e	69
5466	58454	Call me anytime for information.	Call me anytiem for information.	2779680	1471991039206	1471991039451	m	77
5466	58454	Call me anytime for information.	Call me anytiem for information.	2779687	1471991039579	1471991039722	 	32
5466	58454	Call me anytime for information.	Call me anytiem for information.	2779691	1471991039697	1471991039810	f	70
5466	58454	Call me anytime for information.	Call me anytiem for information.	2779734	1471991039807	1471991040018	o	79
5466	58454	Call me anytime for information.	Call me anytiem for information.	2779738	1471991039893	1471991040019	r	82
5466	58454	Call me anytime for information.	Call me anytiem for information.	2779741	1471991039942	1471991040091	 	32
5466	58454	Call me anytime for information.	Call me anytiem for information.	2779744	1471991040169	1471991040319	i	73
5466	58454	Call me anytime for information.	Call me anytiem for information.	2779747	1471991040287	1471991040445	n	78
5466	58454	Call me anytime for information.	Call me anytiem for information.	2779749	1471991040997	1471991041125	f	70
5466	58454	Call me anytime for information.	Call me anytiem for information.	2779791	1471991041122	1471991041282	o	79
5466	58454	Call me anytime for information.	Call me anytiem for information.	2779795	1471991041241	1471991041383	r	82
5466	58454	Call me anytime for information.	Call me anytiem for information.	2779801	1471991041823	1471991041925	m	77
5466	58454	Call me anytime for information.	Call me anytiem for information.	2779803	1471991041908	1471991042069	a	65
5466	58454	Call me anytime for information.	Call me anytiem for information.	2779833	1471991042005	1471991042146	t	84
5466	58454	Call me anytime for information.	Call me anytiem for information.	2779834	1471991042067	1471991042208	i	73
5466	58454	Call me anytime for information.	Call me anytiem for information.	2779835	1471991042144	1471991042295	o	79
5466	58454	Call me anytime for information.	Call me anytiem for information.	2779836	1471991042208	1471991042349	n	78
5466	58454	Call me anytime for information.	Call me anytiem for information.	2779837	1471991042476	1471991042612	.	190
5466	58470	Can you bring these to 49C1?	Can you bring these to 49C1?	2780170	1471991044726	1471991044820	SHIFT	16
5466	58470	Can you bring these to 49C1?	Can you bring these to 49C1?	2780175	1471991045372	1471991045689	SHIFT	16
5466	58470	Can you bring these to 49C1?	Can you bring these to 49C1?	2780180	1471991045614	1471991045706	C	67
5466	58470	Can you bring these to 49C1?	Can you bring these to 49C1?	2780187	1471991045652	1471991045825	A	65
5466	58470	Can you bring these to 49C1?	Can you bring these to 49C1?	2780196	1471991046226	1471991046364	n	78
5466	58470	Can you bring these to 49C1?	Can you bring these to 49C1?	2780204	1471991046362	1471991046465	 	32
5466	58470	Can you bring these to 49C1?	Can you bring these to 49C1?	2780209	1471991046936	1471991047047	BKSP	8
5466	58470	Can you bring these to 49C1?	Can you bring these to 49C1?	2780217	1471991047119	1471991047206	BKSP	8
5466	58470	Can you bring these to 49C1?	Can you bring these to 49C1?	2780225	1471991047325	1471991047460	BKSP	8
5466	58470	Can you bring these to 49C1?	Can you bring these to 49C1?	2780231	1471991047662	1471991047829	a	65
5466	58470	Can you bring these to 49C1?	Can you bring these to 49C1?	2780236	1471991047744	1471991047893	n	78
5466	58470	Can you bring these to 49C1?	Can you bring these to 49C1?	2780241	1471991047856	1471991047958	 	32
5466	58470	Can you bring these to 49C1?	Can you bring these to 49C1?	2780246	1471991048058	1471991048130	y	89
5466	58470	Can you bring these to 49C1?	Can you bring these to 49C1?	2780249	1471991048154	1471991048386	o	79
5466	58470	Can you bring these to 49C1?	Can you bring these to 49C1?	2780332	1471991048272	1471991048421	u	85
5466	58470	Can you bring these to 49C1?	Can you bring these to 49C1?	2780333	1471991048384	1471991048486	 	32
5466	58470	Can you bring these to 49C1?	Can you bring these to 49C1?	2780337	1471991048547	1471991048682	b	66
5466	58470	Can you bring these to 49C1?	Can you bring these to 49C1?	2780338	1471991049205	1471991049310	r	82
5466	58470	Can you bring these to 49C1?	Can you bring these to 49C1?	2780340	1471991049309	1471991049435	i	73
5466	58470	Can you bring these to 49C1?	Can you bring these to 49C1?	2780342	1471991049412	1471991049521	n	78
5466	58470	Can you bring these to 49C1?	Can you bring these to 49C1?	2780350	1471991049656	1471991049798	g	71
5466	58470	Can you bring these to 49C1?	Can you bring these to 49C1?	2780385	1471991049824	1471991049943	 	32
5466	58470	Can you bring these to 49C1?	Can you bring these to 49C1?	2780387	1471991049996	1471991050201	t	84
5466	58470	Can you bring these to 49C1?	Can you bring these to 49C1?	2780390	1471991050075	1471991050217	h	72
5466	58470	Can you bring these to 49C1?	Can you bring these to 49C1?	2780393	1471991050153	1471991050318	e	69
5466	58470	Can you bring these to 49C1?	Can you bring these to 49C1?	2780397	1471991050341	1471991050531	s	83
5466	58470	Can you bring these to 49C1?	Can you bring these to 49C1?	2780510	1471991050420	1471991050611	e	69
5466	58470	Can you bring these to 49C1?	Can you bring these to 49C1?	2780512	1471991050756	1471991050868	 	32
5466	58470	Can you bring these to 49C1?	Can you bring these to 49C1?	2780514	1471991051162	1471991051318	t	84
5466	58470	Can you bring these to 49C1?	Can you bring these to 49C1?	2780517	1471991051267	1471991051450	o	79
5466	58470	Can you bring these to 49C1?	Can you bring these to 49C1?	2780524	1471991051447	1471991051574	 	32
5466	58470	Can you bring these to 49C1?	Can you bring these to 49C1?	2780665	1471991052547	1471991052660	4	52
5466	58470	Can you bring these to 49C1?	Can you bring these to 49C1?	2780527	1471991052571	1471991052658	9	57
5466	58470	Can you bring these to 49C1?	Can you bring these to 49C1?	2780674	1471991053261	1471991054026	SHIFT	16
5466	58470	Can you bring these to 49C1?	Can you bring these to 49C1?	2780670	1471991053542	1471991053709	C	67
5466	58470	Can you bring these to 49C1?	Can you bring these to 49C1?	2780677	1471991054323	1471991054433	1	49
5466	58470	Can you bring these to 49C1?	Can you bring these to 49C1?	2780680	1471991054816	1471991055143	SHIFT	16
5466	58470	Can you bring these to 49C1?	Can you bring these to 49C1?	2780681	1471991055012	1471991055186	?	191
5466	58488	Also, regarding the cash flow from Canada.	Also, regarding the cash flow from Canada.	2780943	1471991057828	1471991058033	SHIFT	16
5466	58488	Also, regarding the cash flow from Canada.	Also, regarding the cash flow from Canada.	2780945	1471991057987	1471991058160	A	65
5466	58488	Also, regarding the cash flow from Canada.	Also, regarding the cash flow from Canada.	2780946	1471991058114	1471991058252	s	83
5466	58488	Also, regarding the cash flow from Canada.	Also, regarding the cash flow from Canada.	2780947	1471991058250	1471991058393	l	76
5466	58488	Also, regarding the cash flow from Canada.	Also, regarding the cash flow from Canada.	2780949	1471991059273	1471991059321	BKSP	8
5466	58488	Also, regarding the cash flow from Canada.	Also, regarding the cash flow from Canada.	2780951	1471991059439	1471991059527	BKSP	8
5466	58488	Also, regarding the cash flow from Canada.	Also, regarding the cash flow from Canada.	2780953	1471991059757	1471991059820	l	76
5466	58488	Also, regarding the cash flow from Canada.	Also, regarding the cash flow from Canada.	2780955	1471991059840	1471991059991	s	83
5466	58488	Also, regarding the cash flow from Canada.	Also, regarding the cash flow from Canada.	2780994	1471991060017	1471991060088	o	79
5466	58488	Also, regarding the cash flow from Canada.	Also, regarding the cash flow from Canada.	2780999	1471991060359	1471991060503	,	188
5466	58488	Also, regarding the cash flow from Canada.	Also, regarding the cash flow from Canada.	2781002	1471991060501	1471991060614	 	32
5466	58488	Also, regarding the cash flow from Canada.	Also, regarding the cash flow from Canada.	2781005	1471991060738	1471991060904	r	82
5466	58488	Also, regarding the cash flow from Canada.	Also, regarding the cash flow from Canada.	2781058	1471991060872	1471991060998	e	69
5466	58488	Also, regarding the cash flow from Canada.	Also, regarding the cash flow from Canada.	2781061	1471991061045	1471991061164	g	71
5466	58488	Also, regarding the cash flow from Canada.	Also, regarding the cash flow from Canada.	2781065	1471991061148	1471991061297	a	65
5466	58488	Also, regarding the cash flow from Canada.	Also, regarding the cash flow from Canada.	2781063	1471991061243	1471991061297	r	82
5466	58488	Also, regarding the cash flow from Canada.	Also, regarding the cash flow from Canada.	2781068	1471991061912	1471991062023	d	68
5466	58488	Also, regarding the cash flow from Canada.	Also, regarding the cash flow from Canada.	2781073	1471991062055	1471991062206	i	73
5466	58488	Also, regarding the cash flow from Canada.	Also, regarding the cash flow from Canada.	2781157	1471991062191	1471991062301	n	78
5466	58488	Also, regarding the cash flow from Canada.	Also, regarding the cash flow from Canada.	2781159	1471991062419	1471991062559	g	71
5466	58488	Also, regarding the cash flow from Canada.	Also, regarding the cash flow from Canada.	2781162	1471991062516	1471991062624	 	32
5466	58488	Also, regarding the cash flow from Canada.	Also, regarding the cash flow from Canada.	2781164	1471991062559	1471991062764	t	84
5466	58488	Also, regarding the cash flow from Canada.	Also, regarding the cash flow from Canada.	2781166	1471991063108	1471991063210	h	72
5466	58488	Also, regarding the cash flow from Canada.	Also, regarding the cash flow from Canada.	2781170	1471991063241	1471991063408	e	69
5466	58488	Also, regarding the cash flow from Canada.	Also, regarding the cash flow from Canada.	2781218	1471991063450	1471991063593	 	32
5466	58488	Also, regarding the cash flow from Canada.	Also, regarding the cash flow from Canada.	2781222	1471991063845	1471991063972	c	67
5466	58488	Also, regarding the cash flow from Canada.	Also, regarding the cash flow from Canada.	2781224	1471991063923	1471991064075	a	65
5466	58488	Also, regarding the cash flow from Canada.	Also, regarding the cash flow from Canada.	2781228	1471991064073	1471991064343	s	83
5466	58488	Also, regarding the cash flow from Canada.	Also, regarding the cash flow from Canada.	2781374	1471991064265	1471991064456	h	72
5466	58488	Also, regarding the cash flow from Canada.	Also, regarding the cash flow from Canada.	2781376	1471991064745	1471991064885	 	32
5466	58488	Also, regarding the cash flow from Canada.	Also, regarding the cash flow from Canada.	2781378	1471991064886	1471991064955	f	70
5466	58488	Also, regarding the cash flow from Canada.	Also, regarding the cash flow from Canada.	2781380	1471991065066	1471991065169	r	82
5466	58488	Also, regarding the cash flow from Canada.	Also, regarding the cash flow from Canada.	2781384	1471991065843	1471991065907	BKSP	8
5466	58488	Also, regarding the cash flow from Canada.	Also, regarding the cash flow from Canada.	2781386	1471991066104	1471991066224	l	76
5466	58488	Also, regarding the cash flow from Canada.	Also, regarding the cash flow from Canada.	2781389	1471991066318	1471991066468	o	79
5466	58488	Also, regarding the cash flow from Canada.	Also, regarding the cash flow from Canada.	2781407	1471991066404	1471991066559	w	87
5466	58488	Also, regarding the cash flow from Canada.	Also, regarding the cash flow from Canada.	2781411	1471991066556	1471991066643	 	32
5466	58488	Also, regarding the cash flow from Canada.	Also, regarding the cash flow from Canada.	2781419	1471991066625	1471991066727	f	70
5466	58488	Also, regarding the cash flow from Canada.	Also, regarding the cash flow from Canada.	2781424	1471991066837	1471991066963	r	82
5466	58488	Also, regarding the cash flow from Canada.	Also, regarding the cash flow from Canada.	2781428	1471991066910	1471991067101	o	79
5466	58488	Also, regarding the cash flow from Canada.	Also, regarding the cash flow from Canada.	2781468	1471991066995	1471991067184	m	77
5466	58488	Also, regarding the cash flow from Canada.	Also, regarding the cash flow from Canada.	2781471	1471991067098	1471991067240	 	32
5466	58488	Also, regarding the cash flow from Canada.	Also, regarding the cash flow from Canada.	2781474	1471991067149	1471991067369	SHIFT	16
5466	58488	Also, regarding the cash flow from Canada.	Also, regarding the cash flow from Canada.	2781477	1471991067308	1471991067482	C	67
5466	58488	Also, regarding the cash flow from Canada.	Also, regarding the cash flow from Canada.	2781479	1471991067483	1471991067609	a	65
5466	58488	Also, regarding the cash flow from Canada.	Also, regarding the cash flow from Canada.	2781483	1471991067606	1471991067733	n	78
5466	58488	Also, regarding the cash flow from Canada.	Also, regarding the cash flow from Canada.	2781487	1471991067734	1471991067844	a	65
5466	58488	Also, regarding the cash flow from Canada.	Also, regarding the cash flow from Canada.	2781492	1471991067859	1471991067971	d	68
5466	58488	Also, regarding the cash flow from Canada.	Also, regarding the cash flow from Canada.	2781547	1471991068345	1471991068456	a	65
5466	58488	Also, regarding the cash flow from Canada.	Also, regarding the cash flow from Canada.	2781551	1471991068618	1471991068753	.	190
5466	58507	He was in great shape last night.	He was in Great shape last night.	2781718	1471991070900	1471991071089	SHIFT	16
5466	58507	He was in great shape last night.	He was in Great shape last night.	2781720	1471991071022	1471991071187	H	72
5466	58507	He was in great shape last night.	He was in Great shape last night.	2781724	1471991071122	1471991071288	e	69
5466	58507	He was in great shape last night.	He was in Great shape last night.	2781729	1471991071236	1471991071394	 	32
5466	58507	He was in great shape last night.	He was in Great shape last night.	2781734	1471991071493	1471991071580	w	87
5466	58507	He was in great shape last night.	He was in Great shape last night.	2781739	1471991071619	1471991071769	a	65
5466	58507	He was in great shape last night.	He was in Great shape last night.	2781778	1471991071691	1471991071856	s	83
5466	58507	He was in great shape last night.	He was in Great shape last night.	2781781	1471991071804	1471991071954	 	32
5466	58507	He was in great shape last night.	He was in Great shape last night.	2781785	1471991072040	1471991072151	i	73
5466	58507	He was in great shape last night.	He was in Great shape last night.	2781788	1471991072151	1471991072299	n	78
5466	58507	He was in great shape last night.	He was in Great shape last night.	2781792	1471991072230	1471991072357	 	32
5466	58507	He was in great shape last night.	He was in Great shape last night.	2781797	1471991072406	1471991072621	SHIFT	16
5466	58507	He was in great shape last night.	He was in Great shape last night.	2781869	1471991072576	1471991072670	G	71
5466	58507	He was in great shape last night.	He was in Great shape last night.	2781871	1471991072693	1471991072732	r	82
5466	58507	He was in great shape last night.	He was in Great shape last night.	2781873	1471991072732	1471991072946	e	69
5466	58507	He was in great shape last night.	He was in Great shape last night.	2781878	1471991073292	1471991073379	BKSP	8
5466	58507	He was in great shape last night.	He was in Great shape last night.	2781886	1471991073751	1471991073893	e	69
5466	58507	He was in great shape last night.	He was in Great shape last night.	2781893	1471991073869	1471991074036	a	65
5466	58507	He was in great shape last night.	He was in Great shape last night.	2781926	1471991074034	1471991074159	t	84
5466	58507	He was in great shape last night.	He was in Great shape last night.	2781929	1471991074156	1471991074267	 	32
5466	58507	He was in great shape last night.	He was in Great shape last night.	2781935	1471991074319	1471991074493	s	83
5466	58507	He was in great shape last night.	He was in Great shape last night.	2781940	1471991074432	1471991074557	h	72
5466	58507	He was in great shape last night.	He was in Great shape last night.	2781945	1471991074532	1471991074656	a	65
5466	58507	He was in great shape last night.	He was in Great shape last night.	2781958	1471991074613	1471991074824	p	80
5466	58507	He was in great shape last night.	He was in Great shape last night.	2781961	1471991074705	1471991074825	e	69
5466	58507	He was in great shape last night.	He was in Great shape last night.	2781966	1471991074822	1471991074920	 	32
5466	58507	He was in great shape last night.	He was in Great shape last night.	2781969	1471991074942	1471991075123	l	76
5466	58507	He was in great shape last night.	He was in Great shape last night.	2782019	1471991075017	1471991075167	a	65
5466	58507	He was in great shape last night.	He was in Great shape last night.	2782024	1471991075049	1471991075276	s	83
5466	58507	He was in great shape last night.	He was in Great shape last night.	2782030	1471991075223	1471991075375	t	84
5466	58507	He was in great shape last night.	He was in Great shape last night.	2782039	1471991075373	1471991075532	 	32
5466	58507	He was in great shape last night.	He was in Great shape last night.	2782044	1471991075593	1471991075778	n	78
5466	58507	He was in great shape last night.	He was in Great shape last night.	2782047	1471991075776	1471991075918	i	73
5466	58507	He was in great shape last night.	He was in Great shape last night.	2782051	1471991075919	1471991076036	g	71
5466	58507	He was in great shape last night.	He was in Great shape last night.	2782063	1471991076035	1471991076131	h	72
5466	58507	He was in great shape last night.	He was in Great shape last night.	2782066	1471991076153	1471991076248	t	84
5466	58507	He was in great shape last night.	He was in Great shape last night.	2782070	1471991076264	1471991076408	.	190
5466	58518	Public order will be maintained firmly and energetically.	Public order will be maintained firmly and energetically.	2782267	1471991078338	1471991078608	SHIFT	16
5466	58518	Public order will be maintained firmly and energetically.	Public order will be maintained firmly and energetically.	2782271	1471991078493	1471991078747	P	80
5466	58518	Public order will be maintained firmly and energetically.	Public order will be maintained firmly and energetically.	2782275	1471991078690	1471991078793	u	85
5466	58518	Public order will be maintained firmly and energetically.	Public order will be maintained firmly and energetically.	2782279	1471991079351	1471991079463	b	66
5466	58518	Public order will be maintained firmly and energetically.	Public order will be maintained firmly and energetically.	2782283	1471991079518	1471991079677	l	76
5466	58518	Public order will be maintained firmly and energetically.	Public order will be maintained firmly and energetically.	2782307	1471991079629	1471991079803	i	73
5466	58518	Public order will be maintained firmly and energetically.	Public order will be maintained firmly and energetically.	2782310	1471991079762	1471991079943	c	67
5466	58518	Public order will be maintained firmly and energetically.	Public order will be maintained firmly and energetically.	2782315	1471991079890	1471991080009	 	32
5466	58518	Public order will be maintained firmly and energetically.	Public order will be maintained firmly and energetically.	2782319	1471991080103	1471991080253	o	79
5466	58518	Public order will be maintained firmly and energetically.	Public order will be maintained firmly and energetically.	2782325	1471991080254	1471991080355	r	82
5466	58518	Public order will be maintained firmly and energetically.	Public order will be maintained firmly and energetically.	2782332	1471991080473	1471991080536	d	68
5466	58518	Public order will be maintained firmly and energetically.	Public order will be maintained firmly and energetically.	2782346	1471991080647	1471991080749	e	69
5466	58518	Public order will be maintained firmly and energetically.	Public order will be maintained firmly and energetically.	2782349	1471991080695	1471991080852	r	82
5466	58518	Public order will be maintained firmly and energetically.	Public order will be maintained firmly and energetically.	2782352	1471991080807	1471991080941	 	32
5466	58518	Public order will be maintained firmly and energetically.	Public order will be maintained firmly and energetically.	2782354	1471991081000	1471991081087	w	87
5466	58518	Public order will be maintained firmly and energetically.	Public order will be maintained firmly and energetically.	2782356	1471991081177	1471991081272	i	73
5466	58518	Public order will be maintained firmly and energetically.	Public order will be maintained firmly and energetically.	2782375	1471991081383	1471991081447	l	76
5466	58518	Public order will be maintained firmly and energetically.	Public order will be maintained firmly and energetically.	2782377	1471991081574	1471991081727	l	76
5466	58518	Public order will be maintained firmly and energetically.	Public order will be maintained firmly and energetically.	2782380	1471991081725	1471991081873	 	32
5466	58518	Public order will be maintained firmly and energetically.	Public order will be maintained firmly and energetically.	2782383	1471991081874	1471991082022	b	66
5466	58518	Public order will be maintained firmly and energetically.	Public order will be maintained firmly and energetically.	2782409	1471991081943	1471991082090	e	69
5466	58518	Public order will be maintained firmly and energetically.	Public order will be maintained firmly and energetically.	2782412	1471991082087	1471991082214	 	32
5466	58518	Public order will be maintained firmly and energetically.	Public order will be maintained firmly and energetically.	2782415	1471991082275	1471991082393	m	77
5466	58518	Public order will be maintained firmly and energetically.	Public order will be maintained firmly and energetically.	2782419	1471991082360	1471991082501	a	65
5466	58518	Public order will be maintained firmly and energetically.	Public order will be maintained firmly and energetically.	2782423	1471991082473	1471991082615	i	73
5466	58518	Public order will be maintained firmly and energetically.	Public order will be maintained firmly and energetically.	2782490	1471991082582	1471991082732	n	78
5466	58518	Public order will be maintained firmly and energetically.	Public order will be maintained firmly and energetically.	2782493	1471991082716	1471991082929	t	84
5466	58518	Public order will be maintained firmly and energetically.	Public order will be maintained firmly and energetically.	2782497	1471991082834	1471991083023	e	69
5466	58518	Public order will be maintained firmly and energetically.	Public order will be maintained firmly and energetically.	2782500	1471991083258	1471991083354	BKSP	8
5466	58518	Public order will be maintained firmly and energetically.	Public order will be maintained firmly and energetically.	2782504	1471991083526	1471991083629	i	73
5466	58518	Public order will be maintained firmly and energetically.	Public order will be maintained firmly and energetically.	2782507	1471991083981	1471991084069	BKSP	8
5466	58518	Public order will be maintained firmly and energetically.	Public order will be maintained firmly and energetically.	2782509	1471991084096	1471991084249	a	65
5466	58518	Public order will be maintained firmly and energetically.	Public order will be maintained firmly and energetically.	2782575	1471991084246	1471991084415	i	73
5466	58518	Public order will be maintained firmly and energetically.	Public order will be maintained firmly and energetically.	2782576	1471991084359	1471991084501	n	78
5466	58518	Public order will be maintained firmly and energetically.	Public order will be maintained firmly and energetically.	2782578	1471991084652	1471991084858	t	84
5466	58518	Public order will be maintained firmly and energetically.	Public order will be maintained firmly and energetically.	2782580	1471991084787	1471991084944	e	69
5466	58518	Public order will be maintained firmly and energetically.	Public order will be maintained firmly and energetically.	2782582	1471991085123	1471991085210	BKSP	8
5466	58518	Public order will be maintained firmly and energetically.	Public order will be maintained firmly and energetically.	2782584	1471991085289	1471991085376	BKSP	8
5466	58518	Public order will be maintained firmly and energetically.	Public order will be maintained firmly and energetically.	2782588	1471991085412	1471991085467	e	69
5466	58518	Public order will be maintained firmly and energetically.	Public order will be maintained firmly and energetically.	2782591	1471991085562	1471991085678	d	68
5466	58518	Public order will be maintained firmly and energetically.	Public order will be maintained firmly and energetically.	2782703	1471991085675	1471991085770	 	32
5466	58518	Public order will be maintained firmly and energetically.	Public order will be maintained firmly and energetically.	2782706	1471991086159	1471991086262	f	70
5466	58518	Public order will be maintained firmly and energetically.	Public order will be maintained firmly and energetically.	2782709	1471991086333	1471991086452	r	82
5466	58518	Public order will be maintained firmly and energetically.	Public order will be maintained firmly and energetically.	2782712	1471991086429	1471991086611	i	73
5466	58518	Public order will be maintained firmly and energetically.	Public order will be maintained firmly and energetically.	2782716	1471991086578	1471991086738	m	77
5466	58518	Public order will be maintained firmly and energetically.	Public order will be maintained firmly and energetically.	2782721	1471991086793	1471991087023	l	76
5466	58518	Public order will be maintained firmly and energetically.	Public order will be maintained firmly and energetically.	2782824	1471991086975	1471991087125	y	89
5466	58518	Public order will be maintained firmly and energetically.	Public order will be maintained firmly and energetically.	2782830	1471991087309	1471991087411	=	187
5466	58518	Public order will be maintained firmly and energetically.	Public order will be maintained firmly and energetically.	2782835	1471991087516	1471991087619	BKSP	8
5466	58518	Public order will be maintained firmly and energetically.	Public order will be maintained firmly and energetically.	2782843	1471991087698	1471991087761	BKSP	8
5466	58518	Public order will be maintained firmly and energetically.	Public order will be maintained firmly and energetically.	2782850	1471991087840	1471991087937	BKSP	8
5466	58518	Public order will be maintained firmly and energetically.	Public order will be maintained firmly and energetically.	2782855	1471991087998	1471991088085	BKSP	8
5466	58518	Public order will be maintained firmly and energetically.	Public order will be maintained firmly and energetically.	2782861	1471991088164	1471991088235	BKSP	8
5466	58518	Public order will be maintained firmly and energetically.	Public order will be maintained firmly and energetically.	2782867	1471991088322	1471991088393	BKSP	8
5466	58518	Public order will be maintained firmly and energetically.	Public order will be maintained firmly and energetically.	2782871	1471991088791	1471991088886	i	73
5466	58518	Public order will be maintained firmly and energetically.	Public order will be maintained firmly and energetically.	2782874	1471991088964	1471991089060	r	82
5466	58518	Public order will be maintained firmly and energetically.	Public order will be maintained firmly and energetically.	2782880	1471991089107	1471991089261	m	77
5466	58518	Public order will be maintained firmly and energetically.	Public order will be maintained firmly and energetically.	2782883	1471991089258	1471991089465	l	76
5466	58518	Public order will be maintained firmly and energetically.	Public order will be maintained firmly and energetically.	2782885	1471991089384	1471991089565	y	89
5466	58518	Public order will be maintained firmly and energetically.	Public order will be maintained firmly and energetically.	2782890	1471991089504	1471991089630	 	32
5466	58518	Public order will be maintained firmly and energetically.	Public order will be maintained firmly and energetically.	2782895	1471991089873	1471991090034	a	65
5466	58518	Public order will be maintained firmly and energetically.	Public order will be maintained firmly and energetically.	2782967	1471991089947	1471991090119	n	78
5466	58518	Public order will be maintained firmly and energetically.	Public order will be maintained firmly and energetically.	2782969	1471991090032	1471991090172	d	68
5466	58518	Public order will be maintained firmly and energetically.	Public order will be maintained firmly and energetically.	2782973	1471991090090	1471991090199	 	32
5466	58518	Public order will be maintained firmly and energetically.	Public order will be maintained firmly and energetically.	2782978	1471991090372	1471991090473	n	78
5466	58518	Public order will be maintained firmly and energetically.	Public order will be maintained firmly and energetically.	2782982	1471991090473	1471991090512	e	69
5466	58518	Public order will be maintained firmly and energetically.	Public order will be maintained firmly and energetically.	2782987	1471991090802	1471991090857	BKSP	8
5466	58518	Public order will be maintained firmly and energetically.	Public order will be maintained firmly and energetically.	2782991	1471991090951	1471991091023	BKSP	8
5466	58518	Public order will be maintained firmly and energetically.	Public order will be maintained firmly and energetically.	2782998	1471991091123	1471991091220	e	69
5466	58518	Public order will be maintained firmly and energetically.	Public order will be maintained firmly and energetically.	2783114	1471991091218	1471991091313	n	78
5466	58518	Public order will be maintained firmly and energetically.	Public order will be maintained firmly and energetically.	2783115	1471991091336	1471991091446	e	69
5466	58518	Public order will be maintained firmly and energetically.	Public order will be maintained firmly and energetically.	2783119	1471991092046	1471991092133	r	82
5466	58518	Public order will be maintained firmly and energetically.	Public order will be maintained firmly and energetically.	2783124	1471991092284	1471991092338	g	71
5466	58518	Public order will be maintained firmly and energetically.	Public order will be maintained firmly and energetically.	2783131	1471991092339	1471991092472	e	69
5466	58518	Public order will be maintained firmly and energetically.	Public order will be maintained firmly and energetically.	2783136	1471991092873	1471991092967	t	84
5466	58518	Public order will be maintained firmly and energetically.	Public order will be maintained firmly and energetically.	2783181	1471991093303	1471991093406	i	73
5466	58518	Public order will be maintained firmly and energetically.	Public order will be maintained firmly and energetically.	2783185	1471991093445	1471991093570	c	67
5466	58518	Public order will be maintained firmly and energetically.	Public order will be maintained firmly and energetically.	2783189	1471991093538	1471991093655	a	65
5466	58518	Public order will be maintained firmly and energetically.	Public order will be maintained firmly and energetically.	2783196	1471991093635	1471991093689	l	76
5466	58518	Public order will be maintained firmly and energetically.	Public order will be maintained firmly and energetically.	2783202	1471991093832	1471991093887	l	76
5466	58518	Public order will be maintained firmly and energetically.	Public order will be maintained firmly and energetically.	2783257	1471991094189	1471991094293	y	89
5466	58518	Public order will be maintained firmly and energetically.	Public order will be maintained firmly and energetically.	2783265	1471991094436	1471991094588	.	190
5466	58541	Please let me know what days you plan on taking off.	Please let me know what days you plan on taking off.	2783422	1471991096701	1471991096884	SHIFT	16
5466	58541	Please let me know what days you plan on taking off.	Please let me know what days you plan on taking off.	2783425	1471991096833	1471991096935	P	80
5466	58541	Please let me know what days you plan on taking off.	Please let me know what days you plan on taking off.	2783430	1471991097021	1471991097139	l	76
5466	58541	Please let me know what days you plan on taking off.	Please let me know what days you plan on taking off.	2783434	1471991097106	1471991097247	e	69
5466	58541	Please let me know what days you plan on taking off.	Please let me know what days you plan on taking off.	2783438	1471991097198	1471991097406	a	65
5466	58541	Please let me know what days you plan on taking off.	Please let me know what days you plan on taking off.	2783444	1471991097750	1471991097900	s	83
5466	58541	Please let me know what days you plan on taking off.	Please let me know what days you plan on taking off.	2783507	1471991097837	1471991098027	e	69
5466	58541	Please let me know what days you plan on taking off.	Please let me know what days you plan on taking off.	2783511	1471991097967	1471991098092	 	32
5466	58541	Please let me know what days you plan on taking off.	Please let me know what days you plan on taking off.	2783514	1471991098274	1471991098425	l	76
5466	58541	Please let me know what days you plan on taking off.	Please let me know what days you plan on taking off.	2783517	1471991098344	1471991098493	e	69
5466	58541	Please let me know what days you plan on taking off.	Please let me know what days you plan on taking off.	2783519	1471991098462	1471991098619	t	84
5466	58541	Please let me know what days you plan on taking off.	Please let me know what days you plan on taking off.	2783565	1471991098566	1471991098669	 	32
5466	58541	Please let me know what days you plan on taking off.	Please let me know what days you plan on taking off.	2783567	1471991098826	1471991098919	m	77
5466	58541	Please let me know what days you plan on taking off.	Please let me know what days you plan on taking off.	2783569	1471991098965	1471991099085	e	69
5466	58541	Please let me know what days you plan on taking off.	Please let me know what days you plan on taking off.	2783572	1471991099083	1471991099190	 	32
5466	58541	Please let me know what days you plan on taking off.	Please let me know what days you plan on taking off.	2783576	1471991099298	1471991099425	k	75
5466	58541	Please let me know what days you plan on taking off.	Please let me know what days you plan on taking off.	2783661	1471991099410	1471991099554	n	78
5466	58541	Please let me know what days you plan on taking off.	Please let me know what days you plan on taking off.	2783663	1471991099551	1471991099787	o	79
5466	58541	Please let me know what days you plan on taking off.	Please let me know what days you plan on taking off.	2783666	1471991099660	1471991099787	w	87
5466	58541	Please let me know what days you plan on taking off.	Please let me know what days you plan on taking off.	2783669	1471991099820	1471991099948	 	32
5466	58541	Please let me know what days you plan on taking off.	Please let me know what days you plan on taking off.	2783671	1471991100479	1471991100567	w	87
5466	58541	Please let me know what days you plan on taking off.	Please let me know what days you plan on taking off.	2783675	1471991100583	1471991100685	h	72
5466	58541	Please let me know what days you plan on taking off.	Please let me know what days you plan on taking off.	2783762	1471991100688	1471991100819	a	65
5466	58541	Please let me know what days you plan on taking off.	Please let me know what days you plan on taking off.	2783765	1471991100834	1471991100978	t	84
5466	58541	Please let me know what days you plan on taking off.	Please let me know what days you plan on taking off.	2783772	1471991101056	1471991101110	 	68
5466	58541	Please let me know what days you plan on taking off.	Please let me know what days you plan on taking off.	2783779	1471991101535	1471991101622	BKSP	8
5466	58541	Please let me know what days you plan on taking off.	Please let me know what days you plan on taking off.	2783783	1471991101702	1471991101797	BKSP	8
5466	58541	Please let me know what days you plan on taking off.	Please let me know what days you plan on taking off.	2783786	1471991101900	1471991102027	 	32
5466	58541	Please let me know what days you plan on taking off.	Please let me know what days you plan on taking off.	2783824	1471991102111	1471991102181	d	68
5466	58541	Please let me know what days you plan on taking off.	Please let me know what days you plan on taking off.	2783828	1471991102157	1471991102333	a	65
5466	58541	Please let me know what days you plan on taking off.	Please let me know what days you plan on taking off.	2783830	1471991102330	1471991102451	y	89
5466	58541	Please let me know what days you plan on taking off.	Please let me know what days you plan on taking off.	2783832	1471991102544	1471991102663	s	83
5466	58541	Please let me know what days you plan on taking off.	Please let me know what days you plan on taking off.	2783835	1471991102722	1471991102857	 	32
5466	58541	Please let me know what days you plan on taking off.	Please let me know what days you plan on taking off.	2783872	1471991103190	1471991103294	y	89
5466	58541	Please let me know what days you plan on taking off.	Please let me know what days you plan on taking off.	2783877	1471991103293	1471991103503	o	79
5466	58541	Please let me know what days you plan on taking off.	Please let me know what days you plan on taking off.	2783880	1471991103419	1471991103536	u	85
5466	58541	Please let me know what days you plan on taking off.	Please let me know what days you plan on taking off.	2783886	1471991103500	1471991103633	 	32
5466	58541	Please let me know what days you plan on taking off.	Please let me know what days you plan on taking off.	2783923	1471991103617	1471991103719	p	80
5466	58541	Please let me know what days you plan on taking off.	Please let me know what days you plan on taking off.	2783927	1471991103806	1471991103988	l	76
5466	58541	Please let me know what days you plan on taking off.	Please let me know what days you plan on taking off.	2783931	1471991103866	1471991104048	a	65
5466	58541	Please let me know what days you plan on taking off.	Please let me know what days you plan on taking off.	2783932	1471991104113	1471991104320	n	78
5466	58541	Please let me know what days you plan on taking off.	Please let me know what days you plan on taking off.	2783934	1471991104247	1471991104397	t	84
5466	58541	Please let me know what days you plan on taking off.	Please let me know what days you plan on taking off.	2784091	1471991104368	1471991104486	 	32
5466	58541	Please let me know what days you plan on taking off.	Please let me know what days you plan on taking off.	2784096	1471991104702	1471991104820	o	76
5466	58541	Please let me know what days you plan on taking off.	Please let me know what days you plan on taking off.	2784099	1471991104821	1471991104967	n	78
5466	58541	Please let me know what days you plan on taking off.	Please let me know what days you plan on taking off.	2784103	1471991104890	1471991105031	 	32
5466	58541	Please let me know what days you plan on taking off.	Please let me know what days you plan on taking off.	2784105	1471991105359	1471991105446	BKSP	8
5466	58541	Please let me know what days you plan on taking off.	Please let me know what days you plan on taking off.	2784107	1471991105533	1471991105596	BKSP	8
5466	58541	Please let me know what days you plan on taking off.	Please let me know what days you plan on taking off.	2784109	1471991105675	1471991105731	BKSP	8
5466	58541	Please let me know what days you plan on taking off.	Please let me know what days you plan on taking off.	2784111	1471991106225	1471991106281	BKSP	8
5466	58541	Please let me know what days you plan on taking off.	Please let me know what days you plan on taking off.	2784113	1471991106648	1471991106735	BKSP	8
5466	58541	Please let me know what days you plan on taking off.	Please let me know what days you plan on taking off.	2784116	1471991106822	1471991106917	BKSP	8
5466	58541	Please let me know what days you plan on taking off.	Please let me know what days you plan on taking off.	2784122	1471991107092	1471991107235	 	32
5466	58541	Please let me know what days you plan on taking off.	Please let me know what days you plan on taking off.	2784158	1471991107394	1471991107608	o	79
5466	58541	Please let me know what days you plan on taking off.	Please let me know what days you plan on taking off.	2784165	1471991107552	1471991107717	n	78
5466	58541	Please let me know what days you plan on taking off.	Please let me know what days you plan on taking off.	2784171	1471991107671	1471991107774	 	32
5466	58541	Please let me know what days you plan on taking off.	Please let me know what days you plan on taking off.	2784176	1471991108082	1471991108200	t	84
5466	58541	Please let me know what days you plan on taking off.	Please let me know what days you plan on taking off.	2784219	1471991108152	1471991108317	a	65
5466	58541	Please let me know what days you plan on taking off.	Please let me know what days you plan on taking off.	2784223	1471991108272	1471991108383	k	75
5466	58541	Please let me know what days you plan on taking off.	Please let me know what days you plan on taking off.	2784226	1471991108510	1471991108541	i	73
5466	58541	Please let me know what days you plan on taking off.	Please let me know what days you plan on taking off.	2784229	1471991108571	1471991108682	n	78
5466	58541	Please let me know what days you plan on taking off.	Please let me know what days you plan on taking off.	2784232	1471991108985	1471991109159	g	71
5466	58541	Please let me know what days you plan on taking off.	Please let me know what days you plan on taking off.	2784312	1471991109131	1471991109303	 	32
5466	58541	Please let me know what days you plan on taking off.	Please let me know what days you plan on taking off.	2784313	1471991109304	1471991109422	o	79
5466	58541	Please let me know what days you plan on taking off.	Please let me know what days you plan on taking off.	2784316	1471991109499	1471991109586	f	70
5466	58541	Please let me know what days you plan on taking off.	Please let me know what days you plan on taking off.	2784320	1471991109689	1471991109808	f	70
5466	58541	Please let me know what days you plan on taking off.	Please let me know what days you plan on taking off.	2784327	1471991109865	1471991110024	.	190
5466	58568	In a separate room, next door.	In a separate room, next door.	2784514	1471991112506	1471991112723	SHIFT	16
5466	58568	In a separate room, next door.	In a separate room, next door.	2784519	1471991112621	1471991112770	I	73
5466	58568	In a separate room, next door.	In a separate room, next door.	2784531	1471991112724	1471991112881	n	78
5466	58568	In a separate room, next door.	In a separate room, next door.	2784540	1471991112787	1471991112921	 	32
5466	58568	In a separate room, next door.	In a separate room, next door.	2784547	1471991112972	1471991113092	a	65
5466	58568	In a separate room, next door.	In a separate room, next door.	2784640	1471991113090	1471991113181	 	32
5466	58568	In a separate room, next door.	In a separate room, next door.	2784646	1471991113761	1471991113896	s	83
5466	58568	In a separate room, next door.	In a separate room, next door.	2784650	1471991113975	1471991114111	e	69
5466	58568	In a separate room, next door.	In a separate room, next door.	2784654	1471991114335	1471991114511	p	80
5466	58568	In a separate room, next door.	In a separate room, next door.	2784661	1471991114570	1471991114745	a	65
5466	58568	In a separate room, next door.	In a separate room, next door.	2784695	1471991114715	1471991114849	r	82
5466	58568	In a separate room, next door.	In a separate room, next door.	2784699	1471991114870	1471991115053	a	65
5466	58568	In a separate room, next door.	In a separate room, next door.	2784702	1471991115023	1471991115180	t	84
5466	58568	In a separate room, next door.	In a separate room, next door.	2784705	1471991115149	1471991115332	e	69
5466	58568	In a separate room, next door.	In a separate room, next door.	2784707	1471991115373	1471991115507	 	32
5466	58568	In a separate room, next door.	In a separate room, next door.	2784809	1471991115490	1471991115568	f	70
5466	58568	In a separate room, next door.	In a separate room, next door.	2784814	1471991115945	1471991116064	BKSP	8
5466	58568	In a separate room, next door.	In a separate room, next door.	2784817	1471991116141	1471991116228	r	82
5466	58568	In a separate room, next door.	In a separate room, next door.	2784821	1471991116378	1471991116426	r	82
5466	58568	In a separate room, next door.	In a separate room, next door.	2784824	1471991116483	1471991116522	o	79
5466	58568	In a separate room, next door.	In a separate room, next door.	2784827	1471991116834	1471991116913	BKSP	8
5466	58568	In a separate room, next door.	In a separate room, next door.	2784829	1471991116992	1471991117039	BKSP	8
5466	58568	In a separate room, next door.	In a separate room, next door.	2784832	1471991117245	1471991117340	o	79
5466	58568	In a separate room, next door.	In a separate room, next door.	2784836	1471991117427	1471991117594	o	79
5466	58568	In a separate room, next door.	In a separate room, next door.	2784872	1471991117616	1471991117727	m	77
5466	58568	In a separate room, next door.	In a separate room, next door.	2784876	1471991117879	1471991118077	,	188
5466	58568	In a separate room, next door.	In a separate room, next door.	2784881	1471991118007	1471991118133	 	32
5466	58568	In a separate room, next door.	In a separate room, next door.	2784885	1471991118579	1471991118705	n	78
5466	58568	In a separate room, next door.	In a separate room, next door.	2784974	1471991118665	1471991118727	e	69
5466	58568	In a separate room, next door.	In a separate room, next door.	2784978	1471991118926	1471991119101	x	88
5466	58568	In a separate room, next door.	In a separate room, next door.	2784983	1471991119221	1471991119376	t	84
5466	58568	In a separate room, next door.	In a separate room, next door.	2784987	1471991119374	1471991119525	 	32
5466	58568	In a separate room, next door.	In a separate room, next door.	2784991	1471991119832	1471991119944	f	70
5466	58568	In a separate room, next door.	In a separate room, next door.	2784995	1471991119969	1471991120056	o	79
5466	58568	In a separate room, next door.	In a separate room, next door.	2785063	1471991120135	1471991120246	o	79
5466	58568	In a separate room, next door.	In a separate room, next door.	2785066	1471991120414	1471991120485	BKSP	8
5466	58568	In a separate room, next door.	In a separate room, next door.	2785069	1471991120548	1471991120627	BKSP	8
5466	58568	In a separate room, next door.	In a separate room, next door.	2785072	1471991120714	1471991120794	BKSP	8
5466	58568	In a separate room, next door.	In a separate room, next door.	2785078	1471991120941	1471991121088	d	68
5466	58568	In a separate room, next door.	In a separate room, next door.	2785084	1471991121086	1471991121197	o	79
5466	58568	In a separate room, next door.	In a separate room, next door.	2785095	1471991121275	1471991121395	o	79
5466	58568	In a separate room, next door.	In a separate room, next door.	2785103	1471991121448	1471991121575	r	82
5466	58568	In a separate room, next door.	In a separate room, next door.	2785130	1471991121840	1471991121984	.	190
