PARTICIPANT_ID	TEST_SECTION_ID	SENTENCE	USER_INPUT	KEYSTROKE_ID	PRESS_TIME	RELEASE_TIME	LETTER	KEYCODE
5506	58876	Until he can practice for a couple of weeks, we won't have him.	Until he can practice for a couple of weeks, we won't have him.	2799468	1471991373093	1471991373257	SHIFT	16
5506	58876	Until he can practice for a couple of weeks, we won't have him.	Until he can practice for a couple of weeks, we won't have him.	2799470	1471991373157	1471991373277	U	85
5506	58876	Until he can practice for a couple of weeks, we won't have him.	Until he can practice for a couple of weeks, we won't have him.	2799472	1471991373364	1471991373468	n	78
5506	58876	Until he can practice for a couple of weeks, we won't have him.	Until he can practice for a couple of weeks, we won't have him.	2799475	1471991373452	1471991373552	t	84
5506	58876	Until he can practice for a couple of weeks, we won't have him.	Until he can practice for a couple of weeks, we won't have him.	2799477	1471991373600	1471991373700	i	73
5506	58876	Until he can practice for a couple of weeks, we won't have him.	Until he can practice for a couple of weeks, we won't have him.	2799479	1471991373780	1471991373877	l	76
5506	58876	Until he can practice for a couple of weeks, we won't have him.	Until he can practice for a couple of weeks, we won't have him.	2799514	1471991373909	1471991373997	 	32
5506	58876	Until he can practice for a couple of weeks, we won't have him.	Until he can practice for a couple of weeks, we won't have him.	2799516	1471991374005	1471991374093	h	72
5506	58876	Until he can practice for a couple of weeks, we won't have him.	Until he can practice for a couple of weeks, we won't have him.	2799518	1471991374081	1471991374189	e	69
5506	58876	Until he can practice for a couple of weeks, we won't have him.	Until he can practice for a couple of weeks, we won't have him.	2799520	1471991374233	1471991374330	 	32
5506	58876	Until he can practice for a couple of weeks, we won't have him.	Until he can practice for a couple of weeks, we won't have him.	2799523	1471991374610	1471991374686	c	67
5506	58876	Until he can practice for a couple of weeks, we won't have him.	Until he can practice for a couple of weeks, we won't have him.	2799541	1471991374752	1471991374862	a	65
5506	58876	Until he can practice for a couple of weeks, we won't have him.	Until he can practice for a couple of weeks, we won't have him.	2799544	1471991374830	1471991374930	n	78
5506	58876	Until he can practice for a couple of weeks, we won't have him.	Until he can practice for a couple of weeks, we won't have him.	2799547	1471991374918	1471991375014	 	32
5506	58876	Until he can practice for a couple of weeks, we won't have him.	Until he can practice for a couple of weeks, we won't have him.	2799549	1471991375078	1471991375187	p	80
5506	58876	Until he can practice for a couple of weeks, we won't have him.	Until he can practice for a couple of weeks, we won't have him.	2799550	1471991375227	1471991375375	r	82
5506	58876	Until he can practice for a couple of weeks, we won't have him.	Until he can practice for a couple of weeks, we won't have him.	2799590	1471991375363	1471991375483	a	65
5506	58876	Until he can practice for a couple of weeks, we won't have him.	Until he can practice for a couple of weeks, we won't have him.	2799593	1471991375553	1471991375650	c	67
5506	58876	Until he can practice for a couple of weeks, we won't have him.	Until he can practice for a couple of weeks, we won't have him.	2799597	1471991375735	1471991375809	t	84
5506	58876	Until he can practice for a couple of weeks, we won't have him.	Until he can practice for a couple of weeks, we won't have him.	2799602	1471991375821	1471991375946	i	73
5506	58876	Until he can practice for a couple of weeks, we won't have him.	Until he can practice for a couple of weeks, we won't have him.	2799607	1471991376037	1471991376118	c	67
5506	58876	Until he can practice for a couple of weeks, we won't have him.	Until he can practice for a couple of weeks, we won't have him.	2799610	1471991376229	1471991376312	e	69
5506	58876	Until he can practice for a couple of weeks, we won't have him.	Until he can practice for a couple of weeks, we won't have him.	2799617	1471991376324	1471991376417	 	32
5506	58876	Until he can practice for a couple of weeks, we won't have him.	Until he can practice for a couple of weeks, we won't have him.	2799621	1471991376437	1471991376526	f	70
5506	58876	Until he can practice for a couple of weeks, we won't have him.	Until he can practice for a couple of weeks, we won't have him.	2799627	1471991376534	1471991376627	o	79
5506	58876	Until he can practice for a couple of weeks, we won't have him.	Until he can practice for a couple of weeks, we won't have him.	2799630	1471991376631	1471991376694	r	82
5506	58876	Until he can practice for a couple of weeks, we won't have him.	Until he can practice for a couple of weeks, we won't have him.	2799635	1471991376714	1471991376786	 	32
5506	58876	Until he can practice for a couple of weeks, we won't have him.	Until he can practice for a couple of weeks, we won't have him.	2799661	1471991376798	1471991376915	a	65
5506	58876	Until he can practice for a couple of weeks, we won't have him.	Until he can practice for a couple of weeks, we won't have him.	2799663	1471991376891	1471991376981	 	32
5506	58876	Until he can practice for a couple of weeks, we won't have him.	Until he can practice for a couple of weeks, we won't have him.	2799665	1471991377254	1471991377356	c	67
5506	58876	Until he can practice for a couple of weeks, we won't have him.	Until he can practice for a couple of weeks, we won't have him.	2799666	1471991377362	1471991377471	o	79
5506	58876	Until he can practice for a couple of weeks, we won't have him.	Until he can practice for a couple of weeks, we won't have him.	2799667	1471991377487	1471991377591	u	85
5506	58876	Until he can practice for a couple of weeks, we won't have him.	Until he can practice for a couple of weeks, we won't have him.	2799684	1471991377615	1471991377719	p	80
5506	58876	Until he can practice for a couple of weeks, we won't have him.	Until he can practice for a couple of weeks, we won't have him.	2799687	1471991377795	1471991377911	l	76
5506	58876	Until he can practice for a couple of weeks, we won't have him.	Until he can practice for a couple of weeks, we won't have him.	2799691	1471991377899	1471991377971	e	69
5506	58876	Until he can practice for a couple of weeks, we won't have him.	Until he can practice for a couple of weeks, we won't have him.	2799694	1471991377983	1471991378078	 	32
5506	58876	Until he can practice for a couple of weeks, we won't have him.	Until he can practice for a couple of weeks, we won't have him.	2799697	1471991378094	1471991378186	o	79
5506	58876	Until he can practice for a couple of weeks, we won't have him.	Until he can practice for a couple of weeks, we won't have him.	2799722	1471991378166	1471991378266	f	70
5506	58876	Until he can practice for a couple of weeks, we won't have him.	Until he can practice for a couple of weeks, we won't have him.	2799726	1471991378278	1471991378364	 	32
5506	58876	Until he can practice for a couple of weeks, we won't have him.	Until he can practice for a couple of weeks, we won't have him.	2799729	1471991378370	1471991378494	w	87
5506	58876	Until he can practice for a couple of weeks, we won't have him.	Until he can practice for a couple of weeks, we won't have him.	2799732	1471991378461	1471991378590	e	69
5506	58876	Until he can practice for a couple of weeks, we won't have him.	Until he can practice for a couple of weeks, we won't have him.	2799736	1471991378662	1471991378779	e	69
5506	58876	Until he can practice for a couple of weeks, we won't have him.	Until he can practice for a couple of weeks, we won't have him.	2799739	1471991378784	1471991378886	k	75
5506	58876	Until he can practice for a couple of weeks, we won't have him.	Until he can practice for a couple of weeks, we won't have him.	2799743	1471991378914	1471991378999	s	83
5506	58876	Until he can practice for a couple of weeks, we won't have him.	Until he can practice for a couple of weeks, we won't have him.	2799745	1471991379011	1471991379128	,	188
5506	58876	Until he can practice for a couple of weeks, we won't have him.	Until he can practice for a couple of weeks, we won't have him.	2799748	1471991379187	1471991379279	 	32
5506	58876	Until he can practice for a couple of weeks, we won't have him.	Until he can practice for a couple of weeks, we won't have him.	2799752	1471991379347	1471991379485	w	87
5506	58876	Until he can practice for a couple of weeks, we won't have him.	Until he can practice for a couple of weeks, we won't have him.	2799778	1471991379427	1471991379553	e	69
5506	58876	Until he can practice for a couple of weeks, we won't have him.	Until he can practice for a couple of weeks, we won't have him.	2799781	1471991379529	1471991379617	 	32
5506	58876	Until he can practice for a couple of weeks, we won't have him.	Until he can practice for a couple of weeks, we won't have him.	2799783	1471991379687	1471991379799	w	87
5506	58876	Until he can practice for a couple of weeks, we won't have him.	Until he can practice for a couple of weeks, we won't have him.	2799785	1471991379779	1471991379855	o	79
5506	58876	Until he can practice for a couple of weeks, we won't have him.	Until he can practice for a couple of weeks, we won't have him.	2799786	1471991379879	1471991379959	n	78
5506	58876	Until he can practice for a couple of weeks, we won't have him.	Until he can practice for a couple of weeks, we won't have him.	2799799	1471991380107	1471991380179	t	84
5506	58876	Until he can practice for a couple of weeks, we won't have him.	Until he can practice for a couple of weeks, we won't have him.	2799802	1471991380187	1471991380275	 	32
5506	58876	Until he can practice for a couple of weeks, we won't have him.	Until he can practice for a couple of weeks, we won't have him.	2799804	1471991380303	1471991380395	h	72
5506	58876	Until he can practice for a couple of weeks, we won't have him.	Until he can practice for a couple of weeks, we won't have him.	2799807	1471991380332	1471991380455	a	65
5506	58876	Until he can practice for a couple of weeks, we won't have him.	Until he can practice for a couple of weeks, we won't have him.	2799809	1471991380495	1471991380608	v	86
5506	58876	Until he can practice for a couple of weeks, we won't have him.	Until he can practice for a couple of weeks, we won't have him.	2799811	1471991380628	1471991380727	e	69
5506	58876	Until he can practice for a couple of weeks, we won't have him.	Until he can practice for a couple of weeks, we won't have him.	2799842	1471991380665	1471991380735	 	32
5506	58876	Until he can practice for a couple of weeks, we won't have him.	Until he can practice for a couple of weeks, we won't have him.	2799847	1471991380754	1471991380866	h	72
5506	58876	Until he can practice for a couple of weeks, we won't have him.	Until he can practice for a couple of weeks, we won't have him.	2799850	1471991380903	1471991380976	i	73
5506	58876	Until he can practice for a couple of weeks, we won't have him.	Until he can practice for a couple of weeks, we won't have him.	2799853	1471991381040	1471991381143	m	77
5506	58876	Until he can practice for a couple of weeks, we won't have him.	Until he can practice for a couple of weeks, we won't have him.	2799855	1471991381240	1471991381361	.	190
5506	58876	Until he can practice for a couple of weeks, we won't have him.	Until he can practice for a couple of weeks, we won't have him.	2799857	1471991381487	1471991381543	4	100
5506	58876	Until he can practice for a couple of weeks, we won't have him.	Until he can practice for a couple of weeks, we won't have him.	2799881	1471991382340	1471991382404	BKSP	8
5506	58883	Can you call me at home?	Can you call me at home"	2800011	1471991385434	1471991385586	SHIFT	16
5506	58883	Can you call me at home?	Can you call me at home"	2800013	1471991385462	1471991385598	C	67
5506	58883	Can you call me at home?	Can you call me at home"	2800016	1471991385694	1471991385790	a	65
5506	58883	Can you call me at home?	Can you call me at home"	2800017	1471991385762	1471991385872	n	78
5506	58883	Can you call me at home?	Can you call me at home"	2800019	1471991385881	1471991385975	 	32
5506	58883	Can you call me at home?	Can you call me at home"	2800020	1471991386000	1471991386104	y	89
5506	58883	Can you call me at home?	Can you call me at home"	2800045	1471991386148	1471991386257	o	79
5506	58883	Can you call me at home?	Can you call me at home"	2800047	1471991386233	1471991386354	u	85
5506	58883	Can you call me at home?	Can you call me at home"	2800049	1471991386362	1471991386441	 	32
5506	58883	Can you call me at home?	Can you call me at home"	2800052	1471991386433	1471991386509	c	67
5506	58883	Can you call me at home?	Can you call me at home"	2800055	1471991386574	1471991386675	a	65
5506	58883	Can you call me at home?	Can you call me at home"	2800075	1471991386642	1471991386730	l	76
5506	58883	Can you call me at home?	Can you call me at home"	2800076	1471991386798	1471991386880	l	76
5506	58883	Can you call me at home?	Can you call me at home"	2800079	1471991386906	1471991386989	 	32
5506	58883	Can you call me at home?	Can you call me at home"	2800081	1471991387026	1471991387126	m	77
5506	58883	Can you call me at home?	Can you call me at home"	2800083	1471991387110	1471991387201	e	69
5506	58883	Can you call me at home?	Can you call me at home"	2800087	1471991387217	1471991387297	 	32
5506	58883	Can you call me at home?	Can you call me at home"	2800097	1471991387305	1471991387442	a	65
5506	58883	Can you call me at home?	Can you call me at home"	2800099	1471991387394	1471991387479	t	84
5506	58883	Can you call me at home?	Can you call me at home"	2800102	1471991387430	1471991387506	 	32
5506	58883	Can you call me at home?	Can you call me at home"	2800104	1471991387534	1471991387636	h	72
5506	58883	Can you call me at home?	Can you call me at home"	2800106	1471991387666	1471991387741	o	79
5506	58883	Can you call me at home?	Can you call me at home"	2800131	1471991387798	1471991387889	m	77
5506	58883	Can you call me at home?	Can you call me at home"	2800134	1471991387901	1471991387995	e	69
5506	58883	Can you call me at home?	Can you call me at home"	2800141	1471991388298	1471991388462	SHIFT	16
5506	58890	I think that is the right answer.	I think that is the right answer.	2800210	1471991390402	1471991390530	SHIFT	16
5506	58890	I think that is the right answer.	I think that is the right answer.	2800213	1471991390434	1471991390539	I	73
5506	58890	I think that is the right answer.	I think that is the right answer.	2800217	1471991390550	1471991390629	 	32
5506	58890	I think that is the right answer.	I think that is the right answer.	2800220	1471991390665	1471991390751	t	84
5506	58890	I think that is the right answer.	I think that is the right answer.	2800223	1471991390735	1471991390823	h	72
5506	58890	I think that is the right answer.	I think that is the right answer.	2800226	1471991390863	1471991390944	i	73
5506	58890	I think that is the right answer.	I think that is the right answer.	2800234	1471991390989	1471991391061	n	78
5506	58890	I think that is the right answer.	I think that is the right answer.	2800239	1471991391102	1471991391191	k	75
5506	58890	I think that is the right answer.	I think that is the right answer.	2800245	1471991391154	1471991391242	 	32
5506	58890	I think that is the right answer.	I think that is the right answer.	2800250	1471991391262	1471991391354	t	84
5506	58890	I think that is the right answer.	I think that is the right answer.	2800259	1471991391310	1471991391401	h	72
5506	58890	I think that is the right answer.	I think that is the right answer.	2800261	1471991391414	1471991391562	a	65
5506	58890	I think that is the right answer.	I think that is the right answer.	2800264	1471991391546	1471991391642	t	84
5506	58890	I think that is the right answer.	I think that is the right answer.	2800269	1471991391630	1471991391714	 	32
5506	58890	I think that is the right answer.	I think that is the right answer.	2800274	1471991391782	1471991391874	i	73
5506	58890	I think that is the right answer.	I think that is the right answer.	2800335	1471991391818	1471991391906	s	83
5506	58890	I think that is the right answer.	I think that is the right answer.	2800340	1471991391990	1471991392090	 	32
5506	58890	I think that is the right answer.	I think that is the right answer.	2800344	1471991392158	1471991392246	t	84
5506	58890	I think that is the right answer.	I think that is the right answer.	2800348	1471991392370	1471991392475	h	72
5506	58890	I think that is the right answer.	I think that is the right answer.	2800353	1471991392515	1471991392602	e	69
5506	58890	I think that is the right answer.	I think that is the right answer.	2800359	1471991392890	1471991392984	 	32
5506	58890	I think that is the right answer.	I think that is the right answer.	2800373	1471991393036	1471991393148	r	82
5506	58890	I think that is the right answer.	I think that is the right answer.	2800376	1471991393136	1471991393232	i	73
5506	58890	I think that is the right answer.	I think that is the right answer.	2800380	1471991393240	1471991393328	g	71
5506	58890	I think that is the right answer.	I think that is the right answer.	2800383	1471991393356	1471991393448	h	72
5506	58890	I think that is the right answer.	I think that is the right answer.	2800427	1471991393436	1471991393531	t	84
5506	58890	I think that is the right answer.	I think that is the right answer.	2800429	1471991393519	1471991393620	 	32
5506	58890	I think that is the right answer.	I think that is the right answer.	2800431	1471991393632	1471991393744	a	65
5506	58890	I think that is the right answer.	I think that is the right answer.	2800432	1471991394032	1471991394156	n	78
5506	58890	I think that is the right answer.	I think that is the right answer.	2800433	1471991394164	1471991394229	s	83
5506	58890	I think that is the right answer.	I think that is the right answer.	2800436	1471991394353	1471991394476	w	87
5506	58890	I think that is the right answer.	I think that is the right answer.	2800445	1471991394440	1471991394604	e	69
5506	58890	I think that is the right answer.	I think that is the right answer.	2800446	1471991394557	1471991394653	r	82
5506	58890	I think that is the right answer.	I think that is the right answer.	2800450	1471991394669	1471991394784	.	190
5506	58897	Just wanted to touch base.	Just wanted to touch base.	2800582	1471991396249	1471991396366	;	186
5506	58897	Just wanted to touch base.	Just wanted to touch base.	2800585	1471991396752	1471991396861	BKSP	8
5506	58897	Just wanted to touch base.	Just wanted to touch base.	2800594	1471991397181	1471991397362	SHIFT	16
5506	58897	Just wanted to touch base.	Just wanted to touch base.	2800590	1471991397226	1471991397350	J	74
5506	58897	Just wanted to touch base.	Just wanted to touch base.	2800598	1471991397434	1471991397526	u	85
5506	58897	Just wanted to touch base.	Just wanted to touch base.	2800602	1471991397510	1471991397642	s	83
5506	58897	Just wanted to touch base.	Just wanted to touch base.	2800617	1471991397599	1471991397690	t	84
5506	58897	Just wanted to touch base.	Just wanted to touch base.	2800620	1471991397678	1471991397795	 	32
5506	58897	Just wanted to touch base.	Just wanted to touch base.	2800624	1471991397783	1471991397930	w	87
5506	58897	Just wanted to touch base.	Just wanted to touch base.	2800628	1471991397881	1471991398049	a	65
5506	58897	Just wanted to touch base.	Just wanted to touch base.	2800631	1471991398009	1471991398138	n	78
5506	58897	Just wanted to touch base.	Just wanted to touch base.	2800633	1471991398142	1471991398290	t	84
5506	58897	Just wanted to touch base.	Just wanted to touch base.	2800640	1471991398262	1471991398366	e	69
5506	58897	Just wanted to touch base.	Just wanted to touch base.	2800643	1471991398438	1471991398546	d	68
5506	58897	Just wanted to touch base.	Just wanted to touch base.	2800647	1471991398612	1471991398711	 	32
5506	58897	Just wanted to touch base.	Just wanted to touch base.	2800651	1471991398734	1471991398834	t	84
5506	58897	Just wanted to touch base.	Just wanted to touch base.	2800655	1471991398822	1471991398898	o	79
5506	58897	Just wanted to touch base.	Just wanted to touch base.	2800686	1471991398886	1471991398970	 	32
5506	58897	Just wanted to touch base.	Just wanted to touch base.	2800689	1471991399070	1471991399174	t	84
5506	58897	Just wanted to touch base.	Just wanted to touch base.	2800692	1471991399158	1471991399254	o	79
5506	58897	Just wanted to touch base.	Just wanted to touch base.	2800694	1471991399417	1471991399533	u	85
5506	58897	Just wanted to touch base.	Just wanted to touch base.	2800697	1471991399597	1471991399691	c	67
5506	58897	Just wanted to touch base.	Just wanted to touch base.	2800700	1471991399699	1471991399787	h	72
5506	58897	Just wanted to touch base.	Just wanted to touch base.	2800715	1471991399842	1471991399930	 	32
5506	58897	Just wanted to touch base.	Just wanted to touch base.	2800719	1471991399974	1471991400042	b	66
5506	58897	Just wanted to touch base.	Just wanted to touch base.	2800722	1471991400094	1471991400246	a	65
5506	58897	Just wanted to touch base.	Just wanted to touch base.	2800725	1471991400182	1471991400327	s	83
5506	58897	Just wanted to touch base.	Just wanted to touch base.	2800729	1471991400286	1471991400399	e	69
5506	58897	Just wanted to touch base.	Just wanted to touch base.	2800730	1471991400387	1471991400491	.	190
5506	58907	It's really just technicalities.	It's really just technicalities.	2800825	1471991402401	1471991402555	SHIFT	16
5506	58907	It's really just technicalities.	It's really just technicalities.	2800827	1471991402447	1471991402583	I	73
5506	58907	It's really just technicalities.	It's really just technicalities.	2800829	1471991402621	1471991402703	t	84
5506	58907	It's really just technicalities.	It's really just technicalities.	2800831	1471991402931	1471991403003	s	83
5506	58907	It's really just technicalities.	It's really just technicalities.	2800835	1471991403014	1471991403113	 	32
5506	58907	It's really just technicalities.	It's really just technicalities.	2800863	1471991403248	1471991403373	r	82
5506	58907	It's really just technicalities.	It's really just technicalities.	2800870	1471991403316	1471991403445	e	69
5506	58907	It's really just technicalities.	It's really just technicalities.	2800877	1471991403409	1471991403522	a	65
5506	58907	It's really just technicalities.	It's really just technicalities.	2800883	1471991403509	1471991403581	l	76
5506	58907	It's really just technicalities.	It's really just technicalities.	2800889	1471991403662	1471991403723	l	76
5506	58907	It's really just technicalities.	It's really just technicalities.	2800908	1471991403801	1471991403901	y	89
5506	58907	It's really just technicalities.	It's really just technicalities.	2800911	1471991403935	1471991404025	 	32
5506	58907	It's really just technicalities.	It's really just technicalities.	2800914	1471991404083	1471991404168	j	74
5506	58907	It's really just technicalities.	It's really just technicalities.	2800917	1471991404251	1471991404360	u	85
5506	58907	It's really just technicalities.	It's really just technicalities.	2800953	1471991404325	1471991404444	s	83
5506	58907	It's really just technicalities.	It's really just technicalities.	2800959	1471991404388	1471991404484	t	84
5506	58907	It's really just technicalities.	It's really just technicalities.	2800964	1471991404452	1471991404528	 	32
5506	58907	It's really just technicalities.	It's really just technicalities.	2800968	1471991404624	1471991404775	e	69
5506	58907	It's really just technicalities.	It's really just technicalities.	2800972	1471991404989	1471991405080	BKSP	8
5506	58907	It's really just technicalities.	It's really just technicalities.	2800977	1471991405088	1471991405216	t	84
5506	58907	It's really just technicalities.	It's really just technicalities.	2801014	1471991405168	1471991405290	e	69
5506	58907	It's really just technicalities.	It's really just technicalities.	2801015	1471991405376	1471991405496	c	67
5506	58907	It's really just technicalities.	It's really just technicalities.	2801016	1471991405518	1471991405621	h	72
5506	58907	It's really just technicalities.	It's really just technicalities.	2801018	1471991406036	1471991406133	n	78
5506	58907	It's really just technicalities.	It's really just technicalities.	2801020	1471991406201	1471991406326	i	73
5506	58907	It's really just technicalities.	It's really just technicalities.	2801022	1471991406401	1471991406511	c	67
5506	58907	It's really just technicalities.	It's really just technicalities.	2801033	1471991406560	1471991406677	a	65
5506	58907	It's really just technicalities.	It's really just technicalities.	2801037	1471991406665	1471991406785	l	76
5506	58907	It's really just technicalities.	It's really just technicalities.	2801041	1471991406765	1471991406885	i	73
5506	58907	It's really just technicalities.	It's really just technicalities.	2801048	1471991406925	1471991407013	t	84
5506	58907	It's really just technicalities.	It's really just technicalities.	2801054	1471991407036	1471991407148	i	73
5506	58907	It's really just technicalities.	It's really just technicalities.	2801085	1471991407156	1471991407243	e	69
5506	58907	It's really just technicalities.	It's really just technicalities.	2801088	1471991407324	1471991407436	s	83
5506	58907	It's really just technicalities.	It's really just technicalities.	2801091	1471991407673	1471991407797	.	190
5506	58911	How is it going?	How is it going?	2801196	1471991410041	1471991410185	H	16
5506	58911	How is it going?	How is it going?	2801198	1471991410213	1471991410311	o	79
5506	58911	How is it going?	How is it going?	2801200	1471991410331	1471991410438	w	87
5506	58911	How is it going?	How is it going?	2801203	1471991410414	1471991410486	 	32
5506	58911	How is it going?	How is it going?	2801205	1471991410534	1471991410633	i	73
5506	58911	How is it going?	How is it going?	2801215	1471991410682	1471991410762	s	83
5506	58911	How is it going?	How is it going?	2801216	1471991410777	1471991410862	 	32
5506	58911	How is it going?	How is it going?	2801217	1471991410894	1471991410994	i	73
5506	58911	How is it going?	How is it going?	2801218	1471991410982	1471991411066	t	84
5506	58911	How is it going?	How is it going?	2801219	1471991411078	1471991411159	 	32
5506	58911	How is it going?	How is it going?	2801229	1471991411166	1471991411274	g	71
5506	58911	How is it going?	How is it going?	2801232	1471991411251	1471991411366	o	79
5506	58911	How is it going?	How is it going?	2801237	1471991411343	1471991411435	i	73
5506	58911	How is it going?	How is it going?	2801241	1471991411447	1471991411547	n	78
5506	58911	How is it going?	How is it going?	2801276	1471991411531	1471991411619	g	71
5506	58911	How is it going?	How is it going?	2801288	1471991411851	1471991412046	SHIFT	16
5506	58911	How is it going?	How is it going?	2801281	1471991411917	1471991412010	?	191
5506	58917	It doesn't match your spreadsheet.	It doesn't match your spreadsheet.	2801352	1471991413927	1471991414035	I	16
5506	58917	It doesn't match your spreadsheet.	It doesn't match your spreadsheet.	2801353	1471991414115	1471991414182	t	84
5506	58917	It doesn't match your spreadsheet.	It doesn't match your spreadsheet.	2801354	1471991414190	1471991414282	 	32
5506	58917	It doesn't match your spreadsheet.	It doesn't match your spreadsheet.	2801356	1471991414338	1471991414446	d	68
5506	58917	It doesn't match your spreadsheet.	It doesn't match your spreadsheet.	2801388	1471991414426	1471991414523	o	79
5506	58917	It doesn't match your spreadsheet.	It doesn't match your spreadsheet.	2801391	1471991414551	1471991414642	e	69
5506	58917	It doesn't match your spreadsheet.	It doesn't match your spreadsheet.	2801393	1471991414666	1471991414763	s	83
5506	58917	It doesn't match your spreadsheet.	It doesn't match your spreadsheet.	2801396	1471991414770	1471991414827	n	78
5506	58917	It doesn't match your spreadsheet.	It doesn't match your spreadsheet.	2801409	1471991414958	1471991415028	t	84
5506	58917	It doesn't match your spreadsheet.	It doesn't match your spreadsheet.	2801412	1471991415078	1471991415164	 	32
5506	58917	It doesn't match your spreadsheet.	It doesn't match your spreadsheet.	2801415	1471991415212	1471991415333	m	77
5506	58917	It doesn't match your spreadsheet.	It doesn't match your spreadsheet.	2801420	1471991415301	1471991415420	a	65
5506	58917	It doesn't match your spreadsheet.	It doesn't match your spreadsheet.	2801426	1471991415365	1471991415460	t	84
5506	58917	It doesn't match your spreadsheet.	It doesn't match your spreadsheet.	2801432	1471991415575	1471991415692	c	67
5506	58917	It doesn't match your spreadsheet.	It doesn't match your spreadsheet.	2801450	1471991415664	1471991415756	h	72
5506	58917	It doesn't match your spreadsheet.	It doesn't match your spreadsheet.	2801452	1471991415773	1471991415865	 	32
5506	58917	It doesn't match your spreadsheet.	It doesn't match your spreadsheet.	2801454	1471991415893	1471991415985	y	89
5506	58917	It doesn't match your spreadsheet.	It doesn't match your spreadsheet.	2801456	1471991416041	1471991416138	o	79
5506	58917	It doesn't match your spreadsheet.	It doesn't match your spreadsheet.	2801459	1471991416114	1471991416230	u	85
5506	58917	It doesn't match your spreadsheet.	It doesn't match your spreadsheet.	2801474	1471991416194	1471991416284	r	82
5506	58917	It doesn't match your spreadsheet.	It doesn't match your spreadsheet.	2801475	1471991416239	1471991416307	 	32
5506	58917	It doesn't match your spreadsheet.	It doesn't match your spreadsheet.	2801476	1471991416476	1471991416588	s	83
5506	58917	It doesn't match your spreadsheet.	It doesn't match your spreadsheet.	2801477	1471991416608	1471991416708	p	80
5506	58917	It doesn't match your spreadsheet.	It doesn't match your spreadsheet.	2801478	1471991416696	1471991416812	r	82
5506	58917	It doesn't match your spreadsheet.	It doesn't match your spreadsheet.	2801509	1471991416778	1471991416904	e	69
5506	58917	It doesn't match your spreadsheet.	It doesn't match your spreadsheet.	2801510	1471991416887	1471991417052	a	65
5506	58917	It doesn't match your spreadsheet.	It doesn't match your spreadsheet.	2801511	1471991417032	1471991417128	d	68
5506	58917	It doesn't match your spreadsheet.	It doesn't match your spreadsheet.	2801512	1471991417232	1471991417328	s	83
5506	58917	It doesn't match your spreadsheet.	It doesn't match your spreadsheet.	2801513	1471991417312	1471991417416	h	72
5506	58917	It doesn't match your spreadsheet.	It doesn't match your spreadsheet.	2801514	1471991417420	1471991417507	e	69
5506	58917	It doesn't match your spreadsheet.	It doesn't match your spreadsheet.	2801526	1471991417567	1471991417706	e	69
5506	58917	It doesn't match your spreadsheet.	It doesn't match your spreadsheet.	2801528	1471991417694	1471991417780	t	84
5506	58917	It doesn't match your spreadsheet.	It doesn't match your spreadsheet.	2801533	1471991417789	1471991417899	.	190
5506	58922	Theresa, don't worry about it.	Theresa, don't worry about it.	2801676	1471991419961	1471991420128	SHIFT	16
5506	58922	Theresa, don't worry about it.	Theresa, don't worry about it.	2801673	1471991420001	1471991420116	T	84
5506	58922	Theresa, don't worry about it.	Theresa, don't worry about it.	2801681	1471991420136	1471991420234	h	72
5506	58922	Theresa, don't worry about it.	Theresa, don't worry about it.	2801686	1471991420242	1471991420326	e	69
5506	58922	Theresa, don't worry about it.	Theresa, don't worry about it.	2801692	1471991420585	1471991420725	r	82
5506	58922	Theresa, don't worry about it.	Theresa, don't worry about it.	2801730	1471991420681	1471991420817	e	69
5506	58922	Theresa, don't worry about it.	Theresa, don't worry about it.	2801731	1471991421073	1471991421170	s	83
5506	58922	Theresa, don't worry about it.	Theresa, don't worry about it.	2801732	1471991421221	1471991421320	a	65
5506	58922	Theresa, don't worry about it.	Theresa, don't worry about it.	2801733	1471991421349	1471991421444	,	188
5506	58922	Theresa, don't worry about it.	Theresa, don't worry about it.	2801735	1471991421509	1471991421598	 	32
5506	58922	Theresa, don't worry about it.	Theresa, don't worry about it.	2801737	1471991421657	1471991421746	d	68
5506	58922	Theresa, don't worry about it.	Theresa, don't worry about it.	2801752	1471991421726	1471991421810	o	79
5506	58922	Theresa, don't worry about it.	Theresa, don't worry about it.	2801755	1471991421842	1471991421914	n	78
5506	58922	Theresa, don't worry about it.	Theresa, don't worry about it.	2801760	1471991422050	1471991422125	t	84
5506	58922	Theresa, don't worry about it.	Theresa, don't worry about it.	2801763	1471991422133	1471991422229	 	32
5506	58922	Theresa, don't worry about it.	Theresa, don't worry about it.	2801767	1471991422245	1471991422362	w	87
5506	58922	Theresa, don't worry about it.	Theresa, don't worry about it.	2801771	1471991422330	1471991422426	o	79
5506	58922	Theresa, don't worry about it.	Theresa, don't worry about it.	2801774	1471991422442	1471991422525	r	82
5506	58922	Theresa, don't worry about it.	Theresa, don't worry about it.	2801777	1471991422593	1471991422682	r	82
5506	58922	Theresa, don't worry about it.	Theresa, don't worry about it.	2801779	1471991422666	1471991422750	y	89
5506	58922	Theresa, don't worry about it.	Theresa, don't worry about it.	2801784	1471991422758	1471991422858	 	32
5506	58922	Theresa, don't worry about it.	Theresa, don't worry about it.	2801797	1471991422805	1471991422907	a	65
5506	58922	Theresa, don't worry about it.	Theresa, don't worry about it.	2801799	1471991422955	1471991423042	b	66
5506	58922	Theresa, don't worry about it.	Theresa, don't worry about it.	2801801	1471991423050	1471991423122	o	79
5506	58922	Theresa, don't worry about it.	Theresa, don't worry about it.	2801804	1471991423100	1471991423203	u	85
5506	58922	Theresa, don't worry about it.	Theresa, don't worry about it.	2801809	1471991423178	1471991423246	t	84
5506	58922	Theresa, don't worry about it.	Theresa, don't worry about it.	2801813	1471991423278	1471991423359	 	32
5506	58922	Theresa, don't worry about it.	Theresa, don't worry about it.	2801830	1471991423367	1471991423459	i	73
5506	58922	Theresa, don't worry about it.	Theresa, don't worry about it.	2801833	1471991423467	1471991423555	t	84
5506	58922	Theresa, don't worry about it.	Theresa, don't worry about it.	2801836	1471991423567	1471991423667	.	190
5506	58930	There are several business issues outstanding.	There are several business issues outstanding.	2801948	1471991425687	1471991425844	SHIFT	16
5506	58930	There are several business issues outstanding.	There are several business issues outstanding.	2801945	1471991425715	1471991425819	T	84
5506	58930	There are several business issues outstanding.	There are several business issues outstanding.	2801952	1471991425876	1471991425992	h	72
5506	58930	There are several business issues outstanding.	There are several business issues outstanding.	2801956	1471991425968	1471991426127	e	69
5506	58930	There are several business issues outstanding.	There are several business issues outstanding.	2801960	1471991426112	1471991426255	r	82
5506	58930	There are several business issues outstanding.	There are several business issues outstanding.	2801972	1471991426214	1471991426308	e	69
5506	58930	There are several business issues outstanding.	There are several business issues outstanding.	2801974	1471991426315	1471991426411	 	32
5506	58930	There are several business issues outstanding.	There are several business issues outstanding.	2801976	1471991426420	1471991426595	a	65
5506	58930	There are several business issues outstanding.	There are several business issues outstanding.	2801978	1471991426520	1471991426632	r	82
5506	58930	There are several business issues outstanding.	There are several business issues outstanding.	2801980	1471991426575	1471991426676	e	69
5506	58930	There are several business issues outstanding.	There are several business issues outstanding.	2802018	1471991426652	1471991426756	 	32
5506	58930	There are several business issues outstanding.	There are several business issues outstanding.	2802020	1471991426812	1471991426892	s	83
5506	58930	There are several business issues outstanding.	There are several business issues outstanding.	2802024	1471991426964	1471991427083	e	69
5506	58930	There are several business issues outstanding.	There are several business issues outstanding.	2802030	1471991427167	1471991427256	v	86
5506	58930	There are several business issues outstanding.	There are several business issues outstanding.	2802035	1471991427328	1471991427464	e	69
5506	58930	There are several business issues outstanding.	There are several business issues outstanding.	2802062	1471991427417	1471991427513	r	82
5506	58930	There are several business issues outstanding.	There are several business issues outstanding.	2802066	1471991427564	1471991427668	a	65
5506	58930	There are several business issues outstanding.	There are several business issues outstanding.	2802069	1471991427680	1471991427776	l	76
5506	58930	There are several business issues outstanding.	There are several business issues outstanding.	2802073	1471991427796	1471991427884	 	32
5506	58930	There are several business issues outstanding.	There are several business issues outstanding.	2802076	1471991427991	1471991428018	v	86
5506	58930	There are several business issues outstanding.	There are several business issues outstanding.	2802079	1471991428052	1471991428167	u	85
5506	58930	There are several business issues outstanding.	There are several business issues outstanding.	2802134	1471991428175	1471991428271	s	83
5506	58930	There are several business issues outstanding.	There are several business issues outstanding.	2802136	1471991428463	1471991428536	BKSP	8
5506	58930	There are several business issues outstanding.	There are several business issues outstanding.	2802140	1471991428628	1471991428680	BKSP	8
5506	58930	There are several business issues outstanding.	There are several business issues outstanding.	2802145	1471991428760	1471991428840	BKSP	8
5506	58930	There are several business issues outstanding.	There are several business issues outstanding.	2802149	1471991429000	1471991429116	b	66
5506	58930	There are several business issues outstanding.	There are several business issues outstanding.	2802153	1471991429173	1471991429285	u	85
5506	58930	There are several business issues outstanding.	There are several business issues outstanding.	2802157	1471991429293	1471991429389	s	83
5506	58930	There are several business issues outstanding.	There are several business issues outstanding.	2802160	1471991429427	1471991429520	i	73
5506	58930	There are several business issues outstanding.	There are several business issues outstanding.	2802168	1471991429577	1471991429697	n	78
5506	58930	There are several business issues outstanding.	There are several business issues outstanding.	2802171	1471991429685	1471991429764	e	69
5506	58930	There are several business issues outstanding.	There are several business issues outstanding.	2802174	1471991429852	1471991429933	s	83
5506	58930	There are several business issues outstanding.	There are several business issues outstanding.	2802177	1471991429989	1471991430088	s	83
5506	58930	There are several business issues outstanding.	There are several business issues outstanding.	2802213	1471991430077	1471991430165	 	32
5506	58930	There are several business issues outstanding.	There are several business issues outstanding.	2802219	1471991430209	1471991430330	i	73
5506	58930	There are several business issues outstanding.	There are several business issues outstanding.	2802224	1471991430337	1471991430409	s	83
5506	58930	There are several business issues outstanding.	There are several business issues outstanding.	2802229	1471991430492	1471991430617	s	83
5506	58930	There are several business issues outstanding.	There are several business issues outstanding.	2802231	1471991430626	1471991430741	u	85
5506	58930	There are several business issues outstanding.	There are several business issues outstanding.	2802280	1471991430732	1471991430801	e	69
5506	58930	There are several business issues outstanding.	There are several business issues outstanding.	2802282	1471991430876	1471991430980	s	83
5506	58930	There are several business issues outstanding.	There are several business issues outstanding.	2802284	1471991430992	1471991431092	 	32
5506	58930	There are several business issues outstanding.	There are several business issues outstanding.	2802287	1471991431273	1471991431408	o	79
5506	58930	There are several business issues outstanding.	There are several business issues outstanding.	2802289	1471991431539	1471991431649	u	85
5506	58930	There are several business issues outstanding.	There are several business issues outstanding.	2802290	1471991431693	1471991431809	t	84
5506	58930	There are several business issues outstanding.	There are several business issues outstanding.	2802325	1471991431865	1471991431986	a	65
5506	58930	There are several business issues outstanding.	There are several business issues outstanding.	2802326	1471991432169	1471991432233	BKSP	8
5506	58930	There are several business issues outstanding.	There are several business issues outstanding.	2802332	1471991432272	1471991432400	s	83
5506	58930	There are several business issues outstanding.	There are several business issues outstanding.	2802336	1471991432368	1471991432477	t	84
5506	58930	There are several business issues outstanding.	There are several business issues outstanding.	2802341	1471991432532	1471991432642	a	65
5506	58930	There are several business issues outstanding.	There are several business issues outstanding.	2802379	1471991432626	1471991432743	n	78
5506	58930	There are several business issues outstanding.	There are several business issues outstanding.	2802383	1471991432766	1471991432884	d	68
5506	58930	There are several business issues outstanding.	There are several business issues outstanding.	2802387	1471991432868	1471991432953	i	73
5506	58930	There are several business issues outstanding.	There are several business issues outstanding.	2802389	1471991432989	1471991433077	n	78
5506	58930	There are several business issues outstanding.	There are several business issues outstanding.	2802391	1471991433021	1471991433105	g	71
5506	58930	There are several business issues outstanding.	There are several business issues outstanding.	2802393	1471991433214	1471991433326	.	190
5506	58937	Theresa, I changed the CIG fuel rate to.	Theresa, I changed the CIG fuel rate to.	2802500	1471991435113	1471991435271	SHIFT	16
5506	58937	Theresa, I changed the CIG fuel rate to.	Theresa, I changed the CIG fuel rate to.	2802498	1471991435142	1471991435255	T	84
5506	58937	Theresa, I changed the CIG fuel rate to.	Theresa, I changed the CIG fuel rate to.	2802503	1471991435295	1471991435422	h	72
5506	58937	Theresa, I changed the CIG fuel rate to.	Theresa, I changed the CIG fuel rate to.	2802505	1471991435578	1471991435698	e	69
5506	58937	Theresa, I changed the CIG fuel rate to.	Theresa, I changed the CIG fuel rate to.	2802509	1471991435702	1471991435862	r	82
5506	58937	Theresa, I changed the CIG fuel rate to.	Theresa, I changed the CIG fuel rate to.	2802543	1471991435826	1471991435942	e	69
5506	58937	Theresa, I changed the CIG fuel rate to.	Theresa, I changed the CIG fuel rate to.	2802544	1471991436230	1471991436386	s	83
5506	58937	Theresa, I changed the CIG fuel rate to.	Theresa, I changed the CIG fuel rate to.	2802545	1471991436374	1471991436491	a	65
5506	58937	Theresa, I changed the CIG fuel rate to.	Theresa, I changed the CIG fuel rate to.	2802546	1471991436519	1471991436608	,	188
5506	58937	Theresa, I changed the CIG fuel rate to.	Theresa, I changed the CIG fuel rate to.	2802547	1471991436690	1471991436799	 	32
5506	58937	Theresa, I changed the CIG fuel rate to.	Theresa, I changed the CIG fuel rate to.	2802549	1471991436862	1471991437039	SHIFT	16
5506	58937	Theresa, I changed the CIG fuel rate to.	Theresa, I changed the CIG fuel rate to.	2802575	1471991436932	1471991437053	I	73
5506	58937	Theresa, I changed the CIG fuel rate to.	Theresa, I changed the CIG fuel rate to.	2802578	1471991437060	1471991437149	 	32
5506	58937	Theresa, I changed the CIG fuel rate to.	Theresa, I changed the CIG fuel rate to.	2802582	1471991437165	1471991437259	c	67
5506	58937	Theresa, I changed the CIG fuel rate to.	Theresa, I changed the CIG fuel rate to.	2802585	1471991437310	1471991437422	h	72
5506	58937	Theresa, I changed the CIG fuel rate to.	Theresa, I changed the CIG fuel rate to.	2802588	1471991437402	1471991437506	a	65
5506	58937	Theresa, I changed the CIG fuel rate to.	Theresa, I changed the CIG fuel rate to.	2802590	1471991437560	1471991437670	n	78
5506	58937	Theresa, I changed the CIG fuel rate to.	Theresa, I changed the CIG fuel rate to.	2802606	1471991437661	1471991437766	g	71
5506	58937	Theresa, I changed the CIG fuel rate to.	Theresa, I changed the CIG fuel rate to.	2802607	1471991437810	1471991437887	e	69
5506	58937	Theresa, I changed the CIG fuel rate to.	Theresa, I changed the CIG fuel rate to.	2802608	1471991437963	1471991438060	d	68
5506	58937	Theresa, I changed the CIG fuel rate to.	Theresa, I changed the CIG fuel rate to.	2802610	1471991438023	1471991438115	 	32
5506	58937	Theresa, I changed the CIG fuel rate to.	Theresa, I changed the CIG fuel rate to.	2802612	1471991438396	1471991438516	t	84
5506	58937	Theresa, I changed the CIG fuel rate to.	Theresa, I changed the CIG fuel rate to.	2802662	1471991438462	1471991438568	h	72
5506	58937	Theresa, I changed the CIG fuel rate to.	Theresa, I changed the CIG fuel rate to.	2802664	1471991438592	1471991438699	e	69
5506	58937	Theresa, I changed the CIG fuel rate to.	Theresa, I changed the CIG fuel rate to.	2802669	1471991438612	1471991438747	 	32
5506	58937	Theresa, I changed the CIG fuel rate to.	Theresa, I changed the CIG fuel rate to.	2802675	1471991439044	1471991439243	SHIFT	16
5506	58937	Theresa, I changed the CIG fuel rate to.	Theresa, I changed the CIG fuel rate to.	2802672	1471991439088	1471991439219	C	67
5506	58937	Theresa, I changed the CIG fuel rate to.	Theresa, I changed the CIG fuel rate to.	2802682	1471991439376	1471991439562	SHIFT	16
5506	58937	Theresa, I changed the CIG fuel rate to.	Theresa, I changed the CIG fuel rate to.	2802679	1471991439412	1471991439540	I	73
5506	58937	Theresa, I changed the CIG fuel rate to.	Theresa, I changed the CIG fuel rate to.	2802685	1471991439712	1471991439871	g	71
5506	58937	Theresa, I changed the CIG fuel rate to.	Theresa, I changed the CIG fuel rate to.	2802708	1471991439724	1471991439896	SHIFT	16
5506	58937	Theresa, I changed the CIG fuel rate to.	Theresa, I changed the CIG fuel rate to.	2802711	1471991439969	1471991440077	 	32
5506	58937	Theresa, I changed the CIG fuel rate to.	Theresa, I changed the CIG fuel rate to.	2802714	1471991440129	1471991440242	f	70
5506	58937	Theresa, I changed the CIG fuel rate to.	Theresa, I changed the CIG fuel rate to.	2802718	1471991440304	1471991440432	u	85
5506	58937	Theresa, I changed the CIG fuel rate to.	Theresa, I changed the CIG fuel rate to.	2802722	1471991440444	1471991440536	e	69
5506	58937	Theresa, I changed the CIG fuel rate to.	Theresa, I changed the CIG fuel rate to.	2802723	1471991440561	1471991440666	l	76
5506	58937	Theresa, I changed the CIG fuel rate to.	Theresa, I changed the CIG fuel rate to.	2802800	1471991440724	1471991440812	 	32
5506	58937	Theresa, I changed the CIG fuel rate to.	Theresa, I changed the CIG fuel rate to.	2802801	1471991440955	1471991441485	BKSP	8
5506	58937	Theresa, I changed the CIG fuel rate to.	Theresa, I changed the CIG fuel rate to.	2802803	1471991441588	1471991441674	BKSP	8
5506	58937	Theresa, I changed the CIG fuel rate to.	Theresa, I changed the CIG fuel rate to.	2802805	1471991441759	1471991441848	BKSP	8
5506	58937	Theresa, I changed the CIG fuel rate to.	Theresa, I changed the CIG fuel rate to.	2802810	1471991442056	1471991442208	SHIFT	16
5506	58937	Theresa, I changed the CIG fuel rate to.	Theresa, I changed the CIG fuel rate to.	2802807	1471991442080	1471991442200	G	71
5506	58937	Theresa, I changed the CIG fuel rate to.	Theresa, I changed the CIG fuel rate to.	2802812	1471991442296	1471991442400	 	32
5506	58937	Theresa, I changed the CIG fuel rate to.	Theresa, I changed the CIG fuel rate to.	2802815	1471991442764	1471991442884	f	70
5506	58937	Theresa, I changed the CIG fuel rate to.	Theresa, I changed the CIG fuel rate to.	2802819	1471991442893	1471991443013	u	85
5506	58937	Theresa, I changed the CIG fuel rate to.	Theresa, I changed the CIG fuel rate to.	2802838	1471991443029	1471991443108	e	69
5506	58937	Theresa, I changed the CIG fuel rate to.	Theresa, I changed the CIG fuel rate to.	2802841	1471991443136	1471991443245	l	76
5506	58937	Theresa, I changed the CIG fuel rate to.	Theresa, I changed the CIG fuel rate to.	2802845	1471991443269	1471991443383	 	32
5506	58937	Theresa, I changed the CIG fuel rate to.	Theresa, I changed the CIG fuel rate to.	2802849	1471991443492	1471991443620	r	82
5506	58937	Theresa, I changed the CIG fuel rate to.	Theresa, I changed the CIG fuel rate to.	2802853	1471991443624	1471991443783	a	65
5506	58937	Theresa, I changed the CIG fuel rate to.	Theresa, I changed the CIG fuel rate to.	2802892	1471991443725	1471991443857	t	84
5506	58937	Theresa, I changed the CIG fuel rate to.	Theresa, I changed the CIG fuel rate to.	2802897	1471991443825	1471991443930	e	69
5506	58937	Theresa, I changed the CIG fuel rate to.	Theresa, I changed the CIG fuel rate to.	2802901	1471991443946	1471991444046	 	32
5506	58937	Theresa, I changed the CIG fuel rate to.	Theresa, I changed the CIG fuel rate to.	2802904	1471991444058	1471991444150	t	84
5506	58937	Theresa, I changed the CIG fuel rate to.	Theresa, I changed the CIG fuel rate to.	2802906	1471991444158	1471991444222	o	79
5506	58937	Theresa, I changed the CIG fuel rate to.	Theresa, I changed the CIG fuel rate to.	2802908	1471991444326	1471991444446	.	190
5506	58951	He is listed as day to day.	He is listed as day to day.	2802992	1471991446233	1471991446370	SHIFT	16
5506	58951	He is listed as day to day.	He is listed as day to day.	2802996	1471991446257	1471991446378	H	72
5506	58951	He is listed as day to day.	He is listed as day to day.	2802998	1471991446442	1471991446526	e	69
5506	58951	He is listed as day to day.	He is listed as day to day.	2803002	1471991446534	1471991446634	 	32
5506	58951	He is listed as day to day.	He is listed as day to day.	2803007	1471991446630	1471991446722	i	73
5506	58951	He is listed as day to day.	He is listed as day to day.	2803016	1471991446698	1471991446806	s	83
5506	58951	He is listed as day to day.	He is listed as day to day.	2803019	1471991446791	1471991446870	 	32
5506	58951	He is listed as day to day.	He is listed as day to day.	2803023	1471991446854	1471991447007	l	76
5506	58951	He is listed as day to day.	He is listed as day to day.	2803028	1471991446979	1471991447103	i	73
5506	58951	He is listed as day to day.	He is listed as day to day.	2803035	1471991447089	1471991447197	s	83
5506	58951	He is listed as day to day.	He is listed as day to day.	2803064	1471991447143	1471991447275	t	84
5506	58951	He is listed as day to day.	He is listed as day to day.	2803066	1471991447239	1471991447339	e	69
5506	58951	He is listed as day to day.	He is listed as day to day.	2803069	1471991447399	1471991447499	d	68
5506	58951	He is listed as day to day.	He is listed as day to day.	2803073	1471991447484	1471991447576	 	32
5506	58951	He is listed as day to day.	He is listed as day to day.	2803081	1471991447584	1471991447746	a	65
5506	58951	He is listed as day to day.	He is listed as day to day.	2803108	1471991447681	1471991447786	s	83
5506	58951	He is listed as day to day.	He is listed as day to day.	2803111	1471991447734	1471991447842	 	32
5506	58951	He is listed as day to day.	He is listed as day to day.	2803115	1471991447893	1471991448031	d	68
5506	58951	He is listed as day to day.	He is listed as day to day.	2803117	1471991448019	1471991448143	a	65
5506	58951	He is listed as day to day.	He is listed as day to day.	2803120	1471991448083	1471991448167	y	89
5506	58951	He is listed as day to day.	He is listed as day to day.	2803125	1471991448219	1471991448288	 	32
5506	58951	He is listed as day to day.	He is listed as day to day.	2803131	1471991448319	1471991448407	t	84
5506	58951	He is listed as day to day.	He is listed as day to day.	2803152	1471991448384	1471991448471	o	79
5506	58951	He is listed as day to day.	He is listed as day to day.	2803157	1471991448483	1471991448579	 	32
5506	58951	He is listed as day to day.	He is listed as day to day.	2803161	1471991448563	1471991448670	d	68
5506	58951	He is listed as day to day.	He is listed as day to day.	2803164	1471991448638	1471991448770	a	65
5506	58951	He is listed as day to day.	He is listed as day to day.	2803167	1471991448754	1471991448816	y	89
5506	58951	He is listed as day to day.	He is listed as day to day.	2803169	1471991448919	1471991449032	.	190
5506	58957	Add a Star Trek convention and sports memorabilia show to the mix.	Add a Star Trek convention and sports memorabilia show to the mix.	2803325	1471991450879	1471991451027	SHIFT	16
5506	58957	Add a Star Trek convention and sports memorabilia show to the mix.	Add a Star Trek convention and sports memorabilia show to the mix.	2803320	1471991450903	1471991451019	A	65
5506	58957	Add a Star Trek convention and sports memorabilia show to the mix.	Add a Star Trek convention and sports memorabilia show to the mix.	2803331	1471991451127	1471991451207	d	68
5506	58957	Add a Star Trek convention and sports memorabilia show to the mix.	Add a Star Trek convention and sports memorabilia show to the mix.	2803337	1471991451279	1471991451387	d	68
5506	58957	Add a Star Trek convention and sports memorabilia show to the mix.	Add a Star Trek convention and sports memorabilia show to the mix.	2803340	1471991451396	1471991451488	 	32
5506	58957	Add a Star Trek convention and sports memorabilia show to the mix.	Add a Star Trek convention and sports memorabilia show to the mix.	2803343	1471991451540	1471991451671	a	65
5506	58957	Add a Star Trek convention and sports memorabilia show to the mix.	Add a Star Trek convention and sports memorabilia show to the mix.	2803386	1471991451655	1471991451748	 	32
5506	58957	Add a Star Trek convention and sports memorabilia show to the mix.	Add a Star Trek convention and sports memorabilia show to the mix.	2803387	1471991451975	1471991452124	S	16
5506	58957	Add a Star Trek convention and sports memorabilia show to the mix.	Add a Star Trek convention and sports memorabilia show to the mix.	2803389	1471991452207	1471991452297	t	84
5506	58957	Add a Star Trek convention and sports memorabilia show to the mix.	Add a Star Trek convention and sports memorabilia show to the mix.	2803391	1471991452391	1471991452538	a	65
5506	58957	Add a Star Trek convention and sports memorabilia show to the mix.	Add a Star Trek convention and sports memorabilia show to the mix.	2803395	1471991452474	1471991452575	r	82
5506	58957	Add a Star Trek convention and sports memorabilia show to the mix.	Add a Star Trek convention and sports memorabilia show to the mix.	2803401	1471991452595	1471991452724	 	32
5506	58957	Add a Star Trek convention and sports memorabilia show to the mix.	Add a Star Trek convention and sports memorabilia show to the mix.	2803446	1471991452760	1471991452911	T	16
5506	58957	Add a Star Trek convention and sports memorabilia show to the mix.	Add a Star Trek convention and sports memorabilia show to the mix.	2803448	1471991453017	1471991453188	r	82
5506	58957	Add a Star Trek convention and sports memorabilia show to the mix.	Add a Star Trek convention and sports memorabilia show to the mix.	2803450	1471991453156	1471991453273	e	69
5506	58957	Add a Star Trek convention and sports memorabilia show to the mix.	Add a Star Trek convention and sports memorabilia show to the mix.	2803453	1471991453324	1471991453452	k	75
5506	58957	Add a Star Trek convention and sports memorabilia show to the mix.	Add a Star Trek convention and sports memorabilia show to the mix.	2803456	1471991453469	1471991453565	 	32
5506	58957	Add a Star Trek convention and sports memorabilia show to the mix.	Add a Star Trek convention and sports memorabilia show to the mix.	2803497	1471991453721	1471991453853	c	67
5506	58957	Add a Star Trek convention and sports memorabilia show to the mix.	Add a Star Trek convention and sports memorabilia show to the mix.	2803499	1471991453815	1471991453877	o	79
5506	58957	Add a Star Trek convention and sports memorabilia show to the mix.	Add a Star Trek convention and sports memorabilia show to the mix.	2803501	1471991453914	1471991454037	n	78
5506	58957	Add a Star Trek convention and sports memorabilia show to the mix.	Add a Star Trek convention and sports memorabilia show to the mix.	2803505	1471991454045	1471991454134	v	86
5506	58957	Add a Star Trek convention and sports memorabilia show to the mix.	Add a Star Trek convention and sports memorabilia show to the mix.	2803512	1471991454186	1471991454293	e	69
5506	58957	Add a Star Trek convention and sports memorabilia show to the mix.	Add a Star Trek convention and sports memorabilia show to the mix.	2803546	1471991454249	1471991454361	n	78
5506	58957	Add a Star Trek convention and sports memorabilia show to the mix.	Add a Star Trek convention and sports memorabilia show to the mix.	2803550	1471991454389	1471991454485	t	84
5506	58957	Add a Star Trek convention and sports memorabilia show to the mix.	Add a Star Trek convention and sports memorabilia show to the mix.	2803554	1471991454469	1471991454592	i	73
5506	58957	Add a Star Trek convention and sports memorabilia show to the mix.	Add a Star Trek convention and sports memorabilia show to the mix.	2803560	1471991454572	1471991454648	o	79
5506	58957	Add a Star Trek convention and sports memorabilia show to the mix.	Add a Star Trek convention and sports memorabilia show to the mix.	2803564	1471991454676	1471991454784	n	78
5506	58957	Add a Star Trek convention and sports memorabilia show to the mix.	Add a Star Trek convention and sports memorabilia show to the mix.	2803568	1471991454796	1471991454886	 	32
5506	58957	Add a Star Trek convention and sports memorabilia show to the mix.	Add a Star Trek convention and sports memorabilia show to the mix.	2803580	1471991454820	1471991454980	a	65
5506	58957	Add a Star Trek convention and sports memorabilia show to the mix.	Add a Star Trek convention and sports memorabilia show to the mix.	2803583	1471991454952	1471991455044	d	78
5506	58957	Add a Star Trek convention and sports memorabilia show to the mix.	Add a Star Trek convention and sports memorabilia show to the mix.	2803585	1471991455096	1471991455182	 	32
5506	58957	Add a Star Trek convention and sports memorabilia show to the mix.	Add a Star Trek convention and sports memorabilia show to the mix.	2803588	1471991455170	1471991455302	s	83
5506	58957	Add a Star Trek convention and sports memorabilia show to the mix.	Add a Star Trek convention and sports memorabilia show to the mix.	2803592	1471991455306	1471991455419	p	80
5506	58957	Add a Star Trek convention and sports memorabilia show to the mix.	Add a Star Trek convention and sports memorabilia show to the mix.	2803642	1471991455358	1471991455530	o	79
5506	58957	Add a Star Trek convention and sports memorabilia show to the mix.	Add a Star Trek convention and sports memorabilia show to the mix.	2803646	1471991455562	1471991455639	r	82
5506	58957	Add a Star Trek convention and sports memorabilia show to the mix.	Add a Star Trek convention and sports memorabilia show to the mix.	2803650	1471991455714	1471991455810	t	84
5506	58957	Add a Star Trek convention and sports memorabilia show to the mix.	Add a Star Trek convention and sports memorabilia show to the mix.	2803654	1471991455862	1471991455982	s	83
5506	58957	Add a Star Trek convention and sports memorabilia show to the mix.	Add a Star Trek convention and sports memorabilia show to the mix.	2803657	1471991455974	1471991456066	 	32
5506	58957	Add a Star Trek convention and sports memorabilia show to the mix.	Add a Star Trek convention and sports memorabilia show to the mix.	2803661	1471991456130	1471991456262	m	77
5506	58957	Add a Star Trek convention and sports memorabilia show to the mix.	Add a Star Trek convention and sports memorabilia show to the mix.	2803701	1471991456225	1471991456357	e	69
5506	58957	Add a Star Trek convention and sports memorabilia show to the mix.	Add a Star Trek convention and sports memorabilia show to the mix.	2803705	1471991456377	1471991456520	m	77
5506	58957	Add a Star Trek convention and sports memorabilia show to the mix.	Add a Star Trek convention and sports memorabilia show to the mix.	2803710	1471991456554	1471991456671	o	79
5506	58957	Add a Star Trek convention and sports memorabilia show to the mix.	Add a Star Trek convention and sports memorabilia show to the mix.	2803717	1471991456703	1471991456827	r	82
5506	58957	Add a Star Trek convention and sports memorabilia show to the mix.	Add a Star Trek convention and sports memorabilia show to the mix.	2803721	1471991456899	1471991457006	a	65
5506	58957	Add a Star Trek convention and sports memorabilia show to the mix.	Add a Star Trek convention and sports memorabilia show to the mix.	2803727	1471991457090	1471991457217	b	66
5506	58957	Add a Star Trek convention and sports memorabilia show to the mix.	Add a Star Trek convention and sports memorabilia show to the mix.	2803767	1471991457330	1471991457457	i	73
5506	58957	Add a Star Trek convention and sports memorabilia show to the mix.	Add a Star Trek convention and sports memorabilia show to the mix.	2803771	1471991457533	1471991457665	l	76
5506	58957	Add a Star Trek convention and sports memorabilia show to the mix.	Add a Star Trek convention and sports memorabilia show to the mix.	2803777	1471991457649	1471991457761	i	73
5506	58957	Add a Star Trek convention and sports memorabilia show to the mix.	Add a Star Trek convention and sports memorabilia show to the mix.	2803781	1471991457866	1471991457986	a	65
5506	58957	Add a Star Trek convention and sports memorabilia show to the mix.	Add a Star Trek convention and sports memorabilia show to the mix.	2803815	1471991457974	1471991458071	 	32
5506	58957	Add a Star Trek convention and sports memorabilia show to the mix.	Add a Star Trek convention and sports memorabilia show to the mix.	2803821	1471991458321	1471991458450	s	83
5506	58957	Add a Star Trek convention and sports memorabilia show to the mix.	Add a Star Trek convention and sports memorabilia show to the mix.	2803825	1471991458438	1471991458525	h	72
5506	58957	Add a Star Trek convention and sports memorabilia show to the mix.	Add a Star Trek convention and sports memorabilia show to the mix.	2803828	1471991458554	1471991458675	o	79
5506	58957	Add a Star Trek convention and sports memorabilia show to the mix.	Add a Star Trek convention and sports memorabilia show to the mix.	2803830	1471991458695	1471991458784	w	87
5506	58957	Add a Star Trek convention and sports memorabilia show to the mix.	Add a Star Trek convention and sports memorabilia show to the mix.	2803850	1471991458760	1471991458839	 	32
5506	58957	Add a Star Trek convention and sports memorabilia show to the mix.	Add a Star Trek convention and sports memorabilia show to the mix.	2803853	1471991458925	1471991458999	t	84
5506	58957	Add a Star Trek convention and sports memorabilia show to the mix.	Add a Star Trek convention and sports memorabilia show to the mix.	2803855	1471991458975	1471991459059	o	79
5506	58957	Add a Star Trek convention and sports memorabilia show to the mix.	Add a Star Trek convention and sports memorabilia show to the mix.	2803858	1471991459067	1471991459144	 	32
5506	58957	Add a Star Trek convention and sports memorabilia show to the mix.	Add a Star Trek convention and sports memorabilia show to the mix.	2803864	1471991459135	1471991459268	t	84
5506	58957	Add a Star Trek convention and sports memorabilia show to the mix.	Add a Star Trek convention and sports memorabilia show to the mix.	2803915	1471991459200	1471991459288	h	72
5506	58957	Add a Star Trek convention and sports memorabilia show to the mix.	Add a Star Trek convention and sports memorabilia show to the mix.	2803920	1471991459244	1471991459348	e	69
5506	58957	Add a Star Trek convention and sports memorabilia show to the mix.	Add a Star Trek convention and sports memorabilia show to the mix.	2803922	1471991459356	1471991459447	 	32
5506	58957	Add a Star Trek convention and sports memorabilia show to the mix.	Add a Star Trek convention and sports memorabilia show to the mix.	2803925	1471991459507	1471991459594	m	77
5506	58957	Add a Star Trek convention and sports memorabilia show to the mix.	Add a Star Trek convention and sports memorabilia show to the mix.	2803928	1471991459582	1471991459682	i	73
5506	58957	Add a Star Trek convention and sports memorabilia show to the mix.	Add a Star Trek convention and sports memorabilia show to the mix.	2803933	1471991459922	1471991460038	x	88
5506	58957	Add a Star Trek convention and sports memorabilia show to the mix.	Add a Star Trek convention and sports memorabilia show to the mix.	2803939	1471991460098	1471991460206	.	190
5506	58970	It should save the taxpayers a considerable amount of money.	It should save the taxpayers a considerable amount of money.	2804062	1471991461924	1471991462060	SHIFT	16
5506	58970	It should save the taxpayers a considerable amount of money.	It should save the taxpayers a considerable amount of money.	2804063	1471991461981	1471991462096	I	73
5506	58970	It should save the taxpayers a considerable amount of money.	It should save the taxpayers a considerable amount of money.	2804064	1471991462108	1471991462208	t	84
5506	58970	It should save the taxpayers a considerable amount of money.	It should save the taxpayers a considerable amount of money.	2804065	1471991462196	1471991462290	 	32
5506	58970	It should save the taxpayers a considerable amount of money.	It should save the taxpayers a considerable amount of money.	2804066	1471991462399	1471991462496	s	83
5506	58970	It should save the taxpayers a considerable amount of money.	It should save the taxpayers a considerable amount of money.	2804108	1471991462476	1471991462575	h	72
5506	58970	It should save the taxpayers a considerable amount of money.	It should save the taxpayers a considerable amount of money.	2804114	1471991462611	1471991462723	o	79
5506	58970	It should save the taxpayers a considerable amount of money.	It should save the taxpayers a considerable amount of money.	2804121	1471991462699	1471991462780	u	85
5506	58970	It should save the taxpayers a considerable amount of money.	It should save the taxpayers a considerable amount of money.	2804126	1471991462844	1471991462942	l	76
5506	58970	It should save the taxpayers a considerable amount of money.	It should save the taxpayers a considerable amount of money.	2804132	1471991462928	1471991463027	d	68
5506	58970	It should save the taxpayers a considerable amount of money.	It should save the taxpayers a considerable amount of money.	2804136	1471991463036	1471991463128	 	32
5506	58970	It should save the taxpayers a considerable amount of money.	It should save the taxpayers a considerable amount of money.	2804156	1471991463220	1471991463368	s	83
5506	58970	It should save the taxpayers a considerable amount of money.	It should save the taxpayers a considerable amount of money.	2804160	1471991463412	1471991463504	a	65
5506	58970	It should save the taxpayers a considerable amount of money.	It should save the taxpayers a considerable amount of money.	2804166	1471991463612	1471991463725	v	86
5506	58970	It should save the taxpayers a considerable amount of money.	It should save the taxpayers a considerable amount of money.	2804173	1471991463748	1471991463844	e	69
5506	58970	It should save the taxpayers a considerable amount of money.	It should save the taxpayers a considerable amount of money.	2804204	1471991463809	1471991463893	 	32
5506	58970	It should save the taxpayers a considerable amount of money.	It should save the taxpayers a considerable amount of money.	2804219	1471991463940	1471991464077	t	84
5506	58970	It should save the taxpayers a considerable amount of money.	It should save the taxpayers a considerable amount of money.	2804211	1471991463973	1471991464065	h	72
5506	58970	It should save the taxpayers a considerable amount of money.	It should save the taxpayers a considerable amount of money.	2804224	1471991464049	1471991464164	e	69
5506	58970	It should save the taxpayers a considerable amount of money.	It should save the taxpayers a considerable amount of money.	2804227	1471991464137	1471991464256	 	32
5506	58970	It should save the taxpayers a considerable amount of money.	It should save the taxpayers a considerable amount of money.	2804288	1471991464228	1471991464336	t	84
5506	58970	It should save the taxpayers a considerable amount of money.	It should save the taxpayers a considerable amount of money.	2804293	1471991464364	1471991464509	a	65
5506	58970	It should save the taxpayers a considerable amount of money.	It should save the taxpayers a considerable amount of money.	2804297	1471991464669	1471991464788	x	88
5506	58970	It should save the taxpayers a considerable amount of money.	It should save the taxpayers a considerable amount of money.	2804301	1471991465024	1471991465136	p	80
5506	58970	It should save the taxpayers a considerable amount of money.	It should save the taxpayers a considerable amount of money.	2804309	1471991465155	1471991465260	a	65
5506	58970	It should save the taxpayers a considerable amount of money.	It should save the taxpayers a considerable amount of money.	2804316	1471991465272	1471991465364	y	89
5506	58970	It should save the taxpayers a considerable amount of money.	It should save the taxpayers a considerable amount of money.	2804337	1471991465372	1471991465500	e	69
5506	58970	It should save the taxpayers a considerable amount of money.	It should save the taxpayers a considerable amount of money.	2804339	1471991465468	1471991465545	r	82
5506	58970	It should save the taxpayers a considerable amount of money.	It should save the taxpayers a considerable amount of money.	2804345	1471991465604	1471991465704	s	83
5506	58970	It should save the taxpayers a considerable amount of money.	It should save the taxpayers a considerable amount of money.	2804353	1471991465724	1471991465809	 	32
5506	58970	It should save the taxpayers a considerable amount of money.	It should save the taxpayers a considerable amount of money.	2804358	1471991465813	1471991465929	a	65
5506	58970	It should save the taxpayers a considerable amount of money.	It should save the taxpayers a considerable amount of money.	2804395	1471991465917	1471991466001	 	32
5506	58970	It should save the taxpayers a considerable amount of money.	It should save the taxpayers a considerable amount of money.	2804397	1471991466164	1471991466285	c	67
5506	58970	It should save the taxpayers a considerable amount of money.	It should save the taxpayers a considerable amount of money.	2804399	1471991466236	1471991466317	o	79
5506	58970	It should save the taxpayers a considerable amount of money.	It should save the taxpayers a considerable amount of money.	2804402	1471991466364	1471991466468	n	78
5506	58970	It should save the taxpayers a considerable amount of money.	It should save the taxpayers a considerable amount of money.	2804405	1471991466472	1471991466577	s	83
5506	58970	It should save the taxpayers a considerable amount of money.	It should save the taxpayers a considerable amount of money.	2804408	1471991466589	1471991466706	i	73
5506	58970	It should save the taxpayers a considerable amount of money.	It should save the taxpayers a considerable amount of money.	2804435	1471991466662	1471991466738	d	68
5506	58970	It should save the taxpayers a considerable amount of money.	It should save the taxpayers a considerable amount of money.	2804437	1471991466830	1471991466978	e	69
5506	58970	It should save the taxpayers a considerable amount of money.	It should save the taxpayers a considerable amount of money.	2804440	1471991466938	1471991467042	r	82
5506	58970	It should save the taxpayers a considerable amount of money.	It should save the taxpayers a considerable amount of money.	2804441	1471991467074	1471991467177	a	65
5506	58970	It should save the taxpayers a considerable amount of money.	It should save the taxpayers a considerable amount of money.	2804442	1471991467249	1471991467349	b	66
5506	58970	It should save the taxpayers a considerable amount of money.	It should save the taxpayers a considerable amount of money.	2804485	1471991467335	1471991467460	l	76
5506	58970	It should save the taxpayers a considerable amount of money.	It should save the taxpayers a considerable amount of money.	2804487	1471991467471	1471991467563	e	69
5506	58970	It should save the taxpayers a considerable amount of money.	It should save the taxpayers a considerable amount of money.	2804491	1471991467554	1471991467665	 	32
5506	58970	It should save the taxpayers a considerable amount of money.	It should save the taxpayers a considerable amount of money.	2804494	1471991467669	1471991467808	a	65
5506	58970	It should save the taxpayers a considerable amount of money.	It should save the taxpayers a considerable amount of money.	2804498	1471991467780	1471991467893	m	77
5506	58970	It should save the taxpayers a considerable amount of money.	It should save the taxpayers a considerable amount of money.	2804500	1471991467949	1471991468056	o	79
5506	58970	It should save the taxpayers a considerable amount of money.	It should save the taxpayers a considerable amount of money.	2804506	1471991468037	1471991468098	u	85
5506	58970	It should save the taxpayers a considerable amount of money.	It should save the taxpayers a considerable amount of money.	2804508	1471991468177	1471991468275	n	78
5506	58970	It should save the taxpayers a considerable amount of money.	It should save the taxpayers a considerable amount of money.	2804512	1471991468258	1471991468359	t	84
5506	58970	It should save the taxpayers a considerable amount of money.	It should save the taxpayers a considerable amount of money.	2804517	1471991468366	1471991468458	 	32
5506	58970	It should save the taxpayers a considerable amount of money.	It should save the taxpayers a considerable amount of money.	2804519	1471991468465	1471991468566	o	79
5506	58970	It should save the taxpayers a considerable amount of money.	It should save the taxpayers a considerable amount of money.	2804527	1471991468570	1471991468678	f	70
5506	58970	It should save the taxpayers a considerable amount of money.	It should save the taxpayers a considerable amount of money.	2804538	1471991468751	1471991468845	 	32
5506	58970	It should save the taxpayers a considerable amount of money.	It should save the taxpayers a considerable amount of money.	2804539	1471991468889	1471991469023	m	77
5506	58970	It should save the taxpayers a considerable amount of money.	It should save the taxpayers a considerable amount of money.	2804540	1471991469066	1471991469157	o	79
5506	58970	It should save the taxpayers a considerable amount of money.	It should save the taxpayers a considerable amount of money.	2804541	1471991469195	1471991469299	n	78
5506	58970	It should save the taxpayers a considerable amount of money.	It should save the taxpayers a considerable amount of money.	2804574	1471991469283	1471991469379	e	69
5506	58970	It should save the taxpayers a considerable amount of money.	It should save the taxpayers a considerable amount of money.	2804576	1471991469431	1471991469467	y	89
5506	58970	It should save the taxpayers a considerable amount of money.	It should save the taxpayers a considerable amount of money.	2804581	1471991469941	1471991470042	.	190
5506	58988	I guess the next time I'll see you is for Superbowl.	I guess the next time I'll see you is for Superbowl.	2804714	1471991471394	1471991471465	;	186
5506	58988	I guess the next time I'll see you is for Superbowl.	I guess the next time I'll see you is for Superbowl.	2804718	1471991471983	1471991472075	BKSP	8
5506	58988	I guess the next time I'll see you is for Superbowl.	I guess the next time I'll see you is for Superbowl.	2804725	1471991472296	1471991472460	SHIFT	16
5506	58988	I guess the next time I'll see you is for Superbowl.	I guess the next time I'll see you is for Superbowl.	2804723	1471991472320	1471991472424	I	73
5506	58988	I guess the next time I'll see you is for Superbowl.	I guess the next time I'll see you is for Superbowl.	2804730	1471991472470	1471991472552	 	32
5506	58988	I guess the next time I'll see you is for Superbowl.	I guess the next time I'll see you is for Superbowl.	2804735	1471991472566	1471991472667	g	71
5506	58988	I guess the next time I'll see you is for Superbowl.	I guess the next time I'll see you is for Superbowl.	2804767	1471991472633	1471991472744	u	85
5506	58988	I guess the next time I'll see you is for Superbowl.	I guess the next time I'll see you is for Superbowl.	2804774	1471991472777	1471991472868	e	69
5506	58988	I guess the next time I'll see you is for Superbowl.	I guess the next time I'll see you is for Superbowl.	2804780	1471991472922	1471991473015	s	83
5506	58988	I guess the next time I'll see you is for Superbowl.	I guess the next time I'll see you is for Superbowl.	2804783	1471991473083	1471991473173	s	83
5506	58988	I guess the next time I'll see you is for Superbowl.	I guess the next time I'll see you is for Superbowl.	2804787	1471991473155	1471991473255	 	32
5506	58988	I guess the next time I'll see you is for Superbowl.	I guess the next time I'll see you is for Superbowl.	2804790	1471991473268	1471991473295	t	84
5506	58988	I guess the next time I'll see you is for Superbowl.	I guess the next time I'll see you is for Superbowl.	2804842	1471991473319	1471991473408	h	84
5506	58988	I guess the next time I'll see you is for Superbowl.	I guess the next time I'll see you is for Superbowl.	2804846	1471991473792	1471991473866	BKSP	8
5506	58988	I guess the next time I'll see you is for Superbowl.	I guess the next time I'll see you is for Superbowl.	2804852	1471991473928	1471991473999	BKSP	8
5506	58988	I guess the next time I'll see you is for Superbowl.	I guess the next time I'll see you is for Superbowl.	2804857	1471991474184	1471991474276	h	72
5506	58988	I guess the next time I'll see you is for Superbowl.	I guess the next time I'll see you is for Superbowl.	2804862	1471991474324	1471991474416	e	69
5506	58988	I guess the next time I'll see you is for Superbowl.	I guess the next time I'll see you is for Superbowl.	2804901	1471991474379	1471991474488	 	32
5506	58988	I guess the next time I'll see you is for Superbowl.	I guess the next time I'll see you is for Superbowl.	2804903	1471991474548	1471991474655	n	78
5506	58988	I guess the next time I'll see you is for Superbowl.	I guess the next time I'll see you is for Superbowl.	2804909	1471991474608	1471991474711	e	69
5506	58988	I guess the next time I'll see you is for Superbowl.	I guess the next time I'll see you is for Superbowl.	2804911	1471991474800	1471991474900	x	88
5506	58988	I guess the next time I'll see you is for Superbowl.	I guess the next time I'll see you is for Superbowl.	2804913	1471991474960	1471991475060	t	84
5506	58988	I guess the next time I'll see you is for Superbowl.	I guess the next time I'll see you is for Superbowl.	2804924	1471991475032	1471991475116	 	32
5506	58988	I guess the next time I'll see you is for Superbowl.	I guess the next time I'll see you is for Superbowl.	2804930	1471991475167	1471991475264	t	84
5506	58988	I guess the next time I'll see you is for Superbowl.	I guess the next time I'll see you is for Superbowl.	2804938	1471991475205	1471991475303	i	73
5506	58988	I guess the next time I'll see you is for Superbowl.	I guess the next time I'll see you is for Superbowl.	2804953	1471991475368	1471991475481	m	77
5506	58988	I guess the next time I'll see you is for Superbowl.	I guess the next time I'll see you is for Superbowl.	2804962	1471991475448	1471991475557	e	69
5506	58988	I guess the next time I'll see you is for Superbowl.	I guess the next time I'll see you is for Superbowl.	2804971	1471991475568	1471991475647	 	32
5506	58988	I guess the next time I'll see you is for Superbowl.	I guess the next time I'll see you is for Superbowl.	2805084	1471991475773	1471991475980	SHIFT	16
5506	58988	I guess the next time I'll see you is for Superbowl.	I guess the next time I'll see you is for Superbowl.	2805078	1471991475833	1471991475933	I	73
5506	58988	I guess the next time I'll see you is for Superbowl.	I guess the next time I'll see you is for Superbowl.	2805087	1471991476670	1471991476789	'	222
5506	58988	I guess the next time I'll see you is for Superbowl.	I guess the next time I'll see you is for Superbowl.	2805092	1471991476940	1471991477041	BKSP	8
5506	58988	I guess the next time I'll see you is for Superbowl.	I guess the next time I'll see you is for Superbowl.	2805097	1471991477241	1471991477336	l	76
5506	58988	I guess the next time I'll see you is for Superbowl.	I guess the next time I'll see you is for Superbowl.	2805099	1471991477409	1471991477509	l	76
5506	58988	I guess the next time I'll see you is for Superbowl.	I guess the next time I'll see you is for Superbowl.	2805140	1471991477521	1471991477612	 	32
5506	58988	I guess the next time I'll see you is for Superbowl.	I guess the next time I'll see you is for Superbowl.	2805144	1471991477713	1471991477865	s	83
5506	58988	I guess the next time I'll see you is for Superbowl.	I guess the next time I'll see you is for Superbowl.	2805146	1471991477829	1471991477925	e	69
5506	58988	I guess the next time I'll see you is for Superbowl.	I guess the next time I'll see you is for Superbowl.	2805149	1471991477989	1471991478114	e	69
5506	58988	I guess the next time I'll see you is for Superbowl.	I guess the next time I'll see you is for Superbowl.	2805170	1471991478066	1471991478150	 	32
5506	58988	I guess the next time I'll see you is for Superbowl.	I guess the next time I'll see you is for Superbowl.	2805173	1471991478187	1471991478280	y	89
5506	58988	I guess the next time I'll see you is for Superbowl.	I guess the next time I'll see you is for Superbowl.	2805177	1471991478338	1471991478434	o	79
5506	58988	I guess the next time I'll see you is for Superbowl.	I guess the next time I'll see you is for Superbowl.	2805182	1471991478410	1471991478526	u	85
5506	58988	I guess the next time I'll see you is for Superbowl.	I guess the next time I'll see you is for Superbowl.	2805184	1471991478530	1471991478615	 	32
5506	58988	I guess the next time I'll see you is for Superbowl.	I guess the next time I'll see you is for Superbowl.	2805188	1471991478647	1471991478758	i	73
5506	58988	I guess the next time I'll see you is for Superbowl.	I guess the next time I'll see you is for Superbowl.	2805205	1471991478746	1471991478838	s	83
5506	58988	I guess the next time I'll see you is for Superbowl.	I guess the next time I'll see you is for Superbowl.	2805210	1471991478810	1471991478902	 	32
5506	58988	I guess the next time I'll see you is for Superbowl.	I guess the next time I'll see you is for Superbowl.	2805216	1471991479046	1471991479142	f	70
5506	58988	I guess the next time I'll see you is for Superbowl.	I guess the next time I'll see you is for Superbowl.	2805221	1471991479118	1471991479213	o	79
5506	58988	I guess the next time I'll see you is for Superbowl.	I guess the next time I'll see you is for Superbowl.	2805227	1471991479225	1471991479310	r	82
5506	58988	I guess the next time I'll see you is for Superbowl.	I guess the next time I'll see you is for Superbowl.	2805263	1471991479278	1471991479350	 	32
5506	58988	I guess the next time I'll see you is for Superbowl.	I guess the next time I'll see you is for Superbowl.	2805271	1471991479430	1471991479622	SHIFT	16
5506	58988	I guess the next time I'll see you is for Superbowl.	I guess the next time I'll see you is for Superbowl.	2805266	1471991479474	1471991479606	S	83
5506	58988	I guess the next time I'll see you is for Superbowl.	I guess the next time I'll see you is for Superbowl.	2805274	1471991479654	1471991479734	u	85
5506	58988	I guess the next time I'll see you is for Superbowl.	I guess the next time I'll see you is for Superbowl.	2805278	1471991479750	1471991479894	p	80
5506	58988	I guess the next time I'll see you is for Superbowl.	I guess the next time I'll see you is for Superbowl.	2805282	1471991479906	1471991480038	e	69
5506	58988	I guess the next time I'll see you is for Superbowl.	I guess the next time I'll see you is for Superbowl.	2805324	1471991479974	1471991480066	r	82
5506	58988	I guess the next time I'll see you is for Superbowl.	I guess the next time I'll see you is for Superbowl.	2805325	1471991480173	1471991480280	b	66
5506	58988	I guess the next time I'll see you is for Superbowl.	I guess the next time I'll see you is for Superbowl.	2805326	1471991480287	1471991480391	o	79
5506	58988	I guess the next time I'll see you is for Superbowl.	I guess the next time I'll see you is for Superbowl.	2805327	1471991480398	1471991480514	w	87
5506	58988	I guess the next time I'll see you is for Superbowl.	I guess the next time I'll see you is for Superbowl.	2805328	1471991480494	1471991480617	l	76
5506	58988	I guess the next time I'll see you is for Superbowl.	I guess the next time I'll see you is for Superbowl.	2805329	1471991480709	1471991480829	.	190
5506	59003	Do you and George have a thing going?	Do you and George have a thing goind?	2805517	1471991483005	1471991483166	SHIFT	16
5506	59003	Do you and George have a thing going?	Do you and George have a thing goind?	2805515	1471991483049	1471991483158	D	68
5506	59003	Do you and George have a thing going?	Do you and George have a thing goind?	2805519	1471991483266	1471991483370	o	79
5506	59003	Do you and George have a thing going?	Do you and George have a thing goind?	2805523	1471991483362	1471991483442	 	32
5506	59003	Do you and George have a thing going?	Do you and George have a thing goind?	2805528	1471991483490	1471991483578	y	89
5506	59003	Do you and George have a thing going?	Do you and George have a thing goind?	2805533	1471991483634	1471991483727	o	79
5506	59003	Do you and George have a thing going?	Do you and George have a thing goind?	2805544	1471991483714	1471991483807	u	85
5506	59003	Do you and George have a thing going?	Do you and George have a thing goind?	2805547	1471991483815	1471991483887	 	32
5506	59003	Do you and George have a thing going?	Do you and George have a thing goind?	2805551	1471991483898	1471991484043	a	65
5506	59003	Do you and George have a thing going?	Do you and George have a thing goind?	2805558	1471991483979	1471991484098	n	68
5506	59003	Do you and George have a thing going?	Do you and George have a thing goind?	2805694	1471991484083	1471991484171	 	32
5506	59003	Do you and George have a thing going?	Do you and George have a thing goind?	2805698	1471991484224	1471991484356	G	16
5506	59003	Do you and George have a thing going?	Do you and George have a thing goind?	2805701	1471991484472	1471991484592	o	79
5506	59003	Do you and George have a thing going?	Do you and George have a thing goind?	2805705	1471991484773	1471991484853	BKSP	8
5506	59003	Do you and George have a thing going?	Do you and George have a thing goind?	2805709	1471991484933	1471991484999	BKSP	8
5506	59003	Do you and George have a thing going?	Do you and George have a thing goind?	2805712	1471991485066	1471991485140	BKSP	8
5506	59003	Do you and George have a thing going?	Do you and George have a thing goind?	2805717	1471991485216	1471991485268	BKSP	8
5506	59003	Do you and George have a thing going?	Do you and George have a thing goind?	2805720	1471991485348	1471991485408	BKSP	8
5506	59003	Do you and George have a thing going?	Do you and George have a thing goind?	2805722	1471991485532	1471991485641	n	78
5506	59003	Do you and George have a thing going?	Do you and George have a thing goind?	2805726	1471991485689	1471991485802	d	68
5506	59003	Do you and George have a thing going?	Do you and George have a thing goind?	2805799	1471991485747	1471991485849	 	32
5506	59003	Do you and George have a thing going?	Do you and George have a thing goind?	2805809	1471991486277	1471991486436	SHIFT	16
5506	59003	Do you and George have a thing going?	Do you and George have a thing goind?	2805802	1471991486298	1471991486420	G	71
5506	59003	Do you and George have a thing going?	Do you and George have a thing goind?	2805811	1471991486557	1471991486665	e	69
5506	59003	Do you and George have a thing going?	Do you and George have a thing goind?	2805814	1471991486703	1471991486814	o	79
5506	59003	Do you and George have a thing going?	Do you and George have a thing goind?	2805817	1471991486838	1471991486934	r	82
5506	59003	Do you and George have a thing going?	Do you and George have a thing goind?	2805820	1471991487026	1471991487134	g	71
5506	59003	Do you and George have a thing going?	Do you and George have a thing goind?	2805835	1471991487190	1471991487298	e	69
5506	59003	Do you and George have a thing going?	Do you and George have a thing goind?	2805837	1471991487329	1471991487405	 	32
5506	59003	Do you and George have a thing going?	Do you and George have a thing goind?	2805841	1471991487453	1471991487561	h	72
5506	59003	Do you and George have a thing going?	Do you and George have a thing goind?	2805844	1471991487509	1471991487617	a	65
5506	59003	Do you and George have a thing going?	Do you and George have a thing goind?	2805846	1471991487649	1471991487762	v	86
5506	59003	Do you and George have a thing going?	Do you and George have a thing goind?	2805863	1471991487778	1471991487854	e	69
5506	59003	Do you and George have a thing going?	Do you and George have a thing goind?	2805867	1471991487826	1471991487910	 	32
5506	59003	Do you and George have a thing going?	Do you and George have a thing goind?	2805873	1471991487990	1471991488111	a	65
5506	59003	Do you and George have a thing going?	Do you and George have a thing goind?	2805870	1471991488013	1471991488094	 	32
5506	59003	Do you and George have a thing going?	Do you and George have a thing goind?	2805876	1471991488166	1471991488238	t	84
5506	59003	Do you and George have a thing going?	Do you and George have a thing goind?	2805897	1471991488198	1471991488290	h	72
5506	59003	Do you and George have a thing going?	Do you and George have a thing goind?	2805906	1471991488304	1471991488398	i	73
5506	59003	Do you and George have a thing going?	Do you and George have a thing goind?	2805913	1471991488434	1471991488538	n	78
5506	59003	Do you and George have a thing going?	Do you and George have a thing goind?	2805918	1471991488494	1471991488578	g	71
5506	59003	Do you and George have a thing going?	Do you and George have a thing goind?	2805925	1471991488598	1471991488679	 	32
5506	59003	Do you and George have a thing going?	Do you and George have a thing goind?	2805999	1471991488667	1471991488790	g	71
5506	59003	Do you and George have a thing going?	Do you and George have a thing goind?	2806004	1471991488778	1471991488890	o	79
5506	59003	Do you and George have a thing going?	Do you and George have a thing goind?	2806011	1471991488874	1471991488978	i	73
5506	59003	Do you and George have a thing going?	Do you and George have a thing goind?	2806018	1471991489010	1471991489114	n	78
5506	59003	Do you and George have a thing going?	Do you and George have a thing goind?	2806025	1471991489101	1471991489214	d	68
5506	59003	Do you and George have a thing going?	Do you and George have a thing goind?	2806013	1471991489953	1471991490154	SHIFT	16
5506	59003	Do you and George have a thing going?	Do you and George have a thing goind?	2806029	1471991490010	1471991490122	?	191
