PARTICIPANT_ID	TEST_SECTION_ID	SENTENCE	USER_INPUT	KEYSTROKE_ID	PRESS_TIME	RELEASE_TIME	LETTER	KEYCODE
5511	58954	He is expected to miss six weeks of action due to the procedure.	He is expected to miss six weeks of action due to the procedure.	2803290	1471991435344	1471991435680	SHIFT	16
5511	58954	He is expected to miss six weeks of action due to the procedure.	He is expected to miss six weeks of action due to the procedure.	2803285	1471991435531	1471991435664	H	72
5511	58954	He is expected to miss six weeks of action due to the procedure.	He is expected to miss six weeks of action due to the procedure.	2803294	1471991435836	1471991436025	e	69
5511	58954	He is expected to miss six weeks of action due to the procedure.	He is expected to miss six weeks of action due to the procedure.	2803298	1471991436040	1471991436208	 	32
5511	58954	He is expected to miss six weeks of action due to the procedure.	He is expected to miss six weeks of action due to the procedure.	2803303	1471991436302	1471991436447	i	73
5511	58954	He is expected to miss six weeks of action due to the procedure.	He is expected to miss six weeks of action due to the procedure.	2803353	1471991436362	1471991436516	s	83
5511	58954	He is expected to miss six weeks of action due to the procedure.	He is expected to miss six weeks of action due to the procedure.	2803356	1471991436463	1471991436627	 	32
5511	58954	He is expected to miss six weeks of action due to the procedure.	He is expected to miss six weeks of action due to the procedure.	2803359	1471991436611	1471991436744	e	69
5511	58954	He is expected to miss six weeks of action due to the procedure.	He is expected to miss six weeks of action due to the procedure.	2803362	1471991436886	1471991437073	x	88
5511	58954	He is expected to miss six weeks of action due to the procedure.	He is expected to miss six weeks of action due to the procedure.	2803364	1471991437089	1471991437210	p	80
5511	58954	He is expected to miss six weeks of action due to the procedure.	He is expected to miss six weeks of action due to the procedure.	2803418	1471991437163	1471991437325	e	69
5511	58954	He is expected to miss six weeks of action due to the procedure.	He is expected to miss six weeks of action due to the procedure.	2803425	1471991437465	1471991437576	c	67
5511	58954	He is expected to miss six weeks of action due to the procedure.	He is expected to miss six weeks of action due to the procedure.	2803429	1471991437639	1471991437774	t	84
5511	58954	He is expected to miss six weeks of action due to the procedure.	He is expected to miss six weeks of action due to the procedure.	2803433	1471991437758	1471991437844	e	69
5511	58954	He is expected to miss six weeks of action due to the procedure.	He is expected to miss six weeks of action due to the procedure.	2803436	1471991437953	1471991438105	d	68
5511	58954	He is expected to miss six weeks of action due to the procedure.	He is expected to miss six weeks of action due to the procedure.	2803439	1471991438137	1471991438210	 	32
5511	58954	He is expected to miss six weeks of action due to the procedure.	He is expected to miss six weeks of action due to the procedure.	2803449	1471991438178	1471991438329	t	84
5511	58954	He is expected to miss six weeks of action due to the procedure.	He is expected to miss six weeks of action due to the procedure.	2803454	1471991438274	1471991438442	o	79
5511	58954	He is expected to miss six weeks of action due to the procedure.	He is expected to miss six weeks of action due to the procedure.	2803459	1471991438344	1471991438538	 	32
5511	58954	He is expected to miss six weeks of action due to the procedure.	He is expected to miss six weeks of action due to the procedure.	2803464	1471991438489	1471991438591	m	77
5511	58954	He is expected to miss six weeks of action due to the procedure.	He is expected to miss six weeks of action due to the procedure.	2803522	1471991438622	1471991438773	s	73
5511	58954	He is expected to miss six weeks of action due to the procedure.	He is expected to miss six weeks of action due to the procedure.	2803527	1471991438836	1471991439010	s	83
5511	58954	He is expected to miss six weeks of action due to the procedure.	He is expected to miss six weeks of action due to the procedure.	2803531	1471991438957	1471991439135	 	32
5511	58954	He is expected to miss six weeks of action due to the procedure.	He is expected to miss six weeks of action due to the procedure.	2803536	1471991439151	1471991439209	s	83
5511	58954	He is expected to miss six weeks of action due to the procedure.	He is expected to miss six weeks of action due to the procedure.	2803542	1471991439318	1471991439454	s	83
5511	58954	He is expected to miss six weeks of action due to the procedure.	He is expected to miss six weeks of action due to the procedure.	2803548	1471991439672	1471991439771	i	73
5511	58954	He is expected to miss six weeks of action due to the procedure.	He is expected to miss six weeks of action due to the procedure.	2803606	1471991439999	1471991440057	BKSP	8
5511	58954	He is expected to miss six weeks of action due to the procedure.	He is expected to miss six weeks of action due to the procedure.	2803610	1471991440150	1471991440222	BKSP	8
5511	58954	He is expected to miss six weeks of action due to the procedure.	He is expected to miss six weeks of action due to the procedure.	2803614	1471991440393	1471991440570	i	73
5511	58954	He is expected to miss six weeks of action due to the procedure.	He is expected to miss six weeks of action due to the procedure.	2803620	1471991440488	1471991440644	x	88
5511	58954	He is expected to miss six weeks of action due to the procedure.	He is expected to miss six weeks of action due to the procedure.	2803625	1471991440691	1471991440882	 	32
5511	58954	He is expected to miss six weeks of action due to the procedure.	He is expected to miss six weeks of action due to the procedure.	2803631	1471991440837	1471991440989	w	87
5511	58954	He is expected to miss six weeks of action due to the procedure.	He is expected to miss six weeks of action due to the procedure.	2803678	1471991440936	1471991441073	e	69
5511	58954	He is expected to miss six weeks of action due to the procedure.	He is expected to miss six weeks of action due to the procedure.	2803679	1471991441166	1471991441303	e	69
5511	58954	He is expected to miss six weeks of action due to the procedure.	He is expected to miss six weeks of action due to the procedure.	2803681	1471991441236	1471991441397	k	75
5511	58954	He is expected to miss six weeks of action due to the procedure.	He is expected to miss six weeks of action due to the procedure.	2803684	1471991441397	1471991441605	s	83
5511	58954	He is expected to miss six weeks of action due to the procedure.	He is expected to miss six weeks of action due to the procedure.	2803688	1471991441540	1471991441698	 	32
5511	58954	He is expected to miss six weeks of action due to the procedure.	He is expected to miss six weeks of action due to the procedure.	2803693	1471991441823	1471991441969	o	79
5511	58954	He is expected to miss six weeks of action due to the procedure.	He is expected to miss six weeks of action due to the procedure.	2803738	1471991441886	1471991442050	f	70
5511	58954	He is expected to miss six weeks of action due to the procedure.	He is expected to miss six weeks of action due to the procedure.	2803741	1471991441953	1471991442112	 	32
5511	58954	He is expected to miss six weeks of action due to the procedure.	He is expected to miss six weeks of action due to the procedure.	2803744	1471991442206	1471991442377	a	65
5511	58954	He is expected to miss six weeks of action due to the procedure.	He is expected to miss six weeks of action due to the procedure.	2803747	1471991442424	1471991442511	c	67
5511	58954	He is expected to miss six weeks of action due to the procedure.	He is expected to miss six weeks of action due to the procedure.	2803751	1471991442620	1471991442747	i	84
5511	58954	He is expected to miss six weeks of action due to the procedure.	He is expected to miss six weeks of action due to the procedure.	2803788	1471991442716	1471991442900	o	79
5511	58954	He is expected to miss six weeks of action due to the procedure.	He is expected to miss six weeks of action due to the procedure.	2803792	1471991442847	1471991442983	n	78
5511	58954	He is expected to miss six weeks of action due to the procedure.	He is expected to miss six weeks of action due to the procedure.	2803795	1471991442915	1471991443061	 	32
5511	58954	He is expected to miss six weeks of action due to the procedure.	He is expected to miss six weeks of action due to the procedure.	2803797	1471991443156	1471991443261	d	68
5511	58954	He is expected to miss six weeks of action due to the procedure.	He is expected to miss six weeks of action due to the procedure.	2803799	1471991443276	1471991443403	u	85
5511	58954	He is expected to miss six weeks of action due to the procedure.	He is expected to miss six weeks of action due to the procedure.	2803834	1471991443387	1471991443564	e	69
5511	58954	He is expected to miss six weeks of action due to the procedure.	He is expected to miss six weeks of action due to the procedure.	2803836	1471991443494	1471991443611	 	32
5511	58954	He is expected to miss six weeks of action due to the procedure.	He is expected to miss six weeks of action due to the procedure.	2803839	1471991443658	1471991443798	t	84
5511	58954	He is expected to miss six weeks of action due to the procedure.	He is expected to miss six weeks of action due to the procedure.	2803842	1471991443715	1471991443848	o	79
5511	58954	He is expected to miss six weeks of action due to the procedure.	He is expected to miss six weeks of action due to the procedure.	2803847	1471991443798	1471991443926	 	32
5511	58954	He is expected to miss six weeks of action due to the procedure.	He is expected to miss six weeks of action due to the procedure.	2803851	1471991443988	1471991444162	t	84
5511	58954	He is expected to miss six weeks of action due to the procedure.	He is expected to miss six weeks of action due to the procedure.	2803885	1471991444063	1471991444181	h	72
5511	58954	He is expected to miss six weeks of action due to the procedure.	He is expected to miss six weeks of action due to the procedure.	2803889	1471991444146	1471991444278	e	69
5511	58954	He is expected to miss six weeks of action due to the procedure.	He is expected to miss six weeks of action due to the procedure.	2803894	1471991444181	1471991444310	 	32
5511	58954	He is expected to miss six weeks of action due to the procedure.	He is expected to miss six weeks of action due to the procedure.	2803898	1471991444388	1471991444468	p	80
5511	58954	He is expected to miss six weeks of action due to the procedure.	He is expected to miss six weeks of action due to the procedure.	2803903	1471991444562	1471991444702	r	82
5511	58954	He is expected to miss six weeks of action due to the procedure.	He is expected to miss six weeks of action due to the procedure.	2803905	1471991444628	1471991444796	o	79
5511	58954	He is expected to miss six weeks of action due to the procedure.	He is expected to miss six weeks of action due to the procedure.	2803910	1471991444827	1471991444911	c	67
5511	58954	He is expected to miss six weeks of action due to the procedure.	He is expected to miss six weeks of action due to the procedure.	2803935	1471991445037	1471991445125	e	69
5511	58954	He is expected to miss six weeks of action due to the procedure.	He is expected to miss six weeks of action due to the procedure.	2803940	1471991445250	1471991445418	d	68
5511	58954	He is expected to miss six weeks of action due to the procedure.	He is expected to miss six weeks of action due to the procedure.	2803946	1471991445373	1471991445512	u	85
5511	58954	He is expected to miss six weeks of action due to the procedure.	He is expected to miss six weeks of action due to the procedure.	2803949	1471991445459	1471991445625	r	82
5511	58954	He is expected to miss six weeks of action due to the procedure.	He is expected to miss six weeks of action due to the procedure.	2803966	1471991445544	1471991445705	e	69
5511	58954	He is expected to miss six weeks of action due to the procedure.	He is expected to miss six weeks of action due to the procedure.	2803969	1471991445705	1471991445822	.	190
5511	58972	Look for him to throw for over 200 yards and a score.	Look for him to throw for over 200 yards and a score.	2804143	1471991447852	1471991448047	SHIFT	16
5511	58972	Look for him to throw for over 200 yards and a score.	Look for him to throw for over 200 yards and a score.	2804142	1471991447884	1471991448000	L	76
5511	58972	Look for him to throw for over 200 yards and a score.	Look for him to throw for over 200 yards and a score.	2804144	1471991448078	1471991448153	o	79
5511	58972	Look for him to throw for over 200 yards and a score.	Look for him to throw for over 200 yards and a score.	2804145	1471991448215	1471991448316	o	79
5511	58972	Look for him to throw for over 200 yards and a score.	Look for him to throw for over 200 yards and a score.	2804146	1471991448394	1471991448516	k	75
5511	58972	Look for him to throw for over 200 yards and a score.	Look for him to throw for over 200 yards and a score.	2804147	1471991448516	1471991448671	 	32
5511	58972	Look for him to throw for over 200 yards and a score.	Look for him to throw for over 200 yards and a score.	2804201	1471991448875	1471991449002	f	70
5511	58972	Look for him to throw for over 200 yards and a score.	Look for him to throw for over 200 yards and a score.	2804209	1471991448950	1471991449081	o	79
5511	58972	Look for him to throw for over 200 yards and a score.	Look for him to throw for over 200 yards and a score.	2804215	1471991449081	1471991449248	r	82
5511	58972	Look for him to throw for over 200 yards and a score.	Look for him to throw for over 200 yards and a score.	2804222	1471991449149	1471991449280	 	32
5511	58972	Look for him to throw for over 200 yards and a score.	Look for him to throw for over 200 yards and a score.	2804225	1471991449311	1471991449370	h	72
5511	58972	Look for him to throw for over 200 yards and a score.	Look for him to throw for over 200 yards and a score.	2804246	1471991449354	1471991449493	i	73
5511	58972	Look for him to throw for over 200 yards and a score.	Look for him to throw for over 200 yards and a score.	2804249	1471991449478	1471991449634	m	77
5511	58972	Look for him to throw for over 200 yards and a score.	Look for him to throw for over 200 yards and a score.	2804253	1471991449597	1471991449728	 	32
5511	58972	Look for him to throw for over 200 yards and a score.	Look for him to throw for over 200 yards and a score.	2804257	1471991449744	1471991449897	t	84
5511	58972	Look for him to throw for over 200 yards and a score.	Look for him to throw for over 200 yards and a score.	2804260	1471991449815	1471991449930	o	79
5511	58972	Look for him to throw for over 200 yards and a score.	Look for him to throw for over 200 yards and a score.	2804303	1471991449897	1471991449996	 	32
5511	58972	Look for him to throw for over 200 yards and a score.	Look for him to throw for over 200 yards and a score.	2804308	1471991450074	1471991450215	t	84
5511	58972	Look for him to throw for over 200 yards and a score.	Look for him to throw for over 200 yards and a score.	2804312	1471991450179	1471991450278	h	72
5511	58972	Look for him to throw for over 200 yards and a score.	Look for him to throw for over 200 yards and a score.	2804320	1471991450340	1471991450476	r	82
5511	58972	Look for him to throw for over 200 yards and a score.	Look for him to throw for over 200 yards and a score.	2804327	1471991450476	1471991450664	o	79
5511	58972	Look for him to throw for over 200 yards and a score.	Look for him to throw for over 200 yards and a score.	2804376	1471991450611	1471991450806	w	87
5511	58972	Look for him to throw for over 200 yards and a score.	Look for him to throw for over 200 yards and a score.	2804381	1471991450884	1471991451057	 	32
5511	58972	Look for him to throw for over 200 yards and a score.	Look for him to throw for over 200 yards and a score.	2804386	1471991451213	1471991451345	f	70
5511	58972	Look for him to throw for over 200 yards and a score.	Look for him to throw for over 200 yards and a score.	2804390	1471991451293	1471991451442	o	79
5511	58972	Look for him to throw for over 200 yards and a score.	Look for him to throw for over 200 yards and a score.	2804393	1471991451426	1471991451561	r	82
5511	58972	Look for him to throw for over 200 yards and a score.	Look for him to throw for over 200 yards and a score.	2804410	1471991451511	1471991451640	 	32
5511	58972	Look for him to throw for over 200 yards and a score.	Look for him to throw for over 200 yards and a score.	2804413	1471991451625	1471991451778	o	79
5511	58972	Look for him to throw for over 200 yards and a score.	Look for him to throw for over 200 yards and a score.	2804416	1471991451726	1471991451840	v	86
5511	58972	Look for him to throw for over 200 yards and a score.	Look for him to throw for over 200 yards and a score.	2804420	1471991451887	1471991452153	e	69
5511	58972	Look for him to throw for over 200 yards and a score.	Look for him to throw for over 200 yards and a score.	2804479	1471991452006	1471991452193	r	82
5511	58972	Look for him to throw for over 200 yards and a score.	Look for him to throw for over 200 yards and a score.	2804483	1471991452122	1471991452271	 	32
5511	58972	Look for him to throw for over 200 yards and a score.	Look for him to throw for over 200 yards and a score.	2804489	1471991452318	1471991452455	2	50
5511	58972	Look for him to throw for over 200 yards and a score.	Look for him to throw for over 200 yards and a score.	2804492	1471991452471	1471991452525	0	48
5511	58972	Look for him to throw for over 200 yards and a score.	Look for him to throw for over 200 yards and a score.	2804495	1471991452619	1471991452691	0	48
5511	58972	Look for him to throw for over 200 yards and a score.	Look for him to throw for over 200 yards and a score.	2804497	1471991452769	1471991452919	 	32
5511	58972	Look for him to throw for over 200 yards and a score.	Look for him to throw for over 200 yards and a score.	2804499	1471991452997	1471991453120	e	89
5511	58972	Look for him to throw for over 200 yards and a score.	Look for him to throw for over 200 yards and a score.	2804522	1471991453185	1471991453373	a	65
5511	58972	Look for him to throw for over 200 yards and a score.	Look for him to throw for over 200 yards and a score.	2804528	1471991453287	1471991453404	r	82
5511	58972	Look for him to throw for over 200 yards and a score.	Look for him to throw for over 200 yards and a score.	2804530	1471991453451	1471991453606	d	68
5511	58972	Look for him to throw for over 200 yards and a score.	Look for him to throw for over 200 yards and a score.	2804533	1471991453554	1471991453764	s	83
5511	58972	Look for him to throw for over 200 yards and a score.	Look for him to throw for over 200 yards and a score.	2804534	1471991453904	1471991454081	 	32
5511	58972	Look for him to throw for over 200 yards and a score.	Look for him to throw for over 200 yards and a score.	2804692	1471991454348	1471991454420	BKSP	8
5511	58972	Look for him to throw for over 200 yards and a score.	Look for him to throw for over 200 yards and a score.	2804696	1471991454514	1471991454586	BKSP	8
5511	58972	Look for him to throw for over 200 yards and a score.	Look for him to throw for over 200 yards and a score.	2804697	1471991454664	1471991454720	BKSP	8
5511	58972	Look for him to throw for over 200 yards and a score.	Look for him to throw for over 200 yards and a score.	2804700	1471991454798	1471991454884	BKSP	8
5511	58972	Look for him to throw for over 200 yards and a score.	Look for him to throw for over 200 yards and a score.	2804702	1471991454947	1471991455066	BKSP	8
5511	58972	Look for him to throw for over 200 yards and a score.	Look for him to throw for over 200 yards and a score.	2804706	1471991455816	1471991455931	BKSP	8
5511	58972	Look for him to throw for over 200 yards and a score.	Look for him to throw for over 200 yards and a score.	2804710	1471991456149	1471991456374	a	65
5511	58972	Look for him to throw for over 200 yards and a score.	Look for him to throw for over 200 yards and a score.	2804715	1471991456358	1471991456494	r	82
5511	58972	Look for him to throw for over 200 yards and a score.	Look for him to throw for over 200 yards and a score.	2804720	1471991456525	1471991456733	d	68
5511	58972	Look for him to throw for over 200 yards and a score.	Look for him to throw for over 200 yards and a score.	2804724	1471991456677	1471991456905	s	83
5511	58972	Look for him to throw for over 200 yards and a score.	Look for him to throw for over 200 yards and a score.	2804728	1471991457375	1471991457522	 	32
5511	58972	Look for him to throw for over 200 yards and a score.	Look for him to throw for over 200 yards and a score.	2804746	1471991457478	1471991457642	a	65
5511	58972	Look for him to throw for over 200 yards and a score.	Look for him to throw for over 200 yards and a score.	2804750	1471991457610	1471991457745	n	78
5511	58972	Look for him to throw for over 200 yards and a score.	Look for him to throw for over 200 yards and a score.	2804757	1471991457662	1471991457813	d	68
5511	58972	Look for him to throw for over 200 yards and a score.	Look for him to throw for over 200 yards and a score.	2804763	1471991457745	1471991457906	 	32
5511	58972	Look for him to throw for over 200 yards and a score.	Look for him to throw for over 200 yards and a score.	2804770	1471991458047	1471991458234	a	65
5511	58972	Look for him to throw for over 200 yards and a score.	Look for him to throw for over 200 yards and a score.	2804807	1471991458173	1471991458309	 	32
5511	58972	Look for him to throw for over 200 yards and a score.	Look for him to throw for over 200 yards and a score.	2804810	1471991458340	1471991458473	s	83
5511	58972	Look for him to throw for over 200 yards and a score.	Look for him to throw for over 200 yards and a score.	2804814	1471991458567	1471991458746	c	67
5511	58972	Look for him to throw for over 200 yards and a score.	Look for him to throw for over 200 yards and a score.	2804819	1471991458705	1471991458878	o	79
5511	58972	Look for him to throw for over 200 yards and a score.	Look for him to throw for over 200 yards and a score.	2804824	1471991458823	1471991459005	r	82
5511	58972	Look for him to throw for over 200 yards and a score.	Look for him to throw for over 200 yards and a score.	2804828	1471991458893	1471991459069	e	69
5511	58972	Look for him to throw for over 200 yards and a score.	Look for him to throw for over 200 yards and a score.	2804831	1471991459053	1471991459165	.	190
5511	58992	I see some volume reversing in the system.	I see some volume reversing in the system.	2805002	1471991461014	1471991461203	SHIFT	16
5511	58992	I see some volume reversing in the system.	I see some volume reversing in the system.	2805007	1471991461139	1471991461203	I	73
5511	58992	I see some volume reversing in the system.	I see some volume reversing in the system.	2805011	1471991461235	1471991461362	 	32
5511	58992	I see some volume reversing in the system.	I see some volume reversing in the system.	2805018	1471991461319	1471991461465	s	83
5511	58992	I see some volume reversing in the system.	I see some volume reversing in the system.	2805022	1471991461480	1471991461584	e	69
5511	58992	I see some volume reversing in the system.	I see some volume reversing in the system.	2805025	1471991461662	1471991461782	e	69
5511	58992	I see some volume reversing in the system.	I see some volume reversing in the system.	2805049	1471991461766	1471991461914	 	32
5511	58992	I see some volume reversing in the system.	I see some volume reversing in the system.	2805052	1471991461929	1471991462068	s	83
5511	58992	I see some volume reversing in the system.	I see some volume reversing in the system.	2805056	1471991462016	1471991462170	o	79
5511	58992	I see some volume reversing in the system.	I see some volume reversing in the system.	2805063	1471991462131	1471991462252	m	77
5511	58992	I see some volume reversing in the system.	I see some volume reversing in the system.	2805071	1471991462186	1471991462368	e	69
5511	58992	I see some volume reversing in the system.	I see some volume reversing in the system.	2805147	1471991462314	1471991462416	 	32
5511	58992	I see some volume reversing in the system.	I see some volume reversing in the system.	2805150	1471991462510	1471991462674	v	86
5511	58992	I see some volume reversing in the system.	I see some volume reversing in the system.	2805151	1471991462630	1471991462701	o	79
5511	58992	I see some volume reversing in the system.	I see some volume reversing in the system.	2805152	1471991462779	1471991462896	l	76
5511	58992	I see some volume reversing in the system.	I see some volume reversing in the system.	2805153	1471991462989	1471991463082	u	85
5511	58992	I see some volume reversing in the system.	I see some volume reversing in the system.	2805156	1471991463191	1471991463370	m	77
5511	58992	I see some volume reversing in the system.	I see some volume reversing in the system.	2805209	1471991463327	1471991463499	e	69
5511	58992	I see some volume reversing in the system.	I see some volume reversing in the system.	2805215	1471991463430	1471991463562	 	32
5511	58992	I see some volume reversing in the system.	I see some volume reversing in the system.	2805220	1471991463718	1471991463865	r	82
5511	58992	I see some volume reversing in the system.	I see some volume reversing in the system.	2805225	1471991463828	1471991463962	e	69
5511	58992	I see some volume reversing in the system.	I see some volume reversing in the system.	2805230	1471991464087	1471991464164	v	86
5511	58992	I see some volume reversing in the system.	I see some volume reversing in the system.	2805236	1471991464273	1471991464446	e	69
5511	58992	I see some volume reversing in the system.	I see some volume reversing in the system.	2805255	1471991464376	1471991464479	r	82
5511	58992	I see some volume reversing in the system.	I see some volume reversing in the system.	2805256	1471991464573	1471991464723	s	83
5511	58992	I see some volume reversing in the system.	I see some volume reversing in the system.	2805258	1471991464708	1471991464890	i	73
5511	58992	I see some volume reversing in the system.	I see some volume reversing in the system.	2805260	1471991464823	1471991465002	n	78
5511	58992	I see some volume reversing in the system.	I see some volume reversing in the system.	2805296	1471991464890	1471991465029	g	71
5511	58992	I see some volume reversing in the system.	I see some volume reversing in the system.	2805301	1471991464962	1471991465107	 	32
5511	58992	I see some volume reversing in the system.	I see some volume reversing in the system.	2805307	1471991465169	1471991465312	i	73
5511	58992	I see some volume reversing in the system.	I see some volume reversing in the system.	2805313	1471991465260	1471991465394	n	78
5511	58992	I see some volume reversing in the system.	I see some volume reversing in the system.	2805318	1471991465343	1471991465473	 	32
5511	58992	I see some volume reversing in the system.	I see some volume reversing in the system.	2805321	1471991465473	1471991465677	t	84
5511	58992	I see some volume reversing in the system.	I see some volume reversing in the system.	2805335	1471991465558	1471991465693	h	72
5511	58992	I see some volume reversing in the system.	I see some volume reversing in the system.	2805338	1471991465633	1471991465759	e	69
5511	58992	I see some volume reversing in the system.	I see some volume reversing in the system.	2805346	1471991465677	1471991465854	 	32
5511	58992	I see some volume reversing in the system.	I see some volume reversing in the system.	2805352	1471991465870	1471991466004	s	83
5511	58992	I see some volume reversing in the system.	I see some volume reversing in the system.	2805357	1471991465988	1471991466107	y	89
5511	58992	I see some volume reversing in the system.	I see some volume reversing in the system.	2805362	1471991466107	1471991466259	s	83
5511	58992	I see some volume reversing in the system.	I see some volume reversing in the system.	2805379	1471991466218	1471991466408	t	84
5511	58992	I see some volume reversing in the system.	I see some volume reversing in the system.	2805383	1471991466354	1471991466523	e	69
5511	58992	I see some volume reversing in the system.	I see some volume reversing in the system.	2805388	1471991466424	1471991466554	m	77
5511	58992	I see some volume reversing in the system.	I see some volume reversing in the system.	2805394	1471991466586	1471991466703	.	190
5511	59004	Your friend's defense, however, has other plans.	Your friend's defense, however, has other plans.	2805567	1471991468643	1471991468868	SHIFT	16
5511	59004	Your friend's defense, however, has other plans.	Your friend's defense, however, has other plans.	2805571	1471991468799	1471991468883	Y	89
5511	59004	Your friend's defense, however, has other plans.	Your friend's defense, however, has other plans.	2805576	1471991468930	1471991469068	o	79
5511	59004	Your friend's defense, however, has other plans.	Your friend's defense, however, has other plans.	2805582	1471991469001	1471991469161	u	85
5511	59004	Your friend's defense, however, has other plans.	Your friend's defense, however, has other plans.	2805586	1471991469146	1471991469296	r	82
5511	59004	Your friend's defense, however, has other plans.	Your friend's defense, however, has other plans.	2805589	1471991469311	1471991469461	 	32
5511	59004	Your friend's defense, however, has other plans.	Your friend's defense, however, has other plans.	2805662	1471991469461	1471991469564	f	70
5511	59004	Your friend's defense, however, has other plans.	Your friend's defense, however, has other plans.	2805669	1471991469705	1471991469847	i	73
5511	59004	Your friend's defense, however, has other plans.	Your friend's defense, however, has other plans.	2805676	1471991470036	1471991470146	BKSP	8
5511	59004	Your friend's defense, however, has other plans.	Your friend's defense, however, has other plans.	2805680	1471991470209	1471991470359	r	82
5511	59004	Your friend's defense, however, has other plans.	Your friend's defense, however, has other plans.	2805684	1471991470422	1471991470562	i	73
5511	59004	Your friend's defense, however, has other plans.	Your friend's defense, however, has other plans.	2805780	1471991470529	1471991470653	e	69
5511	59004	Your friend's defense, however, has other plans.	Your friend's defense, however, has other plans.	2805782	1471991470731	1471991470858	n	78
5511	59004	Your friend's defense, however, has other plans.	Your friend's defense, however, has other plans.	2805786	1471991470889	1471991471056	d	68
5511	59004	Your friend's defense, however, has other plans.	Your friend's defense, however, has other plans.	2805792	1471991471213	1471991471330	'	222
5511	59004	Your friend's defense, however, has other plans.	Your friend's defense, however, has other plans.	2805797	1471991471295	1471991471456	s	83
5511	59004	Your friend's defense, however, has other plans.	Your friend's defense, however, has other plans.	2805803	1471991471879	1471991472054	 	32
5511	59004	Your friend's defense, however, has other plans.	Your friend's defense, however, has other plans.	2805840	1471991472039	1471991472157	d	68
5511	59004	Your friend's defense, however, has other plans.	Your friend's defense, however, has other plans.	2805843	1471991472251	1471991472388	e	69
5511	59004	Your friend's defense, however, has other plans.	Your friend's defense, however, has other plans.	2805845	1471991472435	1471991472571	f	70
5511	59004	Your friend's defense, however, has other plans.	Your friend's defense, however, has other plans.	2805848	1471991472681	1471991472835	e	69
5511	59004	Your friend's defense, however, has other plans.	Your friend's defense, however, has other plans.	2805850	1471991472804	1471991472970	n	78
5511	59004	Your friend's defense, however, has other plans.	Your friend's defense, however, has other plans.	2805899	1471991472921	1471991473105	s	83
5511	59004	Your friend's defense, however, has other plans.	Your friend's defense, however, has other plans.	2805905	1471991473045	1471991473266	e	69
5511	59004	Your friend's defense, however, has other plans.	Your friend's defense, however, has other plans.	2805912	1471991473375	1471991473500	,	188
5511	59004	Your friend's defense, however, has other plans.	Your friend's defense, however, has other plans.	2805917	1471991473500	1471991473619	 	32
5511	59004	Your friend's defense, however, has other plans.	Your friend's defense, however, has other plans.	2805923	1471991473713	1471991473819	h	72
5511	59004	Your friend's defense, however, has other plans.	Your friend's defense, however, has other plans.	2805962	1471991473788	1471991473930	o	79
5511	59004	Your friend's defense, however, has other plans.	Your friend's defense, however, has other plans.	2805968	1471991473894	1471991474035	w	87
5511	59004	Your friend's defense, however, has other plans.	Your friend's defense, however, has other plans.	2805972	1471991474129	1471991474255	e	69
5511	59004	Your friend's defense, however, has other plans.	Your friend's defense, however, has other plans.	2805976	1471991474351	1471991474452	v	86
5511	59004	Your friend's defense, however, has other plans.	Your friend's defense, however, has other plans.	2805980	1471991474514	1471991474734	e	69
5511	59004	Your friend's defense, however, has other plans.	Your friend's defense, however, has other plans.	2806020	1471991474619	1471991474801	r	82
5511	59004	Your friend's defense, however, has other plans.	Your friend's defense, however, has other plans.	2806026	1471991474750	1471991474884	,	188
5511	59004	Your friend's defense, however, has other plans.	Your friend's defense, however, has other plans.	2806033	1471991474884	1471991474985	 	32
5511	59004	Your friend's defense, however, has other plans.	Your friend's defense, however, has other plans.	2806037	1471991475110	1471991475249	h	72
5511	59004	Your friend's defense, however, has other plans.	Your friend's defense, however, has other plans.	2806040	1471991475265	1471991475482	a	65
5511	59004	Your friend's defense, however, has other plans.	Your friend's defense, however, has other plans.	2806100	1471991475334	1471991475495	s	83
5511	59004	Your friend's defense, however, has other plans.	Your friend's defense, however, has other plans.	2806105	1471991475432	1471991475653	 	32
5511	59004	Your friend's defense, however, has other plans.	Your friend's defense, however, has other plans.	2806111	1471991475589	1471991475684	n	78
5511	59004	Your friend's defense, however, has other plans.	Your friend's defense, however, has other plans.	2806119	1471991475950	1471991476049	BKSP	8
5511	59004	Your friend's defense, however, has other plans.	Your friend's defense, however, has other plans.	2806123	1471991476298	1471991476444	o	79
5511	59004	Your friend's defense, however, has other plans.	Your friend's defense, however, has other plans.	2806127	1471991476413	1471991476581	t	84
5511	59004	Your friend's defense, however, has other plans.	Your friend's defense, however, has other plans.	2806130	1471991476514	1471991476644	h	72
5511	59004	Your friend's defense, however, has other plans.	Your friend's defense, however, has other plans.	2806143	1471991476644	1471991476882	e	69
5511	59004	Your friend's defense, however, has other plans.	Your friend's defense, however, has other plans.	2806145	1471991476715	1471991476929	r	82
5511	59004	Your friend's defense, however, has other plans.	Your friend's defense, however, has other plans.	2806148	1471991476814	1471991476961	 	32
5511	59004	Your friend's defense, however, has other plans.	Your friend's defense, however, has other plans.	2806150	1471991477023	1471991477082	p	80
5511	59004	Your friend's defense, however, has other plans.	Your friend's defense, however, has other plans.	2806151	1471991477129	1471991477231	l	76
5511	59004	Your friend's defense, however, has other plans.	Your friend's defense, however, has other plans.	2806170	1471991477162	1471991477341	a	65
5511	59004	Your friend's defense, however, has other plans.	Your friend's defense, however, has other plans.	2806172	1471991477341	1471991477484	n	78
5511	59004	Your friend's defense, however, has other plans.	Your friend's defense, however, has other plans.	2806176	1471991477453	1471991477631	s	83
5511	59004	Your friend's defense, however, has other plans.	Your friend's defense, however, has other plans.	2806180	1471991477592	1471991477711	.	190
5511	59014	See the list below.	See the list below.	2806339	1471991479509	1471991479525	s	83
5511	59014	See the list below.	See the list below.	2806343	1471991479592	1471991479765	SHIFT	16
5511	59014	See the list below.	See the list below.	2806346	1471991479717	1471991479812	S	83
5511	59014	See the list below.	See the list below.	2806348	1471991480109	1471991480173	BKSP	8
5511	59014	See the list below.	See the list below.	2806350	1471991480251	1471991480323	BKSP	8
5511	59014	See the list below.	See the list below.	2806354	1471991480479	1471991480606	SHIFT	16
5511	59014	See the list below.	See the list below.	2806358	1471991480542	1471991480669	S	83
5511	59014	See the list below.	See the list below.	2806362	1471991480762	1471991480838	e	69
5511	59014	See the list below.	See the list below.	2806370	1471991480932	1471991481103	e	69
5511	59014	See the list below.	See the list below.	2806356	1471991481036	1471991481205	 	32
5511	59014	See the list below.	See the list below.	2806365	1471991481189	1471991481387	t	84
5511	59014	See the list below.	See the list below.	2806360	1471991481254	1471991481371	h	72
5511	59014	See the list below.	See the list below.	2806372	1471991481305	1471991481453	e	69
5511	59014	See the list below.	See the list below.	2806411	1471991481387	1471991481519	 	32
5511	59014	See the list below.	See the list below.	2806412	1471991481437	1471991481581	l	76
5511	59014	See the list below.	See the list below.	2806413	1471991481581	1471991481735	i	73
5511	59014	See the list below.	See the list below.	2806414	1471991481637	1471991481857	s	83
5511	59014	See the list below.	See the list below.	2806416	1471991481782	1471991481954	t	84
5511	59014	See the list below.	See the list below.	2806419	1471991481906	1471991482063	 	32
5511	59014	See the list below.	See the list below.	2806422	1471991482157	1471991482329	b	66
5511	59014	See the list below.	See the list below.	2806470	1471991482329	1471991482447	e	69
5511	59014	See the list below.	See the list below.	2806473	1471991482447	1471991482518	l	76
5511	59014	See the list below.	See the list below.	2806480	1471991482612	1471991482718	o	79
5511	59014	See the list below.	See the list below.	2806485	1471991482676	1471991482843	w	87
5511	59014	See the list below.	See the list below.	2806489	1471991483015	1471991483116	.	190
5511	59023	John this message concerns me.	John this message concerns me.	2806654	1471991485195	1471991485376	SHIFT	16
5511	59023	John this message concerns me.	John this message concerns me.	2806658	1471991485304	1471991485376	J	74
5511	59023	John this message concerns me.	John this message concerns me.	2806661	1471991485407	1471991485508	o	79
5511	59023	John this message concerns me.	John this message concerns me.	2806665	1471991485508	1471991485625	h	72
5511	59023	John this message concerns me.	John this message concerns me.	2806667	1471991485734	1471991485871	n	78
5511	59023	John this message concerns me.	John this message concerns me.	2806671	1471991485933	1471991486072	 	32
5511	59023	John this message concerns me.	John this message concerns me.	2806699	1471991486448	1471991486590	t	84
5511	59023	John this message concerns me.	John this message concerns me.	2806702	1471991486508	1471991486641	h	72
5511	59023	John this message concerns me.	John this message concerns me.	2806708	1471991486590	1471991486703	i	73
5511	59023	John this message concerns me.	John this message concerns me.	2806713	1471991486688	1471991486839	s	83
5511	59023	John this message concerns me.	John this message concerns me.	2806760	1471991486742	1471991486935	 	32
5511	59023	John this message concerns me.	John this message concerns me.	2806762	1471991486919	1471991487053	m	77
5511	59023	John this message concerns me.	John this message concerns me.	2806765	1471991487037	1471991487137	e	69
5511	59023	John this message concerns me.	John this message concerns me.	2806767	1471991487215	1471991487321	s	83
5511	59023	John this message concerns me.	John this message concerns me.	2806769	1471991487384	1471991487519	s	83
5511	59023	John this message concerns me.	John this message concerns me.	2806771	1471991487669	1471991487818	g	71
5511	59023	John this message concerns me.	John this message concerns me.	2806861	1471991487786	1471991487854	e	69
5511	59023	John this message concerns me.	John this message concerns me.	2806865	1471991488745	1471991488818	BKSP	8
5511	59023	John this message concerns me.	John this message concerns me.	2806869	1471991488896	1471991488998	BKSP	8
5511	59023	John this message concerns me.	John this message concerns me.	2806871	1471991489030	1471991489195	a	65
5511	59023	John this message concerns me.	John this message concerns me.	2806873	1471991489164	1471991489364	g	71
5511	59023	John this message concerns me.	John this message concerns me.	2806874	1471991489251	1471991489427	e	69
5511	59023	John this message concerns me.	John this message concerns me.	2806875	1471991489427	1471991489580	 	32
5511	59023	John this message concerns me.	John this message concerns me.	2806876	1471991489642	1471991489766	c	67
5511	59023	John this message concerns me.	John this message concerns me.	2806894	1471991489700	1471991489858	o	79
5511	59023	John this message concerns me.	John this message concerns me.	2806896	1471991489799	1471991489929	n	78
5511	59023	John this message concerns me.	John this message concerns me.	2806900	1471991489929	1471991490015	c	67
5511	59023	John this message concerns me.	John this message concerns me.	2806908	1471991490155	1471991490362	e	69
5511	59023	John this message concerns me.	John this message concerns me.	2806917	1471991490247	1471991490425	r	82
5511	59023	John this message concerns me.	John this message concerns me.	2806923	1471991490441	1471991490624	n	78
5511	59023	John this message concerns me.	John this message concerns me.	2806948	1471991490609	1471991490807	s	83
5511	59023	John this message concerns me.	John this message concerns me.	2806950	1471991491058	1471991491214	 	32
5511	59023	John this message concerns me.	John this message concerns me.	2806954	1471991491176	1471991491330	m	77
5511	59023	John this message concerns me.	John this message concerns me.	2806958	1471991491261	1471991491450	e	69
5511	59023	John this message concerns me.	John this message concerns me.	2806963	1471991491410	1471991491525	.	190
5511	59033	We talked quietly while everybody gathered.	We talked quietly while everybody gathered.	2807152	1471991493894	1471991494039	SHIFT	16
5511	59033	We talked quietly while everybody gathered.	We talked quietly while everybody gathered.	2807155	1471991493958	1471991494086	W	87
5511	59033	We talked quietly while everybody gathered.	We talked quietly while everybody gathered.	2807160	1471991494133	1471991494305	e	69
5511	59033	We talked quietly while everybody gathered.	We talked quietly while everybody gathered.	2807166	1471991494587	1471991494778	 	32
5511	59033	We talked quietly while everybody gathered.	We talked quietly while everybody gathered.	2807169	1471991494919	1471991495019	t	84
5511	59033	We talked quietly while everybody gathered.	We talked quietly while everybody gathered.	2807174	1471991495019	1471991495152	a	65
5511	59033	We talked quietly while everybody gathered.	We talked quietly while everybody gathered.	2807210	1471991495058	1471991495250	l	76
5511	59033	We talked quietly while everybody gathered.	We talked quietly while everybody gathered.	2807215	1471991495137	1471991495328	k	75
5511	59033	We talked quietly while everybody gathered.	We talked quietly while everybody gathered.	2807221	1471991495313	1471991495432	e	69
5511	59033	We talked quietly while everybody gathered.	We talked quietly while everybody gathered.	2807227	1471991495510	1471991495680	d	68
5511	59033	We talked quietly while everybody gathered.	We talked quietly while everybody gathered.	2807231	1471991495664	1471991495797	 	32
5511	59033	We talked quietly while everybody gathered.	We talked quietly while everybody gathered.	2807239	1471991496031	1471991496194	q	81
5511	59033	We talked quietly while everybody gathered.	We talked quietly while everybody gathered.	2807285	1471991496162	1471991496301	u	85
5511	59033	We talked quietly while everybody gathered.	We talked quietly while everybody gathered.	2807289	1471991496265	1471991496442	i	73
5511	59033	We talked quietly while everybody gathered.	We talked quietly while everybody gathered.	2807292	1471991496582	1471991496829	e	69
5511	59033	We talked quietly while everybody gathered.	We talked quietly while everybody gathered.	2807296	1471991496711	1471991496875	t	84
5511	59033	We talked quietly while everybody gathered.	We talked quietly while everybody gathered.	2807300	1471991496875	1471991497042	l	76
5511	59033	We talked quietly while everybody gathered.	We talked quietly while everybody gathered.	2807303	1471991497105	1471991497211	y	89
5511	59033	We talked quietly while everybody gathered.	We talked quietly while everybody gathered.	2807326	1471991497227	1471991497391	 	32
5511	59033	We talked quietly while everybody gathered.	We talked quietly while everybody gathered.	2807328	1471991497391	1471991497563	w	87
5511	59033	We talked quietly while everybody gathered.	We talked quietly while everybody gathered.	2807333	1471991497510	1471991497698	h	72
5511	59033	We talked quietly while everybody gathered.	We talked quietly while everybody gathered.	2807336	1471991497641	1471991497781	i	73
5511	59033	We talked quietly while everybody gathered.	We talked quietly while everybody gathered.	2807362	1471991497745	1471991497942	l	76
5511	59033	We talked quietly while everybody gathered.	We talked quietly while everybody gathered.	2807368	1471991497813	1471991498069	e	69
5511	59033	We talked quietly while everybody gathered.	We talked quietly while everybody gathered.	2807371	1471991498005	1471991498147	 	32
5511	59033	We talked quietly while everybody gathered.	We talked quietly while everybody gathered.	2807374	1471991498178	1471991498292	e	69
5511	59033	We talked quietly while everybody gathered.	We talked quietly while everybody gathered.	2807376	1471991498339	1471991498474	v	86
5511	59033	We talked quietly while everybody gathered.	We talked quietly while everybody gathered.	2807378	1471991498520	1471991498710	e	69
5511	59033	We talked quietly while everybody gathered.	We talked quietly while everybody gathered.	2807406	1471991498641	1471991498826	r	82
5511	59033	We talked quietly while everybody gathered.	We talked quietly while everybody gathered.	2807408	1471991498742	1471991498857	y	89
5511	59033	We talked quietly while everybody gathered.	We talked quietly while everybody gathered.	2807410	1471991499452	1471991499591	b	66
5511	59033	We talked quietly while everybody gathered.	We talked quietly while everybody gathered.	2807412	1471991499509	1471991499654	o	79
5511	59033	We talked quietly while everybody gathered.	We talked quietly while everybody gathered.	2807415	1471991499700	1471991499843	d	68
5511	59033	We talked quietly while everybody gathered.	We talked quietly while everybody gathered.	2807422	1471991499890	1471991500005	y	89
5511	59033	We talked quietly while everybody gathered.	We talked quietly while everybody gathered.	2807487	1471991500162	1471991500333	 	32
5511	59033	We talked quietly while everybody gathered.	We talked quietly while everybody gathered.	2807490	1471991500616	1471991500766	g	71
5511	59033	We talked quietly while everybody gathered.	We talked quietly while everybody gathered.	2807496	1471991500798	1471991500919	a	65
5511	59033	We talked quietly while everybody gathered.	We talked quietly while everybody gathered.	2807503	1471991501028	1471991501186	t	84
5511	59033	We talked quietly while everybody gathered.	We talked quietly while everybody gathered.	2807546	1471991501088	1471991501266	h	72
5511	59033	We talked quietly while everybody gathered.	We talked quietly while everybody gathered.	2807548	1471991501266	1471991501451	e	69
5511	59033	We talked quietly while everybody gathered.	We talked quietly while everybody gathered.	2807549	1471991501354	1471991501529	r	82
5511	59033	We talked quietly while everybody gathered.	We talked quietly while everybody gathered.	2807551	1471991501655	1471991501798	e	69
5511	59033	We talked quietly while everybody gathered.	We talked quietly while everybody gathered.	2807553	1471991501876	1471991502036	d	68
5511	59033	We talked quietly while everybody gathered.	We talked quietly while everybody gathered.	2807554	1471991501983	1471991502101	.	190
5511	59047	A three-man inquiry team spent months investigating the allegations.	A three-man inquiry team spent months investigating the allegations.	2807674	1471991503751	1471991503922	SHIFT	16
5511	59047	A three-man inquiry team spent months investigating the allegations.	A three-man inquiry team spent months investigating the allegations.	2807677	1471991503875	1471991504041	A	65
5511	59047	A three-man inquiry team spent months investigating the allegations.	A three-man inquiry team spent months investigating the allegations.	2807684	1471991504041	1471991504223	 	32
5511	59047	A three-man inquiry team spent months investigating the allegations.	A three-man inquiry team spent months investigating the allegations.	2807688	1471991504255	1471991504364	t	84
5511	59047	A three-man inquiry team spent months investigating the allegations.	A three-man inquiry team spent months investigating the allegations.	2807693	1471991504329	1471991504427	h	72
5511	59047	A three-man inquiry team spent months investigating the allegations.	A three-man inquiry team spent months investigating the allegations.	2807697	1471991504442	1471991504631	r	82
5511	59047	A three-man inquiry team spent months investigating the allegations.	A three-man inquiry team spent months investigating the allegations.	2807730	1471991504575	1471991504694	e	69
5511	59047	A three-man inquiry team spent months investigating the allegations.	A three-man inquiry team spent months investigating the allegations.	2807734	1471991504772	1471991504946	e	69
5511	59047	A three-man inquiry team spent months investigating the allegations.	A three-man inquiry team spent months investigating the allegations.	2807741	1471991504992	1471991505062	-	189
5511	59047	A three-man inquiry team spent months investigating the allegations.	A three-man inquiry team spent months investigating the allegations.	2807747	1471991505187	1471991505293	m	77
5511	59047	A three-man inquiry team spent months investigating the allegations.	A three-man inquiry team spent months investigating the allegations.	2807751	1471991505355	1471991505557	a	65
5511	59047	A three-man inquiry team spent months investigating the allegations.	A three-man inquiry team spent months investigating the allegations.	2807795	1471991505426	1471991505604	n	78
5511	59047	A three-man inquiry team spent months investigating the allegations.	A three-man inquiry team spent months investigating the allegations.	2807800	1471991505604	1471991505801	 	32
5511	59047	A three-man inquiry team spent months investigating the allegations.	A three-man inquiry team spent months investigating the allegations.	2807805	1471991505941	1471991506077	i	73
5511	59047	A three-man inquiry team spent months investigating the allegations.	A three-man inquiry team spent months investigating the allegations.	2807812	1471991506041	1471991506186	n	78
5511	59047	A three-man inquiry team spent months investigating the allegations.	A three-man inquiry team spent months investigating the allegations.	2807817	1471991506404	1471991506539	q	81
5511	59047	A three-man inquiry team spent months investigating the allegations.	A three-man inquiry team spent months investigating the allegations.	2807909	1471991506459	1471991506623	u	85
5511	59047	A three-man inquiry team spent months investigating the allegations.	A three-man inquiry team spent months investigating the allegations.	2807912	1471991506555	1471991506733	i	73
5511	59047	A three-man inquiry team spent months investigating the allegations.	A three-man inquiry team spent months investigating the allegations.	2807915	1471991507360	1471991507537	r	82
5511	59047	A three-man inquiry team spent months investigating the allegations.	A three-man inquiry team spent months investigating the allegations.	2807918	1471991507456	1471991507584	y	89
5511	59047	A three-man inquiry team spent months investigating the allegations.	A three-man inquiry team spent months investigating the allegations.	2807920	1471991507927	1471991508097	 	32
5511	59047	A three-man inquiry team spent months investigating the allegations.	A three-man inquiry team spent months investigating the allegations.	2807922	1471991508175	1471991508322	t	84
5511	59047	A three-man inquiry team spent months investigating the allegations.	A three-man inquiry team spent months investigating the allegations.	2807973	1471991508271	1471991508369	e	69
5511	59047	A three-man inquiry team spent months investigating the allegations.	A three-man inquiry team spent months investigating the allegations.	2807977	1471991508432	1471991508602	a	65
5511	59047	A three-man inquiry team spent months investigating the allegations.	A three-man inquiry team spent months investigating the allegations.	2807982	1471991508535	1471991508687	m	77
5511	59047	A three-man inquiry team spent months investigating the allegations.	A three-man inquiry team spent months investigating the allegations.	2807986	1471991508633	1471991508781	 	32
5511	59047	A three-man inquiry team spent months investigating the allegations.	A three-man inquiry team spent months investigating the allegations.	2807991	1471991508844	1471991508986	s	83
5511	59047	A three-man inquiry team spent months investigating the allegations.	A three-man inquiry team spent months investigating the allegations.	2807997	1471991509048	1471991509149	p	80
5511	59047	A three-man inquiry team spent months investigating the allegations.	A three-man inquiry team spent months investigating the allegations.	2808046	1471991509149	1471991509330	e	69
5511	59047	A three-man inquiry team spent months investigating the allegations.	A three-man inquiry team spent months investigating the allegations.	2808047	1471991509282	1471991509445	n	78
5511	59047	A three-man inquiry team spent months investigating the allegations.	A three-man inquiry team spent months investigating the allegations.	2808049	1471991509507	1471991509679	t	84
5511	59047	A three-man inquiry team spent months investigating the allegations.	A three-man inquiry team spent months investigating the allegations.	2808052	1471991509695	1471991509843	 	32
5511	59047	A three-man inquiry team spent months investigating the allegations.	A three-man inquiry team spent months investigating the allegations.	2808057	1471991510283	1471991510380	m	77
5511	59047	A three-man inquiry team spent months investigating the allegations.	A three-man inquiry team spent months investigating the allegations.	2808142	1471991510429	1471991510630	o	79
5511	59047	A three-man inquiry team spent months investigating the allegations.	A three-man inquiry team spent months investigating the allegations.	2808145	1471991510562	1471991510715	t	84
5511	59047	A three-man inquiry team spent months investigating the allegations.	A three-man inquiry team spent months investigating the allegations.	2808147	1471991510630	1471991510762	h	78
5511	59047	A three-man inquiry team spent months investigating the allegations.	A three-man inquiry team spent months investigating the allegations.	2808149	1471991511248	1471991511330	BKSP	8
5511	59047	A three-man inquiry team spent months investigating the allegations.	A three-man inquiry team spent months investigating the allegations.	2808151	1471991511408	1471991511463	BKSP	8
5511	59047	A three-man inquiry team spent months investigating the allegations.	A three-man inquiry team spent months investigating the allegations.	2808152	1471991511541	1471991511628	BKSP	8
5511	59047	A three-man inquiry team spent months investigating the allegations.	A three-man inquiry team spent months investigating the allegations.	2808154	1471991511815	1471991511911	n	78
5511	59047	A three-man inquiry team spent months investigating the allegations.	A three-man inquiry team spent months investigating the allegations.	2808190	1471991512130	1471991512276	t	84
5511	59047	A three-man inquiry team spent months investigating the allegations.	A three-man inquiry team spent months investigating the allegations.	2808192	1471991512209	1471991512354	h	72
5511	59047	A three-man inquiry team spent months investigating the allegations.	A three-man inquiry team spent months investigating the allegations.	2808197	1471991512432	1471991512603	s	83
5511	59047	A three-man inquiry team spent months investigating the allegations.	A three-man inquiry team spent months investigating the allegations.	2808201	1471991512588	1471991512720	 	32
5511	59047	A three-man inquiry team spent months investigating the allegations.	A three-man inquiry team spent months investigating the allegations.	2808207	1471991512814	1471991512944	i	73
5511	59047	A three-man inquiry team spent months investigating the allegations.	A three-man inquiry team spent months investigating the allegations.	2808230	1471991512891	1471991513024	n	78
5511	59047	A three-man inquiry team spent months investigating the allegations.	A three-man inquiry team spent months investigating the allegations.	2808231	1471991513102	1471991513221	v	86
5511	59047	A three-man inquiry team spent months investigating the allegations.	A three-man inquiry team spent months investigating the allegations.	2808233	1471991513361	1471991513471	e	69
5511	59047	A three-man inquiry team spent months investigating the allegations.	A three-man inquiry team spent months investigating the allegations.	2808236	1471991513549	1471991513722	s	83
5511	59047	A three-man inquiry team spent months investigating the allegations.	A three-man inquiry team spent months investigating the allegations.	2808238	1471991513707	1471991513850	t	84
5511	59047	A three-man inquiry team spent months investigating the allegations.	A three-man inquiry team spent months investigating the allegations.	2808242	1471991513913	1471991514071	i	73
5511	59047	A three-man inquiry team spent months investigating the allegations.	A three-man inquiry team spent months investigating the allegations.	2808293	1471991514118	1471991514250	g	71
5511	59047	A three-man inquiry team spent months investigating the allegations.	A three-man inquiry team spent months investigating the allegations.	2808298	1471991514344	1471991514546	a	65
5511	59047	A three-man inquiry team spent months investigating the allegations.	A three-man inquiry team spent months investigating the allegations.	2808303	1471991514515	1471991514578	t	84
5511	59047	A three-man inquiry team spent months investigating the allegations.	A three-man inquiry team spent months investigating the allegations.	2808308	1471991514885	1471991515053	i	73
5511	59047	A three-man inquiry team spent months investigating the allegations.	A three-man inquiry team spent months investigating the allegations.	2808325	1471991514986	1471991515196	n	78
5511	59047	A three-man inquiry team spent months investigating the allegations.	A three-man inquiry team spent months investigating the allegations.	2808327	1471991515038	1471991515221	g	71
5511	59047	A three-man inquiry team spent months investigating the allegations.	A three-man inquiry team spent months investigating the allegations.	2808331	1471991515164	1471991515315	 	32
5511	59047	A three-man inquiry team spent months investigating the allegations.	A three-man inquiry team spent months investigating the allegations.	2808334	1471991515346	1471991515535	t	84
5511	59047	A three-man inquiry team spent months investigating the allegations.	A three-man inquiry team spent months investigating the allegations.	2808337	1471991515402	1471991515535	h	72
5511	59047	A three-man inquiry team spent months investigating the allegations.	A three-man inquiry team spent months investigating the allegations.	2808341	1471991515485	1471991515633	e	69
5511	59047	A three-man inquiry team spent months investigating the allegations.	A three-man inquiry team spent months investigating the allegations.	2808380	1471991515535	1471991515713	 	32
5511	59047	A three-man inquiry team spent months investigating the allegations.	A three-man inquiry team spent months investigating the allegations.	2808385	1471991515776	1471991515898	a	65
5511	59047	A three-man inquiry team spent months investigating the allegations.	A three-man inquiry team spent months investigating the allegations.	2808388	1471991515935	1471991516000	l	76
5511	59047	A three-man inquiry team spent months investigating the allegations.	A three-man inquiry team spent months investigating the allegations.	2808392	1471991516078	1471991516182	l	76
5511	59047	A three-man inquiry team spent months investigating the allegations.	A three-man inquiry team spent months investigating the allegations.	2808394	1471991516245	1471991516394	e	69
5511	59047	A three-man inquiry team spent months investigating the allegations.	A three-man inquiry team spent months investigating the allegations.	2808398	1471991516457	1471991516596	g	71
5511	59047	A three-man inquiry team spent months investigating the allegations.	A three-man inquiry team spent months investigating the allegations.	2808412	1471991516659	1471991516817	a	65
5511	59047	A three-man inquiry team spent months investigating the allegations.	A three-man inquiry team spent months investigating the allegations.	2808413	1471991516802	1471991516930	t	84
5511	59047	A three-man inquiry team spent months investigating the allegations.	A three-man inquiry team spent months investigating the allegations.	2808414	1471991516882	1471991516965	i	73
5511	59047	A three-man inquiry team spent months investigating the allegations.	A three-man inquiry team spent months investigating the allegations.	2808416	1471991516949	1471991517098	o	79
5511	59047	A three-man inquiry team spent months investigating the allegations.	A three-man inquiry team spent months investigating the allegations.	2808438	1471991517062	1471991517166	n	78
5511	59047	A three-man inquiry team spent months investigating the allegations.	A three-man inquiry team spent months investigating the allegations.	2808440	1471991517116	1471991517298	s	83
5511	59047	A three-man inquiry team spent months investigating the allegations.	A three-man inquiry team spent months investigating the allegations.	2808445	1471991517244	1471991517345	.	190
5511	59063	I will call in 20 to 30 minutes.	I will call in 20 to 30 minutes.	2808544	1471991519220	1471991519392	SHIFT	16
5511	59063	I will call in 20 to 30 minutes.	I will call in 20 to 30 minutes.	2808546	1471991519314	1471991519423	I	73
5511	59063	I will call in 20 to 30 minutes.	I will call in 20 to 30 minutes.	2808549	1471991519423	1471991519576	 	32
5511	59063	I will call in 20 to 30 minutes.	I will call in 20 to 30 minutes.	2808577	1471991519524	1471991519692	w	87
5511	59063	I will call in 20 to 30 minutes.	I will call in 20 to 30 minutes.	2808553	1471991519592	1471991519677	i	73
5511	59063	I will call in 20 to 30 minutes.	I will call in 20 to 30 minutes.	2808578	1471991519642	1471991519741	l	76
5511	59063	I will call in 20 to 30 minutes.	I will call in 20 to 30 minutes.	2808579	1471991519788	1471991519957	l	76
5511	59063	I will call in 20 to 30 minutes.	I will call in 20 to 30 minutes.	2808580	1471991519889	1471991520050	 	32
5511	59063	I will call in 20 to 30 minutes.	I will call in 20 to 30 minutes.	2808582	1471991519972	1471991520106	c	67
5511	59063	I will call in 20 to 30 minutes.	I will call in 20 to 30 minutes.	2808596	1471991520153	1471991520306	a	65
5511	59063	I will call in 20 to 30 minutes.	I will call in 20 to 30 minutes.	2808585	1471991520208	1471991520274	l	76
5511	59063	I will call in 20 to 30 minutes.	I will call in 20 to 30 minutes.	2808598	1471991520322	1471991520474	l	76
5511	59063	I will call in 20 to 30 minutes.	I will call in 20 to 30 minutes.	2808600	1471991520421	1471991520573	 	32
5511	59063	I will call in 20 to 30 minutes.	I will call in 20 to 30 minutes.	2808603	1471991520522	1471991520657	i	73
5511	59063	I will call in 20 to 30 minutes.	I will call in 20 to 30 minutes.	2808605	1471991520589	1471991520746	n	78
5511	59063	I will call in 20 to 30 minutes.	I will call in 20 to 30 minutes.	2808609	1471991520688	1471991520806	 	32
5511	59063	I will call in 20 to 30 minutes.	I will call in 20 to 30 minutes.	2808612	1471991520884	1471991521039	2	50
5511	59063	I will call in 20 to 30 minutes.	I will call in 20 to 30 minutes.	2808615	1471991520987	1471991521055	0	48
5511	59063	I will call in 20 to 30 minutes.	I will call in 20 to 30 minutes.	2808618	1471991521133	1471991521252	 	32
5511	59063	I will call in 20 to 30 minutes.	I will call in 20 to 30 minutes.	2808621	1471991521283	1471991521419	t	84
5511	59063	I will call in 20 to 30 minutes.	I will call in 20 to 30 minutes.	2808653	1471991521347	1471991521520	o	79
5511	59063	I will call in 20 to 30 minutes.	I will call in 20 to 30 minutes.	2808655	1471991521451	1471991521552	 	32
5511	59063	I will call in 20 to 30 minutes.	I will call in 20 to 30 minutes.	2808660	1471991521692	1471991521865	3	51
5511	59063	I will call in 20 to 30 minutes.	I will call in 20 to 30 minutes.	2808657	1471991521723	1471991521819	0	48
5511	59063	I will call in 20 to 30 minutes.	I will call in 20 to 30 minutes.	2808666	1471991521897	1471991522152	 	32
5511	59063	I will call in 20 to 30 minutes.	I will call in 20 to 30 minutes.	2808695	1471991522079	1471991522168	m	77
5511	59063	I will call in 20 to 30 minutes.	I will call in 20 to 30 minutes.	2808696	1471991522233	1471991522338	i	73
5511	59063	I will call in 20 to 30 minutes.	I will call in 20 to 30 minutes.	2808697	1471991522302	1471991522416	n	78
5511	59063	I will call in 20 to 30 minutes.	I will call in 20 to 30 minutes.	2808699	1471991522588	1471991522746	u	85
5511	59063	I will call in 20 to 30 minutes.	I will call in 20 to 30 minutes.	2808801	1471991522746	1471991522895	r	84
5511	59063	I will call in 20 to 30 minutes.	I will call in 20 to 30 minutes.	2808802	1471991522880	1471991522950	e	69
5511	59063	I will call in 20 to 30 minutes.	I will call in 20 to 30 minutes.	2808804	1471991523075	1471991523091	s	83
5511	59063	I will call in 20 to 30 minutes.	I will call in 20 to 30 minutes.	2808805	1471991523306	1471991523366	BKSP	8
5511	59063	I will call in 20 to 30 minutes.	I will call in 20 to 30 minutes.	2808807	1471991523459	1471991523517	BKSP	8
5511	59063	I will call in 20 to 30 minutes.	I will call in 20 to 30 minutes.	2808808	1471991523611	1471991523666	BKSP	8
5511	59063	I will call in 20 to 30 minutes.	I will call in 20 to 30 minutes.	2808810	1471991523760	1471991523831	BKSP	8
5511	59063	I will call in 20 to 30 minutes.	I will call in 20 to 30 minutes.	2808811	1471991524380	1471991524513	t	84
5511	59063	I will call in 20 to 30 minutes.	I will call in 20 to 30 minutes.	2808814	1471991524448	1471991524560	e	69
5511	59063	I will call in 20 to 30 minutes.	I will call in 20 to 30 minutes.	2808818	1471991524608	1471991524777	s	83
5511	59063	I will call in 20 to 30 minutes.	I will call in 20 to 30 minutes.	2808839	1471991524726	1471991524813	.	190
5511	59072	X-rays were negative, and Hakim is listed as day to day.	X-rays were negative, and Hakim is listed as day to day.	2808930	1471991527001	1471991527154	SHIFT	16
5511	59072	X-rays were negative, and Hakim is listed as day to day.	X-rays were negative, and Hakim is listed as day to day.	2808936	1471991527110	1471991527205	X	88
5511	59072	X-rays were negative, and Hakim is listed as day to day.	X-rays were negative, and Hakim is listed as day to day.	2808942	1471991527361	1471991527439	-	189
5511	59072	X-rays were negative, and Hakim is listed as day to day.	X-rays were negative, and Hakim is listed as day to day.	2808948	1471991527563	1471991527690	r	82
5511	59072	X-rays were negative, and Hakim is listed as day to day.	X-rays were negative, and Hakim is listed as day to day.	2808953	1471991527799	1471991527969	a	65
5511	59072	X-rays were negative, and Hakim is listed as day to day.	X-rays were negative, and Hakim is listed as day to day.	2808969	1471991527918	1471991528019	y	89
5511	59072	X-rays were negative, and Hakim is listed as day to day.	X-rays were negative, and Hakim is listed as day to day.	2808972	1471991528066	1471991528246	s	83
5511	59072	X-rays were negative, and Hakim is listed as day to day.	X-rays were negative, and Hakim is listed as day to day.	2808975	1471991528589	1471991528747	 	32
5511	59072	X-rays were negative, and Hakim is listed as day to day.	X-rays were negative, and Hakim is listed as day to day.	2808978	1471991528763	1471991528914	w	87
5511	59072	X-rays were negative, and Hakim is listed as day to day.	X-rays were negative, and Hakim is listed as day to day.	2808981	1471991528868	1471991529026	e	69
5511	59072	X-rays were negative, and Hakim is listed as day to day.	X-rays were negative, and Hakim is listed as day to day.	2809015	1471991528967	1471991529145	r	82
5511	59072	X-rays were negative, and Hakim is listed as day to day.	X-rays were negative, and Hakim is listed as day to day.	2809016	1471991529130	1471991529258	e	69
5511	59072	X-rays were negative, and Hakim is listed as day to day.	X-rays were negative, and Hakim is listed as day to day.	2809018	1471991529217	1471991529363	 	32
5511	59072	X-rays were negative, and Hakim is listed as day to day.	X-rays were negative, and Hakim is listed as day to day.	2809020	1471991529612	1471991529769	n	78
5511	59072	X-rays were negative, and Hakim is listed as day to day.	X-rays were negative, and Hakim is listed as day to day.	2809025	1471991529729	1471991529862	e	69
5511	59072	X-rays were negative, and Hakim is listed as day to day.	X-rays were negative, and Hakim is listed as day to day.	2809030	1471991529956	1471991530111	g	71
5511	59072	X-rays were negative, and Hakim is listed as day to day.	X-rays were negative, and Hakim is listed as day to day.	2809051	1471991530159	1471991530294	a	65
5511	59072	X-rays were negative, and Hakim is listed as day to day.	X-rays were negative, and Hakim is listed as day to day.	2809054	1471991530294	1471991530418	t	84
5511	59072	X-rays were negative, and Hakim is listed as day to day.	X-rays were negative, and Hakim is listed as day to day.	2809057	1471991530381	1471991530567	i	73
5511	59072	X-rays were negative, and Hakim is listed as day to day.	X-rays were negative, and Hakim is listed as day to day.	2809060	1471991530527	1471991530715	v	86
5511	59072	X-rays were negative, and Hakim is listed as day to day.	X-rays were negative, and Hakim is listed as day to day.	2809075	1471991530645	1471991530809	e	69
5511	59072	X-rays were negative, and Hakim is listed as day to day.	X-rays were negative, and Hakim is listed as day to day.	2809077	1471991530778	1471991530895	,	188
5511	59072	X-rays were negative, and Hakim is listed as day to day.	X-rays were negative, and Hakim is listed as day to day.	2809079	1471991530895	1471991531028	 	32
5511	59072	X-rays were negative, and Hakim is listed as day to day.	X-rays were negative, and Hakim is listed as day to day.	2809083	1471991531028	1471991531196	a	65
5511	59072	X-rays were negative, and Hakim is listed as day to day.	X-rays were negative, and Hakim is listed as day to day.	2809088	1471991531129	1471991531290	n	78
5511	59072	X-rays were negative, and Hakim is listed as day to day.	X-rays were negative, and Hakim is listed as day to day.	2809140	1471991531227	1471991531380	d	68
5511	59072	X-rays were negative, and Hakim is listed as day to day.	X-rays were negative, and Hakim is listed as day to day.	2809143	1471991531302	1471991531458	 	32
5511	59072	X-rays were negative, and Hakim is listed as day to day.	X-rays were negative, and Hakim is listed as day to day.	2809146	1471991531521	1471991531646	SHIFT	16
5511	59072	X-rays were negative, and Hakim is listed as day to day.	X-rays were negative, and Hakim is listed as day to day.	2809150	1471991531631	1471991531734	H	72
5511	59072	X-rays were negative, and Hakim is listed as day to day.	X-rays were negative, and Hakim is listed as day to day.	2809154	1471991531781	1471991531910	a	65
5511	59072	X-rays were negative, and Hakim is listed as day to day.	X-rays were negative, and Hakim is listed as day to day.	2809158	1471991531926	1471991532044	k	75
5511	59072	X-rays were negative, and Hakim is listed as day to day.	X-rays were negative, and Hakim is listed as day to day.	2809161	1471991532200	1471991532326	i	73
5511	59072	X-rays were negative, and Hakim is listed as day to day.	X-rays were negative, and Hakim is listed as day to day.	2809184	1471991532261	1471991532434	m	77
5511	59072	X-rays were negative, and Hakim is listed as day to day.	X-rays were negative, and Hakim is listed as day to day.	2809187	1471991532390	1471991532523	 	32
5511	59072	X-rays were negative, and Hakim is listed as day to day.	X-rays were negative, and Hakim is listed as day to day.	2809190	1471991532554	1471991532710	i	73
5511	59072	X-rays were negative, and Hakim is listed as day to day.	X-rays were negative, and Hakim is listed as day to day.	2809193	1471991532657	1471991532794	s	83
5511	59072	X-rays were negative, and Hakim is listed as day to day.	X-rays were negative, and Hakim is listed as day to day.	2809195	1471991532726	1471991532887	 	32
5511	59072	X-rays were negative, and Hakim is listed as day to day.	X-rays were negative, and Hakim is listed as day to day.	2809197	1471991532903	1471991533037	l	76
5511	59072	X-rays were negative, and Hakim is listed as day to day.	X-rays were negative, and Hakim is listed as day to day.	2809214	1471991533021	1471991533210	i	73
5511	59072	X-rays were negative, and Hakim is listed as day to day.	X-rays were negative, and Hakim is listed as day to day.	2809217	1471991533169	1471991533343	s	83
5511	59072	X-rays were negative, and Hakim is listed as day to day.	X-rays were negative, and Hakim is listed as day to day.	2809220	1471991533303	1471991533458	t	84
5511	59072	X-rays were negative, and Hakim is listed as day to day.	X-rays were negative, and Hakim is listed as day to day.	2809222	1471991533405	1471991533489	e	69
5511	59072	X-rays were negative, and Hakim is listed as day to day.	X-rays were negative, and Hakim is listed as day to day.	2809226	1471991533586	1471991533722	d	68
5511	59072	X-rays were negative, and Hakim is listed as day to day.	X-rays were negative, and Hakim is listed as day to day.	2809260	1471991533687	1471991533820	 	32
5511	59072	X-rays were negative, and Hakim is listed as day to day.	X-rays were negative, and Hakim is listed as day to day.	2809263	1471991533929	1471991534141	a	65
5511	59072	X-rays were negative, and Hakim is listed as day to day.	X-rays were negative, and Hakim is listed as day to day.	2809266	1471991534022	1471991534141	s	83
5511	59072	X-rays were negative, and Hakim is listed as day to day.	X-rays were negative, and Hakim is listed as day to day.	2809269	1471991534106	1471991534268	 	32
5511	59072	X-rays were negative, and Hakim is listed as day to day.	X-rays were negative, and Hakim is listed as day to day.	2809272	1471991534455	1471991534586	d	68
5511	59072	X-rays were negative, and Hakim is listed as day to day.	X-rays were negative, and Hakim is listed as day to day.	2809274	1471991534633	1471991534802	a	65
5511	59072	X-rays were negative, and Hakim is listed as day to day.	X-rays were negative, and Hakim is listed as day to day.	2809302	1471991534720	1471991534834	y	89
5511	59072	X-rays were negative, and Hakim is listed as day to day.	X-rays were negative, and Hakim is listed as day to day.	2809306	1471991534834	1471991534966	 	32
5511	59072	X-rays were negative, and Hakim is listed as day to day.	X-rays were negative, and Hakim is listed as day to day.	2809313	1471991535091	1471991535236	t	84
5511	59072	X-rays were negative, and Hakim is listed as day to day.	X-rays were negative, and Hakim is listed as day to day.	2809319	1471991535170	1471991535338	o	79
5511	59072	X-rays were negative, and Hakim is listed as day to day.	X-rays were negative, and Hakim is listed as day to day.	2809325	1471991535282	1471991535462	 	32
5511	59072	X-rays were negative, and Hakim is listed as day to day.	X-rays were negative, and Hakim is listed as day to day.	2809333	1471991535540	1471991535680	d	68
5511	59072	X-rays were negative, and Hakim is listed as day to day.	X-rays were negative, and Hakim is listed as day to day.	2809344	1471991535790	1471991535967	a	65
5511	59072	X-rays were negative, and Hakim is listed as day to day.	X-rays were negative, and Hakim is listed as day to day.	2809347	1471991535899	1471991535998	y	89
5511	59072	X-rays were negative, and Hakim is listed as day to day.	X-rays were negative, and Hakim is listed as day to day.	2809348	1471991536124	1471991536231	.	190
5511	59083	She was going to leave at 8 or 9.	She was going to leave at 8 or 9.	2809629	1471991541060	1471991541252	SHIFT	16
5511	59083	She was going to leave at 8 or 9.	She was going to leave at 8 or 9.	2809633	1471991541140	1471991541268	S	83
5511	59083	She was going to leave at 8 or 9.	She was going to leave at 8 or 9.	2809638	1471991541361	1471991541452	e	69
5511	59083	She was going to leave at 8 or 9.	She was going to leave at 8 or 9.	2809643	1471991541437	1471991541599	h	72
5511	59083	She was going to leave at 8 or 9.	She was going to leave at 8 or 9.	2809648	1471991542085	1471991542246	BKSP	8
5511	59083	She was going to leave at 8 or 9.	She was going to leave at 8 or 9.	2809654	1471991542340	1471991542434	BKSP	8
5511	59083	She was going to leave at 8 or 9.	She was going to leave at 8 or 9.	2809656	1471991542950	1471991543085	h	72
5511	59083	She was going to leave at 8 or 9.	She was going to leave at 8 or 9.	2809663	1471991543017	1471991543199	e	69
5511	59083	She was going to leave at 8 or 9.	She was going to leave at 8 or 9.	2809664	1471991543133	1471991543293	 	32
5511	59083	She was going to leave at 8 or 9.	She was going to leave at 8 or 9.	2809666	1471991543340	1471991543472	w	87
5511	59083	She was going to leave at 8 or 9.	She was going to leave at 8 or 9.	2809669	1471991543581	1471991543732	a	65
5511	59083	She was going to leave at 8 or 9.	She was going to leave at 8 or 9.	2809674	1471991543648	1471991543810	s	83
5511	59083	She was going to leave at 8 or 9.	She was going to leave at 8 or 9.	2809698	1471991543763	1471991543954	 	32
5511	59083	She was going to leave at 8 or 9.	She was going to leave at 8 or 9.	2809701	1471991543911	1471991544064	g	71
5511	59083	She was going to leave at 8 or 9.	She was going to leave at 8 or 9.	2809704	1471991543997	1471991544234	o	79
5511	59083	She was going to leave at 8 or 9.	She was going to leave at 8 or 9.	2809707	1471991544095	1471991544264	i	73
5511	59083	She was going to leave at 8 or 9.	She was going to leave at 8 or 9.	2809708	1471991544195	1471991544408	n	78
5511	59083	She was going to leave at 8 or 9.	She was going to leave at 8 or 9.	2809743	1471991544264	1471991544408	g	71
5511	59083	She was going to leave at 8 or 9.	She was going to leave at 8 or 9.	2809749	1471991544408	1471991544542	 	32
5511	59083	She was going to leave at 8 or 9.	She was going to leave at 8 or 9.	2809753	1471991544527	1471991544678	t	84
5511	59083	She was going to leave at 8 or 9.	She was going to leave at 8 or 9.	2809757	1471991544581	1471991544714	o	79
5511	59083	She was going to leave at 8 or 9.	She was going to leave at 8 or 9.	2809760	1471991544678	1471991544823	 	32
5511	59083	She was going to leave at 8 or 9.	She was going to leave at 8 or 9.	2809762	1471991544841	1471991544913	l	76
5511	59083	She was going to leave at 8 or 9.	She was going to leave at 8 or 9.	2809765	1471991544975	1471991545107	e	69
5511	59083	She was going to leave at 8 or 9.	She was going to leave at 8 or 9.	2809798	1471991545217	1471991545265	v	86
5511	59083	She was going to leave at 8 or 9.	She was going to leave at 8 or 9.	2809802	1471991545607	1471991545738	BKSP	8
5511	59083	She was going to leave at 8 or 9.	She was going to leave at 8 or 9.	2809805	1471991545709	1471991545882	a	65
5511	59083	She was going to leave at 8 or 9.	She was going to leave at 8 or 9.	2809809	1471991545840	1471991546010	v	86
5511	59083	She was going to leave at 8 or 9.	She was going to leave at 8 or 9.	2809811	1471991545973	1471991546105	e	69
5511	59083	She was going to leave at 8 or 9.	She was going to leave at 8 or 9.	2809814	1471991546152	1471991546320	 	32
5511	59083	She was going to leave at 8 or 9.	She was going to leave at 8 or 9.	2809843	1471991546336	1471991546472	a	65
5511	59083	She was going to leave at 8 or 9.	She was going to leave at 8 or 9.	2809848	1471991546518	1471991546653	t	84
5511	59083	She was going to leave at 8 or 9.	She was going to leave at 8 or 9.	2809853	1471991546716	1471991546901	 	32
5511	59083	She was going to leave at 8 or 9.	She was going to leave at 8 or 9.	2809858	1471991547010	1471991547121	8	56
5511	59083	She was going to leave at 8 or 9.	She was going to leave at 8 or 9.	2809861	1471991547277	1471991547403	 	32
5511	59083	She was going to leave at 8 or 9.	She was going to leave at 8 or 9.	2809884	1471991547451	1471991547571	i	79
5511	59083	She was going to leave at 8 or 9.	She was going to leave at 8 or 9.	2809886	1471991547540	1471991547690	r	82
5511	59083	She was going to leave at 8 or 9.	She was going to leave at 8 or 9.	2809889	1471991547623	1471991547768	 	32
5511	59083	She was going to leave at 8 or 9.	She was going to leave at 8 or 9.	2809892	1471991548066	1471991548138	=	187
5511	59083	She was going to leave at 8 or 9.	She was going to leave at 8 or 9.	2809993	1471991548249	1471991548288	BKSP	8
5511	59083	She was going to leave at 8 or 9.	She was going to leave at 8 or 9.	2809998	1471991548382	1471991548438	BKSP	8
5511	59083	She was going to leave at 8 or 9.	She was going to leave at 8 or 9.	2810003	1471991548520	1471991548588	BKSP	8
5511	59083	She was going to leave at 8 or 9.	She was going to leave at 8 or 9.	2810007	1471991548666	1471991548721	BKSP	8
5511	59083	She was going to leave at 8 or 9.	She was going to leave at 8 or 9.	2810011	1471991548799	1471991548837	BKSP	8
5511	59083	She was going to leave at 8 or 9.	She was going to leave at 8 or 9.	2810015	1471991549322	1471991549482	o	79
5511	59083	She was going to leave at 8 or 9.	She was going to leave at 8 or 9.	2810019	1471991549432	1471991549569	r	82
5511	59083	She was going to leave at 8 or 9.	She was going to leave at 8 or 9.	2810022	1471991549517	1471991549694	 	32
5511	59083	She was going to leave at 8 or 9.	She was going to leave at 8 or 9.	2810025	1471991549756	1471991549849	o	79
5511	59083	She was going to leave at 8 or 9.	She was going to leave at 8 or 9.	2810026	1471991550178	1471991550233	BKSP	8
5511	59083	She was going to leave at 8 or 9.	She was going to leave at 8 or 9.	2810029	1471991550295	1471991550366	BKSP	8
5511	59083	She was going to leave at 8 or 9.	She was going to leave at 8 or 9.	2810030	1471991550946	1471991551091	 	32
5511	59083	She was going to leave at 8 or 9.	She was going to leave at 8 or 9.	2810035	1471991551217	1471991551297	9	57
5511	59083	She was going to leave at 8 or 9.	She was going to leave at 8 or 9.	2810037	1471991551437	1471991551528	.	190
5511	59096	Reggie Wayne will start in Pathon's place once again.	Reggie Wayne will start in Pathon's place once again.	2810613	1471991536341	1471991563533	\	220
5511	59096	Reggie Wayne will start in Pathon's place once again.	Reggie Wayne will start in Pathon's place once again.	2810291	1471991557376	1471991557598	SHIFT	16
5511	59096	Reggie Wayne will start in Pathon's place once again.	Reggie Wayne will start in Pathon's place once again.	2810293	1471991557530	1471991557645	R	82
5511	59096	Reggie Wayne will start in Pathon's place once again.	Reggie Wayne will start in Pathon's place once again.	2810295	1471991557895	1471991557995	e	69
5511	59096	Reggie Wayne will start in Pathon's place once again.	Reggie Wayne will start in Pathon's place once again.	2810297	1471991558105	1471991558180	g	71
5511	59096	Reggie Wayne will start in Pathon's place once again.	Reggie Wayne will start in Pathon's place once again.	2810299	1471991558274	1471991558346	g	71
5511	59096	Reggie Wayne will start in Pathon's place once again.	Reggie Wayne will start in Pathon's place once again.	2810301	1471991558362	1471991558530	i	73
5511	59096	Reggie Wayne will start in Pathon's place once again.	Reggie Wayne will start in Pathon's place once again.	2810345	1471991558461	1471991558646	e	69
5511	59096	Reggie Wayne will start in Pathon's place once again.	Reggie Wayne will start in Pathon's place once again.	2810348	1471991558577	1471991558740	 	32
5511	59096	Reggie Wayne will start in Pathon's place once again.	Reggie Wayne will start in Pathon's place once again.	2810350	1471991558911	1471991559027	SHIFT	16
5511	59096	Reggie Wayne will start in Pathon's place once again.	Reggie Wayne will start in Pathon's place once again.	2810352	1471991558958	1471991559060	W	87
5511	59096	Reggie Wayne will start in Pathon's place once again.	Reggie Wayne will start in Pathon's place once again.	2810354	1471991559231	1471991559376	a	65
5511	59096	Reggie Wayne will start in Pathon's place once again.	Reggie Wayne will start in Pathon's place once again.	2810358	1471991559296	1471991559391	y	89
5511	59096	Reggie Wayne will start in Pathon's place once again.	Reggie Wayne will start in Pathon's place once again.	2810361	1471991559500	1471991559651	n	78
5511	59096	Reggie Wayne will start in Pathon's place once again.	Reggie Wayne will start in Pathon's place once again.	2810381	1471991559608	1471991559788	e	69
5511	59096	Reggie Wayne will start in Pathon's place once again.	Reggie Wayne will start in Pathon's place once again.	2810383	1471991559773	1471991559951	 	32
5511	59096	Reggie Wayne will start in Pathon's place once again.	Reggie Wayne will start in Pathon's place once again.	2810389	1471991559998	1471991560160	w	87
5511	59096	Reggie Wayne will start in Pathon's place once again.	Reggie Wayne will start in Pathon's place once again.	2810386	1471991560043	1471991560155	i	73
5511	59096	Reggie Wayne will start in Pathon's place once again.	Reggie Wayne will start in Pathon's place once again.	2810391	1471991560093	1471991560191	l	76
5511	59096	Reggie Wayne will start in Pathon's place once again.	Reggie Wayne will start in Pathon's place once again.	2810394	1471991560269	1471991560429	l	76
5511	59096	Reggie Wayne will start in Pathon's place once again.	Reggie Wayne will start in Pathon's place once again.	2810410	1471991560365	1471991560541	 	32
5511	59096	Reggie Wayne will start in Pathon's place once again.	Reggie Wayne will start in Pathon's place once again.	2810416	1471991560462	1471991560651	s	83
5511	59096	Reggie Wayne will start in Pathon's place once again.	Reggie Wayne will start in Pathon's place once again.	2810420	1471991560635	1471991560769	t	84
5511	59096	Reggie Wayne will start in Pathon's place once again.	Reggie Wayne will start in Pathon's place once again.	2810423	1471991560785	1471991560936	a	65
5511	59096	Reggie Wayne will start in Pathon's place once again.	Reggie Wayne will start in Pathon's place once again.	2810429	1471991560982	1471991561087	r	82
5511	59096	Reggie Wayne will start in Pathon's place once again.	Reggie Wayne will start in Pathon's place once again.	2810438	1471991561181	1471991561366	t	84
5511	59096	Reggie Wayne will start in Pathon's place once again.	Reggie Wayne will start in Pathon's place once again.	2810476	1471991561366	1471991561517	 	32
5511	59096	Reggie Wayne will start in Pathon's place once again.	Reggie Wayne will start in Pathon's place once again.	2810477	1471991561485	1471991561638	i	73
5511	59096	Reggie Wayne will start in Pathon's place once again.	Reggie Wayne will start in Pathon's place once again.	2810479	1471991561573	1471991561724	n	78
5511	59096	Reggie Wayne will start in Pathon's place once again.	Reggie Wayne will start in Pathon's place once again.	2810485	1471991561669	1471991561848	 	32
5511	59096	Reggie Wayne will start in Pathon's place once again.	Reggie Wayne will start in Pathon's place once again.	2810489	1471991562145	1471991562303	SHIFT	16
5511	59096	Reggie Wayne will start in Pathon's place once again.	Reggie Wayne will start in Pathon's place once again.	2810504	1471991562223	1471991562318	P	80
5511	59096	Reggie Wayne will start in Pathon's place once again.	Reggie Wayne will start in Pathon's place once again.	2810506	1471991562429	1471991562581	a	65
5511	59096	Reggie Wayne will start in Pathon's place once again.	Reggie Wayne will start in Pathon's place once again.	2810509	1471991562873	1471991563035	t	84
5511	59096	Reggie Wayne will start in Pathon's place once again.	Reggie Wayne will start in Pathon's place once again.	2810511	1471991562967	1471991563052	h	72
5511	59096	Reggie Wayne will start in Pathon's place once again.	Reggie Wayne will start in Pathon's place once again.	2810514	1471991563068	1471991563235	o	79
5511	59096	Reggie Wayne will start in Pathon's place once again.	Reggie Wayne will start in Pathon's place once again.	2810601	1471991563182	1471991563347	n	78
5511	59096	Reggie Wayne will start in Pathon's place once again.	Reggie Wayne will start in Pathon's place once again.	2810606	1471991563452	1471991563517	'	222
5511	59096	Reggie Wayne will start in Pathon's place once again.	Reggie Wayne will start in Pathon's place once again.	2810617	1471991563564	1471991563711	s	83
5511	59096	Reggie Wayne will start in Pathon's place once again.	Reggie Wayne will start in Pathon's place once again.	2810620	1471991564010	1471991564082	BKSP	8
5511	59096	Reggie Wayne will start in Pathon's place once again.	Reggie Wayne will start in Pathon's place once again.	2810624	1471991564162	1471991564216	BKSP	8
5511	59096	Reggie Wayne will start in Pathon's place once again.	Reggie Wayne will start in Pathon's place once again.	2810626	1471991564310	1471991564413	BKSP	8
5511	59096	Reggie Wayne will start in Pathon's place once again.	Reggie Wayne will start in Pathon's place once again.	2810629	1471991564852	1471991564979	'	222
5511	59096	Reggie Wayne will start in Pathon's place once again.	Reggie Wayne will start in Pathon's place once again.	2810633	1471991564946	1471991565123	s	83
5511	59096	Reggie Wayne will start in Pathon's place once again.	Reggie Wayne will start in Pathon's place once again.	2810635	1471991565138	1471991565322	 	32
5511	59096	Reggie Wayne will start in Pathon's place once again.	Reggie Wayne will start in Pathon's place once again.	2810643	1471991565435	1471991565515	p	80
5511	59096	Reggie Wayne will start in Pathon's place once again.	Reggie Wayne will start in Pathon's place once again.	2810644	1471991565546	1471991565662	a	76
5511	59096	Reggie Wayne will start in Pathon's place once again.	Reggie Wayne will start in Pathon's place once again.	2810645	1471991565755	1471991565844	c	67
5511	59096	Reggie Wayne will start in Pathon's place once again.	Reggie Wayne will start in Pathon's place once again.	2810646	1471991565937	1471991566089	e	69
5511	59096	Reggie Wayne will start in Pathon's place once again.	Reggie Wayne will start in Pathon's place once again.	2810665	1471991566073	1471991566227	 	32
5511	59096	Reggie Wayne will start in Pathon's place once again.	Reggie Wayne will start in Pathon's place once again.	2810667	1471991566142	1471991566310	o	79
5511	59096	Reggie Wayne will start in Pathon's place once again.	Reggie Wayne will start in Pathon's place once again.	2810669	1471991566242	1471991566409	n	78
5511	59096	Reggie Wayne will start in Pathon's place once again.	Reggie Wayne will start in Pathon's place once again.	2810673	1471991566310	1471991566424	c	67
5511	59096	Reggie Wayne will start in Pathon's place once again.	Reggie Wayne will start in Pathon's place once again.	2810675	1471991566518	1471991566694	e	69
5511	59096	Reggie Wayne will start in Pathon's place once again.	Reggie Wayne will start in Pathon's place once again.	2810687	1471991566640	1471991566805	 	32
5511	59096	Reggie Wayne will start in Pathon's place once again.	Reggie Wayne will start in Pathon's place once again.	2810689	1471991566789	1471991566937	a	65
5511	59096	Reggie Wayne will start in Pathon's place once again.	Reggie Wayne will start in Pathon's place once again.	2810690	1471991566921	1471991567054	g	71
5511	59096	Reggie Wayne will start in Pathon's place once again.	Reggie Wayne will start in Pathon's place once again.	2810691	1471991567101	1471991567293	a	65
5511	59096	Reggie Wayne will start in Pathon's place once again.	Reggie Wayne will start in Pathon's place once again.	2810719	1471991567174	1471991567308	i	73
5511	59096	Reggie Wayne will start in Pathon's place once again.	Reggie Wayne will start in Pathon's place once again.	2810723	1471991567259	1471991567402	n	78
5511	59096	Reggie Wayne will start in Pathon's place once again.	Reggie Wayne will start in Pathon's place once again.	2810727	1471991567449	1471991567570	.	190
5511	59111	He is listed as day to day.	He is listed as day to day.	2810922	1471991573070	1471991573274	SHIFT	16
5511	59111	He is listed as day to day.	He is listed as day to day.	2810925	1471991573241	1471991573341	H	72
5511	59111	He is listed as day to day.	He is listed as day to day.	2810927	1471991573326	1471991573471	e	69
5511	59111	He is listed as day to day.	He is listed as day to day.	2810929	1471991573456	1471991573619	 	32
5511	59111	He is listed as day to day.	He is listed as day to day.	2810931	1471991573603	1471991573709	i	73
5511	59111	He is listed as day to day.	He is listed as day to day.	2810944	1471991573658	1471991573810	s	83
5511	59111	He is listed as day to day.	He is listed as day to day.	2810946	1471991573758	1471991573941	 	32
5511	59111	He is listed as day to day.	He is listed as day to day.	2810949	1471991573857	1471991574019	l	76
5511	59111	He is listed as day to day.	He is listed as day to day.	2810952	1471991573988	1471991574136	i	73
5511	59111	He is listed as day to day.	He is listed as day to day.	2810956	1471991574121	1471991574301	s	83
5511	59111	He is listed as day to day.	He is listed as day to day.	2810974	1471991574285	1471991574427	t	84
5511	59111	He is listed as day to day.	He is listed as day to day.	2810976	1471991574388	1471991574488	e	69
5511	59111	He is listed as day to day.	He is listed as day to day.	2810977	1471991574551	1471991574723	d	68
5511	59111	He is listed as day to day.	He is listed as day to day.	2810978	1471991574653	1471991574817	 	32
5511	59111	He is listed as day to day.	He is listed as day to day.	2810980	1471991574817	1471991575019	a	65
5511	59111	He is listed as day to day.	He is listed as day to day.	2811013	1471991574904	1471991575040	s	83
5511	59111	He is listed as day to day.	He is listed as day to day.	2811017	1471991574987	1471991575149	 	32
5511	59111	He is listed as day to day.	He is listed as day to day.	2811022	1471991575212	1471991575349	d	68
5511	59111	He is listed as day to day.	He is listed as day to day.	2811028	1471991575412	1471991575595	a	65
5511	59111	He is listed as day to day.	He is listed as day to day.	2811033	1471991575534	1471991575652	y	89
5511	59111	He is listed as day to day.	He is listed as day to day.	2811035	1471991575652	1471991575813	 	32
5511	59111	He is listed as day to day.	He is listed as day to day.	2811039	1471991575829	1471991575986	t	84
5511	59111	He is listed as day to day.	He is listed as day to day.	2811065	1471991575903	1471991576035	o	79
5511	59111	He is listed as day to day.	He is listed as day to day.	2811069	1471991576001	1471991576179	 	32
5511	59111	He is listed as day to day.	He is listed as day to day.	2811073	1471991576117	1471991576248	d	68
5511	59111	He is listed as day to day.	He is listed as day to day.	2811077	1471991576311	1471991576500	a	65
5511	59111	He is listed as day to day.	He is listed as day to day.	2811076	1471991576401	1471991576484	y	89
5511	59111	He is listed as day to day.	He is listed as day to day.	2811078	1471991576594	1471991576684	.	190
5511	59122	What number should he call you on?	What number should he call  you on?	2811232	1471991579366	1471991579526	SHIFT	16
5511	59122	What number should he call you on?	What number should he call  you on?	2811234	1471991579412	1471991579542	W	87
5511	59122	What number should he call you on?	What number should he call  you on?	2811238	1471991579651	1471991579810	a	65
5511	59122	What number should he call you on?	What number should he call  you on?	2811241	1471991579727	1471991579888	h	72
5511	59122	What number should he call you on?	What number should he call  you on?	2811244	1471991580343	1471991580425	BKSP	8
5511	59122	What number should he call you on?	What number should he call  you on?	2811247	1471991580488	1471991580574	BKSP	8
5511	59122	What number should he call you on?	What number should he call  you on?	2811249	1471991580714	1471991580842	h	72
5511	59122	What number should he call you on?	What number should he call  you on?	2811300	1471991580779	1471991580952	a	65
5511	59122	What number should he call you on?	What number should he call  you on?	2811304	1471991580952	1471991581115	t	84
5511	59122	What number should he call you on?	What number should he call  you on?	2811307	1471991581071	1471991581220	 	32
5511	59122	What number should he call you on?	What number should he call  you on?	2811309	1471991581329	1471991581406	n	78
5511	59122	What number should he call you on?	What number should he call  you on?	2811314	1471991581515	1471991581588	u	85
5511	59122	What number should he call you on?	What number should he call  you on?	2811319	1471991581682	1471991581821	m	77
5511	59122	What number should he call you on?	What number should he call  you on?	2811327	1471991581724	1471991581837	b	66
5511	59122	What number should he call you on?	What number should he call  you on?	2811329	1471991581931	1471991582147	e	69
5511	59122	What number should he call you on?	What number should he call  you on?	2811332	1471991582004	1471991582188	r	82
5511	59122	What number should he call you on?	What number should he call  you on?	2811334	1471991582102	1471991582266	 	32
5511	59122	What number should he call you on?	What number should he call  you on?	2811372	1471991582282	1471991582475	s	83
5511	59122	What number should he call you on?	What number should he call  you on?	2811338	1471991582354	1471991582435	h	72
5511	59122	What number should he call you on?	What number should he call  you on?	2811378	1471991582435	1471991582553	o	79
5511	59122	What number should he call you on?	What number should he call  you on?	2811381	1471991582569	1471991582605	u	85
5511	59122	What number should he call you on?	What number should he call  you on?	2811386	1471991582636	1471991582804	l	76
5511	59122	What number should he call you on?	What number should he call  you on?	2811392	1471991582749	1471991582935	d	68
5511	59122	What number should he call you on?	What number should he call  you on?	2811427	1471991582835	1471991582984	 	32
5511	59122	What number should he call you on?	What number should he call  you on?	2811429	1471991583124	1471991583285	h	72
5511	59122	What number should he call you on?	What number should he call  you on?	2811432	1471991583217	1471991583394	e	69
5511	59122	What number should he call you on?	What number should he call  you on?	2811435	1471991583332	1471991583488	 	32
5511	59122	What number should he call you on?	What number should he call  you on?	2811437	1471991583535	1471991583633	c	67
5511	59122	What number should he call you on?	What number should he call  you on?	2811459	1471991583695	1471991583850	a	65
5511	59122	What number should he call you on?	What number should he call  you on?	2811441	1471991583747	1471991583801	l	76
5511	59122	What number should he call you on?	What number should he call  you on?	2811464	1471991583865	1471991583981	l	76
5511	59122	What number should he call you on?	What number should he call  you on?	2811466	1471991583965	1471991584111	 	32
5511	59122	What number should he call you on?	What number should he call  you on?	2811469	1471991584158	1471991584211	y	32
5511	59122	What number should he call you on?	What number should he call  you on?	2811538	1471991584296	1471991584482	o	79
5511	59122	What number should he call you on?	What number should he call  you on?	2811540	1471991584398	1471991584547	u	85
5511	59122	What number should he call you on?	What number should he call  you on?	2811544	1471991584513	1471991584749	 	32
5511	59122	What number should he call you on?	What number should he call  you on?	2811550	1471991584690	1471991584816	o	79
5511	59122	What number should he call you on?	What number should he call  you on?	2811555	1471991584764	1471991584926	n	78
5511	59122	What number should he call you on?	What number should he call  you on?	2811558	1471991585632	1471991585810	SHIFT	16
5511	59122	What number should he call you on?	What number should he call  you on?	2811554	1471991585725	1471991585826	?	191
5511	59128	I haven't visited with Stan lately.	I haven't visited with Stan lately.	2811628	1471991587575	1471991587774	SHIFT	16
5511	59128	I haven't visited with Stan lately.	I haven't visited with Stan lately.	2811631	1471991587700	1471991587790	I	73
5511	59128	I haven't visited with Stan lately.	I haven't visited with Stan lately.	2811635	1471991587790	1471991587971	 	32
5511	59128	I haven't visited with Stan lately.	I haven't visited with Stan lately.	2811637	1471991587936	1471991588088	h	72
5511	59128	I haven't visited with Stan lately.	I haven't visited with Stan lately.	2811639	1471991587990	1471991588088	a	65
5511	59128	I haven't visited with Stan lately.	I haven't visited with Stan lately.	2811641	1471991588088	1471991588256	v	86
5511	59128	I haven't visited with Stan lately.	I haven't visited with Stan lately.	2811708	1471991588188	1471991588303	e	69
5511	59128	I haven't visited with Stan lately.	I haven't visited with Stan lately.	2811712	1471991588381	1471991588564	n	78
5511	59128	I haven't visited with Stan lately.	I haven't visited with Stan lately.	2811716	1471991589019	1471991589149	'	222
5511	59128	I haven't visited with Stan lately.	I haven't visited with Stan lately.	2811719	1471991589133	1471991589282	t	84
5511	59128	I haven't visited with Stan lately.	I haven't visited with Stan lately.	2811722	1471991589267	1471991589430	 	32
5511	59128	I haven't visited with Stan lately.	I haven't visited with Stan lately.	2811726	1471991589571	1471991589728	v	86
5511	59128	I haven't visited with Stan lately.	I haven't visited with Stan lately.	2811742	1471991589666	1471991589807	i	73
5511	59128	I haven't visited with Stan lately.	I haven't visited with Stan lately.	2811744	1471991589807	1471991589965	s	83
5511	59128	I haven't visited with Stan lately.	I haven't visited with Stan lately.	2811746	1471991590059	1471991590233	i	73
5511	59128	I haven't visited with Stan lately.	I haven't visited with Stan lately.	2811750	1471991590217	1471991590379	t	84
5511	59128	I haven't visited with Stan lately.	I haven't visited with Stan lately.	2811751	1471991590332	1471991590449	e	69
5511	59128	I haven't visited with Stan lately.	I haven't visited with Stan lately.	2811755	1471991590527	1471991590677	d	68
5511	59128	I haven't visited with Stan lately.	I haven't visited with Stan lately.	2811773	1471991590677	1471991590843	 	32
5511	59128	I haven't visited with Stan lately.	I haven't visited with Stan lately.	2811776	1471991590921	1471991591065	w	87
5511	59128	I haven't visited with Stan lately.	I haven't visited with Stan lately.	2811779	1471991590983	1471991591144	i	73
5511	59128	I haven't visited with Stan lately.	I haven't visited with Stan lately.	2811782	1471991591129	1471991591317	t	84
5511	59128	I haven't visited with Stan lately.	I haven't visited with Stan lately.	2811826	1471991591198	1471991591317	h	72
5511	59128	I haven't visited with Stan lately.	I haven't visited with Stan lately.	2811829	1471991591281	1471991591538	 	32
5511	59128	I haven't visited with Stan lately.	I haven't visited with Stan lately.	2811833	1471991591476	1471991591679	SHIFT	16
5511	59128	I haven't visited with Stan lately.	I haven't visited with Stan lately.	2811837	1471991591569	1471991591710	S	83
5511	59128	I haven't visited with Stan lately.	I haven't visited with Stan lately.	2811840	1471991591742	1471991591875	t	84
5511	59128	I haven't visited with Stan lately.	I haven't visited with Stan lately.	2811842	1471991591938	1471991592143	a	65
5511	59128	I haven't visited with Stan lately.	I haven't visited with Stan lately.	2811848	1471991591998	1471991592214	n	78
5511	59128	I haven't visited with Stan lately.	I haven't visited with Stan lately.	2811862	1471991592159	1471991592340	 	32
5511	59128	I haven't visited with Stan lately.	I haven't visited with Stan lately.	2811864	1471991592496	1471991592624	l	76
5511	59128	I haven't visited with Stan lately.	I haven't visited with Stan lately.	2811866	1471991592639	1471991592811	a	65
5511	59128	I haven't visited with Stan lately.	I haven't visited with Stan lately.	2811868	1471991592773	1471991592955	t	84
5511	59128	I haven't visited with Stan lately.	I haven't visited with Stan lately.	2811870	1471991592900	1471991593067	e	69
5511	59128	I haven't visited with Stan lately.	I haven't visited with Stan lately.	2811899	1471991593024	1471991593135	l	76
5511	59128	I haven't visited with Stan lately.	I haven't visited with Stan lately.	2811904	1471991593182	1471991593293	y	89
5511	59128	I haven't visited with Stan lately.	I haven't visited with Stan lately.	2811908	1471991593403	1471991593507	.	190
