PARTICIPANT_ID	TEST_SECTION_ID	SENTENCE	USER_INPUT	KEYSTROKE_ID	PRESS_TIME	RELEASE_TIME	LETTER	KEYCODE
5615	60292	he Fed will continue to have oversight over 38 US banks.	he Fed will continue to have oversight over 38 US banks.	2868926	1471992870901	1471992871011	h	72
5615	60292	he Fed will continue to have oversight over 38 US banks.	he Fed will continue to have oversight over 38 US banks.	2868928	1471992870987	1471992871099	e	69
5615	60292	he Fed will continue to have oversight over 38 US banks.	he Fed will continue to have oversight over 38 US banks.	2868929	1471992871132	1471992871243	 	32
5615	60292	he Fed will continue to have oversight over 38 US banks.	he Fed will continue to have oversight over 38 US banks.	2868932	1471992871363	1471992871507	SHIFT	16
5615	60292	he Fed will continue to have oversight over 38 US banks.	he Fed will continue to have oversight over 38 US banks.	2868937	1471992871451	1471992871618	F	70
5615	60292	he Fed will continue to have oversight over 38 US banks.	he Fed will continue to have oversight over 38 US banks.	2868991	1471992871603	1471992871682	e	69
5615	60292	he Fed will continue to have oversight over 38 US banks.	he Fed will continue to have oversight over 38 US banks.	2868996	1471992871780	1471992871875	d	68
5615	60292	he Fed will continue to have oversight over 38 US banks.	he Fed will continue to have oversight over 38 US banks.	2869002	1471992871892	1471992872004	 	32
5615	60292	he Fed will continue to have oversight over 38 US banks.	he Fed will continue to have oversight over 38 US banks.	2869006	1471992872011	1471992872123	w	87
5615	60292	he Fed will continue to have oversight over 38 US banks.	he Fed will continue to have oversight over 38 US banks.	2869011	1471992872171	1471992872353	i	73
5615	60292	he Fed will continue to have oversight over 38 US banks.	he Fed will continue to have oversight over 38 US banks.	2869083	1471992872290	1471992872403	l	76
5615	60292	he Fed will continue to have oversight over 38 US banks.	he Fed will continue to have oversight over 38 US banks.	2869085	1471992872484	1471992872649	l	76
5615	60292	he Fed will continue to have oversight over 38 US banks.	he Fed will continue to have oversight over 38 US banks.	2869090	1471992872611	1471992872739	 	32
5615	60292	he Fed will continue to have oversight over 38 US banks.	he Fed will continue to have oversight over 38 US banks.	2869093	1471992872754	1471992872883	c	67
5615	60292	he Fed will continue to have oversight over 38 US banks.	he Fed will continue to have oversight over 38 US banks.	2869097	1471992873267	1471992873457	o	79
5615	60292	he Fed will continue to have oversight over 38 US banks.	he Fed will continue to have oversight over 38 US banks.	2869167	1471992873420	1471992873562	n	78
5615	60292	he Fed will continue to have oversight over 38 US banks.	he Fed will continue to have oversight over 38 US banks.	2869170	1471992873540	1471992873642	t	84
5615	60292	he Fed will continue to have oversight over 38 US banks.	he Fed will continue to have oversight over 38 US banks.	2869173	1471992873651	1471992873849	i	73
5615	60292	he Fed will continue to have oversight over 38 US banks.	he Fed will continue to have oversight over 38 US banks.	2869179	1471992873811	1471992873923	n	78
5615	60292	he Fed will continue to have oversight over 38 US banks.	he Fed will continue to have oversight over 38 US banks.	2869182	1471992874227	1471992874347	u	85
5615	60292	he Fed will continue to have oversight over 38 US banks.	he Fed will continue to have oversight over 38 US banks.	2869185	1471992874372	1471992874475	e	69
5615	60292	he Fed will continue to have oversight over 38 US banks.	he Fed will continue to have oversight over 38 US banks.	2869215	1471992874467	1471992874577	 	32
5615	60292	he Fed will continue to have oversight over 38 US banks.	he Fed will continue to have oversight over 38 US banks.	2869221	1471992874604	1471992874714	t	84
5615	60292	he Fed will continue to have oversight over 38 US banks.	he Fed will continue to have oversight over 38 US banks.	2869226	1471992874731	1471992874897	o	79
5615	60292	he Fed will continue to have oversight over 38 US banks.	he Fed will continue to have oversight over 38 US banks.	2869233	1471992874867	1471992875026	 	32
5615	60292	he Fed will continue to have oversight over 38 US banks.	he Fed will continue to have oversight over 38 US banks.	2869240	1471992875018	1471992875173	h	72
5615	60292	he Fed will continue to have oversight over 38 US banks.	he Fed will continue to have oversight over 38 US banks.	2869288	1471992875171	1471992875337	a	65
5615	60292	he Fed will continue to have oversight over 38 US banks.	he Fed will continue to have oversight over 38 US banks.	2869290	1471992875300	1471992875466	v	86
5615	60292	he Fed will continue to have oversight over 38 US banks.	he Fed will continue to have oversight over 38 US banks.	2869292	1471992875387	1471992875506	e	69
5615	60292	he Fed will continue to have oversight over 38 US banks.	he Fed will continue to have oversight over 38 US banks.	2869295	1471992875620	1471992875738	 	32
5615	60292	he Fed will continue to have oversight over 38 US banks.	he Fed will continue to have oversight over 38 US banks.	2869298	1471992875850	1471992876090	o	79
5615	60292	he Fed will continue to have oversight over 38 US banks.	he Fed will continue to have oversight over 38 US banks.	2869350	1471992876067	1471992876195	n	78
5615	60292	he Fed will continue to have oversight over 38 US banks.	he Fed will continue to have oversight over 38 US banks.	2869353	1471992876435	1471992876513	BKSP	8
5615	60292	he Fed will continue to have oversight over 38 US banks.	he Fed will continue to have oversight over 38 US banks.	2869359	1471992876490	1471992876595	v	86
5615	60292	he Fed will continue to have oversight over 38 US banks.	he Fed will continue to have oversight over 38 US banks.	2869363	1471992876651	1471992876787	e	69
5615	60292	he Fed will continue to have oversight over 38 US banks.	he Fed will continue to have oversight over 38 US banks.	2869366	1471992876731	1471992876834	r	82
5615	60292	he Fed will continue to have oversight over 38 US banks.	he Fed will continue to have oversight over 38 US banks.	2869371	1471992876931	1471992877041	s	83
5615	60292	he Fed will continue to have oversight over 38 US banks.	he Fed will continue to have oversight over 38 US banks.	2869420	1471992877003	1471992877130	i	73
5615	60292	he Fed will continue to have oversight over 38 US banks.	he Fed will continue to have oversight over 38 US banks.	2869424	1471992877228	1471992877305	g	71
5615	60292	he Fed will continue to have oversight over 38 US banks.	he Fed will continue to have oversight over 38 US banks.	2869430	1471992877330	1471992877449	h	72
5615	60292	he Fed will continue to have oversight over 38 US banks.	he Fed will continue to have oversight over 38 US banks.	2869436	1471992877435	1471992877513	t	84
5615	60292	he Fed will continue to have oversight over 38 US banks.	he Fed will continue to have oversight over 38 US banks.	2869442	1471992877595	1471992877682	 	32
5615	60292	he Fed will continue to have oversight over 38 US banks.	he Fed will continue to have oversight over 38 US banks.	2869447	1471992877803	1471992877929	o	79
5615	60292	he Fed will continue to have oversight over 38 US banks.	he Fed will continue to have oversight over 38 US banks.	2869508	1471992877915	1471992878050	v	86
5615	60292	he Fed will continue to have oversight over 38 US banks.	he Fed will continue to have oversight over 38 US banks.	2869510	1471992878082	1471992878281	e	69
5615	60292	he Fed will continue to have oversight over 38 US banks.	he Fed will continue to have oversight over 38 US banks.	2869512	1471992878226	1471992878361	r	82
5615	60292	he Fed will continue to have oversight over 38 US banks.	he Fed will continue to have oversight over 38 US banks.	2869515	1471992878347	1471992878450	 	32
5615	60292	he Fed will continue to have oversight over 38 US banks.	he Fed will continue to have oversight over 38 US banks.	2869518	1471992879203	1471992879266	3	51
5615	60292	he Fed will continue to have oversight over 38 US banks.	he Fed will continue to have oversight over 38 US banks.	2869576	1471992879259	1471992879354	8	56
5615	60292	he Fed will continue to have oversight over 38 US banks.	he Fed will continue to have oversight over 38 US banks.	2869579	1471992879451	1471992879522	 	32
5615	60292	he Fed will continue to have oversight over 38 US banks.	he Fed will continue to have oversight over 38 US banks.	2869587	1471992880058	1471992880354	SHIFT	16
5615	60292	he Fed will continue to have oversight over 38 US banks.	he Fed will continue to have oversight over 38 US banks.	2869582	1471992880131	1471992880229	U	85
5615	60292	he Fed will continue to have oversight over 38 US banks.	he Fed will continue to have oversight over 38 US banks.	2869584	1471992880228	1471992880330	S	83
5615	60292	he Fed will continue to have oversight over 38 US banks.	he Fed will continue to have oversight over 38 US banks.	2869591	1471992880362	1471992880442	 	32
5615	60292	he Fed will continue to have oversight over 38 US banks.	he Fed will continue to have oversight over 38 US banks.	2869596	1471992880579	1471992880700	b	66
5615	60292	he Fed will continue to have oversight over 38 US banks.	he Fed will continue to have oversight over 38 US banks.	2869653	1471992880698	1471992880826	a	65
5615	60292	he Fed will continue to have oversight over 38 US banks.	he Fed will continue to have oversight over 38 US banks.	2869657	1471992880834	1471992880977	n	78
5615	60292	he Fed will continue to have oversight over 38 US banks.	he Fed will continue to have oversight over 38 US banks.	2869664	1471992880963	1471992881082	k	75
5615	60292	he Fed will continue to have oversight over 38 US banks.	he Fed will continue to have oversight over 38 US banks.	2869670	1471992881051	1471992881162	s	83
5615	60292	he Fed will continue to have oversight over 38 US banks.	he Fed will continue to have oversight over 38 US banks.	2869677	1471992881187	1471992881314	.	190
5615	60319	Let me know where you might be.	Let me know where you might be.	2869974	1471992885178	1471992885313	SHIFT	16
5615	60319	Let me know where you might be.	Let me know where you might be.	2869977	1471992885275	1471992885396	L	76
5615	60319	Let me know where you might be.	Let me know where you might be.	2869980	1471992885395	1471992885554	e	69
5615	60319	Let me know where you might be.	Let me know where you might be.	2869984	1471992885491	1471992885594	t	84
5615	60319	Let me know where you might be.	Let me know where you might be.	2869990	1471992885611	1471992885714	 	32
5615	60319	Let me know where you might be.	Let me know where you might be.	2869998	1471992885762	1471992885914	m	77
5615	60319	Let me know where you might be.	Let me know where you might be.	2870046	1471992885875	1471992885970	e	69
5615	60319	Let me know where you might be.	Let me know where you might be.	2870047	1471992886138	1471992886258	 	32
5615	60319	Let me know where you might be.	Let me know where you might be.	2870050	1471992886289	1471992886426	k	75
5615	60319	Let me know where you might be.	Let me know where you might be.	2870052	1471992886386	1471992886521	n	78
5615	60319	Let me know where you might be.	Let me know where you might be.	2870054	1471992886501	1471992886609	o	79
5615	60319	Let me know where you might be.	Let me know where you might be.	2870073	1471992886603	1471992886689	w	87
5615	60319	Let me know where you might be.	Let me know where you might be.	2870078	1471992886701	1471992886792	 	32
5615	60319	Let me know where you might be.	Let me know where you might be.	2870083	1471992886842	1471992886978	w	87
5615	60319	Let me know where you might be.	Let me know where you might be.	2870087	1471992886906	1471992887020	h	72
5615	60319	Let me know where you might be.	Let me know where you might be.	2870092	1471992887067	1471992887249	e	69
5615	60319	Let me know where you might be.	Let me know where you might be.	2870121	1471992887194	1471992887369	r	82
5615	60319	Let me know where you might be.	Let me know where you might be.	2870124	1471992887313	1471992887409	e	69
5615	60319	Let me know where you might be.	Let me know where you might be.	2870132	1471992887378	1471992887449	 	32
5615	60319	Let me know where you might be.	Let me know where you might be.	2870138	1471992887595	1471992887689	y	89
5615	60319	Let me know where you might be.	Let me know where you might be.	2870142	1471992887714	1471992887913	o	79
5615	60319	Let me know where you might be.	Let me know where you might be.	2870211	1471992887857	1471992887978	u	85
5615	60319	Let me know where you might be.	Let me know where you might be.	2870213	1471992888121	1471992888137	 	32
5615	60319	Let me know where you might be.	Let me know where you might be.	2870215	1471992888918	1471992889097	m	77
5615	60319	Let me know where you might be.	Let me know where you might be.	2870217	1471992889075	1471992889232	i	73
5615	60319	Let me know where you might be.	Let me know where you might be.	2870221	1471992889201	1471992889282	g	71
5615	60319	Let me know where you might be.	Let me know where you might be.	2870225	1471992889322	1471992889417	h	72
5615	60319	Let me know where you might be.	Let me know where you might be.	2870268	1471992889411	1471992889506	t	84
5615	60319	Let me know where you might be.	Let me know where you might be.	2870271	1471992889569	1471992889673	 	32
5615	60319	Let me know where you might be.	Let me know where you might be.	2870273	1471992889794	1471992889881	b	66
5615	60319	Let me know where you might be.	Let me know where you might be.	2870275	1471992889889	1471992889986	e	69
5615	60319	Let me know where you might be.	Let me know where you might be.	2870277	1471992890026	1471992890146	.	190
5615	60331	The earliest the Jets expect him to return is Dec.	The earliest the Jets expect him to return is Dec.	2870511	1471992893817	1471992893984	SHIFT	16
5615	60331	The earliest the Jets expect him to return is Dec.	The earliest the Jets expect him to return is Dec.	2870513	1471992893955	1471992894042	T	84
5615	60331	The earliest the Jets expect him to return is Dec.	The earliest the Jets expect him to return is Dec.	2870518	1471992893993	1471992894148	h	72
5615	60331	The earliest the Jets expect him to return is Dec.	The earliest the Jets expect him to return is Dec.	2870524	1471992894147	1471992894224	e	69
5615	60331	The earliest the Jets expect him to return is Dec.	The earliest the Jets expect him to return is Dec.	2870529	1471992894177	1471992894265	 	32
5615	60331	The earliest the Jets expect him to return is Dec.	The earliest the Jets expect him to return is Dec.	2870532	1471992894635	1471992894809	e	69
5615	60331	The earliest the Jets expect him to return is Dec.	The earliest the Jets expect him to return is Dec.	2870545	1471992894746	1471992894888	a	65
5615	60331	The earliest the Jets expect him to return is Dec.	The earliest the Jets expect him to return is Dec.	2870547	1471992894825	1471992894961	r	82
5615	60331	The earliest the Jets expect him to return is Dec.	The earliest the Jets expect him to return is Dec.	2870549	1471992894985	1471992895176	l	76
5615	60331	The earliest the Jets expect him to return is Dec.	The earliest the Jets expect him to return is Dec.	2870554	1471992895163	1471992895321	i	73
5615	60331	The earliest the Jets expect him to return is Dec.	The earliest the Jets expect him to return is Dec.	2870561	1471992895338	1471992895505	e	69
5615	60331	The earliest the Jets expect him to return is Dec.	The earliest the Jets expect him to return is Dec.	2870589	1471992895466	1471992895650	s	83
5615	60331	The earliest the Jets expect him to return is Dec.	The earliest the Jets expect him to return is Dec.	2870592	1471992895594	1471992895705	t	84
5615	60331	The earliest the Jets expect him to return is Dec.	The earliest the Jets expect him to return is Dec.	2870597	1471992895754	1471992895856	 	32
5615	60331	The earliest the Jets expect him to return is Dec.	The earliest the Jets expect him to return is Dec.	2870601	1471992895969	1471992896081	t	84
5615	60331	The earliest the Jets expect him to return is Dec.	The earliest the Jets expect him to return is Dec.	2870605	1471992896049	1471992896168	h	72
5615	60331	The earliest the Jets expect him to return is Dec.	The earliest the Jets expect him to return is Dec.	2870624	1471992896129	1471992896209	e	69
5615	60331	The earliest the Jets expect him to return is Dec.	The earliest the Jets expect him to return is Dec.	2870626	1471992896282	1471992896361	 	32
5615	60331	The earliest the Jets expect him to return is Dec.	The earliest the Jets expect him to return is Dec.	2870628	1471992896337	1471992896480	SHIFT	16
5615	60331	The earliest the Jets expect him to return is Dec.	The earliest the Jets expect him to return is Dec.	2870630	1471992896458	1471992896553	J	74
5615	60331	The earliest the Jets expect him to return is Dec.	The earliest the Jets expect him to return is Dec.	2870633	1471992896514	1471992896625	e	69
5615	60331	The earliest the Jets expect him to return is Dec.	The earliest the Jets expect him to return is Dec.	2870638	1471992896762	1471992896865	t	84
5615	60331	The earliest the Jets expect him to return is Dec.	The earliest the Jets expect him to return is Dec.	2870645	1471992896914	1471992897016	s	83
5615	60331	The earliest the Jets expect him to return is Dec.	The earliest the Jets expect him to return is Dec.	2870661	1471992897066	1471992897194	 	32
5615	60331	The earliest the Jets expect him to return is Dec.	The earliest the Jets expect him to return is Dec.	2870663	1471992897210	1471992897281	e	69
5615	60331	The earliest the Jets expect him to return is Dec.	The earliest the Jets expect him to return is Dec.	2870665	1471992897393	1471992897480	x	88
5615	60331	The earliest the Jets expect him to return is Dec.	The earliest the Jets expect him to return is Dec.	2870668	1471992897507	1471992897616	p	80
5615	60331	The earliest the Jets expect him to return is Dec.	The earliest the Jets expect him to return is Dec.	2870713	1471992897586	1471992897673	e	69
5615	60331	The earliest the Jets expect him to return is Dec.	The earliest the Jets expect him to return is Dec.	2870714	1471992897746	1471992897865	c	67
5615	60331	The earliest the Jets expect him to return is Dec.	The earliest the Jets expect him to return is Dec.	2870715	1471992897985	1471992898072	t	84
5615	60331	The earliest the Jets expect him to return is Dec.	The earliest the Jets expect him to return is Dec.	2870718	1471992898082	1471992898186	 	32
5615	60331	The earliest the Jets expect him to return is Dec.	The earliest the Jets expect him to return is Dec.	2870722	1471992898227	1471992898345	h	72
5615	60331	The earliest the Jets expect him to return is Dec.	The earliest the Jets expect him to return is Dec.	2870725	1471992898353	1471992898529	i	73
5615	60331	The earliest the Jets expect him to return is Dec.	The earliest the Jets expect him to return is Dec.	2870756	1471992898514	1471992898545	m	77
5615	60331	The earliest the Jets expect him to return is Dec.	The earliest the Jets expect him to return is Dec.	2870759	1471992898666	1471992898785	 	32
5615	60331	The earliest the Jets expect him to return is Dec.	The earliest the Jets expect him to return is Dec.	2870764	1471992898793	1471992898900	t	84
5615	60331	The earliest the Jets expect him to return is Dec.	The earliest the Jets expect him to return is Dec.	2870769	1471992898898	1471992899040	o	79
5615	60331	The earliest the Jets expect him to return is Dec.	The earliest the Jets expect him to return is Dec.	2870772	1471992899018	1471992899129	 	32
5615	60331	The earliest the Jets expect him to return is Dec.	The earliest the Jets expect him to return is Dec.	2870776	1471992899154	1471992899296	r	82
5615	60331	The earliest the Jets expect him to return is Dec.	The earliest the Jets expect him to return is Dec.	2870828	1471992899258	1471992899385	e	69
5615	60331	The earliest the Jets expect him to return is Dec.	The earliest the Jets expect him to return is Dec.	2870833	1471992899417	1471992899537	t	84
5615	60331	The earliest the Jets expect him to return is Dec.	The earliest the Jets expect him to return is Dec.	2870841	1471992899553	1471992899657	u	85
5615	60331	The earliest the Jets expect him to return is Dec.	The earliest the Jets expect him to return is Dec.	2870847	1471992899665	1471992899785	r	82
5615	60331	The earliest the Jets expect him to return is Dec.	The earliest the Jets expect him to return is Dec.	2870851	1471992899818	1471992900008	n	78
5615	60331	The earliest the Jets expect him to return is Dec.	The earliest the Jets expect him to return is Dec.	2870914	1471992899970	1471992900066	 	32
5615	60331	The earliest the Jets expect him to return is Dec.	The earliest the Jets expect him to return is Dec.	2870919	1471992900098	1471992900216	t	84
5615	60331	The earliest the Jets expect him to return is Dec.	The earliest the Jets expect him to return is Dec.	2870925	1471992900194	1471992900297	o	79
5615	60331	The earliest the Jets expect him to return is Dec.	The earliest the Jets expect him to return is Dec.	2870930	1471992900514	1471992900544	BKSP	8
5615	60331	The earliest the Jets expect him to return is Dec.	The earliest the Jets expect him to return is Dec.	2870933	1471992900618	1471992900689	BKSP	8
5615	60331	The earliest the Jets expect him to return is Dec.	The earliest the Jets expect him to return is Dec.	2870938	1471992900826	1471992900920	i	73
5615	60331	The earliest the Jets expect him to return is Dec.	The earliest the Jets expect him to return is Dec.	2870942	1471992900906	1471992900993	s	83
5615	60331	The earliest the Jets expect him to return is Dec.	The earliest the Jets expect him to return is Dec.	2870947	1471992901017	1471992901129	 	32
5615	60331	The earliest the Jets expect him to return is Dec.	The earliest the Jets expect him to return is Dec.	2870988	1471992901160	1471992901288	SHIFT	16
5615	60331	The earliest the Jets expect him to return is Dec.	The earliest the Jets expect him to return is Dec.	2870986	1471992901218	1471992901273	D	68
5615	60331	The earliest the Jets expect him to return is Dec.	The earliest the Jets expect him to return is Dec.	2870993	1471992901362	1471992901432	e	69
5615	60331	The earliest the Jets expect him to return is Dec.	The earliest the Jets expect him to return is Dec.	2870996	1471992901544	1471992901633	c	67
5615	60331	The earliest the Jets expect him to return is Dec.	The earliest the Jets expect him to return is Dec.	2871003	1471992901658	1471992901753	.	190
5615	60346	Good luck this week, I can't see any sure things out there.	Good luck this week, I can't see any sure things out there.	2871511	1471992910512	1471992910704	SHIFT	16
5615	60346	Good luck this week, I can't see any sure things out there.	Good luck this week, I can't see any sure things out there.	2871513	1471992910641	1471992910752	G	71
5615	60346	Good luck this week, I can't see any sure things out there.	Good luck this week, I can't see any sure things out there.	2871516	1471992910785	1471992910823	o	79
5615	60346	Good luck this week, I can't see any sure things out there.	Good luck this week, I can't see any sure things out there.	2871518	1471992910905	1471992911024	o	79
5615	60346	Good luck this week, I can't see any sure things out there.	Good luck this week, I can't see any sure things out there.	2871521	1471992911017	1471992911113	d	68
5615	60346	Good luck this week, I can't see any sure things out there.	Good luck this week, I can't see any sure things out there.	2871525	1471992911128	1471992911201	 	32
5615	60346	Good luck this week, I can't see any sure things out there.	Good luck this week, I can't see any sure things out there.	2871553	1471992911312	1471992911511	l	76
5615	60346	Good luck this week, I can't see any sure things out there.	Good luck this week, I can't see any sure things out there.	2871558	1471992911498	1471992911593	u	85
5615	60346	Good luck this week, I can't see any sure things out there.	Good luck this week, I can't see any sure things out there.	2871561	1471992911625	1471992911751	c	67
5615	60346	Good luck this week, I can't see any sure things out there.	Good luck this week, I can't see any sure things out there.	2871565	1471992911746	1471992911943	k	75
5615	60346	Good luck this week, I can't see any sure things out there.	Good luck this week, I can't see any sure things out there.	2871576	1471992911889	1471992912003	 	32
5615	60346	Good luck this week, I can't see any sure things out there.	Good luck this week, I can't see any sure things out there.	2871580	1471992912002	1471992912099	t	84
5615	60346	Good luck this week, I can't see any sure things out there.	Good luck this week, I can't see any sure things out there.	2871584	1471992912097	1471992912223	h	72
5615	60346	Good luck this week, I can't see any sure things out there.	Good luck this week, I can't see any sure things out there.	2871589	1471992912201	1471992912344	i	73
5615	60346	Good luck this week, I can't see any sure things out there.	Good luck this week, I can't see any sure things out there.	2871595	1471992912296	1471992912391	s	83
5615	60346	Good luck this week, I can't see any sure things out there.	Good luck this week, I can't see any sure things out there.	2871625	1471992912371	1471992912473	 	32
5615	60346	Good luck this week, I can't see any sure things out there.	Good luck this week, I can't see any sure things out there.	2871627	1471992912521	1471992912655	w	87
5615	60346	Good luck this week, I can't see any sure things out there.	Good luck this week, I can't see any sure things out there.	2871629	1471992912601	1471992912681	e	69
5615	60346	Good luck this week, I can't see any sure things out there.	Good luck this week, I can't see any sure things out there.	2871631	1471992912753	1471992912863	e	69
5615	60346	Good luck this week, I can't see any sure things out there.	Good luck this week, I can't see any sure things out there.	2871633	1471992912857	1471992912961	k	75
5615	60346	Good luck this week, I can't see any sure things out there.	Good luck this week, I can't see any sure things out there.	2871635	1471992913105	1471992913176	,	188
5615	60346	Good luck this week, I can't see any sure things out there.	Good luck this week, I can't see any sure things out there.	2871758	1471992913505	1471992913640	,	188
5615	60346	Good luck this week, I can't see any sure things out there.	Good luck this week, I can't see any sure things out there.	2871762	1471992913648	1471992913712	 	32
5615	60346	Good luck this week, I can't see any sure things out there.	Good luck this week, I can't see any sure things out there.	2871767	1471992913807	1471992914047	SHIFT	16
5615	60346	Good luck this week, I can't see any sure things out there.	Good luck this week, I can't see any sure things out there.	2871771	1471992914129	1471992914167	BKSP	8
5615	60346	Good luck this week, I can't see any sure things out there.	Good luck this week, I can't see any sure things out there.	2871775	1471992914249	1471992914312	BKSP	8
5615	60346	Good luck this week, I can't see any sure things out there.	Good luck this week, I can't see any sure things out there.	2871779	1471992914496	1471992914952	 	16
5615	60346	Good luck this week, I can't see any sure things out there.	Good luck this week, I can't see any sure things out there.	2871777	1471992914657	1471992914760	I	73
5615	60346	Good luck this week, I can't see any sure things out there.	Good luck this week, I can't see any sure things out there.	2871780	1471992915033	1471992915113	 	32
5615	60346	Good luck this week, I can't see any sure things out there.	Good luck this week, I can't see any sure things out there.	2871815	1471992915128	1471992915279	c	67
5615	60346	Good luck this week, I can't see any sure things out there.	Good luck this week, I can't see any sure things out there.	2871818	1471992915265	1471992915367	a	65
5615	60346	Good luck this week, I can't see any sure things out there.	Good luck this week, I can't see any sure things out there.	2871822	1471992915361	1471992915479	n	78
5615	60346	Good luck this week, I can't see any sure things out there.	Good luck this week, I can't see any sure things out there.	2871826	1471992915616	1471992915720	'	222
5615	60346	Good luck this week, I can't see any sure things out there.	Good luck this week, I can't see any sure things out there.	2871828	1471992915729	1471992915824	t	84
5615	60346	Good luck this week, I can't see any sure things out there.	Good luck this week, I can't see any sure things out there.	2871848	1471992915865	1471992915969	 	32
5615	60346	Good luck this week, I can't see any sure things out there.	Good luck this week, I can't see any sure things out there.	2871855	1471992915985	1471992916184	s	83
5615	60346	Good luck this week, I can't see any sure things out there.	Good luck this week, I can't see any sure things out there.	2871861	1471992916128	1471992916200	e	69
5615	60346	Good luck this week, I can't see any sure things out there.	Good luck this week, I can't see any sure things out there.	2871868	1471992916273	1471992916360	e	69
5615	60346	Good luck this week, I can't see any sure things out there.	Good luck this week, I can't see any sure things out there.	2871874	1471992916376	1471992916480	 	32
5615	60346	Good luck this week, I can't see any sure things out there.	Good luck this week, I can't see any sure things out there.	2871895	1471992916473	1471992916576	a	65
5615	60346	Good luck this week, I can't see any sure things out there.	Good luck this week, I can't see any sure things out there.	2871897	1471992916592	1471992916655	n	78
5615	60346	Good luck this week, I can't see any sure things out there.	Good luck this week, I can't see any sure things out there.	2871902	1471992916785	1471992916888	y	89
5615	60346	Good luck this week, I can't see any sure things out there.	Good luck this week, I can't see any sure things out there.	2871906	1471992916905	1471992916976	 	32
5615	60346	Good luck this week, I can't see any sure things out there.	Good luck this week, I can't see any sure things out there.	2871910	1471992917008	1471992917127	s	83
5615	60346	Good luck this week, I can't see any sure things out there.	Good luck this week, I can't see any sure things out there.	2871954	1471992917105	1471992917200	u	85
5615	60346	Good luck this week, I can't see any sure things out there.	Good luck this week, I can't see any sure things out there.	2871959	1471992917216	1471992917360	r	82
5615	60346	Good luck this week, I can't see any sure things out there.	Good luck this week, I can't see any sure things out there.	2871962	1471992917288	1471992917407	e	69
5615	60346	Good luck this week, I can't see any sure things out there.	Good luck this week, I can't see any sure things out there.	2871965	1471992917400	1471992917496	 	32
5615	60346	Good luck this week, I can't see any sure things out there.	Good luck this week, I can't see any sure things out there.	2871967	1471992917528	1471992917639	t	84
5615	60346	Good luck this week, I can't see any sure things out there.	Good luck this week, I can't see any sure things out there.	2871986	1471992917617	1471992917720	h	72
5615	60346	Good luck this week, I can't see any sure things out there.	Good luck this week, I can't see any sure things out there.	2871989	1471992917721	1471992917887	i	73
5615	60346	Good luck this week, I can't see any sure things out there.	Good luck this week, I can't see any sure things out there.	2871995	1471992917842	1471992917959	n	78
5615	60346	Good luck this week, I can't see any sure things out there.	Good luck this week, I can't see any sure things out there.	2872001	1471992917945	1471992918095	g	71
5615	60346	Good luck this week, I can't see any sure things out there.	Good luck this week, I can't see any sure things out there.	2872006	1471992918016	1471992918127	s	83
5615	60346	Good luck this week, I can't see any sure things out there.	Good luck this week, I can't see any sure things out there.	2872013	1471992918135	1471992918224	 	32
5615	60346	Good luck this week, I can't see any sure things out there.	Good luck this week, I can't see any sure things out there.	2872046	1471992918321	1471992918447	o	79
5615	60346	Good luck this week, I can't see any sure things out there.	Good luck this week, I can't see any sure things out there.	2872051	1471992918417	1471992918528	u	85
5615	60346	Good luck this week, I can't see any sure things out there.	Good luck this week, I can't see any sure things out there.	2872058	1471992918464	1471992918568	t	84
5615	60346	Good luck this week, I can't see any sure things out there.	Good luck this week, I can't see any sure things out there.	2872063	1471992918609	1471992918696	 	32
5615	60346	Good luck this week, I can't see any sure things out there.	Good luck this week, I can't see any sure things out there.	2872068	1471992918968	1471992919079	t	84
5615	60346	Good luck this week, I can't see any sure things out there.	Good luck this week, I can't see any sure things out there.	2872099	1471992919073	1471992919183	h	72
5615	60346	Good luck this week, I can't see any sure things out there.	Good luck this week, I can't see any sure things out there.	2872104	1471992919153	1471992919263	e	69
5615	60346	Good luck this week, I can't see any sure things out there.	Good luck this week, I can't see any sure things out there.	2872109	1471992919248	1471992919383	r	82
5615	60346	Good luck this week, I can't see any sure things out there.	Good luck this week, I can't see any sure things out there.	2872112	1471992919329	1471992919432	e	69
5615	60346	Good luck this week, I can't see any sure things out there.	Good luck this week, I can't see any sure things out there.	2872117	1471992919393	1471992919511	.	190
5615	60366	I'm glad you are involved!	I'm glad you are involved!	2872313	1471992923358	1471992923536	SHIFT	16
5615	60366	I'm glad you are involved!	I'm glad you are involved!	2872316	1471992923465	1471992923568	I	73
5615	60366	I'm glad you are involved!	I'm glad you are involved!	2872320	1471992923593	1471992923800	'	222
5615	60366	I'm glad you are involved!	I'm glad you are involved!	2872323	1471992923697	1471992923880	m	77
5615	60366	I'm glad you are involved!	I'm glad you are involved!	2872326	1471992923856	1471992923967	 	32
5615	60366	I'm glad you are involved!	I'm glad you are involved!	2872329	1471992924007	1471992924136	g	71
5615	60366	I'm glad you are involved!	I'm glad you are involved!	2872360	1471992924080	1471992924198	l	76
5615	60366	I'm glad you are involved!	I'm glad you are involved!	2872366	1471992924167	1471992924240	a	65
5615	60366	I'm glad you are involved!	I'm glad you are involved!	2872370	1471992924312	1471992924408	d	68
5615	60366	I'm glad you are involved!	I'm glad you are involved!	2872374	1471992924496	1471992924600	 	32
5615	60366	I'm glad you are involved!	I'm glad you are involved!	2872378	1471992924664	1471992924776	y	89
5615	60366	I'm glad you are involved!	I'm glad you are involved!	2872384	1471992924792	1471992924976	o	79
5615	60366	I'm glad you are involved!	I'm glad you are involved!	2872415	1471992924920	1471992925032	u	85
5615	60366	I'm glad you are involved!	I'm glad you are involved!	2872419	1471992925033	1471992925128	 	32
5615	60366	I'm glad you are involved!	I'm glad you are involved!	2872422	1471992925167	1471992925336	a	65
5615	60366	I'm glad you are involved!	I'm glad you are involved!	2872426	1471992925280	1471992925447	r	82
5615	60366	I'm glad you are involved!	I'm glad you are involved!	2872429	1471992925377	1471992925504	e	69
5615	60366	I'm glad you are involved!	I'm glad you are involved!	2872433	1471992925511	1471992925607	 	32
5615	60366	I'm glad you are involved!	I'm glad you are involved!	2872449	1471992925679	1471992925814	i	73
5615	60366	I'm glad you are involved!	I'm glad you are involved!	2872456	1471992925793	1471992925895	n	78
5615	60366	I'm glad you are involved!	I'm glad you are involved!	2872461	1471992925863	1471992925976	v	86
5615	60366	I'm glad you are involved!	I'm glad you are involved!	2872467	1471992925983	1471992926047	o	79
5615	60366	I'm glad you are involved!	I'm glad you are involved!	2872472	1471992926128	1471992926278	l	76
5615	60366	I'm glad you are involved!	I'm glad you are involved!	2872528	1471992926209	1471992926327	v	86
5615	60366	I'm glad you are involved!	I'm glad you are involved!	2872532	1471992926303	1471992926392	e	69
5615	60366	I'm glad you are involved!	I'm glad you are involved!	2872536	1471992926473	1471992926607	d	68
5615	60366	I'm glad you are involved!	I'm glad you are involved!	2872542	1471992926735	1471992926943	SHIFT	16
5615	60366	I'm glad you are involved!	I'm glad you are involved!	2872539	1471992926815	1471992926920	!	49
5615	60375	Treatment options consist of rest, an injection, or surgery.	Treatment options consist of rest, an injection, or surgery.	2872868	1471992934126	1471992934326	SHIFT	16
5615	60375	Treatment options consist of rest, an injection, or surgery.	Treatment options consist of rest, an injection, or surgery.	2872871	1471992934280	1471992934342	T	84
5615	60375	Treatment options consist of rest, an injection, or surgery.	Treatment options consist of rest, an injection, or surgery.	2872875	1471992934456	1471992934583	r	82
5615	60375	Treatment options consist of rest, an injection, or surgery.	Treatment options consist of rest, an injection, or surgery.	2872879	1471992934519	1471992934686	e	69
5615	60375	Treatment options consist of rest, an injection, or surgery.	Treatment options consist of rest, an injection, or surgery.	2872882	1471992934655	1471992934782	a	65
5615	60375	Treatment options consist of rest, an injection, or surgery.	Treatment options consist of rest, an injection, or surgery.	2872942	1471992934726	1471992934862	t	84
5615	60375	Treatment options consist of rest, an injection, or surgery.	Treatment options consist of rest, an injection, or surgery.	2872946	1471992935087	1471992935206	m	77
5615	60375	Treatment options consist of rest, an injection, or surgery.	Treatment options consist of rest, an injection, or surgery.	2872950	1471992935326	1471992935478	e	69
5615	60375	Treatment options consist of rest, an injection, or surgery.	Treatment options consist of rest, an injection, or surgery.	2872955	1471992935447	1471992935542	t	84
5615	60375	Treatment options consist of rest, an injection, or surgery.	Treatment options consist of rest, an injection, or surgery.	2872958	1471992935607	1471992935750	n	78
5615	60375	Treatment options consist of rest, an injection, or surgery.	Treatment options consist of rest, an injection, or surgery.	2872961	1471992935767	1471992935870	 	32
5615	60375	Treatment options consist of rest, an injection, or surgery.	Treatment options consist of rest, an injection, or surgery.	2873041	1471992936150	1471992936206	BKSP	8
5615	60375	Treatment options consist of rest, an injection, or surgery.	Treatment options consist of rest, an injection, or surgery.	2873044	1471992936295	1471992936350	BKSP	8
5615	60375	Treatment options consist of rest, an injection, or surgery.	Treatment options consist of rest, an injection, or surgery.	2873047	1471992936447	1471992936511	BKSP	8
5615	60375	Treatment options consist of rest, an injection, or surgery.	Treatment options consist of rest, an injection, or surgery.	2873052	1471992936640	1471992936775	n	78
5615	60375	Treatment options consist of rest, an injection, or surgery.	Treatment options consist of rest, an injection, or surgery.	2873058	1471992937040	1471992937166	t	84
5615	60375	Treatment options consist of rest, an injection, or surgery.	Treatment options consist of rest, an injection, or surgery.	2873063	1471992937232	1471992937327	 	32
5615	60375	Treatment options consist of rest, an injection, or surgery.	Treatment options consist of rest, an injection, or surgery.	2873068	1471992937431	1471992937607	o	79
5615	60375	Treatment options consist of rest, an injection, or surgery.	Treatment options consist of rest, an injection, or surgery.	2873089	1471992937528	1471992937647	p	80
5615	60375	Treatment options consist of rest, an injection, or surgery.	Treatment options consist of rest, an injection, or surgery.	2873092	1471992937592	1471992937711	t	84
5615	60375	Treatment options consist of rest, an injection, or surgery.	Treatment options consist of rest, an injection, or surgery.	2873095	1471992937735	1471992937879	i	73
5615	60375	Treatment options consist of rest, an injection, or surgery.	Treatment options consist of rest, an injection, or surgery.	2873098	1471992937824	1471992938039	o	79
5615	60375	Treatment options consist of rest, an injection, or surgery.	Treatment options consist of rest, an injection, or surgery.	2873102	1471992937967	1471992938102	n	78
5615	60375	Treatment options consist of rest, an injection, or surgery.	Treatment options consist of rest, an injection, or surgery.	2873106	1471992938064	1471992938199	s	83
5615	60375	Treatment options consist of rest, an injection, or surgery.	Treatment options consist of rest, an injection, or surgery.	2873110	1471992938206	1471992938279	 	32
5615	60375	Treatment options consist of rest, an injection, or surgery.	Treatment options consist of rest, an injection, or surgery.	2873116	1471992938326	1471992938446	c	67
5615	60375	Treatment options consist of rest, an injection, or surgery.	Treatment options consist of rest, an injection, or surgery.	2873118	1471992938408	1471992938550	o	79
5615	60375	Treatment options consist of rest, an injection, or surgery.	Treatment options consist of rest, an injection, or surgery.	2873122	1471992938512	1471992938638	n	78
5615	60375	Treatment options consist of rest, an injection, or surgery.	Treatment options consist of rest, an injection, or surgery.	2873127	1471992938632	1471992938726	s	83
5615	60375	Treatment options consist of rest, an injection, or surgery.	Treatment options consist of rest, an injection, or surgery.	2873147	1471992938719	1471992938830	i	73
5615	60375	Treatment options consist of rest, an injection, or surgery.	Treatment options consist of rest, an injection, or surgery.	2873150	1471992938799	1471992938918	s	83
5615	60375	Treatment options consist of rest, an injection, or surgery.	Treatment options consist of rest, an injection, or surgery.	2873154	1471992938878	1471992938975	t	84
5615	60375	Treatment options consist of rest, an injection, or surgery.	Treatment options consist of rest, an injection, or surgery.	2873156	1471992939023	1471992939134	 	32
5615	60375	Treatment options consist of rest, an injection, or surgery.	Treatment options consist of rest, an injection, or surgery.	2873160	1471992939127	1471992939263	o	79
5615	60375	Treatment options consist of rest, an injection, or surgery.	Treatment options consist of rest, an injection, or surgery.	2873169	1471992939200	1471992939278	f	70
5615	60375	Treatment options consist of rest, an injection, or surgery.	Treatment options consist of rest, an injection, or surgery.	2873171	1471992939312	1471992939414	 	32
5615	60375	Treatment options consist of rest, an injection, or surgery.	Treatment options consist of rest, an injection, or surgery.	2873173	1471992939431	1471992939590	r	82
5615	60375	Treatment options consist of rest, an injection, or surgery.	Treatment options consist of rest, an injection, or surgery.	2873175	1471992939550	1471992939719	e	69
5615	60375	Treatment options consist of rest, an injection, or surgery.	Treatment options consist of rest, an injection, or surgery.	2873177	1471992939654	1471992939822	s	83
5615	60375	Treatment options consist of rest, an injection, or surgery.	Treatment options consist of rest, an injection, or surgery.	2873200	1471992939751	1471992939854	t	84
5615	60375	Treatment options consist of rest, an injection, or surgery.	Treatment options consist of rest, an injection, or surgery.	2873201	1471992939886	1471992940054	,	188
5615	60375	Treatment options consist of rest, an injection, or surgery.	Treatment options consist of rest, an injection, or surgery.	2873202	1471992940030	1471992940143	 	32
5615	60375	Treatment options consist of rest, an injection, or surgery.	Treatment options consist of rest, an injection, or surgery.	2873203	1471992940136	1471992940239	a	65
5615	60375	Treatment options consist of rest, an injection, or surgery.	Treatment options consist of rest, an injection, or surgery.	2873204	1471992940246	1471992940391	n	78
5615	60375	Treatment options consist of rest, an injection, or surgery.	Treatment options consist of rest, an injection, or surgery.	2873205	1471992940392	1471992940502	 	32
5615	60375	Treatment options consist of rest, an injection, or surgery.	Treatment options consist of rest, an injection, or surgery.	2873224	1471992940536	1471992940685	i	73
5615	60375	Treatment options consist of rest, an injection, or surgery.	Treatment options consist of rest, an injection, or surgery.	2873226	1471992940632	1471992940751	n	78
5615	60375	Treatment options consist of rest, an injection, or surgery.	Treatment options consist of rest, an injection, or surgery.	2873231	1471992940918	1471992941015	j	74
5615	60375	Treatment options consist of rest, an injection, or surgery.	Treatment options consist of rest, an injection, or surgery.	2873236	1471992940958	1471992941159	e	69
5615	60375	Treatment options consist of rest, an injection, or surgery.	Treatment options consist of rest, an injection, or surgery.	2873277	1471992941104	1471992941197	c	67
5615	60375	Treatment options consist of rest, an injection, or surgery.	Treatment options consist of rest, an injection, or surgery.	2873278	1471992941319	1471992941406	t	84
5615	60375	Treatment options consist of rest, an injection, or surgery.	Treatment options consist of rest, an injection, or surgery.	2873280	1471992941415	1471992941590	i	73
5615	60375	Treatment options consist of rest, an injection, or surgery.	Treatment options consist of rest, an injection, or surgery.	2873282	1471992941520	1471992941718	o	79
5615	60375	Treatment options consist of rest, an injection, or surgery.	Treatment options consist of rest, an injection, or surgery.	2873285	1471992941688	1471992941775	n	78
5615	60375	Treatment options consist of rest, an injection, or surgery.	Treatment options consist of rest, an injection, or surgery.	2873288	1471992941872	1471992942037	,	188
5615	60375	Treatment options consist of rest, an injection, or surgery.	Treatment options consist of rest, an injection, or surgery.	2873297	1471992942014	1471992942118	 	32
5615	60375	Treatment options consist of rest, an injection, or surgery.	Treatment options consist of rest, an injection, or surgery.	2873301	1471992942168	1471992942334	o	79
5615	60375	Treatment options consist of rest, an injection, or surgery.	Treatment options consist of rest, an injection, or surgery.	2873299	1471992942198	1471992942319	r	82
5615	60375	Treatment options consist of rest, an injection, or surgery.	Treatment options consist of rest, an injection, or surgery.	2873303	1471992942320	1471992942430	 	32
5615	60375	Treatment options consist of rest, an injection, or surgery.	Treatment options consist of rest, an injection, or surgery.	2873307	1471992942455	1471992942583	s	83
5615	60375	Treatment options consist of rest, an injection, or surgery.	Treatment options consist of rest, an injection, or surgery.	2873309	1471992942584	1471992942685	u	85
5615	60375	Treatment options consist of rest, an injection, or surgery.	Treatment options consist of rest, an injection, or surgery.	2873332	1471992942656	1471992942774	r	82
5615	60375	Treatment options consist of rest, an injection, or surgery.	Treatment options consist of rest, an injection, or surgery.	2873334	1471992942903	1471992943015	g	71
5615	60375	Treatment options consist of rest, an injection, or surgery.	Treatment options consist of rest, an injection, or surgery.	2873336	1471992943120	1471992943247	u	85
5615	60375	Treatment options consist of rest, an injection, or surgery.	Treatment options consist of rest, an injection, or surgery.	2873338	1471992943527	1471992943606	BKSP	8
5615	60375	Treatment options consist of rest, an injection, or surgery.	Treatment options consist of rest, an injection, or surgery.	2873343	1471992943583	1471992943709	e	69
5615	60375	Treatment options consist of rest, an injection, or surgery.	Treatment options consist of rest, an injection, or surgery.	2873346	1471992943648	1471992943758	r	82
5615	60375	Treatment options consist of rest, an injection, or surgery.	Treatment options consist of rest, an injection, or surgery.	2873382	1471992943736	1471992943807	y	89
5615	60375	Treatment options consist of rest, an injection, or surgery.	Treatment options consist of rest, an injection, or surgery.	2873386	1471992943991	1471992944095	.	190
5615	60393	You can't destroy us, and you can't stop us.	You can't destroy us, and you can't stop us.	2873570	1471992948782	1471992948959	SHIFT	16
5615	60393	You can't destroy us, and you can't stop us.	You can't destroy us, and you can't stop us.	2873574	1471992948902	1471992948998	Y	89
5615	60393	You can't destroy us, and you can't stop us.	You can't destroy us, and you can't stop us.	2873578	1471992949006	1471992949224	o	79
5615	60393	You can't destroy us, and you can't stop us.	You can't destroy us, and you can't stop us.	2873581	1471992949134	1471992949285	u	85
5615	60393	You can't destroy us, and you can't stop us.	You can't destroy us, and you can't stop us.	2873583	1471992949247	1471992949342	 	32
5615	60393	You can't destroy us, and you can't stop us.	You can't destroy us, and you can't stop us.	2873599	1471992949335	1471992949471	c	67
5615	60393	You can't destroy us, and you can't stop us.	You can't destroy us, and you can't stop us.	2873601	1471992949423	1471992949525	a	65
5615	60393	You can't destroy us, and you can't stop us.	You can't destroy us, and you can't stop us.	2873603	1471992949519	1471992949655	n	78
5615	60393	You can't destroy us, and you can't stop us.	You can't destroy us, and you can't stop us.	2873604	1471992949607	1471992949758	'	222
5615	60393	You can't destroy us, and you can't stop us.	You can't destroy us, and you can't stop us.	2873605	1471992949687	1471992949798	t	84
5615	60393	You can't destroy us, and you can't stop us.	You can't destroy us, and you can't stop us.	2873607	1471992949831	1471992949926	 	32
5615	60393	You can't destroy us, and you can't stop us.	You can't destroy us, and you can't stop us.	2873622	1471992949991	1471992950063	d	68
5615	60393	You can't destroy us, and you can't stop us.	You can't destroy us, and you can't stop us.	2873623	1471992950183	1471992950270	e	69
5615	60393	You can't destroy us, and you can't stop us.	You can't destroy us, and you can't stop us.	2873626	1471992950367	1471992950478	s	83
5615	60393	You can't destroy us, and you can't stop us.	You can't destroy us, and you can't stop us.	2873631	1471992950495	1471992950557	t	84
5615	60393	You can't destroy us, and you can't stop us.	You can't destroy us, and you can't stop us.	2873634	1471992950656	1471992950759	r	82
5615	60393	You can't destroy us, and you can't stop us.	You can't destroy us, and you can't stop us.	2873756	1471992950992	1471992951046	y	89
5615	60393	You can't destroy us, and you can't stop us.	You can't destroy us, and you can't stop us.	2873761	1471992951496	1471992951557	BKSP	8
5615	60393	You can't destroy us, and you can't stop us.	You can't destroy us, and you can't stop us.	2873766	1471992951695	1471992951886	o	79
5615	60393	You can't destroy us, and you can't stop us.	You can't destroy us, and you can't stop us.	2873770	1471992951846	1471992951950	y	89
5615	60393	You can't destroy us, and you can't stop us.	You can't destroy us, and you can't stop us.	2873774	1471992951966	1471992952054	 	32
5615	60393	You can't destroy us, and you can't stop us.	You can't destroy us, and you can't stop us.	2873776	1471992952750	1471992952822	u	85
5615	60393	You can't destroy us, and you can't stop us.	You can't destroy us, and you can't stop us.	2873806	1471992952846	1471992952958	s	83
5615	60393	You can't destroy us, and you can't stop us.	You can't destroy us, and you can't stop us.	2873808	1471992952983	1471992953157	,	188
5615	60393	You can't destroy us, and you can't stop us.	You can't destroy us, and you can't stop us.	2873810	1471992953127	1471992953245	 	32
5615	60393	You can't destroy us, and you can't stop us.	You can't destroy us, and you can't stop us.	2873813	1471992953239	1471992953309	a	65
5615	60393	You can't destroy us, and you can't stop us.	You can't destroy us, and you can't stop us.	2873816	1471992953335	1471992953478	n	78
5615	60393	You can't destroy us, and you can't stop us.	You can't destroy us, and you can't stop us.	2873843	1471992953398	1471992953510	d	68
5615	60393	You can't destroy us, and you can't stop us.	You can't destroy us, and you can't stop us.	2873846	1471992953534	1471992953622	 	32
5615	60393	You can't destroy us, and you can't stop us.	You can't destroy us, and you can't stop us.	2873850	1471992953719	1471992953838	y	89
5615	60393	You can't destroy us, and you can't stop us.	You can't destroy us, and you can't stop us.	2873854	1471992953846	1471992954053	o	79
5615	60393	You can't destroy us, and you can't stop us.	You can't destroy us, and you can't stop us.	2873859	1471992953975	1471992954101	u	85
5615	60393	You can't destroy us, and you can't stop us.	You can't destroy us, and you can't stop us.	2873874	1471992954070	1471992954149	 	32
5615	60393	You can't destroy us, and you can't stop us.	You can't destroy us, and you can't stop us.	2873878	1471992954143	1471992954277	c	67
5615	60393	You can't destroy us, and you can't stop us.	You can't destroy us, and you can't stop us.	2873882	1471992954263	1471992954366	a	65
5615	60393	You can't destroy us, and you can't stop us.	You can't destroy us, and you can't stop us.	2873884	1471992954383	1471992954509	n	78
5615	60393	You can't destroy us, and you can't stop us.	You can't destroy us, and you can't stop us.	2873887	1471992954517	1471992954637	'	222
5615	60393	You can't destroy us, and you can't stop us.	You can't destroy us, and you can't stop us.	2873897	1471992954631	1471992954758	t	84
5615	60393	You can't destroy us, and you can't stop us.	You can't destroy us, and you can't stop us.	2873899	1471992954766	1471992954877	 	32
5615	60393	You can't destroy us, and you can't stop us.	You can't destroy us, and you can't stop us.	2873903	1471992954863	1471992955013	s	83
5615	60393	You can't destroy us, and you can't stop us.	You can't destroy us, and you can't stop us.	2873907	1471992954957	1471992955077	t	84
5615	60393	You can't destroy us, and you can't stop us.	You can't destroy us, and you can't stop us.	2873914	1471992955063	1471992955221	o	79
5615	60393	You can't destroy us, and you can't stop us.	You can't destroy us, and you can't stop us.	2873941	1471992955167	1471992955301	p	80
5615	60393	You can't destroy us, and you can't stop us.	You can't destroy us, and you can't stop us.	2873945	1471992955270	1471992955373	 	32
5615	60393	You can't destroy us, and you can't stop us.	You can't destroy us, and you can't stop us.	2873948	1471992955431	1471992955517	u	85
5615	60393	You can't destroy us, and you can't stop us.	You can't destroy us, and you can't stop us.	2873954	1471992955502	1471992955605	s	83
5615	60393	You can't destroy us, and you can't stop us.	You can't destroy us, and you can't stop us.	2873959	1471992955663	1471992955782	.	190
5615	60405	New switches can also be added to the Paging System.	New switches can also be added to the Paging System.	2874147	1471992959710	1471992959876	SHIFT	16
5615	60405	New switches can also be added to the Paging System.	New switches can also be added to the Paging System.	2874150	1471992959831	1471992959958	N	78
5615	60405	New switches can also be added to the Paging System.	New switches can also be added to the Paging System.	2874153	1471992959933	1471992960110	e	69
5615	60405	New switches can also be added to the Paging System.	New switches can also be added to the Paging System.	2874155	1471992960039	1471992960141	w	87
5615	60405	New switches can also be added to the Paging System.	New switches can also be added to the Paging System.	2874158	1471992960181	1471992960325	 	32
5615	60405	New switches can also be added to the Paging System.	New switches can also be added to the Paging System.	2874181	1471992960319	1471992960390	s	83
5615	60405	New switches can also be added to the Paging System.	New switches can also be added to the Paging System.	2874183	1471992960487	1471992960565	w	87
5615	60405	New switches can also be added to the Paging System.	New switches can also be added to the Paging System.	2874185	1471992960598	1471992960740	i	73
5615	60405	New switches can also be added to the Paging System.	New switches can also be added to the Paging System.	2874188	1471992960686	1471992960781	t	84
5615	60405	New switches can also be added to the Paging System.	New switches can also be added to the Paging System.	2874191	1471992960911	1471992960990	c	67
5615	60405	New switches can also be added to the Paging System.	New switches can also be added to the Paging System.	2874194	1471992961039	1471992961149	h	72
5615	60405	New switches can also be added to the Paging System.	New switches can also be added to the Paging System.	2874219	1471992961102	1471992961190	e	69
5615	60405	New switches can also be added to the Paging System.	New switches can also be added to the Paging System.	2874221	1471992961295	1471992961397	s	83
5615	60405	New switches can also be added to the Paging System.	New switches can also be added to the Paging System.	2874223	1471992961525	1471992961653	 	32
5615	60405	New switches can also be added to the Paging System.	New switches can also be added to the Paging System.	2874226	1471992961767	1471992961876	c	67
5615	60405	New switches can also be added to the Paging System.	New switches can also be added to the Paging System.	2874230	1471992961863	1471992961957	a	65
5615	60405	New switches can also be added to the Paging System.	New switches can also be added to the Paging System.	2874264	1471992961951	1471992962102	n	78
5615	60405	New switches can also be added to the Paging System.	New switches can also be added to the Paging System.	2874266	1471992962094	1471992962180	 	32
5615	60405	New switches can also be added to the Paging System.	New switches can also be added to the Paging System.	2874270	1471992962149	1471992962270	a	65
5615	60405	New switches can also be added to the Paging System.	New switches can also be added to the Paging System.	2874273	1471992962326	1471992962428	l	76
5615	60405	New switches can also be added to the Paging System.	New switches can also be added to the Paging System.	2874276	1471992962406	1471992962518	s	83
5615	60405	New switches can also be added to the Paging System.	New switches can also be added to the Paging System.	2874278	1471992962534	1471992962670	o	79
5615	60405	New switches can also be added to the Paging System.	New switches can also be added to the Paging System.	2874282	1471992962677	1471992962797	 	32
5615	60405	New switches can also be added to the Paging System.	New switches can also be added to the Paging System.	2874284	1471992962790	1471992962918	b	66
5615	60405	New switches can also be added to the Paging System.	New switches can also be added to the Paging System.	2874287	1471992962927	1471992963022	e	69
5615	60405	New switches can also be added to the Paging System.	New switches can also be added to the Paging System.	2874289	1471992963045	1471992963148	 	32
5615	60405	New switches can also be added to the Paging System.	New switches can also be added to the Paging System.	2874327	1471992963135	1471992963213	a	65
5615	60405	New switches can also be added to the Paging System.	New switches can also be added to the Paging System.	2874329	1471992963254	1471992963340	d	68
5615	60405	New switches can also be added to the Paging System.	New switches can also be added to the Paging System.	2874332	1471992963438	1471992963484	d	68
5615	60405	New switches can also be added to the Paging System.	New switches can also be added to the Paging System.	2874337	1471992963590	1471992963645	e	69
5615	60405	New switches can also be added to the Paging System.	New switches can also be added to the Paging System.	2874343	1471992963734	1471992963813	d	68
5615	60405	New switches can also be added to the Paging System.	New switches can also be added to the Paging System.	2874351	1471992963855	1471992963942	 	32
5615	60405	New switches can also be added to the Paging System.	New switches can also be added to the Paging System.	2874372	1471992963949	1471992964045	t	84
5615	60405	New switches can also be added to the Paging System.	New switches can also be added to the Paging System.	2874378	1471992964085	1471992964245	o	79
5615	60405	New switches can also be added to the Paging System.	New switches can also be added to the Paging System.	2874386	1471992964175	1471992964284	 	32
5615	60405	New switches can also be added to the Paging System.	New switches can also be added to the Paging System.	2874391	1471992964277	1471992964381	t	84
5615	60405	New switches can also be added to the Paging System.	New switches can also be added to the Paging System.	2874397	1471992964421	1471992964541	h	72
5615	60405	New switches can also be added to the Paging System.	New switches can also be added to the Paging System.	2874439	1471992964469	1471992964548	e	69
5615	60405	New switches can also be added to the Paging System.	New switches can also be added to the Paging System.	2874443	1471992964597	1471992964678	 	32
5615	60405	New switches can also be added to the Paging System.	New switches can also be added to the Paging System.	2874447	1471992964820	1471992964940	SHIFT	16
5615	60405	New switches can also be added to the Paging System.	New switches can also be added to the Paging System.	2874451	1471992964885	1471992964997	P	80
5615	60405	New switches can also be added to the Paging System.	New switches can also be added to the Paging System.	2874455	1471992965086	1471992965180	a	65
5615	60405	New switches can also be added to the Paging System.	New switches can also be added to the Paging System.	2874461	1471992965157	1471992965284	g	71
5615	60405	New switches can also be added to the Paging System.	New switches can also be added to the Paging System.	2874465	1471992965478	1471992965652	i	73
5615	60405	New switches can also be added to the Paging System.	New switches can also be added to the Paging System.	2874483	1471992965607	1471992965728	n	78
5615	60405	New switches can also be added to the Paging System.	New switches can also be added to the Paging System.	2874486	1471992965726	1471992965822	g	71
5615	60405	New switches can also be added to the Paging System.	New switches can also be added to the Paging System.	2874491	1471992965829	1471992965957	 	32
5615	60405	New switches can also be added to the Paging System.	New switches can also be added to the Paging System.	2874496	1471992965941	1471992966077	SHIFT	16
5615	60405	New switches can also be added to the Paging System.	New switches can also be added to the Paging System.	2874499	1471992966030	1471992966116	S	83
5615	60405	New switches can also be added to the Paging System.	New switches can also be added to the Paging System.	2874502	1471992966207	1471992966284	y	89
5615	60405	New switches can also be added to the Paging System.	New switches can also be added to the Paging System.	2874522	1471992966254	1471992966380	s	83
5615	60405	New switches can also be added to the Paging System.	New switches can also be added to the Paging System.	2874524	1471992966334	1471992966453	t	84
5615	60405	New switches can also be added to the Paging System.	New switches can also be added to the Paging System.	2874526	1471992966469	1471992966564	e	69
5615	60405	New switches can also be added to the Paging System.	New switches can also be added to the Paging System.	2874527	1471992966590	1471992966645	m	77
5615	60405	New switches can also be added to the Paging System.	New switches can also be added to the Paging System.	2874528	1471992966741	1471992966845	.	190
5615	60418	He said he saw no damage to the airport.	He said he saw no damage to the airport.	2874780	1471992972476	1471992972684	SHIFT	16
5615	60418	He said he saw no damage to the airport.	He said he saw no damage to the airport.	2874784	1471992972645	1471992972757	H	72
5615	60418	He said he saw no damage to the airport.	He said he saw no damage to the airport.	2874787	1471992972734	1471992972829	e	69
5615	60418	He said he saw no damage to the airport.	He said he saw no damage to the airport.	2874791	1471992972870	1471992972964	 	32
5615	60418	He said he saw no damage to the airport.	He said he saw no damage to the airport.	2874795	1471992972942	1471992973092	s	83
5615	60418	He said he saw no damage to the airport.	He said he saw no damage to the airport.	2874822	1471992973078	1471992973165	a	65
5615	60418	He said he saw no damage to the airport.	He said he saw no damage to the airport.	2874825	1471992973173	1471992973276	i	73
5615	60418	He said he saw no damage to the airport.	He said he saw no damage to the airport.	2874829	1471992973254	1471992973349	d	68
5615	60418	He said he saw no damage to the airport.	He said he saw no damage to the airport.	2874834	1471992973398	1471992973485	 	32
5615	60418	He said he saw no damage to the airport.	He said he saw no damage to the airport.	2874838	1471992973653	1471992973757	h	72
5615	60418	He said he saw no damage to the airport.	He said he saw no damage to the airport.	2874856	1471992973717	1471992973812	e	69
5615	60418	He said he saw no damage to the airport.	He said he saw no damage to the airport.	2874858	1471992973846	1471992973964	 	32
5615	60418	He said he saw no damage to the airport.	He said he saw no damage to the airport.	2874863	1471992973950	1471992974061	s	83
5615	60418	He said he saw no damage to the airport.	He said he saw no damage to the airport.	2874867	1471992974102	1471992974292	a	65
5615	60418	He said he saw no damage to the airport.	He said he saw no damage to the airport.	2874870	1471992974214	1471992974308	w	87
5615	60418	He said he saw no damage to the airport.	He said he saw no damage to the airport.	2874874	1471992974349	1471992974460	 	32
5615	60418	He said he saw no damage to the airport.	He said he saw no damage to the airport.	2874884	1471992974486	1471992974612	n	78
5615	60418	He said he saw no damage to the airport.	He said he saw no damage to the airport.	2874889	1471992974590	1471992974740	o	79
5615	60418	He said he saw no damage to the airport.	He said he saw no damage to the airport.	2874894	1471992974717	1471992974828	 	32
5615	60418	He said he saw no damage to the airport.	He said he saw no damage to the airport.	2874897	1471992974837	1471992974972	d	68
5615	60418	He said he saw no damage to the airport.	He said he saw no damage to the airport.	2874918	1471992974950	1471992975052	a	65
5615	60418	He said he saw no damage to the airport.	He said he saw no damage to the airport.	2874921	1471992975047	1471992975172	m	77
5615	60418	He said he saw no damage to the airport.	He said he saw no damage to the airport.	2874925	1471992975156	1471992975261	a	65
5615	60418	He said he saw no damage to the airport.	He said he saw no damage to the airport.	2874930	1471992975285	1471992975420	g	71
5615	60418	He said he saw no damage to the airport.	He said he saw no damage to the airport.	2874933	1471992975405	1471992975509	e	69
5615	60418	He said he saw no damage to the airport.	He said he saw no damage to the airport.	2874937	1471992975534	1471992975613	 	32
5615	60418	He said he saw no damage to the airport.	He said he saw no damage to the airport.	2874949	1471992975628	1471992975692	t	84
5615	60418	He said he saw no damage to the airport.	He said he saw no damage to the airport.	2874952	1471992975725	1471992975876	o	79
5615	60418	He said he saw no damage to the airport.	He said he saw no damage to the airport.	2874955	1471992975815	1471992975908	 	32
5615	60418	He said he saw no damage to the airport.	He said he saw no damage to the airport.	2874960	1471992975917	1471992975980	t	84
5615	60418	He said he saw no damage to the airport.	He said he saw no damage to the airport.	2874964	1471992976012	1471992976132	h	72
5615	60418	He said he saw no damage to the airport.	He said he saw no damage to the airport.	2874992	1471992976062	1471992976148	e	69
5615	60418	He said he saw no damage to the airport.	He said he saw no damage to the airport.	2874993	1471992976156	1471992976244	 	32
5615	60418	He said he saw no damage to the airport.	He said he saw no damage to the airport.	2874994	1471992976236	1471992976340	a	65
5615	60418	He said he saw no damage to the airport.	He said he saw no damage to the airport.	2874995	1471992976326	1471992976428	i	73
5615	60418	He said he saw no damage to the airport.	He said he saw no damage to the airport.	2874996	1471992976526	1471992976653	p	80
5615	60418	He said he saw no damage to the airport.	He said he saw no damage to the airport.	2874997	1471992976718	1471992976853	r	82
5615	60418	He said he saw no damage to the airport.	He said he saw no damage to the airport.	2875056	1471992977062	1471992977107	BKSP	8
5615	60418	He said he saw no damage to the airport.	He said he saw no damage to the airport.	2875060	1471992977198	1471992977259	BKSP	8
5615	60418	He said he saw no damage to the airport.	He said he saw no damage to the airport.	2875064	1471992977244	1471992977373	r	82
5615	60418	He said he saw no damage to the airport.	He said he saw no damage to the airport.	2875070	1471992977388	1471992977596	p	80
5615	60418	He said he saw no damage to the airport.	He said he saw no damage to the airport.	2875079	1471992977534	1471992977667	o	79
5615	60418	He said he saw no damage to the airport.	He said he saw no damage to the airport.	2875074	1471992977588	1471992977661	r	82
5615	60418	He said he saw no damage to the airport.	He said he saw no damage to the airport.	2875081	1471992977741	1471992977821	t	84
5615	60418	He said he saw no damage to the airport.	He said he saw no damage to the airport.	2875077	1471992977845	1471992977933	.	190
5615	60424	What happened to the guy with the paper to sign?	What happened to the guy with the paper to sign?	2875261	1471992983260	1471992983427	SHIFT	16
5615	60424	What happened to the guy with the paper to sign?	What happened to the guy with the paper to sign?	2875265	1471992983372	1471992983467	W	87
5615	60424	What happened to the guy with the paper to sign?	What happened to the guy with the paper to sign?	2875270	1471992983436	1471992983548	h	72
5615	60424	What happened to the guy with the paper to sign?	What happened to the guy with the paper to sign?	2875273	1471992983564	1471992983693	a	65
5615	60424	What happened to the guy with the paper to sign?	What happened to the guy with the paper to sign?	2875278	1471992983622	1471992983724	t	84
5615	60424	What happened to the guy with the paper to sign?	What happened to the guy with the paper to sign?	2875296	1471992983700	1471992983797	 	32
5615	60424	What happened to the guy with the paper to sign?	What happened to the guy with the paper to sign?	2875300	1471992983870	1471992983971	h	72
5615	60424	What happened to the guy with the paper to sign?	What happened to the guy with the paper to sign?	2875304	1471992983940	1471992984059	a	65
5615	60424	What happened to the guy with the paper to sign?	What happened to the guy with the paper to sign?	2875306	1471992984020	1471992984075	p	80
5615	60424	What happened to the guy with the paper to sign?	What happened to the guy with the paper to sign?	2875307	1471992984157	1471992984268	p	80
5615	60424	What happened to the guy with the paper to sign?	What happened to the guy with the paper to sign?	2875308	1471992984277	1471992984372	e	69
5615	60424	What happened to the guy with the paper to sign?	What happened to the guy with the paper to sign?	2875319	1471992984398	1471992984508	n	78
5615	60424	What happened to the guy with the paper to sign?	What happened to the guy with the paper to sign?	2875321	1471992984453	1471992984524	e	69
5615	60424	What happened to the guy with the paper to sign?	What happened to the guy with the paper to sign?	2875323	1471992984606	1471992984699	d	68
5615	60424	What happened to the guy with the paper to sign?	What happened to the guy with the paper to sign?	2875325	1471992984668	1471992984779	 	32
5615	60424	What happened to the guy with the paper to sign?	What happened to the guy with the paper to sign?	2875327	1471992984908	1471992984963	w	87
5615	60424	What happened to the guy with the paper to sign?	What happened to the guy with the paper to sign?	2875342	1471992985220	1471992985259	BKSP	8
5615	60424	What happened to the guy with the paper to sign?	What happened to the guy with the paper to sign?	2875346	1471992985309	1471992985419	t	84
5615	60424	What happened to the guy with the paper to sign?	What happened to the guy with the paper to sign?	2875350	1471992985412	1471992985558	o	79
5615	60424	What happened to the guy with the paper to sign?	What happened to the guy with the paper to sign?	2875357	1471992985549	1471992985619	 	32
5615	60424	What happened to the guy with the paper to sign?	What happened to the guy with the paper to sign?	2875360	1471992985604	1471992985699	t	84
5615	60424	What happened to the guy with the paper to sign?	What happened to the guy with the paper to sign?	2875377	1471992985683	1471992985835	h	72
5615	60424	What happened to the guy with the paper to sign?	What happened to the guy with the paper to sign?	2875380	1471992985797	1471992985851	e	69
5615	60424	What happened to the guy with the paper to sign?	What happened to the guy with the paper to sign?	2875383	1471992985860	1471992985940	 	32
5615	60424	What happened to the guy with the paper to sign?	What happened to the guy with the paper to sign?	2875388	1471992985988	1471992986059	g	71
5615	60424	What happened to the guy with the paper to sign?	What happened to the guy with the paper to sign?	2875389	1471992986068	1471992986155	u	85
5615	60424	What happened to the guy with the paper to sign?	What happened to the guy with the paper to sign?	2875392	1471992986268	1471992986356	y	89
5615	60424	What happened to the guy with the paper to sign?	What happened to the guy with the paper to sign?	2875395	1471992986389	1471992986467	 	32
5615	60424	What happened to the guy with the paper to sign?	What happened to the guy with the paper to sign?	2875396	1471992986493	1471992986564	w	87
5615	60424	What happened to the guy with the paper to sign?	What happened to the guy with the paper to sign?	2875397	1471992986556	1471992986748	i	73
5615	60424	What happened to the guy with the paper to sign?	What happened to the guy with the paper to sign?	2875418	1471992986669	1471992986763	t	84
5615	60424	What happened to the guy with the paper to sign?	What happened to the guy with the paper to sign?	2875419	1471992986733	1471992986891	h	72
5615	60424	What happened to the guy with the paper to sign?	What happened to the guy with the paper to sign?	2875420	1471992986868	1471992986957	 	32
5615	60424	What happened to the guy with the paper to sign?	What happened to the guy with the paper to sign?	2875421	1471992986956	1471992987052	t	84
5615	60424	What happened to the guy with the paper to sign?	What happened to the guy with the paper to sign?	2875423	1471992987028	1471992987173	h	72
5615	60424	What happened to the guy with the paper to sign?	What happened to the guy with the paper to sign?	2875422	1471992987109	1471992987173	e	69
5615	60424	What happened to the guy with the paper to sign?	What happened to the guy with the paper to sign?	2875425	1471992987188	1471992987283	 	32
5615	60424	What happened to the guy with the paper to sign?	What happened to the guy with the paper to sign?	2875456	1471992987318	1471992987403	p	80
5615	60424	What happened to the guy with the paper to sign?	What happened to the guy with the paper to sign?	2875457	1471992987412	1471992987556	a	65
5615	60424	What happened to the guy with the paper to sign?	What happened to the guy with the paper to sign?	2875459	1471992987613	1471992987708	p	80
5615	60424	What happened to the guy with the paper to sign?	What happened to the guy with the paper to sign?	2875461	1471992987733	1471992987893	e	69
5615	60424	What happened to the guy with the paper to sign?	What happened to the guy with the paper to sign?	2875466	1471992987820	1471992987955	r	82
5615	60424	What happened to the guy with the paper to sign?	What happened to the guy with the paper to sign?	2875468	1471992987972	1471992988051	 	32
5615	60424	What happened to the guy with the paper to sign?	What happened to the guy with the paper to sign?	2875471	1471992988037	1471992988140	t	84
5615	60424	What happened to the guy with the paper to sign?	What happened to the guy with the paper to sign?	2875474	1471992988148	1471992988299	o	79
5615	60424	What happened to the guy with the paper to sign?	What happened to the guy with the paper to sign?	2875478	1471992988260	1471992988371	 	32
5615	60424	What happened to the guy with the paper to sign?	What happened to the guy with the paper to sign?	2875541	1471992988324	1471992988435	s	83
5615	60424	What happened to the guy with the paper to sign?	What happened to the guy with the paper to sign?	2875545	1471992988428	1471992988523	i	73
5615	60424	What happened to the guy with the paper to sign?	What happened to the guy with the paper to sign?	2875548	1471992988502	1471992988579	g	71
5615	60424	What happened to the guy with the paper to sign?	What happened to the guy with the paper to sign?	2875552	1471992988604	1471992988740	n	78
5615	60424	What happened to the guy with the paper to sign?	What happened to the guy with the paper to sign?	2875556	1471992988787	1471992989220	SHIFT	16
5615	60424	What happened to the guy with the paper to sign?	What happened to the guy with the paper to sign?	2875559	1471992989110	1471992989235	?	191
5615	60437	Can you call me at home?	Can you call me at home?	2875708	1471992992227	1471992992355	SHIFT	16
5615	60437	Can you call me at home?	Can you call me at home?	2875711	1471992992308	1471992992420	C	67
5615	60437	Can you call me at home?	Can you call me at home?	2875717	1471992992485	1471992992579	a	65
5615	60437	Can you call me at home?	Can you call me at home?	2875721	1471992992557	1471992992683	n	78
5615	60437	Can you call me at home?	Can you call me at home?	2875724	1471992992676	1471992992747	 	32
5615	60437	Can you call me at home?	Can you call me at home?	2875727	1471992992829	1471992992940	y	89
5615	60437	Can you call me at home?	Can you call me at home?	2875733	1471992992947	1471992993131	o	79
5615	60437	Can you call me at home?	Can you call me at home?	2875735	1471992993061	1471992993187	u	85
5615	60437	Can you call me at home?	Can you call me at home?	2875737	1471992993139	1471992993244	 	32
5615	60437	Can you call me at home?	Can you call me at home?	2875739	1471992993228	1471992993362	c	67
5615	60437	Can you call me at home?	Can you call me at home?	2875751	1471992993291	1471992993404	a	65
5615	60437	Can you call me at home?	Can you call me at home?	2875753	1471992993349	1471992993427	l	76
5615	60437	Can you call me at home?	Can you call me at home?	2875758	1471992993501	1471992993626	l	76
5615	60437	Can you call me at home?	Can you call me at home?	2875762	1471992993604	1471992993691	 	32
5615	60437	Can you call me at home?	Can you call me at home?	2875766	1471992993700	1471992993852	m	77
5615	60437	Can you call me at home?	Can you call me at home?	2875771	1471992993787	1471992993859	e	69
5615	60437	Can you call me at home?	Can you call me at home?	2875777	1471992993885	1471992994013	 	32
5615	60437	Can you call me at home?	Can you call me at home?	2875785	1471992994011	1471992994147	a	65
5615	60437	Can you call me at home?	Can you call me at home?	2875787	1471992994092	1471992994188	t	84
5615	60437	Can you call me at home?	Can you call me at home?	2875790	1471992994221	1471992994300	 	32
5615	60437	Can you call me at home?	Can you call me at home?	2875793	1471992994388	1471992994492	h	72
5615	60437	Can you call me at home?	Can you call me at home?	2875797	1471992994540	1471992994683	o	79
5615	60437	Can you call me at home?	Can you call me at home?	2875808	1471992994651	1471992994755	m	77
5615	60437	Can you call me at home?	Can you call me at home?	2875810	1471992994749	1471992994827	e	69
5615	60437	Can you call me at home?	Can you call me at home?	2875811	1471992994842	1471992995051	SHIFT	16
5615	60437	Can you call me at home?	Can you call me at home?	2875813	1471992994948	1471992995076	?	191
5615	60444	Juntao is in Washington this week  meeting with lawmakers.	Juntao is in washington this week meeting with lawmakers.	2876229	1471993004051	1471993004085	u	85
5615	60444	Juntao is in Washington this week  meeting with lawmakers.	Juntao is in washington this week meeting with lawmakers.	2876231	1471993004667	1471993004730	BKSP	8
5615	60444	Juntao is in Washington this week  meeting with lawmakers.	Juntao is in washington this week meeting with lawmakers.	2876234	1471993004876	1471993005027	SHIFT	16
5615	60444	Juntao is in Washington this week  meeting with lawmakers.	Juntao is in washington this week meeting with lawmakers.	2876232	1471993004916	1471993004988	J	74
5615	60444	Juntao is in Washington this week  meeting with lawmakers.	Juntao is in washington this week meeting with lawmakers.	2876237	1471993005100	1471993005155	u	85
5615	60444	Juntao is in Washington this week  meeting with lawmakers.	Juntao is in washington this week meeting with lawmakers.	2876240	1471993005283	1471993005347	n	78
5615	60444	Juntao is in Washington this week  meeting with lawmakers.	Juntao is in washington this week meeting with lawmakers.	2876242	1471993005355	1471993005482	t	84
5615	60444	Juntao is in Washington this week  meeting with lawmakers.	Juntao is in washington this week meeting with lawmakers.	2876254	1471993005475	1471993005587	a	65
5615	60444	Juntao is in Washington this week  meeting with lawmakers.	Juntao is in washington this week meeting with lawmakers.	2876256	1471993005708	1471993005874	o	79
5615	60444	Juntao is in Washington this week  meeting with lawmakers.	Juntao is in washington this week meeting with lawmakers.	2876257	1471993005868	1471993005970	 	32
5615	60444	Juntao is in Washington this week  meeting with lawmakers.	Juntao is in washington this week meeting with lawmakers.	2876259	1471993006021	1471993006138	i	73
5615	60444	Juntao is in Washington this week  meeting with lawmakers.	Juntao is in washington this week meeting with lawmakers.	2876262	1471993006116	1471993006213	s	83
5615	60444	Juntao is in Washington this week  meeting with lawmakers.	Juntao is in washington this week meeting with lawmakers.	2876302	1471993006196	1471993006299	 	32
5615	60444	Juntao is in Washington this week  meeting with lawmakers.	Juntao is in washington this week meeting with lawmakers.	2876305	1471993006339	1471993006522	i	73
5615	60444	Juntao is in Washington this week  meeting with lawmakers.	Juntao is in washington this week meeting with lawmakers.	2876312	1471993006498	1471993006677	n	78
5615	60444	Juntao is in Washington this week  meeting with lawmakers.	Juntao is in washington this week meeting with lawmakers.	2876316	1471993006678	1471993006802	 	32
5615	60444	Juntao is in Washington this week  meeting with lawmakers.	Juntao is in washington this week meeting with lawmakers.	2876321	1471993006931	1471993007042	w	87
5615	60444	Juntao is in Washington this week  meeting with lawmakers.	Juntao is in washington this week meeting with lawmakers.	2876344	1471993007027	1471993007130	a	65
5615	60444	Juntao is in Washington this week  meeting with lawmakers.	Juntao is in washington this week meeting with lawmakers.	2876345	1471993007219	1471993007319	s	83
5615	60444	Juntao is in Washington this week  meeting with lawmakers.	Juntao is in washington this week meeting with lawmakers.	2876346	1471993007307	1471993007418	h	72
5615	60444	Juntao is in Washington this week  meeting with lawmakers.	Juntao is in washington this week meeting with lawmakers.	2876347	1471993007443	1471993007602	i	73
5615	60444	Juntao is in Washington this week  meeting with lawmakers.	Juntao is in washington this week meeting with lawmakers.	2876363	1471993007547	1471993007683	n	78
5615	60444	Juntao is in Washington this week  meeting with lawmakers.	Juntao is in washington this week meeting with lawmakers.	2876348	1471993007619	1471993007682	g	71
5615	60444	Juntao is in Washington this week  meeting with lawmakers.	Juntao is in washington this week meeting with lawmakers.	2876364	1471993007826	1471993007916	t	84
5615	60444	Juntao is in Washington this week  meeting with lawmakers.	Juntao is in washington this week meeting with lawmakers.	2876365	1471993007915	1471993008042	o	79
5615	60444	Juntao is in Washington this week  meeting with lawmakers.	Juntao is in washington this week meeting with lawmakers.	2876367	1471993008002	1471993008146	n	78
5615	60444	Juntao is in Washington this week  meeting with lawmakers.	Juntao is in washington this week meeting with lawmakers.	2876369	1471993008139	1471993008242	 	32
5615	60444	Juntao is in Washington this week  meeting with lawmakers.	Juntao is in washington this week meeting with lawmakers.	2876392	1471993008234	1471993008348	t	84
5615	60444	Juntao is in Washington this week  meeting with lawmakers.	Juntao is in washington this week meeting with lawmakers.	2876395	1471993008347	1471993008460	h	72
5615	60444	Juntao is in Washington this week  meeting with lawmakers.	Juntao is in washington this week meeting with lawmakers.	2876397	1471993008427	1471993008595	i	73
5615	60444	Juntao is in Washington this week  meeting with lawmakers.	Juntao is in washington this week meeting with lawmakers.	2876399	1471993008515	1471993008618	s	83
5615	60444	Juntao is in Washington this week  meeting with lawmakers.	Juntao is in washington this week meeting with lawmakers.	2876402	1471993008597	1471993008693	 	32
5615	60444	Juntao is in Washington this week  meeting with lawmakers.	Juntao is in washington this week meeting with lawmakers.	2876405	1471993008747	1471993008882	w	87
5615	60444	Juntao is in Washington this week  meeting with lawmakers.	Juntao is in washington this week meeting with lawmakers.	2876462	1471993008842	1471993008946	e	69
5615	60444	Juntao is in Washington this week  meeting with lawmakers.	Juntao is in washington this week meeting with lawmakers.	2876465	1471993009027	1471993009106	e	69
5615	60444	Juntao is in Washington this week  meeting with lawmakers.	Juntao is in washington this week meeting with lawmakers.	2876467	1471993009147	1471993009282	k	75
5615	60444	Juntao is in Washington this week  meeting with lawmakers.	Juntao is in washington this week meeting with lawmakers.	2876469	1471993009251	1471993009379	 	32
5615	60444	Juntao is in Washington this week  meeting with lawmakers.	Juntao is in washington this week meeting with lawmakers.	2876471	1471993009548	1471993009683	m	77
5615	60444	Juntao is in Washington this week  meeting with lawmakers.	Juntao is in washington this week meeting with lawmakers.	2876489	1471993009620	1471993009706	e	69
5615	60444	Juntao is in Washington this week  meeting with lawmakers.	Juntao is in washington this week meeting with lawmakers.	2876491	1471993009779	1471993009914	e	69
5615	60444	Juntao is in Washington this week  meeting with lawmakers.	Juntao is in washington this week meeting with lawmakers.	2876494	1471993009883	1471993009995	t	84
5615	60444	Juntao is in Washington this week  meeting with lawmakers.	Juntao is in washington this week meeting with lawmakers.	2876497	1471993010059	1471993010251	i	73
5615	60444	Juntao is in Washington this week  meeting with lawmakers.	Juntao is in washington this week meeting with lawmakers.	2876501	1471993010180	1471993010338	n	78
5615	60444	Juntao is in Washington this week  meeting with lawmakers.	Juntao is in washington this week meeting with lawmakers.	2876510	1471993010291	1471993010371	g	71
5615	60444	Juntao is in Washington this week  meeting with lawmakers.	Juntao is in washington this week meeting with lawmakers.	2876512	1471993010387	1471993010515	 	32
5615	60444	Juntao is in Washington this week  meeting with lawmakers.	Juntao is in washington this week meeting with lawmakers.	2876515	1471993010548	1471993010637	w	87
5615	60444	Juntao is in Washington this week  meeting with lawmakers.	Juntao is in washington this week meeting with lawmakers.	2876518	1471993010635	1471993010810	i	73
5615	60444	Juntao is in Washington this week  meeting with lawmakers.	Juntao is in washington this week meeting with lawmakers.	2876521	1471993010724	1471993010820	t	84
5615	60444	Juntao is in Washington this week  meeting with lawmakers.	Juntao is in washington this week meeting with lawmakers.	2876543	1471993010819	1471993010963	h	72
5615	60444	Juntao is in Washington this week  meeting with lawmakers.	Juntao is in washington this week meeting with lawmakers.	2876547	1471993010971	1471993011042	 	32
5615	60444	Juntao is in Washington this week  meeting with lawmakers.	Juntao is in washington this week meeting with lawmakers.	2876550	1471993011084	1471993011249	l	76
5615	60444	Juntao is in Washington this week  meeting with lawmakers.	Juntao is in washington this week meeting with lawmakers.	2876557	1471993011212	1471993011354	a	65
5615	60444	Juntao is in Washington this week  meeting with lawmakers.	Juntao is in washington this week meeting with lawmakers.	2876562	1471993011300	1471993011435	w	87
5615	60444	Juntao is in Washington this week  meeting with lawmakers.	Juntao is in washington this week meeting with lawmakers.	2876565	1471993011463	1471993011564	m	77
5615	60444	Juntao is in Washington this week  meeting with lawmakers.	Juntao is in washington this week meeting with lawmakers.	2876598	1471993011578	1471993011659	a	65
5615	60444	Juntao is in Washington this week  meeting with lawmakers.	Juntao is in washington this week meeting with lawmakers.	2876602	1471993011684	1471993011794	k	75
5615	60444	Juntao is in Washington this week  meeting with lawmakers.	Juntao is in washington this week meeting with lawmakers.	2876607	1471993011770	1471993011947	e	69
5615	60444	Juntao is in Washington this week  meeting with lawmakers.	Juntao is in washington this week meeting with lawmakers.	2876610	1471993011860	1471993011978	s	83
5615	60444	Juntao is in Washington this week  meeting with lawmakers.	Juntao is in washington this week meeting with lawmakers.	2876612	1471993012290	1471993012377	BKSP	8
5615	60444	Juntao is in Washington this week  meeting with lawmakers.	Juntao is in washington this week meeting with lawmakers.	2876618	1471993012370	1471993012475	r	82
5615	60444	Juntao is in Washington this week  meeting with lawmakers.	Juntao is in washington this week meeting with lawmakers.	2876621	1471993012531	1471993012618	s	83
5615	60444	Juntao is in Washington this week  meeting with lawmakers.	Juntao is in washington this week meeting with lawmakers.	2876624	1471993012611	1471993012738	.	190
5615	60461	All our demographics indicate that is a family audience.	All our demographics indicate that this is a family audience.	2876995	1471993019297	1471993019466	SHIFT	16
5615	60461	All our demographics indicate that is a family audience.	All our demographics indicate that this is a family audience.	2876998	1471993019388	1471993019489	A	65
5615	60461	All our demographics indicate that is a family audience.	All our demographics indicate that this is a family audience.	2877002	1471993019483	1471993019562	l	76
5615	60461	All our demographics indicate that is a family audience.	All our demographics indicate that this is a family audience.	2877005	1471993019651	1471993019793	l	76
5615	60461	All our demographics indicate that is a family audience.	All our demographics indicate that this is a family audience.	2877009	1471993019770	1471993019874	 	32
5615	60461	All our demographics indicate that is a family audience.	All our demographics indicate that this is a family audience.	2877013	1471993019908	1471993020081	o	79
5615	60461	All our demographics indicate that is a family audience.	All our demographics indicate that this is a family audience.	2877031	1471993020018	1471993020138	u	85
5615	60461	All our demographics indicate that is a family audience.	All our demographics indicate that this is a family audience.	2877035	1471993020083	1471993020185	r	82
5615	60461	All our demographics indicate that is a family audience.	All our demographics indicate that this is a family audience.	2877039	1471993020259	1471993020347	 	32
5615	60461	All our demographics indicate that is a family audience.	All our demographics indicate that this is a family audience.	2877044	1471993020364	1471993020425	d	68
5615	60461	All our demographics indicate that is a family audience.	All our demographics indicate that this is a family audience.	2877049	1471993020523	1471993020601	e	69
5615	60461	All our demographics indicate that is a family audience.	All our demographics indicate that this is a family audience.	2877053	1471993020627	1471993020722	m	77
5615	60461	All our demographics indicate that is a family audience.	All our demographics indicate that this is a family audience.	2877090	1471993020946	1471993021041	o	79
5615	60461	All our demographics indicate that is a family audience.	All our demographics indicate that this is a family audience.	2877094	1471993021131	1471993021193	g	71
5615	60461	All our demographics indicate that is a family audience.	All our demographics indicate that this is a family audience.	2877098	1471993021307	1471993021435	r	82
5615	60461	All our demographics indicate that is a family audience.	All our demographics indicate that this is a family audience.	2877102	1471993021411	1471993021522	a	65
5615	60461	All our demographics indicate that is a family audience.	All our demographics indicate that this is a family audience.	2877106	1471993021530	1471993021705	p	80
5615	60461	All our demographics indicate that is a family audience.	All our demographics indicate that this is a family audience.	2877128	1471993021667	1471993021810	h	72
5615	60461	All our demographics indicate that is a family audience.	All our demographics indicate that this is a family audience.	2877132	1471993021899	1471993022009	i	73
5615	60461	All our demographics indicate that is a family audience.	All our demographics indicate that this is a family audience.	2877137	1471993021986	1471993022162	c	67
5615	60461	All our demographics indicate that is a family audience.	All our demographics indicate that this is a family audience.	2877139	1471993022114	1471993022241	s	83
5615	60461	All our demographics indicate that is a family audience.	All our demographics indicate that this is a family audience.	2877141	1471993022266	1471993022409	 	32
5615	60461	All our demographics indicate that is a family audience.	All our demographics indicate that this is a family audience.	2877175	1471993022387	1471993022601	i	73
5615	60461	All our demographics indicate that is a family audience.	All our demographics indicate that this is a family audience.	2877179	1471993022555	1471993022698	n	78
5615	60461	All our demographics indicate that is a family audience.	All our demographics indicate that this is a family audience.	2877181	1471993022706	1471993022802	d	68
5615	60461	All our demographics indicate that is a family audience.	All our demographics indicate that this is a family audience.	2877184	1471993022834	1471993022930	i	73
5615	60461	All our demographics indicate that is a family audience.	All our demographics indicate that this is a family audience.	2877187	1471993022938	1471993023058	c	67
5615	60461	All our demographics indicate that is a family audience.	All our demographics indicate that this is a family audience.	2877190	1471993023074	1471993023225	a	65
5615	60461	All our demographics indicate that is a family audience.	All our demographics indicate that this is a family audience.	2877217	1471993023211	1471993023313	t	84
5615	60461	All our demographics indicate that is a family audience.	All our demographics indicate that this is a family audience.	2877221	1471993023379	1471993023474	e	69
5615	60461	All our demographics indicate that is a family audience.	All our demographics indicate that this is a family audience.	2877225	1471993023531	1471993023626	 	32
5615	60461	All our demographics indicate that is a family audience.	All our demographics indicate that this is a family audience.	2877228	1471993023675	1471993023762	t	84
5615	60461	All our demographics indicate that is a family audience.	All our demographics indicate that this is a family audience.	2877232	1471993023802	1471993023905	h	72
5615	60461	All our demographics indicate that is a family audience.	All our demographics indicate that this is a family audience.	2877241	1471993023858	1471993023993	a	65
5615	60461	All our demographics indicate that is a family audience.	All our demographics indicate that this is a family audience.	2877243	1471993023938	1471993024034	t	84
5615	60461	All our demographics indicate that is a family audience.	All our demographics indicate that this is a family audience.	2877245	1471993024035	1471993024146	 	32
5615	60461	All our demographics indicate that is a family audience.	All our demographics indicate that this is a family audience.	2877248	1471993024154	1471993024257	t	84
5615	60461	All our demographics indicate that is a family audience.	All our demographics indicate that this is a family audience.	2877251	1471993024251	1471993024377	h	72
5615	60461	All our demographics indicate that is a family audience.	All our demographics indicate that this is a family audience.	2877284	1471993024347	1471993024505	i	73
5615	60461	All our demographics indicate that is a family audience.	All our demographics indicate that this is a family audience.	2877286	1471993024402	1471993024513	s	83
5615	60461	All our demographics indicate that is a family audience.	All our demographics indicate that this is a family audience.	2877292	1471993024483	1471993024625	 	32
5615	60461	All our demographics indicate that is a family audience.	All our demographics indicate that this is a family audience.	2877295	1471993024643	1471993024769	i	73
5615	60461	All our demographics indicate that is a family audience.	All our demographics indicate that this is a family audience.	2877298	1471993024787	1471993024882	s	83
5615	60461	All our demographics indicate that is a family audience.	All our demographics indicate that this is a family audience.	2877304	1471993024915	1471993025033	 	32
5615	60461	All our demographics indicate that is a family audience.	All our demographics indicate that this is a family audience.	2877355	1471993025083	1471993025210	a	65
5615	60461	All our demographics indicate that is a family audience.	All our demographics indicate that this is a family audience.	2877360	1471993025235	1471993025355	 	32
5615	60461	All our demographics indicate that is a family audience.	All our demographics indicate that this is a family audience.	2877366	1471993025530	1471993025585	a	65
5615	60461	All our demographics indicate that is a family audience.	All our demographics indicate that this is a family audience.	2877372	1471993025987	1471993026050	BKSP	8
5615	60461	All our demographics indicate that is a family audience.	All our demographics indicate that this is a family audience.	2877379	1471993026098	1471993026202	f	70
5615	60461	All our demographics indicate that is a family audience.	All our demographics indicate that this is a family audience.	2877385	1471993026274	1471993026386	m	77
5615	60461	All our demographics indicate that is a family audience.	All our demographics indicate that this is a family audience.	2877506	1471993027779	1471993027850	BKSP	8
5615	60461	All our demographics indicate that is a family audience.	All our demographics indicate that this is a family audience.	2877508	1471993027857	1471993027962	a	65
5615	60461	All our demographics indicate that is a family audience.	All our demographics indicate that this is a family audience.	2877510	1471993028123	1471993028281	i	73
5615	60461	All our demographics indicate that is a family audience.	All our demographics indicate that this is a family audience.	2877513	1471993028251	1471993028498	l	76
5615	60461	All our demographics indicate that is a family audience.	All our demographics indicate that this is a family audience.	2877517	1471993028403	1471993028505	y	89
5615	60461	All our demographics indicate that is a family audience.	All our demographics indicate that this is a family audience.	2877691	1471993028499	1471993028601	 	32
5615	60461	All our demographics indicate that is a family audience.	All our demographics indicate that this is a family audience.	2877693	1471993028595	1471993028697	a	65
5615	60461	All our demographics indicate that is a family audience.	All our demographics indicate that this is a family audience.	2877696	1471993028705	1471993028809	u	85
5615	60461	All our demographics indicate that is a family audience.	All our demographics indicate that this is a family audience.	2877699	1471993028803	1471993028930	d	68
5615	60461	All our demographics indicate that is a family audience.	All our demographics indicate that this is a family audience.	2877704	1471993028907	1471993029050	i	73
5615	60461	All our demographics indicate that is a family audience.	All our demographics indicate that this is a family audience.	2877708	1471993029441	1471993029506	BKSP	8
5615	60461	All our demographics indicate that is a family audience.	All our demographics indicate that this is a family audience.	2877712	1471993029594	1471993029666	BKSP	8
5615	60461	All our demographics indicate that is a family audience.	All our demographics indicate that this is a family audience.	2877718	1471993029746	1471993029825	BKSP	8
5615	60461	All our demographics indicate that is a family audience.	All our demographics indicate that this is a family audience.	2877724	1471993029899	1471993029978	BKSP	8
5615	60461	All our demographics indicate that is a family audience.	All our demographics indicate that this is a family audience.	2877729	1471993030057	1471993030138	BKSP	8
5615	60461	All our demographics indicate that is a family audience.	All our demographics indicate that this is a family audience.	2877734	1471993030227	1471993030306	BKSP	8
5615	60461	All our demographics indicate that is a family audience.	All our demographics indicate that this is a family audience.	2877738	1471993030387	1471993030474	BKSP	8
5615	60461	All our demographics indicate that is a family audience.	All our demographics indicate that this is a family audience.	2877743	1471993030561	1471993030656	BKSP	8
5615	60461	All our demographics indicate that is a family audience.	All our demographics indicate that this is a family audience.	2877749	1471993030683	1471993030753	BKSP	8
5615	60461	All our demographics indicate that is a family audience.	All our demographics indicate that this is a family audience.	2877755	1471993030939	1471993030976	m	77
5615	60461	All our demographics indicate that is a family audience.	All our demographics indicate that this is a family audience.	2877766	1471993031218	1471993031282	BKSP	8
5615	60461	All our demographics indicate that is a family audience.	All our demographics indicate that this is a family audience.	2877772	1471993031363	1471993031464	a	65
5615	60461	All our demographics indicate that is a family audience.	All our demographics indicate that this is a family audience.	2877776	1471993031434	1471993031546	m	77
5615	60461	All our demographics indicate that is a family audience.	All our demographics indicate that this is a family audience.	2877779	1471993031570	1471993031752	i	73
5615	60461	All our demographics indicate that is a family audience.	All our demographics indicate that this is a family audience.	2877843	1471993031706	1471993031992	l	76
5615	60461	All our demographics indicate that is a family audience.	All our demographics indicate that this is a family audience.	2877784	1471993031866	1471993031986	y	89
5615	60461	All our demographics indicate that is a family audience.	All our demographics indicate that this is a family audience.	2877844	1471993031963	1471993032074	 	32
5615	60461	All our demographics indicate that is a family audience.	All our demographics indicate that this is a family audience.	2877847	1471993032089	1471993032194	a	65
5615	60461	All our demographics indicate that is a family audience.	All our demographics indicate that this is a family audience.	2877854	1471993032217	1471993032332	u	85
5615	60461	All our demographics indicate that is a family audience.	All our demographics indicate that this is a family audience.	2877858	1471993032330	1471993032489	d	68
5615	60461	All our demographics indicate that is a family audience.	All our demographics indicate that this is a family audience.	2877863	1471993032497	1471993032657	i	73
5615	60461	All our demographics indicate that is a family audience.	All our demographics indicate that this is a family audience.	2877869	1471993032883	1471993033008	e	69
5615	60461	All our demographics indicate that is a family audience.	All our demographics indicate that this is a family audience.	2877890	1471993033137	1471993033258	n	78
5615	60461	All our demographics indicate that is a family audience.	All our demographics indicate that this is a family audience.	2877892	1471993033218	1471993033354	c	67
5615	60461	All our demographics indicate that is a family audience.	All our demographics indicate that this is a family audience.	2877894	1471993033297	1471993033385	e	69
5615	60461	All our demographics indicate that is a family audience.	All our demographics indicate that this is a family audience.	2877897	1471993033393	1471993033513	.	190
5615	60480	Might include proposals with respect to Alaska.	Might include proposals with respect to Alaska.	2878165	1471993038817	1471993038993	SHIFT	16
5615	60480	Might include proposals with respect to Alaska.	Might include proposals with respect to Alaska.	2878167	1471993038914	1471993039048	M	77
5615	60480	Might include proposals with respect to Alaska.	Might include proposals with respect to Alaska.	2878170	1471993039034	1471993039168	i	73
5615	60480	Might include proposals with respect to Alaska.	Might include proposals with respect to Alaska.	2878173	1471993039113	1471993039201	g	71
5615	60480	Might include proposals with respect to Alaska.	Might include proposals with respect to Alaska.	2878176	1471993039234	1471993039376	h	72
5615	60480	Might include proposals with respect to Alaska.	Might include proposals with respect to Alaska.	2878196	1471993039330	1471993039392	t	84
5615	60480	Might include proposals with respect to Alaska.	Might include proposals with respect to Alaska.	2878198	1471993039418	1471993039545	 	32
5615	60480	Might include proposals with respect to Alaska.	Might include proposals with respect to Alaska.	2878200	1471993039529	1471993039721	i	73
5615	60480	Might include proposals with respect to Alaska.	Might include proposals with respect to Alaska.	2878203	1471993039666	1471993039800	n	78
5615	60480	Might include proposals with respect to Alaska.	Might include proposals with respect to Alaska.	2878207	1471993039787	1471993039897	c	67
5615	60480	Might include proposals with respect to Alaska.	Might include proposals with respect to Alaska.	2878210	1471993039914	1471993040120	l	76
5615	60480	Might include proposals with respect to Alaska.	Might include proposals with respect to Alaska.	2878247	1471993040026	1471993040145	u	85
5615	60480	Might include proposals with respect to Alaska.	Might include proposals with respect to Alaska.	2878253	1471993040073	1471993040160	d	68
5615	60480	Might include proposals with respect to Alaska.	Might include proposals with respect to Alaska.	2878258	1471993040258	1471993040369	e	69
5615	60480	Might include proposals with respect to Alaska.	Might include proposals with respect to Alaska.	2878262	1471993040426	1471993040520	 	32
5615	60480	Might include proposals with respect to Alaska.	Might include proposals with respect to Alaska.	2878266	1471993040674	1471993040768	p	80
5615	60480	Might include proposals with respect to Alaska.	Might include proposals with respect to Alaska.	2878270	1471993040762	1471993040873	r	82
5615	60480	Might include proposals with respect to Alaska.	Might include proposals with respect to Alaska.	2878272	1471993040889	1471993041008	o	79
5615	60480	Might include proposals with respect to Alaska.	Might include proposals with respect to Alaska.	2878288	1471993041017	1471993041184	p	80
5615	60480	Might include proposals with respect to Alaska.	Might include proposals with respect to Alaska.	2878290	1471993041289	1471993041433	o	79
5615	60480	Might include proposals with respect to Alaska.	Might include proposals with respect to Alaska.	2878292	1471993041498	1471993041649	s	83
5615	60480	Might include proposals with respect to Alaska.	Might include proposals with respect to Alaska.	2878294	1471993041690	1471993041809	a	65
5615	60480	Might include proposals with respect to Alaska.	Might include proposals with respect to Alaska.	2878298	1471993041833	1471993041968	l	76
5615	60480	Might include proposals with respect to Alaska.	Might include proposals with respect to Alaska.	2878312	1471993041961	1471993042073	s	83
5615	60480	Might include proposals with respect to Alaska.	Might include proposals with respect to Alaska.	2878315	1471993042089	1471993042217	 	32
5615	60480	Might include proposals with respect to Alaska.	Might include proposals with respect to Alaska.	2878318	1471993042225	1471993042296	w	87
5615	60480	Might include proposals with respect to Alaska.	Might include proposals with respect to Alaska.	2878332	1471993042314	1471993042512	i	73
5615	60480	Might include proposals with respect to Alaska.	Might include proposals with respect to Alaska.	2878323	1471993042394	1471993042504	t	84
5615	60480	Might include proposals with respect to Alaska.	Might include proposals with respect to Alaska.	2878334	1471993042498	1471993042648	h	72
5615	60480	Might include proposals with respect to Alaska.	Might include proposals with respect to Alaska.	2878336	1471993042618	1471993042712	 	32
5615	60480	Might include proposals with respect to Alaska.	Might include proposals with respect to Alaska.	2878338	1471993042706	1471993042824	r	82
5615	60480	Might include proposals with respect to Alaska.	Might include proposals with respect to Alaska.	2878340	1471993042818	1471993043008	e	69
5615	60480	Might include proposals with respect to Alaska.	Might include proposals with respect to Alaska.	2878341	1471993042930	1471993043057	s	83
5615	60480	Might include proposals with respect to Alaska.	Might include proposals with respect to Alaska.	2878376	1471993043034	1471993043161	p	80
5615	60480	Might include proposals with respect to Alaska.	Might include proposals with respect to Alaska.	2878380	1471993043121	1471993043241	e	69
5615	60480	Might include proposals with respect to Alaska.	Might include proposals with respect to Alaska.	2878383	1471993043273	1471993043328	c	67
5615	60480	Might include proposals with respect to Alaska.	Might include proposals with respect to Alaska.	2878385	1471993043466	1471993043561	t	84
5615	60480	Might include proposals with respect to Alaska.	Might include proposals with respect to Alaska.	2878388	1471993043602	1471993043681	 	32
5615	60480	Might include proposals with respect to Alaska.	Might include proposals with respect to Alaska.	2878390	1471993043722	1471993043832	t	84
5615	60480	Might include proposals with respect to Alaska.	Might include proposals with respect to Alaska.	2878427	1471993043826	1471993043952	o	79
5615	60480	Might include proposals with respect to Alaska.	Might include proposals with respect to Alaska.	2878431	1471993043922	1471993044025	 	32
5615	60480	Might include proposals with respect to Alaska.	Might include proposals with respect to Alaska.	2878436	1471993044058	1471993044217	SHIFT	16
5615	60480	Might include proposals with respect to Alaska.	Might include proposals with respect to Alaska.	2878441	1471993044145	1471993044249	A	65
5615	60480	Might include proposals with respect to Alaska.	Might include proposals with respect to Alaska.	2878446	1471993044266	1471993044392	l	76
5615	60480	Might include proposals with respect to Alaska.	Might include proposals with respect to Alaska.	2878448	1471993044418	1471993044488	a	65
5615	60480	Might include proposals with respect to Alaska.	Might include proposals with respect to Alaska.	2878451	1471993044562	1471993044657	s	83
5615	60480	Might include proposals with respect to Alaska.	Might include proposals with respect to Alaska.	2878476	1471993044698	1471993044777	k	75
5615	60480	Might include proposals with respect to Alaska.	Might include proposals with respect to Alaska.	2878479	1471993044970	1471993045057	a	65
5615	60480	Might include proposals with respect to Alaska.	Might include proposals with respect to Alaska.	2878482	1471993045330	1471993045457	.	190
5615	60498	What information, if any, do we owe him?	What information, if any, do we owe him?	2878749	1471993050383	1471993050535	SHIFT	16
5615	60498	What information, if any, do we owe him?	What information, if any, do we owe him?	2878753	1471993050481	1471993050593	W	87
5615	60498	What information, if any, do we owe him?	What information, if any, do we owe him?	2878756	1471993050608	1471993050752	h	72
5615	60498	What information, if any, do we owe him?	What information, if any, do we owe him?	2878759	1471993050673	1471993050809	a	65
5615	60498	What information, if any, do we owe him?	What information, if any, do we owe him?	2878761	1471993050744	1471993050848	t	84
5615	60498	What information, if any, do we owe him?	What information, if any, do we owe him?	2878762	1471993050880	1471993050968	 	32
5615	60498	What information, if any, do we owe him?	What information, if any, do we owe him?	2878782	1471993051105	1471993051273	i	73
5615	60498	What information, if any, do we owe him?	What information, if any, do we owe him?	2878783	1471993051210	1471993051367	n	78
5615	60498	What information, if any, do we owe him?	What information, if any, do we owe him?	2878786	1471993051321	1471993051440	f	70
5615	60498	What information, if any, do we owe him?	What information, if any, do we owe him?	2878789	1471993051473	1471993051560	o	79
5615	60498	What information, if any, do we owe him?	What information, if any, do we owe him?	2878792	1471993051576	1471993051647	r	82
5615	60498	What information, if any, do we owe him?	What information, if any, do we owe him?	2878809	1471993051664	1471993051763	m	77
5615	60498	What information, if any, do we owe him?	What information, if any, do we owe him?	2878811	1471993051761	1471993051895	a	65
5615	60498	What information, if any, do we owe him?	What information, if any, do we owe him?	2878814	1471993051850	1471993051935	t	84
5615	60498	What information, if any, do we owe him?	What information, if any, do we owe him?	2878818	1471993051920	1471993052097	i	73
5615	60498	What information, if any, do we owe him?	What information, if any, do we owe him?	2878878	1471993052025	1471993052207	o	79
5615	60498	What information, if any, do we owe him?	What information, if any, do we owe him?	2878879	1471993052176	1471993052289	n	78
5615	60498	What information, if any, do we owe him?	What information, if any, do we owe him?	2878880	1471993052488	1471993052535	,	188
5615	60498	What information, if any, do we owe him?	What information, if any, do we owe him?	2878881	1471993053169	1471993053248	 	32
5615	60498	What information, if any, do we owe him?	What information, if any, do we owe him?	2878882	1471993053369	1471993053479	i	73
5615	60498	What information, if any, do we owe him?	What information, if any, do we owe him?	2878910	1471993053473	1471993053560	f	70
5615	60498	What information, if any, do we owe him?	What information, if any, do we owe him?	2878912	1471993053545	1471993053649	 	32
5615	60498	What information, if any, do we owe him?	What information, if any, do we owe him?	2878914	1471993053721	1471993053831	a	65
5615	60498	What information, if any, do we owe him?	What information, if any, do we owe him?	2878915	1471993053825	1471993053879	n	78
5615	60498	What information, if any, do we owe him?	What information, if any, do we owe him?	2878917	1471993054008	1471993054105	y	89
5615	60498	What information, if any, do we owe him?	What information, if any, do we owe him?	2878919	1471993054298	1471993054465	,	188
5615	60498	What information, if any, do we owe him?	What information, if any, do we owe him?	2878943	1471993054609	1471993054697	 	32
5615	60498	What information, if any, do we owe him?	What information, if any, do we owe him?	2878945	1471993054793	1471993054928	d	68
5615	60498	What information, if any, do we owe him?	What information, if any, do we owe him?	2878947	1471993054897	1471993054992	o	79
5615	60498	What information, if any, do we owe him?	What information, if any, do we owe him?	2878949	1471993055033	1471993055120	 	32
5615	60498	What information, if any, do we owe him?	What information, if any, do we owe him?	2878951	1471993055145	1471993055279	w	87
5615	60498	What information, if any, do we owe him?	What information, if any, do we owe him?	2878975	1471993055216	1471993055319	e	69
5615	60498	What information, if any, do we owe him?	What information, if any, do we owe him?	2878976	1471993055361	1471993055456	 	32
5615	60498	What information, if any, do we owe him?	What information, if any, do we owe him?	2878979	1471993055537	1471993055632	o	79
5615	60498	What information, if any, do we owe him?	What information, if any, do we owe him?	2878984	1471993055640	1471993055751	w	87
5615	60498	What information, if any, do we owe him?	What information, if any, do we owe him?	2878987	1471993055800	1471993055912	e	69
5615	60498	What information, if any, do we owe him?	What information, if any, do we owe him?	2878994	1471993056024	1471993056136	 	32
5615	60498	What information, if any, do we owe him?	What information, if any, do we owe him?	2879036	1471993056272	1471993056384	h	72
5615	60498	What information, if any, do we owe him?	What information, if any, do we owe him?	2879038	1471993056392	1471993056567	i	73
5615	60498	What information, if any, do we owe him?	What information, if any, do we owe him?	2879041	1471993056545	1471993056688	m	77
5615	60498	What information, if any, do we owe him?	What information, if any, do we owe him?	2879044	1471993056807	1471993057049	SHIFT	16
5615	60498	What information, if any, do we owe him?	What information, if any, do we owe him?	2879047	1471993056936	1471993057080	?	191
