PARTICIPANT_ID	TEST_SECTION_ID	SENTENCE	USER_INPUT	KEYSTROKE_ID	PRESS_TIME	RELEASE_TIME	LETTER	KEYCODE
5622	60400	We all know that it does exist.	We all know that it does exist.	2873694	1471992955096	1471992955478	SHIFT	16
5622	60400	We all know that it does exist.	We all know that it does exist.	2873696	1471992955340	1471992955499		87
5622	60400	We all know that it does exist.	We all know that it does exist.	2873702	1471992955780	1471992955907		69
5622	60400	We all know that it does exist.	We all know that it does exist.	2873710	1471992955907	1471992956016		32
5622	60400	We all know that it does exist.	We all know that it does exist.	2873715	1471992956068	1471992956147		65
5622	60400	We all know that it does exist.	We all know that it does exist.	2873750	1471992956137	1471992956200		76
5622	60400	We all know that it does exist.	We all know that it does exist.	2873754	1471992956276	1471992956368		76
5622	60400	We all know that it does exist.	We all know that it does exist.	2873760	1471992956367	1471992956457		32
5622	60400	We all know that it does exist.	We all know that it does exist.	2873765	1471992956458	1471992956535		75
5622	60400	We all know that it does exist.	We all know that it does exist.	2873769	1471992956616	1471992956713		78
5622	60400	We all know that it does exist.	We all know that it does exist.	2873773	1471992956720	1471992956822		79
5622	60400	We all know that it does exist.	We all know that it does exist.	2873784	1471992956781	1471992956880		87
5622	60400	We all know that it does exist.	We all know that it does exist.	2873787	1471992956881	1471992956980		32
5622	60400	We all know that it does exist.	We all know that it does exist.	2873794	1471992956981	1471992957087		84
5622	60400	We all know that it does exist.	We all know that it does exist.	2873799	1471992957088	1471992957117		72
5622	60400	We all know that it does exist.	We all know that it does exist.	2873802	1471992957116	1471992957257		65
5622	60400	We all know that it does exist.	We all know that it does exist.	2873828	1471992957193	1471992957336		84
5622	60400	We all know that it does exist.	We all know that it does exist.	2873832	1471992957291	1471992957377		32
5622	60400	We all know that it does exist.	We all know that it does exist.	2873836	1471992957392	1471992957456		73
5622	60400	We all know that it does exist.	We all know that it does exist.	2873838	1471992957476	1471992957608		84
5622	60400	We all know that it does exist.	We all know that it does exist.	2873840	1471992957574	1471992957679		32
5622	60400	We all know that it does exist.	We all know that it does exist.	2873845	1471992957830	1471992957930		68
5622	60400	We all know that it does exist.	We all know that it does exist.	2873861	1471992957958	1471992958039		79
5622	60400	We all know that it does exist.	We all know that it does exist.	2873864	1471992958037	1471992958102		69
5622	60400	We all know that it does exist.	We all know that it does exist.	2873867	1471992958177	1471992958313		83
5622	60400	We all know that it does exist.	We all know that it does exist.	2873873	1471992958314	1471992958410		32
5622	60400	We all know that it does exist.	We all know that it does exist.	2873879	1471992958490	1471992958540		69
5622	60400	We all know that it does exist.	We all know that it does exist.	2873893	1471992958631	1471992958707		88
5622	60400	We all know that it does exist.	We all know that it does exist.	2873894	1471992958773	1471992958810		73
5622	60400	We all know that it does exist.	We all know that it does exist.	2873895	1471992958830	1471992958928		83
5622	60400	We all know that it does exist.	We all know that it does exist.	2873896	1471992958961	1471992959057		84
5622	60400	We all know that it does exist.	We all know that it does exist.	2873898	1471992959090	1471992959186		190
5622	60404	Are you sure I don't need to be there?	Are you sure I don't need to be there?	2874108	1471992961544	1471992962104	SHIFT	16
5622	60404	Are you sure I don't need to be there?	Are you sure I don't need to be there?	2874110	1471992962016	1471992962119		90
5622	60404	Are you sure I don't need to be there?	Are you sure I don't need to be there?	2874112	1471992962564	1471992962638		8
5622	60404	Are you sure I don't need to be there?	Are you sure I don't need to be there?	2874113	1471992962672	1471992962862	SHIFT	16
5622	60404	Are you sure I don't need to be there?	Are you sure I don't need to be there?	2874115	1471992962776	1471992962904		65
5622	60404	Are you sure I don't need to be there?	Are you sure I don't need to be there?	2874118	1471992962969	1471992963059		82
5622	60404	Are you sure I don't need to be there?	Are you sure I don't need to be there?	2874120	1471992963097	1471992963250		69
5622	60404	Are you sure I don't need to be there?	Are you sure I don't need to be there?	2874124	1471992963197	1471992963317		32
5622	60404	Are you sure I don't need to be there?	Are you sure I don't need to be there?	2874126	1471992963273	1471992963350		89
5622	60404	Are you sure I don't need to be there?	Are you sure I don't need to be there?	2874128	1471992963406	1471992963514		79
5622	60404	Are you sure I don't need to be there?	Are you sure I don't need to be there?	2874130	1471992963471	1471992963578		85
5622	60404	Are you sure I don't need to be there?	Are you sure I don't need to be there?	2874132	1471992963535	1471992963610		32
5622	60404	Are you sure I don't need to be there?	Are you sure I don't need to be there?	2874135	1471992963646	1471992963724		83
5622	60404	Are you sure I don't need to be there?	Are you sure I don't need to be there?	2874149	1471992963717	1471992963781		85
5622	60404	Are you sure I don't need to be there?	Are you sure I don't need to be there?	2874151	1471992963779	1471992963906		82
5622	60404	Are you sure I don't need to be there?	Are you sure I don't need to be there?	2874154	1471992963931	1471992964077		69
5622	60404	Are you sure I don't need to be there?	Are you sure I don't need to be there?	2874157	1471992964036	1471992964124		32
5622	60404	Are you sure I don't need to be there?	Are you sure I don't need to be there?	2874160	1471992964168	1471992964302	SHIFT	16
5622	60404	Are you sure I don't need to be there?	Are you sure I don't need to be there?	2874161	1471992964233	1471992964311		73
5622	60404	Are you sure I don't need to be there?	Are you sure I don't need to be there?	2874163	1471992964376	1471992964458		32
5622	60404	Are you sure I don't need to be there?	Are you sure I don't need to be there?	2874175	1471992964493	1471992964581		68
5622	60404	Are you sure I don't need to be there?	Are you sure I don't need to be there?	2874177	1471992964558	1471992964657		79
5622	60404	Are you sure I don't need to be there?	Are you sure I don't need to be there?	2874178	1471992964645	1471992964757		78
5622	60404	Are you sure I don't need to be there?	Are you sure I don't need to be there?	2874179	1471992964757	1471992964843		222
5622	60404	Are you sure I don't need to be there?	Are you sure I don't need to be there?	2874180	1471992964862	1471992964989		84
5622	60404	Are you sure I don't need to be there?	Are you sure I don't need to be there?	2874200	1471992965015	1471992965100		32
5622	60404	Are you sure I don't need to be there?	Are you sure I don't need to be there?	2874203	1471992965145	1471992965216		78
5622	60404	Are you sure I don't need to be there?	Are you sure I don't need to be there?	2874207	1471992965214	1471992965288		69
5622	60404	Are you sure I don't need to be there?	Are you sure I don't need to be there?	2874211	1471992965403	1471992965444		69
5622	60404	Are you sure I don't need to be there?	Are you sure I don't need to be there?	2874215	1471992965554	1471992965677		68
5622	60404	Are you sure I don't need to be there?	Are you sure I don't need to be there?	2874225	1471992965692	1471992965791		32
5622	60404	Are you sure I don't need to be there?	Are you sure I don't need to be there?	2874228	1471992965765	1471992965858		84
5622	60404	Are you sure I don't need to be there?	Are you sure I don't need to be there?	2874233	1471992965831	1471992965922		79
5622	60404	Are you sure I don't need to be there?	Are you sure I don't need to be there?	2874237	1471992965938	1471992966051		32
5622	60404	Are you sure I don't need to be there?	Are you sure I don't need to be there?	2874242	1471992966116	1471992966192		66
5622	60404	Are you sure I don't need to be there?	Are you sure I don't need to be there?	2874263	1471992966246	1471992966375		69
5622	60404	Are you sure I don't need to be there?	Are you sure I don't need to be there?	2874265	1471992966340	1471992966444		32
5622	60404	Are you sure I don't need to be there?	Are you sure I don't need to be there?	2874268	1471992966445	1471992966522		84
5622	60404	Are you sure I don't need to be there?	Are you sure I don't need to be there?	2874272	1471992966475	1471992966532		72
5622	60404	Are you sure I don't need to be there?	Are you sure I don't need to be there?	2874275	1471992966598	1471992966708		69
5622	60404	Are you sure I don't need to be there?	Are you sure I don't need to be there?	2874305	1471992966703	1471992966773		82
5622	60404	Are you sure I don't need to be there?	Are you sure I don't need to be there?	2874309	1471992966835	1471992966919		69
5622	60404	Are you sure I don't need to be there?	Are you sure I don't need to be there?	2874312	1471992966976	1471992967093	SHIFT	16
5622	60404	Are you sure I don't need to be there?	Are you sure I don't need to be there?	2874316	1471992967060	1471992967116		191
5622	60414	The Atlanta Hawks held Indiana to the lowest points total ever.	The Atlanta Hawks held Indiana to the lowest points total ever.	2874647	1471992973072	1471992973341	SHIFT	16
5622	60414	The Atlanta Hawks held Indiana to the lowest points total ever.	The Atlanta Hawks held Indiana to the lowest points total ever.	2874651	1471992973300	1471992973400		84
5622	60414	The Atlanta Hawks held Indiana to the lowest points total ever.	The Atlanta Hawks held Indiana to the lowest points total ever.	2874655	1471992973367	1471992973435		72
5622	60414	The Atlanta Hawks held Indiana to the lowest points total ever.	The Atlanta Hawks held Indiana to the lowest points total ever.	2874660	1471992973468	1471992973628		69
5622	60414	The Atlanta Hawks held Indiana to the lowest points total ever.	The Atlanta Hawks held Indiana to the lowest points total ever.	2874663	1471992973565	1471992973693		32
5622	60414	The Atlanta Hawks held Indiana to the lowest points total ever.	The Atlanta Hawks held Indiana to the lowest points total ever.	2874666	1471992973707	1471992973887	SHIFT	16
5622	60414	The Atlanta Hawks held Indiana to the lowest points total ever.	The Atlanta Hawks held Indiana to the lowest points total ever.	2874676	1471992973822	1471992973910		65
5622	60414	The Atlanta Hawks held Indiana to the lowest points total ever.	The Atlanta Hawks held Indiana to the lowest points total ever.	2874679	1471992973966	1471992974080		84
5622	60414	The Atlanta Hawks held Indiana to the lowest points total ever.	The Atlanta Hawks held Indiana to the lowest points total ever.	2874683	1471992974114	1471992974186		76
5622	60414	The Atlanta Hawks held Indiana to the lowest points total ever.	The Atlanta Hawks held Indiana to the lowest points total ever.	2874687	1471992974243	1471992974342		65
5622	60414	The Atlanta Hawks held Indiana to the lowest points total ever.	The Atlanta Hawks held Indiana to the lowest points total ever.	2874690	1471992974342	1471992974406		78
5622	60414	The Atlanta Hawks held Indiana to the lowest points total ever.	The Atlanta Hawks held Indiana to the lowest points total ever.	2874693	1471992974471	1471992974548		84
5622	60414	The Atlanta Hawks held Indiana to the lowest points total ever.	The Atlanta Hawks held Indiana to the lowest points total ever.	2874719	1471992974719	1471992974824		65
5622	60414	The Atlanta Hawks held Indiana to the lowest points total ever.	The Atlanta Hawks held Indiana to the lowest points total ever.	2874722	1471992974847	1471992974943		32
5622	60414	The Atlanta Hawks held Indiana to the lowest points total ever.	The Atlanta Hawks held Indiana to the lowest points total ever.	2874729	1471992975050	1471992975300	SHIFT	16
5622	60414	The Atlanta Hawks held Indiana to the lowest points total ever.	The Atlanta Hawks held Indiana to the lowest points total ever.	2874726	1471992975228	1471992975291		72
5622	60414	The Atlanta Hawks held Indiana to the lowest points total ever.	The Atlanta Hawks held Indiana to the lowest points total ever.	2874732	1471992975398	1471992975506		65
5622	60414	The Atlanta Hawks held Indiana to the lowest points total ever.	The Atlanta Hawks held Indiana to the lowest points total ever.	2874735	1471992975607	1471992975709		87
5622	60414	The Atlanta Hawks held Indiana to the lowest points total ever.	The Atlanta Hawks held Indiana to the lowest points total ever.	2874747	1471992975775	1471992975830		75
5622	60414	The Atlanta Hawks held Indiana to the lowest points total ever.	The Atlanta Hawks held Indiana to the lowest points total ever.	2874749	1471992975939	1471992976030		83
5622	60414	The Atlanta Hawks held Indiana to the lowest points total ever.	The Atlanta Hawks held Indiana to the lowest points total ever.	2874752	1471992976055	1471992976150		32
5622	60414	The Atlanta Hawks held Indiana to the lowest points total ever.	The Atlanta Hawks held Indiana to the lowest points total ever.	2874754	1471992976197	1471992976270		72
5622	60414	The Atlanta Hawks held Indiana to the lowest points total ever.	The Atlanta Hawks held Indiana to the lowest points total ever.	2874756	1471992976282	1471992976378		69
5622	60414	The Atlanta Hawks held Indiana to the lowest points total ever.	The Atlanta Hawks held Indiana to the lowest points total ever.	2874796	1471992976411	1471992976467		76
5622	60414	The Atlanta Hawks held Indiana to the lowest points total ever.	The Atlanta Hawks held Indiana to the lowest points total ever.	2874800	1471992976798	1471992976890		68
5622	60414	The Atlanta Hawks held Indiana to the lowest points total ever.	The Atlanta Hawks held Indiana to the lowest points total ever.	2874802	1471992976891	1471992976991		32
5622	60414	The Atlanta Hawks held Indiana to the lowest points total ever.	The Atlanta Hawks held Indiana to the lowest points total ever.	2874809	1471992977055	1471992977178	SHIFT	16
5622	60414	The Atlanta Hawks held Indiana to the lowest points total ever.	The Atlanta Hawks held Indiana to the lowest points total ever.	2874806	1471992977103	1471992977158		73
5622	60414	The Atlanta Hawks held Indiana to the lowest points total ever.	The Atlanta Hawks held Indiana to the lowest points total ever.	2874812	1471992977234	1471992977383		78
5622	60414	The Atlanta Hawks held Indiana to the lowest points total ever.	The Atlanta Hawks held Indiana to the lowest points total ever.	2874837	1471992977404	1471992977491		68
5622	60414	The Atlanta Hawks held Indiana to the lowest points total ever.	The Atlanta Hawks held Indiana to the lowest points total ever.	2874840	1471992977534	1471992977598		73
5622	60414	The Atlanta Hawks held Indiana to the lowest points total ever.	The Atlanta Hawks held Indiana to the lowest points total ever.	2874841	1471992977662	1471992977739		65
5622	60414	The Atlanta Hawks held Indiana to the lowest points total ever.	The Atlanta Hawks held Indiana to the lowest points total ever.	2874843	1471992977792	1471992977856		78
5622	60414	The Atlanta Hawks held Indiana to the lowest points total ever.	The Atlanta Hawks held Indiana to the lowest points total ever.	2874844	1471992977942	1471992978047		65
5622	60414	The Atlanta Hawks held Indiana to the lowest points total ever.	The Atlanta Hawks held Indiana to the lowest points total ever.	2874861	1471992978112	1471992978206		32
5622	60414	The Atlanta Hawks held Indiana to the lowest points total ever.	The Atlanta Hawks held Indiana to the lowest points total ever.	2874864	1471992978308	1471992978370		84
5622	60414	The Atlanta Hawks held Indiana to the lowest points total ever.	The Atlanta Hawks held Indiana to the lowest points total ever.	2874868	1471992978371	1471992978456		79
5622	60414	The Atlanta Hawks held Indiana to the lowest points total ever.	The Atlanta Hawks held Indiana to the lowest points total ever.	2874873	1471992978467	1471992978567		32
5622	60414	The Atlanta Hawks held Indiana to the lowest points total ever.	The Atlanta Hawks held Indiana to the lowest points total ever.	2874878	1471992978568	1471992978635		84
5622	60414	The Atlanta Hawks held Indiana to the lowest points total ever.	The Atlanta Hawks held Indiana to the lowest points total ever.	2874901	1471992978639	1471992978701		72
5622	60414	The Atlanta Hawks held Indiana to the lowest points total ever.	The Atlanta Hawks held Indiana to the lowest points total ever.	2874905	1471992978706	1471992978844		69
5622	60414	The Atlanta Hawks held Indiana to the lowest points total ever.	The Atlanta Hawks held Indiana to the lowest points total ever.	2874908	1471992978830	1471992978900		32
5622	60414	The Atlanta Hawks held Indiana to the lowest points total ever.	The Atlanta Hawks held Indiana to the lowest points total ever.	2874910	1471992978873	1471992978965		76
5622	60414	The Atlanta Hawks held Indiana to the lowest points total ever.	The Atlanta Hawks held Indiana to the lowest points total ever.	2874912	1471992979041	1471992979132		79
5622	60414	The Atlanta Hawks held Indiana to the lowest points total ever.	The Atlanta Hawks held Indiana to the lowest points total ever.	2874920	1471992979158	1471992979287		87
5622	60414	The Atlanta Hawks held Indiana to the lowest points total ever.	The Atlanta Hawks held Indiana to the lowest points total ever.	2874923	1471992979243	1471992979372		69
5622	60414	The Atlanta Hawks held Indiana to the lowest points total ever.	The Atlanta Hawks held Indiana to the lowest points total ever.	2874927	1471992979479	1471992979572		83
5622	60414	The Atlanta Hawks held Indiana to the lowest points total ever.	The Atlanta Hawks held Indiana to the lowest points total ever.	2874932	1471992979584	1471992979713		84
5622	60414	The Atlanta Hawks held Indiana to the lowest points total ever.	The Atlanta Hawks held Indiana to the lowest points total ever.	2874962	1471992979684	1471992979803		32
5622	60414	The Atlanta Hawks held Indiana to the lowest points total ever.	The Atlanta Hawks held Indiana to the lowest points total ever.	2874966	1471992979778	1471992979874		80
5622	60414	The Atlanta Hawks held Indiana to the lowest points total ever.	The Atlanta Hawks held Indiana to the lowest points total ever.	2874972	1471992979868	1471992980062		79
5622	60414	The Atlanta Hawks held Indiana to the lowest points total ever.	The Atlanta Hawks held Indiana to the lowest points total ever.	2874976	1471992979936	1471992980094		73
5622	60414	The Atlanta Hawks held Indiana to the lowest points total ever.	The Atlanta Hawks held Indiana to the lowest points total ever.	2874979	1471992980106	1471992980194		78
5622	60414	The Atlanta Hawks held Indiana to the lowest points total ever.	The Atlanta Hawks held Indiana to the lowest points total ever.	2874981	1471992980320	1471992980415		84
5622	60414	The Atlanta Hawks held Indiana to the lowest points total ever.	The Atlanta Hawks held Indiana to the lowest points total ever.	2875010	1471992980514	1471992980641		83
5622	60414	The Atlanta Hawks held Indiana to the lowest points total ever.	The Atlanta Hawks held Indiana to the lowest points total ever.	2875017	1471992980641	1471992980735		32
5622	60414	The Atlanta Hawks held Indiana to the lowest points total ever.	The Atlanta Hawks held Indiana to the lowest points total ever.	2875024	1471992980976	1471992981061		84
5622	60414	The Atlanta Hawks held Indiana to the lowest points total ever.	The Atlanta Hawks held Indiana to the lowest points total ever.	2875031	1471992981062	1471992981126		79
5622	60414	The Atlanta Hawks held Indiana to the lowest points total ever.	The Atlanta Hawks held Indiana to the lowest points total ever.	2875039	1471992981215	1471992981291		84
5622	60414	The Atlanta Hawks held Indiana to the lowest points total ever.	The Atlanta Hawks held Indiana to the lowest points total ever.	2875058	1471992981343	1471992981472		65
5622	60414	The Atlanta Hawks held Indiana to the lowest points total ever.	The Atlanta Hawks held Indiana to the lowest points total ever.	2875063	1471992981438	1471992981505		76
5622	60414	The Atlanta Hawks held Indiana to the lowest points total ever.	The Atlanta Hawks held Indiana to the lowest points total ever.	2875068	1471992981579	1471992981666		32
5622	60414	The Atlanta Hawks held Indiana to the lowest points total ever.	The Atlanta Hawks held Indiana to the lowest points total ever.	2875072	1471992981690	1471992981796		69
5622	60414	The Atlanta Hawks held Indiana to the lowest points total ever.	The Atlanta Hawks held Indiana to the lowest points total ever.	2875075	1471992981860	1471992981924		86
5622	60414	The Atlanta Hawks held Indiana to the lowest points total ever.	The Atlanta Hawks held Indiana to the lowest points total ever.	2875084	1471992981990	1471992982069		69
5622	60414	The Atlanta Hawks held Indiana to the lowest points total ever.	The Atlanta Hawks held Indiana to the lowest points total ever.	2875088	1471992982054	1471992982126		82
5622	60414	The Atlanta Hawks held Indiana to the lowest points total ever.	The Atlanta Hawks held Indiana to the lowest points total ever.	2875090	1471992982127	1471992982201		190
5622	60425	Washington was not moving toward a unilateral lifting of the embargo.	Washington was not moving toward a unilateral lifting of the embargo.	2875188	1471992984510	1471992984864	SHIFT	16
5622	60425	Washington was not moving toward a unilateral lifting of the embargo.	Washington was not moving toward a unilateral lifting of the embargo.	2875189	1471992984778	1471992984888		87
5622	60425	Washington was not moving toward a unilateral lifting of the embargo.	Washington was not moving toward a unilateral lifting of the embargo.	2875190	1471992984961	1471992985071		65
5622	60425	Washington was not moving toward a unilateral lifting of the embargo.	Washington was not moving toward a unilateral lifting of the embargo.	2875191	1471992985124	1471992985229		83
5622	60425	Washington was not moving toward a unilateral lifting of the embargo.	Washington was not moving toward a unilateral lifting of the embargo.	2875193	1471992985209	1471992985293		72
5622	60425	Washington was not moving toward a unilateral lifting of the embargo.	Washington was not moving toward a unilateral lifting of the embargo.	2875198	1471992985340	1471992985405		73
5622	60425	Washington was not moving toward a unilateral lifting of the embargo.	Washington was not moving toward a unilateral lifting of the embargo.	2875209	1471992985448	1471992985516		78
5622	60425	Washington was not moving toward a unilateral lifting of the embargo.	Washington was not moving toward a unilateral lifting of the embargo.	2875211	1471992985545	1471992985619		71
5622	60425	Washington was not moving toward a unilateral lifting of the embargo.	Washington was not moving toward a unilateral lifting of the embargo.	2875213	1471992986179	1471992986268		84
5622	60425	Washington was not moving toward a unilateral lifting of the embargo.	Washington was not moving toward a unilateral lifting of the embargo.	2875215	1471992986273	1471992986359		79
5622	60425	Washington was not moving toward a unilateral lifting of the embargo.	Washington was not moving toward a unilateral lifting of the embargo.	2875235	1471992986357	1471992986440		78
5622	60425	Washington was not moving toward a unilateral lifting of the embargo.	Washington was not moving toward a unilateral lifting of the embargo.	2875238	1471992986497	1471992986592		32
5622	60425	Washington was not moving toward a unilateral lifting of the embargo.	Washington was not moving toward a unilateral lifting of the embargo.	2875242	1471992986719	1471992986850		87
5622	60425	Washington was not moving toward a unilateral lifting of the embargo.	Washington was not moving toward a unilateral lifting of the embargo.	2875245	1471992986849	1471992986987		65
5622	60425	Washington was not moving toward a unilateral lifting of the embargo.	Washington was not moving toward a unilateral lifting of the embargo.	2875249	1471992987040	1471992987146		83
5622	60425	Washington was not moving toward a unilateral lifting of the embargo.	Washington was not moving toward a unilateral lifting of the embargo.	2875254	1471992987104	1471992987236		32
5622	60425	Washington was not moving toward a unilateral lifting of the embargo.	Washington was not moving toward a unilateral lifting of the embargo.	2875256	1471992987192	1471992987269		78
5622	60425	Washington was not moving toward a unilateral lifting of the embargo.	Washington was not moving toward a unilateral lifting of the embargo.	2875258	1471992987303	1471992987372		79
5622	60425	Washington was not moving toward a unilateral lifting of the embargo.	Washington was not moving toward a unilateral lifting of the embargo.	2875260	1471992987370	1471992987476		84
5622	60425	Washington was not moving toward a unilateral lifting of the embargo.	Washington was not moving toward a unilateral lifting of the embargo.	2875264	1471992987447	1471992987543		32
5622	60425	Washington was not moving toward a unilateral lifting of the embargo.	Washington was not moving toward a unilateral lifting of the embargo.	2875268	1471992987544	1471992987608		77
5622	60425	Washington was not moving toward a unilateral lifting of the embargo.	Washington was not moving toward a unilateral lifting of the embargo.	2875288	1471992987664	1471992987769		79
5622	60425	Washington was not moving toward a unilateral lifting of the embargo.	Washington was not moving toward a unilateral lifting of the embargo.	2875291	1471992987766	1471992987832		86
5622	60425	Washington was not moving toward a unilateral lifting of the embargo.	Washington was not moving toward a unilateral lifting of the embargo.	2875294	1471992987956	1471992988019		73
5622	60425	Washington was not moving toward a unilateral lifting of the embargo.	Washington was not moving toward a unilateral lifting of the embargo.	2875298	1471992988087	1471992988169		78
5622	60425	Washington was not moving toward a unilateral lifting of the embargo.	Washington was not moving toward a unilateral lifting of the embargo.	2875302	1471992988213	1471992988310		71
5622	60425	Washington was not moving toward a unilateral lifting of the embargo.	Washington was not moving toward a unilateral lifting of the embargo.	2875335	1471992988299	1471992988406		32
5622	60425	Washington was not moving toward a unilateral lifting of the embargo.	Washington was not moving toward a unilateral lifting of the embargo.	2875337	1471992988511	1471992988601		84
5622	60425	Washington was not moving toward a unilateral lifting of the embargo.	Washington was not moving toward a unilateral lifting of the embargo.	2875339	1471992988621	1471992988694		79
5622	60425	Washington was not moving toward a unilateral lifting of the embargo.	Washington was not moving toward a unilateral lifting of the embargo.	2875341	1471992988729	1471992988859		87
5622	60425	Washington was not moving toward a unilateral lifting of the embargo.	Washington was not moving toward a unilateral lifting of the embargo.	2875345	1471992988898	1471992989048		65
5622	60425	Washington was not moving toward a unilateral lifting of the embargo.	Washington was not moving toward a unilateral lifting of the embargo.	2875349	1471992989546	1471992989630		82
5622	60425	Washington was not moving toward a unilateral lifting of the embargo.	Washington was not moving toward a unilateral lifting of the embargo.	2875374	1471992989714	1471992989842		68
5622	60425	Washington was not moving toward a unilateral lifting of the embargo.	Washington was not moving toward a unilateral lifting of the embargo.	2875375	1471992989831	1471992989930		32
5622	60425	Washington was not moving toward a unilateral lifting of the embargo.	Washington was not moving toward a unilateral lifting of the embargo.	2875379	1471992989995	1471992990088		65
5622	60425	Washington was not moving toward a unilateral lifting of the embargo.	Washington was not moving toward a unilateral lifting of the embargo.	2875382	1471992990123	1471992990200		32
5622	60425	Washington was not moving toward a unilateral lifting of the embargo.	Washington was not moving toward a unilateral lifting of the embargo.	2875386	1471992990273	1471992990338		78
5622	60425	Washington was not moving toward a unilateral lifting of the embargo.	Washington was not moving toward a unilateral lifting of the embargo.	2875429	1471992990394	1471992990449		73
5622	60425	Washington was not moving toward a unilateral lifting of the embargo.	Washington was not moving toward a unilateral lifting of the embargo.	2875436	1471992990983	1471992991038		8
5622	60425	Washington was not moving toward a unilateral lifting of the embargo.	Washington was not moving toward a unilateral lifting of the embargo.	2875442	1471992991135	1471992991200		8
5622	60425	Washington was not moving toward a unilateral lifting of the embargo.	Washington was not moving toward a unilateral lifting of the embargo.	2875448	1471992991332	1471992991404		85
5622	60425	Washington was not moving toward a unilateral lifting of the embargo.	Washington was not moving toward a unilateral lifting of the embargo.	2875452	1471992991530	1471992991603		78
5622	60425	Washington was not moving toward a unilateral lifting of the embargo.	Washington was not moving toward a unilateral lifting of the embargo.	2875465	1471992991668	1471992991741		73
5622	60425	Washington was not moving toward a unilateral lifting of the embargo.	Washington was not moving toward a unilateral lifting of the embargo.	2875467	1471992991913	1471992991994		76
5622	60425	Washington was not moving toward a unilateral lifting of the embargo.	Washington was not moving toward a unilateral lifting of the embargo.	2875469	1471992992028	1471992992123		65
5622	60425	Washington was not moving toward a unilateral lifting of the embargo.	Washington was not moving toward a unilateral lifting of the embargo.	2875472	1471992992161	1471992992243		84
5622	60425	Washington was not moving toward a unilateral lifting of the embargo.	Washington was not moving toward a unilateral lifting of the embargo.	2875476	1471992992300	1471992992422		69
5622	60425	Washington was not moving toward a unilateral lifting of the embargo.	Washington was not moving toward a unilateral lifting of the embargo.	2875505	1471992992414	1471992992484		82
5622	60425	Washington was not moving toward a unilateral lifting of the embargo.	Washington was not moving toward a unilateral lifting of the embargo.	2875507	1471992992546	1471992992675		65
5622	60425	Washington was not moving toward a unilateral lifting of the embargo.	Washington was not moving toward a unilateral lifting of the embargo.	2875510	1471992992675	1471992992739		76
5622	60425	Washington was not moving toward a unilateral lifting of the embargo.	Washington was not moving toward a unilateral lifting of the embargo.	2875513	1471992992763	1471992992836		32
5622	60425	Washington was not moving toward a unilateral lifting of the embargo.	Washington was not moving toward a unilateral lifting of the embargo.	2875516	1471992992933	1471992993009		76
5622	60425	Washington was not moving toward a unilateral lifting of the embargo.	Washington was not moving toward a unilateral lifting of the embargo.	2875519	1471992993084	1471992993160		73
5622	60425	Washington was not moving toward a unilateral lifting of the embargo.	Washington was not moving toward a unilateral lifting of the embargo.	2875540	1471992993147	1471992993223		70
5622	60425	Washington was not moving toward a unilateral lifting of the embargo.	Washington was not moving toward a unilateral lifting of the embargo.	2875544	1471992993332	1471992993417		84
5622	60425	Washington was not moving toward a unilateral lifting of the embargo.	Washington was not moving toward a unilateral lifting of the embargo.	2875547	1471992993385	1471992993429		73
5622	60425	Washington was not moving toward a unilateral lifting of the embargo.	Washington was not moving toward a unilateral lifting of the embargo.	2875551	1471992993517	1471992993612		78
5622	60425	Washington was not moving toward a unilateral lifting of the embargo.	Washington was not moving toward a unilateral lifting of the embargo.	2875554	1471992993610	1471992993712		71
5622	60425	Washington was not moving toward a unilateral lifting of the embargo.	Washington was not moving toward a unilateral lifting of the embargo.	2875576	1471992993710	1471992993790		32
5622	60425	Washington was not moving toward a unilateral lifting of the embargo.	Washington was not moving toward a unilateral lifting of the embargo.	2875577	1471992993776	1471992993863		79
5622	60425	Washington was not moving toward a unilateral lifting of the embargo.	Washington was not moving toward a unilateral lifting of the embargo.	2875578	1471992993907	1471992994001		70
5622	60425	Washington was not moving toward a unilateral lifting of the embargo.	Washington was not moving toward a unilateral lifting of the embargo.	2875581	1471992994036	1471992994124		32
5622	60425	Washington was not moving toward a unilateral lifting of the embargo.	Washington was not moving toward a unilateral lifting of the embargo.	2875583	1471992994112	1471992994191		84
5622	60425	Washington was not moving toward a unilateral lifting of the embargo.	Washington was not moving toward a unilateral lifting of the embargo.	2875585	1471992994192	1471992994256		72
5622	60425	Washington was not moving toward a unilateral lifting of the embargo.	Washington was not moving toward a unilateral lifting of the embargo.	2875612	1471992994269	1471992994406		69
5622	60425	Washington was not moving toward a unilateral lifting of the embargo.	Washington was not moving toward a unilateral lifting of the embargo.	2875615	1471992994364	1471992994461		32
5622	60425	Washington was not moving toward a unilateral lifting of the embargo.	Washington was not moving toward a unilateral lifting of the embargo.	2875618	1471992994598	1471992994705		69
5622	60425	Washington was not moving toward a unilateral lifting of the embargo.	Washington was not moving toward a unilateral lifting of the embargo.	2875622	1471992994717	1471992994791		77
5622	60425	Washington was not moving toward a unilateral lifting of the embargo.	Washington was not moving toward a unilateral lifting of the embargo.	2875625	1471992994891	1471992994955		66
5622	60425	Washington was not moving toward a unilateral lifting of the embargo.	Washington was not moving toward a unilateral lifting of the embargo.	2875650	1471992995007	1471992995105		65
5622	60425	Washington was not moving toward a unilateral lifting of the embargo.	Washington was not moving toward a unilateral lifting of the embargo.	2875653	1471992995085	1471992995170		82
5622	60425	Washington was not moving toward a unilateral lifting of the embargo.	Washington was not moving toward a unilateral lifting of the embargo.	2875657	1471992995267	1471992995352		71
5622	60425	Washington was not moving toward a unilateral lifting of the embargo.	Washington was not moving toward a unilateral lifting of the embargo.	2875662	1471992995395	1471992995460		79
5622	60425	Washington was not moving toward a unilateral lifting of the embargo.	Washington was not moving toward a unilateral lifting of the embargo.	2875665	1471992995586	1471992995651		190
5622	60440	I will tell them.	I will tell them.	2875773	1471992997641	1471992998017	SHIFT	16
5622	60440	I will tell them.	I will tell them.	2875776	1471992997953	1471992998032		73
5622	60440	I will tell them.	I will tell them.	2875779	1471992998044	1471992998130		32
5622	60440	I will tell them.	I will tell them.	2875780	1471992998128	1471992998222		87
5622	60440	I will tell them.	I will tell them.	2875782	1471992998175	1471992998260		73
5622	60440	I will tell them.	I will tell them.	2875784	1471992998349	1471992998391		76
5622	60440	I will tell them.	I will tell them.	2875789	1471992998478	1471992998558		76
5622	60440	I will tell them.	I will tell them.	2875791	1471992998557	1471992998633		32
5622	60440	I will tell them.	I will tell them.	2875794	1471992998609	1471992998688		84
5622	60440	I will tell them.	I will tell them.	2875796	1471992998742	1471992998820		69
5622	60440	I will tell them.	I will tell them.	2875812	1471992998782	1471992998849		76
5622	60440	I will tell them.	I will tell them.	2875814	1471992998938	1471992999023		76
5622	60440	I will tell them.	I will tell them.	2875816	1471992999043	1471992999139		32
5622	60440	I will tell them.	I will tell them.	2875818	1471992999132	1471992999219		84
5622	60440	I will tell them.	I will tell them.	2875821	1471992999230	1471992999332		72
5622	60440	I will tell them.	I will tell them.	2875824	1471992999361	1471992999457		69
5622	60440	I will tell them.	I will tell them.	2875864	1471992999463	1471992999586		77
5622	60440	I will tell them.	I will tell them.	2875867	1471992999650	1471992999715		59
5622	60440	I will tell them.	I will tell them.	2875870	1471993000172	1471993000236		8
5622	60440	I will tell them.	I will tell them.	2875873	1471993000405	1471993000481		190
5622	60445	You'll receive the brand new Palm OS v4.	You'll receive the brand you Palm OS v4.	2876008	1471993002498	1471993002865	SHIFT	16
5622	60445	You'll receive the brand new Palm OS v4.	You'll receive the brand you Palm OS v4.	2876012	1471993002810	1471993002900		89
5622	60445	You'll receive the brand new Palm OS v4.	You'll receive the brand you Palm OS v4.	2876018	1471993002964	1471993003070		79
5622	60445	You'll receive the brand new Palm OS v4.	You'll receive the brand you Palm OS v4.	2876023	1471993003041	1471993003159		85
5622	60445	You'll receive the brand new Palm OS v4.	You'll receive the brand you Palm OS v4.	2876028	1471993003448	1471993003566		222
5622	60445	You'll receive the brand new Palm OS v4.	You'll receive the brand you Palm OS v4.	2876032	1471993003682	1471993003747		76
5622	60445	You'll receive the brand new Palm OS v4.	You'll receive the brand you Palm OS v4.	2876033	1471993003829	1471993003941		76
5622	60445	You'll receive the brand new Palm OS v4.	You'll receive the brand you Palm OS v4.	2876035	1471993003929	1471993004014		32
5622	60445	You'll receive the brand new Palm OS v4.	You'll receive the brand you Palm OS v4.	2876039	1471993004079	1471993004176		82
5622	60445	You'll receive the brand new Palm OS v4.	You'll receive the brand you Palm OS v4.	2876040	1471993004208	1471993004305		69
5622	60445	You'll receive the brand new Palm OS v4.	You'll receive the brand you Palm OS v4.	2876044	1471993004399	1471993004510		67
5622	60445	You'll receive the brand new Palm OS v4.	You'll receive the brand you Palm OS v4.	2876062	1471993004573	1471993004688		69
5622	60445	You'll receive the brand new Palm OS v4.	You'll receive the brand you Palm OS v4.	2876066	1471993004826	1471993004908		73
5622	60445	You'll receive the brand new Palm OS v4.	You'll receive the brand you Palm OS v4.	2876069	1471993004943	1471993005037		86
5622	60445	You'll receive the brand new Palm OS v4.	You'll receive the brand you Palm OS v4.	2876073	1471993005093	1471993005175		69
5622	60445	You'll receive the brand new Palm OS v4.	You'll receive the brand you Palm OS v4.	2876078	1471993005275	1471993005390		32
5622	60445	You'll receive the brand new Palm OS v4.	You'll receive the brand you Palm OS v4.	2876091	1471993005431	1471993005521		84
5622	60445	You'll receive the brand new Palm OS v4.	You'll receive the brand you Palm OS v4.	2876094	1471993005486	1471993005562		72
5622	60445	You'll receive the brand new Palm OS v4.	You'll receive the brand you Palm OS v4.	2876096	1471993005588	1471993005720		69
5622	60445	You'll receive the brand new Palm OS v4.	You'll receive the brand you Palm OS v4.	2876099	1471993005683	1471993005782		32
5622	60445	You'll receive the brand new Palm OS v4.	You'll receive the brand you Palm OS v4.	2876102	1471993005910	1471993005976		66
5622	60445	You'll receive the brand new Palm OS v4.	You'll receive the brand you Palm OS v4.	2876126	1471993006113	1471993006227		82
5622	60445	You'll receive the brand new Palm OS v4.	You'll receive the brand you Palm OS v4.	2876131	1471993006241	1471993006355		65
5622	60445	You'll receive the brand new Palm OS v4.	You'll receive the brand you Palm OS v4.	2876134	1471993006370	1471993006443		78
5622	60445	You'll receive the brand new Palm OS v4.	You'll receive the brand you Palm OS v4.	2876136	1471993006488	1471993006617		68
5622	60445	You'll receive the brand new Palm OS v4.	You'll receive the brand you Palm OS v4.	2876155	1471993006574	1471993006681		32
5622	60445	You'll receive the brand new Palm OS v4.	You'll receive the brand you Palm OS v4.	2876156	1471993006808	1471993006885		89
5622	60445	You'll receive the brand new Palm OS v4.	You'll receive the brand you Palm OS v4.	2876158	1471993006975	1471993007096		79
5622	60445	You'll receive the brand new Palm OS v4.	You'll receive the brand you Palm OS v4.	2876159	1471993007063	1471993007172		85
5622	60445	You'll receive the brand new Palm OS v4.	You'll receive the brand you Palm OS v4.	2876160	1471993007142	1471993007219		32
5622	60445	You'll receive the brand new Palm OS v4.	You'll receive the brand you Palm OS v4.	2876161	1471993007239	1471993007392	SHIFT	16
5622	60445	You'll receive the brand new Palm OS v4.	You'll receive the brand you Palm OS v4.	2876188	1471993007331	1471993007456		80
5622	60445	You'll receive the brand new Palm OS v4.	You'll receive the brand you Palm OS v4.	2876189	1471993007480	1471993007585		65
5622	60445	You'll receive the brand new Palm OS v4.	You'll receive the brand you Palm OS v4.	2876190	1471993007609	1471993007715		76
5622	60445	You'll receive the brand new Palm OS v4.	You'll receive the brand you Palm OS v4.	2876191	1471993008066	1471993008154		77
5622	60445	You'll receive the brand new Palm OS v4.	You'll receive the brand you Palm OS v4.	2876192	1471993008186	1471993008283		32
5622	60445	You'll receive the brand new Palm OS v4.	You'll receive the brand you Palm OS v4.	2876227	1471993008315	1471993008921	SHIFT	16
5622	60445	You'll receive the brand new Palm OS v4.	You'll receive the brand you Palm OS v4.	2876193	1471993008423	1471993008516		79
5622	60445	You'll receive the brand new Palm OS v4.	You'll receive the brand you Palm OS v4.	2876226	1471993008789	1471993008915		83
5622	60445	You'll receive the brand new Palm OS v4.	You'll receive the brand you Palm OS v4.	2876228	1471993008982	1471993009059		32
5622	60445	You'll receive the brand new Palm OS v4.	You'll receive the brand you Palm OS v4.	2876230	1471993009173	1471993009268		86
5622	60445	You'll receive the brand new Palm OS v4.	You'll receive the brand you Palm OS v4.	2876270	1471993009457	1471993009588		52
5622	60445	You'll receive the brand new Palm OS v4.	You'll receive the brand you Palm OS v4.	2876275	1471993009944	1471993010018		8
5622	60445	You'll receive the brand new Palm OS v4.	You'll receive the brand you Palm OS v4.	2876281	1471993010312	1471993010404		190
5622	60454	ENA is not purchasing Westport's gas at this time.	ENA is not purchasing Westport's gas at this time.	2876419	1471993012242	1471993012938	SHIFT	16
5622	60454	ENA is not purchasing Westport's gas at this time.	ENA is not purchasing Westport's gas at this time.	2876409	1471993012554	1471993012683		69
5622	60454	ENA is not purchasing Westport's gas at this time.	ENA is not purchasing Westport's gas at this time.	2876413	1471993012684	1471993012747		78
5622	60454	ENA is not purchasing Westport's gas at this time.	ENA is not purchasing Westport's gas at this time.	2876429	1471993012815	1471993012954		65
5622	60454	ENA is not purchasing Westport's gas at this time.	ENA is not purchasing Westport's gas at this time.	2876437	1471993012964	1471993013071		32
5622	60454	ENA is not purchasing Westport's gas at this time.	ENA is not purchasing Westport's gas at this time.	2876443	1471993013147	1471993013230		73
5622	60454	ENA is not purchasing Westport's gas at this time.	ENA is not purchasing Westport's gas at this time.	2876453	1471993013241	1471993013331		83
5622	60454	ENA is not purchasing Westport's gas at this time.	ENA is not purchasing Westport's gas at this time.	2876456	1471993013352	1471993013426		32
5622	60454	ENA is not purchasing Westport's gas at this time.	ENA is not purchasing Westport's gas at this time.	2876460	1471993013438	1471993013526		78
5622	60454	ENA is not purchasing Westport's gas at this time.	ENA is not purchasing Westport's gas at this time.	2876463	1471993013549	1471993013658		79
5622	60454	ENA is not purchasing Westport's gas at this time.	ENA is not purchasing Westport's gas at this time.	2876488	1471993013657	1471993013767		84
5622	60454	ENA is not purchasing Westport's gas at this time.	ENA is not purchasing Westport's gas at this time.	2876492	1471993013763	1471993013853		32
5622	60454	ENA is not purchasing Westport's gas at this time.	ENA is not purchasing Westport's gas at this time.	2876495	1471993013892	1471993014014		80
5622	60454	ENA is not purchasing Westport's gas at this time.	ENA is not purchasing Westport's gas at this time.	2876498	1471993014012	1471993014089		85
5622	60454	ENA is not purchasing Westport's gas at this time.	ENA is not purchasing Westport's gas at this time.	2876500	1471993014078	1471993014176		82
5622	60454	ENA is not purchasing Westport's gas at this time.	ENA is not purchasing Westport's gas at this time.	2876503	1471993014307	1471993014409		67
5622	60454	ENA is not purchasing Westport's gas at this time.	ENA is not purchasing Westport's gas at this time.	2876514	1471993014398	1471993014473		72
5622	60454	ENA is not purchasing Westport's gas at this time.	ENA is not purchasing Westport's gas at this time.	2876516	1471993014500	1471993014605		65
5622	60454	ENA is not purchasing Westport's gas at this time.	ENA is not purchasing Westport's gas at this time.	2876519	1471993014690	1471993014772		83
5622	60454	ENA is not purchasing Westport's gas at this time.	ENA is not purchasing Westport's gas at this time.	2876523	1471993014755	1471993014834		73
5622	60454	ENA is not purchasing Westport's gas at this time.	ENA is not purchasing Westport's gas at this time.	2876524	1471993014855	1471993014956		78
5622	60454	ENA is not purchasing Westport's gas at this time.	ENA is not purchasing Westport's gas at this time.	2876567	1471993014955	1471993015044		71
5622	60454	ENA is not purchasing Westport's gas at this time.	ENA is not purchasing Westport's gas at this time.	2876573	1471993015042	1471993015116		32
5622	60454	ENA is not purchasing Westport's gas at this time.	ENA is not purchasing Westport's gas at this time.	2876577	1471993015190	1471993015404	SHIFT	16
5622	60454	ENA is not purchasing Westport's gas at this time.	ENA is not purchasing Westport's gas at this time.	2876580	1471993015342	1471993015468		87
5622	60454	ENA is not purchasing Westport's gas at this time.	ENA is not purchasing Westport's gas at this time.	2876584	1471993015511	1471993015598		69
5622	60454	ENA is not purchasing Westport's gas at this time.	ENA is not purchasing Westport's gas at this time.	2876587	1471993015702	1471993015792		83
5622	60454	ENA is not purchasing Westport's gas at this time.	ENA is not purchasing Westport's gas at this time.	2876589	1471993015866	1471993015948		84
5622	60454	ENA is not purchasing Westport's gas at this time.	ENA is not purchasing Westport's gas at this time.	2876638	1471993016107	1471993016192		80
5622	60454	ENA is not purchasing Westport's gas at this time.	ENA is not purchasing Westport's gas at this time.	2876643	1471993016319	1471993016424		79
5622	60454	ENA is not purchasing Westport's gas at this time.	ENA is not purchasing Westport's gas at this time.	2876649	1471993016551	1471993016627		82
5622	60454	ENA is not purchasing Westport's gas at this time.	ENA is not purchasing Westport's gas at this time.	2876655	1471993016816	1471993016931		84
5622	60454	ENA is not purchasing Westport's gas at this time.	ENA is not purchasing Westport's gas at this time.	2876661	1471993017243	1471993017346		222
5622	60454	ENA is not purchasing Westport's gas at this time.	ENA is not purchasing Westport's gas at this time.	2876691	1471993017401	1471993017501		83
5622	60454	ENA is not purchasing Westport's gas at this time.	ENA is not purchasing Westport's gas at this time.	2876693	1471993017502	1471993017595		32
5622	60454	ENA is not purchasing Westport's gas at this time.	ENA is not purchasing Westport's gas at this time.	2876694	1471993017630	1471993017697		71
5622	60454	ENA is not purchasing Westport's gas at this time.	ENA is not purchasing Westport's gas at this time.	2876695	1471993017760	1471993017836		65
5622	60454	ENA is not purchasing Westport's gas at this time.	ENA is not purchasing Westport's gas at this time.	2876696	1471993017891	1471993018017		83
5622	60454	ENA is not purchasing Westport's gas at this time.	ENA is not purchasing Westport's gas at this time.	2876728	1471993018019	1471993018113		32
5622	60454	ENA is not purchasing Westport's gas at this time.	ENA is not purchasing Westport's gas at this time.	2876732	1471993018209	1471993018303		65
5622	60454	ENA is not purchasing Westport's gas at this time.	ENA is not purchasing Westport's gas at this time.	2876737	1471993018314	1471993018414		84
5622	60454	ENA is not purchasing Westport's gas at this time.	ENA is not purchasing Westport's gas at this time.	2876741	1471993018435	1471993018534		32
5622	60454	ENA is not purchasing Westport's gas at this time.	ENA is not purchasing Westport's gas at this time.	2876745	1471993018535	1471993018623		84
5622	60454	ENA is not purchasing Westport's gas at this time.	ENA is not purchasing Westport's gas at this time.	2876765	1471993018611	1471993018678		72
5622	60454	ENA is not purchasing Westport's gas at this time.	ENA is not purchasing Westport's gas at this time.	2876769	1471993018732	1471993018812		73
5622	60454	ENA is not purchasing Westport's gas at this time.	ENA is not purchasing Westport's gas at this time.	2876773	1471993018810	1471993018929		83
5622	60454	ENA is not purchasing Westport's gas at this time.	ENA is not purchasing Westport's gas at this time.	2876777	1471993018903	1471993018995		32
5622	60454	ENA is not purchasing Westport's gas at this time.	ENA is not purchasing Westport's gas at this time.	2876779	1471993018969	1471993019065		84
5622	60454	ENA is not purchasing Westport's gas at this time.	ENA is not purchasing Westport's gas at this time.	2876793	1471993019059	1471993019127		73
5622	60454	ENA is not purchasing Westport's gas at this time.	ENA is not purchasing Westport's gas at this time.	2876796	1471993019168	1471993019258		77
5622	60454	ENA is not purchasing Westport's gas at this time.	ENA is not purchasing Westport's gas at this time.	2876798	1471993019223	1471993019323		69
5622	60454	ENA is not purchasing Westport's gas at this time.	ENA is not purchasing Westport's gas at this time.	2876800	1471993019356	1471993019453		190
5622	60464	The delegation is to visit a metal works.	The delegation is to visit a metal works.	2876990	1471993023362	1471993023520	SHIFT	16
5622	60464	The delegation is to visit a metal works.	The delegation is to visit a metal works.	2876994	1471993023465	1471993023570		84
5622	60464	The delegation is to visit a metal works.	The delegation is to visit a metal works.	2876996	1471993023556	1471993023623		72
5622	60464	The delegation is to visit a metal works.	The delegation is to visit a metal works.	2876999	1471993023663	1471993023787		69
5622	60464	The delegation is to visit a metal works.	The delegation is to visit a metal works.	2877003	1471993023788	1471993023874		32
5622	60464	The delegation is to visit a metal works.	The delegation is to visit a metal works.	2877007	1471993024001	1471993024077		68
5622	60464	The delegation is to visit a metal works.	The delegation is to visit a metal works.	2877056	1471993024255	1471993024349		69
5622	60464	The delegation is to visit a metal works.	The delegation is to visit a metal works.	2877059	1471993024476	1471993024539		76
5622	60464	The delegation is to visit a metal works.	The delegation is to visit a metal works.	2877060	1471993024604	1471993024702		69
5622	60464	The delegation is to visit a metal works.	The delegation is to visit a metal works.	2877062	1471993024830	1471993024922		71
5622	60464	The delegation is to visit a metal works.	The delegation is to visit a metal works.	2877064	1471993024995	1471993025095		65
5622	60464	The delegation is to visit a metal works.	The delegation is to visit a metal works.	2877067	1471993025106	1471993025180		84
5622	60464	The delegation is to visit a metal works.	The delegation is to visit a metal works.	2877070	1471993025192	1471993025282		73
5622	60464	The delegation is to visit a metal works.	The delegation is to visit a metal works.	2877074	1471993025283	1471993025379		79
5622	60464	The delegation is to visit a metal works.	The delegation is to visit a metal works.	2877079	1471993025348	1471993025447		78
5622	60464	The delegation is to visit a metal works.	The delegation is to visit a metal works.	2877105	1471993025436	1471993025520		32
5622	60464	The delegation is to visit a metal works.	The delegation is to visit a metal works.	2877110	1471993025546	1471993025611		73
5622	60464	The delegation is to visit a metal works.	The delegation is to visit a metal works.	2877113	1471993025616	1471993025716		83
5622	60464	The delegation is to visit a metal works.	The delegation is to visit a metal works.	2877118	1471993025742	1471993025822		32
5622	60464	The delegation is to visit a metal works.	The delegation is to visit a metal works.	2877121	1471993025807	1471993025888		84
5622	60464	The delegation is to visit a metal works.	The delegation is to visit a metal works.	2877123	1471993025889	1471993025984		79
5622	60464	The delegation is to visit a metal works.	The delegation is to visit a metal works.	2877142	1471993025982	1471993026070		32
5622	60464	The delegation is to visit a metal works.	The delegation is to visit a metal works.	2877143	1471993026147	1471993026232		86
5622	60464	The delegation is to visit a metal works.	The delegation is to visit a metal works.	2877144	1471993026212	1471993026288		73
5622	60464	The delegation is to visit a metal works.	The delegation is to visit a metal works.	2877147	1471993026343	1471993026426		83
5622	60464	The delegation is to visit a metal works.	The delegation is to visit a metal works.	2877151	1471993026491	1471993026555		73
5622	60464	The delegation is to visit a metal works.	The delegation is to visit a metal works.	2877155	1471993026620	1471993026740		84
5622	60464	The delegation is to visit a metal works.	The delegation is to visit a metal works.	2877191	1471993026729	1471993026813		32
5622	60464	The delegation is to visit a metal works.	The delegation is to visit a metal works.	2877194	1471993026870	1471993026987		65
5622	60464	The delegation is to visit a metal works.	The delegation is to visit a metal works.	2877199	1471993027017	1471993027104		32
5622	60464	The delegation is to visit a metal works.	The delegation is to visit a metal works.	2877202	1471993027118	1471993027201		77
5622	60464	The delegation is to visit a metal works.	The delegation is to visit a metal works.	2877205	1471993027212	1471993027300		69
5622	60464	The delegation is to visit a metal works.	The delegation is to visit a metal works.	2877207	1471993027490	1471993027553		84
5622	60464	The delegation is to visit a metal works.	The delegation is to visit a metal works.	2877229	1471993027622	1471993027747		65
5622	60464	The delegation is to visit a metal works.	The delegation is to visit a metal works.	2877231	1471993027747	1471993027813		76
5622	60464	The delegation is to visit a metal works.	The delegation is to visit a metal works.	2877235	1471993027887	1471993027941		32
5622	60464	The delegation is to visit a metal works.	The delegation is to visit a metal works.	2877237	1471993028006	1471993028073		87
5622	60464	The delegation is to visit a metal works.	The delegation is to visit a metal works.	2877239	1471993028073	1471993028150		79
5622	60464	The delegation is to visit a metal works.	The delegation is to visit a metal works.	2877300	1471993028175	1471993028243		82
5622	60464	The delegation is to visit a metal works.	The delegation is to visit a metal works.	2877302	1471993028308	1471993028447		75
5622	60464	The delegation is to visit a metal works.	The delegation is to visit a metal works.	2877307	1471993028526	1471993028648		83
5622	60464	The delegation is to visit a metal works.	The delegation is to visit a metal works.	2877313	1471993028980	1471993029055		190
5622	60477	Evaluating a lease offer on Sonoran project.	Evaluating a lease offer on Sonoran project.	2877522	1471993031355	1471993032228	SHIFT	16
5622	60477	Evaluating a lease offer on Sonoran project.	Evaluating a lease offer on Sonoran project.	2877525	1471993032155	1471993032262		69
5622	60477	Evaluating a lease offer on Sonoran project.	Evaluating a lease offer on Sonoran project.	2877534	1471993032334	1471993032412		86
5622	60477	Evaluating a lease offer on Sonoran project.	Evaluating a lease offer on Sonoran project.	2877539	1471993032433	1471993032544		65
5622	60477	Evaluating a lease offer on Sonoran project.	Evaluating a lease offer on Sonoran project.	2877543	1471993032544	1471993032649		76
5622	60477	Evaluating a lease offer on Sonoran project.	Evaluating a lease offer on Sonoran project.	2877548	1471993032745	1471993032818		85
5622	60477	Evaluating a lease offer on Sonoran project.	Evaluating a lease offer on Sonoran project.	2877575	1471993032882	1471993032990		65
5622	60477	Evaluating a lease offer on Sonoran project.	Evaluating a lease offer on Sonoran project.	2877578	1471993033034	1471993033102		84
5622	60477	Evaluating a lease offer on Sonoran project.	Evaluating a lease offer on Sonoran project.	2877582	1471993033163	1471993033228		73
5622	60477	Evaluating a lease offer on Sonoran project.	Evaluating a lease offer on Sonoran project.	2877586	1471993033292	1471993033357		78
5622	60477	Evaluating a lease offer on Sonoran project.	Evaluating a lease offer on Sonoran project.	2877590	1471993033398	1471993033501		71
5622	60477	Evaluating a lease offer on Sonoran project.	Evaluating a lease offer on Sonoran project.	2877634	1471993033487	1471993033575		32
5622	60477	Evaluating a lease offer on Sonoran project.	Evaluating a lease offer on Sonoran project.	2877637	1471993033619	1471993033744		65
5622	60477	Evaluating a lease offer on Sonoran project.	Evaluating a lease offer on Sonoran project.	2877642	1471993033778	1471993033874		32
5622	60477	Evaluating a lease offer on Sonoran project.	Evaluating a lease offer on Sonoran project.	2877647	1471993033897	1471993033971		76
5622	60477	Evaluating a lease offer on Sonoran project.	Evaluating a lease offer on Sonoran project.	2877651	1471993033982	1471993034074		69
5622	60477	Evaluating a lease offer on Sonoran project.	Evaluating a lease offer on Sonoran project.	2877655	1471993034112	1471993034229		65
5622	60477	Evaluating a lease offer on Sonoran project.	Evaluating a lease offer on Sonoran project.	2877669	1471993034240	1471993034414		83
5622	60477	Evaluating a lease offer on Sonoran project.	Evaluating a lease offer on Sonoran project.	2877674	1471993034391	1471993034543		69
5622	60477	Evaluating a lease offer on Sonoran project.	Evaluating a lease offer on Sonoran project.	2877680	1471993034498	1471993034590		32
5622	60477	Evaluating a lease offer on Sonoran project.	Evaluating a lease offer on Sonoran project.	2877684	1471993034602	1471993034675		79
5622	60477	Evaluating a lease offer on Sonoran project.	Evaluating a lease offer on Sonoran project.	2877686	1471993034695	1471993034742		70
5622	60477	Evaluating a lease offer on Sonoran project.	Evaluating a lease offer on Sonoran project.	2877714	1471993034847	1471993034912		70
5622	60477	Evaluating a lease offer on Sonoran project.	Evaluating a lease offer on Sonoran project.	2877720	1471993034978	1471993035106		69
5622	60477	Evaluating a lease offer on Sonoran project.	Evaluating a lease offer on Sonoran project.	2877723	1471993035053	1471993035203		82
5622	60477	Evaluating a lease offer on Sonoran project.	Evaluating a lease offer on Sonoran project.	2877728	1471993035171	1471993035267		32
5622	60477	Evaluating a lease offer on Sonoran project.	Evaluating a lease offer on Sonoran project.	2877735	1471993035279	1471993035381		79
5622	60477	Evaluating a lease offer on Sonoran project.	Evaluating a lease offer on Sonoran project.	2877787	1471993035367	1471993035456		78
5622	60477	Evaluating a lease offer on Sonoran project.	Evaluating a lease offer on Sonoran project.	2877789	1471993035475	1471993035563		32
5622	60477	Evaluating a lease offer on Sonoran project.	Evaluating a lease offer on Sonoran project.	2877794	1471993035628	1471993035830	SHIFT	16
5622	60477	Evaluating a lease offer on Sonoran project.	Evaluating a lease offer on Sonoran project.	2877798	1471993035755	1471993035883		83
5622	60477	Evaluating a lease offer on Sonoran project.	Evaluating a lease offer on Sonoran project.	2877803	1471993035949	1471993036025		79
5622	60477	Evaluating a lease offer on Sonoran project.	Evaluating a lease offer on Sonoran project.	2877809	1471993036054	1471993036141		78
5622	60477	Evaluating a lease offer on Sonoran project.	Evaluating a lease offer on Sonoran project.	2877815	1471993036206	1471993036300		79
5622	60477	Evaluating a lease offer on Sonoran project.	Evaluating a lease offer on Sonoran project.	2877846	1471993036497	1471993036585		82
5622	60477	Evaluating a lease offer on Sonoran project.	Evaluating a lease offer on Sonoran project.	2877850	1471993036650	1471993036747		65
5622	60477	Evaluating a lease offer on Sonoran project.	Evaluating a lease offer on Sonoran project.	2877852	1471993036748	1471993036820		78
5622	60477	Evaluating a lease offer on Sonoran project.	Evaluating a lease offer on Sonoran project.	2877857	1471993036849	1471993036923		32
5622	60477	Evaluating a lease offer on Sonoran project.	Evaluating a lease offer on Sonoran project.	2877862	1471993037037	1471993037135		80
5622	60477	Evaluating a lease offer on Sonoran project.	Evaluating a lease offer on Sonoran project.	2877896	1471993037123	1471993037207		82
5622	60477	Evaluating a lease offer on Sonoran project.	Evaluating a lease offer on Sonoran project.	2877899	1471993037233	1471993037333		79
5622	60477	Evaluating a lease offer on Sonoran project.	Evaluating a lease offer on Sonoran project.	2877900	1471993037402	1471993037489		74
5622	60477	Evaluating a lease offer on Sonoran project.	Evaluating a lease offer on Sonoran project.	2877902	1471993037504	1471993037577		69
5622	60477	Evaluating a lease offer on Sonoran project.	Evaluating a lease offer on Sonoran project.	2877906	1471993037650	1471993037724		67
5622	60477	Evaluating a lease offer on Sonoran project.	Evaluating a lease offer on Sonoran project.	2877910	1471993037825	1471993037900		84
5622	60477	Evaluating a lease offer on Sonoran project.	Evaluating a lease offer on Sonoran project.	2877914	1471993037902	1471993038007		190
5622	60482	We must be consistent.	We must be consistent.	2878092	1471993040441	1471993041262	SHIFT	16
5622	60482	We must be consistent.	We must be consistent.	2878095	1471993041196	1471993041272		87
5622	60482	We must be consistent.	We must be consistent.	2878098	1471993041334	1471993041457		69
5622	60482	We must be consistent.	We must be consistent.	2878103	1471993041435	1471993041532		32
5622	60482	We must be consistent.	We must be consistent.	2878109	1471993041835	1471993041917		77
5622	60482	We must be consistent.	We must be consistent.	2878118	1471993042017	1471993042093		85
5622	60482	We must be consistent.	We must be consistent.	2878132	1471993042082	1471993042167		83
5622	60482	We must be consistent.	We must be consistent.	2878137	1471993042179	1471993042300		84
5622	60482	We must be consistent.	We must be consistent.	2878141	1471993042266	1471993042345		32
5622	60482	We must be consistent.	We must be consistent.	2878146	1471993042365	1471993042430		66
5622	60482	We must be consistent.	We must be consistent.	2878151	1471993042466	1471993042594		69
5622	60482	We must be consistent.	We must be consistent.	2878161	1471993042559	1471993042670		32
5622	60482	We must be consistent.	We must be consistent.	2878163	1471993042848	1471993042977		67
5622	60482	We must be consistent.	We must be consistent.	2878166	1471993042977	1471993043065		79
5622	60482	We must be consistent.	We must be consistent.	2878168	1471993043041	1471993043147		78
5622	60482	We must be consistent.	We must be consistent.	2878172	1471993043185	1471993043276		83
5622	60482	We must be consistent.	We must be consistent.	2878175	1471993043302	1471993043370		73
5622	60482	We must be consistent.	We must be consistent.	2878204	1471993043745	1471993043818		83
5622	60482	We must be consistent.	We must be consistent.	2878206	1471993043883	1471993043956		84
5622	60482	We must be consistent.	We must be consistent.	2878209	1471993043999	1471993044086		69
5622	60482	We must be consistent.	We must be consistent.	2878212	1471993044133	1471993044205		78
5622	60482	We must be consistent.	We must be consistent.	2878216	1471993044270	1471993044353		84
5622	60482	We must be consistent.	We must be consistent.	2878223	1471993044408	1471993044472		190
5622	60493	The cabinet Thursday approved a revised tariff schedule.	The cabinet Thursday approved a revised tariff schedule.	2878342	1471993046401	1471993046904	SHIFT	16
5622	60493	The cabinet Thursday approved a revised tariff schedule.	The cabinet Thursday approved a revised tariff schedule.	2878343	1471993046855	1471993046959		84
5622	60493	The cabinet Thursday approved a revised tariff schedule.	The cabinet Thursday approved a revised tariff schedule.	2878344	1471993046904	1471993046980		72
5622	60493	The cabinet Thursday approved a revised tariff schedule.	The cabinet Thursday approved a revised tariff schedule.	2878346	1471993047035	1471993047205		69
5622	60493	The cabinet Thursday approved a revised tariff schedule.	The cabinet Thursday approved a revised tariff schedule.	2878348	1471993047141	1471993047247		32
5622	60493	The cabinet Thursday approved a revised tariff schedule.	The cabinet Thursday approved a revised tariff schedule.	2878350	1471993047335	1471993047442		67
5622	60493	The cabinet Thursday approved a revised tariff schedule.	The cabinet Thursday approved a revised tariff schedule.	2878400	1471993047440	1471993047540		65
5622	60493	The cabinet Thursday approved a revised tariff schedule.	The cabinet Thursday approved a revised tariff schedule.	2878403	1471993047668	1471993047749		66
5622	60493	The cabinet Thursday approved a revised tariff schedule.	The cabinet Thursday approved a revised tariff schedule.	2878407	1471993047847	1471993047911		73
5622	60493	The cabinet Thursday approved a revised tariff schedule.	The cabinet Thursday approved a revised tariff schedule.	2878411	1471993047953	1471993048040		78
5622	60493	The cabinet Thursday approved a revised tariff schedule.	The cabinet Thursday approved a revised tariff schedule.	2878414	1471993048054	1471993048137		69
5622	60493	The cabinet Thursday approved a revised tariff schedule.	The cabinet Thursday approved a revised tariff schedule.	2878419	1471993048192	1471993048301		84
5622	60493	The cabinet Thursday approved a revised tariff schedule.	The cabinet Thursday approved a revised tariff schedule.	2878461	1471993048321	1471993048427		32
5622	60493	The cabinet Thursday approved a revised tariff schedule.	The cabinet Thursday approved a revised tariff schedule.	2878462	1471993048593	1471993048774	SHIFT	16
5622	60493	The cabinet Thursday approved a revised tariff schedule.	The cabinet Thursday approved a revised tariff schedule.	2878464	1471993048743	1471993048832		84
5622	60493	The cabinet Thursday approved a revised tariff schedule.	The cabinet Thursday approved a revised tariff schedule.	2878466	1471993048833	1471993048915		72
5622	60493	The cabinet Thursday approved a revised tariff schedule.	The cabinet Thursday approved a revised tariff schedule.	2878468	1471993048941	1471993049017		82
5622	60493	The cabinet Thursday approved a revised tariff schedule.	The cabinet Thursday approved a revised tariff schedule.	2878470	1471993049257	1471993049332		85
5622	60493	The cabinet Thursday approved a revised tariff schedule.	The cabinet Thursday approved a revised tariff schedule.	2878518	1471993049778	1471993049833		8
5622	60493	The cabinet Thursday approved a revised tariff schedule.	The cabinet Thursday approved a revised tariff schedule.	2878520	1471993049925	1471993050012		8
5622	60493	The cabinet Thursday approved a revised tariff schedule.	The cabinet Thursday approved a revised tariff schedule.	2878522	1471993050139	1471993050233		85
5622	60493	The cabinet Thursday approved a revised tariff schedule.	The cabinet Thursday approved a revised tariff schedule.	2878527	1471993050267	1471993050335		82
5622	60493	The cabinet Thursday approved a revised tariff schedule.	The cabinet Thursday approved a revised tariff schedule.	2878532	1471993050542	1471993050648		83
5622	60493	The cabinet Thursday approved a revised tariff schedule.	The cabinet Thursday approved a revised tariff schedule.	2878569	1471993050813	1471993050921		68
5622	60493	The cabinet Thursday approved a revised tariff schedule.	The cabinet Thursday approved a revised tariff schedule.	2878572	1471993050933	1471993051059		65
5622	60493	The cabinet Thursday approved a revised tariff schedule.	The cabinet Thursday approved a revised tariff schedule.	2878577	1471993051094	1471993051171		89
5622	60493	The cabinet Thursday approved a revised tariff schedule.	The cabinet Thursday approved a revised tariff schedule.	2878579	1471993051224	1471993051317		32
5622	60493	The cabinet Thursday approved a revised tariff schedule.	The cabinet Thursday approved a revised tariff schedule.	2878581	1471993051416	1471993051508		65
5622	60493	The cabinet Thursday approved a revised tariff schedule.	The cabinet Thursday approved a revised tariff schedule.	2878593	1471993051544	1471993051608		80
5622	60493	The cabinet Thursday approved a revised tariff schedule.	The cabinet Thursday approved a revised tariff schedule.	2878598	1471993051702	1471993051799		80
5622	60493	The cabinet Thursday approved a revised tariff schedule.	The cabinet Thursday approved a revised tariff schedule.	2878602	1471993051840	1471993051927		82
5622	60493	The cabinet Thursday approved a revised tariff schedule.	The cabinet Thursday approved a revised tariff schedule.	2878606	1471993051995	1471993052079		79
5622	60493	The cabinet Thursday approved a revised tariff schedule.	The cabinet Thursday approved a revised tariff schedule.	2878611	1471993052122	1471993052198		86
5622	60493	The cabinet Thursday approved a revised tariff schedule.	The cabinet Thursday approved a revised tariff schedule.	2878631	1471993052272	1471993052337		69
5622	60493	The cabinet Thursday approved a revised tariff schedule.	The cabinet Thursday approved a revised tariff schedule.	2878637	1471993052442	1471993052569		68
5622	60493	The cabinet Thursday approved a revised tariff schedule.	The cabinet Thursday approved a revised tariff schedule.	2878643	1471993052569	1471993052654		32
5622	60493	The cabinet Thursday approved a revised tariff schedule.	The cabinet Thursday approved a revised tariff schedule.	2878649	1471993052710	1471993052825		65
5622	60493	The cabinet Thursday approved a revised tariff schedule.	The cabinet Thursday approved a revised tariff schedule.	2878656	1471993052892	1471993052983		32
5622	60493	The cabinet Thursday approved a revised tariff schedule.	The cabinet Thursday approved a revised tariff schedule.	2878677	1471993053110	1471993053211		82
5622	60493	The cabinet Thursday approved a revised tariff schedule.	The cabinet Thursday approved a revised tariff schedule.	2878680	1471993053210	1471993053304		69
5622	60493	The cabinet Thursday approved a revised tariff schedule.	The cabinet Thursday approved a revised tariff schedule.	2878682	1471993053432	1471993053530		86
5622	60493	The cabinet Thursday approved a revised tariff schedule.	The cabinet Thursday approved a revised tariff schedule.	2878686	1471993053552	1471993053615		73
5622	60493	The cabinet Thursday approved a revised tariff schedule.	The cabinet Thursday approved a revised tariff schedule.	2878690	1471993053721	1471993053744		68
5622	60493	The cabinet Thursday approved a revised tariff schedule.	The cabinet Thursday approved a revised tariff schedule.	2878724	1471993054099	1471993054193		8
5622	60493	The cabinet Thursday approved a revised tariff schedule.	The cabinet Thursday approved a revised tariff schedule.	2878728	1471993054228	1471993054291		83
5622	60493	The cabinet Thursday approved a revised tariff schedule.	The cabinet Thursday approved a revised tariff schedule.	2878734	1471993054369	1471993054441		69
5622	60493	The cabinet Thursday approved a revised tariff schedule.	The cabinet Thursday approved a revised tariff schedule.	2878736	1471993054548	1471993054653		68
5622	60493	The cabinet Thursday approved a revised tariff schedule.	The cabinet Thursday approved a revised tariff schedule.	2878813	1471993054642	1471993054741		32
5622	60493	The cabinet Thursday approved a revised tariff schedule.	The cabinet Thursday approved a revised tariff schedule.	2878816	1471993054930	1471993055032		82
5622	60493	The cabinet Thursday approved a revised tariff schedule.	The cabinet Thursday approved a revised tariff schedule.	2878819	1471993055306	1471993055371		8
5622	60493	The cabinet Thursday approved a revised tariff schedule.	The cabinet Thursday approved a revised tariff schedule.	2878821	1471993055385	1471993055468		84
5622	60493	The cabinet Thursday approved a revised tariff schedule.	The cabinet Thursday approved a revised tariff schedule.	2878823	1471993055941	1471993056055		65
5622	60493	The cabinet Thursday approved a revised tariff schedule.	The cabinet Thursday approved a revised tariff schedule.	2878826	1471993056151	1471993056247		82
5622	60493	The cabinet Thursday approved a revised tariff schedule.	The cabinet Thursday approved a revised tariff schedule.	2878859	1471993056563	1471993056636		73
5622	60493	The cabinet Thursday approved a revised tariff schedule.	The cabinet Thursday approved a revised tariff schedule.	2878863	1471993056689	1471993056752		70
5622	60493	The cabinet Thursday approved a revised tariff schedule.	The cabinet Thursday approved a revised tariff schedule.	2878866	1471993056829	1471993056920		70
5622	60493	The cabinet Thursday approved a revised tariff schedule.	The cabinet Thursday approved a revised tariff schedule.	2878869	1471993057008	1471993057094		32
5622	60493	The cabinet Thursday approved a revised tariff schedule.	The cabinet Thursday approved a revised tariff schedule.	2878872	1471993057138	1471993057214		83
5622	60493	The cabinet Thursday approved a revised tariff schedule.	The cabinet Thursday approved a revised tariff schedule.	2878886	1471993057266	1471993057336		67
5622	60493	The cabinet Thursday approved a revised tariff schedule.	The cabinet Thursday approved a revised tariff schedule.	2878890	1471993057300	1471993057366		72
5622	60493	The cabinet Thursday approved a revised tariff schedule.	The cabinet Thursday approved a revised tariff schedule.	2878896	1471993057476	1471993057557		69
5622	60493	The cabinet Thursday approved a revised tariff schedule.	The cabinet Thursday approved a revised tariff schedule.	2878900	1471993057840	1471993057925		68
5622	60493	The cabinet Thursday approved a revised tariff schedule.	The cabinet Thursday approved a revised tariff schedule.	2878904	1471993057937	1471993058011		85
5622	60493	The cabinet Thursday approved a revised tariff schedule.	The cabinet Thursday approved a revised tariff schedule.	2878909	1471993058058	1471993058142		76
5622	60493	The cabinet Thursday approved a revised tariff schedule.	The cabinet Thursday approved a revised tariff schedule.	2878911	1471993058113	1471993058171		69
5622	60493	The cabinet Thursday approved a revised tariff schedule.	The cabinet Thursday approved a revised tariff schedule.	2878913	1471993058262	1471993058359		190
5622	60504	He is recovering from a bruised left shoulder.	He is recovering from a bruised left shoulder.	2879022	1471993060333	1471993060498	SHIFT	16
5622	60504	He is recovering from a bruised left shoulder.	He is recovering from a bruised left shoulder.	2879023	1471993060476	1471993060543		72
5622	60504	He is recovering from a bruised left shoulder.	He is recovering from a bruised left shoulder.	2879025	1471993060557	1471993060694		69
5622	60504	He is recovering from a bruised left shoulder.	He is recovering from a bruised left shoulder.	2879028	1471993060675	1471993060803		32
5622	60504	He is recovering from a bruised left shoulder.	He is recovering from a bruised left shoulder.	2879031	1471993060778	1471993060867		73
5622	60504	He is recovering from a bruised left shoulder.	He is recovering from a bruised left shoulder.	2879034	1471993060873	1471993060999		83
5622	60504	He is recovering from a bruised left shoulder.	He is recovering from a bruised left shoulder.	2879050	1471993061001	1471993061077		32
5622	60504	He is recovering from a bruised left shoulder.	He is recovering from a bruised left shoulder.	2879052	1471993061105	1471993061197		82
5622	60504	He is recovering from a bruised left shoulder.	He is recovering from a bruised left shoulder.	2879058	1471993061217	1471993061322		69
5622	60504	He is recovering from a bruised left shoulder.	He is recovering from a bruised left shoulder.	2879064	1471993061387	1471993061483		67
5622	60504	He is recovering from a bruised left shoulder.	He is recovering from a bruised left shoulder.	2879068	1471993061516	1471993061602		79
5622	60504	He is recovering from a bruised left shoulder.	He is recovering from a bruised left shoulder.	2879078	1471993061622	1471993061711		86
5622	60504	He is recovering from a bruised left shoulder.	He is recovering from a bruised left shoulder.	2879082	1471993061775	1471993061871		69
5622	60504	He is recovering from a bruised left shoulder.	He is recovering from a bruised left shoulder.	2879087	1471993061851	1471993061936		82
5622	60504	He is recovering from a bruised left shoulder.	He is recovering from a bruised left shoulder.	2879092	1471993061975	1471993062035		73
5622	60504	He is recovering from a bruised left shoulder.	He is recovering from a bruised left shoulder.	2879097	1471993062100	1471993062191		78
5622	60504	He is recovering from a bruised left shoulder.	He is recovering from a bruised left shoulder.	2879102	1471993062169	1471993062301		71
5622	60504	He is recovering from a bruised left shoulder.	He is recovering from a bruised left shoulder.	2879103	1471993062296	1471993062365		32
5622	60504	He is recovering from a bruised left shoulder.	He is recovering from a bruised left shoulder.	2879104	1471993062427	1471993062490		70
5622	60504	He is recovering from a bruised left shoulder.	He is recovering from a bruised left shoulder.	2879105	1471993062555	1471993062643		82
5622	60504	He is recovering from a bruised left shoulder.	He is recovering from a bruised left shoulder.	2879106	1471993062619	1471993062729		79
5622	60504	He is recovering from a bruised left shoulder.	He is recovering from a bruised left shoulder.	2879120	1471993062687	1471993062818		77
5622	60504	He is recovering from a bruised left shoulder.	He is recovering from a bruised left shoulder.	2879123	1471993062792	1471993062883		32
5622	60504	He is recovering from a bruised left shoulder.	He is recovering from a bruised left shoulder.	2879126	1471993062915	1471993063045		65
5622	60504	He is recovering from a bruised left shoulder.	He is recovering from a bruised left shoulder.	2879129	1471993063033	1471993063109		32
5622	60504	He is recovering from a bruised left shoulder.	He is recovering from a bruised left shoulder.	2879131	1471993063144	1471993063229		66
5622	60504	He is recovering from a bruised left shoulder.	He is recovering from a bruised left shoulder.	2879135	1471993063241	1471993063339		82
5622	60504	He is recovering from a bruised left shoulder.	He is recovering from a bruised left shoulder.	2879162	1471993063361	1471993063468		85
5622	60504	He is recovering from a bruised left shoulder.	He is recovering from a bruised left shoulder.	2879164	1471993063500	1471993063555		83
5622	60504	He is recovering from a bruised left shoulder.	He is recovering from a bruised left shoulder.	2879166	1471993063567	1471993063623		73
5622	60504	He is recovering from a bruised left shoulder.	He is recovering from a bruised left shoulder.	2879168	1471993064223	1471993064291		8
5622	60504	He is recovering from a bruised left shoulder.	He is recovering from a bruised left shoulder.	2879170	1471993064392	1471993064438		8
5622	60504	He is recovering from a bruised left shoulder.	He is recovering from a bruised left shoulder.	2879196	1471993064617	1471993064682		73
5622	60504	He is recovering from a bruised left shoulder.	He is recovering from a bruised left shoulder.	2879200	1471993064774	1471993064862		83
5622	60504	He is recovering from a bruised left shoulder.	He is recovering from a bruised left shoulder.	2879207	1471993064946	1471993065021		69
5622	60504	He is recovering from a bruised left shoulder.	He is recovering from a bruised left shoulder.	2879213	1471993065118	1471993065221		68
5622	60504	He is recovering from a bruised left shoulder.	He is recovering from a bruised left shoulder.	2879218	1471993065221	1471993065311		32
5622	60504	He is recovering from a bruised left shoulder.	He is recovering from a bruised left shoulder.	2879230	1471993065332	1471993065419		76
5622	60504	He is recovering from a bruised left shoulder.	He is recovering from a bruised left shoulder.	2879233	1471993065418	1471993065505		69
5622	60504	He is recovering from a bruised left shoulder.	He is recovering from a bruised left shoulder.	2879237	1471993065583	1471993065655		70
5622	60504	He is recovering from a bruised left shoulder.	He is recovering from a bruised left shoulder.	2879240	1471993065761	1471993065860		84
5622	60504	He is recovering from a bruised left shoulder.	He is recovering from a bruised left shoulder.	2879249	1471993065858	1471993065955		32
5622	60504	He is recovering from a bruised left shoulder.	He is recovering from a bruised left shoulder.	2879251	1471993065961	1471993066037		83
5622	60504	He is recovering from a bruised left shoulder.	He is recovering from a bruised left shoulder.	2879253	1471993065991	1471993066090		72
5622	60504	He is recovering from a bruised left shoulder.	He is recovering from a bruised left shoulder.	2879257	1471993066160	1471993066260		79
5622	60504	He is recovering from a bruised left shoulder.	He is recovering from a bruised left shoulder.	2879260	1471993066257	1471993066349		85
5622	60504	He is recovering from a bruised left shoulder.	He is recovering from a bruised left shoulder.	2879262	1471993066363	1471993066480		76
5622	60504	He is recovering from a bruised left shoulder.	He is recovering from a bruised left shoulder.	2879266	1471993066436	1471993066512		68
5622	60504	He is recovering from a bruised left shoulder.	He is recovering from a bruised left shoulder.	2879267	1471993066609	1471993066679		69
5622	60504	He is recovering from a bruised left shoulder.	He is recovering from a bruised left shoulder.	2879268	1471993066650	1471993066743		82
5622	60504	He is recovering from a bruised left shoulder.	He is recovering from a bruised left shoulder.	2879269	1471993066744	1471993066821		190
5622	60512	The official agency SABA said Wednesday 25 civilians had been killed.	The official agency SABA said Wednesday 25 civilians had been killed	2879391	1471993068988	1471993069178	SHIFT	16
5622	60512	The official agency SABA said Wednesday 25 civilians had been killed.	The official agency SABA said Wednesday 25 civilians had been killed	2879396	1471993069173	1471993069243		84
5622	60512	The official agency SABA said Wednesday 25 civilians had been killed.	The official agency SABA said Wednesday 25 civilians had been killed	2879400	1471993069218	1471993069275		72
5622	60512	The official agency SABA said Wednesday 25 civilians had been killed.	The official agency SABA said Wednesday 25 civilians had been killed	2879404	1471993069323	1471993069460		69
5622	60512	The official agency SABA said Wednesday 25 civilians had been killed.	The official agency SABA said Wednesday 25 civilians had been killed	2879407	1471993069437	1471993069527		32
5622	60512	The official agency SABA said Wednesday 25 civilians had been killed.	The official agency SABA said Wednesday 25 civilians had been killed	2879423	1471993069515	1471993069639		79
5622	60512	The official agency SABA said Wednesday 25 civilians had been killed.	The official agency SABA said Wednesday 25 civilians had been killed	2879424	1471993069636	1471993069659		70
5622	60512	The official agency SABA said Wednesday 25 civilians had been killed.	The official agency SABA said Wednesday 25 civilians had been killed	2879425	1471993069741	1471993069832		70
5622	60512	The official agency SABA said Wednesday 25 civilians had been killed.	The official agency SABA said Wednesday 25 civilians had been killed	2879426	1471993069896	1471993069959		73
5622	60512	The official agency SABA said Wednesday 25 civilians had been killed.	The official agency SABA said Wednesday 25 civilians had been killed	2879428	1471993069991	1471993070090		67
5622	60512	The official agency SABA said Wednesday 25 civilians had been killed.	The official agency SABA said Wednesday 25 civilians had been killed	2879429	1471993070091	1471993070176		73
5622	60512	The official agency SABA said Wednesday 25 civilians had been killed.	The official agency SABA said Wednesday 25 civilians had been killed	2879474	1471993070231	1471993070322		65
5622	60512	The official agency SABA said Wednesday 25 civilians had been killed.	The official agency SABA said Wednesday 25 civilians had been killed	2879477	1471993070348	1471993070417		76
5622	60512	The official agency SABA said Wednesday 25 civilians had been killed.	The official agency SABA said Wednesday 25 civilians had been killed	2879478	1471993070507	1471993070604		32
5622	60512	The official agency SABA said Wednesday 25 civilians had been killed.	The official agency SABA said Wednesday 25 civilians had been killed	2879479	1471993070707	1471993070857		65
5622	60512	The official agency SABA said Wednesday 25 civilians had been killed.	The official agency SABA said Wednesday 25 civilians had been killed	2879480	1471993071045	1471993071110		71
5622	60512	The official agency SABA said Wednesday 25 civilians had been killed.	The official agency SABA said Wednesday 25 civilians had been killed	2879524	1471993071175	1471993071260		69
5622	60512	The official agency SABA said Wednesday 25 civilians had been killed.	The official agency SABA said Wednesday 25 civilians had been killed	2879527	1471993071271	1471993071345		78
5622	60512	The official agency SABA said Wednesday 25 civilians had been killed.	The official agency SABA said Wednesday 25 civilians had been killed	2879531	1471993071434	1471993071498		67
5622	60512	The official agency SABA said Wednesday 25 civilians had been killed.	The official agency SABA said Wednesday 25 civilians had been killed	2879535	1471993072120	1471993072184		89
5622	60512	The official agency SABA said Wednesday 25 civilians had been killed.	The official agency SABA said Wednesday 25 civilians had been killed	2879540	1471993072249	1471993072332		32
5622	60512	The official agency SABA said Wednesday 25 civilians had been killed.	The official agency SABA said Wednesday 25 civilians had been killed	2879597	1471993072408	1471993072525	CAPS_LOCK	20
5622	60512	The official agency SABA said Wednesday 25 civilians had been killed.	The official agency SABA said Wednesday 25 civilians had been killed	2879602	1471993072661	1471993072883		83
5622	60512	The official agency SABA said Wednesday 25 civilians had been killed.	The official agency SABA said Wednesday 25 civilians had been killed	2879607	1471993072831	1471993072949		65
5622	60512	The official agency SABA said Wednesday 25 civilians had been killed.	The official agency SABA said Wednesday 25 civilians had been killed	2879611	1471993073012	1471993073077		66
5622	60512	The official agency SABA said Wednesday 25 civilians had been killed.	The official agency SABA said Wednesday 25 civilians had been killed	2879614	1471993073390	1471993073467		65
5622	60512	The official agency SABA said Wednesday 25 civilians had been killed.	The official agency SABA said Wednesday 25 civilians had been killed	2879616	1471993073581	1471993073707	CAPS_LOCK	20
5622	60512	The official agency SABA said Wednesday 25 civilians had been killed.	The official agency SABA said Wednesday 25 civilians had been killed	2879618	1471993073772	1471993073866		32
5622	60512	The official agency SABA said Wednesday 25 civilians had been killed.	The official agency SABA said Wednesday 25 civilians had been killed	2879650	1471993074223	1471993074338		83
5622	60512	The official agency SABA said Wednesday 25 civilians had been killed.	The official agency SABA said Wednesday 25 civilians had been killed	2879652	1471993074527	1471993074653		65
5622	60512	The official agency SABA said Wednesday 25 civilians had been killed.	The official agency SABA said Wednesday 25 civilians had been killed	2879657	1471993074694	1471993074785		73
5622	60512	The official agency SABA said Wednesday 25 civilians had been killed.	The official agency SABA said Wednesday 25 civilians had been killed	2879662	1471993074784	1471993074913		68
5622	60512	The official agency SABA said Wednesday 25 civilians had been killed.	The official agency SABA said Wednesday 25 civilians had been killed	2879697	1471993074869	1471993074978		32
5622	60512	The official agency SABA said Wednesday 25 civilians had been killed.	The official agency SABA said Wednesday 25 civilians had been killed	2879700	1471993075002	1471993075233	SHIFT	16
5622	60512	The official agency SABA said Wednesday 25 civilians had been killed.	The official agency SABA said Wednesday 25 civilians had been killed	2879702	1471993075168	1471993075265		87
5622	60512	The official agency SABA said Wednesday 25 civilians had been killed.	The official agency SABA said Wednesday 25 civilians had been killed	2879705	1471993075362	1471993075453		69
5622	60512	The official agency SABA said Wednesday 25 civilians had been killed.	The official agency SABA said Wednesday 25 civilians had been killed	2879709	1471993075930	1471993076007		8
5622	60512	The official agency SABA said Wednesday 25 civilians had been killed.	The official agency SABA said Wednesday 25 civilians had been killed	2879714	1471993076134	1471993076248		68
5622	60512	The official agency SABA said Wednesday 25 civilians had been killed.	The official agency SABA said Wednesday 25 civilians had been killed	2879741	1471993076437	1471993076515		78
5622	60512	The official agency SABA said Wednesday 25 civilians had been killed.	The official agency SABA said Wednesday 25 civilians had been killed	2879744	1471993076500	1471993076589		69
5622	60512	The official agency SABA said Wednesday 25 civilians had been killed.	The official agency SABA said Wednesday 25 civilians had been killed	2879745	1471993076707	1471993076822		83
5622	60512	The official agency SABA said Wednesday 25 civilians had been killed.	The official agency SABA said Wednesday 25 civilians had been killed	2879749	1471993077134	1471993077260		68
5622	60512	The official agency SABA said Wednesday 25 civilians had been killed.	The official agency SABA said Wednesday 25 civilians had been killed	2879792	1471993077267	1471993077364		65
5622	60512	The official agency SABA said Wednesday 25 civilians had been killed.	The official agency SABA said Wednesday 25 civilians had been killed	2879794	1471993077365	1471993077430		89
5622	60512	The official agency SABA said Wednesday 25 civilians had been killed.	The official agency SABA said Wednesday 25 civilians had been killed	2879797	1471993077486	1471993077592		32
5622	60512	The official agency SABA said Wednesday 25 civilians had been killed.	The official agency SABA said Wednesday 25 civilians had been killed	2879798	1471993078152	1471993078245		50
5622	60512	The official agency SABA said Wednesday 25 civilians had been killed.	The official agency SABA said Wednesday 25 civilians had been killed	2879801	1471993078529	1471993078593		8
5622	60512	The official agency SABA said Wednesday 25 civilians had been killed.	The official agency SABA said Wednesday 25 civilians had been killed	2879802	1471993078679	1471993078760		8
5622	60512	The official agency SABA said Wednesday 25 civilians had been killed.	The official agency SABA said Wednesday 25 civilians had been killed	2879845	1471993078848	1471993078925		8
5622	60512	The official agency SABA said Wednesday 25 civilians had been killed.	The official agency SABA said Wednesday 25 civilians had been killed	2879846	1471993079039	1471993079104		8
5622	60512	The official agency SABA said Wednesday 25 civilians had been killed.	The official agency SABA said Wednesday 25 civilians had been killed	2879847	1471993079230	1471993079295		8
5622	60512	The official agency SABA said Wednesday 25 civilians had been killed.	The official agency SABA said Wednesday 25 civilians had been killed	2879848	1471993080129	1471993080258		65
5622	60512	The official agency SABA said Wednesday 25 civilians had been killed.	The official agency SABA said Wednesday 25 civilians had been killed	2879891	1471993080238	1471993080299		89
5622	60512	The official agency SABA said Wednesday 25 civilians had been killed.	The official agency SABA said Wednesday 25 civilians had been killed	2879895	1471993080357	1471993080451		32
5622	60512	The official agency SABA said Wednesday 25 civilians had been killed.	The official agency SABA said Wednesday 25 civilians had been killed	2879900	1471993080526	1471993080651		50
5622	60512	The official agency SABA said Wednesday 25 civilians had been killed.	The official agency SABA said Wednesday 25 civilians had been killed	2879909	1471993080778	1471993080901		53
5622	60512	The official agency SABA said Wednesday 25 civilians had been killed.	The official agency SABA said Wednesday 25 civilians had been killed	2879905	1471993080804	1471993080869		54
5622	60512	The official agency SABA said Wednesday 25 civilians had been killed.	The official agency SABA said Wednesday 25 civilians had been killed	2879911	1471993081245	1471993081310		8
5622	60512	The official agency SABA said Wednesday 25 civilians had been killed.	The official agency SABA said Wednesday 25 civilians had been killed	2879940	1471993081387	1471993081540		32
5622	60512	The official agency SABA said Wednesday 25 civilians had been killed.	The official agency SABA said Wednesday 25 civilians had been killed	2879942	1471993081720	1471993081819		67
5622	60512	The official agency SABA said Wednesday 25 civilians had been killed.	The official agency SABA said Wednesday 25 civilians had been killed	2879944	1471993081794	1471993081884		73
5622	60512	The official agency SABA said Wednesday 25 civilians had been killed.	The official agency SABA said Wednesday 25 civilians had been killed	2879946	1471993081961	1471993082077		86
5622	60512	The official agency SABA said Wednesday 25 civilians had been killed.	The official agency SABA said Wednesday 25 civilians had been killed	2879947	1471993082078	1471993082163		73
5622	60512	The official agency SABA said Wednesday 25 civilians had been killed.	The official agency SABA said Wednesday 25 civilians had been killed	2879972	1471993082273	1471993082354		76
5622	60512	The official agency SABA said Wednesday 25 civilians had been killed.	The official agency SABA said Wednesday 25 civilians had been killed	2879975	1471993082429	1471993082524		73
5622	60512	The official agency SABA said Wednesday 25 civilians had been killed.	The official agency SABA said Wednesday 25 civilians had been killed	2879979	1471993082557	1471993082669		65
5622	60512	The official agency SABA said Wednesday 25 civilians had been killed.	The official agency SABA said Wednesday 25 civilians had been killed	2879983	1471993082669	1471993082742		78
5622	60512	The official agency SABA said Wednesday 25 civilians had been killed.	The official agency SABA said Wednesday 25 civilians had been killed	2879987	1471993082807	1471993082912		83
5622	60512	The official agency SABA said Wednesday 25 civilians had been killed.	The official agency SABA said Wednesday 25 civilians had been killed	2880000	1471993082918	1471993083022		32
5622	60512	The official agency SABA said Wednesday 25 civilians had been killed.	The official agency SABA said Wednesday 25 civilians had been killed	2880002	1471993083022	1471993083114		72
5622	60512	The official agency SABA said Wednesday 25 civilians had been killed.	The official agency SABA said Wednesday 25 civilians had been killed	2880005	1471993083112	1471993083217		65
5622	60512	The official agency SABA said Wednesday 25 civilians had been killed.	The official agency SABA said Wednesday 25 civilians had been killed	2880008	1471993083243	1471993083347		68
5622	60512	The official agency SABA said Wednesday 25 civilians had been killed.	The official agency SABA said Wednesday 25 civilians had been killed	2880024	1471993083309	1471993083406		32
5622	60512	The official agency SABA said Wednesday 25 civilians had been killed.	The official agency SABA said Wednesday 25 civilians had been killed	2880026	1471993083385	1471993083453		66
5622	60512	The official agency SABA said Wednesday 25 civilians had been killed.	The official agency SABA said Wednesday 25 civilians had been killed	2880028	1471993083506	1471993083571		69
5622	60512	The official agency SABA said Wednesday 25 civilians had been killed.	The official agency SABA said Wednesday 25 civilians had been killed	2880030	1471993083634	1471993083720		69
5622	60512	The official agency SABA said Wednesday 25 civilians had been killed.	The official agency SABA said Wednesday 25 civilians had been killed	2880032	1471993083740	1471993083828		78
5622	60512	The official agency SABA said Wednesday 25 civilians had been killed.	The official agency SABA said Wednesday 25 civilians had been killed	2880034	1471993083834	1471993083928		32
5622	60512	The official agency SABA said Wednesday 25 civilians had been killed.	The official agency SABA said Wednesday 25 civilians had been killed	2880035	1471993083930	1471993083993		75
5622	60512	The official agency SABA said Wednesday 25 civilians had been killed.	The official agency SABA said Wednesday 25 civilians had been killed	2880037	1471993084091	1471993084156		73
5622	60512	The official agency SABA said Wednesday 25 civilians had been killed.	The official agency SABA said Wednesday 25 civilians had been killed	2880040	1471993084245	1471993084300		76
5622	60512	The official agency SABA said Wednesday 25 civilians had been killed.	The official agency SABA said Wednesday 25 civilians had been killed	2880044	1471993084374	1471993084451		76
5622	60512	The official agency SABA said Wednesday 25 civilians had been killed.	The official agency SABA said Wednesday 25 civilians had been killed	2880048	1471993084449	1471993084537		69
5622	60512	The official agency SABA said Wednesday 25 civilians had been killed.	The official agency SABA said Wednesday 25 civilians had been killed	2880054	1471993084602	1471993084667		68
5622	60524	Are we ready for this on Monday?	Are we ready for this on Monday?	2880222	1471993088767	1471993089016	SHIFT	16
5622	60524	Are we ready for this on Monday?	Are we ready for this on Monday?	2880225	1471993088952	1471993089057		65
5622	60524	Are we ready for this on Monday?	Are we ready for this on Monday?	2880228	1471993089176	1471993089273		82
5622	60524	Are we ready for this on Monday?	Are we ready for this on Monday?	2880233	1471993089296	1471993089433		69
5622	60524	Are we ready for this on Monday?	Are we ready for this on Monday?	2880237	1471993089423	1471993089530		32
5622	60524	Are we ready for this on Monday?	Are we ready for this on Monday?	2880242	1471993089544	1471993089691		87
5622	60524	Are we ready for this on Monday?	Are we ready for this on Monday?	2880254	1471993089637	1471993089792		69
5622	60524	Are we ready for this on Monday?	Are we ready for this on Monday?	2880255	1471993089757	1471993089856		32
5622	60524	Are we ready for this on Monday?	Are we ready for this on Monday?	2880256	1471993089898	1471993089990		82
5622	60524	Are we ready for this on Monday?	Are we ready for this on Monday?	2880258	1471993089985	1471993090116		69
5622	60524	Are we ready for this on Monday?	Are we ready for this on Monday?	2880260	1471993090091	1471993090246		65
5622	60524	Are we ready for this on Monday?	Are we ready for this on Monday?	2880277	1471993090220	1471993090322		68
5622	60524	Are we ready for this on Monday?	Are we ready for this on Monday?	2880279	1471993090343	1471993090441		89
5622	60524	Are we ready for this on Monday?	Are we ready for this on Monday?	2880282	1471993090455	1471993090537		32
5622	60524	Are we ready for this on Monday?	Are we ready for this on Monday?	2880283	1471993090571	1471993090648		70
5622	60524	Are we ready for this on Monday?	Are we ready for this on Monday?	2880285	1471993090739	1471993090823		82
5622	60524	Are we ready for this on Monday?	Are we ready for this on Monday?	2880324	1471993090765	1471993090856		79
5622	60524	Are we ready for this on Monday?	Are we ready for this on Monday?	2880330	1471993091408	1471993091462		8
5622	60524	Are we ready for this on Monday?	Are we ready for this on Monday?	2880337	1471993091555	1471993091618		8
5622	60524	Are we ready for this on Monday?	Are we ready for this on Monday?	2880341	1471993091769	1471993091833		79
5622	60524	Are we ready for this on Monday?	Are we ready for this on Monday?	2880344	1471993091897	1471993091974		82
5622	60524	Are we ready for this on Monday?	Are we ready for this on Monday?	2880346	1471993091985	1471993092096		32
5622	60524	Are we ready for this on Monday?	Are we ready for this on Monday?	2880348	1471993092092	1471993092165		84
5622	60524	Are we ready for this on Monday?	Are we ready for this on Monday?	2880350	1471993092135	1471993092202		72
5622	60524	Are we ready for this on Monday?	Are we ready for this on Monday?	2880352	1471993092268	1471993092357		73
5622	60524	Are we ready for this on Monday?	Are we ready for this on Monday?	2880354	1471993092332	1471993092424		83
5622	60524	Are we ready for this on Monday?	Are we ready for this on Monday?	2880359	1471993092425	1471993092505		32
5622	60524	Are we ready for this on Monday?	Are we ready for this on Monday?	2880403	1471993092493	1471993092591		79
5622	60524	Are we ready for this on Monday?	Are we ready for this on Monday?	2880406	1471993092589	1471993092686		78
5622	60524	Are we ready for this on Monday?	Are we ready for this on Monday?	2880409	1471993092782	1471993092836		69
5622	60524	Are we ready for this on Monday?	Are we ready for this on Monday?	2880411	1471993093128	1471993093193		8
5622	60524	Are we ready for this on Monday?	Are we ready for this on Monday?	2880413	1471993093235	1471993093322		32
5622	60524	Are we ready for this on Monday?	Are we ready for this on Monday?	2880415	1471993093363	1471993093515	SHIFT	16
5622	60524	Are we ready for this on Monday?	Are we ready for this on Monday?	2880417	1471993093464	1471993093580		77
5622	60524	Are we ready for this on Monday?	Are we ready for this on Monday?	2880418	1471993093665	1471993093749		79
5622	60524	Are we ready for this on Monday?	Are we ready for this on Monday?	2880419	1471993093774	1471993093875		78
5622	60524	Are we ready for this on Monday?	Are we ready for this on Monday?	2880420	1471993093871	1471993093972		68
5622	60524	Are we ready for this on Monday?	Are we ready for this on Monday?	2880421	1471993093970	1471993094076		65
5622	60524	Are we ready for this on Monday?	Are we ready for this on Monday?	2880435	1471993094036	1471993094105		89
5622	60524	Are we ready for this on Monday?	Are we ready for this on Monday?	2880438	1471993094198	1471993094337	SHIFT	16
5622	60524	Are we ready for this on Monday?	Are we ready for this on Monday?	2880439	1471993094294	1471993094338		191
5622	60529	He will be evaluated on a day to day basis.	He will be evaluated on a day to day basis.	2880533	1471993096443	1471993096666	SHIFT	16
5622	60529	He will be evaluated on a day to day basis.	He will be evaluated on a day to day basis.	2880536	1471993096622	1471993096710		72
5622	60529	He will be evaluated on a day to day basis.	He will be evaluated on a day to day basis.	2880539	1471993096681	1471993096809		69
5622	60529	He will be evaluated on a day to day basis.	He will be evaluated on a day to day basis.	2880543	1471993096821	1471993096929		32
5622	60529	He will be evaluated on a day to day basis.	He will be evaluated on a day to day basis.	2880546	1471993096903	1471993096999		87
5622	60529	He will be evaluated on a day to day basis.	He will be evaluated on a day to day basis.	2880558	1471993096993	1471993097061		73
5622	60529	He will be evaluated on a day to day basis.	He will be evaluated on a day to day basis.	2880561	1471993097129	1471993097190		76
5622	60529	He will be evaluated on a day to day basis.	He will be evaluated on a day to day basis.	2880564	1471993097267	1471993097353		76
5622	60529	He will be evaluated on a day to day basis.	He will be evaluated on a day to day basis.	2880568	1471993097352	1471993097425		32
5622	60529	He will be evaluated on a day to day basis.	He will be evaluated on a day to day basis.	2880571	1471993097451	1471993097532		66
5622	60529	He will be evaluated on a day to day basis.	He will be evaluated on a day to day basis.	2880598	1471993097530	1471993097646		69
5622	60529	He will be evaluated on a day to day basis.	He will be evaluated on a day to day basis.	2880599	1471993097647	1471993097722		32
5622	60529	He will be evaluated on a day to day basis.	He will be evaluated on a day to day basis.	2880601	1471993097867	1471993097963		69
5622	60529	He will be evaluated on a day to day basis.	He will be evaluated on a day to day basis.	2880602	1471993098049	1471993098157		86
5622	60529	He will be evaluated on a day to day basis.	He will be evaluated on a day to day basis.	2880603	1471993098179	1471993098284		65
5622	60529	He will be evaluated on a day to day basis.	He will be evaluated on a day to day basis.	2880604	1471993098349	1471993098434		76
5622	60529	He will be evaluated on a day to day basis.	He will be evaluated on a day to day basis.	2880629	1471993098480	1471993098555		85
5622	60529	He will be evaluated on a day to day basis.	He will be evaluated on a day to day basis.	2880630	1471993098606	1471993098701		65
5622	60529	He will be evaluated on a day to day basis.	He will be evaluated on a day to day basis.	2880633	1471993098748	1471993098830		84
5622	60529	He will be evaluated on a day to day basis.	He will be evaluated on a day to day basis.	2880636	1471993099072	1471993099136		69
5622	60529	He will be evaluated on a day to day basis.	He will be evaluated on a day to day basis.	2880640	1471993099245	1471993099330		68
5622	60529	He will be evaluated on a day to day basis.	He will be evaluated on a day to day basis.	2880650	1471993099339	1471993099438		32
5622	60529	He will be evaluated on a day to day basis.	He will be evaluated on a day to day basis.	2880654	1471993099438	1471993099526		79
5622	60529	He will be evaluated on a day to day basis.	He will be evaluated on a day to day basis.	2880659	1471993099515	1471993099608		78
5622	60529	He will be evaluated on a day to day basis.	He will be evaluated on a day to day basis.	2880662	1471993099634	1471993099699		32
5622	60529	He will be evaluated on a day to day basis.	He will be evaluated on a day to day basis.	2880665	1471993099763	1471993099890		65
5622	60529	He will be evaluated on a day to day basis.	He will be evaluated on a day to day basis.	2880671	1471993099905	1471993099970		32
5622	60529	He will be evaluated on a day to day basis.	He will be evaluated on a day to day basis.	2880673	1471993099981	1471993100087		68
5622	60529	He will be evaluated on a day to day basis.	He will be evaluated on a day to day basis.	2880675	1471993100119	1471993100218		65
5622	60529	He will be evaluated on a day to day basis.	He will be evaluated on a day to day basis.	2880676	1471993100184	1471993100250		89
5622	60529	He will be evaluated on a day to day basis.	He will be evaluated on a day to day basis.	2880677	1471993100347	1471993100433		32
5622	60529	He will be evaluated on a day to day basis.	He will be evaluated on a day to day basis.	2880690	1471993100476	1471993100562		84
5622	60529	He will be evaluated on a day to day basis.	He will be evaluated on a day to day basis.	2880693	1471993100582	1471993100683		79
5622	60529	He will be evaluated on a day to day basis.	He will be evaluated on a day to day basis.	2880695	1471993100703	1471993100799		32
5622	60529	He will be evaluated on a day to day basis.	He will be evaluated on a day to day basis.	2880697	1471993100840	1471993100971		68
5622	60529	He will be evaluated on a day to day basis.	He will be evaluated on a day to day basis.	2880719	1471993100970	1471993101081		65
5622	60529	He will be evaluated on a day to day basis.	He will be evaluated on a day to day basis.	2880720	1471993101082	1471993101137		89
5622	60529	He will be evaluated on a day to day basis.	He will be evaluated on a day to day basis.	2880722	1471993101191	1471993101255		32
5622	60529	He will be evaluated on a day to day basis.	He will be evaluated on a day to day basis.	2880724	1471993101279	1471993101360		66
5622	60529	He will be evaluated on a day to day basis.	He will be evaluated on a day to day basis.	2880726	1471993101399	1471993101490		65
5622	60529	He will be evaluated on a day to day basis.	He will be evaluated on a day to day basis.	2880728	1471993101578	1471993101663		83
5622	60529	He will be evaluated on a day to day basis.	He will be evaluated on a day to day basis.	2880744	1471993101719	1471993101810		73
5622	60529	He will be evaluated on a day to day basis.	He will be evaluated on a day to day basis.	2880746	1471993101837	1471993101912		83
5622	60529	He will be evaluated on a day to day basis.	He will be evaluated on a day to day basis.	2880748	1471993101965	1471993102060		190
