PARTICIPANT_ID	TEST_SECTION_ID	SENTENCE	USER_INPUT	KEYSTROKE_ID	PRESS_TIME	RELEASE_TIME	LETTER	KEYCODE
5681	61027	I might have something at the office.	I might have something at the office.	2904634	1471993765804	1471993766006	SHIFT	16
5681	61027	I might have something at the office.	I might have something at the office.	2904632	1471993765895	1471993765975	I	73
5681	61027	I might have something at the office.	I might have something at the office.	2904638	1471993766076	1471993766127	 	32
5681	61027	I might have something at the office.	I might have something at the office.	2904640	1471993766225	1471993766288	m	77
5681	61027	I might have something at the office.	I might have something at the office.	2904643	1471993766401	1471993766468	i	73
5681	61027	I might have something at the office.	I might have something at the office.	2904645	1471993766529	1471993766637	g	71
5681	61027	I might have something at the office.	I might have something at the office.	2904649	1471993766640	1471993766729	h	72
5681	61027	I might have something at the office.	I might have something at the office.	2904651	1471993766702	1471993766781	t	84
5681	61027	I might have something at the office.	I might have something at the office.	2904653	1471993766815	1471993766866	 	32
5681	61027	I might have something at the office.	I might have something at the office.	2904654	1471993766964	1471993767047	h	72
5681	61027	I might have something at the office.	I might have something at the office.	2904670	1471993767044	1471993767123	a	65
5681	61027	I might have something at the office.	I might have something at the office.	2904672	1471993767213	1471993767332	v	86
5681	61027	I might have something at the office.	I might have something at the office.	2904673	1471993767472	1471993767564	 	32
5681	61027	I might have something at the office.	I might have something at the office.	2904675	1471993767794	1471993767838	BKSP	8
5681	61027	I might have something at the office.	I might have something at the office.	2904677	1471993767911	1471993767986	e	69
5681	61027	I might have something at the office.	I might have something at the office.	2904678	1471993768022	1471993768081	 	32
5681	61027	I might have something at the office.	I might have something at the office.	2904680	1471993768125	1471993768240	s	83
5681	61027	I might have something at the office.	I might have something at the office.	2904690	1471993768252	1471993768308	o	79
5681	61027	I might have something at the office.	I might have something at the office.	2904691	1471993768386	1471993768481	m	77
5681	61027	I might have something at the office.	I might have something at the office.	2904692	1471993768478	1471993768569	e	69
5681	61027	I might have something at the office.	I might have something at the office.	2904693	1471993768666	1471993768766	t	84
5681	61027	I might have something at the office.	I might have something at the office.	2904705	1471993768739	1471993768810	h	72
5681	61027	I might have something at the office.	I might have something at the office.	2904707	1471993768904	1471993768979	i	73
5681	61027	I might have something at the office.	I might have something at the office.	2904709	1471993769074	1471993769133	n	78
5681	61027	I might have something at the office.	I might have something at the office.	2904711	1471993769142	1471993769209	g	71
5681	61027	I might have something at the office.	I might have something at the office.	2904713	1471993769239	1471993769302	 	32
5681	61027	I might have something at the office.	I might have something at the office.	2904716	1471993769315	1471993769454	a	65
5681	61027	I might have something at the office.	I might have something at the office.	2904738	1471993769556	1471993769667	t	84
5681	61027	I might have something at the office.	I might have something at the office.	2904740	1471993769635	1471993769715	 	32
5681	61027	I might have something at the office.	I might have something at the office.	2904744	1471993769758	1471993769821	t	84
5681	61027	I might have something at the office.	I might have something at the office.	2904747	1471993769980	1471993770116	e	69
5681	61027	I might have something at the office.	I might have something at the office.	2904753	1471993770298	1471993770357	BKSP	8
5681	61027	I might have something at the office.	I might have something at the office.	2904759	1471993770499	1471993770555	h	72
5681	61027	I might have something at the office.	I might have something at the office.	2904772	1471993770771	1471993770871	e	69
5681	61027	I might have something at the office.	I might have something at the office.	2904773	1471993770828	1471993770903	 	32
5681	61027	I might have something at the office.	I might have something at the office.	2904775	1471993771021	1471993771092	o	79
5681	61027	I might have something at the office.	I might have something at the office.	2904779	1471993771105	1471993771184	f	70
5681	61027	I might have something at the office.	I might have something at the office.	2904782	1471993771216	1471993771319	f	70
5681	61027	I might have something at the office.	I might have something at the office.	2904818	1471993771328	1471993771465	i	73
5681	61027	I might have something at the office.	I might have something at the office.	2904819	1471993771484	1471993771595	c	67
5681	61027	I might have something at the office.	I might have something at the office.	2904821	1471993771617	1471993771728	e	69
5681	61027	I might have something at the office.	I might have something at the office.	2904825	1471993771798	1471993771885	.	190
5681	61035	I want to remind you about our All-Employee Meeting this Tuesday, Oct.	I want to remind you about our ALL-employee meeting this Tuesday, oct.	2904962	1471993776105	1471993776264	SHIFT	16
5681	61035	I want to remind you about our All-Employee Meeting this Tuesday, Oct.	I want to remind you about our ALL-employee meeting this Tuesday, oct.	2904959	1471993776161	1471993776260	I	73
5681	61035	I want to remind you about our All-Employee Meeting this Tuesday, Oct.	I want to remind you about our ALL-employee meeting this Tuesday, oct.	2904964	1471993776348	1471993776444	 	32
5681	61035	I want to remind you about our All-Employee Meeting this Tuesday, Oct.	I want to remind you about our ALL-employee meeting this Tuesday, oct.	2904966	1471993776413	1471993776524	w	87
5681	61035	I want to remind you about our All-Employee Meeting this Tuesday, Oct.	I want to remind you about our ALL-employee meeting this Tuesday, oct.	2904968	1471993776580	1471993776692	a	65
5681	61035	I want to remind you about our All-Employee Meeting this Tuesday, Oct.	I want to remind you about our ALL-employee meeting this Tuesday, oct.	2904976	1471993776664	1471993776768	n	78
5681	61035	I want to remind you about our All-Employee Meeting this Tuesday, Oct.	I want to remind you about our ALL-employee meeting this Tuesday, oct.	2904977	1471993776803	1471993776946	t	84
5681	61035	I want to remind you about our All-Employee Meeting this Tuesday, Oct.	I want to remind you about our ALL-employee meeting this Tuesday, oct.	2904978	1471993776903	1471993776982	 	32
5681	61035	I want to remind you about our All-Employee Meeting this Tuesday, Oct.	I want to remind you about our ALL-employee meeting this Tuesday, oct.	2904980	1471993777030	1471993777127	t	84
5681	61035	I want to remind you about our All-Employee Meeting this Tuesday, Oct.	I want to remind you about our ALL-employee meeting this Tuesday, oct.	2904982	1471993777126	1471993777177	o	79
5681	61035	I want to remind you about our All-Employee Meeting this Tuesday, Oct.	I want to remind you about our ALL-employee meeting this Tuesday, oct.	2904986	1471993777285	1471993777376	 	32
5681	61035	I want to remind you about our All-Employee Meeting this Tuesday, Oct.	I want to remind you about our ALL-employee meeting this Tuesday, oct.	2905014	1471993777401	1471993777456	r	82
5681	61035	I want to remind you about our All-Employee Meeting this Tuesday, Oct.	I want to remind you about our ALL-employee meeting this Tuesday, oct.	2905016	1471993777530	1471993777634	e	69
5681	61035	I want to remind you about our All-Employee Meeting this Tuesday, Oct.	I want to remind you about our ALL-employee meeting this Tuesday, oct.	2905018	1471993777619	1471993777714	m	77
5681	61035	I want to remind you about our All-Employee Meeting this Tuesday, Oct.	I want to remind you about our ALL-employee meeting this Tuesday, oct.	2905020	1471993778018	1471993778097	i	73
5681	61035	I want to remind you about our All-Employee Meeting this Tuesday, Oct.	I want to remind you about our ALL-employee meeting this Tuesday, oct.	2905024	1471993778214	1471993778301	n	78
5681	61035	I want to remind you about our All-Employee Meeting this Tuesday, Oct.	I want to remind you about our ALL-employee meeting this Tuesday, oct.	2905052	1471993778318	1471993778413	d	68
5681	61035	I want to remind you about our All-Employee Meeting this Tuesday, Oct.	I want to remind you about our ALL-employee meeting this Tuesday, oct.	2905054	1471993778414	1471993778473	 	32
5681	61035	I want to remind you about our All-Employee Meeting this Tuesday, Oct.	I want to remind you about our ALL-employee meeting this Tuesday, oct.	2905056	1471993778546	1471993778726	y	89
5681	61035	I want to remind you about our All-Employee Meeting this Tuesday, Oct.	I want to remind you about our ALL-employee meeting this Tuesday, oct.	2905059	1471993778714	1471993778805	o	79
5681	61035	I want to remind you about our All-Employee Meeting this Tuesday, Oct.	I want to remind you about our ALL-employee meeting this Tuesday, oct.	2905062	1471993778814	1471993778889	u	85
5681	61035	I want to remind you about our All-Employee Meeting this Tuesday, Oct.	I want to remind you about our ALL-employee meeting this Tuesday, oct.	2905125	1471993778920	1471993778987	 	32
5681	61035	I want to remind you about our All-Employee Meeting this Tuesday, Oct.	I want to remind you about our ALL-employee meeting this Tuesday, oct.	2905130	1471993779105	1471993779236	a	65
5681	61035	I want to remind you about our All-Employee Meeting this Tuesday, Oct.	I want to remind you about our ALL-employee meeting this Tuesday, oct.	2905132	1471993779552	1471993779611	o	79
5681	61035	I want to remind you about our All-Employee Meeting this Tuesday, Oct.	I want to remind you about our ALL-employee meeting this Tuesday, oct.	2905133	1471993779734	1471993779838	u	85
5681	61035	I want to remind you about our All-Employee Meeting this Tuesday, Oct.	I want to remind you about our ALL-employee meeting this Tuesday, oct.	2905134	1471993780097	1471993780152	BKSP	8
5681	61035	I want to remind you about our All-Employee Meeting this Tuesday, Oct.	I want to remind you about our ALL-employee meeting this Tuesday, oct.	2905135	1471993780234	1471993780290	BKSP	8
5681	61035	I want to remind you about our All-Employee Meeting this Tuesday, Oct.	I want to remind you about our ALL-employee meeting this Tuesday, oct.	2905136	1471993780444	1471993780528	b	66
5681	61035	I want to remind you about our All-Employee Meeting this Tuesday, Oct.	I want to remind you about our ALL-employee meeting this Tuesday, oct.	2905141	1471993780638	1471993780705	o	79
5681	61035	I want to remind you about our All-Employee Meeting this Tuesday, Oct.	I want to remind you about our ALL-employee meeting this Tuesday, oct.	2905142	1471993780789	1471993780893	u	85
5681	61035	I want to remind you about our All-Employee Meeting this Tuesday, Oct.	I want to remind you about our ALL-employee meeting this Tuesday, oct.	2905143	1471993780901	1471993780989	t	84
5681	61035	I want to remind you about our All-Employee Meeting this Tuesday, Oct.	I want to remind you about our ALL-employee meeting this Tuesday, oct.	2905145	1471993780978	1471993781041	 	32
5681	61035	I want to remind you about our All-Employee Meeting this Tuesday, Oct.	I want to remind you about our ALL-employee meeting this Tuesday, oct.	2905147	1471993781167	1471993781230	o	79
5681	61035	I want to remind you about our All-Employee Meeting this Tuesday, Oct.	I want to remind you about our ALL-employee meeting this Tuesday, oct.	2905193	1471993781284	1471993781368	r	82
5681	61035	I want to remind you about our All-Employee Meeting this Tuesday, Oct.	I want to remind you about our ALL-employee meeting this Tuesday, oct.	2905196	1471993781844	1471993781892	BKSP	8
5681	61035	I want to remind you about our All-Employee Meeting this Tuesday, Oct.	I want to remind you about our ALL-employee meeting this Tuesday, oct.	2905198	1471993782034	1471993782157	u	85
5681	61035	I want to remind you about our All-Employee Meeting this Tuesday, Oct.	I want to remind you about our ALL-employee meeting this Tuesday, oct.	2905201	1471993782161	1471993782229	r	82
5681	61035	I want to remind you about our All-Employee Meeting this Tuesday, Oct.	I want to remind you about our ALL-employee meeting this Tuesday, oct.	2905203	1471993782248	1471993782328	 	32
5681	61035	I want to remind you about our All-Employee Meeting this Tuesday, Oct.	I want to remind you about our ALL-employee meeting this Tuesday, oct.	2905279	1471993782500	1471993783628	SHIFT	16
5681	61035	I want to remind you about our All-Employee Meeting this Tuesday, Oct.	I want to remind you about our ALL-employee meeting this Tuesday, oct.	2905205	1471993782929	1471993783028	A	65
5681	61035	I want to remind you about our All-Employee Meeting this Tuesday, Oct.	I want to remind you about our ALL-employee meeting this Tuesday, oct.	2905275	1471993783044	1471993783100	L	76
5681	61035	I want to remind you about our All-Employee Meeting this Tuesday, Oct.	I want to remind you about our ALL-employee meeting this Tuesday, oct.	2905278	1471993783177	1471993783260	L	76
5681	61035	I want to remind you about our All-Employee Meeting this Tuesday, Oct.	I want to remind you about our ALL-employee meeting this Tuesday, oct.	2905281	1471993784012	1471993784084	-	189
5681	61035	I want to remind you about our All-Employee Meeting this Tuesday, Oct.	I want to remind you about our ALL-employee meeting this Tuesday, oct.	2905284	1471993784502	1471993784573	e	69
5681	61035	I want to remind you about our All-Employee Meeting this Tuesday, Oct.	I want to remind you about our ALL-employee meeting this Tuesday, oct.	2905287	1471993784611	1471993784674	m	77
5681	61035	I want to remind you about our All-Employee Meeting this Tuesday, Oct.	I want to remind you about our ALL-employee meeting this Tuesday, oct.	2905404	1471993785250	1471993785321	p	80
5681	61035	I want to remind you about our All-Employee Meeting this Tuesday, Oct.	I want to remind you about our ALL-employee meeting this Tuesday, oct.	2905407	1471993785397	1471993785512	l	76
5681	61035	I want to remind you about our All-Employee Meeting this Tuesday, Oct.	I want to remind you about our ALL-employee meeting this Tuesday, oct.	2905411	1471993785586	1471993785658	o	79
5681	61035	I want to remind you about our All-Employee Meeting this Tuesday, Oct.	I want to remind you about our ALL-employee meeting this Tuesday, oct.	2905414	1471993786181	1471993786249	BKSP	8
5681	61035	I want to remind you about our All-Employee Meeting this Tuesday, Oct.	I want to remind you about our ALL-employee meeting this Tuesday, oct.	2905417	1471993786824	1471993786932	o	79
5681	61035	I want to remind you about our All-Employee Meeting this Tuesday, Oct.	I want to remind you about our ALL-employee meeting this Tuesday, oct.	2905421	1471993787134	1471993787242	y	89
5681	61035	I want to remind you about our All-Employee Meeting this Tuesday, Oct.	I want to remind you about our ALL-employee meeting this Tuesday, oct.	2905472	1471993787270	1471993787334	e	69
5681	61035	I want to remind you about our All-Employee Meeting this Tuesday, Oct.	I want to remind you about our ALL-employee meeting this Tuesday, oct.	2905473	1471993787415	1471993787510	e	69
5681	61035	I want to remind you about our All-Employee Meeting this Tuesday, Oct.	I want to remind you about our ALL-employee meeting this Tuesday, oct.	2905474	1471993787533	1471993787629	 	32
5681	61035	I want to remind you about our All-Employee Meeting this Tuesday, Oct.	I want to remind you about our ALL-employee meeting this Tuesday, oct.	2905475	1471993788022	1471993788146	m	77
5681	61035	I want to remind you about our All-Employee Meeting this Tuesday, Oct.	I want to remind you about our ALL-employee meeting this Tuesday, oct.	2905476	1471993788167	1471993788223	e	69
5681	61035	I want to remind you about our All-Employee Meeting this Tuesday, Oct.	I want to remind you about our ALL-employee meeting this Tuesday, oct.	2905503	1471993788345	1471993788518	e	69
5681	61035	I want to remind you about our All-Employee Meeting this Tuesday, Oct.	I want to remind you about our ALL-employee meeting this Tuesday, oct.	2905508	1471993788618	1471993788721	t	84
5681	61035	I want to remind you about our All-Employee Meeting this Tuesday, Oct.	I want to remind you about our ALL-employee meeting this Tuesday, oct.	2905513	1471993788673	1471993788741	i	73
5681	61035	I want to remind you about our All-Employee Meeting this Tuesday, Oct.	I want to remind you about our ALL-employee meeting this Tuesday, oct.	2905520	1471993788810	1471993788902	n	78
5681	61035	I want to remind you about our All-Employee Meeting this Tuesday, Oct.	I want to remind you about our ALL-employee meeting this Tuesday, oct.	2905525	1471993788932	1471993789028	g	71
5681	61035	I want to remind you about our All-Employee Meeting this Tuesday, Oct.	I want to remind you about our ALL-employee meeting this Tuesday, oct.	2905543	1471993789283	1471993789371	 	32
5681	61035	I want to remind you about our All-Employee Meeting this Tuesday, Oct.	I want to remind you about our ALL-employee meeting this Tuesday, oct.	2905545	1471993789400	1471993789495	t	84
5681	61035	I want to remind you about our All-Employee Meeting this Tuesday, Oct.	I want to remind you about our ALL-employee meeting this Tuesday, oct.	2905550	1471993789492	1471993789592	h	72
5681	61035	I want to remind you about our All-Employee Meeting this Tuesday, Oct.	I want to remind you about our ALL-employee meeting this Tuesday, oct.	2905553	1471993789688	1471993789808	i	73
5681	61035	I want to remind you about our All-Employee Meeting this Tuesday, Oct.	I want to remind you about our ALL-employee meeting this Tuesday, oct.	2905557	1471993789842	1471993789930	s	83
5681	61035	I want to remind you about our All-Employee Meeting this Tuesday, Oct.	I want to remind you about our ALL-employee meeting this Tuesday, oct.	2905671	1471993790112	1471993790160	BKSP	8
5681	61035	I want to remind you about our All-Employee Meeting this Tuesday, Oct.	I want to remind you about our ALL-employee meeting this Tuesday, oct.	2905675	1471993790581	1471993790700	s	83
5681	61035	I want to remind you about our All-Employee Meeting this Tuesday, Oct.	I want to remind you about our ALL-employee meeting this Tuesday, oct.	2905678	1471993791114	1471993791218	 	32
5681	61035	I want to remind you about our All-Employee Meeting this Tuesday, Oct.	I want to remind you about our ALL-employee meeting this Tuesday, oct.	2905683	1471993791581	1471993792117	SHIFT	16
5681	61035	I want to remind you about our All-Employee Meeting this Tuesday, Oct.	I want to remind you about our ALL-employee meeting this Tuesday, oct.	2905681	1471993792017	1471993792093	T	84
5681	61035	I want to remind you about our All-Employee Meeting this Tuesday, Oct.	I want to remind you about our ALL-employee meeting this Tuesday, oct.	2905685	1471993792227	1471993792323	u	85
5681	61035	I want to remind you about our All-Employee Meeting this Tuesday, Oct.	I want to remind you about our ALL-employee meeting this Tuesday, oct.	2905687	1471993792335	1471993792431	e	69
5681	61035	I want to remind you about our All-Employee Meeting this Tuesday, Oct.	I want to remind you about our ALL-employee meeting this Tuesday, oct.	2905736	1471993792498	1471993792622	s	83
5681	61035	I want to remind you about our All-Employee Meeting this Tuesday, Oct.	I want to remind you about our ALL-employee meeting this Tuesday, oct.	2905739	1471993792716	1471993792840	d	68
5681	61035	I want to remind you about our All-Employee Meeting this Tuesday, Oct.	I want to remind you about our ALL-employee meeting this Tuesday, oct.	2905742	1471993792880	1471993793076	a	65
5681	61035	I want to remind you about our All-Employee Meeting this Tuesday, Oct.	I want to remind you about our ALL-employee meeting this Tuesday, oct.	2905745	1471993793115	1471993793271	y	89
5681	61035	I want to remind you about our All-Employee Meeting this Tuesday, Oct.	I want to remind you about our ALL-employee meeting this Tuesday, oct.	2905747	1471993794604	1471993794652	,	188
5681	61035	I want to remind you about our All-Employee Meeting this Tuesday, Oct.	I want to remind you about our ALL-employee meeting this Tuesday, oct.	2905761	1471993794774	1471993794822	 	32
5681	61035	I want to remind you about our All-Employee Meeting this Tuesday, Oct.	I want to remind you about our ALL-employee meeting this Tuesday, oct.	2905764	1471993794946	1471993795010	o	79
5681	61035	I want to remind you about our All-Employee Meeting this Tuesday, Oct.	I want to remind you about our ALL-employee meeting this Tuesday, oct.	2905766	1471993795120	1471993795188	c	67
5681	61035	I want to remind you about our All-Employee Meeting this Tuesday, Oct.	I want to remind you about our ALL-employee meeting this Tuesday, oct.	2905770	1471993795311	1471993795411	t	84
5681	61035	I want to remind you about our All-Employee Meeting this Tuesday, Oct.	I want to remind you about our ALL-employee meeting this Tuesday, oct.	2905773	1471993795539	1471993795606	.	190
5681	61059	Best of luck and stay in touch.	Best of luck and stay in touch	2906157	1471993801262	1471993801774	SHIFT	16
5681	61059	Best of luck and stay in touch.	Best of luck and stay in touch	2906156	1471993801470	1471993801670	V	86
5681	61059	Best of luck and stay in touch.	Best of luck and stay in touch	2906158	1471993801847	1471993801915	BKSP	8
5681	61059	Best of luck and stay in touch.	Best of luck and stay in touch	2906159	1471993802057	1471993803229	SHIFT	16
5681	61059	Best of luck and stay in touch.	Best of luck and stay in touch	2906160	1471993803161	1471993803249	B	66
5681	61059	Best of luck and stay in touch.	Best of luck and stay in touch	2906161	1471993803522	1471993803546	s	83
5681	61059	Best of luck and stay in touch.	Best of luck and stay in touch	2906163	1471993803658	1471993803738	e	69
5681	61059	Best of luck and stay in touch.	Best of luck and stay in touch	2906165	1471993803993	1471993804049	BKSP	8
5681	61059	Best of luck and stay in touch.	Best of luck and stay in touch	2906167	1471993804128	1471993804188	BKSP	8
5681	61059	Best of luck and stay in touch.	Best of luck and stay in touch	2906169	1471993804204	1471993804284	e	69
5681	61059	Best of luck and stay in touch.	Best of luck and stay in touch	2906196	1471993804369	1471993804473	s	83
5681	61059	Best of luck and stay in touch.	Best of luck and stay in touch	2906201	1471993804573	1471993804732	t	84
5681	61059	Best of luck and stay in touch.	Best of luck and stay in touch	2906208	1471993804693	1471993804761	 	32
5681	61059	Best of luck and stay in touch.	Best of luck and stay in touch	2906212	1471993804872	1471993804944	o	79
5681	61059	Best of luck and stay in touch.	Best of luck and stay in touch	2906264	1471993805015	1471993805142	f	70
5681	61059	Best of luck and stay in touch.	Best of luck and stay in touch	2906217	1471993805079	1471993805138	 	32
5681	61059	Best of luck and stay in touch.	Best of luck and stay in touch	2906266	1471993805244	1471993805308	l	76
5681	61059	Best of luck and stay in touch.	Best of luck and stay in touch	2906270	1471993805464	1471993805588	u	85
5681	61059	Best of luck and stay in touch.	Best of luck and stay in touch	2906275	1471993805627	1471993805731	c	67
5681	61059	Best of luck and stay in touch.	Best of luck and stay in touch	2906280	1471993805879	1471993805987	k	75
5681	61059	Best of luck and stay in touch.	Best of luck and stay in touch	2906283	1471993806104	1471993806160	 	32
5681	61059	Best of luck and stay in touch.	Best of luck and stay in touch	2906282	1471993806196	1471993806300	a	65
5681	61059	Best of luck and stay in touch.	Best of luck and stay in touch	2906285	1471993806345	1471993806425	n	78
5681	61059	Best of luck and stay in touch.	Best of luck and stay in touch	2906289	1471993806433	1471993806557	d	68
5681	61059	Best of luck and stay in touch.	Best of luck and stay in touch	2906294	1471993806529	1471993806593	 	32
5681	61059	Best of luck and stay in touch.	Best of luck and stay in touch	2906298	1471993806660	1471993806772	s	83
5681	61059	Best of luck and stay in touch.	Best of luck and stay in touch	2906355	1471993806852	1471993806960	a	65
5681	61059	Best of luck and stay in touch.	Best of luck and stay in touch	2906359	1471993806964	1471993807032	t	84
5681	61059	Best of luck and stay in touch.	Best of luck and stay in touch	2906364	1471993807200	1471993807264	BKSP	8
5681	61059	Best of luck and stay in touch.	Best of luck and stay in touch	2906366	1471993807359	1471993807411	BKSP	8
5681	61059	Best of luck and stay in touch.	Best of luck and stay in touch	2906370	1471993807619	1471993807699	t	84
5681	61059	Best of luck and stay in touch.	Best of luck and stay in touch	2906374	1471993807739	1471993807839	a	65
5681	61059	Best of luck and stay in touch.	Best of luck and stay in touch	2906422	1471993807791	1471993807858	y	89
5681	61059	Best of luck and stay in touch.	Best of luck and stay in touch	2906427	1471993807945	1471993808001	 	32
5681	61059	Best of luck and stay in touch.	Best of luck and stay in touch	2906431	1471993808144	1471993808200	i	73
5681	61059	Best of luck and stay in touch.	Best of luck and stay in touch	2906433	1471993808443	1471993808547	n	78
5681	61059	Best of luck and stay in touch.	Best of luck and stay in touch	2906436	1471993808659	1471993808719	 	32
5681	61059	Best of luck and stay in touch.	Best of luck and stay in touch	2906438	1471993808813	1471993808917	t	84
5681	61059	Best of luck and stay in touch.	Best of luck and stay in touch	2906462	1471993808885	1471993808993	o	79
5681	61059	Best of luck and stay in touch.	Best of luck and stay in touch	2906464	1471993809076	1471993809188	u	85
5681	61059	Best of luck and stay in touch.	Best of luck and stay in touch	2906468	1471993809226	1471993809337	c	67
5681	61059	Best of luck and stay in touch.	Best of luck and stay in touch	2906471	1471993809326	1471993809390	h	72
5681	61073	Will you and KB be around this afternoon?	Will you and KB be around this afternoon?	2906879	1471993818940	1471993819202	SHIFT	16
5681	61073	Will you and KB be around this afternoon?	Will you and KB be around this afternoon?	2906876	1471993819079	1471993819194	W	87
5681	61073	Will you and KB be around this afternoon?	Will you and KB be around this afternoon?	2906883	1471993819203	1471993819274	i	73
5681	61073	Will you and KB be around this afternoon?	Will you and KB be around this afternoon?	2906888	1471993819358	1471993819425	l	76
5681	61073	Will you and KB be around this afternoon?	Will you and KB be around this afternoon?	2906891	1471993819480	1471993819527	l	76
5681	61073	Will you and KB be around this afternoon?	Will you and KB be around this afternoon?	2906895	1471993819590	1471993819666	 	32
5681	61073	Will you and KB be around this afternoon?	Will you and KB be around this afternoon?	2906944	1471993819725	1471993819808	y	89
5681	61073	Will you and KB be around this afternoon?	Will you and KB be around this afternoon?	2906946	1471993819813	1471993819872	o	79
5681	61073	Will you and KB be around this afternoon?	Will you and KB be around this afternoon?	2906950	1471993819905	1471993819977	u	85
5681	61073	Will you and KB be around this afternoon?	Will you and KB be around this afternoon?	2906954	1471993819995	1471993820066	 	32
5681	61073	Will you and KB be around this afternoon?	Will you and KB be around this afternoon?	2906958	1471993820148	1471993820299	a	65
5681	61073	Will you and KB be around this afternoon?	Will you and KB be around this afternoon?	2907024	1471993820386	1471993820501	d	68
5681	61073	Will you and KB be around this afternoon?	Will you and KB be around this afternoon?	2907026	1471993820825	1471993820876	BKSP	8
5681	61073	Will you and KB be around this afternoon?	Will you and KB be around this afternoon?	2907028	1471993821235	1471993821302	n	78
5681	61073	Will you and KB be around this afternoon?	Will you and KB be around this afternoon?	2907030	1471993821359	1471993821450	d	68
5681	61073	Will you and KB be around this afternoon?	Will you and KB be around this afternoon?	2907032	1471993821407	1471993821478	 	32
5681	61073	Will you and KB be around this afternoon?	Will you and KB be around this afternoon?	2907082	1471993821673	1471993822361	SHIFT	16
5681	61073	Will you and KB be around this afternoon?	Will you and KB be around this afternoon?	2907034	1471993821766	1471993821933	K	75
5681	61073	Will you and KB be around this afternoon?	Will you and KB be around this afternoon?	2907080	1471993822174	1471993822345	B	66
5681	61073	Will you and KB be around this afternoon?	Will you and KB be around this afternoon?	2907083	1471993822509	1471993822596	 	32
5681	61073	Will you and KB be around this afternoon?	Will you and KB be around this afternoon?	2907084	1471993822714	1471993822829	b	66
5681	61073	Will you and KB be around this afternoon?	Will you and KB be around this afternoon?	2907085	1471993822866	1471993822953	e	69
5681	61073	Will you and KB be around this afternoon?	Will you and KB be around this afternoon?	2907086	1471993822954	1471993823021	 	32
5681	61073	Will you and KB be around this afternoon?	Will you and KB be around this afternoon?	2907106	1471993823063	1471993823162	a	65
5681	61073	Will you and KB be around this afternoon?	Will you and KB be around this afternoon?	2907109	1471993823247	1471993823386	r	82
5681	61073	Will you and KB be around this afternoon?	Will you and KB be around this afternoon?	2907113	1471993823343	1471993823422	o	79
5681	61073	Will you and KB be around this afternoon?	Will you and KB be around this afternoon?	2907116	1471993823496	1471993823595	u	85
5681	61073	Will you and KB be around this afternoon?	Will you and KB be around this afternoon?	2907118	1471993823667	1471993823778	n	78
5681	61073	Will you and KB be around this afternoon?	Will you and KB be around this afternoon?	2907132	1471993823727	1471993823814	d	68
5681	61073	Will you and KB be around this afternoon?	Will you and KB be around this afternoon?	2907135	1471993823827	1471993823904	 	32
5681	61073	Will you and KB be around this afternoon?	Will you and KB be around this afternoon?	2907137	1471993823948	1471993824039	t	84
5681	61073	Will you and KB be around this afternoon?	Will you and KB be around this afternoon?	2907141	1471993824012	1471993824095	h	72
5681	61073	Will you and KB be around this afternoon?	Will you and KB be around this afternoon?	2907144	1471993824181	1471993824277	i	73
5681	61073	Will you and KB be around this afternoon?	Will you and KB be around this afternoon?	2907147	1471993824322	1471993824433	s	83
5681	61073	Will you and KB be around this afternoon?	Will you and KB be around this afternoon?	2907161	1471993824398	1471993824481	 	32
5681	61073	Will you and KB be around this afternoon?	Will you and KB be around this afternoon?	2907163	1471993824486	1471993824625	a	65
5681	61073	Will you and KB be around this afternoon?	Will you and KB be around this afternoon?	2907166	1471993824663	1471993824730	f	70
5681	61073	Will you and KB be around this afternoon?	Will you and KB be around this afternoon?	2907168	1471993824841	1471993824920	t	84
5681	61073	Will you and KB be around this afternoon?	Will you and KB be around this afternoon?	2907170	1471993824918	1471993825016	e	69
5681	61073	Will you and KB be around this afternoon?	Will you and KB be around this afternoon?	2907173	1471993825082	1471993825186	r	82
5681	61073	Will you and KB be around this afternoon?	Will you and KB be around this afternoon?	2907222	1471993825182	1471993825241	n	78
5681	61073	Will you and KB be around this afternoon?	Will you and KB be around this afternoon?	2907225	1471993825392	1471993825436	o	79
5681	61073	Will you and KB be around this afternoon?	Will you and KB be around this afternoon?	2907227	1471993825510	1471993825573	o	79
5681	61073	Will you and KB be around this afternoon?	Will you and KB be around this afternoon?	2907229	1471993825670	1471993825749	n	78
5681	61073	Will you and KB be around this afternoon?	Will you and KB be around this afternoon?	2907233	1471993825834	1471993826178	SHIFT	16
5681	61073	Will you and KB be around this afternoon?	Will you and KB be around this afternoon?	2907231	1471993826079	1471993826166	?	191
5681	61088	The important thing is to keep your feet on the ground.	The important thing is to keep your feet on the ground.	2907572	1471993832180	1471993832412	SHIFT	16
5681	61088	The important thing is to keep your feet on the ground.	The important thing is to keep your feet on the ground.	2907569	1471993832269	1471993832336	T	84
5681	61088	The important thing is to keep your feet on the ground.	The important thing is to keep your feet on the ground.	2907574	1471993832409	1471993832488	H	72
5681	61088	The important thing is to keep your feet on the ground.	The important thing is to keep your feet on the ground.	2907575	1471993832505	1471993832604	e	69
5681	61088	The important thing is to keep your feet on the ground.	The important thing is to keep your feet on the ground.	2907576	1471993832613	1471993832644	 	32
5681	61088	The important thing is to keep your feet on the ground.	The important thing is to keep your feet on the ground.	2907577	1471993833422	1471993833478	BKSP	8
5681	61088	The important thing is to keep your feet on the ground.	The important thing is to keep your feet on the ground.	2907578	1471993833539	1471993833599	BKSP	8
5681	61088	The important thing is to keep your feet on the ground.	The important thing is to keep your feet on the ground.	2907580	1471993833684	1471993833708	BKSP	8
5681	61088	The important thing is to keep your feet on the ground.	The important thing is to keep your feet on the ground.	2907583	1471993834172	1471993834239	h	72
5681	61088	The important thing is to keep your feet on the ground.	The important thing is to keep your feet on the ground.	2907601	1471993834277	1471993834360	e	69
5681	61088	The important thing is to keep your feet on the ground.	The important thing is to keep your feet on the ground.	2907602	1471993834325	1471993834404	 	32
5681	61088	The important thing is to keep your feet on the ground.	The important thing is to keep your feet on the ground.	2907605	1471993834502	1471993834569	i	73
5681	61088	The important thing is to keep your feet on the ground.	The important thing is to keep your feet on the ground.	2907608	1471993834650	1471993834757	m	77
5681	61088	The important thing is to keep your feet on the ground.	The important thing is to keep your feet on the ground.	2907611	1471993834862	1471993834905	p	80
5681	61088	The important thing is to keep your feet on the ground.	The important thing is to keep your feet on the ground.	2907632	1471993834976	1471993835067	o	79
5681	61088	The important thing is to keep your feet on the ground.	The important thing is to keep your feet on the ground.	2907636	1471993835042	1471993835138	r	82
5681	61088	The important thing is to keep your feet on the ground.	The important thing is to keep your feet on the ground.	2907640	1471993835200	1471993835259	t	84
5681	61088	The important thing is to keep your feet on the ground.	The important thing is to keep your feet on the ground.	2907645	1471993835355	1471993835506	a	65
5681	61088	The important thing is to keep your feet on the ground.	The important thing is to keep your feet on the ground.	2907675	1471993835471	1471993835562	n	78
5681	61088	The important thing is to keep your feet on the ground.	The important thing is to keep your feet on the ground.	2907679	1471993835602	1471993835741	t	84
5681	61088	The important thing is to keep your feet on the ground.	The important thing is to keep your feet on the ground.	2907678	1471993835654	1471993835733	 	32
5681	61088	The important thing is to keep your feet on the ground.	The important thing is to keep your feet on the ground.	2907682	1471993835827	1471993835894	h	72
5681	61088	The important thing is to keep your feet on the ground.	The important thing is to keep your feet on the ground.	2907683	1471993836163	1471993836210	BKSP	8
5681	61088	The important thing is to keep your feet on the ground.	The important thing is to keep your feet on the ground.	2907685	1471993836306	1471993836381	t	84
5681	61088	The important thing is to keep your feet on the ground.	The important thing is to keep your feet on the ground.	2907705	1471993836378	1471993836437	h	72
5681	61088	The important thing is to keep your feet on the ground.	The important thing is to keep your feet on the ground.	2907709	1471993836540	1471993836716	i	73
5681	61088	The important thing is to keep your feet on the ground.	The important thing is to keep your feet on the ground.	2907712	1471993836812	1471993836911	n	78
5681	61088	The important thing is to keep your feet on the ground.	The important thing is to keep your feet on the ground.	2907714	1471993836953	1471993837076	g	71
5681	61088	The important thing is to keep your feet on the ground.	The important thing is to keep your feet on the ground.	2907720	1471993837017	1471993837080	 	32
5681	61088	The important thing is to keep your feet on the ground.	The important thing is to keep your feet on the ground.	2907724	1471993837157	1471993837180	t	84
5681	61088	The important thing is to keep your feet on the ground.	The important thing is to keep your feet on the ground.	2907787	1471993837185	1471993837256	i	73
5681	61088	The important thing is to keep your feet on the ground.	The important thing is to keep your feet on the ground.	2907791	1471993837609	1471993837649	BKSP	8
5681	61088	The important thing is to keep your feet on the ground.	The important thing is to keep your feet on the ground.	2907795	1471993837729	1471993837800	BKSP	8
5681	61088	The important thing is to keep your feet on the ground.	The important thing is to keep your feet on the ground.	2907796	1471993837952	1471993838059	i	73
5681	61088	The important thing is to keep your feet on the ground.	The important thing is to keep your feet on the ground.	2907799	1471993838142	1471993838222	t	84
5681	61088	The important thing is to keep your feet on the ground.	The important thing is to keep your feet on the ground.	2907802	1471993838462	1471993838509	BKSP	8
5681	61088	The important thing is to keep your feet on the ground.	The important thing is to keep your feet on the ground.	2907804	1471993838572	1471993838655	s	83
5681	61088	The important thing is to keep your feet on the ground.	The important thing is to keep your feet on the ground.	2907806	1471993838688	1471993838735	 	32
5681	61088	The important thing is to keep your feet on the ground.	The important thing is to keep your feet on the ground.	2907828	1471993838828	1471993838932	t	84
5681	61088	The important thing is to keep your feet on the ground.	The important thing is to keep your feet on the ground.	2907830	1471993838913	1471993838979	o	79
5681	61088	The important thing is to keep your feet on the ground.	The important thing is to keep your feet on the ground.	2907834	1471993839115	1471993839187	 	32
5681	61088	The important thing is to keep your feet on the ground.	The important thing is to keep your feet on the ground.	2907837	1471993839280	1471993839455	k	75
5681	61088	The important thing is to keep your feet on the ground.	The important thing is to keep your feet on the ground.	2907840	1471993839472	1471993839539	e	69
5681	61088	The important thing is to keep your feet on the ground.	The important thing is to keep your feet on the ground.	2907847	1471993839604	1471993839723	e	69
5681	61088	The important thing is to keep your feet on the ground.	The important thing is to keep your feet on the ground.	2907848	1471993839675	1471993839739	p	80
5681	61088	The important thing is to keep your feet on the ground.	The important thing is to keep your feet on the ground.	2907849	1471993839836	1471993839892	 	32
5681	61088	The important thing is to keep your feet on the ground.	The important thing is to keep your feet on the ground.	2907850	1471993839972	1471993840088	y	89
5681	61088	The important thing is to keep your feet on the ground.	The important thing is to keep your feet on the ground.	2907852	1471993840097	1471993840148	o	79
5681	61088	The important thing is to keep your feet on the ground.	The important thing is to keep your feet on the ground.	2907895	1471993840161	1471993840248	u	85
5681	61088	The important thing is to keep your feet on the ground.	The important thing is to keep your feet on the ground.	2907897	1471993840428	1471993840551	r	82
5681	61088	The important thing is to keep your feet on the ground.	The important thing is to keep your feet on the ground.	2907901	1471993840560	1471993840611	 	32
5681	61088	The important thing is to keep your feet on the ground.	The important thing is to keep your feet on the ground.	2907907	1471993840670	1471993840797	f	70
5681	61088	The important thing is to keep your feet on the ground.	The important thing is to keep your feet on the ground.	2907911	1471993840945	1471993841032	e	69
5681	61088	The important thing is to keep your feet on the ground.	The important thing is to keep your feet on the ground.	2907985	1471993841208	1471993841291	e	69
5681	61088	The important thing is to keep your feet on the ground.	The important thing is to keep your feet on the ground.	2907990	1471993841371	1471993841410	e	69
5681	61088	The important thing is to keep your feet on the ground.	The important thing is to keep your feet on the ground.	2907995	1471993841671	1471993841791	t	84
5681	61088	The important thing is to keep your feet on the ground.	The important thing is to keep your feet on the ground.	2907998	1471993841809	1471993841876	 	32
5681	61088	The important thing is to keep your feet on the ground.	The important thing is to keep your feet on the ground.	2907999	1471993842083	1471993842127	BKSP	8
5681	61088	The important thing is to keep your feet on the ground.	The important thing is to keep your feet on the ground.	2908002	1471993842202	1471993842258	BKSP	8
5681	61088	The important thing is to keep your feet on the ground.	The important thing is to keep your feet on the ground.	2908006	1471993842511	1471993842607	BKSP	8
5681	61088	The important thing is to keep your feet on the ground.	The important thing is to keep your feet on the ground.	2908010	1471993842711	1471993842783	BKSP	8
5681	61088	The important thing is to keep your feet on the ground.	The important thing is to keep your feet on the ground.	2908013	1471993843163	1471993843262	e	69
5681	61088	The important thing is to keep your feet on the ground.	The important thing is to keep your feet on the ground.	2908035	1471993843371	1471993843490	t	84
5681	61088	The important thing is to keep your feet on the ground.	The important thing is to keep your feet on the ground.	2908038	1471993843434	1471993843518	 	32
5681	61088	The important thing is to keep your feet on the ground.	The important thing is to keep your feet on the ground.	2908039	1471993843642	1471993843734	o	79
5681	61088	The important thing is to keep your feet on the ground.	The important thing is to keep your feet on the ground.	2908041	1471993843841	1471993843898	n	78
5681	61088	The important thing is to keep your feet on the ground.	The important thing is to keep your feet on the ground.	2908045	1471993843974	1471993844034	 	32
5681	61088	The important thing is to keep your feet on the ground.	The important thing is to keep your feet on the ground.	2908070	1471993844027	1471993844114	t	84
5681	61088	The important thing is to keep your feet on the ground.	The important thing is to keep your feet on the ground.	2908072	1471993844130	1471993844194	h	72
5681	61088	The important thing is to keep your feet on the ground.	The important thing is to keep your feet on the ground.	2908073	1471993844219	1471993844307	e	69
5681	61088	The important thing is to keep your feet on the ground.	The important thing is to keep your feet on the ground.	2908074	1471993844287	1471993844355	 	32
5681	61088	The important thing is to keep your feet on the ground.	The important thing is to keep your feet on the ground.	2908075	1471993844453	1471993844524	g	71
5681	61088	The important thing is to keep your feet on the ground.	The important thing is to keep your feet on the ground.	2908076	1471993844574	1471993844710	r	82
5681	61088	The important thing is to keep your feet on the ground.	The important thing is to keep your feet on the ground.	2908099	1471993844683	1471993844766	o	79
5681	61088	The important thing is to keep your feet on the ground.	The important thing is to keep your feet on the ground.	2908103	1471993844851	1471993844946	u	85
5681	61088	The important thing is to keep your feet on the ground.	The important thing is to keep your feet on the ground.	2908107	1471993845039	1471993845110	n	78
5681	61088	The important thing is to keep your feet on the ground.	The important thing is to keep your feet on the ground.	2908112	1471993845156	1471993845243	d	68
5681	61088	The important thing is to keep your feet on the ground.	The important thing is to keep your feet on the ground.	2908114	1471993845447	1471993845515	.	190
5681	61106	We haven't made that decision here though.	We haven't made that decision here though	2908445	1471993851999	1471993852191	SHIFT	16
5681	61106	We haven't made that decision here though.	We haven't made that decision here though	2908446	1471993852084	1471993852192	W	87
5681	61106	We haven't made that decision here though.	We haven't made that decision here though	2908447	1471993852441	1471993852536	e	69
5681	61106	We haven't made that decision here though.	We haven't made that decision here though	2908448	1471993852609	1471993852704	 	32
5681	61106	We haven't made that decision here though.	We haven't made that decision here though	2908451	1471993852804	1471993852903	h	72
5681	61106	We haven't made that decision here though.	We haven't made that decision here though	2908455	1471993852936	1471993853127	a	65
5681	61106	We haven't made that decision here though.	We haven't made that decision here though	2908546	1471993853170	1471993853273	v	86
5681	61106	We haven't made that decision here though.	We haven't made that decision here though	2908551	1471993853303	1471993853434	e	69
5681	61106	We haven't made that decision here though.	We haven't made that decision here though	2908555	1471993853435	1471993853466	n	78
5681	61106	We haven't made that decision here though.	We haven't made that decision here though	2908559	1471993854105	1471993854445	SHIFT	16
5681	61106	We haven't made that decision here though.	We haven't made that decision here though	2908556	1471993854310	1471993854386	"	222
5681	61106	We haven't made that decision here though.	We haven't made that decision here though	2908562	1471993854813	1471993854933	t	84
5681	61106	We haven't made that decision here though.	We haven't made that decision here though	2908644	1471993855167	1471993855227	BKSP	8
5681	61106	We haven't made that decision here though.	We haven't made that decision here though	2908646	1471993855296	1471993855372	BKSP	8
5681	61106	We haven't made that decision here though.	We haven't made that decision here though	2908647	1471993856240	1471993856303	'	222
5681	61106	We haven't made that decision here though.	We haven't made that decision here though	2908648	1471993856444	1471993856551	t	84
5681	61106	We haven't made that decision here though.	We haven't made that decision here though	2908650	1471993856955	1471993857038	 	32
5681	61106	We haven't made that decision here though.	We haven't made that decision here though	2908654	1471993857138	1471993857193	m	77
5681	61106	We haven't made that decision here though.	We haven't made that decision here though	2908693	1471993857182	1471993857278	a	65
5681	61106	We haven't made that decision here though.	We haven't made that decision here though	2908695	1471993857470	1471993857613	e	69
5681	61106	We haven't made that decision here though.	We haven't made that decision here though	2908699	1471993857868	1471993857943	BKSP	8
5681	61106	We haven't made that decision here though.	We haven't made that decision here though	2908702	1471993858037	1471993858144	d	68
5681	61106	We haven't made that decision here though.	We haven't made that decision here though	2908708	1471993858141	1471993858240	e	69
5681	61106	We haven't made that decision here though.	We haven't made that decision here though	2908713	1471993858229	1471993858300	 	32
5681	61106	We haven't made that decision here though.	We haven't made that decision here though	2908717	1471993858335	1471993858443	t	84
5681	61106	We haven't made that decision here though.	We haven't made that decision here though	2908735	1471993858428	1471993858495	h	72
5681	61106	We haven't made that decision here though.	We haven't made that decision here though	2908740	1471993858539	1471993858670	a	65
5681	61106	We haven't made that decision here though.	We haven't made that decision here though	2908742	1471993858769	1471993858848	t	84
5681	61106	We haven't made that decision here though.	We haven't made that decision here though	2908746	1471993858837	1471993858916	 	32
5681	61106	We haven't made that decision here though.	We haven't made that decision here though	2908750	1471993858967	1471993859091	d	68
5681	61106	We haven't made that decision here though.	We haven't made that decision here though	2908752	1471993859113	1471993859212	e	69
5681	61106	We haven't made that decision here though.	We haven't made that decision here though	2908762	1471993859271	1471993859390	c	67
5681	61106	We haven't made that decision here though.	We haven't made that decision here though	2908764	1471993859399	1471993859478	i	73
5681	61106	We haven't made that decision here though.	We haven't made that decision here though	2908768	1471993859474	1471993859582	s	83
5681	61106	We haven't made that decision here though.	We haven't made that decision here though	2908771	1471993859579	1471993859642	i	73
5681	61106	We haven't made that decision here though.	We haven't made that decision here though	2908773	1471993859722	1471993859833	o	79
5681	61106	We haven't made that decision here though.	We haven't made that decision here though	2908800	1471993859925	1471993859996	n	78
5681	61106	We haven't made that decision here though.	We haven't made that decision here though	2908803	1471993860068	1471993860127	 	32
5681	61106	We haven't made that decision here though.	We haven't made that decision here though	2908805	1471993860205	1471993860276	h	72
5681	61106	We haven't made that decision here though.	We haven't made that decision here though	2908807	1471993860264	1471993860348	e	69
5681	61106	We haven't made that decision here though.	We haven't made that decision here though	2908810	1471993860424	1471993860496	r	82
5681	61106	We haven't made that decision here though.	We haven't made that decision here though	2908838	1471993860569	1471993860644	e	69
5681	61106	We haven't made that decision here though.	We haven't made that decision here though	2908845	1471993860633	1471993860701	 	32
5681	61106	We haven't made that decision here though.	We haven't made that decision here though	2908851	1471993860764	1471993860871	t	84
5681	61106	We haven't made that decision here though.	We haven't made that decision here though	2908855	1471993860863	1471993860923	h	72
5681	61106	We haven't made that decision here though.	We haven't made that decision here though	2908859	1471993861023	1471993861087	o	79
5681	61106	We haven't made that decision here though.	We haven't made that decision here though	2908883	1471993861169	1471993861281	u	85
5681	61106	We haven't made that decision here though.	We haven't made that decision here though	2908885	1471993861579	1471993861647	g	71
5681	61106	We haven't made that decision here though.	We haven't made that decision here though	2908890	1471993861673	1471993861741	h	72
5681	61123	Argentina have called off their two football internationals in Japan.	Argentina have called off their two footbal internationals in japan.	2909217	1471993868769	1471993869132	SHIFT	16
5681	61123	Argentina have called off their two football internationals in Japan.	Argentina have called off their two footbal internationals in japan.	2909220	1471993869002	1471993869149	A	65
5681	61123	Argentina have called off their two football internationals in Japan.	Argentina have called off their two footbal internationals in japan.	2909222	1471993869229	1471993869289	r	82
5681	61123	Argentina have called off their two football internationals in Japan.	Argentina have called off their two footbal internationals in japan.	2909224	1471993869444	1471993869512	g	71
5681	61123	Argentina have called off their two football internationals in Japan.	Argentina have called off their two footbal internationals in japan.	2909226	1471993869569	1471993869661	e	69
5681	61123	Argentina have called off their two football internationals in Japan.	Argentina have called off their two footbal internationals in japan.	2909228	1471993869682	1471993869773	n	78
5681	61123	Argentina have called off their two football internationals in Japan.	Argentina have called off their two footbal internationals in japan.	2909289	1471993869836	1471993869931	t	84
5681	61123	Argentina have called off their two football internationals in Japan.	Argentina have called off their two footbal internationals in japan.	2909293	1471993869940	1471993869992	i	73
5681	61123	Argentina have called off their two football internationals in Japan.	Argentina have called off their two footbal internationals in japan.	2909301	1471993870333	1471993870436	n	78
5681	61123	Argentina have called off their two football internationals in Japan.	Argentina have called off their two footbal internationals in japan.	2909307	1471993870575	1471993870675	a	65
5681	61123	Argentina have called off their two football internationals in Japan.	Argentina have called off their two footbal internationals in japan.	2909313	1471993870724	1471993870800	 	32
5681	61123	Argentina have called off their two football internationals in Japan.	Argentina have called off their two footbal internationals in japan.	2909344	1471993871000	1471993871083	h	72
5681	61123	Argentina have called off their two football internationals in Japan.	Argentina have called off their two footbal internationals in japan.	2909347	1471993871129	1471993871237	a	65
5681	61123	Argentina have called off their two football internationals in Japan.	Argentina have called off their two footbal internationals in japan.	2909351	1471993871288	1471993871399	v	86
5681	61123	Argentina have called off their two football internationals in Japan.	Argentina have called off their two footbal internationals in japan.	2909355	1471993871416	1471993871499	e	69
5681	61123	Argentina have called off their two football internationals in Japan.	Argentina have called off their two footbal internationals in japan.	2909375	1471993871492	1471993871559	 	32
5681	61123	Argentina have called off their two football internationals in Japan.	Argentina have called off their two footbal internationals in japan.	2909378	1471993871631	1471993871730	c	67
5681	61123	Argentina have called off their two football internationals in Japan.	Argentina have called off their two footbal internationals in japan.	2909381	1471993871844	1471993871959	a	65
5681	61123	Argentina have called off their two football internationals in Japan.	Argentina have called off their two footbal internationals in japan.	2909384	1471993872060	1471993872103	l	76
5681	61123	Argentina have called off their two football internationals in Japan.	Argentina have called off their two footbal internationals in japan.	2909386	1471993872187	1471993872243	l	76
5681	61123	Argentina have called off their two football internationals in Japan.	Argentina have called off their two footbal internationals in japan.	2909388	1471993872326	1471993872381	 	32
5681	61123	Argentina have called off their two football internationals in Japan.	Argentina have called off their two footbal internationals in japan.	2909444	1471993872832	1471993872895	BKSP	8
5681	61123	Argentina have called off their two football internationals in Japan.	Argentina have called off their two footbal internationals in japan.	2909445	1471993872956	1471993873024	e	69
5681	61123	Argentina have called off their two football internationals in Japan.	Argentina have called off their two footbal internationals in japan.	2909446	1471993873083	1471993873214	d	68
5681	61123	Argentina have called off their two football internationals in Japan.	Argentina have called off their two footbal internationals in japan.	2909447	1471993873143	1471993873218	 	32
5681	61123	Argentina have called off their two football internationals in Japan.	Argentina have called off their two footbal internationals in japan.	2909448	1471993873332	1471993873395	o	79
5681	61123	Argentina have called off their two football internationals in Japan.	Argentina have called off their two footbal internationals in japan.	2909470	1471993873388	1471993873492	f	70
5681	61123	Argentina have called off their two football internationals in Japan.	Argentina have called off their two footbal internationals in japan.	2909472	1471993873551	1471993873634	f	70
5681	61123	Argentina have called off their two football internationals in Japan.	Argentina have called off their two footbal internationals in japan.	2909475	1471993873654	1471993873725	 	32
5681	61123	Argentina have called off their two football internationals in Japan.	Argentina have called off their two footbal internationals in japan.	2909479	1471993873771	1471993873870	t	84
5681	61123	Argentina have called off their two football internationals in Japan.	Argentina have called off their two footbal internationals in japan.	2909483	1471993873887	1471993873974	h	72
5681	61123	Argentina have called off their two football internationals in Japan.	Argentina have called off their two footbal internationals in japan.	2909486	1471993873983	1471993874094	e	69
5681	61123	Argentina have called off their two football internationals in Japan.	Argentina have called off their two footbal internationals in japan.	2909511	1471993874134	1471993874245	i	73
5681	61123	Argentina have called off their two football internationals in Japan.	Argentina have called off their two footbal internationals in japan.	2909515	1471993874300	1471993874391	r	82
5681	61123	Argentina have called off their two football internationals in Japan.	Argentina have called off their two footbal internationals in japan.	2909521	1471993874396	1471993874483	 	32
5681	61123	Argentina have called off their two football internationals in Japan.	Argentina have called off their two footbal internationals in japan.	2909527	1471993874537	1471993874612	t	84
5681	61123	Argentina have called off their two football internationals in Japan.	Argentina have called off their two footbal internationals in japan.	2909530	1471993874733	1471993874916	w	87
5681	61123	Argentina have called off their two football internationals in Japan.	Argentina have called off their two footbal internationals in japan.	2909548	1471993874884	1471993874976	o	79
5681	61123	Argentina have called off their two football internationals in Japan.	Argentina have called off their two footbal internationals in japan.	2909549	1471993875054	1471993875133	 	32
5681	61123	Argentina have called off their two football internationals in Japan.	Argentina have called off their two footbal internationals in japan.	2909551	1471993875181	1471993875276	f	70
5681	61123	Argentina have called off their two football internationals in Japan.	Argentina have called off their two footbal internationals in japan.	2909552	1471993875281	1471993875340	o	79
5681	61123	Argentina have called off their two football internationals in Japan.	Argentina have called off their two footbal internationals in japan.	2909554	1471993875434	1471993875513	o	79
5681	61123	Argentina have called off their two football internationals in Japan.	Argentina have called off their two footbal internationals in japan.	2909556	1471993875577	1471993875649	t	84
5681	61123	Argentina have called off their two football internationals in Japan.	Argentina have called off their two footbal internationals in japan.	2909597	1471993875734	1471993875849	b	66
5681	61123	Argentina have called off their two football internationals in Japan.	Argentina have called off their two footbal internationals in japan.	2909600	1471993875905	1471993875993	a	65
5681	61123	Argentina have called off their two football internationals in Japan.	Argentina have called off their two footbal internationals in japan.	2909604	1471993876033	1471993876120	l	76
5681	61123	Argentina have called off their two football internationals in Japan.	Argentina have called off their two footbal internationals in japan.	2909609	1471993876239	1471993876318	 	32
5681	61123	Argentina have called off their two football internationals in Japan.	Argentina have called off their two footbal internationals in japan.	2909612	1471993876436	1471993876499	i	73
5681	61123	Argentina have called off their two football internationals in Japan.	Argentina have called off their two footbal internationals in japan.	2909671	1471993876643	1471993876730	n	78
5681	61123	Argentina have called off their two football internationals in Japan.	Argentina have called off their two footbal internationals in japan.	2909672	1471993876836	1471993876912	t	84
5681	61123	Argentina have called off their two football internationals in Japan.	Argentina have called off their two footbal internationals in japan.	2909674	1471993877055	1471993877126	e	69
5681	61123	Argentina have called off their two football internationals in Japan.	Argentina have called off their two footbal internationals in japan.	2909675	1471993877699	1471993877798	r	82
5681	61123	Argentina have called off their two football internationals in Japan.	Argentina have called off their two footbal internationals in japan.	2909676	1471993878001	1471993878113	n	78
5681	61123	Argentina have called off their two football internationals in Japan.	Argentina have called off their two footbal internationals in japan.	2909733	1471993878362	1471993878469	a	65
5681	61123	Argentina have called off their two football internationals in Japan.	Argentina have called off their two footbal internationals in japan.	2909734	1471993878602	1471993878721	t	84
5681	61123	Argentina have called off their two football internationals in Japan.	Argentina have called off their two footbal internationals in japan.	2909735	1471993878819	1471993878930	i	73
5681	61123	Argentina have called off their two football internationals in Japan.	Argentina have called off their two footbal internationals in japan.	2909737	1471993879024	1471993879107	o	79
5681	61123	Argentina have called off their two football internationals in Japan.	Argentina have called off their two footbal internationals in japan.	2909739	1471993879205	1471993879323	n	78
5681	61123	Argentina have called off their two football internationals in Japan.	Argentina have called off their two footbal internationals in japan.	2909754	1471993879339	1471993879451	a	65
5681	61123	Argentina have called off their two football internationals in Japan.	Argentina have called off their two footbal internationals in japan.	2909757	1471993879479	1471993879571	l	76
5681	61123	Argentina have called off their two football internationals in Japan.	Argentina have called off their two footbal internationals in japan.	2909760	1471993879615	1471993879678	s	83
5681	61123	Argentina have called off their two football internationals in Japan.	Argentina have called off their two footbal internationals in japan.	2909764	1471993879691	1471993879762	 	32
5681	61123	Argentina have called off their two football internationals in Japan.	Argentina have called off their two footbal internationals in japan.	2909766	1471993879867	1471993879962	i	73
5681	61123	Argentina have called off their two football internationals in Japan.	Argentina have called off their two footbal internationals in japan.	2909804	1471993880064	1471993880111	n	78
5681	61123	Argentina have called off their two football internationals in Japan.	Argentina have called off their two footbal internationals in japan.	2909806	1471993880224	1471993880287	 	32
5681	61123	Argentina have called off their two football internationals in Japan.	Argentina have called off their two footbal internationals in japan.	2909808	1471993880516	1471993880599	j	74
5681	61123	Argentina have called off their two football internationals in Japan.	Argentina have called off their two footbal internationals in japan.	2909810	1471993880604	1471993880711	a	65
5681	61123	Argentina have called off their two football internationals in Japan.	Argentina have called off their two footbal internationals in japan.	2909816	1471993880749	1471993880812	p	80
5681	61123	Argentina have called off their two football internationals in Japan.	Argentina have called off their two footbal internationals in japan.	2909902	1471993880969	1471993881056	a	65
5681	61123	Argentina have called off their two football internationals in Japan.	Argentina have called off their two footbal internationals in japan.	2909904	1471993881053	1471993881112	n	78
5681	61123	Argentina have called off their two football internationals in Japan.	Argentina have called off their two footbal internationals in japan.	2909906	1471993881369	1471993881945	SHIFT	16
5681	61123	Argentina have called off their two football internationals in Japan.	Argentina have called off their two footbal internationals in japan.	2909909	1471993882176	1471993882239	.	190
5681	61141	Jeff, attached is my resume.	Jeff, attached is my resume.	2910085	1471993885453	1471993885665	SHIFT	16
5681	61141	Jeff, attached is my resume.	Jeff, attached is my resume.	2910083	1471993885574	1471993885661	J	74
5681	61141	Jeff, attached is my resume.	Jeff, attached is my resume.	2910087	1471993885867	1471993885974	e	69
5681	61141	Jeff, attached is my resume.	Jeff, attached is my resume.	2910089	1471993886327	1471993886427	f	70
5681	61141	Jeff, attached is my resume.	Jeff, attached is my resume.	2910091	1471993886505	1471993886628	f	70
5681	61141	Jeff, attached is my resume.	Jeff, attached is my resume.	2910092	1471993886985	1471993887061	,	188
5681	61141	Jeff, attached is my resume.	Jeff, attached is my resume.	2910138	1471993887191	1471993887274	 	32
5681	61141	Jeff, attached is my resume.	Jeff, attached is my resume.	2910142	1471993887350	1471993887429	a	65
5681	61141	Jeff, attached is my resume.	Jeff, attached is my resume.	2910144	1471993887564	1471993887608	t	84
5681	61141	Jeff, attached is my resume.	Jeff, attached is my resume.	2910147	1471993887715	1471993887794	t	84
5681	61141	Jeff, attached is my resume.	Jeff, attached is my resume.	2910150	1471993887913	1471993888076	a	65
5681	61141	Jeff, attached is my resume.	Jeff, attached is my resume.	2910190	1471993888165	1471993888360	c	67
5681	61141	Jeff, attached is my resume.	Jeff, attached is my resume.	2910193	1471993888301	1471993888408	h	72
5681	61141	Jeff, attached is my resume.	Jeff, attached is my resume.	2910198	1471993888421	1471993888532	e	69
5681	61141	Jeff, attached is my resume.	Jeff, attached is my resume.	2910201	1471993888630	1471993888761	d	68
5681	61141	Jeff, attached is my resume.	Jeff, attached is my resume.	2910203	1471993888774	1471993888857	 	32
5681	61141	Jeff, attached is my resume.	Jeff, attached is my resume.	2910217	1471993888984	1471993889039	i	73
5681	61141	Jeff, attached is my resume.	Jeff, attached is my resume.	2910220	1471993889096	1471993889191	s	83
5681	61141	Jeff, attached is my resume.	Jeff, attached is my resume.	2910222	1471993889184	1471993889235	 	32
5681	61141	Jeff, attached is my resume.	Jeff, attached is my resume.	2910226	1471993889328	1471993889395	m	77
5681	61141	Jeff, attached is my resume.	Jeff, attached is my resume.	2910229	1471993889517	1471993889581	y	89
5681	61141	Jeff, attached is my resume.	Jeff, attached is my resume.	2910258	1471993889673	1471993889764	 	32
5681	61141	Jeff, attached is my resume.	Jeff, attached is my resume.	2910261	1471993889761	1471993889832	r	82
5681	61141	Jeff, attached is my resume.	Jeff, attached is my resume.	2910263	1471993889911	1471993889994	e	69
5681	61141	Jeff, attached is my resume.	Jeff, attached is my resume.	2910265	1471993890092	1471993890203	s	83
5681	61141	Jeff, attached is my resume.	Jeff, attached is my resume.	2910267	1471993890374	1471993890446	u	85
5681	61141	Jeff, attached is my resume.	Jeff, attached is my resume.	2910305	1471993890543	1471993890670	m	77
5681	61141	Jeff, attached is my resume.	Jeff, attached is my resume.	2910308	1471993890764	1471993890855	e	69
5681	61141	Jeff, attached is my resume.	Jeff, attached is my resume.	2910312	1471993891061	1471993891129	.	190
5681	61151	I was a bit rusty but I didn't want to miss the elections back home.	I was bit rusty but i didnt want to miss the elections back home	2910476	1471993894151	1471993894511	SHIFT	16
5681	61151	I was a bit rusty but I didn't want to miss the elections back home.	I was bit rusty but i didnt want to miss the elections back home	2910475	1471993894359	1471993894419	I	73
5681	61151	I was a bit rusty but I didn't want to miss the elections back home.	I was bit rusty but i didnt want to miss the elections back home	2910477	1471993894565	1471993894633	 	32
5681	61151	I was a bit rusty but I didn't want to miss the elections back home.	I was bit rusty but i didnt want to miss the elections back home	2910478	1471993894655	1471993894775	w	87
5681	61151	I was a bit rusty but I didn't want to miss the elections back home.	I was bit rusty but i didnt want to miss the elections back home	2910479	1471993894865	1471993894964	a	65
5681	61151	I was a bit rusty but I didn't want to miss the elections back home.	I was bit rusty but i didnt want to miss the elections back home	2910480	1471993895024	1471993895139	s	83
5681	61151	I was a bit rusty but I didn't want to miss the elections back home.	I was bit rusty but i didnt want to miss the elections back home	2910508	1471993895108	1471993895187	 	32
5681	61151	I was a bit rusty but I didn't want to miss the elections back home.	I was bit rusty but i didnt want to miss the elections back home	2910511	1471993895345	1471993895415	b	66
5681	61151	I was a bit rusty but I didn't want to miss the elections back home.	I was bit rusty but i didnt want to miss the elections back home	2910515	1471993895508	1471993895624	i	73
5681	61151	I was a bit rusty but I didn't want to miss the elections back home.	I was bit rusty but i didnt want to miss the elections back home	2910518	1471993895620	1471993895704	t	84
5681	61151	I was a bit rusty but I didn't want to miss the elections back home.	I was bit rusty but i didnt want to miss the elections back home	2910522	1471993895720	1471993895784	 	32
5681	61151	I was a bit rusty but I didn't want to miss the elections back home.	I was bit rusty but i didnt want to miss the elections back home	2910526	1471993895923	1471993896098	r	82
5681	61151	I was a bit rusty but I didn't want to miss the elections back home.	I was bit rusty but i didnt want to miss the elections back home	2910585	1471993896106	1471993896258	u	85
5681	61151	I was a bit rusty but I didn't want to miss the elections back home.	I was bit rusty but i didnt want to miss the elections back home	2910587	1471993896296	1471993896404	s	83
5681	61151	I was a bit rusty but I didn't want to miss the elections back home.	I was bit rusty but i didnt want to miss the elections back home	2910591	1471993896517	1471993896637	t	84
5681	61151	I was a bit rusty but I didn't want to miss the elections back home.	I was bit rusty but i didnt want to miss the elections back home	2910594	1471993896723	1471993896847	y	89
5681	61151	I was a bit rusty but I didn't want to miss the elections back home.	I was bit rusty but i didnt want to miss the elections back home	2910599	1471993897664	1471993897740	 	32
5681	61151	I was a bit rusty but I didn't want to miss the elections back home.	I was bit rusty but i didnt want to miss the elections back home	2910621	1471993897856	1471993897952	b	66
5681	61151	I was a bit rusty but I didn't want to miss the elections back home.	I was bit rusty but i didnt want to miss the elections back home	2910622	1471993898046	1471993898133	u	85
5681	61151	I was a bit rusty but I didn't want to miss the elections back home.	I was bit rusty but i didnt want to miss the elections back home	2910623	1471993898145	1471993898230	t	84
5681	61151	I was a bit rusty but I didn't want to miss the elections back home.	I was bit rusty but i didnt want to miss the elections back home	2910624	1471993898225	1471993898293	 	32
5681	61151	I was a bit rusty but I didn't want to miss the elections back home.	I was bit rusty but i didnt want to miss the elections back home	2910625	1471993898390	1471993898446	i	73
5681	61151	I was a bit rusty but I didn't want to miss the elections back home.	I was bit rusty but i didnt want to miss the elections back home	2910680	1471993898522	1471993898622	 	32
5681	61151	I was a bit rusty but I didn't want to miss the elections back home.	I was bit rusty but i didnt want to miss the elections back home	2910682	1471993898678	1471993898762	d	68
5681	61151	I was a bit rusty but I didn't want to miss the elections back home.	I was bit rusty but i didnt want to miss the elections back home	2910684	1471993898900	1471993899039	i	73
5681	61151	I was a bit rusty but I didn't want to miss the elections back home.	I was bit rusty but i didnt want to miss the elections back home	2910686	1471993899104	1471993899232	d	68
5681	61151	I was a bit rusty but I didn't want to miss the elections back home.	I was bit rusty but i didnt want to miss the elections back home	2910688	1471993899302	1471993899410	n	78
5681	61151	I was a bit rusty but I didn't want to miss the elections back home.	I was bit rusty but i didnt want to miss the elections back home	2910707	1471993899447	1471993899563	t	84
5681	61151	I was a bit rusty but I didn't want to miss the elections back home.	I was bit rusty but i didnt want to miss the elections back home	2910708	1471993899613	1471993899696	 	32
5681	61151	I was a bit rusty but I didn't want to miss the elections back home.	I was bit rusty but i didnt want to miss the elections back home	2910709	1471993899723	1471993899819	w	87
5681	61151	I was a bit rusty but I didn't want to miss the elections back home.	I was bit rusty but i didnt want to miss the elections back home	2910710	1471993899902	1471993900006	a	65
5681	61151	I was a bit rusty but I didn't want to miss the elections back home.	I was bit rusty but i didnt want to miss the elections back home	2910711	1471993900060	1471993900152	n	78
5681	61151	I was a bit rusty but I didn't want to miss the elections back home.	I was bit rusty but i didnt want to miss the elections back home	2910727	1471993900186	1471993900290	t	84
5681	61151	I was a bit rusty but I didn't want to miss the elections back home.	I was bit rusty but i didnt want to miss the elections back home	2910731	1471993900258	1471993900322	 	32
5681	61151	I was a bit rusty but I didn't want to miss the elections back home.	I was bit rusty but i didnt want to miss the elections back home	2910736	1471993900387	1471993900479	t	84
5681	61151	I was a bit rusty but I didn't want to miss the elections back home.	I was bit rusty but i didnt want to miss the elections back home	2910740	1471993900463	1471993900519	o	79
5681	61151	I was a bit rusty but I didn't want to miss the elections back home.	I was bit rusty but i didnt want to miss the elections back home	2910746	1471993900623	1471993900679	 	32
5681	61151	I was a bit rusty but I didn't want to miss the elections back home.	I was bit rusty but i didnt want to miss the elections back home	2910783	1471993900770	1471993900858	m	77
5681	61151	I was a bit rusty but I didn't want to miss the elections back home.	I was bit rusty but i didnt want to miss the elections back home	2910786	1471993900962	1471993901010	i	73
5681	61151	I was a bit rusty but I didn't want to miss the elections back home.	I was bit rusty but i didnt want to miss the elections back home	2910788	1471993901069	1471993901144	s	83
5681	61151	I was a bit rusty but I didn't want to miss the elections back home.	I was bit rusty but i didnt want to miss the elections back home	2910790	1471993901225	1471993901289	s	83
5681	61151	I was a bit rusty but I didn't want to miss the elections back home.	I was bit rusty but i didnt want to miss the elections back home	2910792	1471993901612	1471993901704	 	32
5681	61151	I was a bit rusty but I didn't want to miss the elections back home.	I was bit rusty but i didnt want to miss the elections back home	2910802	1471993901840	1471993901884	t	84
5681	61151	I was a bit rusty but I didn't want to miss the elections back home.	I was bit rusty but i didnt want to miss the elections back home	2910803	1471993901892	1471993901988	h	72
5681	61151	I was a bit rusty but I didn't want to miss the elections back home.	I was bit rusty but i didnt want to miss the elections back home	2910804	1471993902047	1471993902163	e	69
5681	61151	I was a bit rusty but I didn't want to miss the elections back home.	I was bit rusty but i didnt want to miss the elections back home	2910805	1471993902218	1471993902306	 	32
5681	61151	I was a bit rusty but I didn't want to miss the elections back home.	I was bit rusty but i didnt want to miss the elections back home	2910806	1471993902444	1471993902560	e	69
5681	61151	I was a bit rusty but I didn't want to miss the elections back home.	I was bit rusty but i didnt want to miss the elections back home	2910884	1471993902556	1471993902696	l	76
5681	61151	I was a bit rusty but I didn't want to miss the elections back home.	I was bit rusty but i didnt want to miss the elections back home	2910886	1471993902736	1471993902816	e	69
5681	61151	I was a bit rusty but I didn't want to miss the elections back home.	I was bit rusty but i didnt want to miss the elections back home	2910887	1471993902904	1471993903064	c	67
5681	61151	I was a bit rusty but I didn't want to miss the elections back home.	I was bit rusty but i didnt want to miss the elections back home	2910888	1471993903124	1471993903259	t	84
5681	61151	I was a bit rusty but I didn't want to miss the elections back home.	I was bit rusty but i didnt want to miss the elections back home	2910890	1471993903420	1471993903528	o	79
5681	61151	I was a bit rusty but I didn't want to miss the elections back home.	I was bit rusty but i didnt want to miss the elections back home	2910892	1471993903837	1471993903929	BKSP	8
5681	61151	I was a bit rusty but I didn't want to miss the elections back home.	I was bit rusty but i didnt want to miss the elections back home	2910894	1471993904299	1471993904363	i	73
5681	61151	I was a bit rusty but I didn't want to miss the elections back home.	I was bit rusty but i didnt want to miss the elections back home	2910922	1471993904424	1471993904488	o	79
5681	61151	I was a bit rusty but I didn't want to miss the elections back home.	I was bit rusty but i didnt want to miss the elections back home	2910925	1471993904570	1471993904642	n	78
5681	61151	I was a bit rusty but I didn't want to miss the elections back home.	I was bit rusty but i didnt want to miss the elections back home	2910928	1471993904891	1471993904943	s	83
5681	61151	I was a bit rusty but I didn't want to miss the elections back home.	I was bit rusty but i didnt want to miss the elections back home	2910933	1471993904981	1471993905073	 	32
5681	61151	I was a bit rusty but I didn't want to miss the elections back home.	I was bit rusty but i didnt want to miss the elections back home	2910939	1471993905168	1471993905237	b	66
5681	61151	I was a bit rusty but I didn't want to miss the elections back home.	I was bit rusty but i didnt want to miss the elections back home	2910966	1471993905224	1471993905320	a	65
5681	61151	I was a bit rusty but I didn't want to miss the elections back home.	I was bit rusty but i didnt want to miss the elections back home	2910969	1471993905407	1471993905531	c	67
5681	61151	I was a bit rusty but I didn't want to miss the elections back home.	I was bit rusty but i didnt want to miss the elections back home	2910972	1471993905535	1471993905595	k	75
5681	61151	I was a bit rusty but I didn't want to miss the elections back home.	I was bit rusty but i didnt want to miss the elections back home	2910976	1471993905685	1471993905741	 	32
5681	61151	I was a bit rusty but I didn't want to miss the elections back home.	I was bit rusty but i didnt want to miss the elections back home	2910981	1471993905836	1471993905912	h	72
5681	61151	I was a bit rusty but I didn't want to miss the elections back home.	I was bit rusty but i didnt want to miss the elections back home	2910983	1471993905998	1471993906074	o	79
5681	61151	I was a bit rusty but I didn't want to miss the elections back home.	I was bit rusty but i didnt want to miss the elections back home	2910975	1471993906150	1471993906250	m	77
5681	61151	I was a bit rusty but I didn't want to miss the elections back home.	I was bit rusty but i didnt want to miss the elections back home	2910979	1471993906285	1471993906353	e	69
5681	61161	There are some issues on which we agree.	There are some issues on which we agree.	2911152	1471993910883	1471993911199	SHIFT	16
5681	61161	There are some issues on which we agree.	There are some issues on which we agree.	2911150	1471993911088	1471993911195	T	84
5681	61161	There are some issues on which we agree.	There are some issues on which we agree.	2911155	1471993911274	1471993911381	h	72
5681	61161	There are some issues on which we agree.	There are some issues on which we agree.	2911158	1471993911365	1471993911469	e	69
5681	61161	There are some issues on which we agree.	There are some issues on which we agree.	2911162	1471993911541	1471993911624	r	82
5681	61161	There are some issues on which we agree.	There are some issues on which we agree.	2911169	1471993911689	1471993911784	e	69
5681	61161	There are some issues on which we agree.	There are some issues on which we agree.	2911192	1471993911801	1471993911896	 	32
5681	61161	There are some issues on which we agree.	There are some issues on which we agree.	2911195	1471993911952	1471993912047	a	65
5681	61161	There are some issues on which we agree.	There are some issues on which we agree.	2911199	1471993912087	1471993912199	s	83
5681	61161	There are some issues on which we agree.	There are some issues on which we agree.	2911202	1471993912388	1471993912456	BKSP	8
5681	61161	There are some issues on which we agree.	There are some issues on which we agree.	2911205	1471993912606	1471993912689	r	82
5681	61161	There are some issues on which we agree.	There are some issues on which we agree.	2911208	1471993912774	1471993912878	e	69
5681	61161	There are some issues on which we agree.	There are some issues on which we agree.	2911225	1471993912855	1471993912934	 	32
5681	61161	There are some issues on which we agree.	There are some issues on which we agree.	2911226	1471993912983	1471993913078	s	83
5681	61161	There are some issues on which we agree.	There are some issues on which we agree.	2911227	1471993913083	1471993913138	o	79
5681	61161	There are some issues on which we agree.	There are some issues on which we agree.	2911228	1471993913255	1471993913434	m	77
5681	61161	There are some issues on which we agree.	There are some issues on which we agree.	2911229	1471993913494	1471993913561	e	69
5681	61161	There are some issues on which we agree.	There are some issues on which we agree.	2911230	1471993913565	1471993913645	 	32
5681	61161	There are some issues on which we agree.	There are some issues on which we agree.	2911312	1471993913735	1471993913823	i	73
5681	61161	There are some issues on which we agree.	There are some issues on which we agree.	2911314	1471993913851	1471993913910	s	83
5681	61161	There are some issues on which we agree.	There are some issues on which we agree.	2911317	1471993914295	1471993914333	s	83
5681	61161	There are some issues on which we agree.	There are some issues on which we agree.	2911318	1471993914387	1471993914451	s	83
5681	61161	There are some issues on which we agree.	There are some issues on which we agree.	2911319	1471993915194	1471993915262	BKSP	8
5681	61161	There are some issues on which we agree.	There are some issues on which we agree.	2911320	1471993915439	1471993915515	u	85
5681	61161	There are some issues on which we agree.	There are some issues on which we agree.	2911344	1471993915577	1471993915665	e	69
5681	61161	There are some issues on which we agree.	There are some issues on which we agree.	2911348	1471993915740	1471993915871	s	83
5681	61161	There are some issues on which we agree.	There are some issues on which we agree.	2911352	1471993915808	1471993915872	 	32
5681	61161	There are some issues on which we agree.	There are some issues on which we agree.	2911356	1471993915986	1471993916050	o	79
5681	61161	There are some issues on which we agree.	There are some issues on which we agree.	2911361	1471993916136	1471993916196	n	78
5681	61161	There are some issues on which we agree.	There are some issues on which we agree.	2911400	1471993916278	1471993916346	 	32
5681	61161	There are some issues on which we agree.	There are some issues on which we agree.	2911403	1471993916373	1471993916492	w	87
5681	61161	There are some issues on which we agree.	There are some issues on which we agree.	2911407	1471993916690	1471993916761	h	72
5681	61161	There are some issues on which we agree.	There are some issues on which we agree.	2911410	1471993917270	1471993917337	i	73
5681	61161	There are some issues on which we agree.	There are some issues on which we agree.	2911412	1471993917715	1471993917834	c	67
5681	61161	There are some issues on which we agree.	There are some issues on which we agree.	2911434	1471993917826	1471993917914	h	72
5681	61161	There are some issues on which we agree.	There are some issues on which we agree.	2911436	1471993918015	1471993918078	 	32
5681	61161	There are some issues on which we agree.	There are some issues on which we agree.	2911438	1471993918070	1471993918182	w	87
5681	61161	There are some issues on which we agree.	There are some issues on which we agree.	2911439	1471993918257	1471993918333	e	69
5681	61161	There are some issues on which we agree.	There are some issues on which we agree.	2911440	1471993918329	1471993918421	 	32
5681	61161	There are some issues on which we agree.	There are some issues on which we agree.	2911443	1471993918484	1471993918666	a	65
5681	61161	There are some issues on which we agree.	There are some issues on which we agree.	2911457	1471993918709	1471993918801	g	71
5681	61161	There are some issues on which we agree.	There are some issues on which we agree.	2911460	1471993918805	1471993918897	r	82
5681	61161	There are some issues on which we agree.	There are some issues on which we agree.	2911464	1471993918975	1471993919046	e	69
5681	61161	There are some issues on which we agree.	There are some issues on which we agree.	2911467	1471993919113	1471993919208	e	69
5681	61161	There are some issues on which we agree.	There are some issues on which we agree.	2911473	1471993919633	1471993919697	.	190
5681	61173	He refused to elaborate on the delay.	He refused to elaborate on the delay.	2911663	1471993922881	1471993923065	SHIFT	16
5681	61173	He refused to elaborate on the delay.	He refused to elaborate on the delay.	2911666	1471993923010	1471993923077	H	72
5681	61173	He refused to elaborate on the delay.	He refused to elaborate on the delay.	2911667	1471993923135	1471993923302	e	69
5681	61173	He refused to elaborate on the delay.	He refused to elaborate on the delay.	2911668	1471993923832	1471993923924	 	32
5681	61173	He refused to elaborate on the delay.	He refused to elaborate on the delay.	2911669	1471993923905	1471993923972	r	82
5681	61173	He refused to elaborate on the delay.	He refused to elaborate on the delay.	2911670	1471993924033	1471993924157	e	69
5681	61173	He refused to elaborate on the delay.	He refused to elaborate on the delay.	2911755	1471993924211	1471993924323	f	70
5681	61173	He refused to elaborate on the delay.	He refused to elaborate on the delay.	2911760	1471993924299	1471993924395	u	85
5681	61173	He refused to elaborate on the delay.	He refused to elaborate on the delay.	2911763	1471993924403	1471993924531	s	83
5681	61173	He refused to elaborate on the delay.	He refused to elaborate on the delay.	2911767	1471993924598	1471993924698	e	69
5681	61173	He refused to elaborate on the delay.	He refused to elaborate on the delay.	2911769	1471993924862	1471993925046	d	68
5681	61173	He refused to elaborate on the delay.	He refused to elaborate on the delay.	2911740	1471993925109	1471993925153	 	32
5681	61173	He refused to elaborate on the delay.	He refused to elaborate on the delay.	2911742	1471993925177	1471993925289	t	84
5681	61173	He refused to elaborate on the delay.	He refused to elaborate on the delay.	2911744	1471993925313	1471993925362	o	79
5681	61173	He refused to elaborate on the delay.	He refused to elaborate on the delay.	2911747	1471993925460	1471993925531	 	32
5681	61173	He refused to elaborate on the delay.	He refused to elaborate on the delay.	2911751	1471993925610	1471993925758	e	69
5681	61173	He refused to elaborate on the delay.	He refused to elaborate on the delay.	2911773	1471993925774	1471993925830	l	76
5681	61173	He refused to elaborate on the delay.	He refused to elaborate on the delay.	2911774	1471993925860	1471993925980	a	65
5681	61173	He refused to elaborate on the delay.	He refused to elaborate on the delay.	2911775	1471993926036	1471993926132	b	66
5681	61173	He refused to elaborate on the delay.	He refused to elaborate on the delay.	2911776	1471993926246	1471993926326	o	79
5681	61173	He refused to elaborate on the delay.	He refused to elaborate on the delay.	2911777	1471993926345	1471993926409	r	82
5681	61173	He refused to elaborate on the delay.	He refused to elaborate on the delay.	2911788	1471993926512	1471993926624	a	65
5681	61173	He refused to elaborate on the delay.	He refused to elaborate on the delay.	2911790	1471993926733	1471993926825	t	84
5681	61173	He refused to elaborate on the delay.	He refused to elaborate on the delay.	2911795	1471993926928	1471993927048	e	69
5681	61173	He refused to elaborate on the delay.	He refused to elaborate on the delay.	2911800	1471993926976	1471993927056	 	32
5681	61173	He refused to elaborate on the delay.	He refused to elaborate on the delay.	2911805	1471993927148	1471993927216	o	79
5681	61173	He refused to elaborate on the delay.	He refused to elaborate on the delay.	2911831	1471993927290	1471993927370	n	78
5681	61173	He refused to elaborate on the delay.	He refused to elaborate on the delay.	2911834	1471993927417	1471993927513	 	32
5681	61173	He refused to elaborate on the delay.	He refused to elaborate on the delay.	2911836	1471993927539	1471993927619	t	84
5681	61173	He refused to elaborate on the delay.	He refused to elaborate on the delay.	2911838	1471993927627	1471993927715	h	72
5681	61173	He refused to elaborate on the delay.	He refused to elaborate on the delay.	2911840	1471993927731	1471993927814	e	69
5681	61173	He refused to elaborate on the delay.	He refused to elaborate on the delay.	2911843	1471993927803	1471993927887	 	32
5681	61173	He refused to elaborate on the delay.	He refused to elaborate on the delay.	2911846	1471993927939	1471993928070	d	68
5681	61173	He refused to elaborate on the delay.	He refused to elaborate on the delay.	2911853	1471993928100	1471993928184	e	69
5681	61173	He refused to elaborate on the delay.	He refused to elaborate on the delay.	2911858	1471993928225	1471993928337	l	76
5681	61173	He refused to elaborate on the delay.	He refused to elaborate on the delay.	2911865	1471993928345	1471993928445	a	65
5681	61173	He refused to elaborate on the delay.	He refused to elaborate on the delay.	2911870	1471993928637	1471993928777	y	89
5681	61173	He refused to elaborate on the delay.	He refused to elaborate on the delay.	2911906	1471993929029	1471993929089	/	191
5681	61173	He refused to elaborate on the delay.	He refused to elaborate on the delay.	2911907	1471993929196	1471993929268	.	190
5681	61173	He refused to elaborate on the delay.	He refused to elaborate on the delay.	2911908	1471993929539	1471993929583	BKSP	8
5681	61173	He refused to elaborate on the delay.	He refused to elaborate on the delay.	2911910	1471993929702	1471993929762	BKSP	8
5681	61173	He refused to elaborate on the delay.	He refused to elaborate on the delay.	2911912	1471993930074	1471993930166	.	190
5681	61184	Couldn't risk the uncertainty.	Couldn't risk the uncertainty	2912122	1471993933095	1471993933579	SHIFT	16
5681	61184	Couldn't risk the uncertainty.	Couldn't risk the uncertainty	2912124	1471993933484	1471993933607	C	67
5681	61184	Couldn't risk the uncertainty.	Couldn't risk the uncertainty	2912126	1471993933580	1471993933647	o	79
5681	61184	Couldn't risk the uncertainty.	Couldn't risk the uncertainty	2912128	1471993933738	1471993933802	u	85
5681	61184	Couldn't risk the uncertainty.	Couldn't risk the uncertainty	2912129	1471993934028	1471993934128	d	68
5681	61184	Couldn't risk the uncertainty.	Couldn't risk the uncertainty	2912130	1471993934444	1471993934516	BKSP	8
5681	61184	Couldn't risk the uncertainty.	Couldn't risk the uncertainty	2912131	1471993934745	1471993934865	l	76
5681	61184	Couldn't risk the uncertainty.	Couldn't risk the uncertainty	2912218	1471993934908	1471993935028	d	68
5681	61184	Couldn't risk the uncertainty.	Couldn't risk the uncertainty	2912221	1471993935116	1471993935156	n	78
5681	61184	Couldn't risk the uncertainty.	Couldn't risk the uncertainty	2912225	1471993935471	1471993935527	BKSP	8
5681	61184	Couldn't risk the uncertainty.	Couldn't risk the uncertainty	2912229	1471993936382	1471993936454	n	78
5681	61184	Couldn't risk the uncertainty.	Couldn't risk the uncertainty	2912233	1471993936697	1471993936777	'	222
5681	61184	Couldn't risk the uncertainty.	Couldn't risk the uncertainty	2912237	1471993937043	1471993937090	t	84
5681	61184	Couldn't risk the uncertainty.	Couldn't risk the uncertainty	2912257	1471993937152	1471993937224	 	32
5681	61184	Couldn't risk the uncertainty.	Couldn't risk the uncertainty	2912259	1471993937735	1471993937867	r	82
5681	61184	Couldn't risk the uncertainty.	Couldn't risk the uncertainty	2912260	1471993937893	1471993938001	i	73
5681	61184	Couldn't risk the uncertainty.	Couldn't risk the uncertainty	2912262	1471993938005	1471993938149	s	83
5681	61184	Couldn't risk the uncertainty.	Couldn't risk the uncertainty	2912278	1471993938129	1471993938213	k	75
5681	61184	Couldn't risk the uncertainty.	Couldn't risk the uncertainty	2912279	1471993938349	1471993938421	 	32
5681	61184	Couldn't risk the uncertainty.	Couldn't risk the uncertainty	2912281	1471993938417	1471993938513	t	84
5681	61184	Couldn't risk the uncertainty.	Couldn't risk the uncertainty	2912284	1471993938521	1471993938593	h	72
5681	61184	Couldn't risk the uncertainty.	Couldn't risk the uncertainty	2912287	1471993938626	1471993938715	e	69
5681	61184	Couldn't risk the uncertainty.	Couldn't risk the uncertainty	2912360	1471993938710	1471993938786	 	32
5681	61184	Couldn't risk the uncertainty.	Couldn't risk the uncertainty	2912365	1471993938885	1471993938993	u	85
5681	61184	Couldn't risk the uncertainty.	Couldn't risk the uncertainty	2912368	1471993939080	1471993939168	n	78
5681	61184	Couldn't risk the uncertainty.	Couldn't risk the uncertainty	2912373	1471993940481	1471993940593	c	67
5681	61184	Couldn't risk the uncertainty.	Couldn't risk the uncertainty	2912376	1471993940687	1471993940815	e	69
5681	61184	Couldn't risk the uncertainty.	Couldn't risk the uncertainty	2912379	1471993940894	1471993941038	r	82
5681	61184	Couldn't risk the uncertainty.	Couldn't risk the uncertainty	2912394	1471993941149	1471993941225	t	84
5681	61184	Couldn't risk the uncertainty.	Couldn't risk the uncertainty	2912395	1471993941349	1471993941521	a	65
5681	61184	Couldn't risk the uncertainty.	Couldn't risk the uncertainty	2912396	1471993941461	1471993941545	i	73
5681	61184	Couldn't risk the uncertainty.	Couldn't risk the uncertainty	2912397	1471993941645	1471993941709	n	78
5681	61184	Couldn't risk the uncertainty.	Couldn't risk the uncertainty	2912398	1471993941772	1471993941880	t	84
5681	61184	Couldn't risk the uncertainty.	Couldn't risk the uncertainty	2912403	1471993941905	1471993941984	y	89
5681	61193	We will forward it to you as soon as we get it.	We will forward it to you as soon as we get it.	2912567	1471993945745	1471993946121	SHIFT	16
5681	61193	We will forward it to you as soon as we get it.	We will forward it to you as soon as we get it.	2912568	1471993946005	1471993946129	W	87
5681	61193	We will forward it to you as soon as we get it.	We will forward it to you as soon as we get it.	2912570	1471993946175	1471993946271	e	69
5681	61193	We will forward it to you as soon as we get it.	We will forward it to you as soon as we get it.	2912571	1471993946291	1471993946399	 	32
5681	61193	We will forward it to you as soon as we get it.	We will forward it to you as soon as we get it.	2912573	1471993946424	1471993946592	w	87
5681	61193	We will forward it to you as soon as we get it.	We will forward it to you as soon as we get it.	2912624	1471993946564	1471993946664	i	73
5681	61193	We will forward it to you as soon as we get it.	We will forward it to you as soon as we get it.	2912628	1471993946749	1471993946809	l	76
5681	61193	We will forward it to you as soon as we get it.	We will forward it to you as soon as we get it.	2912632	1471993946872	1471993946992	l	76
5681	61193	We will forward it to you as soon as we get it.	We will forward it to you as soon as we get it.	2912635	1471993947105	1471993947177	 	32
5681	61193	We will forward it to you as soon as we get it.	We will forward it to you as soon as we get it.	2912638	1471993947624	1471993947735	f	70
5681	61193	We will forward it to you as soon as we get it.	We will forward it to you as soon as we get it.	2912692	1471993947712	1471993947828	o	79
5681	61193	We will forward it to you as soon as we get it.	We will forward it to you as soon as we get it.	2912693	1471993947850	1471993947954	r	82
5681	61193	We will forward it to you as soon as we get it.	We will forward it to you as soon as we get it.	2912694	1471993948725	1471993948781	w	87
5681	61193	We will forward it to you as soon as we get it.	We will forward it to you as soon as we get it.	2912696	1471993948880	1471993948988	a	65
5681	61193	We will forward it to you as soon as we get it.	We will forward it to you as soon as we get it.	2912698	1471993949095	1471993949167	r	82
5681	61193	We will forward it to you as soon as we get it.	We will forward it to you as soon as we get it.	2912700	1471993949304	1471993949400	d	68
5681	61193	We will forward it to you as soon as we get it.	We will forward it to you as soon as we get it.	2912757	1471993949372	1471993949460	 	32
5681	61193	We will forward it to you as soon as we get it.	We will forward it to you as soon as we get it.	2912762	1471993949931	1471993950039	i	73
5681	61193	We will forward it to you as soon as we get it.	We will forward it to you as soon as we get it.	2912767	1471993950102	1471993950213	t	84
5681	61193	We will forward it to you as soon as we get it.	We will forward it to you as soon as we get it.	2912771	1471993950213	1471993950277	 	32
5681	61193	We will forward it to you as soon as we get it.	We will forward it to you as soon as we get it.	2912775	1471993950418	1471993950566	y	89
5681	61193	We will forward it to you as soon as we get it.	We will forward it to you as soon as we get it.	2912777	1471993950582	1471993950669	o	79
5681	61193	We will forward it to you as soon as we get it.	We will forward it to you as soon as we get it.	2912871	1471993952280	1471993952367	BKSP	8
5681	61193	We will forward it to you as soon as we get it.	We will forward it to you as soon as we get it.	2912876	1471993952410	1471993952494	BKSP	8
5681	61193	We will forward it to you as soon as we get it.	We will forward it to you as soon as we get it.	2912878	1471993952813	1471993952966	t	84
5681	61193	We will forward it to you as soon as we get it.	We will forward it to you as soon as we get it.	2912882	1471993952926	1471993953010	o	79
5681	61193	We will forward it to you as soon as we get it.	We will forward it to you as soon as we get it.	2912886	1471993953100	1471993953188	 	32
5681	61193	We will forward it to you as soon as we get it.	We will forward it to you as soon as we get it.	2912890	1471993953231	1471993953307	y	89
5681	61193	We will forward it to you as soon as we get it.	We will forward it to you as soon as we get it.	2912894	1471993953363	1471993953423	o	79
5681	61193	We will forward it to you as soon as we get it.	We will forward it to you as soon as we get it.	2912906	1471993953489	1471993953577	u	85
5681	61193	We will forward it to you as soon as we get it.	We will forward it to you as soon as we get it.	2912908	1471993953651	1471993953727	 	32
5681	61193	We will forward it to you as soon as we get it.	We will forward it to you as soon as we get it.	2912911	1471993953799	1471993953939	a	65
5681	61193	We will forward it to you as soon as we get it.	We will forward it to you as soon as we get it.	2912915	1471993953969	1471993954077	s	83
5681	61193	We will forward it to you as soon as we get it.	We will forward it to you as soon as we get it.	2912945	1471993954073	1471993954149	 	32
5681	61193	We will forward it to you as soon as we get it.	We will forward it to you as soon as we get it.	2912951	1471993954184	1471993954272	s	83
5681	61193	We will forward it to you as soon as we get it.	We will forward it to you as soon as we get it.	2912954	1471993954301	1471993954344	o	79
5681	61193	We will forward it to you as soon as we get it.	We will forward it to you as soon as we get it.	2912958	1471993954424	1471993954516	o	79
5681	61193	We will forward it to you as soon as we get it.	We will forward it to you as soon as we get it.	2912960	1471993954619	1471993954703	n	78
5681	61193	We will forward it to you as soon as we get it.	We will forward it to you as soon as we get it.	2912962	1471993954786	1471993954850	 	32
5681	61193	We will forward it to you as soon as we get it.	We will forward it to you as soon as we get it.	2912980	1471993954866	1471993954969	a	65
5681	61193	We will forward it to you as soon as we get it.	We will forward it to you as soon as we get it.	2912983	1471993954991	1471993955116	s	83
5681	61193	We will forward it to you as soon as we get it.	We will forward it to you as soon as we get it.	2912987	1471993955112	1471993955216	 	32
5681	61193	We will forward it to you as soon as we get it.	We will forward it to you as soon as we get it.	2912990	1471993955224	1471993955360	w	87
5681	61193	We will forward it to you as soon as we get it.	We will forward it to you as soon as we get it.	2912993	1471993955427	1471993955606	e	69
5681	61193	We will forward it to you as soon as we get it.	We will forward it to you as soon as we get it.	2913025	1471993955547	1471993955643	 	32
5681	61193	We will forward it to you as soon as we get it.	We will forward it to you as soon as we get it.	2913027	1471993955750	1471993955857	g	71
5681	61193	We will forward it to you as soon as we get it.	We will forward it to you as soon as we get it.	2913030	1471993955834	1471993955910	e	69
5681	61193	We will forward it to you as soon as we get it.	We will forward it to you as soon as we get it.	2913033	1471993956002	1471993956134	t	84
5681	61193	We will forward it to you as soon as we get it.	We will forward it to you as soon as we get it.	2913036	1471993956118	1471993956146	 	32
5681	61193	We will forward it to you as soon as we get it.	We will forward it to you as soon as we get it.	2913038	1471993956229	1471993956312	i	73
5681	61193	We will forward it to you as soon as we get it.	We will forward it to you as soon as we get it.	2913066	1471993956360	1471993956460	t	84
5681	61193	We will forward it to you as soon as we get it.	We will forward it to you as soon as we get it.	2913068	1471993956853	1471993956917	.	190
5681	61201	I've never been to the speedway, but if they come, I will go there.	I've never been to the speedway, but if they come, I will go there.	2913270	1471993960132	1471993960563	SHIFT	16
5681	61201	I've never been to the speedway, but if they come, I will go there.	I've never been to the speedway, but if they come, I will go there.	2913266	1471993960268	1471993960339	I	73
5681	61201	I've never been to the speedway, but if they come, I will go there.	I've never been to the speedway, but if they come, I will go there.	2913274	1471993960488	1471993960567	V	86
5681	61201	I've never been to the speedway, but if they come, I will go there.	I've never been to the speedway, but if they come, I will go there.	2913276	1471993960700	1471993960792	e	69
5681	61201	I've never been to the speedway, but if they come, I will go there.	I've never been to the speedway, but if they come, I will go there.	2913277	1471993961234	1471993961286	BKSP	8
5681	61201	I've never been to the speedway, but if they come, I will go there.	I've never been to the speedway, but if they come, I will go there.	2913278	1471993961380	1471993961435	BKSP	8
5681	61201	I've never been to the speedway, but if they come, I will go there.	I've never been to the speedway, but if they come, I will go there.	2913279	1471993962824	1471993962880	'	222
5681	61201	I've never been to the speedway, but if they come, I will go there.	I've never been to the speedway, but if they come, I will go there.	2913280	1471993962920	1471993963011	v	86
5681	61201	I've never been to the speedway, but if they come, I will go there.	I've never been to the speedway, but if they come, I will go there.	2913293	1471993963045	1471993963200	e	69
5681	61201	I've never been to the speedway, but if they come, I will go there.	I've never been to the speedway, but if they come, I will go there.	2913295	1471993963254	1471993963329	 	32
5681	61201	I've never been to the speedway, but if they come, I will go there.	I've never been to the speedway, but if they come, I will go there.	2913297	1471993963480	1471993963547	n	78
5681	61201	I've never been to the speedway, but if they come, I will go there.	I've never been to the speedway, but if they come, I will go there.	2913298	1471993963596	1471993963720	e	69
5681	61201	I've never been to the speedway, but if they come, I will go there.	I've never been to the speedway, but if they come, I will go there.	2913299	1471993963866	1471993963969	v	86
5681	61201	I've never been to the speedway, but if they come, I will go there.	I've never been to the speedway, but if they come, I will go there.	2913316	1471993963958	1471993964041	e	69
5681	61201	I've never been to the speedway, but if they come, I will go there.	I've never been to the speedway, but if they come, I will go there.	2913318	1471993964124	1471993964231	r	82
5681	61201	I've never been to the speedway, but if they come, I will go there.	I've never been to the speedway, but if they come, I will go there.	2913321	1471993964180	1471993964275	 	32
5681	61201	I've never been to the speedway, but if they come, I will go there.	I've never been to the speedway, but if they come, I will go there.	2913325	1471993964365	1471993964472	b	66
5681	61201	I've never been to the speedway, but if they come, I will go there.	I've never been to the speedway, but if they come, I will go there.	2913328	1471993964485	1471993964573	e	69
5681	61201	I've never been to the speedway, but if they come, I will go there.	I've never been to the speedway, but if they come, I will go there.	2913332	1471993964657	1471993964784	e	69
5681	61201	I've never been to the speedway, but if they come, I will go there.	I've never been to the speedway, but if they come, I will go there.	2913376	1471993964769	1471993964865	n	78
5681	61201	I've never been to the speedway, but if they come, I will go there.	I've never been to the speedway, but if they come, I will go there.	2913378	1471993964938	1471993965005	 	32
5681	61201	I've never been to the speedway, but if they come, I will go there.	I've never been to the speedway, but if they come, I will go there.	2913379	1471993965654	1471993965759	t	84
5681	61201	I've never been to the speedway, but if they come, I will go there.	I've never been to the speedway, but if they come, I will go there.	2913380	1471993965792	1471993965864	o	79
5681	61201	I've never been to the speedway, but if they come, I will go there.	I've never been to the speedway, but if they come, I will go there.	2913382	1471993965963	1471993966042	 	32
5681	61201	I've never been to the speedway, but if they come, I will go there.	I've never been to the speedway, but if they come, I will go there.	2913386	1471993966075	1471993966166	t	84
5681	61201	I've never been to the speedway, but if they come, I will go there.	I've never been to the speedway, but if they come, I will go there.	2913415	1471993966163	1471993966226	h	72
5681	61201	I've never been to the speedway, but if they come, I will go there.	I've never been to the speedway, but if they come, I will go there.	2913417	1471993966258	1471993966369	e	69
5681	61201	I've never been to the speedway, but if they come, I will go there.	I've never been to the speedway, but if they come, I will go there.	2913419	1471993966322	1471993966414	 	32
5681	61201	I've never been to the speedway, but if they come, I will go there.	I've never been to the speedway, but if they come, I will go there.	2913423	1471993966466	1471993966633	s	83
5681	61201	I've never been to the speedway, but if they come, I will go there.	I've never been to the speedway, but if they come, I will go there.	2913426	1471993966594	1471993966689	p	80
5681	61201	I've never been to the speedway, but if they come, I will go there.	I've never been to the speedway, but if they come, I will go there.	2913428	1471993966758	1471993966837	e	69
5681	61201	I've never been to the speedway, but if they come, I will go there.	I've never been to the speedway, but if they come, I will go there.	2913455	1471993966902	1471993967001	e	69
5681	61201	I've never been to the speedway, but if they come, I will go there.	I've never been to the speedway, but if they come, I will go there.	2913458	1471993967072	1471993967199	d	68
5681	61201	I've never been to the speedway, but if they come, I will go there.	I've never been to the speedway, but if they come, I will go there.	2913461	1471993967322	1471993967405	w	87
5681	61201	I've never been to the speedway, but if they come, I will go there.	I've never been to the speedway, but if they come, I will go there.	2913463	1471993967494	1471993967601	a	65
5681	61201	I've never been to the speedway, but if they come, I will go there.	I've never been to the speedway, but if they come, I will go there.	2913524	1471993967590	1471993967646	y	89
5681	61201	I've never been to the speedway, but if they come, I will go there.	I've never been to the speedway, but if they come, I will go there.	2913528	1471993968022	1471993968098	,	188
5681	61201	I've never been to the speedway, but if they come, I will go there.	I've never been to the speedway, but if they come, I will go there.	2913533	1471993968497	1471993968573	 	32
5681	61201	I've never been to the speedway, but if they come, I will go there.	I've never been to the speedway, but if they come, I will go there.	2913536	1471993968912	1471993968983	b	66
5681	61201	I've never been to the speedway, but if they come, I will go there.	I've never been to the speedway, but if they come, I will go there.	2913539	1471993969087	1471993969187	u	85
5681	61201	I've never been to the speedway, but if they come, I will go there.	I've never been to the speedway, but if they come, I will go there.	2913541	1471993969214	1471993969305	t	84
5681	61201	I've never been to the speedway, but if they come, I will go there.	I've never been to the speedway, but if they come, I will go there.	2913547	1471993969352	1471993969435	 	32
5681	61201	I've never been to the speedway, but if they come, I will go there.	I've never been to the speedway, but if they come, I will go there.	2913549	1471993969630	1471993969737	i	73
5681	61201	I've never been to the speedway, but if they come, I will go there.	I've never been to the speedway, but if they come, I will go there.	2913551	1471993969771	1471993969886	f	70
5681	61201	I've never been to the speedway, but if they come, I will go there.	I've never been to the speedway, but if they come, I will go there.	2913553	1471993969871	1471993969966	 	32
5681	61201	I've never been to the speedway, but if they come, I will go there.	I've never been to the speedway, but if they come, I will go there.	2913555	1471993969979	1471993970074	t	84
5681	61201	I've never been to the speedway, but if they come, I will go there.	I've never been to the speedway, but if they come, I will go there.	2913576	1471993970067	1471993970162	h	72
5681	61201	I've never been to the speedway, but if they come, I will go there.	I've never been to the speedway, but if they come, I will go there.	2913579	1471993970179	1471993970282	e	69
5681	61201	I've never been to the speedway, but if they come, I will go there.	I've never been to the speedway, but if they come, I will go there.	2913582	1471993970287	1471993970382	y	89
5681	61201	I've never been to the speedway, but if they come, I will go there.	I've never been to the speedway, but if they come, I will go there.	2913584	1471993970495	1471993970570	 	32
5681	61201	I've never been to the speedway, but if they come, I will go there.	I've never been to the speedway, but if they come, I will go there.	2913586	1471993970630	1471993970741	c	67
5681	61201	I've never been to the speedway, but if they come, I will go there.	I've never been to the speedway, but if they come, I will go there.	2913627	1471993970730	1471993970797	o	79
5681	61201	I've never been to the speedway, but if they come, I will go there.	I've never been to the speedway, but if they come, I will go there.	2913629	1471993970878	1471993970981	m	77
5681	61201	I've never been to the speedway, but if they come, I will go there.	I've never been to the speedway, but if they come, I will go there.	2913634	1471993970998	1471993971078	e	69
5681	61201	I've never been to the speedway, but if they come, I will go there.	I've never been to the speedway, but if they come, I will go there.	2913641	1471993971611	1471993971678	,	188
5681	61201	I've never been to the speedway, but if they come, I will go there.	I've never been to the speedway, but if they come, I will go there.	2913643	1471993971767	1471993971846	 	32
5681	61201	I've never been to the speedway, but if they come, I will go there.	I've never been to the speedway, but if they come, I will go there.	2913646	1471993971938	1471993972226	SHIFT	16
5681	61201	I've never been to the speedway, but if they come, I will go there.	I've never been to the speedway, but if they come, I will go there.	2913645	1471993972087	1471993972150	I	73
5681	61201	I've never been to the speedway, but if they come, I will go there.	I've never been to the speedway, but if they come, I will go there.	2913648	1471993972265	1471993972368	 	32
5681	61201	I've never been to the speedway, but if they come, I will go there.	I've never been to the speedway, but if they come, I will go there.	2913649	1471993972434	1471993972541	w	87
5681	61201	I've never been to the speedway, but if they come, I will go there.	I've never been to the speedway, but if they come, I will go there.	2913651	1471993972522	1471993972605	i	73
5681	61201	I've never been to the speedway, but if they come, I will go there.	I've never been to the speedway, but if they come, I will go there.	2913654	1471993972701	1471993972768	l	76
5681	61201	I've never been to the speedway, but if they come, I will go there.	I've never been to the speedway, but if they come, I will go there.	2913657	1471993972840	1471993972895	l	76
5681	61201	I've never been to the speedway, but if they come, I will go there.	I've never been to the speedway, but if they come, I will go there.	2913669	1471993972974	1471993973033	 	32
5681	61201	I've never been to the speedway, but if they come, I will go there.	I've never been to the speedway, but if they come, I will go there.	2913672	1471993973087	1471993973222	g	71
5681	61201	I've never been to the speedway, but if they come, I will go there.	I've never been to the speedway, but if they come, I will go there.	2913676	1471993973159	1471993973230	o	79
5681	61201	I've never been to the speedway, but if they come, I will go there.	I've never been to the speedway, but if they come, I will go there.	2913680	1471993973321	1471993973396	 	32
5681	61201	I've never been to the speedway, but if they come, I will go there.	I've never been to the speedway, but if they come, I will go there.	2913684	1471993973401	1471993973464	t	84
5681	61201	I've never been to the speedway, but if they come, I will go there.	I've never been to the speedway, but if they come, I will go there.	2913700	1471993973485	1471993973556	h	72
5681	61201	I've never been to the speedway, but if they come, I will go there.	I've never been to the speedway, but if they come, I will go there.	2913701	1471993973580	1471993973667	e	69
5681	61201	I've never been to the speedway, but if they come, I will go there.	I've never been to the speedway, but if they come, I will go there.	2913702	1471993973751	1471993973818	r	82
5681	61201	I've never been to the speedway, but if they come, I will go there.	I've never been to the speedway, but if they come, I will go there.	2913703	1471993973895	1471993973978	e	69
5681	61201	I've never been to the speedway, but if they come, I will go there.	I've never been to the speedway, but if they come, I will go there.	2913704	1471993974138	1471993974205	/	191
5681	61201	I've never been to the speedway, but if they come, I will go there.	I've never been to the speedway, but if they come, I will go there.	2913732	1471993974555	1471993974634	BKSP	8
5681	61201	I've never been to the speedway, but if they come, I will go there.	I've never been to the speedway, but if they come, I will go there.	2913733	1471993975089	1471993975157	.	190
5681	61217	Hope you had a good weekend.	Hope you had a good weekend.	2913792	1471993977777	1471993978081	SHIFT	16
5681	61217	Hope you had a good weekend.	Hope you had a good weekend.	2913790	1471993977974	1471993978049	H	72
5681	61217	Hope you had a good weekend.	Hope you had a good weekend.	2913795	1471993978197	1471993978272	o	79
5681	61217	Hope you had a good weekend.	Hope you had a good weekend.	2913797	1471993978372	1471993978431	p	80
5681	61217	Hope you had a good weekend.	Hope you had a good weekend.	2913799	1471993978487	1471993978558	e	69
5681	61217	Hope you had a good weekend.	Hope you had a good weekend.	2913801	1471993978583	1471993978659	 	32
5681	61217	Hope you had a good weekend.	Hope you had a good weekend.	2913813	1471993978935	1471993979039	y	89
5681	61217	Hope you had a good weekend.	Hope you had a good weekend.	2913815	1471993979066	1471993979157	o	79
5681	61217	Hope you had a good weekend.	Hope you had a good weekend.	2913817	1471993979191	1471993979290	u	85
5681	61217	Hope you had a good weekend.	Hope you had a good weekend.	2913819	1471993979319	1471993979370	 	32
5681	61217	Hope you had a good weekend.	Hope you had a good weekend.	2913821	1471993979513	1471993979584	h	72
5681	61217	Hope you had a good weekend.	Hope you had a good weekend.	2913849	1471993979607	1471993979722	a	65
5681	61217	Hope you had a good weekend.	Hope you had a good weekend.	2913855	1471993979869	1471993980012	d	68
5681	61217	Hope you had a good weekend.	Hope you had a good weekend.	2913859	1471993980042	1471993980114	 	32
5681	61217	Hope you had a good weekend.	Hope you had a good weekend.	2913864	1471993980159	1471993980271	a	65
5681	61217	Hope you had a good weekend.	Hope you had a good weekend.	2913870	1471993980284	1471993980351	 	32
5681	61217	Hope you had a good weekend.	Hope you had a good weekend.	2913889	1471993980454	1471993980577	g	71
5681	61217	Hope you had a good weekend.	Hope you had a good weekend.	2913890	1471993980634	1471993980697	o	79
5681	61217	Hope you had a good weekend.	Hope you had a good weekend.	2913891	1471993980774	1471993980857	o	79
5681	61217	Hope you had a good weekend.	Hope you had a good weekend.	2913892	1471993980892	1471993980982	d	68
5681	61217	Hope you had a good weekend.	Hope you had a good weekend.	2913893	1471993980991	1471993981055	 	32
5681	61217	Hope you had a good weekend.	Hope you had a good weekend.	2913910	1471993981107	1471993981211	w	87
5681	61217	Hope you had a good weekend.	Hope you had a good weekend.	2913913	1471993981289	1471993981372	e	69
5681	61217	Hope you had a good weekend.	Hope you had a good weekend.	2913917	1471993981455	1471993981562	e	69
5681	61217	Hope you had a good weekend.	Hope you had a good weekend.	2913920	1471993981579	1471993981675	k	75
5681	61217	Hope you had a good weekend.	Hope you had a good weekend.	2913924	1471993981701	1471993981816	e	69
5681	61217	Hope you had a good weekend.	Hope you had a good weekend.	2913962	1471993981858	1471993981982	d	68
5681	61217	Hope you had a good weekend.	Hope you had a good weekend.	2913963	1471993982438	1471993982498	BKSP	8
5681	61217	Hope you had a good weekend.	Hope you had a good weekend.	2913964	1471993982679	1471993982755	n	78
5681	61217	Hope you had a good weekend.	Hope you had a good weekend.	2913965	1471993982821	1471993982896	d	68
5681	61217	Hope you had a good weekend.	Hope you had a good weekend.	2913966	1471993983437	1471993983504	.	190
