PARTICIPANT_ID	TEST_SECTION_ID	SENTENCE	USER_INPUT	KEYSTROKE_ID	PRESS_TIME	RELEASE_TIME	LETTER	KEYCODE
5683	61037	I need your help in putting together a new list.	I nees your help in putting together a new list.	2905012	1471993899906	1471993900225	SHIFT	16
5683	61037	I need your help in putting together a new list.	I nees your help in putting together a new list.	2905011	1471993900153	1471993900209	I	73
5683	61037	I need your help in putting together a new list.	I nees your help in putting together a new list.	2905013	1471993900321	1471993900385	 	32
5683	61037	I need your help in putting together a new list.	I nees your help in putting together a new list.	2905015	1471993900457	1471993900529	n	78
5683	61037	I need your help in putting together a new list.	I nees your help in putting together a new list.	2905017	1471993900585	1471993900657	e	69
5683	61037	I need your help in putting together a new list.	I nees your help in putting together a new list.	2905019	1471993900745	1471993900825	e	69
5683	61037	I need your help in putting together a new list.	I nees your help in putting together a new list.	2905074	1471993901393	1471993901505	s	83
5683	61037	I need your help in putting together a new list.	I nees your help in putting together a new list.	2905075	1471993901625	1471993901681	 	32
5683	61037	I need your help in putting together a new list.	I nees your help in putting together a new list.	2905076	1471993901817	1471993901881	y	89
5683	61037	I need your help in putting together a new list.	I nees your help in putting together a new list.	2905077	1471993901921	1471993902017	o	79
5683	61037	I need your help in putting together a new list.	I nees your help in putting together a new list.	2905144	1471993902001	1471993902065	u	85
5683	61037	I need your help in putting together a new list.	I nees your help in putting together a new list.	2905146	1471993902161	1471993902257	r	82
5683	61037	I need your help in putting together a new list.	I nees your help in putting together a new list.	2905148	1471993902393	1471993902457	 	32
5683	61037	I need your help in putting together a new list.	I nees your help in putting together a new list.	2905150	1471993903329	1471993903401	h	72
5683	61037	I need your help in putting together a new list.	I nees your help in putting together a new list.	2905153	1471993903641	1471993903753	e	69
5683	61037	I need your help in putting together a new list.	I nees your help in putting together a new list.	2905159	1471993903961	1471993904017	l	76
5683	61037	I need your help in putting together a new list.	I nees your help in putting together a new list.	2905207	1471993904353	1471993904417	p	80
5683	61037	I need your help in putting together a new list.	I nees your help in putting together a new list.	2905210	1471993904569	1471993904641	 	32
5683	61037	I need your help in putting together a new list.	I nees your help in putting together a new list.	2905213	1471993904745	1471993904817	t	84
5683	61037	I need your help in putting together a new list.	I nees your help in putting together a new list.	2905216	1471993904857	1471993904945	o	79
5683	61037	I need your help in putting together a new list.	I nees your help in putting together a new list.	2905219	1471993905401	1471993905473	BKSP	8
5683	61037	I need your help in putting together a new list.	I nees your help in putting together a new list.	2905222	1471993905721	1471993905777	BKSP	8
5683	61037	I need your help in putting together a new list.	I nees your help in putting together a new list.	2905225	1471993906065	1471993906153	i	73
5683	61037	I need your help in putting together a new list.	I nees your help in putting together a new list.	2905256	1471993906217	1471993906273	n	78
5683	61037	I need your help in putting together a new list.	I nees your help in putting together a new list.	2905260	1471993906353	1471993906441	 	32
5683	61037	I need your help in putting together a new list.	I nees your help in putting together a new list.	2905264	1471993906505	1471993906609	p	80
5683	61037	I need your help in putting together a new list.	I nees your help in putting together a new list.	2905266	1471993906689	1471993906769	u	85
5683	61037	I need your help in putting together a new list.	I nees your help in putting together a new list.	2905269	1471993906945	1471993906993	t	84
5683	61037	I need your help in putting together a new list.	I nees your help in putting together a new list.	2905297	1471993907073	1471993907145	t	84
5683	61037	I need your help in putting together a new list.	I nees your help in putting together a new list.	2905299	1471993907201	1471993907273	i	73
5683	61037	I need your help in putting together a new list.	I nees your help in putting together a new list.	2905302	1471993907361	1471993907425	n	78
5683	61037	I need your help in putting together a new list.	I nees your help in putting together a new list.	2905304	1471993907504	1471993907561	g	71
5683	61037	I need your help in putting together a new list.	I nees your help in putting together a new list.	2905308	1471993907673	1471993907745	 	32
5683	61037	I need your help in putting together a new list.	I nees your help in putting together a new list.	2905361	1471993907937	1471993908073	t	84
5683	61037	I need your help in putting together a new list.	I nees your help in putting together a new list.	2905363	1471993908144	1471993908225	o	79
5683	61037	I need your help in putting together a new list.	I nees your help in putting together a new list.	2905368	1471993908777	1471993908849	t	71
5683	61037	I need your help in putting together a new list.	I nees your help in putting together a new list.	2905372	1471993908904	1471993908969	e	69
5683	61037	I need your help in putting together a new list.	I nees your help in putting together a new list.	2905495	1471993909161	1471993909216	t	84
5683	61037	I need your help in putting together a new list.	I nees your help in putting together a new list.	2905498	1471993909280	1471993909369	h	72
5683	61037	I need your help in putting together a new list.	I nees your help in putting together a new list.	2905501	1471993909440	1471993909536	e	69
5683	61037	I need your help in putting together a new list.	I nees your help in putting together a new list.	2905504	1471993909648	1471993909760	r	82
5683	61037	I need your help in putting together a new list.	I nees your help in putting together a new list.	2905509	1471993910168	1471993910224	BKSP	8
5683	61037	I need your help in putting together a new list.	I nees your help in putting together a new list.	2905515	1471993910288	1471993910360	BKSP	8
5683	61037	I need your help in putting together a new list.	I nees your help in putting together a new list.	2905518	1471993910432	1471993910480	BKSP	8
5683	61037	I need your help in putting together a new list.	I nees your help in putting together a new list.	2905521	1471993910560	1471993910624	BKSP	8
5683	61037	I need your help in putting together a new list.	I nees your help in putting together a new list.	2905526	1471993910704	1471993910760	BKSP	8
5683	61037	I need your help in putting together a new list.	I nees your help in putting together a new list.	2905532	1471993910976	1471993911064	BKSP	8
5683	61037	I need your help in putting together a new list.	I nees your help in putting together a new list.	2905534	1471993911480	1471993911552	e	69
5683	61037	I need your help in putting together a new list.	I nees your help in putting together a new list.	2905541	1471993911728	1471993911784	t	84
5683	61037	I need your help in putting together a new list.	I nees your help in putting together a new list.	2905547	1471993911848	1471993911920	h	72
5683	61037	I need your help in putting together a new list.	I nees your help in putting together a new list.	2905551	1471993911960	1471993912024	e	69
5683	61037	I need your help in putting together a new list.	I nees your help in putting together a new list.	2905558	1471993912128	1471993912200	r	82
5683	61037	I need your help in putting together a new list.	I nees your help in putting together a new list.	2905565	1471993912408	1471993912488	 	32
5683	61037	I need your help in putting together a new list.	I nees your help in putting together a new list.	2905578	1471993912544	1471993912608	a	65
5683	61037	I need your help in putting together a new list.	I nees your help in putting together a new list.	2905581	1471993912672	1471993912728	 	32
5683	61037	I need your help in putting together a new list.	I nees your help in putting together a new list.	2905584	1471993912840	1471993912920	n	78
5683	61037	I need your help in putting together a new list.	I nees your help in putting together a new list.	2905588	1471993913000	1471993913032	e	82
5683	61037	I need your help in putting together a new list.	I nees your help in putting together a new list.	2905662	1471993913160	1471993913224	w	87
5683	61037	I need your help in putting together a new list.	I nees your help in putting together a new list.	2905665	1471993913304	1471993913376	 	32
5683	61037	I need your help in putting together a new list.	I nees your help in putting together a new list.	2905666	1471993913704	1471993913768	BKSP	8
5683	61037	I need your help in putting together a new list.	I nees your help in putting together a new list.	2905670	1471993913856	1471993913920	BKSP	8
5683	61037	I need your help in putting together a new list.	I nees your help in putting together a new list.	2905672	1471993913976	1471993914040	BKSP	8
5683	61037	I need your help in putting together a new list.	I nees your help in putting together a new list.	2905676	1471993914112	1471993914216	BKSP	8
5683	61037	I need your help in putting together a new list.	I nees your help in putting together a new list.	2905679	1471993914664	1471993914736	e	69
5683	61037	I need your help in putting together a new list.	I nees your help in putting together a new list.	2905682	1471993914832	1471993914880	w	87
5683	61037	I need your help in putting together a new list.	I nees your help in putting together a new list.	2905686	1471993914920	1471993914984	 	32
5683	61037	I need your help in putting together a new list.	I nees your help in putting together a new list.	2905715	1471993915056	1471993915200	l	76
5683	61037	I need your help in putting together a new list.	I nees your help in putting together a new list.	2905717	1471993915184	1471993915264	i	73
5683	61037	I need your help in putting together a new list.	I nees your help in putting together a new list.	2905719	1471993915408	1471993915504	s	83
5683	61037	I need your help in putting together a new list.	I nees your help in putting together a new list.	2905721	1471993915608	1471993915664	t	84
5683	61037	I need your help in putting together a new list.	I nees your help in putting together a new list.	2905723	1471993916704	1471993916776	.	190
5683	61058	Call me anytime for information.	Call me anytime for information.	2905908	1471993920481	1471993920784	SHIFT	16
5683	61058	Call me anytime for information.	Call me anytime for information.	2905910	1471993920704	1471993920784	C	67
5683	61058	Call me anytime for information.	Call me anytime for information.	2905914	1471993920904	1471993920968	a	65
5683	61058	Call me anytime for information.	Call me anytime for information.	2905916	1471993921056	1471993921112	l	76
5683	61058	Call me anytime for information.	Call me anytime for information.	2905920	1471993921168	1471993921264	l	76
5683	61058	Call me anytime for information.	Call me anytime for information.	2905922	1471993921400	1471993921456	 	32
5683	61058	Call me anytime for information.	Call me anytime for information.	2905932	1471993921552	1471993921664	m	77
5683	61058	Call me anytime for information.	Call me anytime for information.	2905934	1471993921688	1471993921744	e	69
5683	61058	Call me anytime for information.	Call me anytime for information.	2905937	1471993921848	1471993921920	 	32
5683	61058	Call me anytime for information.	Call me anytime for information.	2905941	1471993922000	1471993922072	a	65
5683	61058	Call me anytime for information.	Call me anytime for information.	2905943	1471993922168	1471993922240	n	78
5683	61058	Call me anytime for information.	Call me anytime for information.	2906102	1471993922728	1471993922792	y	89
5683	61058	Call me anytime for information.	Call me anytime for information.	2906105	1471993922952	1471993923024	t	84
5683	61058	Call me anytime for information.	Call me anytime for information.	2906106	1471993923088	1471993923176	h	72
5683	61058	Call me anytime for information.	Call me anytime for information.	2906110	1471993923215	1471993923296	i	73
5683	61058	Call me anytime for information.	Call me anytime for information.	2906111	1471993923744	1471993923784	BKSP	8
5683	61058	Call me anytime for information.	Call me anytime for information.	2906115	1471993923856	1471993923920	BKSP	8
5683	61058	Call me anytime for information.	Call me anytime for information.	2906119	1471993925888	1471993925983	i	73
5683	61058	Call me anytime for information.	Call me anytime for information.	2906162	1471993926031	1471993926127	n	78
5683	61058	Call me anytime for information.	Call me anytime for information.	2906164	1471993926199	1471993926271	e	69
5683	61058	Call me anytime for information.	Call me anytime for information.	2906166	1471993926567	1471993926615	BKSP	8
5683	61058	Call me anytime for information.	Call me anytime for information.	2906168	1471993926679	1471993926775	BKSP	8
5683	61058	Call me anytime for information.	Call me anytime for information.	2906171	1471993926911	1471993926967	,	77
5683	61058	Call me anytime for information.	Call me anytime for information.	2906173	1471993927055	1471993927119	e	69
5683	61058	Call me anytime for information.	Call me anytime for information.	2906237	1471993927591	1471993927647	BKSP	8
5683	61058	Call me anytime for information.	Call me anytime for information.	2906238	1471993927719	1471993927807	BKSP	8
5683	61058	Call me anytime for information.	Call me anytime for information.	2906239	1471993927863	1471993927951	e	69
5683	61058	Call me anytime for information.	Call me anytime for information.	2906240	1471993928064	1471993928127	 	32
5683	61058	Call me anytime for information.	Call me anytime for information.	2906241	1471993928255	1471993928351	f	70
5683	61058	Call me anytime for information.	Call me anytime for information.	2906242	1471993928407	1471993928463	o	79
5683	61058	Call me anytime for information.	Call me anytime for information.	2906243	1471993928535	1471993928591	r	82
5683	61058	Call me anytime for information.	Call me anytime for information.	2906295	1471993928655	1471993928719	 	32
5683	61058	Call me anytime for information.	Call me anytime for information.	2906297	1471993929351	1471993929383	i	85
5683	61058	Call me anytime for information.	Call me anytime for information.	2906301	1471993929487	1471993929583	n	78
5683	61058	Call me anytime for information.	Call me anytime for information.	2906328	1471993929551	1471993929623	f	70
5683	61058	Call me anytime for information.	Call me anytime for information.	2906332	1471993929639	1471993929711	o	79
5683	61058	Call me anytime for information.	Call me anytime for information.	2906336	1471993929711	1471993929767	r	82
5683	61058	Call me anytime for information.	Call me anytime for information.	2906339	1471993929783	1471993929855	m	77
5683	61058	Call me anytime for information.	Call me anytime for information.	2906343	1471993929919	1471993929991	a	65
5683	61058	Call me anytime for information.	Call me anytime for information.	2906346	1471993930071	1471993930119	t	84
5683	61058	Call me anytime for information.	Call me anytime for information.	2906476	1471993930207	1471993930263	i	73
5683	61058	Call me anytime for information.	Call me anytime for information.	2906478	1471993930447	1471993930503	=	187
5683	61058	Call me anytime for information.	Call me anytime for information.	2906483	1471993930583	1471993930655	BKSP	8
5683	61058	Call me anytime for information.	Call me anytime for information.	2906487	1471993930719	1471993930783	BKSP	8
5683	61058	Call me anytime for information.	Call me anytime for information.	2906491	1471993930855	1471993930911	BKSP	8
5683	61058	Call me anytime for information.	Call me anytime for information.	2906496	1471993930975	1471993931039	BKSP	8
5683	61058	Call me anytime for information.	Call me anytime for information.	2906501	1471993931119	1471993931199	BKSP	8
5683	61058	Call me anytime for information.	Call me anytime for information.	2906505	1471993931263	1471993931343	BKSP	8
5683	61058	Call me anytime for information.	Call me anytime for information.	2906508	1471993931407	1471993931471	BKSP	8
5683	61058	Call me anytime for information.	Call me anytime for information.	2906512	1471993931543	1471993931623	BKSP	8
5683	61058	Call me anytime for information.	Call me anytime for information.	2906518	1471993931695	1471993931775	BKSP	8
5683	61058	Call me anytime for information.	Call me anytime for information.	2906525	1471993931831	1471993931919	BKSP	8
5683	61058	Call me anytime for information.	Call me anytime for information.	2906528	1471993931983	1471993932079	BKSP	8
5683	61058	Call me anytime for information.	Call me anytime for information.	2906530	1471993932511	1471993932599	i	73
5683	61058	Call me anytime for information.	Call me anytime for information.	2906536	1471993932631	1471993932735	n	78
5683	61058	Call me anytime for information.	Call me anytime for information.	2906514	1471993932663	1471993932738	f	70
5683	61058	Call me anytime for information.	Call me anytime for information.	2906519	1471993932775	1471993932879	o	79
5683	61058	Call me anytime for information.	Call me anytime for information.	2906523	1471993932823	1471993932879	r	82
5683	61058	Call me anytime for information.	Call me anytime for information.	2906527	1471993932911	1471993932983	m	77
5683	61058	Call me anytime for information.	Call me anytime for information.	2906529	1471993933031	1471993933095	a	65
5683	61058	Call me anytime for information.	Call me anytime for information.	2906533	1471993933175	1471993933247	t	84
5683	61058	Call me anytime for information.	Call me anytime for information.	2906599	1471993934471	1471993934527	i	73
5683	61058	Call me anytime for information.	Call me anytime for information.	2906600	1471993934583	1471993934679	o	79
5683	61058	Call me anytime for information.	Call me anytime for information.	2906601	1471993934727	1471993934791	n	78
5683	61058	Call me anytime for information.	Call me anytime for information.	2906602	1471993935015	1471993935103	.	190
5683	61074	But it takes time.	But it takes time.	2906754	1471993938847	1471993939047	SHIFT	16
5683	61074	But it takes time.	But it takes time.	2906756	1471993938998	1471993939087	B	66
5683	61074	But it takes time.	But it takes time.	2906759	1471993939159	1471993939279	u	85
5683	61074	But it takes time.	But it takes time.	2906762	1471993939318	1471993939391	t	84
5683	61074	But it takes time.	But it takes time.	2906765	1471993939511	1471993939575	 	32
5683	61074	But it takes time.	But it takes time.	2906768	1471993939655	1471993939719	i	73
5683	61074	But it takes time.	But it takes time.	2906797	1471993939934	1471993939990	t	84
5683	61074	But it takes time.	But it takes time.	2906801	1471993940119	1471993940167	 	32
5683	61074	But it takes time.	But it takes time.	2906806	1471993940391	1471993940455	t	84
5683	61074	But it takes time.	But it takes time.	2906810	1471993940511	1471993940583	a	65
5683	61074	But it takes time.	But it takes time.	2906815	1471993940766	1471993940838	l	75
5683	61074	But it takes time.	But it takes time.	2906885	1471993940926	1471993940998	e	69
5683	61074	But it takes time.	But it takes time.	2906889	1471993941094	1471993941206	s	83
5683	61074	But it takes time.	But it takes time.	2906893	1471993941630	1471993941686	BKSP	8
5683	61074	But it takes time.	But it takes time.	2906897	1471993941766	1471993941806	BKSP	8
5683	61074	But it takes time.	But it takes time.	2906904	1471993941886	1471993941982	BKSP	8
5683	61074	But it takes time.	But it takes time.	2906910	1471993942054	1471993942150	e	69
5683	61074	But it takes time.	But it takes time.	2906919	1471993942214	1471993942326	s	83
5683	61074	But it takes time.	But it takes time.	2906927	1471993942398	1471993942470	 	32
5683	61074	But it takes time.	But it takes time.	2907000	1471993942822	1471993942894	t	84
5683	61074	But it takes time.	But it takes time.	2907005	1471993942926	1471993943030	i	73
5683	61074	But it takes time.	But it takes time.	2907010	1471993943094	1471993943166	m	77
5683	61074	But it takes time.	But it takes time.	2907013	1471993943222	1471993943262	e	69
5683	61074	But it takes time.	But it takes time.	2907017	1471993944046	1471993944126	.	190
5683	61079	Do we need to discuss?	Do we need to discuss?	2907259	1471993948406	1471993948686	SHIFT	16
5683	61079	Do we need to discuss?	Do we need to discuss?	2907261	1471993948630	1471993948686	D	68
5683	61079	Do we need to discuss?	Do we need to discuss?	2907263	1471993948766	1471993948830	i	73
5683	61079	Do we need to discuss?	Do we need to discuss?	2907265	1471993948942	1471993949006	 	32
5683	61079	Do we need to discuss?	Do we need to discuss?	2907267	1471993949326	1471993949382	BKSP	8
5683	61079	Do we need to discuss?	Do we need to discuss?	2907269	1471993949454	1471993949534	BKSP	8
5683	61079	Do we need to discuss?	Do we need to discuss?	2907272	1471993949910	1471993949966	o	79
5683	61079	Do we need to discuss?	Do we need to discuss?	2907274	1471993950094	1471993950166	 	32
5683	61079	Do we need to discuss?	Do we need to discuss?	2907289	1471993950206	1471993950286	w	87
5683	61079	Do we need to discuss?	Do we need to discuss?	2907290	1471993950374	1471993950430	e	69
5683	61079	Do we need to discuss?	Do we need to discuss?	2907291	1471993950494	1471993950566	 	32
5683	61079	Do we need to discuss?	Do we need to discuss?	2907292	1471993950638	1471993950710	n	78
5683	61079	Do we need to discuss?	Do we need to discuss?	2907293	1471993950822	1471993950934	e	69
5683	61079	Do we need to discuss?	Do we need to discuss?	2907311	1471993951022	1471993951110	e	69
5683	61079	Do we need to discuss?	Do we need to discuss?	2907315	1471993951198	1471993951294	d	68
5683	61079	Do we need to discuss?	Do we need to discuss?	2907319	1471993951350	1471993951422	 	32
5683	61079	Do we need to discuss?	Do we need to discuss?	2907322	1471993951542	1471993951606	t	84
5683	61079	Do we need to discuss?	Do we need to discuss?	2907324	1471993951646	1471993951726	o	79
5683	61079	Do we need to discuss?	Do we need to discuss?	2907350	1471993951830	1471993951902	 	32
5683	61079	Do we need to discuss?	Do we need to discuss?	2907352	1471993951974	1471993952046	d	68
5683	61079	Do we need to discuss?	Do we need to discuss?	2907357	1471993952150	1471993952206	i	73
5683	61079	Do we need to discuss?	Do we need to discuss?	2907361	1471993952254	1471993952326	s	83
5683	61079	Do we need to discuss?	Do we need to discuss?	2907365	1471993952446	1471993952518	c	67
5683	61079	Do we need to discuss?	Do we need to discuss?	2907480	1471993952735	1471993952798	u	85
5683	61079	Do we need to discuss?	Do we need to discuss?	2907482	1471993952878	1471993952958	s	83
5683	61079	Do we need to discuss?	Do we need to discuss?	2907485	1471993953686	1471993953766	s	83
5683	61079	Do we need to discuss?	Do we need to discuss?	2907490	1471993954350	1471993954565	SHIFT	16
5683	61079	Do we need to discuss?	Do we need to discuss?	2907488	1471993954413	1471993954518	?	191
5683	61094	Davis was listed as questionable on the weekly injury report.	Davis was listed as questionable on the weekly injury report.	2908014	1471993964797	1471993965069	SHIFT	16
5683	61094	Davis was listed as questionable on the weekly injury report.	Davis was listed as questionable on the weekly injury report.	2908015	1471993965069	1471993965125	d	68
5683	61094	Davis was listed as questionable on the weekly injury report.	Davis was listed as questionable on the weekly injury report.	2908017	1471993965165	1471993965237	a	65
5683	61094	Davis was listed as questionable on the weekly injury report.	Davis was listed as questionable on the weekly injury report.	2908021	1471993966021	1471993966085	v	86
5683	61094	Davis was listed as questionable on the weekly injury report.	Davis was listed as questionable on the weekly injury report.	2908025	1471993966141	1471993966221	i	73
5683	61094	Davis was listed as questionable on the weekly injury report.	Davis was listed as questionable on the weekly injury report.	2908029	1471993966269	1471993966341	d	68
5683	61094	Davis was listed as questionable on the weekly injury report.	Davis was listed as questionable on the weekly injury report.	2908138	1471993966477	1471993966613	 	32
5683	61094	Davis was listed as questionable on the weekly injury report.	Davis was listed as questionable on the weekly injury report.	2908140	1471993966965	1471993967021	BKSP	8
5683	61094	Davis was listed as questionable on the weekly injury report.	Davis was listed as questionable on the weekly injury report.	2908143	1471993967093	1471993967173	BKSP	8
5683	61094	Davis was listed as questionable on the weekly injury report.	Davis was listed as questionable on the weekly injury report.	2908149	1471993967149	1471993967269	s	83
5683	61094	Davis was listed as questionable on the weekly injury report.	Davis was listed as questionable on the weekly injury report.	2908153	1471993967413	1471993967469	 	32
5683	61094	Davis was listed as questionable on the weekly injury report.	Davis was listed as questionable on the weekly injury report.	2908157	1471993968005	1471993968069	BKSP	8
5683	61094	Davis was listed as questionable on the weekly injury report.	Davis was listed as questionable on the weekly injury report.	2908161	1471993968149	1471993968205	BKSP	8
5683	61094	Davis was listed as questionable on the weekly injury report.	Davis was listed as questionable on the weekly injury report.	2908165	1471993968285	1471993968349	BKSP	8
5683	61094	Davis was listed as questionable on the weekly injury report.	Davis was listed as questionable on the weekly injury report.	2908167	1471993968421	1471993968485	BKSP	8
5683	61094	Davis was listed as questionable on the weekly injury report.	Davis was listed as questionable on the weekly injury report.	2908168	1471993968565	1471993968605	BKSP	8
5683	61094	Davis was listed as questionable on the weekly injury report.	Davis was listed as questionable on the weekly injury report.	2908169	1471993968684	1471993968789	BKSP	8
5683	61094	Davis was listed as questionable on the weekly injury report.	Davis was listed as questionable on the weekly injury report.	2908171	1471993969037	1471993969326	SHIFT	16
5683	61094	Davis was listed as questionable on the weekly injury report.	Davis was listed as questionable on the weekly injury report.	2908175	1471993969301	1471993969365	D	68
5683	61094	Davis was listed as questionable on the weekly injury report.	Davis was listed as questionable on the weekly injury report.	2908178	1471993969428	1471993969501	a	65
5683	61094	Davis was listed as questionable on the weekly injury report.	Davis was listed as questionable on the weekly injury report.	2908184	1471993969829	1471993969901	v	86
5683	61094	Davis was listed as questionable on the weekly injury report.	Davis was listed as questionable on the weekly injury report.	2908185	1471993969948	1471993970029	i	73
5683	61094	Davis was listed as questionable on the weekly injury report.	Davis was listed as questionable on the weekly injury report.	2908187	1471993970044	1471993970125	s	83
5683	61094	Davis was listed as questionable on the weekly injury report.	Davis was listed as questionable on the weekly injury report.	2908189	1471993970228	1471993970309	 	32
5683	61094	Davis was listed as questionable on the weekly injury report.	Davis was listed as questionable on the weekly injury report.	2908193	1471993970501	1471993970613	w	87
5683	61094	Davis was listed as questionable on the weekly injury report.	Davis was listed as questionable on the weekly injury report.	2908214	1471993970797	1471993970877	a	65
5683	61094	Davis was listed as questionable on the weekly injury report.	Davis was listed as questionable on the weekly injury report.	2908216	1471993970989	1471993971061	s	83
5683	61094	Davis was listed as questionable on the weekly injury report.	Davis was listed as questionable on the weekly injury report.	2908218	1471993971116	1471993971189	 	32
5683	61094	Davis was listed as questionable on the weekly injury report.	Davis was listed as questionable on the weekly injury report.	2908221	1471993971260	1471993971452	l	76
5683	61094	Davis was listed as questionable on the weekly injury report.	Davis was listed as questionable on the weekly injury report.	2908245	1471993971421	1471993971508	i	73
5683	61094	Davis was listed as questionable on the weekly injury report.	Davis was listed as questionable on the weekly injury report.	2908247	1471993971644	1471993971764	s	83
5683	61094	Davis was listed as questionable on the weekly injury report.	Davis was listed as questionable on the weekly injury report.	2908251	1471993971988	1471993972060	t	84
5683	61094	Davis was listed as questionable on the weekly injury report.	Davis was listed as questionable on the weekly injury report.	2908254	1471993972132	1471993972196	e	69
5683	61094	Davis was listed as questionable on the weekly injury report.	Davis was listed as questionable on the weekly injury report.	2908259	1471993972316	1471993972396	d	68
5683	61094	Davis was listed as questionable on the weekly injury report.	Davis was listed as questionable on the weekly injury report.	2908267	1471993972397	1471993972460	 	32
5683	61094	Davis was listed as questionable on the weekly injury report.	Davis was listed as questionable on the weekly injury report.	2908329	1471993972532	1471993972612	i	73
5683	61094	Davis was listed as questionable on the weekly injury report.	Davis was listed as questionable on the weekly injury report.	2908331	1471993972668	1471993972724	n	78
5683	61094	Davis was listed as questionable on the weekly injury report.	Davis was listed as questionable on the weekly injury report.	2908334	1471993973148	1471993973196	BKSP	8
5683	61094	Davis was listed as questionable on the weekly injury report.	Davis was listed as questionable on the weekly injury report.	2908337	1471993973260	1471993973348	BKSP	8
5683	61094	Davis was listed as questionable on the weekly injury report.	Davis was listed as questionable on the weekly injury report.	2908341	1471993973380	1471993973476	a	65
5683	61094	Davis was listed as questionable on the weekly injury report.	Davis was listed as questionable on the weekly injury report.	2908344	1471993973572	1471993973628	s	83
5683	61094	Davis was listed as questionable on the weekly injury report.	Davis was listed as questionable on the weekly injury report.	2908351	1471993973676	1471993973748	 	32
5683	61094	Davis was listed as questionable on the weekly injury report.	Davis was listed as questionable on the weekly injury report.	2908409	1471993974372	1471993974452	q	81
5683	61094	Davis was listed as questionable on the weekly injury report.	Davis was listed as questionable on the weekly injury report.	2908412	1471993974524	1471993974588	u	85
5683	61094	Davis was listed as questionable on the weekly injury report.	Davis was listed as questionable on the weekly injury report.	2908416	1471993974660	1471993974732	e	69
5683	61094	Davis was listed as questionable on the weekly injury report.	Davis was listed as questionable on the weekly injury report.	2908420	1471993974796	1471993974892	s	83
5683	61094	Davis was listed as questionable on the weekly injury report.	Davis was listed as questionable on the weekly injury report.	2908424	1471993974996	1471993975068	t	84
5683	61094	Davis was listed as questionable on the weekly injury report.	Davis was listed as questionable on the weekly injury report.	2908450	1471993975204	1471993975276	i	73
5683	61094	Davis was listed as questionable on the weekly injury report.	Davis was listed as questionable on the weekly injury report.	2908453	1471993975332	1471993975428	o	79
5683	61094	Davis was listed as questionable on the weekly injury report.	Davis was listed as questionable on the weekly injury report.	2908458	1471993975492	1471993975564	n	78
5683	61094	Davis was listed as questionable on the weekly injury report.	Davis was listed as questionable on the weekly injury report.	2908461	1471993975580	1471993975668	a	65
5683	61094	Davis was listed as questionable on the weekly injury report.	Davis was listed as questionable on the weekly injury report.	2908465	1471993975780	1471993975836	l	76
5683	61094	Davis was listed as questionable on the weekly injury report.	Davis was listed as questionable on the weekly injury report.	2908608	1471993976932	1471993977004	BKSP	8
5683	61094	Davis was listed as questionable on the weekly injury report.	Davis was listed as questionable on the weekly injury report.	2908611	1471993977428	1471993977484	BKSP	8
5683	61094	Davis was listed as questionable on the weekly injury report.	Davis was listed as questionable on the weekly injury report.	2908613	1471993977980	1471993978052	b	66
5683	61094	Davis was listed as questionable on the weekly injury report.	Davis was listed as questionable on the weekly injury report.	2908615	1471993978100	1471993978164	l	76
5683	61094	Davis was listed as questionable on the weekly injury report.	Davis was listed as questionable on the weekly injury report.	2908618	1471993978396	1471993978444	BKSP	8
5683	61094	Davis was listed as questionable on the weekly injury report.	Davis was listed as questionable on the weekly injury report.	2908622	1471993978508	1471993978588	BKSP	8
5683	61094	Davis was listed as questionable on the weekly injury report.	Davis was listed as questionable on the weekly injury report.	2908623	1471993978612	1471993978700	a	65
5683	61094	Davis was listed as questionable on the weekly injury report.	Davis was listed as questionable on the weekly injury report.	2908626	1471993978820	1471993978892	b	66
5683	61094	Davis was listed as questionable on the weekly injury report.	Davis was listed as questionable on the weekly injury report.	2908629	1471993978924	1471993979020	l	76
5683	61094	Davis was listed as questionable on the weekly injury report.	Davis was listed as questionable on the weekly injury report.	2908658	1471993979022	1471993979084	e	69
5683	61094	Davis was listed as questionable on the weekly injury report.	Davis was listed as questionable on the weekly injury report.	2908660	1471993979532	1471993979596	 	32
5683	61094	Davis was listed as questionable on the weekly injury report.	Davis was listed as questionable on the weekly injury report.	2908662	1471993979660	1471993979732	o	79
5683	61094	Davis was listed as questionable on the weekly injury report.	Davis was listed as questionable on the weekly injury report.	2908664	1471993979796	1471993979860	n	78
5683	61094	Davis was listed as questionable on the weekly injury report.	Davis was listed as questionable on the weekly injury report.	2908669	1471993979964	1471993980028	 	32
5683	61094	Davis was listed as questionable on the weekly injury report.	Davis was listed as questionable on the weekly injury report.	2908677	1471993980108	1471993980164	t	84
5683	61094	Davis was listed as questionable on the weekly injury report.	Davis was listed as questionable on the weekly injury report.	2908679	1471993980236	1471993980300	h	72
5683	61094	Davis was listed as questionable on the weekly injury report.	Davis was listed as questionable on the weekly injury report.	2908682	1471993980276	1471993980332	e	69
5683	61094	Davis was listed as questionable on the weekly injury report.	Davis was listed as questionable on the weekly injury report.	2908686	1471993980404	1471993980476	 	32
5683	61094	Davis was listed as questionable on the weekly injury report.	Davis was listed as questionable on the weekly injury report.	2908689	1471993980852	1471993980908	w	87
5683	61094	Davis was listed as questionable on the weekly injury report.	Davis was listed as questionable on the weekly injury report.	2908744	1471993981060	1471993981108	e	69
5683	61094	Davis was listed as questionable on the weekly injury report.	Davis was listed as questionable on the weekly injury report.	2908747	1471993981188	1471993981252	e	69
5683	61094	Davis was listed as questionable on the weekly injury report.	Davis was listed as questionable on the weekly injury report.	2908751	1471993981348	1471993981404	k	75
5683	61094	Davis was listed as questionable on the weekly injury report.	Davis was listed as questionable on the weekly injury report.	2908754	1471993981660	1471993981724	l	76
5683	61094	Davis was listed as questionable on the weekly injury report.	Davis was listed as questionable on the weekly injury report.	2908756	1471993981892	1471993981948	y	89
5683	61094	Davis was listed as questionable on the weekly injury report.	Davis was listed as questionable on the weekly injury report.	2908842	1471993982662	1471993982740	 	32
5683	61094	Davis was listed as questionable on the weekly injury report.	Davis was listed as questionable on the weekly injury report.	2908849	1471993982868	1471993982972	i	73
5683	61094	Davis was listed as questionable on the weekly injury report.	Davis was listed as questionable on the weekly injury report.	2908854	1471993983012	1471993983092	n	78
5683	61094	Davis was listed as questionable on the weekly injury report.	Davis was listed as questionable on the weekly injury report.	2908858	1471993983548	1471993983612	j	74
5683	61094	Davis was listed as questionable on the weekly injury report.	Davis was listed as questionable on the weekly injury report.	2908861	1471993983684	1471993983756	u	85
5683	61094	Davis was listed as questionable on the weekly injury report.	Davis was listed as questionable on the weekly injury report.	2908919	1471993984004	1471993984068	r	82
5683	61094	Davis was listed as questionable on the weekly injury report.	Davis was listed as questionable on the weekly injury report.	2908921	1471993984236	1471993984284	y	89
5683	61094	Davis was listed as questionable on the weekly injury report.	Davis was listed as questionable on the weekly injury report.	2908922	1471993984980	1471993985044	 	32
5683	61094	Davis was listed as questionable on the weekly injury report.	Davis was listed as questionable on the weekly injury report.	2908924	1471993985172	1471993985244	r	82
5683	61094	Davis was listed as questionable on the weekly injury report.	Davis was listed as questionable on the weekly injury report.	2908928	1471993985332	1471993985396	e	69
5683	61094	Davis was listed as questionable on the weekly injury report.	Davis was listed as questionable on the weekly injury report.	2908987	1471993985500	1471993985628	p	80
5683	61094	Davis was listed as questionable on the weekly injury report.	Davis was listed as questionable on the weekly injury report.	2908988	1471993985596	1471993985676	o	79
5683	61094	Davis was listed as questionable on the weekly injury report.	Davis was listed as questionable on the weekly injury report.	2908989	1471993985812	1471993985900	r	82
5683	61094	Davis was listed as questionable on the weekly injury report.	Davis was listed as questionable on the weekly injury report.	2908991	1471993986003	1471993986060	t	84
5683	61094	Davis was listed as questionable on the weekly injury report.	Davis was listed as questionable on the weekly injury report.	2908995	1471993986756	1471993986844	.	190
5683	61126	I'll presume it is dead until I hear otherwise.	I'll pressume it is dead until I hear otherwise.	2909219	1471993990043	1471993990691	SHIFT	16
5683	61126	I'll presume it is dead until I hear otherwise.	I'll pressume it is dead until I hear otherwise.	2909216	1471993990613	1471993990659	I	73
5683	61126	I'll presume it is dead until I hear otherwise.	I'll pressume it is dead until I hear otherwise.	2909223	1471993991075	1471993991123	'	222
5683	61126	I'll presume it is dead until I hear otherwise.	I'll pressume it is dead until I hear otherwise.	2909227	1471993991627	1471993991683	l	76
5683	61126	I'll presume it is dead until I hear otherwise.	I'll pressume it is dead until I hear otherwise.	2909231	1471993991755	1471993991827	l	76
5683	61126	I'll presume it is dead until I hear otherwise.	I'll pressume it is dead until I hear otherwise.	2909236	1471993992299	1471993992371	 	32
5683	61126	I'll presume it is dead until I hear otherwise.	I'll pressume it is dead until I hear otherwise.	2909295	1471993992611	1471993992675	p	80
5683	61126	I'll presume it is dead until I hear otherwise.	I'll pressume it is dead until I hear otherwise.	2909302	1471993992771	1471993992843	r	82
5683	61126	I'll presume it is dead until I hear otherwise.	I'll pressume it is dead until I hear otherwise.	2909308	1471993992923	1471993992995	e	69
5683	61126	I'll presume it is dead until I hear otherwise.	I'll pressume it is dead until I hear otherwise.	2909310	1471993993147	1471993993235	s	83
5683	61126	I'll presume it is dead until I hear otherwise.	I'll pressume it is dead until I hear otherwise.	2909316	1471993993379	1471993993483	s	83
5683	61126	I'll presume it is dead until I hear otherwise.	I'll pressume it is dead until I hear otherwise.	2909374	1471993993595	1471993993659	u	85
5683	61126	I'll presume it is dead until I hear otherwise.	I'll pressume it is dead until I hear otherwise.	2909377	1471993993923	1471993993987	m	77
5683	61126	I'll presume it is dead until I hear otherwise.	I'll pressume it is dead until I hear otherwise.	2909379	1471993994019	1471993994091	e	69
5683	61126	I'll presume it is dead until I hear otherwise.	I'll pressume it is dead until I hear otherwise.	2909383	1471993994651	1471993994731	 	32
5683	61126	I'll presume it is dead until I hear otherwise.	I'll pressume it is dead until I hear otherwise.	2909385	1471993994939	1471993994987	i	73
5683	61126	I'll presume it is dead until I hear otherwise.	I'll pressume it is dead until I hear otherwise.	2909428	1471993995155	1471993995219	t	84
5683	61126	I'll presume it is dead until I hear otherwise.	I'll pressume it is dead until I hear otherwise.	2909431	1471993995371	1471993995435	 	32
5683	61126	I'll presume it is dead until I hear otherwise.	I'll pressume it is dead until I hear otherwise.	2909437	1471993995515	1471993995579	i	73
5683	61126	I'll presume it is dead until I hear otherwise.	I'll pressume it is dead until I hear otherwise.	2909440	1471993995619	1471993995707	s	83
5683	61126	I'll presume it is dead until I hear otherwise.	I'll pressume it is dead until I hear otherwise.	2909442	1471993995779	1471993995843	 	32
5683	61126	I'll presume it is dead until I hear otherwise.	I'll pressume it is dead until I hear otherwise.	2909504	1471993996099	1471993996203	d	68
5683	61126	I'll presume it is dead until I hear otherwise.	I'll pressume it is dead until I hear otherwise.	2909507	1471993996291	1471993996363	e	69
5683	61126	I'll presume it is dead until I hear otherwise.	I'll pressume it is dead until I hear otherwise.	2909512	1471993996507	1471993996587	a	65
5683	61126	I'll presume it is dead until I hear otherwise.	I'll pressume it is dead until I hear otherwise.	2909518	1471993997139	1471993997211	d	68
5683	61126	I'll presume it is dead until I hear otherwise.	I'll pressume it is dead until I hear otherwise.	2909525	1471993997331	1471993997475	 	32
5683	61126	I'll presume it is dead until I hear otherwise.	I'll pressume it is dead until I hear otherwise.	2909592	1471993998395	1471993998451	u	85
5683	61126	I'll presume it is dead until I hear otherwise.	I'll pressume it is dead until I hear otherwise.	2909593	1471993998547	1471993998587	n	66
5683	61126	I'll presume it is dead until I hear otherwise.	I'll pressume it is dead until I hear otherwise.	2909595	1471993998883	1471993998947	t	84
5683	61126	I'll presume it is dead until I hear otherwise.	I'll pressume it is dead until I hear otherwise.	2909598	1471993998995	1471993999075	i	73
5683	61126	I'll presume it is dead until I hear otherwise.	I'll pressume it is dead until I hear otherwise.	2909688	1471993999179	1471993999251	l	76
5683	61126	I'll presume it is dead until I hear otherwise.	I'll pressume it is dead until I hear otherwise.	2909693	1471993999627	1471993999683	BKSP	8
5683	61126	I'll presume it is dead until I hear otherwise.	I'll pressume it is dead until I hear otherwise.	2909697	1471993999747	1471993999802	BKSP	8
5683	61126	I'll presume it is dead until I hear otherwise.	I'll pressume it is dead until I hear otherwise.	2909701	1471993999875	1471993999931	BKSP	8
5683	61126	I'll presume it is dead until I hear otherwise.	I'll pressume it is dead until I hear otherwise.	2909705	1471993999995	1471994000075	BKSP	8
5683	61126	I'll presume it is dead until I hear otherwise.	I'll pressume it is dead until I hear otherwise.	2909711	1471994000139	1471994000243	BKSP	8
5683	61126	I'll presume it is dead until I hear otherwise.	I'll pressume it is dead until I hear otherwise.	2909715	1471994000667	1471994000723	n	78
5683	61126	I'll presume it is dead until I hear otherwise.	I'll pressume it is dead until I hear otherwise.	2909719	1471994000883	1471994000955	t	84
5683	61126	I'll presume it is dead until I hear otherwise.	I'll pressume it is dead until I hear otherwise.	2909724	1471994000994	1471994001075	i	73
5683	61126	I'll presume it is dead until I hear otherwise.	I'll pressume it is dead until I hear otherwise.	2909728	1471994001171	1471994001243	l	76
5683	61126	I'll presume it is dead until I hear otherwise.	I'll pressume it is dead until I hear otherwise.	2909744	1471994001451	1471994001515	 	32
5683	61126	I'll presume it is dead until I hear otherwise.	I'll pressume it is dead until I hear otherwise.	2909748	1471994001562	1471994001810	SHIFT	16
5683	61126	I'll presume it is dead until I hear otherwise.	I'll pressume it is dead until I hear otherwise.	2909746	1471994001706	1471994001762	I	73
5683	61126	I'll presume it is dead until I hear otherwise.	I'll pressume it is dead until I hear otherwise.	2909752	1471994001874	1471994001939	 	32
5683	61126	I'll presume it is dead until I hear otherwise.	I'll pressume it is dead until I hear otherwise.	2909756	1471994002226	1471994002290	h	72
5683	61126	I'll presume it is dead until I hear otherwise.	I'll pressume it is dead until I hear otherwise.	2909759	1471994002338	1471994002403	e	69
5683	61126	I'll presume it is dead until I hear otherwise.	I'll pressume it is dead until I hear otherwise.	2909860	1471994002515	1471994002594	a	65
5683	61126	I'll presume it is dead until I hear otherwise.	I'll pressume it is dead until I hear otherwise.	2909863	1471994002922	1471994003002	r	82
5683	61126	I'll presume it is dead until I hear otherwise.	I'll pressume it is dead until I hear otherwise.	2909866	1471994003466	1471994003538	 	32
5683	61126	I'll presume it is dead until I hear otherwise.	I'll pressume it is dead until I hear otherwise.	2909869	1471994003866	1471994003938	o	79
5683	61126	I'll presume it is dead until I hear otherwise.	I'll pressume it is dead until I hear otherwise.	2909872	1471994004098	1471994004154	t	84
5683	61126	I'll presume it is dead until I hear otherwise.	I'll pressume it is dead until I hear otherwise.	2909899	1471994004218	1471994004306	h	72
5683	61126	I'll presume it is dead until I hear otherwise.	I'll pressume it is dead until I hear otherwise.	2909900	1471994004307	1471994004370	e	69
5683	61126	I'll presume it is dead until I hear otherwise.	I'll pressume it is dead until I hear otherwise.	2909901	1471994004450	1471994004514	r	82
5683	61126	I'll presume it is dead until I hear otherwise.	I'll pressume it is dead until I hear otherwise.	2909903	1471994004714	1471994004778	w	87
5683	61126	I'll presume it is dead until I hear otherwise.	I'll pressume it is dead until I hear otherwise.	2909905	1471994004866	1471994004930	i	73
5683	61126	I'll presume it is dead until I hear otherwise.	I'll pressume it is dead until I hear otherwise.	2909989	1471994005026	1471994005074	r	82
5683	61126	I'll presume it is dead until I hear otherwise.	I'll pressume it is dead until I hear otherwise.	2909991	1471994005418	1471994005482	BKSP	8
5683	61126	I'll presume it is dead until I hear otherwise.	I'll pressume it is dead until I hear otherwise.	2909992	1471994005570	1471994005666	s	83
5683	61126	I'll presume it is dead until I hear otherwise.	I'll pressume it is dead until I hear otherwise.	2909993	1471994005754	1471994005850	e	69
5683	61126	I'll presume it is dead until I hear otherwise.	I'll pressume it is dead until I hear otherwise.	2909994	1471994006778	1471994006866	.	190
5683	61144	Please call me if you have any questions.	Please call me if you have any questions.	2910192	1471994010338	1471994010594	SHIFT	16
5683	61144	Please call me if you have any questions.	Please call me if you have any questions.	2910197	1471994010530	1471994010594	P	80
5683	61144	Please call me if you have any questions.	Please call me if you have any questions.	2910200	1471994010666	1471994010754	l	76
5683	61144	Please call me if you have any questions.	Please call me if you have any questions.	2910202	1471994010778	1471994010850	e	69
5683	61144	Please call me if you have any questions.	Please call me if you have any questions.	2910204	1471994011394	1471994011466	a	65
5683	61144	Please call me if you have any questions.	Please call me if you have any questions.	2910206	1471994011562	1471994011642	s	83
5683	61144	Please call me if you have any questions.	Please call me if you have any questions.	2910224	1471994011746	1471994011786	e	69
5683	61144	Please call me if you have any questions.	Please call me if you have any questions.	2910228	1471994011874	1471994011938	 	32
5683	61144	Please call me if you have any questions.	Please call me if you have any questions.	2910230	1471994012010	1471994012098	c	67
5683	61144	Please call me if you have any questions.	Please call me if you have any questions.	2910233	1471994012162	1471994012218	a	65
5683	61144	Please call me if you have any questions.	Please call me if you have any questions.	2910235	1471994012282	1471994012330	l	76
5683	61144	Please call me if you have any questions.	Please call me if you have any questions.	2910259	1471994012410	1471994012514	l	76
5683	61144	Please call me if you have any questions.	Please call me if you have any questions.	2910262	1471994012610	1471994012658	 	32
5683	61144	Please call me if you have any questions.	Please call me if you have any questions.	2910266	1471994012746	1471994012818	m	77
5683	61144	Please call me if you have any questions.	Please call me if you have any questions.	2910269	1471994012858	1471994012914	e	69
5683	61144	Please call me if you have any questions.	Please call me if you have any questions.	2910271	1471994013002	1471994013074	 	32
5683	61144	Please call me if you have any questions.	Please call me if you have any questions.	2910326	1471994013242	1471994013330	i	73
5683	61144	Please call me if you have any questions.	Please call me if you have any questions.	2910328	1471994013514	1471994013578	d	70
5683	61144	Please call me if you have any questions.	Please call me if you have any questions.	2910330	1471994013658	1471994013730	 	32
5683	61144	Please call me if you have any questions.	Please call me if you have any questions.	2910333	1471994014074	1471994014122	BKSP	8
5683	61144	Please call me if you have any questions.	Please call me if you have any questions.	2910336	1471994014194	1471994014274	BKSP	8
5683	61144	Please call me if you have any questions.	Please call me if you have any questions.	2910339	1471994014442	1471994014506	 	32
5683	61144	Please call me if you have any questions.	Please call me if you have any questions.	2910368	1471994014594	1471994014650	y	89
5683	61144	Please call me if you have any questions.	Please call me if you have any questions.	2910369	1471994014690	1471994014786	o	79
5683	61144	Please call me if you have any questions.	Please call me if you have any questions.	2910370	1471994014754	1471994014818	u	85
5683	61144	Please call me if you have any questions.	Please call me if you have any questions.	2910371	1471994014954	1471994015002	 	32
5683	61144	Please call me if you have any questions.	Please call me if you have any questions.	2910372	1471994015090	1471994015162	h	72
5683	61144	Please call me if you have any questions.	Please call me if you have any questions.	2910387	1471994015164	1471994015234	a	65
5683	61144	Please call me if you have any questions.	Please call me if you have any questions.	2910390	1471994015306	1471994015370	v	86
5683	61144	Please call me if you have any questions.	Please call me if you have any questions.	2910393	1471994015418	1471994015458	e	69
5683	61144	Please call me if you have any questions.	Please call me if you have any questions.	2910395	1471994015530	1471994015594	 	32
5683	61144	Please call me if you have any questions.	Please call me if you have any questions.	2910397	1471994015674	1471994015746	a	65
5683	61144	Please call me if you have any questions.	Please call me if you have any questions.	2910446	1471994015786	1471994015858	n	78
5683	61144	Please call me if you have any questions.	Please call me if you have any questions.	2910448	1471994016450	1471994016498	y	89
5683	61144	Please call me if you have any questions.	Please call me if you have any questions.	2910452	1471994016618	1471994016698	 	32
5683	61144	Please call me if you have any questions.	Please call me if you have any questions.	2910457	1471994017114	1471994017186	q	81
5683	61144	Please call me if you have any questions.	Please call me if you have any questions.	2910461	1471994017233	1471994017298	u	85
5683	61144	Please call me if you have any questions.	Please call me if you have any questions.	2910486	1471994017410	1471994017482	e	69
5683	61144	Please call me if you have any questions.	Please call me if you have any questions.	2910487	1471994017553	1471994017642	s	83
5683	61144	Please call me if you have any questions.	Please call me if you have any questions.	2910488	1471994017770	1471994017833	t	84
5683	61144	Please call me if you have any questions.	Please call me if you have any questions.	2910489	1471994017961	1471994018033	i	73
5683	61144	Please call me if you have any questions.	Please call me if you have any questions.	2910490	1471994018089	1471994018169	o	79
5683	61144	Please call me if you have any questions.	Please call me if you have any questions.	2910555	1471994018234	1471994018307	n	78
5683	61144	Please call me if you have any questions.	Please call me if you have any questions.	2910557	1471994018580	1471994018697	s	83
5683	61144	Please call me if you have any questions.	Please call me if you have any questions.	2910558	1471994019345	1471994019417	.	190
5683	61156	I am not aware of any.	I am not aware of any.	2910782	1471994023793	1471994024057	SHIFT	16
5683	61156	I am not aware of any.	I am not aware of any.	2910787	1471994023993	1471994024057	I	73
5683	61156	I am not aware of any.	I am not aware of any.	2910789	1471994024161	1471994024233	 	32
5683	61156	I am not aware of any.	I am not aware of any.	2910791	1471994024297	1471994024369	a	65
5683	61156	I am not aware of any.	I am not aware of any.	2910793	1471994024393	1471994024449	m	77
5683	61156	I am not aware of any.	I am not aware of any.	2910794	1471994024545	1471994024593	 	32
5683	61156	I am not aware of any.	I am not aware of any.	2910829	1471994024689	1471994024769	n	78
5683	61156	I am not aware of any.	I am not aware of any.	2910830	1471994024801	1471994024897	o	79
5683	61156	I am not aware of any.	I am not aware of any.	2910831	1471994025073	1471994025129	w	87
5683	61156	I am not aware of any.	I am not aware of any.	2910832	1471994025377	1471994025433	BKSP	8
5683	61156	I am not aware of any.	I am not aware of any.	2910833	1471994025617	1471994025681	t	84
5683	61156	I am not aware of any.	I am not aware of any.	2910834	1471994025793	1471994025873	 	32
5683	61156	I am not aware of any.	I am not aware of any.	2910900	1471994026361	1471994026465	a	65
5683	61156	I am not aware of any.	I am not aware of any.	2910902	1471994026721	1471994026777	w	87
5683	61156	I am not aware of any.	I am not aware of any.	2910906	1471994026889	1471994026977	a	65
5683	61156	I am not aware of any.	I am not aware of any.	2910909	1471994027169	1471994027233	r	82
5683	61156	I am not aware of any.	I am not aware of any.	2910912	1471994027313	1471994027377	e	69
5683	61156	I am not aware of any.	I am not aware of any.	2910937	1471994027465	1471994027513	 	32
5683	61156	I am not aware of any.	I am not aware of any.	2910941	1471994027585	1471994027657	o	79
5683	61156	I am not aware of any.	I am not aware of any.	2910944	1471994027713	1471994027785	f	70
5683	61156	I am not aware of any.	I am not aware of any.	2910948	1471994027809	1471994027841	 	32
5683	61156	I am not aware of any.	I am not aware of any.	2910951	1471994028025	1471994028097	a	65
5683	61156	I am not aware of any.	I am not aware of any.	2911004	1471994028177	1471994028241	n	78
5683	61156	I am not aware of any.	I am not aware of any.	2911009	1471994028321	1471994028377	y	89
5683	61156	I am not aware of any.	I am not aware of any.	2911013	1471994029393	1471994029465	.	190
5683	61162	Sounds good to me.	Sounds good to me.	2911190	1471994032977	1471994033168	SHIFT	16
5683	61162	Sounds good to me.	Sounds good to me.	2911193	1471994033104	1471994033216	S	83
5683	61162	Sounds good to me.	Sounds good to me.	2911197	1471994033272	1471994033298	h	72
5683	61162	Sounds good to me.	Sounds good to me.	2911203	1471994033352	1471994033584	o	79
5683	61162	Sounds good to me.	Sounds good to me.	2911206	1471994033497	1471994033608	u	85
5683	61162	Sounds good to me.	Sounds good to me.	2911209	1471994034600	1471994034656	BKSP	8
5683	61162	Sounds good to me.	Sounds good to me.	2911210	1471994034728	1471994034784	BKSP	8
5683	61162	Sounds good to me.	Sounds good to me.	2911212	1471994034864	1471994034944	BKSP	8
5683	61162	Sounds good to me.	Sounds good to me.	2911215	1471994035344	1471994035482	o	79
5683	61162	Sounds good to me.	Sounds good to me.	2911234	1471994035448	1471994035528	u	85
5683	61162	Sounds good to me.	Sounds good to me.	2911239	1471994035616	1471994035712	n	78
5683	61162	Sounds good to me.	Sounds good to me.	2911244	1471994035800	1471994035856	d	68
5683	61162	Sounds good to me.	Sounds good to me.	2911246	1471994036000	1471994036104	s	83
5683	61162	Sounds good to me.	Sounds good to me.	2911252	1471994036176	1471994036248	 	32
5683	61162	Sounds good to me.	Sounds good to me.	2911255	1471994036584	1471994036656	g	71
5683	61162	Sounds good to me.	Sounds good to me.	2911274	1471994036720	1471994036784	o	79
5683	61162	Sounds good to me.	Sounds good to me.	2911276	1471994036856	1471994036944	o	79
5683	61162	Sounds good to me.	Sounds good to me.	2911279	1471994037040	1471994037128	d	68
5683	61162	Sounds good to me.	Sounds good to me.	2911282	1471994037200	1471994037273	 	32
5683	61162	Sounds good to me.	Sounds good to me.	2911285	1471994037400	1471994037448	t	84
5683	61162	Sounds good to me.	Sounds good to me.	2911353	1471994037504	1471994037584	o	79
5683	61162	Sounds good to me.	Sounds good to me.	2911355	1471994037680	1471994037696	 	32
5683	61162	Sounds good to me.	Sounds good to me.	2911359	1471994037864	1471994037920	m	77
5683	61162	Sounds good to me.	Sounds good to me.	2911364	1471994037992	1471994038064	e	69
5683	61162	Sounds good to me.	Sounds good to me.	2911367	1471994038960	1471994039032	.	190
5683	61171	His return date is unclear.	His return date is unclear.	2911539	1471994043088	1471994043328	SHIFT	16
5683	61171	His return date is unclear.	His return date is unclear.	2911541	1471994043280	1471994043344	H	72
5683	61171	His return date is unclear.	His return date is unclear.	2911545	1471994043376	1471994043488	i	73
5683	61171	His return date is unclear.	His return date is unclear.	2911549	1471994043488	1471994043552	s	83
5683	61171	His return date is unclear.	His return date is unclear.	2911555	1471994043616	1471994043672	 	32
5683	61171	His return date is unclear.	His return date is unclear.	2911560	1471994043784	1471994043856	r	82
5683	61171	His return date is unclear.	His return date is unclear.	2911589	1471994043936	1471994044008	e	69
5683	61171	His return date is unclear.	His return date is unclear.	2911594	1471994044128	1471994044184	t	84
5683	61171	His return date is unclear.	His return date is unclear.	2911597	1471994044312	1471994044400	u	85
5683	61171	His return date is unclear.	His return date is unclear.	2911599	1471994044440	1471994044536	r	82
5683	61171	His return date is unclear.	His return date is unclear.	2911601	1471994044744	1471994044816	n	78
5683	61171	His return date is unclear.	His return date is unclear.	2911626	1471994044896	1471994044976	 	32
5683	61171	His return date is unclear.	His return date is unclear.	2911628	1471994045256	1471994045336	d	68
5683	61171	His return date is unclear.	His return date is unclear.	2911632	1471994045336	1471994045424	a	65
5683	61171	His return date is unclear.	His return date is unclear.	2911634	1471994045496	1471994045552	t	84
5683	61171	His return date is unclear.	His return date is unclear.	2911638	1471994045800	1471994045864	e	69
5683	61171	His return date is unclear.	His return date is unclear.	2911648	1471994045888	1471994045968	 	32
5683	61171	His return date is unclear.	His return date is unclear.	2911651	1471994046024	1471994046096	i	73
5683	61171	His return date is unclear.	His return date is unclear.	2911652	1471994046128	1471994046192	s	83
5683	61171	His return date is unclear.	His return date is unclear.	2911656	1471994046232	1471994046304	 	32
5683	61171	His return date is unclear.	His return date is unclear.	2911660	1471994046512	1471994046568	u	85
5683	61171	His return date is unclear.	His return date is unclear.	2911711	1471994046640	1471994046720	n	78
5683	61171	His return date is unclear.	His return date is unclear.	2911714	1471994047096	1471994047160	c	67
5683	61171	His return date is unclear.	His return date is unclear.	2911716	1471994047248	1471994047304	l	76
5683	61171	His return date is unclear.	His return date is unclear.	2911719	1471994047423	1471994047488	e	69
5683	61171	His return date is unclear.	His return date is unclear.	2911724	1471994047624	1471994047704	a	65
5683	61171	His return date is unclear.	His return date is unclear.	2911771	1471994047848	1471994047929	r	82
5683	61171	His return date is unclear.	His return date is unclear.	2911772	1471994048328	1471994048391	.	190
5683	61179	I can be there within the hour.	I vcan be there within the hour.	2911953	1471994053423	1471994053687	SHIFT	16
5683	61179	I can be there within the hour.	I vcan be there within the hour.	2911955	1471994053615	1471994053688	I	73
5683	61179	I can be there within the hour.	I vcan be there within the hour.	2911957	1471994053775	1471994053831	v	32
5683	61179	I can be there within the hour.	I vcan be there within the hour.	2911961	1471994053903	1471994053967	c	67
5683	61179	I can be there within the hour.	I vcan be there within the hour.	2911964	1471994053991	1471994054047	a	65
5683	61179	I can be there within the hour.	I vcan be there within the hour.	2911976	1471994054095	1471994054151	n	78
5683	61179	I can be there within the hour.	I vcan be there within the hour.	2911978	1471994054223	1471994054287	 	32
5683	61179	I can be there within the hour.	I vcan be there within the hour.	2911979	1471994054351	1471994054431	b	66
5683	61179	I can be there within the hour.	I vcan be there within the hour.	2911980	1471994054455	1471994054495	e	69
5683	61179	I can be there within the hour.	I vcan be there within the hour.	2911981	1471994054567	1471994054631	 	32
5683	61179	I can be there within the hour.	I vcan be there within the hour.	2911989	1471994054735	1471994054791	t	84
5683	61179	I can be there within the hour.	I vcan be there within the hour.	2911991	1471994054847	1471994054943	h	72
5683	61179	I can be there within the hour.	I vcan be there within the hour.	2911993	1471994054919	1471994054999	e	69
5683	61179	I can be there within the hour.	I vcan be there within the hour.	2911996	1471994055087	1471994055167	r	82
5683	61179	I can be there within the hour.	I vcan be there within the hour.	2912000	1471994055239	1471994055303	e	69
5683	61179	I can be there within the hour.	I vcan be there within the hour.	2912049	1471994055391	1471994055479	 	32
5683	61179	I can be there within the hour.	I vcan be there within the hour.	2912054	1471994055759	1471994055823	w	87
5683	61179	I can be there within the hour.	I vcan be there within the hour.	2912059	1471994055895	1471994055967	i	73
5683	61179	I can be there within the hour.	I vcan be there within the hour.	2912062	1471994056111	1471994056175	t	84
5683	61179	I can be there within the hour.	I vcan be there within the hour.	2912066	1471994056247	1471994056327	h	72
5683	61179	I can be there within the hour.	I vcan be there within the hour.	2912098	1471994056359	1471994056455	i	73
5683	61179	I can be there within the hour.	I vcan be there within the hour.	2912103	1471994056511	1471994056591	n	78
5683	61179	I can be there within the hour.	I vcan be there within the hour.	2912109	1471994056671	1471994056751	 	32
5683	61179	I can be there within the hour.	I vcan be there within the hour.	2912115	1471994057055	1471994057119	t	84
5683	61179	I can be there within the hour.	I vcan be there within the hour.	2912119	1471994057183	1471994057271	h	72
5683	61179	I can be there within the hour.	I vcan be there within the hour.	2912133	1471994057273	1471994057327	e	69
5683	61179	I can be there within the hour.	I vcan be there within the hour.	2912136	1471994057415	1471994057479	 	32
5683	61179	I can be there within the hour.	I vcan be there within the hour.	2912140	1471994057743	1471994057815	h	72
5683	61179	I can be there within the hour.	I vcan be there within the hour.	2912145	1471994057839	1471994058007	o	79
5683	61179	I can be there within the hour.	I vcan be there within the hour.	2912178	1471994057983	1471994058071	u	85
5683	61179	I can be there within the hour.	I vcan be there within the hour.	2912181	1471994058375	1471994058463	r	82
5683	61179	I can be there within the hour.	I vcan be there within the hour.	2912185	1471994058623	1471994058711	.	190
5683	61187	I didn t mean to get you so bent out of shape.	I didn t mean to get you so bent out of shape.	2912444	1471994064998	1471994065270	SHIFT	16
5683	61187	I didn t mean to get you so bent out of shape.	I didn t mean to get you so bent out of shape.	2912448	1471994065206	1471994065271	I	73
5683	61187	I didn t mean to get you so bent out of shape.	I didn t mean to get you so bent out of shape.	2912449	1471994065382	1471994065478	 	32
5683	61187	I didn t mean to get you so bent out of shape.	I didn t mean to get you so bent out of shape.	2912450	1471994065678	1471994065782	d	68
5683	61187	I didn t mean to get you so bent out of shape.	I didn t mean to get you so bent out of shape.	2912451	1471994065838	1471994065894	i	73
5683	61187	I didn t mean to get you so bent out of shape.	I didn t mean to get you so bent out of shape.	2912452	1471994065982	1471994066054	n	78
5683	61187	I didn t mean to get you so bent out of shape.	I didn t mean to get you so bent out of shape.	2912649	1471994066582	1471994066638	BKSP	8
5683	61187	I didn t mean to get you so bent out of shape.	I didn t mean to get you so bent out of shape.	2912650	1471994066694	1471994066766	d	68
5683	61187	I didn t mean to get you so bent out of shape.	I didn t mean to get you so bent out of shape.	2912651	1471994068166	1471994068190	n	78
5683	61187	I didn t mean to get you so bent out of shape.	I didn t mean to get you so bent out of shape.	2912653	1471994070102	1471994070174	 	32
5683	61187	I didn t mean to get you so bent out of shape.	I didn t mean to get you so bent out of shape.	2912655	1471994070822	1471994070886	t	84
5683	61187	I didn t mean to get you so bent out of shape.	I didn t mean to get you so bent out of shape.	2912658	1471994070998	1471994071046	 	32
5683	61187	I didn t mean to get you so bent out of shape.	I didn t mean to get you so bent out of shape.	2912695	1471994071142	1471994071214	m	77
5683	61187	I didn t mean to get you so bent out of shape.	I didn t mean to get you so bent out of shape.	2912697	1471994071318	1471994071374	e	69
5683	61187	I didn t mean to get you so bent out of shape.	I didn t mean to get you so bent out of shape.	2912699	1471994071494	1471994071582	a	65
5683	61187	I didn t mean to get you so bent out of shape.	I didn t mean to get you so bent out of shape.	2912701	1471994071694	1471994071750	n	78
5683	61187	I didn t mean to get you so bent out of shape.	I didn t mean to get you so bent out of shape.	2912702	1471994071966	1471994072078	 	32
5683	61187	I didn t mean to get you so bent out of shape.	I didn t mean to get you so bent out of shape.	2912715	1471994072190	1471994072254	t	84
5683	61187	I didn t mean to get you so bent out of shape.	I didn t mean to get you so bent out of shape.	2912721	1471994072318	1471994072406	o	79
5683	61187	I didn t mean to get you so bent out of shape.	I didn t mean to get you so bent out of shape.	2912726	1471994072486	1471994072542	 	32
5683	61187	I didn t mean to get you so bent out of shape.	I didn t mean to get you so bent out of shape.	2912731	1471994072622	1471994072694	g	71
5683	61187	I didn t mean to get you so bent out of shape.	I didn t mean to get you so bent out of shape.	2912736	1471994072750	1471994072798	e	69
5683	61187	I didn t mean to get you so bent out of shape.	I didn t mean to get you so bent out of shape.	2912752	1471994072854	1471994072902	t	84
5683	61187	I didn t mean to get you so bent out of shape.	I didn t mean to get you so bent out of shape.	2912754	1471994073030	1471994073078	 	32
5683	61187	I didn t mean to get you so bent out of shape.	I didn t mean to get you so bent out of shape.	2912758	1471994073182	1471994073238	y	89
5683	61187	I didn t mean to get you so bent out of shape.	I didn t mean to get you so bent out of shape.	2912764	1471994073278	1471994073366	o	79
5683	61187	I didn t mean to get you so bent out of shape.	I didn t mean to get you so bent out of shape.	2912814	1471994073334	1471994073406	u	85
5683	61187	I didn t mean to get you so bent out of shape.	I didn t mean to get you so bent out of shape.	2912815	1471994073638	1471994073710	 	32
5683	61187	I didn t mean to get you so bent out of shape.	I didn t mean to get you so bent out of shape.	2912816	1471994073798	1471994073854	w	87
5683	61187	I didn t mean to get you so bent out of shape.	I didn t mean to get you so bent out of shape.	2912817	1471994074334	1471994074390	BKSP	8
5683	61187	I didn t mean to get you so bent out of shape.	I didn t mean to get you so bent out of shape.	2912819	1471994074438	1471994074518	s	83
5683	61187	I didn t mean to get you so bent out of shape.	I didn t mean to get you so bent out of shape.	2912821	1471994074638	1471994074702	o	79
5683	61187	I didn t mean to get you so bent out of shape.	I didn t mean to get you so bent out of shape.	2912824	1471994074838	1471994074902	 	32
5683	61187	I didn t mean to get you so bent out of shape.	I didn t mean to get you so bent out of shape.	2912887	1471994075446	1471994075510	b	66
5683	61187	I didn t mean to get you so bent out of shape.	I didn t mean to get you so bent out of shape.	2912891	1471994075542	1471994075606	e	69
5683	61187	I didn t mean to get you so bent out of shape.	I didn t mean to get you so bent out of shape.	2912895	1471994075718	1471994075774	n	78
5683	61187	I didn t mean to get you so bent out of shape.	I didn t mean to get you so bent out of shape.	2912898	1471994075990	1471994076054	t	84
5683	61187	I didn t mean to get you so bent out of shape.	I didn t mean to get you so bent out of shape.	2912900	1471994076166	1471994076230	 	32
5683	61187	I didn t mean to get you so bent out of shape.	I didn t mean to get you so bent out of shape.	2912965	1471994077134	1471994077254	o	79
5683	61187	I didn t mean to get you so bent out of shape.	I didn t mean to get you so bent out of shape.	2912968	1471994077254	1471994077342	u	85
5683	61187	I didn t mean to get you so bent out of shape.	I didn t mean to get you so bent out of shape.	2912972	1471994077486	1471994077542	t	84
5683	61187	I didn t mean to get you so bent out of shape.	I didn t mean to get you so bent out of shape.	2912974	1471994077638	1471994077702	 	32
5683	61187	I didn t mean to get you so bent out of shape.	I didn t mean to get you so bent out of shape.	2912977	1471994077942	1471994078006	o	79
5683	61187	I didn t mean to get you so bent out of shape.	I didn t mean to get you so bent out of shape.	2912996	1471994078030	1471994078126	f	70
5683	61187	I didn t mean to get you so bent out of shape.	I didn t mean to get you so bent out of shape.	2913000	1471994078126	1471994078190	 	32
5683	61187	I didn t mean to get you so bent out of shape.	I didn t mean to get you so bent out of shape.	2913003	1471994078270	1471994078326	t	84
5683	61187	I didn t mean to get you so bent out of shape.	I didn t mean to get you so bent out of shape.	2913007	1471994078381	1471994078454	h	72
5683	61187	I didn t mean to get you so bent out of shape.	I didn t mean to get you so bent out of shape.	2913011	1471994078454	1471994078502	e	69
5683	61187	I didn t mean to get you so bent out of shape.	I didn t mean to get you so bent out of shape.	2913082	1471994078558	1471994078630	 	32
5683	61187	I didn t mean to get you so bent out of shape.	I didn t mean to get you so bent out of shape.	2913085	1471994078750	1471994078822	s	83
5683	61187	I didn t mean to get you so bent out of shape.	I didn t mean to get you so bent out of shape.	2913086	1471994079006	1471994079070	h	72
5683	61187	I didn t mean to get you so bent out of shape.	I didn t mean to get you so bent out of shape.	2913088	1471994079109	1471994079182	a	65
5683	61187	I didn t mean to get you so bent out of shape.	I didn t mean to get you so bent out of shape.	2913089	1471994080301	1471994080405	p	80
5683	61187	I didn t mean to get you so bent out of shape.	I didn t mean to get you so bent out of shape.	2913354	1471994080445	1471994080517	e	69
5683	61187	I didn t mean to get you so bent out of shape.	I didn t mean to get you so bent out of shape.	2913355	1471994086453	1471994086525	BKSP	8
5683	61187	I didn t mean to get you so bent out of shape.	I didn t mean to get you so bent out of shape.	2913357	1471994086605	1471994086661	BKSP	8
5683	61187	I didn t mean to get you so bent out of shape.	I didn t mean to get you so bent out of shape.	2913361	1471994086749	1471994086805	BKSP	8
5683	61187	I didn t mean to get you so bent out of shape.	I didn t mean to get you so bent out of shape.	2913364	1471994086877	1471994086941	BKSP	8
5683	61187	I didn t mean to get you so bent out of shape.	I didn t mean to get you so bent out of shape.	2913367	1471994087013	1471994087069	BKSP	8
5683	61187	I didn t mean to get you so bent out of shape.	I didn t mean to get you so bent out of shape.	2913369	1471994087149	1471994087205	BKSP	8
5683	61187	I didn t mean to get you so bent out of shape.	I didn t mean to get you so bent out of shape.	2913370	1471994087293	1471994087325	BKSP	8
5683	61187	I didn t mean to get you so bent out of shape.	I didn t mean to get you so bent out of shape.	2913371	1471994087405	1471994087469	BKSP	8
5683	61187	I didn t mean to get you so bent out of shape.	I didn t mean to get you so bent out of shape.	2913372	1471994087541	1471994087629	BKSP	8
5683	61187	I didn t mean to get you so bent out of shape.	I didn t mean to get you so bent out of shape.	2913373	1471994087909	1471994087989	s	83
5683	61187	I didn t mean to get you so bent out of shape.	I didn t mean to get you so bent out of shape.	2913374	1471994088077	1471994088133	h	72
5683	61187	I didn t mean to get you so bent out of shape.	I didn t mean to get you so bent out of shape.	2913375	1471994088165	1471994088237	a	65
5683	61187	I didn t mean to get you so bent out of shape.	I didn t mean to get you so bent out of shape.	2913377	1471994088285	1471994088333	r	82
5683	61187	I didn t mean to get you so bent out of shape.	I didn t mean to get you so bent out of shape.	2913433	1471994088621	1471994088685	BKSP	8
5683	61187	I didn t mean to get you so bent out of shape.	I didn t mean to get you so bent out of shape.	2913435	1471994088925	1471994088981	p	80
5683	61187	I didn t mean to get you so bent out of shape.	I didn t mean to get you so bent out of shape.	2913438	1471994089029	1471994089085	e	69
5683	61187	I didn t mean to get you so bent out of shape.	I didn t mean to get you so bent out of shape.	2913441	1471994089645	1471994089701	.	190
5683	61210	Ladies, I am finished with July 01 and everything ties.	ladies, I am finished with July 01 and everything ties.	2913600	1471994093293	1471994093501	SHIFT	16
5683	61210	Ladies, I am finished with July 01 and everything ties.	ladies, I am finished with July 01 and everything ties.	2913602	1471994093501	1471994093541	l	76
5683	61210	Ladies, I am finished with July 01 and everything ties.	ladies, I am finished with July 01 and everything ties.	2913604	1471994093597	1471994093685	a	65
5683	61210	Ladies, I am finished with July 01 and everything ties.	ladies, I am finished with July 01 and everything ties.	2913606	1471994093853	1471994093901	d	68
5683	61210	Ladies, I am finished with July 01 and everything ties.	ladies, I am finished with July 01 and everything ties.	2913609	1471994093989	1471994094053	i	73
5683	61210	Ladies, I am finished with July 01 and everything ties.	ladies, I am finished with July 01 and everything ties.	2913612	1471994094197	1471994094269	e	69
5683	61210	Ladies, I am finished with July 01 and everything ties.	ladies, I am finished with July 01 and everything ties.	2913653	1471994094365	1471994094453	s	83
5683	61210	Ladies, I am finished with July 01 and everything ties.	ladies, I am finished with July 01 and everything ties.	2913655	1471994094661	1471994094724	,	188
5683	61210	Ladies, I am finished with July 01 and everything ties.	ladies, I am finished with July 01 and everything ties.	2913659	1471994094796	1471994094893	 	32
5683	61210	Ladies, I am finished with July 01 and everything ties.	ladies, I am finished with July 01 and everything ties.	2913662	1471994095292	1471994095540	SHIFT	16
5683	61210	Ladies, I am finished with July 01 and everything ties.	ladies, I am finished with July 01 and everything ties.	2913660	1471994095436	1471994095492	I	73
5683	61210	Ladies, I am finished with July 01 and everything ties.	ladies, I am finished with July 01 and everything ties.	2913664	1471994095596	1471994095660	 	32
5683	61210	Ladies, I am finished with July 01 and everything ties.	ladies, I am finished with July 01 and everything ties.	2913695	1471994095716	1471994095812	a	65
5683	61210	Ladies, I am finished with July 01 and everything ties.	ladies, I am finished with July 01 and everything ties.	2913696	1471994095813	1471994095876	m	77
5683	61210	Ladies, I am finished with July 01 and everything ties.	ladies, I am finished with July 01 and everything ties.	2913697	1471994095972	1471994096044	 	32
5683	61210	Ladies, I am finished with July 01 and everything ties.	ladies, I am finished with July 01 and everything ties.	2913698	1471994096524	1471994096596	f	70
5683	61210	Ladies, I am finished with July 01 and everything ties.	ladies, I am finished with July 01 and everything ties.	2913699	1471994096660	1471994096708	i	73
5683	61210	Ladies, I am finished with July 01 and everything ties.	ladies, I am finished with July 01 and everything ties.	2913726	1471994096780	1471994096852	n	78
5683	61210	Ladies, I am finished with July 01 and everything ties.	ladies, I am finished with July 01 and everything ties.	2913727	1471994096892	1471994096996	i	73
5683	61210	Ladies, I am finished with July 01 and everything ties.	ladies, I am finished with July 01 and everything ties.	2913728	1471994097052	1471994097188	s	83
5683	61210	Ladies, I am finished with July 01 and everything ties.	ladies, I am finished with July 01 and everything ties.	2913730	1471994097260	1471994097316	h	72
5683	61210	Ladies, I am finished with July 01 and everything ties.	ladies, I am finished with July 01 and everything ties.	2913731	1471994097412	1471994097500	e	69
5683	61210	Ladies, I am finished with July 01 and everything ties.	ladies, I am finished with July 01 and everything ties.	2913734	1471994097596	1471994097692	d	68
5683	61210	Ladies, I am finished with July 01 and everything ties.	ladies, I am finished with July 01 and everything ties.	2913735	1471994097956	1471994098036	 	32
5683	61210	Ladies, I am finished with July 01 and everything ties.	ladies, I am finished with July 01 and everything ties.	2913736	1471994098100	1471994098156	w	87
5683	61210	Ladies, I am finished with July 01 and everything ties.	ladies, I am finished with July 01 and everything ties.	2913737	1471994098236	1471994098300	i	73
5683	61210	Ladies, I am finished with July 01 and everything ties.	ladies, I am finished with July 01 and everything ties.	2913738	1471994098428	1471994098492	t	84
5683	61210	Ladies, I am finished with July 01 and everything ties.	ladies, I am finished with July 01 and everything ties.	2913756	1471994098564	1471994098620	h	72
5683	61210	Ladies, I am finished with July 01 and everything ties.	ladies, I am finished with July 01 and everything ties.	2913757	1471994098716	1471994098780	 	32
5683	61210	Ladies, I am finished with July 01 and everything ties.	ladies, I am finished with July 01 and everything ties.	2913758	1471994099364	1471994099604	SHIFT	16
5683	61210	Ladies, I am finished with July 01 and everything ties.	ladies, I am finished with July 01 and everything ties.	2913759	1471994099540	1471994099605	J	74
5683	61210	Ladies, I am finished with July 01 and everything ties.	ladies, I am finished with July 01 and everything ties.	2913760	1471994099676	1471994099732	u	85
5683	61210	Ladies, I am finished with July 01 and everything ties.	ladies, I am finished with July 01 and everything ties.	2913761	1471994099916	1471994099972	l	76
5683	61210	Ladies, I am finished with July 01 and everything ties.	ladies, I am finished with July 01 and everything ties.	2913820	1471994100132	1471994100188	y	89
5683	61210	Ladies, I am finished with July 01 and everything ties.	ladies, I am finished with July 01 and everything ties.	2913823	1471994100348	1471994100420	 	32
5683	61210	Ladies, I am finished with July 01 and everything ties.	ladies, I am finished with July 01 and everything ties.	2913825	1471994101556	1471994101628	0	96
5683	61210	Ladies, I am finished with July 01 and everything ties.	ladies, I am finished with July 01 and everything ties.	2913827	1471994101692	1471994101772	1	97
5683	61210	Ladies, I am finished with July 01 and everything ties.	ladies, I am finished with July 01 and everything ties.	2913829	1471994102388	1471994102452	 	32
5683	61210	Ladies, I am finished with July 01 and everything ties.	ladies, I am finished with July 01 and everything ties.	2913878	1471994102540	1471994102620	a	65
5683	61210	Ladies, I am finished with July 01 and everything ties.	ladies, I am finished with July 01 and everything ties.	2913881	1471994102684	1471994102748	n	78
5683	61210	Ladies, I am finished with July 01 and everything ties.	ladies, I am finished with July 01 and everything ties.	2913884	1471994102868	1471994102972	d	68
5683	61210	Ladies, I am finished with July 01 and everything ties.	ladies, I am finished with July 01 and everything ties.	2913886	1471994103068	1471994103148	 	32
5683	61210	Ladies, I am finished with July 01 and everything ties.	ladies, I am finished with July 01 and everything ties.	2913888	1471994103316	1471994103380	e	69
5683	61210	Ladies, I am finished with July 01 and everything ties.	ladies, I am finished with July 01 and everything ties.	2913922	1471994103524	1471994103596	v	86
5683	61210	Ladies, I am finished with July 01 and everything ties.	ladies, I am finished with July 01 and everything ties.	2913926	1471994103652	1471994103716	e	69
5683	61210	Ladies, I am finished with July 01 and everything ties.	ladies, I am finished with July 01 and everything ties.	2913930	1471994103788	1471994103860	r	82
5683	61210	Ladies, I am finished with July 01 and everything ties.	ladies, I am finished with July 01 and everything ties.	2913934	1471994104060	1471994104132	y	89
5683	61210	Ladies, I am finished with July 01 and everything ties.	ladies, I am finished with July 01 and everything ties.	2913937	1471994104500	1471994104572	t	84
5683	61210	Ladies, I am finished with July 01 and everything ties.	ladies, I am finished with July 01 and everything ties.	2913946	1471994104660	1471994104740	h	72
5683	61210	Ladies, I am finished with July 01 and everything ties.	ladies, I am finished with July 01 and everything ties.	2913947	1471994104780	1471994104892	i	73
5683	61210	Ladies, I am finished with July 01 and everything ties.	ladies, I am finished with July 01 and everything ties.	2913948	1471994104948	1471994105012	n	78
5683	61210	Ladies, I am finished with July 01 and everything ties.	ladies, I am finished with July 01 and everything ties.	2913949	1471994105084	1471994105148	g	71
5683	61210	Ladies, I am finished with July 01 and everything ties.	ladies, I am finished with July 01 and everything ties.	2913950	1471994105252	1471994105332	 	32
5683	61210	Ladies, I am finished with July 01 and everything ties.	ladies, I am finished with July 01 and everything ties.	2913993	1471994105956	1471994106020	t	84
5683	61210	Ladies, I am finished with July 01 and everything ties.	ladies, I am finished with July 01 and everything ties.	2913994	1471994106076	1471994106172	i	73
5683	61210	Ladies, I am finished with July 01 and everything ties.	ladies, I am finished with July 01 and everything ties.	2913995	1471994106372	1471994106460	e	69
5683	61210	Ladies, I am finished with July 01 and everything ties.	ladies, I am finished with July 01 and everything ties.	2913996	1471994106580	1471994106660	s	83
5683	61210	Ladies, I am finished with July 01 and everything ties.	ladies, I am finished with July 01 and everything ties.	2913997	1471994106852	1471994106916	.	190
5683	61222	He will be evaluated on a day to day basis.	He will be evaluated on a day to day basis.	2914084	1471994109739	1471994110027	SHIFT	16
5683	61222	He will be evaluated on a day to day basis.	He will be evaluated on a day to day basis.	2914086	1471994110019	1471994110084	H	72
5683	61222	He will be evaluated on a day to day basis.	He will be evaluated on a day to day basis.	2914089	1471994110195	1471994110252	e	69
5683	61222	He will be evaluated on a day to day basis.	He will be evaluated on a day to day basis.	2914091	1471994110283	1471994110356	 	32
5683	61222	He will be evaluated on a day to day basis.	He will be evaluated on a day to day basis.	2914093	1471994110444	1471994110499	w	87
5683	61222	He will be evaluated on a day to day basis.	He will be evaluated on a day to day basis.	2914095	1471994110547	1471994110603	i	73
5683	61222	He will be evaluated on a day to day basis.	He will be evaluated on a day to day basis.	2914110	1471994110707	1471994110755	l	76
5683	61222	He will be evaluated on a day to day basis.	He will be evaluated on a day to day basis.	2914111	1471994110819	1471994110883	l	76
5683	61222	He will be evaluated on a day to day basis.	He will be evaluated on a day to day basis.	2914112	1471994110979	1471994111051	 	32
5683	61222	He will be evaluated on a day to day basis.	He will be evaluated on a day to day basis.	2914113	1471994111107	1471994111179	b	66
5683	61222	He will be evaluated on a day to day basis.	He will be evaluated on a day to day basis.	2914115	1471994111227	1471994111275	e	69
5683	61222	He will be evaluated on a day to day basis.	He will be evaluated on a day to day basis.	2914156	1471994111315	1471994111387	 	32
5683	61222	He will be evaluated on a day to day basis.	He will be evaluated on a day to day basis.	2914159	1471994111859	1471994111939	e	69
5683	61222	He will be evaluated on a day to day basis.	He will be evaluated on a day to day basis.	2914161	1471994112099	1471994112171	v	86
5683	61222	He will be evaluated on a day to day basis.	He will be evaluated on a day to day basis.	2914162	1471994112211	1471994112275	a	65
5683	61222	He will be evaluated on a day to day basis.	He will be evaluated on a day to day basis.	2914163	1471994112387	1471994112467	l	76
5683	61222	He will be evaluated on a day to day basis.	He will be evaluated on a day to day basis.	2914173	1471994112643	1471994112707	u	85
5683	61222	He will be evaluated on a day to day basis.	He will be evaluated on a day to day basis.	2914175	1471994113019	1471994113091	a	65
5683	61222	He will be evaluated on a day to day basis.	He will be evaluated on a day to day basis.	2914177	1471994113371	1471994113429	t	84
5683	61222	He will be evaluated on a day to day basis.	He will be evaluated on a day to day basis.	2914178	1471994113515	1471994113587	e	69
5683	61222	He will be evaluated on a day to day basis.	He will be evaluated on a day to day basis.	2914179	1471994113683	1471994113747	d	68
5683	61222	He will be evaluated on a day to day basis.	He will be evaluated on a day to day basis.	2914217	1471994114243	1471994114315	 	32
5683	61222	He will be evaluated on a day to day basis.	He will be evaluated on a day to day basis.	2914218	1471994114403	1471994114499	a	65
5683	61222	He will be evaluated on a day to day basis.	He will be evaluated on a day to day basis.	2914220	1471994114779	1471994114827	BKSP	8
5683	61222	He will be evaluated on a day to day basis.	He will be evaluated on a day to day basis.	2914222	1471994115099	1471994115179	o	79
5683	61222	He will be evaluated on a day to day basis.	He will be evaluated on a day to day basis.	2914224	1471994115227	1471994115316	n	78
5683	61222	He will be evaluated on a day to day basis.	He will be evaluated on a day to day basis.	2914228	1471994115411	1471994115491	 	32
5683	61222	He will be evaluated on a day to day basis.	He will be evaluated on a day to day basis.	2914254	1471994115571	1471994115643	a	65
5683	61222	He will be evaluated on a day to day basis.	He will be evaluated on a day to day basis.	2914255	1471994115731	1471994115779	 	32
5683	61222	He will be evaluated on a day to day basis.	He will be evaluated on a day to day basis.	2914256	1471994116139	1471994116203	d	68
5683	61222	He will be evaluated on a day to day basis.	He will be evaluated on a day to day basis.	2914257	1471994116243	1471994116315	a	65
5683	61222	He will be evaluated on a day to day basis.	He will be evaluated on a day to day basis.	2914258	1471994116635	1471994116683	y	89
5683	61222	He will be evaluated on a day to day basis.	He will be evaluated on a day to day basis.	2914269	1471994117067	1471994117115	 	32
5683	61222	He will be evaluated on a day to day basis.	He will be evaluated on a day to day basis.	2914270	1471994117235	1471994117307	r	84
5683	61222	He will be evaluated on a day to day basis.	He will be evaluated on a day to day basis.	2914312	1471994117371	1471994117443	o	73
5683	61222	He will be evaluated on a day to day basis.	He will be evaluated on a day to day basis.	2914313	1471994117547	1471994117571	 	32
5683	61222	He will be evaluated on a day to day basis.	He will be evaluated on a day to day basis.	2914314	1471994117763	1471994117835	BKSP	8
5683	61222	He will be evaluated on a day to day basis.	He will be evaluated on a day to day basis.	2914315	1471994117907	1471994117971	BKSP	8
5683	61222	He will be evaluated on a day to day basis.	He will be evaluated on a day to day basis.	2914316	1471994118043	1471994118099	BKSP	8
5683	61222	He will be evaluated on a day to day basis.	He will be evaluated on a day to day basis.	2914317	1471994118211	1471994118267	BKSP	8
5683	61222	He will be evaluated on a day to day basis.	He will be evaluated on a day to day basis.	2914318	1471994118731	1471994118795	o	79
5683	61222	He will be evaluated on a day to day basis.	He will be evaluated on a day to day basis.	2914319	1471994118923	1471994118987	 	32
5683	61222	He will be evaluated on a day to day basis.	He will be evaluated on a day to day basis.	2914320	1471994119235	1471994119291	d	68
5683	61222	He will be evaluated on a day to day basis.	He will be evaluated on a day to day basis.	2914321	1471994119323	1471994119395	a	65
5683	61222	He will be evaluated on a day to day basis.	He will be evaluated on a day to day basis.	2914327	1471994119539	1471994119595	y	89
5683	61222	He will be evaluated on a day to day basis.	He will be evaluated on a day to day basis.	2914328	1471994119723	1471994119779	 	32
5683	61222	He will be evaluated on a day to day basis.	He will be evaluated on a day to day basis.	2914329	1471994119875	1471994119939	b	66
5683	61222	He will be evaluated on a day to day basis.	He will be evaluated on a day to day basis.	2914330	1471994119979	1471994120067	a	65
5683	61222	He will be evaluated on a day to day basis.	He will be evaluated on a day to day basis.	2914331	1471994120163	1471994120243	s	83
5683	61222	He will be evaluated on a day to day basis.	He will be evaluated on a day to day basis.	2914368	1471994120939	1471994121003	i	73
5683	61222	He will be evaluated on a day to day basis.	He will be evaluated on a day to day basis.	2914371	1471994121107	1471994121179	s	83
5683	61222	He will be evaluated on a day to day basis.	He will be evaluated on a day to day basis.	2914374	1471994121451	1471994121523	.	190
5683	61231	Rumors have him scheduled to attend at least part of the Pacers' game.	Rumors have him scheduled to attend at least part of the Pacers' game.	2914513	1471994127002	1471994127298	SHIFT	16
5683	61231	Rumors have him scheduled to attend at least part of the Pacers' game.	Rumors have him scheduled to attend at least part of the Pacers' game.	2914510	1471994127218	1471994127274	R	82
5683	61231	Rumors have him scheduled to attend at least part of the Pacers' game.	Rumors have him scheduled to attend at least part of the Pacers' game.	2914517	1471994127490	1471994127546	u	85
5683	61231	Rumors have him scheduled to attend at least part of the Pacers' game.	Rumors have him scheduled to attend at least part of the Pacers' game.	2914521	1471994127842	1471994127922	m	77
5683	61231	Rumors have him scheduled to attend at least part of the Pacers' game.	Rumors have him scheduled to attend at least part of the Pacers' game.	2914523	1471994127978	1471994128066	o	79
5683	61231	Rumors have him scheduled to attend at least part of the Pacers' game.	Rumors have him scheduled to attend at least part of the Pacers' game.	2914524	1471994128474	1471994128538	r	82
5683	61231	Rumors have him scheduled to attend at least part of the Pacers' game.	Rumors have him scheduled to attend at least part of the Pacers' game.	2914541	1471994128714	1471994128786	s	83
5683	61231	Rumors have him scheduled to attend at least part of the Pacers' game.	Rumors have him scheduled to attend at least part of the Pacers' game.	2914544	1471994128874	1471994128938	 	32
5683	61231	Rumors have him scheduled to attend at least part of the Pacers' game.	Rumors have him scheduled to attend at least part of the Pacers' game.	2914547	1471994129010	1471994129074	h	72
5683	61231	Rumors have him scheduled to attend at least part of the Pacers' game.	Rumors have him scheduled to attend at least part of the Pacers' game.	2914549	1471994129114	1471994129186	a	65
5683	61231	Rumors have him scheduled to attend at least part of the Pacers' game.	Rumors have him scheduled to attend at least part of the Pacers' game.	2914551	1471994129258	1471994129314	v	86
5683	61231	Rumors have him scheduled to attend at least part of the Pacers' game.	Rumors have him scheduled to attend at least part of the Pacers' game.	2914562	1471994129378	1471994129426	e	69
5683	61231	Rumors have him scheduled to attend at least part of the Pacers' game.	Rumors have him scheduled to attend at least part of the Pacers' game.	2914563	1471994129474	1471994129522	 	32
5683	61231	Rumors have him scheduled to attend at least part of the Pacers' game.	Rumors have him scheduled to attend at least part of the Pacers' game.	2914564	1471994129786	1471994129842	h	72
5683	61231	Rumors have him scheduled to attend at least part of the Pacers' game.	Rumors have him scheduled to attend at least part of the Pacers' game.	2914565	1471994129866	1471994129978	i	73
5683	61231	Rumors have him scheduled to attend at least part of the Pacers' game.	Rumors have him scheduled to attend at least part of the Pacers' game.	2914566	1471994130066	1471994130154	m	77
5683	61231	Rumors have him scheduled to attend at least part of the Pacers' game.	Rumors have him scheduled to attend at least part of the Pacers' game.	2914598	1471994130234	1471994130330	s	83
5683	61231	Rumors have him scheduled to attend at least part of the Pacers' game.	Rumors have him scheduled to attend at least part of the Pacers' game.	2914600	1471994130418	1471994130490	 	32
5683	61231	Rumors have him scheduled to attend at least part of the Pacers' game.	Rumors have him scheduled to attend at least part of the Pacers' game.	2914603	1471994130882	1471994130930	BKSP	8
5683	61231	Rumors have him scheduled to attend at least part of the Pacers' game.	Rumors have him scheduled to attend at least part of the Pacers' game.	2914608	1471994131018	1471994131090	BKSP	8
5683	61231	Rumors have him scheduled to attend at least part of the Pacers' game.	Rumors have him scheduled to attend at least part of the Pacers' game.	2914611	1471994131690	1471994131762	 	32
5683	61231	Rumors have him scheduled to attend at least part of the Pacers' game.	Rumors have him scheduled to attend at least part of the Pacers' game.	2914615	1471994131802	1471994131874	s	83
5683	61231	Rumors have him scheduled to attend at least part of the Pacers' game.	Rumors have him scheduled to attend at least part of the Pacers' game.	2914618	1471994132298	1471994132354	c	67
5683	61231	Rumors have him scheduled to attend at least part of the Pacers' game.	Rumors have him scheduled to attend at least part of the Pacers' game.	2914640	1471994132554	1471994132602	h	72
5683	61231	Rumors have him scheduled to attend at least part of the Pacers' game.	Rumors have him scheduled to attend at least part of the Pacers' game.	2914642	1471994132706	1471994132770	e	69
5683	61231	Rumors have him scheduled to attend at least part of the Pacers' game.	Rumors have him scheduled to attend at least part of the Pacers' game.	2914644	1471994132954	1471994133018	d	68
5683	61231	Rumors have him scheduled to attend at least part of the Pacers' game.	Rumors have him scheduled to attend at least part of the Pacers' game.	2914646	1471994133130	1471994133194	u	85
5683	61231	Rumors have him scheduled to attend at least part of the Pacers' game.	Rumors have him scheduled to attend at least part of the Pacers' game.	2914648	1471994133434	1471994133506	l	76
5683	61231	Rumors have him scheduled to attend at least part of the Pacers' game.	Rumors have him scheduled to attend at least part of the Pacers' game.	2914665	1471994133602	1471994133682	e	69
5683	61231	Rumors have him scheduled to attend at least part of the Pacers' game.	Rumors have him scheduled to attend at least part of the Pacers' game.	2914666	1471994133802	1471994133914	d	68
5683	61231	Rumors have him scheduled to attend at least part of the Pacers' game.	Rumors have him scheduled to attend at least part of the Pacers' game.	2914667	1471994134298	1471994134378	 	32
5683	61231	Rumors have him scheduled to attend at least part of the Pacers' game.	Rumors have him scheduled to attend at least part of the Pacers' game.	2914669	1471994134578	1471994134666	t	84
5683	61231	Rumors have him scheduled to attend at least part of the Pacers' game.	Rumors have him scheduled to attend at least part of the Pacers' game.	2914672	1471994134722	1471994134794	o	79
5683	61231	Rumors have him scheduled to attend at least part of the Pacers' game.	Rumors have him scheduled to attend at least part of the Pacers' game.	2914700	1471994134906	1471994134978	 	32
5683	61231	Rumors have him scheduled to attend at least part of the Pacers' game.	Rumors have him scheduled to attend at least part of the Pacers' game.	2914702	1471994135090	1471994135170	a	65
5683	61231	Rumors have him scheduled to attend at least part of the Pacers' game.	Rumors have him scheduled to attend at least part of the Pacers' game.	2914707	1471994135498	1471994135554	t	84
5683	61231	Rumors have him scheduled to attend at least part of the Pacers' game.	Rumors have him scheduled to attend at least part of the Pacers' game.	2914711	1471994135626	1471994135698	t	84
5683	61231	Rumors have him scheduled to attend at least part of the Pacers' game.	Rumors have him scheduled to attend at least part of the Pacers' game.	2914715	1471994135738	1471994135866	e	69
5683	61231	Rumors have him scheduled to attend at least part of the Pacers' game.	Rumors have him scheduled to attend at least part of the Pacers' game.	2914750	1471994136386	1471994136434	n	78
5683	61231	Rumors have him scheduled to attend at least part of the Pacers' game.	Rumors have him scheduled to attend at least part of the Pacers' game.	2914751	1471994136514	1471994136586	d	68
5683	61231	Rumors have him scheduled to attend at least part of the Pacers' game.	Rumors have him scheduled to attend at least part of the Pacers' game.	2914752	1471994137186	1471994137266	 	32
5683	61231	Rumors have him scheduled to attend at least part of the Pacers' game.	Rumors have him scheduled to attend at least part of the Pacers' game.	2914753	1471994137354	1471994137426	a	65
5683	61231	Rumors have him scheduled to attend at least part of the Pacers' game.	Rumors have him scheduled to attend at least part of the Pacers' game.	2914754	1471994137506	1471994137562	t	84
5683	61231	Rumors have him scheduled to attend at least part of the Pacers' game.	Rumors have him scheduled to attend at least part of the Pacers' game.	2914772	1471994137674	1471994137738	 	32
5683	61231	Rumors have him scheduled to attend at least part of the Pacers' game.	Rumors have him scheduled to attend at least part of the Pacers' game.	2914775	1471994137842	1471994137906	l	76
5683	61231	Rumors have him scheduled to attend at least part of the Pacers' game.	Rumors have him scheduled to attend at least part of the Pacers' game.	2914778	1471994137986	1471994138058	e	69
5683	61231	Rumors have him scheduled to attend at least part of the Pacers' game.	Rumors have him scheduled to attend at least part of the Pacers' game.	2914781	1471994138202	1471994138274	a	65
5683	61231	Rumors have him scheduled to attend at least part of the Pacers' game.	Rumors have him scheduled to attend at least part of the Pacers' game.	2914784	1471994138442	1471994138546	s	83
5683	61231	Rumors have him scheduled to attend at least part of the Pacers' game.	Rumors have him scheduled to attend at least part of the Pacers' game.	2914791	1471994138650	1471994138706	t	84
5683	61231	Rumors have him scheduled to attend at least part of the Pacers' game.	Rumors have him scheduled to attend at least part of the Pacers' game.	2914793	1471994138858	1471994138922	 	32
5683	61231	Rumors have him scheduled to attend at least part of the Pacers' game.	Rumors have him scheduled to attend at least part of the Pacers' game.	2914796	1471994139394	1471994139434	o	80
5683	61231	Rumors have him scheduled to attend at least part of the Pacers' game.	Rumors have him scheduled to attend at least part of the Pacers' game.	2914799	1471994139498	1471994139610	a	65
5683	61231	Rumors have him scheduled to attend at least part of the Pacers' game.	Rumors have him scheduled to attend at least part of the Pacers' game.	2914828	1471994139786	1471994139858	r	82
5683	61231	Rumors have him scheduled to attend at least part of the Pacers' game.	Rumors have him scheduled to attend at least part of the Pacers' game.	2914830	1471994139930	1471994139986	t	84
5683	61231	Rumors have him scheduled to attend at least part of the Pacers' game.	Rumors have him scheduled to attend at least part of the Pacers' game.	2914832	1471994140346	1471994140402	BKSP	8
5683	61231	Rumors have him scheduled to attend at least part of the Pacers' game.	Rumors have him scheduled to attend at least part of the Pacers' game.	2914837	1471994140482	1471994140538	BKSP	8
5683	61231	Rumors have him scheduled to attend at least part of the Pacers' game.	Rumors have him scheduled to attend at least part of the Pacers' game.	2914841	1471994140609	1471994140658	BKSP	8
5683	61231	Rumors have him scheduled to attend at least part of the Pacers' game.	Rumors have him scheduled to attend at least part of the Pacers' game.	2914844	1471994140737	1471994140834	BKSP	8
5683	61231	Rumors have him scheduled to attend at least part of the Pacers' game.	Rumors have him scheduled to attend at least part of the Pacers' game.	2914849	1471994140953	1471994141026	a	65
5683	61231	Rumors have him scheduled to attend at least part of the Pacers' game.	Rumors have him scheduled to attend at least part of the Pacers' game.	2914851	1471994141594	1471994141657	r	82
5683	61231	Rumors have him scheduled to attend at least part of the Pacers' game.	Rumors have him scheduled to attend at least part of the Pacers' game.	2914853	1471994141721	1471994141777	t	84
5683	61231	Rumors have him scheduled to attend at least part of the Pacers' game.	Rumors have him scheduled to attend at least part of the Pacers' game.	2914857	1471994141882	1471994141937	 	32
5683	61231	Rumors have him scheduled to attend at least part of the Pacers' game.	Rumors have him scheduled to attend at least part of the Pacers' game.	2914858	1471994142025	1471994142097	o	79
5683	61231	Rumors have him scheduled to attend at least part of the Pacers' game.	Rumors have him scheduled to attend at least part of the Pacers' game.	2914859	1471994142065	1471994142137	f	70
5683	61231	Rumors have him scheduled to attend at least part of the Pacers' game.	Rumors have him scheduled to attend at least part of the Pacers' game.	2914860	1471994142217	1471994142273	 	32
5683	61231	Rumors have him scheduled to attend at least part of the Pacers' game.	Rumors have him scheduled to attend at least part of the Pacers' game.	2914861	1471994142401	1471994142481	t	84
5683	61231	Rumors have him scheduled to attend at least part of the Pacers' game.	Rumors have him scheduled to attend at least part of the Pacers' game.	2914895	1471994142561	1471994142625	h	72
5683	61231	Rumors have him scheduled to attend at least part of the Pacers' game.	Rumors have him scheduled to attend at least part of the Pacers' game.	2914896	1471994142889	1471994142945	BKSP	8
5683	61231	Rumors have him scheduled to attend at least part of the Pacers' game.	Rumors have him scheduled to attend at least part of the Pacers' game.	2914897	1471994143627	1471994143681	h	72
5683	61231	Rumors have him scheduled to attend at least part of the Pacers' game.	Rumors have him scheduled to attend at least part of the Pacers' game.	2914898	1471994143721	1471994143777	e	69
5683	61231	Rumors have him scheduled to attend at least part of the Pacers' game.	Rumors have him scheduled to attend at least part of the Pacers' game.	2914899	1471994143849	1471994143937	 	32
5683	61231	Rumors have him scheduled to attend at least part of the Pacers' game.	Rumors have him scheduled to attend at least part of the Pacers' game.	2914900	1471994144601	1471994144929	SHIFT	16
5683	61231	Rumors have him scheduled to attend at least part of the Pacers' game.	Rumors have him scheduled to attend at least part of the Pacers' game.	2914953	1471994144857	1471994144932	P	80
5683	61231	Rumors have him scheduled to attend at least part of the Pacers' game.	Rumors have him scheduled to attend at least part of the Pacers' game.	2914955	1471994145049	1471994145137	a	65
5683	61231	Rumors have him scheduled to attend at least part of the Pacers' game.	Rumors have him scheduled to attend at least part of the Pacers' game.	2914957	1471994145513	1471994145593	c	67
5683	61231	Rumors have him scheduled to attend at least part of the Pacers' game.	Rumors have him scheduled to attend at least part of the Pacers' game.	2914959	1471994145697	1471994145777	e	69
5683	61231	Rumors have him scheduled to attend at least part of the Pacers' game.	Rumors have him scheduled to attend at least part of the Pacers' game.	2914961	1471994146153	1471994146209	r	82
5683	61231	Rumors have him scheduled to attend at least part of the Pacers' game.	Rumors have him scheduled to attend at least part of the Pacers' game.	2914963	1471994148785	1471994148865	s	83
5683	61231	Rumors have him scheduled to attend at least part of the Pacers' game.	Rumors have him scheduled to attend at least part of the Pacers' game.	2914990	1471994149257	1471994149281	'	222
5683	61231	Rumors have him scheduled to attend at least part of the Pacers' game.	Rumors have him scheduled to attend at least part of the Pacers' game.	2914991	1471994149689	1471994149761	 	32
5683	61231	Rumors have him scheduled to attend at least part of the Pacers' game.	Rumors have him scheduled to attend at least part of the Pacers' game.	2914992	1471994150425	1471994150497	g	71
5683	61231	Rumors have him scheduled to attend at least part of the Pacers' game.	Rumors have him scheduled to attend at least part of the Pacers' game.	2914994	1471994150497	1471994150601	a	65
5683	61231	Rumors have him scheduled to attend at least part of the Pacers' game.	Rumors have him scheduled to attend at least part of the Pacers' game.	2914996	1471994150697	1471994150737	m	77
5683	61231	Rumors have him scheduled to attend at least part of the Pacers' game.	Rumors have him scheduled to attend at least part of the Pacers' game.	2915013	1471994150793	1471994150841	e	69
5683	61231	Rumors have him scheduled to attend at least part of the Pacers' game.	Rumors have him scheduled to attend at least part of the Pacers' game.	2915015	1471994151105	1471994151185	.	190
