PARTICIPANT_ID	TEST_SECTION_ID	SENTENCE	USER_INPUT	KEYSTROKE_ID	PRESS_TIME	RELEASE_TIME	LETTER	KEYCODE
5722	61413	Is this cash coming into TW?	Is this cash coming into TW?	2923693	1471994267125	1471994267285	SHIFT	16
5722	61413	Is this cash coming into TW?	Is this cash coming into TW?	2923694	1471994267255	1471994267359	I	73
5722	61413	Is this cash coming into TW?	Is this cash coming into TW?	2923695	1471994267419	1471994267539	s	83
5722	61413	Is this cash coming into TW?	Is this cash coming into TW?	2923696	1471994267523	1471994267660	 	32
5722	61413	Is this cash coming into TW?	Is this cash coming into TW?	2923697	1471994267749	1471994267866	w	87
5722	61413	Is this cash coming into TW?	Is this cash coming into TW?	2923698	1471994268114	1471994268222	BKSP	8
5722	61413	Is this cash coming into TW?	Is this cash coming into TW?	2923699	1471994268280	1471994268372	t	84
5722	61413	Is this cash coming into TW?	Is this cash coming into TW?	2923712	1471994268398	1471994268525	h	72
5722	61413	Is this cash coming into TW?	Is this cash coming into TW?	2923715	1471994268483	1471994268620	o	79
5722	61413	Is this cash coming into TW?	Is this cash coming into TW?	2923718	1471994268604	1471994268725	s	83
5722	61413	Is this cash coming into TW?	Is this cash coming into TW?	2923721	1471994268731	1471994268852	 	32
5722	61413	Is this cash coming into TW?	Is this cash coming into TW?	2923858	1471994268826	1471994268930	c	67
5722	61413	Is this cash coming into TW?	Is this cash coming into TW?	2923860	1471994269036	1471994269147	a	65
5722	61413	Is this cash coming into TW?	Is this cash coming into TW?	2923863	1471994269209	1471994269320	s	83
5722	61413	Is this cash coming into TW?	Is this cash coming into TW?	2923865	1471994269350	1471994269447	h	72
5722	61413	Is this cash coming into TW?	Is this cash coming into TW?	2923866	1471994269716	1471994269840	 	32
5722	61413	Is this cash coming into TW?	Is this cash coming into TW?	2923867	1471994270491	1471994271906	BKSP	8
5722	61413	Is this cash coming into TW?	Is this cash coming into TW?	2923887	1471994272167	1471994272438	SHIFT	16
5722	61413	Is this cash coming into TW?	Is this cash coming into TW?	2923870	1471994272281	1471994272369	I	73
5722	61413	Is this cash coming into TW?	Is this cash coming into TW?	2923890	1471994272542	1471994272673	s	83
5722	61413	Is this cash coming into TW?	Is this cash coming into TW?	2923892	1471994272673	1471994272804	 	32
5722	61413	Is this cash coming into TW?	Is this cash coming into TW?	2923894	1471994272902	1471994273007	t	84
5722	61413	Is this cash coming into TW?	Is this cash coming into TW?	2923895	1471994272997	1471994273133	h	72
5722	61413	Is this cash coming into TW?	Is this cash coming into TW?	2923927	1471994273101	1471994273242	i	73
5722	61413	Is this cash coming into TW?	Is this cash coming into TW?	2923928	1471994273219	1471994273324	s	83
5722	61413	Is this cash coming into TW?	Is this cash coming into TW?	2923931	1471994273317	1471994273444	 	32
5722	61413	Is this cash coming into TW?	Is this cash coming into TW?	2923934	1471994273398	1471994273506	c	67
5722	61413	Is this cash coming into TW?	Is this cash coming into TW?	2923936	1471994273610	1471994273721	a	65
5722	61413	Is this cash coming into TW?	Is this cash coming into TW?	2923937	1471994273803	1471994273930	s	83
5722	61413	Is this cash coming into TW?	Is this cash coming into TW?	2923962	1471994273921	1471994274021	h	72
5722	61413	Is this cash coming into TW?	Is this cash coming into TW?	2923963	1471994274134	1471994274238	 	32
5722	61413	Is this cash coming into TW?	Is this cash coming into TW?	2923965	1471994274277	1471994274412	c	67
5722	61413	Is this cash coming into TW?	Is this cash coming into TW?	2923967	1471994274356	1471994274451	o	79
5722	61413	Is this cash coming into TW?	Is this cash coming into TW?	2923969	1471994274483	1471994274628	m	77
5722	61413	Is this cash coming into TW?	Is this cash coming into TW?	2923989	1471994274621	1471994274732	i	73
5722	61413	Is this cash coming into TW?	Is this cash coming into TW?	2923991	1471994274742	1471994274856	n	78
5722	61413	Is this cash coming into TW?	Is this cash coming into TW?	2923994	1471994274837	1471994274944	g	71
5722	61413	Is this cash coming into TW?	Is this cash coming into TW?	2923997	1471994274954	1471994275052	 	32
5722	61413	Is this cash coming into TW?	Is this cash coming into TW?	2924000	1471994275089	1471994275180	i	73
5722	61413	Is this cash coming into TW?	Is this cash coming into TW?	2924003	1471994275200	1471994275349	n	78
5722	61413	Is this cash coming into TW?	Is this cash coming into TW?	2924094	1471994275327	1471994275438	t	84
5722	61413	Is this cash coming into TW?	Is this cash coming into TW?	2924097	1471994276412	1471994276513	o	79
5722	61413	Is this cash coming into TW?	Is this cash coming into TW?	2924100	1471994276604	1471994276721	 	32
5722	61413	Is this cash coming into TW?	Is this cash coming into TW?	2924117	1471994276835	1471994277843	SHIFT	16
5722	61413	Is this cash coming into TW?	Is this cash coming into TW?	2924104	1471994277023	1471994277110	T	84
5722	61413	Is this cash coming into TW?	Is this cash coming into TW?	2924105	1471994277294	1471994277372	W	87
5722	61413	Is this cash coming into TW?	Is this cash coming into TW?	2924106	1471994277657	1471994277797	?	191
5722	61432	He said he would learn more about the injury as the week progressed.	He said he would learn more about the injury as the week progressed.	2924448	1471994288297	1471994288489	SHIFT	16
5722	61432	He said he would learn more about the injury as the week progressed.	He said he would learn more about the injury as the week progressed.	2924450	1471994288445	1471994288549	H	72
5722	61432	He said he would learn more about the injury as the week progressed.	He said he would learn more about the injury as the week progressed.	2924455	1471994288634	1471994288693	e	69
5722	61432	He said he would learn more about the injury as the week progressed.	He said he would learn more about the injury as the week progressed.	2924459	1471994288695	1471994288804	 	32
5722	61432	He said he would learn more about the injury as the week progressed.	He said he would learn more about the injury as the week progressed.	2924462	1471994288876	1471994288987	s	83
5722	61432	He said he would learn more about the injury as the week progressed.	He said he would learn more about the injury as the week progressed.	2924465	1471994289052	1471994289212	a	65
5722	61432	He said he would learn more about the injury as the week progressed.	He said he would learn more about the injury as the week progressed.	2924496	1471994289681	1471994289776	i	73
5722	61432	He said he would learn more about the injury as the week progressed.	He said he would learn more about the injury as the week progressed.	2924497	1471994289786	1471994289896	d	68
5722	61432	He said he would learn more about the injury as the week progressed.	He said he would learn more about the injury as the week progressed.	2924498	1471994289906	1471994290030	 	32
5722	61432	He said he would learn more about the injury as the week progressed.	He said he would learn more about the injury as the week progressed.	2924499	1471994290298	1471994290407	h	72
5722	61432	He said he would learn more about the injury as the week progressed.	He said he would learn more about the injury as the week progressed.	2924505	1471994290400	1471994290493	e	69
5722	61432	He said he would learn more about the injury as the week progressed.	He said he would learn more about the injury as the week progressed.	2924507	1471994290496	1471994290609	 	32
5722	61432	He said he would learn more about the injury as the week progressed.	He said he would learn more about the injury as the week progressed.	2924508	1471994290581	1471994290705	w	87
5722	61432	He said he would learn more about the injury as the week progressed.	He said he would learn more about the injury as the week progressed.	2924509	1471994290695	1471994290773	o	79
5722	61432	He said he would learn more about the injury as the week progressed.	He said he would learn more about the injury as the week progressed.	2924510	1471994290843	1471994290934	u	85
5722	61432	He said he would learn more about the injury as the week progressed.	He said he would learn more about the injury as the week progressed.	2924512	1471994291019	1471994291119	l	76
5722	61432	He said he would learn more about the injury as the week progressed.	He said he would learn more about the injury as the week progressed.	2924537	1471994291091	1471994291202	d	68
5722	61432	He said he would learn more about the injury as the week progressed.	He said he would learn more about the injury as the week progressed.	2924539	1471994291196	1471994291293	 	32
5722	61432	He said he would learn more about the injury as the week progressed.	He said he would learn more about the injury as the week progressed.	2924541	1471994291353	1471994291442	l	76
5722	61432	He said he would learn more about the injury as the week progressed.	He said he would learn more about the injury as the week progressed.	2924544	1471994291437	1471994291535	e	69
5722	61432	He said he would learn more about the injury as the week progressed.	He said he would learn more about the injury as the week progressed.	2924548	1471994291629	1471994291769	a	65
5722	61432	He said he would learn more about the injury as the week progressed.	He said he would learn more about the injury as the week progressed.	2924552	1471994291848	1471994291949	r	82
5722	61432	He said he would learn more about the injury as the week progressed.	He said he would learn more about the injury as the week progressed.	2924570	1471994291954	1471994292044	n	78
5722	61432	He said he would learn more about the injury as the week progressed.	He said he would learn more about the injury as the week progressed.	2924572	1471994292113	1471994292204	 	32
5722	61432	He said he would learn more about the injury as the week progressed.	He said he would learn more about the injury as the week progressed.	2924575	1471994292276	1471994292446	m	77
5722	61432	He said he would learn more about the injury as the week progressed.	He said he would learn more about the injury as the week progressed.	2924579	1471994292391	1471994292537	o	79
5722	61432	He said he would learn more about the injury as the week progressed.	He said he would learn more about the injury as the week progressed.	2924614	1471994292485	1471994292592	r	82
5722	61432	He said he would learn more about the injury as the week progressed.	He said he would learn more about the injury as the week progressed.	2924616	1471994292652	1471994292776	e	69
5722	61432	He said he would learn more about the injury as the week progressed.	He said he would learn more about the injury as the week progressed.	2924618	1471994292799	1471994292913	 	32
5722	61432	He said he would learn more about the injury as the week progressed.	He said he would learn more about the injury as the week progressed.	2924620	1471994293227	1471994293368	a	65
5722	61432	He said he would learn more about the injury as the week progressed.	He said he would learn more about the injury as the week progressed.	2924622	1471994293338	1471994293443	b	66
5722	61432	He said he would learn more about the injury as the week progressed.	He said he would learn more about the injury as the week progressed.	2924624	1471994293492	1471994293573	o	79
5722	61432	He said he would learn more about the injury as the week progressed.	He said he would learn more about the injury as the week progressed.	2924629	1471994293657	1471994293751	u	85
5722	61432	He said he would learn more about the injury as the week progressed.	He said he would learn more about the injury as the week progressed.	2924631	1471994293755	1471994293866	t	84
5722	61432	He said he would learn more about the injury as the week progressed.	He said he would learn more about the injury as the week progressed.	2924633	1471994293849	1471994293967	 	32
5722	61432	He said he would learn more about the injury as the week progressed.	He said he would learn more about the injury as the week progressed.	2924634	1471994293961	1471994294075	t	84
5722	61432	He said he would learn more about the injury as the week progressed.	He said he would learn more about the injury as the week progressed.	2924681	1471994294065	1471994294173	h	72
5722	61432	He said he would learn more about the injury as the week progressed.	He said he would learn more about the injury as the week progressed.	2924682	1471994294228	1471994294340	e	69
5722	61432	He said he would learn more about the injury as the week progressed.	He said he would learn more about the injury as the week progressed.	2924683	1471994294317	1471994294429	 	32
5722	61432	He said he would learn more about the injury as the week progressed.	He said he would learn more about the injury as the week progressed.	2924686	1471994294681	1471994294783	i	73
5722	61432	He said he would learn more about the injury as the week progressed.	He said he would learn more about the injury as the week progressed.	2924691	1471994294818	1471994294927	n	78
5722	61432	He said he would learn more about the injury as the week progressed.	He said he would learn more about the injury as the week progressed.	2924696	1471994295019	1471994295124	j	74
5722	61432	He said he would learn more about the injury as the week progressed.	He said he would learn more about the injury as the week progressed.	2924738	1471994295199	1471994295297	u	85
5722	61432	He said he would learn more about the injury as the week progressed.	He said he would learn more about the injury as the week progressed.	2924742	1471994295343	1471994295448	r	82
5722	61432	He said he would learn more about the injury as the week progressed.	He said he would learn more about the injury as the week progressed.	2924747	1471994295500	1471994295627	y	89
5722	61432	He said he would learn more about the injury as the week progressed.	He said he would learn more about the injury as the week progressed.	2924752	1471994296145	1471994296260	 	32
5722	61432	He said he would learn more about the injury as the week progressed.	He said he would learn more about the injury as the week progressed.	2924755	1471994296325	1471994296430	a	65
5722	61432	He said he would learn more about the injury as the week progressed.	He said he would learn more about the injury as the week progressed.	2924765	1471994296489	1471994296606	s	83
5722	61432	He said he would learn more about the injury as the week progressed.	He said he would learn more about the injury as the week progressed.	2924767	1471994296609	1471994296740	 	32
5722	61432	He said he would learn more about the injury as the week progressed.	He said he would learn more about the injury as the week progressed.	2924770	1471994296773	1471994296872	t	84
5722	61432	He said he would learn more about the injury as the week progressed.	He said he would learn more about the injury as the week progressed.	2924773	1471994296861	1471994296959	h	72
5722	61432	He said he would learn more about the injury as the week progressed.	He said he would learn more about the injury as the week progressed.	2924776	1471994296975	1471994297087	e	69
5722	61432	He said he would learn more about the injury as the week progressed.	He said he would learn more about the injury as the week progressed.	2924801	1471994297044	1471994297149	 	32
5722	61432	He said he would learn more about the injury as the week progressed.	He said he would learn more about the injury as the week progressed.	2924805	1471994297221	1471994297338	n	78
5722	61432	He said he would learn more about the injury as the week progressed.	He said he would learn more about the injury as the week progressed.	2924812	1471994297862	1471994297996	BKSP	8
5722	61432	He said he would learn more about the injury as the week progressed.	He said he would learn more about the injury as the week progressed.	2924818	1471994298003	1471994298136	w	87
5722	61432	He said he would learn more about the injury as the week progressed.	He said he would learn more about the injury as the week progressed.	2924822	1471994298192	1471994298290	e	69
5722	61432	He said he would learn more about the injury as the week progressed.	He said he would learn more about the injury as the week progressed.	2924826	1471994298352	1471994298450	e	69
5722	61432	He said he would learn more about the injury as the week progressed.	He said he would learn more about the injury as the week progressed.	2924841	1471994298424	1471994298512	k	75
5722	61432	He said he would learn more about the injury as the week progressed.	He said he would learn more about the injury as the week progressed.	2924842	1471994298552	1471994298675	 	32
5722	61432	He said he would learn more about the injury as the week progressed.	He said he would learn more about the injury as the week progressed.	2924843	1471994298735	1471994298825	p	80
5722	61432	He said he would learn more about the injury as the week progressed.	He said he would learn more about the injury as the week progressed.	2924844	1471994298823	1471994298937	r	82
5722	61432	He said he would learn more about the injury as the week progressed.	He said he would learn more about the injury as the week progressed.	2924845	1471994298940	1471994299038	o	79
5722	61432	He said he would learn more about the injury as the week progressed.	He said he would learn more about the injury as the week progressed.	2924846	1471994299295	1471994299392	f	70
5722	61432	He said he would learn more about the injury as the week progressed.	He said he would learn more about the injury as the week progressed.	2924943	1471994299465	1471994299539	r	82
5722	61432	He said he would learn more about the injury as the week progressed.	He said he would learn more about the injury as the week progressed.	2924946	1471994299626	1471994299744	e	69
5722	61432	He said he would learn more about the injury as the week progressed.	He said he would learn more about the injury as the week progressed.	2924948	1471994299973	1471994300064	BKSP	8
5722	61432	He said he would learn more about the injury as the week progressed.	He said he would learn more about the injury as the week progressed.	2924949	1471994300116	1471994300207	BKSP	8
5722	61432	He said he would learn more about the injury as the week progressed.	He said he would learn more about the injury as the week progressed.	2924950	1471994300256	1471994300351	BKSP	8
5722	61432	He said he would learn more about the injury as the week progressed.	He said he would learn more about the injury as the week progressed.	2924951	1471994300488	1471994300635	BKSP	8
5722	61432	He said he would learn more about the injury as the week progressed.	He said he would learn more about the injury as the week progressed.	2924952	1471994301825	1471994301913	o	79
5722	61432	He said he would learn more about the injury as the week progressed.	He said he would learn more about the injury as the week progressed.	2924953	1471994302057	1471994302152	g	71
5722	61432	He said he would learn more about the injury as the week progressed.	He said he would learn more about the injury as the week progressed.	2924955	1471994302181	1471994302292	r	82
5722	61432	He said he would learn more about the injury as the week progressed.	He said he would learn more about the injury as the week progressed.	2924974	1471994302375	1471994302466	e	69
5722	61432	He said he would learn more about the injury as the week progressed.	He said he would learn more about the injury as the week progressed.	2924976	1471994302548	1471994302660	s	83
5722	61432	He said he would learn more about the injury as the week progressed.	He said he would learn more about the injury as the week progressed.	2924978	1471994302702	1471994302830	s	83
5722	61432	He said he would learn more about the injury as the week progressed.	He said he would learn more about the injury as the week progressed.	2924980	1471994302924	1471994303018	e	69
5722	61432	He said he would learn more about the injury as the week progressed.	He said he would learn more about the injury as the week progressed.	2924982	1471994303112	1471994303226	d	68
5722	61432	He said he would learn more about the injury as the week progressed.	He said he would learn more about the injury as the week progressed.	2924994	1471994303528	1471994303633	.	190
5722	61453	The dollar lost ground against the major currencies.	The dollar lost ground against the major currencies.	2925208	1471994310047	1471994310284	SHIFT	16
5722	61453	The dollar lost ground against the major currencies.	The dollar lost ground against the major currencies.	2925203	1471994310171	1471994310268	T	84
5722	61453	The dollar lost ground against the major currencies.	The dollar lost ground against the major currencies.	2925213	1471994310360	1471994310469	h	72
5722	61453	The dollar lost ground against the major currencies.	The dollar lost ground against the major currencies.	2925219	1471994310464	1471994310579	e	69
5722	61453	The dollar lost ground against the major currencies.	The dollar lost ground against the major currencies.	2925224	1471994310580	1471994310699	 	32
5722	61453	The dollar lost ground against the major currencies.	The dollar lost ground against the major currencies.	2925226	1471994310798	1471994310904	d	68
5722	61453	The dollar lost ground against the major currencies.	The dollar lost ground against the major currencies.	2925240	1471994310897	1471994310985	o	79
5722	61453	The dollar lost ground against the major currencies.	The dollar lost ground against the major currencies.	2925242	1471994311068	1471994311143	l	76
5722	61453	The dollar lost ground against the major currencies.	The dollar lost ground against the major currencies.	2925245	1471994311195	1471994311287	l	76
5722	61453	The dollar lost ground against the major currencies.	The dollar lost ground against the major currencies.	2925247	1471994311262	1471994311402	a	65
5722	61453	The dollar lost ground against the major currencies.	The dollar lost ground against the major currencies.	2925249	1471994311486	1471994311587	r	82
5722	61453	The dollar lost ground against the major currencies.	The dollar lost ground against the major currencies.	2925251	1471994311601	1471994311712	 	32
5722	61453	The dollar lost ground against the major currencies.	The dollar lost ground against the major currencies.	2925284	1471994311933	1471994312017	l	76
5722	61453	The dollar lost ground against the major currencies.	The dollar lost ground against the major currencies.	2925286	1471994312125	1471994312216	o	79
5722	61453	The dollar lost ground against the major currencies.	The dollar lost ground against the major currencies.	2925288	1471994312460	1471994312565	s	83
5722	61453	The dollar lost ground against the major currencies.	The dollar lost ground against the major currencies.	2925291	1471994312588	1471994312679	t	84
5722	61453	The dollar lost ground against the major currencies.	The dollar lost ground against the major currencies.	2925294	1471994312772	1471994312897	 	32
5722	61453	The dollar lost ground against the major currencies.	The dollar lost ground against the major currencies.	2925325	1471994312958	1471994313050	g	71
5722	61453	The dollar lost ground against the major currencies.	The dollar lost ground against the major currencies.	2925327	1471994313154	1471994313241	r	82
5722	61453	The dollar lost ground against the major currencies.	The dollar lost ground against the major currencies.	2925329	1471994313225	1471994313307	o	79
5722	61453	The dollar lost ground against the major currencies.	The dollar lost ground against the major currencies.	2925330	1471994313397	1471994313491	u	85
5722	61453	The dollar lost ground against the major currencies.	The dollar lost ground against the major currencies.	2925331	1471994313524	1471994313635	n	78
5722	61453	The dollar lost ground against the major currencies.	The dollar lost ground against the major currencies.	2925352	1471994313940	1471994314057	d	68
5722	61453	The dollar lost ground against the major currencies.	The dollar lost ground against the major currencies.	2925356	1471994314086	1471994314207	 	32
5722	61453	The dollar lost ground against the major currencies.	The dollar lost ground against the major currencies.	2925360	1471994314377	1471994314498	a	65
5722	61453	The dollar lost ground against the major currencies.	The dollar lost ground against the major currencies.	2925366	1471994314534	1471994314629	g	71
5722	61453	The dollar lost ground against the major currencies.	The dollar lost ground against the major currencies.	2925370	1471994314632	1471994314777	a	65
5722	61453	The dollar lost ground against the major currencies.	The dollar lost ground against the major currencies.	2925422	1471994314769	1471994314867	i	73
5722	61453	The dollar lost ground against the major currencies.	The dollar lost ground against the major currencies.	2925424	1471994314922	1471994315040	n	78
5722	61453	The dollar lost ground against the major currencies.	The dollar lost ground against the major currencies.	2925426	1471994315499	1471994315650	s	83
5722	61453	The dollar lost ground against the major currencies.	The dollar lost ground against the major currencies.	2925428	1471994315643	1471994315724	t	84
5722	61453	The dollar lost ground against the major currencies.	The dollar lost ground against the major currencies.	2925431	1471994315968	1471994316089	 	32
5722	61453	The dollar lost ground against the major currencies.	The dollar lost ground against the major currencies.	2925435	1471994316158	1471994316265	t	84
5722	61453	The dollar lost ground against the major currencies.	The dollar lost ground against the major currencies.	2925451	1471994316273	1471994316375	h	72
5722	61453	The dollar lost ground against the major currencies.	The dollar lost ground against the major currencies.	2925453	1471994316378	1471994316489	e	69
5722	61453	The dollar lost ground against the major currencies.	The dollar lost ground against the major currencies.	2925456	1471994316444	1471994316549	 	32
5722	61453	The dollar lost ground against the major currencies.	The dollar lost ground against the major currencies.	2925461	1471994316611	1471994316715	m	77
5722	61453	The dollar lost ground against the major currencies.	The dollar lost ground against the major currencies.	2925496	1471994316696	1471994316823	a	65
5722	61453	The dollar lost ground against the major currencies.	The dollar lost ground against the major currencies.	2925498	1471994316839	1471994317015	j	74
5722	61453	The dollar lost ground against the major currencies.	The dollar lost ground against the major currencies.	2925500	1471994316954	1471994317113	o	79
5722	61453	The dollar lost ground against the major currencies.	The dollar lost ground against the major currencies.	2925502	1471994317064	1471994317181	r	82
5722	61453	The dollar lost ground against the major currencies.	The dollar lost ground against the major currencies.	2925504	1471994317201	1471994317338	 	32
5722	61453	The dollar lost ground against the major currencies.	The dollar lost ground against the major currencies.	2925506	1471994317539	1471994317667	c	67
5722	61453	The dollar lost ground against the major currencies.	The dollar lost ground against the major currencies.	2925513	1471994317689	1471994317790	u	85
5722	61453	The dollar lost ground against the major currencies.	The dollar lost ground against the major currencies.	2925514	1471994317856	1471994317948	r	82
5722	61453	The dollar lost ground against the major currencies.	The dollar lost ground against the major currencies.	2925515	1471994318000	1471994318081	r	82
5722	61453	The dollar lost ground against the major currencies.	The dollar lost ground against the major currencies.	2925516	1471994318163	1471994318265	e	69
5722	61453	The dollar lost ground against the major currencies.	The dollar lost ground against the major currencies.	2925519	1471994318271	1471994318382	n	78
5722	61453	The dollar lost ground against the major currencies.	The dollar lost ground against the major currencies.	2925555	1471994318412	1471994318546	c	67
5722	61453	The dollar lost ground against the major currencies.	The dollar lost ground against the major currencies.	2925556	1471994318618	1471994318804	i	73
5722	61453	The dollar lost ground against the major currencies.	The dollar lost ground against the major currencies.	2925557	1471994318824	1471994318941	e	69
5722	61453	The dollar lost ground against the major currencies.	The dollar lost ground against the major currencies.	2925558	1471994318993	1471994319129	s	83
5722	61453	The dollar lost ground against the major currencies.	The dollar lost ground against the major currencies.	2925563	1471994319104	1471994319225	.	190
5722	61462	I decided that I am going to stay here!	I decided that I am going to stay here!	2925743	1471994323474	1471994323727	SHIFT	16
5722	61462	I decided that I am going to stay here!	I decided that I am going to stay here!	2925742	1471994323600	1471994323707	I	73
5722	61462	I decided that I am going to stay here!	I decided that I am going to stay here!	2925745	1471994323816	1471994323920	 	32
5722	61462	I decided that I am going to stay here!	I decided that I am going to stay here!	2925747	1471994323953	1471994324064	d	68
5722	61462	I decided that I am going to stay here!	I decided that I am going to stay here!	2925749	1471994324113	1471994324224	e	69
5722	61462	I decided that I am going to stay here!	I decided that I am going to stay here!	2925751	1471994324303	1471994324427	c	67
5722	61462	I decided that I am going to stay here!	I decided that I am going to stay here!	2925784	1471994324407	1471994324488	i	73
5722	61462	I decided that I am going to stay here!	I decided that I am going to stay here!	2925786	1471994324540	1471994324655	d	68
5722	61462	I decided that I am going to stay here!	I decided that I am going to stay here!	2925788	1471994324701	1471994324799	e	69
5722	61462	I decided that I am going to stay here!	I decided that I am going to stay here!	2925789	1471994324861	1471994324982	d	68
5722	61462	I decided that I am going to stay here!	I decided that I am going to stay here!	2925791	1471994325058	1471994325211	 	32
5722	61462	I decided that I am going to stay here!	I decided that I am going to stay here!	2925793	1471994325842	1471994325924	t	84
5722	61462	I decided that I am going to stay here!	I decided that I am going to stay here!	2925819	1471994325933	1471994326040	h	72
5722	61462	I decided that I am going to stay here!	I decided that I am going to stay here!	2925821	1471994326080	1471994326200	a	65
5722	61462	I decided that I am going to stay here!	I decided that I am going to stay here!	2925823	1471994326185	1471994326272	t	84
5722	61462	I decided that I am going to stay here!	I decided that I am going to stay here!	2925824	1471994326341	1471994326485	 	32
5722	61462	I decided that I am going to stay here!	I decided that I am going to stay here!	2925852	1471994326522	1471994326707	SHIFT	16
5722	61462	I decided that I am going to stay here!	I decided that I am going to stay here!	2925825	1471994326622	1471994326697	I	73
5722	61462	I decided that I am going to stay here!	I decided that I am going to stay here!	2925855	1471994326776	1471994326908	 	32
5722	61462	I decided that I am going to stay here!	I decided that I am going to stay here!	2925859	1471994326903	1471994327017	a	65
5722	61462	I decided that I am going to stay here!	I decided that I am going to stay here!	2925863	1471994326995	1471994327085	m	77
5722	61462	I decided that I am going to stay here!	I decided that I am going to stay here!	2925867	1471994327160	1471994327272	 	32
5722	61462	I decided that I am going to stay here!	I decided that I am going to stay here!	2925871	1471994327604	1471994327678	o	79
5722	61462	I decided that I am going to stay here!	I decided that I am going to stay here!	2925920	1471994327926	1471994328040	BKSP	8
5722	61462	I decided that I am going to stay here!	I decided that I am going to stay here!	2925924	1471994328031	1471994328137	g	71
5722	61462	I decided that I am going to stay here!	I decided that I am going to stay here!	2925927	1471994328125	1471994328207	o	79
5722	61462	I decided that I am going to stay here!	I decided that I am going to stay here!	2925931	1471994328259	1471994328354	i	73
5722	61462	I decided that I am going to stay here!	I decided that I am going to stay here!	2925936	1471994328400	1471994328530	n	78
5722	61462	I decided that I am going to stay here!	I decided that I am going to stay here!	2925938	1471994328851	1471994328955	g	71
5722	61462	I decided that I am going to stay here!	I decided that I am going to stay here!	2925957	1471994328981	1471994329141	 	32
5722	61462	I decided that I am going to stay here!	I decided that I am going to stay here!	2925958	1471994329122	1471994329242	t	84
5722	61462	I decided that I am going to stay here!	I decided that I am going to stay here!	2925959	1471994329233	1471994329324	o	79
5722	61462	I decided that I am going to stay here!	I decided that I am going to stay here!	2925960	1471994329396	1471994329510	 	32
5722	61462	I decided that I am going to stay here!	I decided that I am going to stay here!	2925961	1471994329722	1471994329842	s	83
5722	61462	I decided that I am going to stay here!	I decided that I am going to stay here!	2925986	1471994329868	1471994329963	t	84
5722	61462	I decided that I am going to stay here!	I decided that I am going to stay here!	2925988	1471994329979	1471994330093	a	65
5722	61462	I decided that I am going to stay here!	I decided that I am going to stay here!	2925991	1471994330097	1471994330188	y	89
5722	61462	I decided that I am going to stay here!	I decided that I am going to stay here!	2925993	1471994330312	1471994330423	 	32
5722	61462	I decided that I am going to stay here!	I decided that I am going to stay here!	2925996	1471994330517	1471994330598	h	72
5722	61462	I decided that I am going to stay here!	I decided that I am going to stay here!	2926034	1471994330596	1471994330723	e	69
5722	61462	I decided that I am going to stay here!	I decided that I am going to stay here!	2926036	1471994330769	1471994330883	r	82
5722	61462	I decided that I am going to stay here!	I decided that I am going to stay here!	2926038	1471994331246	1471994331344	e	69
5722	61462	I decided that I am going to stay here!	I decided that I am going to stay here!	2926040	1471994331718	1471994331911	SHIFT	16
5722	61462	I decided that I am going to stay here!	I decided that I am going to stay here!	2926042	1471994331823	1471994331933	!	49
5722	61470	Brady only has five catches this season.	Bradly only has five catches this season.	2926181	1471994336227	1471994336407	SHIFT	16
5722	61470	Brady only has five catches this season.	Bradly only has five catches this season.	2926182	1471994336329	1471994336449	B	66
5722	61470	Brady only has five catches this season.	Bradly only has five catches this season.	2926186	1471994336592	1471994336677	r	82
5722	61470	Brady only has five catches this season.	Bradly only has five catches this season.	2926190	1471994336716	1471994336856	a	65
5722	61470	Brady only has five catches this season.	Bradly only has five catches this season.	2926192	1471994336918	1471994337028	d	68
5722	61470	Brady only has five catches this season.	Bradly only has five catches this season.	2926219	1471994336992	1471994337087	l	76
5722	61470	Brady only has five catches this season.	Bradly only has five catches this season.	2926220	1471994337225	1471994337318	y	89
5722	61470	Brady only has five catches this season.	Bradly only has five catches this season.	2926221	1471994337380	1471994337517	 	32
5722	61470	Brady only has five catches this season.	Bradly only has five catches this season.	2926222	1471994337593	1471994337704	o	79
5722	61470	Brady only has five catches this season.	Bradly only has five catches this season.	2926223	1471994337730	1471994337848	n	78
5722	61470	Brady only has five catches this season.	Bradly only has five catches this season.	2926225	1471994337904	1471994337990	l	76
5722	61470	Brady only has five catches this season.	Bradly only has five catches this season.	2926275	1471994338107	1471994338194	y	89
5722	61470	Brady only has five catches this season.	Bradly only has five catches this season.	2926277	1471994338260	1471994338381	 	32
5722	61470	Brady only has five catches this season.	Bradly only has five catches this season.	2926278	1471994338430	1471994338538	g	71
5722	61470	Brady only has five catches this season.	Bradly only has five catches this season.	2926280	1471994338622	1471994338791	a	65
5722	61470	Brady only has five catches this season.	Bradly only has five catches this season.	2926281	1471994338916	1471994338975	BKSP	8
5722	61470	Brady only has five catches this season.	Bradly only has five catches this season.	2926283	1471994339034	1471994339129	BKSP	8
5722	61470	Brady only has five catches this season.	Bradly only has five catches this season.	2926285	1471994339243	1471994339335	h	72
5722	61470	Brady only has five catches this season.	Bradly only has five catches this season.	2926302	1471994339340	1471994339453	a	65
5722	61470	Brady only has five catches this season.	Bradly only has five catches this season.	2926303	1471994339594	1471994339728	 	32
5722	61470	Brady only has five catches this season.	Bradly only has five catches this season.	2926304	1471994340258	1471994340356	BKSP	8
5722	61470	Brady only has five catches this season.	Bradly only has five catches this season.	2926305	1471994340363	1471994340503	s	83
5722	61470	Brady only has five catches this season.	Bradly only has five catches this season.	2926306	1471994340516	1471994340640	 	32
5722	61470	Brady only has five catches this season.	Bradly only has five catches this season.	2926324	1471994340614	1471994340732	f	70
5722	61470	Brady only has five catches this season.	Bradly only has five catches this season.	2926325	1471994340733	1471994340840	i	73
5722	61470	Brady only has five catches this season.	Bradly only has five catches this season.	2926327	1471994340896	1471994341025	c	67
5722	61470	Brady only has five catches this season.	Bradly only has five catches this season.	2926330	1471994341058	1471994341126	e	69
5722	61470	Brady only has five catches this season.	Bradly only has five catches this season.	2926333	1471994341237	1471994341391	 	32
5722	61470	Brady only has five catches this season.	Bradly only has five catches this season.	2926336	1471994341525	1471994341650	c	67
5722	61470	Brady only has five catches this season.	Bradly only has five catches this season.	2926401	1471994341908	1471994342009	BKSP	8
5722	61470	Brady only has five catches this season.	Bradly only has five catches this season.	2926403	1471994342069	1471994342157	BKSP	8
5722	61470	Brady only has five catches this season.	Bradly only has five catches this season.	2926405	1471994342216	1471994342300	BKSP	8
5722	61470	Brady only has five catches this season.	Bradly only has five catches this season.	2926409	1471994342366	1471994342432	BKSP	8
5722	61470	Brady only has five catches this season.	Bradly only has five catches this season.	2926413	1471994343062	1471994343159	v	86
5722	61470	Brady only has five catches this season.	Bradly only has five catches this season.	2926417	1471994343186	1471994343291	e	69
5722	61470	Brady only has five catches this season.	Bradly only has five catches this season.	2926422	1471994343280	1471994343398	 	32
5722	61470	Brady only has five catches this season.	Bradly only has five catches this season.	2926428	1471994343437	1471994343539	c	67
5722	61470	Brady only has five catches this season.	Bradly only has five catches this season.	2926432	1471994343656	1471994343768	a	65
5722	61470	Brady only has five catches this season.	Bradly only has five catches this season.	2926436	1471994343774	1471994343862	t	84
5722	61470	Brady only has five catches this season.	Bradly only has five catches this season.	2926438	1471994343889	1471994344009	c	67
5722	61470	Brady only has five catches this season.	Bradly only has five catches this season.	2926440	1471994343967	1471994344081	h	72
5722	61470	Brady only has five catches this season.	Bradly only has five catches this season.	2926442	1471994344117	1471994344229	e	69
5722	61470	Brady only has five catches this season.	Bradly only has five catches this season.	2926443	1471994344294	1471994344431	s	83
5722	61470	Brady only has five catches this season.	Bradly only has five catches this season.	2926461	1471994344386	1471994344500	 	32
5722	61470	Brady only has five catches this season.	Bradly only has five catches this season.	2926462	1471994344559	1471994344673	t	84
5722	61470	Brady only has five catches this season.	Bradly only has five catches this season.	2926463	1471994344657	1471994344818	h	72
5722	61470	Brady only has five catches this season.	Bradly only has five catches this season.	2926464	1471994344759	1471994344922	i	73
5722	61470	Brady only has five catches this season.	Bradly only has five catches this season.	2926466	1471994344893	1471994345030	s	83
5722	61470	Brady only has five catches this season.	Bradly only has five catches this season.	2926468	1471994345031	1471994345131	 	32
5722	61470	Brady only has five catches this season.	Bradly only has five catches this season.	2926502	1471994345117	1471994345200	c	67
5722	61470	Brady only has five catches this season.	Bradly only has five catches this season.	2926503	1471994345425	1471994345528	BKSP	8
5722	61470	Brady only has five catches this season.	Bradly only has five catches this season.	2926504	1471994345503	1471994345614	s	83
5722	61470	Brady only has five catches this season.	Bradly only has five catches this season.	2926505	1471994345683	1471994345770	e	69
5722	61470	Brady only has five catches this season.	Bradly only has five catches this season.	2926506	1471994345881	1471994346002	a	65
5722	61470	Brady only has five catches this season.	Bradly only has five catches this season.	2926507	1471994346077	1471994346181	s	83
5722	61470	Brady only has five catches this season.	Bradly only has five catches this season.	2926516	1471994346118	1471994346223	o	79
5722	61470	Brady only has five catches this season.	Bradly only has five catches this season.	2926519	1471994346262	1471994346437	n	78
5722	61470	Brady only has five catches this season.	Bradly only has five catches this season.	2926522	1471994346417	1471994346563	.	190
5722	61479	This is good I think.	This is good I think.	2926638	1471994349787	1471994349998	SHIFT	16
5722	61479	This is good I think.	This is good I think.	2926635	1471994349907	1471994349992	T	84
5722	61479	This is good I think.	This is good I think.	2926641	1471994350124	1471994350309	h	72
5722	61479	This is good I think.	This is good I think.	2926644	1471994350251	1471994350380	i	73
5722	61479	This is good I think.	This is good I think.	2926647	1471994350329	1471994350450	s	83
5722	61479	This is good I think.	This is good I think.	2926659	1471994350434	1471994350551	 	32
5722	61479	This is good I think.	This is good I think.	2926660	1471994350570	1471994350679	i	73
5722	61479	This is good I think.	This is good I think.	2926661	1471994350660	1471994350776	s	83
5722	61479	This is good I think.	This is good I think.	2926663	1471994350728	1471994350875	 	32
5722	61479	This is good I think.	This is good I think.	2926665	1471994350917	1471994351003	g	71
5722	61479	This is good I think.	This is good I think.	2926690	1471994350989	1471994351063	o	79
5722	61479	This is good I think.	This is good I think.	2926694	1471994351126	1471994351224	o	79
5722	61479	This is good I think.	This is good I think.	2926697	1471994351220	1471994351318	d	68
5722	61479	This is good I think.	This is good I think.	2926700	1471994351321	1471994351420	 	32
5722	61479	This is good I think.	This is good I think.	2926706	1471994351474	1471994351682	SHIFT	16
5722	61479	This is good I think.	This is good I think.	2926703	1471994351588	1471994351665	I	73
5722	61479	This is good I think.	This is good I think.	2926709	1471994351747	1471994351858	 	32
5722	61479	This is good I think.	This is good I think.	2926713	1471994351973	1471994352060	t	84
5722	61479	This is good I think.	This is good I think.	2926717	1471994352068	1471994352218	h	72
5722	61479	This is good I think.	This is good I think.	2926719	1471994352156	1471994352283	i	73
5722	61479	This is good I think.	This is good I think.	2926723	1471994352319	1471994352452	n	78
5722	61479	This is good I think.	This is good I think.	2926768	1471994352414	1471994352574	j	74
5722	61479	This is good I think.	This is good I think.	2926771	1471994352906	1471994352997	BKSP	8
5722	61479	This is good I think.	This is good I think.	2926775	1471994353094	1471994353178	k	75
5722	61479	This is good I think.	This is good I think.	2926778	1471994353728	1471994353816	.	190
5722	61483	He is expected to play in Sunday's game and is listed as probable.	He is expected to play in Sunday's game and is listed ad probable.	2926946	1471994360576	1471994360756	SHIFT	16
5722	61483	He is expected to play in Sunday's game and is listed as probable.	He is expected to play in Sunday's game and is listed ad probable.	2926949	1471994360684	1471994360792	H	72
5722	61483	He is expected to play in Sunday's game and is listed as probable.	He is expected to play in Sunday's game and is listed ad probable.	2926951	1471994360870	1471994360971	e	69
5722	61483	He is expected to play in Sunday's game and is listed as probable.	He is expected to play in Sunday's game and is listed ad probable.	2926954	1471994360902	1471994361027	 	32
5722	61483	He is expected to play in Sunday's game and is listed as probable.	He is expected to play in Sunday's game and is listed ad probable.	2926957	1471994361090	1471994361174	i	73
5722	61483	He is expected to play in Sunday's game and is listed as probable.	He is expected to play in Sunday's game and is listed ad probable.	2926961	1471994361194	1471994361311	s	83
5722	61483	He is expected to play in Sunday's game and is listed as probable.	He is expected to play in Sunday's game and is listed ad probable.	2926982	1471994361266	1471994361393	 	32
5722	61483	He is expected to play in Sunday's game and is listed as probable.	He is expected to play in Sunday's game and is listed ad probable.	2926984	1471994361439	1471994361547	e	69
5722	61483	He is expected to play in Sunday's game and is listed as probable.	He is expected to play in Sunday's game and is listed ad probable.	2926987	1471994361638	1471994361745	x	88
5722	61483	He is expected to play in Sunday's game and is listed as probable.	He is expected to play in Sunday's game and is listed ad probable.	2926990	1471994361723	1471994361824	p	80
5722	61483	He is expected to play in Sunday's game and is listed as probable.	He is expected to play in Sunday's game and is listed ad probable.	2926992	1471994361893	1471994361987	e	69
5722	61483	He is expected to play in Sunday's game and is listed as probable.	He is expected to play in Sunday's game and is listed ad probable.	2926995	1471994362077	1471994362188	c	67
5722	61483	He is expected to play in Sunday's game and is listed as probable.	He is expected to play in Sunday's game and is listed ad probable.	2927004	1471994362221	1471994362312	t	84
5722	61483	He is expected to play in Sunday's game and is listed as probable.	He is expected to play in Sunday's game and is listed ad probable.	2927006	1471994362322	1471994362414	e	69
5722	61483	He is expected to play in Sunday's game and is listed as probable.	He is expected to play in Sunday's game and is listed ad probable.	2927007	1471994362476	1471994362587	d	68
5722	61483	He is expected to play in Sunday's game and is listed as probable.	He is expected to play in Sunday's game and is listed ad probable.	2927009	1471994362623	1471994362736	 	32
5722	61483	He is expected to play in Sunday's game and is listed as probable.	He is expected to play in Sunday's game and is listed ad probable.	2927036	1471994362714	1471994362802	t	84
5722	61483	He is expected to play in Sunday's game and is listed as probable.	He is expected to play in Sunday's game and is listed ad probable.	2927038	1471994362812	1471994362911	o	79
5722	61483	He is expected to play in Sunday's game and is listed as probable.	He is expected to play in Sunday's game and is listed ad probable.	2927040	1471994362966	1471994363080	 	32
5722	61483	He is expected to play in Sunday's game and is listed as probable.	He is expected to play in Sunday's game and is listed ad probable.	2927042	1471994363146	1471994363228	p	80
5722	61483	He is expected to play in Sunday's game and is listed as probable.	He is expected to play in Sunday's game and is listed ad probable.	2927044	1471994363302	1471994363390	l	76
5722	61483	He is expected to play in Sunday's game and is listed as probable.	He is expected to play in Sunday's game and is listed ad probable.	2927046	1471994363407	1471994363531	a	65
5722	61483	He is expected to play in Sunday's game and is listed as probable.	He is expected to play in Sunday's game and is listed ad probable.	2927059	1471994363576	1471994363665	y	89
5722	61483	He is expected to play in Sunday's game and is listed as probable.	He is expected to play in Sunday's game and is listed ad probable.	2927060	1471994363740	1471994363877	 	32
5722	61483	He is expected to play in Sunday's game and is listed as probable.	He is expected to play in Sunday's game and is listed ad probable.	2927061	1471994364025	1471994364136	i	73
5722	61483	He is expected to play in Sunday's game and is listed as probable.	He is expected to play in Sunday's game and is listed ad probable.	2927062	1471994364233	1471994364332	n	78
5722	61483	He is expected to play in Sunday's game and is listed as probable.	He is expected to play in Sunday's game and is listed ad probable.	2927066	1471994364423	1471994364527	 	32
5722	61483	He is expected to play in Sunday's game and is listed as probable.	He is expected to play in Sunday's game and is listed ad probable.	2927105	1471994364612	1471994365221	SHIFT	16
5722	61483	He is expected to play in Sunday's game and is listed as probable.	He is expected to play in Sunday's game and is listed ad probable.	2927109	1471994365274	1471994365609	SHIFT	16
5722	61483	He is expected to play in Sunday's game and is listed as probable.	He is expected to play in Sunday's game and is listed ad probable.	2927107	1471994365456	1471994365601	S	83
5722	61483	He is expected to play in Sunday's game and is listed as probable.	He is expected to play in Sunday's game and is listed ad probable.	2927111	1471994365639	1471994365734	u	85
5722	61483	He is expected to play in Sunday's game and is listed as probable.	He is expected to play in Sunday's game and is listed ad probable.	2927112	1471994365776	1471994365875	n	78
5722	61483	He is expected to play in Sunday's game and is listed as probable.	He is expected to play in Sunday's game and is listed ad probable.	2927113	1471994366047	1471994366148	d	68
5722	61483	He is expected to play in Sunday's game and is listed as probable.	He is expected to play in Sunday's game and is listed ad probable.	2927115	1471994366240	1471994366350	a	65
5722	61483	He is expected to play in Sunday's game and is listed as probable.	He is expected to play in Sunday's game and is listed ad probable.	2927156	1471994366312	1471994366413	y	89
5722	61483	He is expected to play in Sunday's game and is listed as probable.	He is expected to play in Sunday's game and is listed ad probable.	2927161	1471994366491	1471994366645	'	222
5722	61483	He is expected to play in Sunday's game and is listed as probable.	He is expected to play in Sunday's game and is listed ad probable.	2927163	1471994366613	1471994366717	s	83
5722	61483	He is expected to play in Sunday's game and is listed as probable.	He is expected to play in Sunday's game and is listed ad probable.	2927165	1471994366773	1471994366884	 	32
5722	61483	He is expected to play in Sunday's game and is listed as probable.	He is expected to play in Sunday's game and is listed ad probable.	2927167	1471994367505	1471994367582	g	71
5722	61483	He is expected to play in Sunday's game and is listed as probable.	He is expected to play in Sunday's game and is listed ad probable.	2927169	1471994367629	1471994367758	a	65
5722	61483	He is expected to play in Sunday's game and is listed as probable.	He is expected to play in Sunday's game and is listed ad probable.	2927178	1471994367747	1471994367838	m	77
5722	61483	He is expected to play in Sunday's game and is listed as probable.	He is expected to play in Sunday's game and is listed ad probable.	2927179	1471994367858	1471994367966	e	69
5722	61483	He is expected to play in Sunday's game and is listed as probable.	He is expected to play in Sunday's game and is listed ad probable.	2927181	1471994367953	1471994368061	 	32
5722	61483	He is expected to play in Sunday's game and is listed as probable.	He is expected to play in Sunday's game and is listed ad probable.	2927183	1471994368331	1471994368461	a	65
5722	61483	He is expected to play in Sunday's game and is listed as probable.	He is expected to play in Sunday's game and is listed ad probable.	2927184	1471994368419	1471994368504	n	78
5722	61483	He is expected to play in Sunday's game and is listed as probable.	He is expected to play in Sunday's game and is listed ad probable.	2927185	1471994368550	1471994368640	d	68
5722	61483	He is expected to play in Sunday's game and is listed as probable.	He is expected to play in Sunday's game and is listed ad probable.	2927210	1471994368599	1471994368707	 	32
5722	61483	He is expected to play in Sunday's game and is listed as probable.	He is expected to play in Sunday's game and is listed ad probable.	2927211	1471994368752	1471994368844	i	73
5722	61483	He is expected to play in Sunday's game and is listed as probable.	He is expected to play in Sunday's game and is listed ad probable.	2927212	1471994368851	1471994368951	s	83
5722	61483	He is expected to play in Sunday's game and is listed as probable.	He is expected to play in Sunday's game and is listed ad probable.	2927213	1471994368925	1471994369030	 	32
5722	61483	He is expected to play in Sunday's game and is listed as probable.	He is expected to play in Sunday's game and is listed ad probable.	2927214	1471994369379	1471994369454	l	76
5722	61483	He is expected to play in Sunday's game and is listed as probable.	He is expected to play in Sunday's game and is listed ad probable.	2927215	1471994369500	1471994369584	i	73
5722	61483	He is expected to play in Sunday's game and is listed as probable.	He is expected to play in Sunday's game and is listed ad probable.	2927225	1471994369641	1471994369748	s	83
5722	61483	He is expected to play in Sunday's game and is listed as probable.	He is expected to play in Sunday's game and is listed ad probable.	2927227	1471994369768	1471994369856	t	84
5722	61483	He is expected to play in Sunday's game and is listed as probable.	He is expected to play in Sunday's game and is listed ad probable.	2927229	1471994369875	1471994369976	e	69
5722	61483	He is expected to play in Sunday's game and is listed as probable.	He is expected to play in Sunday's game and is listed ad probable.	2927231	1471994370046	1471994370157	d	68
5722	61483	He is expected to play in Sunday's game and is listed as probable.	He is expected to play in Sunday's game and is listed ad probable.	2927234	1471994370166	1471994370271	 	32
5722	61483	He is expected to play in Sunday's game and is listed as probable.	He is expected to play in Sunday's game and is listed ad probable.	2927241	1471994370365	1471994370486	a	65
5722	61483	He is expected to play in Sunday's game and is listed as probable.	He is expected to play in Sunday's game and is listed ad probable.	2927243	1471994370581	1471994370692	d	68
5722	61483	He is expected to play in Sunday's game and is listed as probable.	He is expected to play in Sunday's game and is listed ad probable.	2927246	1471994370647	1471994370764	 	32
5722	61483	He is expected to play in Sunday's game and is listed as probable.	He is expected to play in Sunday's game and is listed ad probable.	2927249	1471994370817	1471994370898	p	80
5722	61483	He is expected to play in Sunday's game and is listed as probable.	He is expected to play in Sunday's game and is listed ad probable.	2927252	1471994370912	1471994371022	r	82
5722	61483	He is expected to play in Sunday's game and is listed as probable.	He is expected to play in Sunday's game and is listed ad probable.	2927262	1471994371035	1471994371130	o	79
5722	61483	He is expected to play in Sunday's game and is listed as probable.	He is expected to play in Sunday's game and is listed ad probable.	2927264	1471994371243	1471994371344	b	66
5722	61483	He is expected to play in Sunday's game and is listed as probable.	He is expected to play in Sunday's game and is listed ad probable.	2927266	1471994371354	1471994371476	a	65
5722	61483	He is expected to play in Sunday's game and is listed as probable.	He is expected to play in Sunday's game and is listed ad probable.	2927268	1471994371462	1471994371556	b	66
5722	61483	He is expected to play in Sunday's game and is listed as probable.	He is expected to play in Sunday's game and is listed ad probable.	2927271	1471994371632	1471994371720	l	76
5722	61483	He is expected to play in Sunday's game and is listed as probable.	He is expected to play in Sunday's game and is listed ad probable.	2927275	1471994371766	1471994371863	e	69
5722	61483	He is expected to play in Sunday's game and is listed as probable.	He is expected to play in Sunday's game and is listed ad probable.	2927278	1471994371844	1471994371959	.	190
5722	61492	Juppe met with the president at the Oval office.	Juppe met with the president at the Oval office.	2927409	1471994375396	1471994375682	SHIFT	16
5722	61492	Juppe met with the president at the Oval office.	Juppe met with the president at the Oval office.	2927414	1471994375757	1471994376196	SHIFT	16
5722	61492	Juppe met with the president at the Oval office.	Juppe met with the president at the Oval office.	2927412	1471994376030	1471994376137	J	74
5722	61492	Juppe met with the president at the Oval office.	Juppe met with the president at the Oval office.	2927418	1471994376268	1471994376356	u	85
5722	61492	Juppe met with the president at the Oval office.	Juppe met with the president at the Oval office.	2927422	1471994376492	1471994376580	p	80
5722	61492	Juppe met with the president at the Oval office.	Juppe met with the president at the Oval office.	2927425	1471994376639	1471994376730	p	80
5722	61492	Juppe met with the president at the Oval office.	Juppe met with the president at the Oval office.	2927428	1471994376757	1471994376878	e	69
5722	61492	Juppe met with the president at the Oval office.	Juppe met with the president at the Oval office.	2927439	1471994376890	1471994376991	 	32
5722	61492	Juppe met with the president at the Oval office.	Juppe met with the president at the Oval office.	2927442	1471994377054	1471994377168	m	77
5722	61492	Juppe met with the president at the Oval office.	Juppe met with the president at the Oval office.	2927444	1471994377146	1471994377273	e	69
5722	61492	Juppe met with the president at the Oval office.	Juppe met with the president at the Oval office.	2927448	1471994377345	1471994377446	t	84
5722	61492	Juppe met with the president at the Oval office.	Juppe met with the president at the Oval office.	2927451	1471994377485	1471994377633	 	32
5722	61492	Juppe met with the president at the Oval office.	Juppe met with the president at the Oval office.	2927472	1471994377937	1471994378061	w	87
5722	61492	Juppe met with the president at the Oval office.	Juppe met with the president at the Oval office.	2927474	1471994378022	1471994378202	i	73
5722	61492	Juppe met with the president at the Oval office.	Juppe met with the president at the Oval office.	2927476	1471994378588	1471994378707	t	84
5722	61492	Juppe met with the president at the Oval office.	Juppe met with the president at the Oval office.	2927478	1471994378692	1471994378797	h	72
5722	61492	Juppe met with the president at the Oval office.	Juppe met with the president at the Oval office.	2927479	1471994378836	1471994378975	 	32
5722	61492	Juppe met with the president at the Oval office.	Juppe met with the president at the Oval office.	2927480	1471994378937	1471994379050	t	84
5722	61492	Juppe met with the president at the Oval office.	Juppe met with the president at the Oval office.	2927482	1471994379038	1471994379153	h	72
5722	61492	Juppe met with the president at the Oval office.	Juppe met with the president at the Oval office.	2927484	1471994379162	1471994379276	e	69
5722	61492	Juppe met with the president at the Oval office.	Juppe met with the president at the Oval office.	2927486	1471994379205	1471994379329	 	32
5722	61492	Juppe met with the president at the Oval office.	Juppe met with the president at the Oval office.	2927488	1471994379381	1471994379472	p	80
5722	61492	Juppe met with the president at the Oval office.	Juppe met with the president at the Oval office.	2927496	1471994379433	1471994379547	r	82
5722	61492	Juppe met with the president at the Oval office.	Juppe met with the president at the Oval office.	2927497	1471994379626	1471994379717	e	69
5722	61492	Juppe met with the president at the Oval office.	Juppe met with the president at the Oval office.	2927500	1471994379799	1471994379920	s	83
5722	61492	Juppe met with the president at the Oval office.	Juppe met with the president at the Oval office.	2927502	1471994379884	1471994379999	i	73
5722	61492	Juppe met with the president at the Oval office.	Juppe met with the president at the Oval office.	2927505	1471994379989	1471994380093	d	68
5722	61492	Juppe met with the president at the Oval office.	Juppe met with the president at the Oval office.	2927506	1471994380142	1471994380264	e	69
5722	61492	Juppe met with the president at the Oval office.	Juppe met with the president at the Oval office.	2927516	1471994380280	1471994380388	n	78
5722	61492	Juppe met with the president at the Oval office.	Juppe met with the president at the Oval office.	2927517	1471994380391	1471994380454	t	84
5722	61492	Juppe met with the president at the Oval office.	Juppe met with the president at the Oval office.	2927518	1471994380503	1471994380611	 	32
5722	61492	Juppe met with the president at the Oval office.	Juppe met with the president at the Oval office.	2927519	1471994380854	1471994380985	a	65
5722	61492	Juppe met with the president at the Oval office.	Juppe met with the president at the Oval office.	2927533	1471994380963	1471994381053	t	84
5722	61492	Juppe met with the president at the Oval office.	Juppe met with the president at the Oval office.	2927535	1471994381147	1471994381283	 	32
5722	61492	Juppe met with the president at the Oval office.	Juppe met with the president at the Oval office.	2927536	1471994381342	1471994381464	t	84
5722	61492	Juppe met with the president at the Oval office.	Juppe met with the president at the Oval office.	2927538	1471994381460	1471994381561	h	72
5722	61492	Juppe met with the president at the Oval office.	Juppe met with the president at the Oval office.	2927540	1471994381587	1471994381681	e	69
5722	61492	Juppe met with the president at the Oval office.	Juppe met with the president at the Oval office.	2927554	1471994381649	1471994381767	 	32
5722	61492	Juppe met with the president at the Oval office.	Juppe met with the president at the Oval office.	2927559	1471994381846	1471994382028	SHIFT	16
5722	61492	Juppe met with the president at the Oval office.	Juppe met with the president at the Oval office.	2927556	1471994381878	1471994381982	O	79
5722	61492	Juppe met with the president at the Oval office.	Juppe met with the president at the Oval office.	2927562	1471994382109	1471994382198	v	86
5722	61492	Juppe met with the president at the Oval office.	Juppe met with the president at the Oval office.	2927566	1471994382211	1471994382361	a	65
5722	61492	Juppe met with the president at the Oval office.	Juppe met with the president at the Oval office.	2927568	1471994382335	1471994382423	l	76
5722	61492	Juppe met with the president at the Oval office.	Juppe met with the president at the Oval office.	2927570	1471994382502	1471994382600	 	32
5722	61492	Juppe met with the president at the Oval office.	Juppe met with the president at the Oval office.	2927579	1471994382775	1471994382873	o	79
5722	61492	Juppe met with the president at the Oval office.	Juppe met with the president at the Oval office.	2927581	1471994382918	1471994383026	f	70
5722	61492	Juppe met with the president at the Oval office.	Juppe met with the president at the Oval office.	2927582	1471994383062	1471994383160	f	70
5722	61492	Juppe met with the president at the Oval office.	Juppe met with the president at the Oval office.	2927583	1471994383200	1471994383317	i	73
5722	61492	Juppe met with the president at the Oval office.	Juppe met with the president at the Oval office.	2927585	1471994383275	1471994383432	c	67
5722	61492	Juppe met with the president at the Oval office.	Juppe met with the president at the Oval office.	2927589	1471994383416	1471994383556	e	69
5722	61492	Juppe met with the president at the Oval office.	Juppe met with the president at the Oval office.	2927592	1471994383533	1471994383644	.	190
5722	61499	Don't make me pull tapes on whether you understood our fee.	Don't make me pull tapes on wheter you understood our fee.	2927734	1471994390024	1471994390225	SHIFT	16
5722	61499	Don't make me pull tapes on whether you understood our fee.	Don't make me pull tapes on wheter you understood our fee.	2927733	1471994390148	1471994390219	D	68
5722	61499	Don't make me pull tapes on whether you understood our fee.	Don't make me pull tapes on wheter you understood our fee.	2927735	1471994390718	1471994390815	o	79
5722	61499	Don't make me pull tapes on whether you understood our fee.	Don't make me pull tapes on wheter you understood our fee.	2927736	1471994390857	1471994391050	n	78
5722	61499	Don't make me pull tapes on whether you understood our fee.	Don't make me pull tapes on wheter you understood our fee.	2927738	1471994391273	1471994391413	'	222
5722	61499	Don't make me pull tapes on whether you understood our fee.	Don't make me pull tapes on wheter you understood our fee.	2927753	1471994391384	1471994391492	t	84
5722	61499	Don't make me pull tapes on whether you understood our fee.	Don't make me pull tapes on wheter you understood our fee.	2927755	1471994391554	1471994391649	 	32
5722	61499	Don't make me pull tapes on whether you understood our fee.	Don't make me pull tapes on wheter you understood our fee.	2927758	1471994391767	1471994391885	m	77
5722	61499	Don't make me pull tapes on whether you understood our fee.	Don't make me pull tapes on wheter you understood our fee.	2927761	1471994391895	1471994392014	a	65
5722	61499	Don't make me pull tapes on whether you understood our fee.	Don't make me pull tapes on wheter you understood our fee.	2927764	1471994391960	1471994392071	k	75
5722	61499	Don't make me pull tapes on whether you understood our fee.	Don't make me pull tapes on wheter you understood our fee.	2927767	1471994392100	1471994392204	e	69
5722	61499	Don't make me pull tapes on whether you understood our fee.	Don't make me pull tapes on wheter you understood our fee.	2927784	1471994392136	1471994392221	 	32
5722	61499	Don't make me pull tapes on whether you understood our fee.	Don't make me pull tapes on wheter you understood our fee.	2927786	1471994392299	1471994392407	m	77
5722	61499	Don't make me pull tapes on whether you understood our fee.	Don't make me pull tapes on wheter you understood our fee.	2927789	1471994392477	1471994392603	e	69
5722	61499	Don't make me pull tapes on whether you understood our fee.	Don't make me pull tapes on wheter you understood our fee.	2927791	1471994392581	1471994392711	 	32
5722	61499	Don't make me pull tapes on whether you understood our fee.	Don't make me pull tapes on wheter you understood our fee.	2927792	1471994392868	1471994392968	p	80
5722	61499	Don't make me pull tapes on whether you understood our fee.	Don't make me pull tapes on wheter you understood our fee.	2927793	1471994393129	1471994393230	u	85
5722	61499	Don't make me pull tapes on whether you understood our fee.	Don't make me pull tapes on wheter you understood our fee.	2927809	1471994393356	1471994393448	l	76
5722	61499	Don't make me pull tapes on whether you understood our fee.	Don't make me pull tapes on wheter you understood our fee.	2927810	1471994393500	1471994393598	l	76
5722	61499	Don't make me pull tapes on whether you understood our fee.	Don't make me pull tapes on wheter you understood our fee.	2927811	1471994393660	1471994393781	 	32
5722	61499	Don't make me pull tapes on whether you understood our fee.	Don't make me pull tapes on wheter you understood our fee.	2927813	1471994394171	1471994394266	t	84
5722	61499	Don't make me pull tapes on whether you understood our fee.	Don't make me pull tapes on wheter you understood our fee.	2927815	1471994394279	1471994394442	a	65
5722	61499	Don't make me pull tapes on whether you understood our fee.	Don't make me pull tapes on wheter you understood our fee.	2927831	1471994394455	1471994394579	p	80
5722	61499	Don't make me pull tapes on whether you understood our fee.	Don't make me pull tapes on wheter you understood our fee.	2927833	1471994394596	1471994394717	e	69
5722	61499	Don't make me pull tapes on whether you understood our fee.	Don't make me pull tapes on wheter you understood our fee.	2927834	1471994394800	1471994394905	s	83
5722	61499	Don't make me pull tapes on whether you understood our fee.	Don't make me pull tapes on wheter you understood our fee.	2927835	1471994394893	1471994394993	 	32
5722	61499	Don't make me pull tapes on whether you understood our fee.	Don't make me pull tapes on wheter you understood our fee.	2927836	1471994395029	1471994395150	o	79
5722	61499	Don't make me pull tapes on whether you understood our fee.	Don't make me pull tapes on wheter you understood our fee.	2927841	1471994395167	1471994395258	n	78
5722	61499	Don't make me pull tapes on whether you understood our fee.	Don't make me pull tapes on wheter you understood our fee.	2927842	1471994395333	1471994395487	 	32
5722	61499	Don't make me pull tapes on whether you understood our fee.	Don't make me pull tapes on wheter you understood our fee.	2927844	1471994395445	1471994395604	w	87
5722	61499	Don't make me pull tapes on whether you understood our fee.	Don't make me pull tapes on wheter you understood our fee.	2927846	1471994395586	1471994395709	h	72
5722	61499	Don't make me pull tapes on whether you understood our fee.	Don't make me pull tapes on wheter you understood our fee.	2927848	1471994395725	1471994395875	e	69
5722	61499	Don't make me pull tapes on whether you understood our fee.	Don't make me pull tapes on wheter you understood our fee.	2927871	1471994395879	1471994395967	t	84
5722	61499	Don't make me pull tapes on whether you understood our fee.	Don't make me pull tapes on wheter you understood our fee.	2927873	1471994395997	1471994396134	e	69
5722	61499	Don't make me pull tapes on whether you understood our fee.	Don't make me pull tapes on wheter you understood our fee.	2927876	1471994396174	1471994396301	r	82
5722	61499	Don't make me pull tapes on whether you understood our fee.	Don't make me pull tapes on wheter you understood our fee.	2927879	1471994396307	1471994396431	 	32
5722	61499	Don't make me pull tapes on whether you understood our fee.	Don't make me pull tapes on wheter you understood our fee.	2927882	1471994396684	1471994396762	y	89
5722	61499	Don't make me pull tapes on whether you understood our fee.	Don't make me pull tapes on wheter you understood our fee.	2927925	1471994397017	1471994397118	u	85
5722	61499	Don't make me pull tapes on whether you understood our fee.	Don't make me pull tapes on wheter you understood our fee.	2927927	1471994397819	1471994397936	BKSP	8
5722	61499	Don't make me pull tapes on whether you understood our fee.	Don't make me pull tapes on wheter you understood our fee.	2927928	1471994398099	1471994398190	o	79
5722	61499	Don't make me pull tapes on whether you understood our fee.	Don't make me pull tapes on wheter you understood our fee.	2927930	1471994398285	1471994398380	u	85
5722	61499	Don't make me pull tapes on whether you understood our fee.	Don't make me pull tapes on wheter you understood our fee.	2927932	1471994398479	1471994398590	 	32
5722	61499	Don't make me pull tapes on whether you understood our fee.	Don't make me pull tapes on wheter you understood our fee.	2927933	1471994398852	1471994398943	u	85
5722	61499	Don't make me pull tapes on whether you understood our fee.	Don't make me pull tapes on wheter you understood our fee.	2927939	1471994398975	1471994399080	n	78
5722	61499	Don't make me pull tapes on whether you understood our fee.	Don't make me pull tapes on wheter you understood our fee.	2927940	1471994399112	1471994399223	d	68
5722	61499	Don't make me pull tapes on whether you understood our fee.	Don't make me pull tapes on wheter you understood our fee.	2927941	1471994399275	1471994399390	e	69
5722	61499	Don't make me pull tapes on whether you understood our fee.	Don't make me pull tapes on wheter you understood our fee.	2927942	1471994399432	1471994399549	r	82
5722	61499	Don't make me pull tapes on whether you understood our fee.	Don't make me pull tapes on wheter you understood our fee.	2927943	1471994399595	1471994399713	t	84
5722	61499	Don't make me pull tapes on whether you understood our fee.	Don't make me pull tapes on wheter you understood our fee.	2927992	1471994399717	1471994399794	o	79
5722	61499	Don't make me pull tapes on whether you understood our fee.	Don't make me pull tapes on wheter you understood our fee.	2927993	1471994399853	1471994399951	o	79
5722	61499	Don't make me pull tapes on whether you understood our fee.	Don't make me pull tapes on wheter you understood our fee.	2927994	1471994400993	1471994401094	BKSP	8
5722	61499	Don't make me pull tapes on whether you understood our fee.	Don't make me pull tapes on wheter you understood our fee.	2927995	1471994401156	1471994401238	BKSP	8
5722	61499	Don't make me pull tapes on whether you understood our fee.	Don't make me pull tapes on wheter you understood our fee.	2927996	1471994401300	1471994401418	BKSP	8
5722	61499	Don't make me pull tapes on whether you understood our fee.	Don't make me pull tapes on wheter you understood our fee.	2927997	1471994401483	1471994401605	s	83
5722	61499	Don't make me pull tapes on whether you understood our fee.	Don't make me pull tapes on wheter you understood our fee.	2927998	1471994401730	1471994401844	t	84
5722	61499	Don't make me pull tapes on whether you understood our fee.	Don't make me pull tapes on wheter you understood our fee.	2927999	1471994401912	1471994402014	o	79
5722	61499	Don't make me pull tapes on whether you understood our fee.	Don't make me pull tapes on wheter you understood our fee.	2928033	1471994402328	1471994402446	o	79
5722	61499	Don't make me pull tapes on whether you understood our fee.	Don't make me pull tapes on wheter you understood our fee.	2928035	1471994402626	1471994402763	d	68
5722	61499	Don't make me pull tapes on whether you understood our fee.	Don't make me pull tapes on wheter you understood our fee.	2928036	1471994402907	1471994403012	 	32
5722	61499	Don't make me pull tapes on whether you understood our fee.	Don't make me pull tapes on wheter you understood our fee.	2928037	1471994403088	1471994403163	o	79
5722	61499	Don't make me pull tapes on whether you understood our fee.	Don't make me pull tapes on wheter you understood our fee.	2928038	1471994403272	1471994403364	u	85
5722	61499	Don't make me pull tapes on whether you understood our fee.	Don't make me pull tapes on wheter you understood our fee.	2928060	1471994403393	1471994403511	r	82
5722	61499	Don't make me pull tapes on whether you understood our fee.	Don't make me pull tapes on wheter you understood our fee.	2928061	1471994403520	1471994403639	 	32
5722	61499	Don't make me pull tapes on whether you understood our fee.	Don't make me pull tapes on wheter you understood our fee.	2928063	1471994403632	1471994403710	f	70
5722	61499	Don't make me pull tapes on whether you understood our fee.	Don't make me pull tapes on wheter you understood our fee.	2928065	1471994404021	1471994404145	e	69
5722	61499	Don't make me pull tapes on whether you understood our fee.	Don't make me pull tapes on wheter you understood our fee.	2928067	1471994404188	1471994404326	e	69
5722	61499	Don't make me pull tapes on whether you understood our fee.	Don't make me pull tapes on wheter you understood our fee.	2928107	1471994404299	1471994404468	/	191
5722	61499	Don't make me pull tapes on whether you understood our fee.	Don't make me pull tapes on wheter you understood our fee.	2928108	1471994404718	1471994404841	BKSP	8
5722	61499	Don't make me pull tapes on whether you understood our fee.	Don't make me pull tapes on wheter you understood our fee.	2928109	1471994405031	1471994405078	,	188
5722	61499	Don't make me pull tapes on whether you understood our fee.	Don't make me pull tapes on wheter you understood our fee.	2928110	1471994405627	1471994405743	BKSP	8
5722	61499	Don't make me pull tapes on whether you understood our fee.	Don't make me pull tapes on wheter you understood our fee.	2928111	1471994406515	1471994406614	.	190
5722	61508	Seve Ballesteros was well satisfied with his first round.	Seve Ballesteros was well satisfied with his first round.	2928175	1471994409516	1471994410006	SHIFT	16
5722	61508	Seve Ballesteros was well satisfied with his first round.	Seve Ballesteros was well satisfied with his first round.	2928176	1471994409909	1471994410095	S	83
5722	61508	Seve Ballesteros was well satisfied with his first round.	Seve Ballesteros was well satisfied with his first round.	2928177	1471994410514	1471994410642	e	69
5722	61508	Seve Ballesteros was well satisfied with his first round.	Seve Ballesteros was well satisfied with his first round.	2928178	1471994410616	1471994410729	v	86
5722	61508	Seve Ballesteros was well satisfied with his first round.	Seve Ballesteros was well satisfied with his first round.	2928179	1471994410707	1471994410806	e	69
5722	61508	Seve Ballesteros was well satisfied with his first round.	Seve Ballesteros was well satisfied with his first round.	2928193	1471994410795	1471994410909	 	32
5722	61508	Seve Ballesteros was well satisfied with his first round.	Seve Ballesteros was well satisfied with his first round.	2928195	1471994410974	1471994411134	SHIFT	16
5722	61508	Seve Ballesteros was well satisfied with his first round.	Seve Ballesteros was well satisfied with his first round.	2928197	1471994411024	1471994411138	B	66
5722	61508	Seve Ballesteros was well satisfied with his first round.	Seve Ballesteros was well satisfied with his first round.	2928199	1471994411226	1471994411409	a	65
5722	61508	Seve Ballesteros was well satisfied with his first round.	Seve Ballesteros was well satisfied with his first round.	2928200	1471994411549	1471994411653	l	76
5722	61508	Seve Ballesteros was well satisfied with his first round.	Seve Ballesteros was well satisfied with his first round.	2928201	1471994411686	1471994411781	l	76
5722	61508	Seve Ballesteros was well satisfied with his first round.	Seve Ballesteros was well satisfied with his first round.	2928202	1471994411800	1471994411898	e	69
5722	61508	Seve Ballesteros was well satisfied with his first round.	Seve Ballesteros was well satisfied with his first round.	2928209	1471994411954	1471994412088	s	83
5722	61508	Seve Ballesteros was well satisfied with his first round.	Seve Ballesteros was well satisfied with his first round.	2928210	1471994412055	1471994412171	t	84
5722	61508	Seve Ballesteros was well satisfied with his first round.	Seve Ballesteros was well satisfied with his first round.	2928211	1471994412160	1471994412298	e	69
5722	61508	Seve Ballesteros was well satisfied with his first round.	Seve Ballesteros was well satisfied with his first round.	2928212	1471994412353	1471994412487	r	82
5722	61508	Seve Ballesteros was well satisfied with his first round.	Seve Ballesteros was well satisfied with his first round.	2928214	1471994412511	1471994412631	o	79
5722	61508	Seve Ballesteros was well satisfied with his first round.	Seve Ballesteros was well satisfied with his first round.	2928231	1471994412660	1471994412771	s	83
5722	61508	Seve Ballesteros was well satisfied with his first round.	Seve Ballesteros was well satisfied with his first round.	2928232	1471994412746	1471994412860	 	32
5722	61508	Seve Ballesteros was well satisfied with his first round.	Seve Ballesteros was well satisfied with his first round.	2928234	1471994413200	1471994413285	w	87
5722	61508	Seve Ballesteros was well satisfied with his first round.	Seve Ballesteros was well satisfied with his first round.	2928236	1471994413370	1471994413481	a	65
5722	61508	Seve Ballesteros was well satisfied with his first round.	Seve Ballesteros was well satisfied with his first round.	2928238	1471994413527	1471994413645	s	83
5722	61508	Seve Ballesteros was well satisfied with his first round.	Seve Ballesteros was well satisfied with his first round.	2928261	1471994413651	1471994413785	 	32
5722	61508	Seve Ballesteros was well satisfied with his first round.	Seve Ballesteros was well satisfied with his first round.	2928262	1471994413772	1471994413896	w	87
5722	61508	Seve Ballesteros was well satisfied with his first round.	Seve Ballesteros was well satisfied with his first round.	2928264	1471994413965	1471994414099	e	69
5722	61508	Seve Ballesteros was well satisfied with his first round.	Seve Ballesteros was well satisfied with his first round.	2928266	1471994414079	1471994414154	l	76
5722	61508	Seve Ballesteros was well satisfied with his first round.	Seve Ballesteros was well satisfied with his first round.	2928267	1471994414229	1471994414320	l	76
5722	61508	Seve Ballesteros was well satisfied with his first round.	Seve Ballesteros was well satisfied with his first round.	2928294	1471994414396	1471994414529	 	32
5722	61508	Seve Ballesteros was well satisfied with his first round.	Seve Ballesteros was well satisfied with his first round.	2928295	1471994414578	1471994414736	s	83
5722	61508	Seve Ballesteros was well satisfied with his first round.	Seve Ballesteros was well satisfied with his first round.	2928296	1471994414958	1471994415046	t	84
5722	61508	Seve Ballesteros was well satisfied with his first round.	Seve Ballesteros was well satisfied with his first round.	2928297	1471994415688	1471994415792	BKSP	8
5722	61508	Seve Ballesteros was well satisfied with his first round.	Seve Ballesteros was well satisfied with his first round.	2928298	1471994415773	1471994415929	a	65
5722	61508	Seve Ballesteros was well satisfied with his first round.	Seve Ballesteros was well satisfied with his first round.	2928299	1471994416164	1471994416262	t	84
5722	61508	Seve Ballesteros was well satisfied with his first round.	Seve Ballesteros was well satisfied with his first round.	2928325	1471994416298	1471994416409	i	73
5722	61508	Seve Ballesteros was well satisfied with his first round.	Seve Ballesteros was well satisfied with his first round.	2928326	1471994416582	1471994416712	d	68
5722	61508	Seve Ballesteros was well satisfied with his first round.	Seve Ballesteros was well satisfied with his first round.	2928327	1471994416969	1471994417085	BKSP	8
5722	61508	Seve Ballesteros was well satisfied with his first round.	Seve Ballesteros was well satisfied with his first round.	2928328	1471994417050	1471994417183	s	83
5722	61508	Seve Ballesteros was well satisfied with his first round.	Seve Ballesteros was well satisfied with his first round.	2928329	1471994417610	1471994417730	f	70
5722	61508	Seve Ballesteros was well satisfied with his first round.	Seve Ballesteros was well satisfied with his first round.	2928330	1471994417762	1471994417897	i	73
5722	61508	Seve Ballesteros was well satisfied with his first round.	Seve Ballesteros was well satisfied with his first round.	2928337	1471994418067	1471994418220	e	69
5722	61508	Seve Ballesteros was well satisfied with his first round.	Seve Ballesteros was well satisfied with his first round.	2928338	1471994418319	1471994418455	d	68
5722	61508	Seve Ballesteros was well satisfied with his first round.	Seve Ballesteros was well satisfied with his first round.	2928339	1471994418447	1471994418586	 	32
5722	61508	Seve Ballesteros was well satisfied with his first round.	Seve Ballesteros was well satisfied with his first round.	2928340	1471994418561	1471994418690	w	87
5722	61508	Seve Ballesteros was well satisfied with his first round.	Seve Ballesteros was well satisfied with his first round.	2928350	1471994418655	1471994418799	i	73
5722	61508	Seve Ballesteros was well satisfied with his first round.	Seve Ballesteros was well satisfied with his first round.	2928352	1471994418802	1471994418916	t	84
5722	61508	Seve Ballesteros was well satisfied with his first round.	Seve Ballesteros was well satisfied with his first round.	2928353	1471994418887	1471994418988	h	72
5722	61508	Seve Ballesteros was well satisfied with his first round.	Seve Ballesteros was well satisfied with his first round.	2928354	1471994419090	1471994419194	 	32
5722	61508	Seve Ballesteros was well satisfied with his first round.	Seve Ballesteros was well satisfied with his first round.	2928355	1471994419342	1471994419508	h	72
5722	61508	Seve Ballesteros was well satisfied with his first round.	Seve Ballesteros was well satisfied with his first round.	2928371	1471994419443	1471994419595	i	73
5722	61508	Seve Ballesteros was well satisfied with his first round.	Seve Ballesteros was well satisfied with his first round.	2928374	1471994419584	1471994419733	s	83
5722	61508	Seve Ballesteros was well satisfied with his first round.	Seve Ballesteros was well satisfied with his first round.	2928380	1471994419711	1471994419842	 	32
5722	61508	Seve Ballesteros was well satisfied with his first round.	Seve Ballesteros was well satisfied with his first round.	2928386	1471994419897	1471994419949	f	70
5722	61508	Seve Ballesteros was well satisfied with his first round.	Seve Ballesteros was well satisfied with his first round.	2928391	1471994419966	1471994420106	i	73
5722	61508	Seve Ballesteros was well satisfied with his first round.	Seve Ballesteros was well satisfied with his first round.	2928393	1471994420113	1471994420221	r	82
5722	61508	Seve Ballesteros was well satisfied with his first round.	Seve Ballesteros was well satisfied with his first round.	2928410	1471994420337	1471994420461	s	83
5722	61508	Seve Ballesteros was well satisfied with his first round.	Seve Ballesteros was well satisfied with his first round.	2928414	1471994420472	1471994420559	t	84
5722	61508	Seve Ballesteros was well satisfied with his first round.	Seve Ballesteros was well satisfied with his first round.	2928418	1471994420680	1471994420807	 	32
5722	61508	Seve Ballesteros was well satisfied with his first round.	Seve Ballesteros was well satisfied with his first round.	2928421	1471994420893	1471994420961	d	68
5722	61508	Seve Ballesteros was well satisfied with his first round.	Seve Ballesteros was well satisfied with his first round.	2928424	1471994421225	1471994421326	BKSP	8
5722	61508	Seve Ballesteros was well satisfied with his first round.	Seve Ballesteros was well satisfied with his first round.	2928427	1471994421336	1471994421456	r	82
5722	61508	Seve Ballesteros was well satisfied with his first round.	Seve Ballesteros was well satisfied with his first round.	2928439	1471994421430	1471994421519	o	79
5722	61508	Seve Ballesteros was well satisfied with his first round.	Seve Ballesteros was well satisfied with his first round.	2928441	1471994421610	1471994421708	u	85
5722	61508	Seve Ballesteros was well satisfied with his first round.	Seve Ballesteros was well satisfied with his first round.	2928443	1471994421741	1471994421901	n	78
5722	61508	Seve Ballesteros was well satisfied with his first round.	Seve Ballesteros was well satisfied with his first round.	2928445	1471994421879	1471994422025	d	68
5722	61508	Seve Ballesteros was well satisfied with his first round.	Seve Ballesteros was well satisfied with his first round.	2928446	1471994422028	1471994422132	.	190
5722	61516	England star Paul Gascoigne was one of the recipients of the loans.	England star Paul Gascoigne was one of the recipients of the loans.	2928727	1471994435254	1471994435472	SHIFT	16
5722	61516	England star Paul Gascoigne was one of the recipients of the loans.	England star Paul Gascoigne was one of the recipients of the loans.	2928726	1471994435374	1471994435456	E	69
5722	61516	England star Paul Gascoigne was one of the recipients of the loans.	England star Paul Gascoigne was one of the recipients of the loans.	2928731	1471994435817	1471994435925	n	78
5722	61516	England star Paul Gascoigne was one of the recipients of the loans.	England star Paul Gascoigne was one of the recipients of the loans.	2928734	1471994435961	1471994436062	g	71
5722	61516	England star Paul Gascoigne was one of the recipients of the loans.	England star Paul Gascoigne was one of the recipients of the loans.	2928737	1471994436064	1471994436173	l	76
5722	61516	England star Paul Gascoigne was one of the recipients of the loans.	England star Paul Gascoigne was one of the recipients of the loans.	2928740	1471994436245	1471994436370	a	65
5722	61516	England star Paul Gascoigne was one of the recipients of the loans.	England star Paul Gascoigne was one of the recipients of the loans.	2928758	1471994436381	1471994436487	n	78
5722	61516	England star Paul Gascoigne was one of the recipients of the loans.	England star Paul Gascoigne was one of the recipients of the loans.	2928759	1471994436500	1471994436618	d	68
5722	61516	England star Paul Gascoigne was one of the recipients of the loans.	England star Paul Gascoigne was one of the recipients of the loans.	2928760	1471994436641	1471994436777	 	32
5722	61516	England star Paul Gascoigne was one of the recipients of the loans.	England star Paul Gascoigne was one of the recipients of the loans.	2928761	1471994437089	1471994437227	s	83
5722	61516	England star Paul Gascoigne was one of the recipients of the loans.	England star Paul Gascoigne was one of the recipients of the loans.	2928762	1471994437263	1471994437373	t	84
5722	61516	England star Paul Gascoigne was one of the recipients of the loans.	England star Paul Gascoigne was one of the recipients of the loans.	2928783	1471994437368	1471994437492	a	65
5722	61516	England star Paul Gascoigne was one of the recipients of the loans.	England star Paul Gascoigne was one of the recipients of the loans.	2928787	1471994437485	1471994437569	r	82
5722	61516	England star Paul Gascoigne was one of the recipients of the loans.	England star Paul Gascoigne was one of the recipients of the loans.	2928791	1471994437656	1471994437718	t	84
5722	61516	England star Paul Gascoigne was one of the recipients of the loans.	England star Paul Gascoigne was one of the recipients of the loans.	2928796	1471994437989	1471994438093	BKSP	8
5722	61516	England star Paul Gascoigne was one of the recipients of the loans.	England star Paul Gascoigne was one of the recipients of the loans.	2928800	1471994438193	1471994438320	 	32
5722	61516	England star Paul Gascoigne was one of the recipients of the loans.	England star Paul Gascoigne was one of the recipients of the loans.	2928806	1471994438350	1471994438575	SHIFT	16
5722	61516	England star Paul Gascoigne was one of the recipients of the loans.	England star Paul Gascoigne was one of the recipients of the loans.	2928803	1471994438441	1471994438543	P	80
5722	61516	England star Paul Gascoigne was one of the recipients of the loans.	England star Paul Gascoigne was one of the recipients of the loans.	2928808	1471994438719	1471994438817	u	85
5722	61516	England star Paul Gascoigne was one of the recipients of the loans.	England star Paul Gascoigne was one of the recipients of the loans.	2928833	1471994439058	1471994439155	BKSP	8
5722	61516	England star Paul Gascoigne was one of the recipients of the loans.	England star Paul Gascoigne was one of the recipients of the loans.	2928837	1471994439205	1471994439355	a	65
5722	61516	England star Paul Gascoigne was one of the recipients of the loans.	England star Paul Gascoigne was one of the recipients of the loans.	2928839	1471994439424	1471994439483	u	85
5722	61516	England star Paul Gascoigne was one of the recipients of the loans.	England star Paul Gascoigne was one of the recipients of the loans.	2928840	1471994439646	1471994439731	l	76
5722	61516	England star Paul Gascoigne was one of the recipients of the loans.	England star Paul Gascoigne was one of the recipients of the loans.	2928841	1471994439996	1471994440120	 	32
5722	61516	England star Paul Gascoigne was one of the recipients of the loans.	England star Paul Gascoigne was one of the recipients of the loans.	2928850	1471994440278	1471994440602	SHIFT	16
5722	61516	England star Paul Gascoigne was one of the recipients of the loans.	England star Paul Gascoigne was one of the recipients of the loans.	2928842	1471994440484	1471994440569	G	71
5722	61516	England star Paul Gascoigne was one of the recipients of the loans.	England star Paul Gascoigne was one of the recipients of the loans.	2928851	1471994440710	1471994440826	a	65
5722	61516	England star Paul Gascoigne was one of the recipients of the loans.	England star Paul Gascoigne was one of the recipients of the loans.	2928853	1471994440868	1471994440994	s	83
5722	61516	England star Paul Gascoigne was one of the recipients of the loans.	England star Paul Gascoigne was one of the recipients of the loans.	2928855	1471994441046	1471994441220	c	67
5722	61516	England star Paul Gascoigne was one of the recipients of the loans.	England star Paul Gascoigne was one of the recipients of the loans.	2928859	1471994441167	1471994441262	o	79
5722	61516	England star Paul Gascoigne was one of the recipients of the loans.	England star Paul Gascoigne was one of the recipients of the loans.	2928862	1471994441358	1471994441475	i	73
5722	61516	England star Paul Gascoigne was one of the recipients of the loans.	England star Paul Gascoigne was one of the recipients of the loans.	2928869	1471994441705	1471994441797	g	71
5722	61516	England star Paul Gascoigne was one of the recipients of the loans.	England star Paul Gascoigne was one of the recipients of the loans.	2928872	1471994442093	1471994442218	n	78
5722	61516	England star Paul Gascoigne was one of the recipients of the loans.	England star Paul Gascoigne was one of the recipients of the loans.	2928874	1471994442208	1471994442328	e	69
5722	61516	England star Paul Gascoigne was one of the recipients of the loans.	England star Paul Gascoigne was one of the recipients of the loans.	2928876	1471994442332	1471994442456	 	32
5722	61516	England star Paul Gascoigne was one of the recipients of the loans.	England star Paul Gascoigne was one of the recipients of the loans.	2928878	1471994442463	1471994442551	w	87
5722	61516	England star Paul Gascoigne was one of the recipients of the loans.	England star Paul Gascoigne was one of the recipients of the loans.	2928882	1471994442642	1471994442766	a	65
5722	61516	England star Paul Gascoigne was one of the recipients of the loans.	England star Paul Gascoigne was one of the recipients of the loans.	2928883	1471994442779	1471994442897	s	83
5722	61516	England star Paul Gascoigne was one of the recipients of the loans.	England star Paul Gascoigne was one of the recipients of the loans.	2928884	1471994442812	1471994442913	 	32
5722	61516	England star Paul Gascoigne was one of the recipients of the loans.	England star Paul Gascoigne was one of the recipients of the loans.	2928885	1471994442949	1471994443056	o	79
5722	61516	England star Paul Gascoigne was one of the recipients of the loans.	England star Paul Gascoigne was one of the recipients of the loans.	2928886	1471994443080	1471994443181	n	78
5722	61516	England star Paul Gascoigne was one of the recipients of the loans.	England star Paul Gascoigne was one of the recipients of the loans.	2928887	1471994443209	1471994443308	e	69
5722	61516	England star Paul Gascoigne was one of the recipients of the loans.	England star Paul Gascoigne was one of the recipients of the loans.	2928888	1471994443273	1471994443367	 	32
5722	61516	England star Paul Gascoigne was one of the recipients of the loans.	England star Paul Gascoigne was one of the recipients of the loans.	2928889	1471994443413	1471994443527	o	79
5722	61516	England star Paul Gascoigne was one of the recipients of the loans.	England star Paul Gascoigne was one of the recipients of the loans.	2928890	1471994443498	1471994443583	f	70
5722	61516	England star Paul Gascoigne was one of the recipients of the loans.	England star Paul Gascoigne was one of the recipients of the loans.	2928891	1471994443593	1471994443733	 	32
5722	61516	England star Paul Gascoigne was one of the recipients of the loans.	England star Paul Gascoigne was one of the recipients of the loans.	2928898	1471994443717	1471994443808	t	84
5722	61516	England star Paul Gascoigne was one of the recipients of the loans.	England star Paul Gascoigne was one of the recipients of the loans.	2928900	1471994443818	1471994443940	h	72
5722	61516	England star Paul Gascoigne was one of the recipients of the loans.	England star Paul Gascoigne was one of the recipients of the loans.	2928902	1471994443933	1471994444035	e	69
5722	61516	England star Paul Gascoigne was one of the recipients of the loans.	England star Paul Gascoigne was one of the recipients of the loans.	2928904	1471994444024	1471994444139	 	32
5722	61516	England star Paul Gascoigne was one of the recipients of the loans.	England star Paul Gascoigne was one of the recipients of the loans.	2928905	1471994444093	1471994444198	r	82
5722	61516	England star Paul Gascoigne was one of the recipients of the loans.	England star Paul Gascoigne was one of the recipients of the loans.	2928906	1471994444256	1471994444351	e	69
5722	61516	England star Paul Gascoigne was one of the recipients of the loans.	England star Paul Gascoigne was one of the recipients of the loans.	2928919	1471994444435	1471994444548	c	67
5722	61516	England star Paul Gascoigne was one of the recipients of the loans.	England star Paul Gascoigne was one of the recipients of the loans.	2928922	1471994444509	1471994444601	i	73
5722	61516	England star Paul Gascoigne was one of the recipients of the loans.	England star Paul Gascoigne was one of the recipients of the loans.	2928925	1471994444676	1471994444751	p	80
5722	61516	England star Paul Gascoigne was one of the recipients of the loans.	England star Paul Gascoigne was one of the recipients of the loans.	2928928	1471994445197	1471994445364	e	69
5722	61516	England star Paul Gascoigne was one of the recipients of the loans.	England star Paul Gascoigne was one of the recipients of the loans.	2928931	1471994445549	1471994445633	BKSP	8
5722	61516	England star Paul Gascoigne was one of the recipients of the loans.	England star Paul Gascoigne was one of the recipients of the loans.	2928933	1471994445721	1471994445825	i	73
5722	61516	England star Paul Gascoigne was one of the recipients of the loans.	England star Paul Gascoigne was one of the recipients of the loans.	2928934	1471994445812	1471994445943	e	69
5722	61516	England star Paul Gascoigne was one of the recipients of the loans.	England star Paul Gascoigne was one of the recipients of the loans.	2928935	1471994445910	1471994446034	n	78
5722	61516	England star Paul Gascoigne was one of the recipients of the loans.	England star Paul Gascoigne was one of the recipients of the loans.	2928936	1471994446028	1471994446129	t	84
5722	61516	England star Paul Gascoigne was one of the recipients of the loans.	England star Paul Gascoigne was one of the recipients of the loans.	2928937	1471994446271	1471994446403	s	83
5722	61516	England star Paul Gascoigne was one of the recipients of the loans.	England star Paul Gascoigne was one of the recipients of the loans.	2928938	1471994446399	1471994446523	 	32
5722	61516	England star Paul Gascoigne was one of the recipients of the loans.	England star Paul Gascoigne was one of the recipients of the loans.	2928939	1471994446552	1471994446679	o	79
5722	61516	England star Paul Gascoigne was one of the recipients of the loans.	England star Paul Gascoigne was one of the recipients of the loans.	2928944	1471994446647	1471994446772	f	70
5722	61516	England star Paul Gascoigne was one of the recipients of the loans.	England star Paul Gascoigne was one of the recipients of the loans.	2928946	1471994446791	1471994446889	 	32
5722	61516	England star Paul Gascoigne was one of the recipients of the loans.	England star Paul Gascoigne was one of the recipients of the loans.	2928948	1471994446883	1471994446977	t	84
5722	61516	England star Paul Gascoigne was one of the recipients of the loans.	England star Paul Gascoigne was one of the recipients of the loans.	2928950	1471994446971	1471994447079	h	72
5722	61516	England star Paul Gascoigne was one of the recipients of the loans.	England star Paul Gascoigne was one of the recipients of the loans.	2928952	1471994447101	1471994447205	e	69
5722	61516	England star Paul Gascoigne was one of the recipients of the loans.	England star Paul Gascoigne was one of the recipients of the loans.	2928962	1471994447160	1471994447258	 	32
5722	61516	England star Paul Gascoigne was one of the recipients of the loans.	England star Paul Gascoigne was one of the recipients of the loans.	2928963	1471994447300	1471994447379	l	76
5722	61516	England star Paul Gascoigne was one of the recipients of the loans.	England star Paul Gascoigne was one of the recipients of the loans.	2928964	1471994447451	1471994447552	o	79
5722	61516	England star Paul Gascoigne was one of the recipients of the loans.	England star Paul Gascoigne was one of the recipients of the loans.	2928965	1471994447523	1471994447667	a	65
5722	61516	England star Paul Gascoigne was one of the recipients of the loans.	England star Paul Gascoigne was one of the recipients of the loans.	2928966	1471994447660	1471994447787	n	78
5722	61516	England star Paul Gascoigne was one of the recipients of the loans.	England star Paul Gascoigne was one of the recipients of the loans.	2928967	1471994447768	1471994447896	s	83
5722	61516	England star Paul Gascoigne was one of the recipients of the loans.	England star Paul Gascoigne was one of the recipients of the loans.	2928968	1471994447941	1471994448055	.	190
5722	61527	They are still burning.	They are still burning.	2929094	1471994453699	1471994453972	SHIFT	16
5722	61527	They are still burning.	They are still burning.	2929092	1471994453868	1471994453945	T	84
5722	61527	They are still burning.	They are still burning.	2929097	1471994454041	1471994454148	h	72
5722	61527	They are still burning.	They are still burning.	2929098	1471994454168	1471994454266	e	69
5722	61527	They are still burning.	They are still burning.	2929099	1471994454275	1471994454357	y	89
5722	61527	They are still burning.	They are still burning.	2929100	1471994454423	1471994454547	 	32
5722	61527	They are still burning.	They are still burning.	2929108	1471994454538	1471994454664	a	65
5722	61527	They are still burning.	They are still burning.	2929109	1471994454638	1471994454724	r	82
5722	61527	They are still burning.	They are still burning.	2929110	1471994454773	1471994454858	e	69
5722	61527	They are still burning.	They are still burning.	2929111	1471994454865	1471994454985	 	32
5722	61527	They are still burning.	They are still burning.	2929113	1471994454996	1471994455103	s	83
5722	61527	They are still burning.	They are still burning.	2929115	1471994455241	1471994455336	t	84
5722	61527	They are still burning.	They are still burning.	2929129	1471994455343	1471994455431	i	73
5722	61527	They are still burning.	They are still burning.	2929130	1471994455509	1471994455598	l	76
5722	61527	They are still burning.	They are still burning.	2929131	1471994455650	1471994455725	l	76
5722	61527	They are still burning.	They are still burning.	2929132	1471994455803	1471994455898	 	32
5722	61527	They are still burning.	They are still burning.	2929133	1471994455974	1471994456090	b	66
5722	61527	They are still burning.	They are still burning.	2929140	1471994456042	1471994456178	u	85
5722	61527	They are still burning.	They are still burning.	2929142	1471994456185	1471994456279	r	82
5722	61527	They are still burning.	They are still burning.	2929144	1471994456260	1471994456410	n	78
5722	61527	They are still burning.	They are still burning.	2929146	1471994456365	1471994456492	i	73
5722	61527	They are still burning.	They are still burning.	2929148	1471994456515	1471994456698	n	78
5722	61527	They are still burning.	They are still burning.	2929149	1471994456642	1471994456730	g	71
5722	61527	They are still burning.	They are still burning.	2929150	1471994456809	1471994456930	.	190
5722	61530	Please make sure Bob Kelley is on the list.	Please make sure Bob Kelley is on the list.	2929293	1471994464183	1471994464375	SHIFT	16
5722	61530	Please make sure Bob Kelley is on the list.	Please make sure Bob Kelley is on the list.	2929295	1471994464313	1471994464391	P	80
5722	61530	Please make sure Bob Kelley is on the list.	Please make sure Bob Kelley is on the list.	2929296	1471994464473	1471994464571	l	76
5722	61530	Please make sure Bob Kelley is on the list.	Please make sure Bob Kelley is on the list.	2929297	1471994464591	1471994464695	e	69
5722	61530	Please make sure Bob Kelley is on the list.	Please make sure Bob Kelley is on the list.	2929298	1471994464788	1471994464925	a	65
5722	61530	Please make sure Bob Kelley is on the list.	Please make sure Bob Kelley is on the list.	2929299	1471994464987	1471994465104	s	83
5722	61530	Please make sure Bob Kelley is on the list.	Please make sure Bob Kelley is on the list.	2929304	1471994465176	1471994465273	e	69
5722	61530	Please make sure Bob Kelley is on the list.	Please make sure Bob Kelley is on the list.	2929308	1471994465242	1471994465300	 	32
5722	61530	Please make sure Bob Kelley is on the list.	Please make sure Bob Kelley is on the list.	2929312	1471994465366	1471994465486	m	77
5722	61530	Please make sure Bob Kelley is on the list.	Please make sure Bob Kelley is on the list.	2929316	1471994465470	1471994465588	a	65
5722	61530	Please make sure Bob Kelley is on the list.	Please make sure Bob Kelley is on the list.	2929337	1471994465533	1471994465643	k	75
5722	61530	Please make sure Bob Kelley is on the list.	Please make sure Bob Kelley is on the list.	2929338	1471994465680	1471994465783	e	69
5722	61530	Please make sure Bob Kelley is on the list.	Please make sure Bob Kelley is on the list.	2929339	1471994465765	1471994465895	 	32
5722	61530	Please make sure Bob Kelley is on the list.	Please make sure Bob Kelley is on the list.	2929340	1471994466033	1471994466163	s	83
5722	61530	Please make sure Bob Kelley is on the list.	Please make sure Bob Kelley is on the list.	2929341	1471994466144	1471994466245	u	85
5722	61530	Please make sure Bob Kelley is on the list.	Please make sure Bob Kelley is on the list.	2929342	1471994466267	1471994466368	r	82
5722	61530	Please make sure Bob Kelley is on the list.	Please make sure Bob Kelley is on the list.	2929348	1471994466424	1471994466532	e	69
5722	61530	Please make sure Bob Kelley is on the list.	Please make sure Bob Kelley is on the list.	2929349	1471994466496	1471994466587	 	32
5722	61530	Please make sure Bob Kelley is on the list.	Please make sure Bob Kelley is on the list.	2929350	1471994466650	1471994466758	b	66
5722	61530	Please make sure Bob Kelley is on the list.	Please make sure Bob Kelley is on the list.	2929351	1471994467044	1471994467128	BKSP	8
5722	61530	Please make sure Bob Kelley is on the list.	Please make sure Bob Kelley is on the list.	2929353	1471994467125	1471994467357	SHIFT	16
5722	61530	Please make sure Bob Kelley is on the list.	Please make sure Bob Kelley is on the list.	2929352	1471994467246	1471994467331	B	66
5722	61530	Please make sure Bob Kelley is on the list.	Please make sure Bob Kelley is on the list.	2929354	1471994467413	1471994467508	o	79
5722	61530	Please make sure Bob Kelley is on the list.	Please make sure Bob Kelley is on the list.	2929360	1471994467576	1471994467651	b	66
5722	61530	Please make sure Bob Kelley is on the list.	Please make sure Bob Kelley is on the list.	2929362	1471994467753	1471994467847	 	32
5722	61530	Please make sure Bob Kelley is on the list.	Please make sure Bob Kelley is on the list.	2929366	1471994467841	1471994468019	SHIFT	16
5722	61530	Please make sure Bob Kelley is on the list.	Please make sure Bob Kelley is on the list.	2929364	1471994467936	1471994468018	K	75
5722	61530	Please make sure Bob Kelley is on the list.	Please make sure Bob Kelley is on the list.	2929368	1471994468149	1471994468234	e	69
5722	61530	Please make sure Bob Kelley is on the list.	Please make sure Bob Kelley is on the list.	2929370	1471994468247	1471994468325	l	76
5722	61530	Please make sure Bob Kelley is on the list.	Please make sure Bob Kelley is on the list.	2929382	1471994468371	1471994468466	l	76
5722	61530	Please make sure Bob Kelley is on the list.	Please make sure Bob Kelley is on the list.	2929384	1471994468532	1471994468645	e	69
5722	61530	Please make sure Bob Kelley is on the list.	Please make sure Bob Kelley is on the list.	2929386	1471994468669	1471994468766	y	89
5722	61530	Please make sure Bob Kelley is on the list.	Please make sure Bob Kelley is on the list.	2929388	1471994468873	1471994468984	 	32
5722	61530	Please make sure Bob Kelley is on the list.	Please make sure Bob Kelley is on the list.	2929389	1471994469120	1471994469219	i	73
5722	61530	Please make sure Bob Kelley is on the list.	Please make sure Bob Kelley is on the list.	2929397	1471994469211	1471994469338	s	83
5722	61530	Please make sure Bob Kelley is on the list.	Please make sure Bob Kelley is on the list.	2929398	1471994469293	1471994469403	 	32
5722	61530	Please make sure Bob Kelley is on the list.	Please make sure Bob Kelley is on the list.	2929400	1471994469436	1471994469524	o	79
5722	61530	Please make sure Bob Kelley is on the list.	Please make sure Bob Kelley is on the list.	2929401	1471994469557	1471994469652	n	78
5722	61530	Please make sure Bob Kelley is on the list.	Please make sure Bob Kelley is on the list.	2929402	1471994469717	1471994469838	 	32
5722	61530	Please make sure Bob Kelley is on the list.	Please make sure Bob Kelley is on the list.	2929403	1471994469780	1471994469877	t	84
5722	61530	Please make sure Bob Kelley is on the list.	Please make sure Bob Kelley is on the list.	2929404	1471994469894	1471994469995	h	72
5722	61530	Please make sure Bob Kelley is on the list.	Please make sure Bob Kelley is on the list.	2929405	1471994469998	1471994470106	e	69
5722	61530	Please make sure Bob Kelley is on the list.	Please make sure Bob Kelley is on the list.	2929406	1471994470081	1471994470192	 	32
5722	61530	Please make sure Bob Kelley is on the list.	Please make sure Bob Kelley is on the list.	2929407	1471994470237	1471994470319	l	76
5722	61530	Please make sure Bob Kelley is on the list.	Please make sure Bob Kelley is on the list.	2929408	1471994470391	1471994470472	i	73
5722	61530	Please make sure Bob Kelley is on the list.	Please make sure Bob Kelley is on the list.	2929413	1471994470482	1471994470590	s	83
5722	61530	Please make sure Bob Kelley is on the list.	Please make sure Bob Kelley is on the list.	2929414	1471994470695	1471994470790	t	84
5722	61530	Please make sure Bob Kelley is on the list.	Please make sure Bob Kelley is on the list.	2929415	1471994470812	1471994470917	.	190
5722	61538	Every Enron employee has an internet email address.	Every Eron employee has an inyernet email affres..	2929551	1471994478115	1471994478372	SHIFT	16
5722	61538	Every Enron employee has an internet email address.	Every Eron employee has an inyernet email affres..	2929549	1471994478272	1471994478333	E	69
5722	61538	Every Enron employee has an internet email address.	Every Eron employee has an inyernet email affres..	2929553	1471994478521	1471994478626	v	86
5722	61538	Every Enron employee has an internet email address.	Every Eron employee has an inyernet email affres..	2929555	1471994478619	1471994478769	e	69
5722	61538	Every Enron employee has an internet email address.	Every Eron employee has an inyernet email affres..	2929557	1471994478801	1471994478895	r	82
5722	61538	Every Enron employee has an internet email address.	Every Eron employee has an inyernet email affres..	2929579	1471994478884	1471994478978	y	89
5722	61538	Every Enron employee has an internet email address.	Every Eron employee has an inyernet email affres..	2929580	1471994479043	1471994479174	 	32
5722	61538	Every Enron employee has an internet email address.	Every Eron employee has an inyernet email affres..	2929582	1471994479177	1471994479385	SHIFT	16
5722	61538	Every Enron employee has an internet email address.	Every Eron employee has an inyernet email affres..	2929581	1471994479288	1471994479376	E	69
5722	61538	Every Enron employee has an internet email address.	Every Eron employee has an inyernet email affres..	2929583	1471994479599	1471994479726	r	82
5722	61538	Every Enron employee has an internet email address.	Every Eron employee has an inyernet email affres..	2929584	1471994479756	1471994479909	n	78
5722	61538	Every Enron employee has an internet email address.	Every Eron employee has an inyernet email affres..	2929585	1471994480135	1471994480252	BKSP	8
5722	61538	Every Enron employee has an internet email address.	Every Eron employee has an inyernet email affres..	2929586	1471994480285	1471994480398	r	82
5722	61538	Every Enron employee has an internet email address.	Every Eron employee has an inyernet email affres..	2929607	1471994480385	1471994480503	o	79
5722	61538	Every Enron employee has an internet email address.	Every Eron employee has an inyernet email affres..	2929608	1471994480549	1471994480646	n	78
5722	61538	Every Enron employee has an internet email address.	Every Eron employee has an inyernet email affres..	2929609	1471994480827	1471994480907	BKSP	8
5722	61538	Every Enron employee has an internet email address.	Every Eron employee has an inyernet email affres..	2929610	1471994480964	1471994481068	BKSP	8
5722	61538	Every Enron employee has an internet email address.	Every Eron employee has an inyernet email affres..	2929611	1471994481262	1471994481415	o	79
5722	61538	Every Enron employee has an internet email address.	Every Eron employee has an inyernet email affres..	2929612	1471994481451	1471994481549	n	78
5722	61538	Every Enron employee has an internet email address.	Every Eron employee has an inyernet email affres..	2929613	1471994481756	1471994481850	BKSP	8
5722	61538	Every Enron employee has an internet email address.	Every Eron employee has an inyernet email affres..	2929614	1471994481906	1471994481991	BKSP	8
5722	61538	Every Enron employee has an internet email address.	Every Eron employee has an inyernet email affres..	2929615	1471994482037	1471994482128	BKSP	8
5722	61538	Every Enron employee has an internet email address.	Every Eron employee has an inyernet email affres..	2929616	1471994482207	1471994482298	o	79
5722	61538	Every Enron employee has an internet email address.	Every Eron employee has an inyernet email affres..	2929617	1471994482344	1471994482418	n	78
5722	61538	Every Enron employee has an internet email address.	Every Eron employee has an inyernet email affres..	2929618	1471994482491	1471994482605	 	32
5722	61538	Every Enron employee has an internet email address.	Every Eron employee has an inyernet email affres..	2929619	1471994482615	1471994482728	e	69
5722	61538	Every Enron employee has an internet email address.	Every Eron employee has an inyernet email affres..	2929620	1471994482670	1471994482798	m	77
5722	61538	Every Enron employee has an internet email address.	Every Eron employee has an inyernet email affres..	2929621	1471994482847	1471994482948	p	80
5722	61538	Every Enron employee has an internet email address.	Every Eron employee has an inyernet email affres..	2929622	1471994483027	1471994483125	l	76
5722	61538	Every Enron employee has an internet email address.	Every Eron employee has an inyernet email affres..	2929658	1471994483581	1471994483741	u	85
5722	61538	Every Enron employee has an internet email address.	Every Eron employee has an inyernet email affres..	2929660	1471994483894	1471994483989	BKSP	8
5722	61538	Every Enron employee has an internet email address.	Every Eron employee has an inyernet email affres..	2929662	1471994484061	1471994484149	o	79
5722	61538	Every Enron employee has an internet email address.	Every Eron employee has an inyernet email affres..	2929663	1471994484305	1471994484409	y	89
5722	61538	Every Enron employee has an internet email address.	Every Eron employee has an inyernet email affres..	2929664	1471994484503	1471994484585	e	69
5722	61538	Every Enron employee has an internet email address.	Every Eron employee has an inyernet email affres..	2929666	1471994484653	1471994484764	e	69
5722	61538	Every Enron employee has an internet email address.	Every Eron employee has an inyernet email affres..	2929672	1471994484797	1471994484931	 	32
5722	61538	Every Enron employee has an internet email address.	Every Eron employee has an inyernet email affres..	2929673	1471994485047	1471994485162	h	72
5722	61538	Every Enron employee has an internet email address.	Every Eron employee has an inyernet email affres..	2929674	1471994485165	1471994485289	a	65
5722	61538	Every Enron employee has an internet email address.	Every Eron employee has an inyernet email affres..	2929675	1471994485305	1471994485413	s	83
5722	61538	Every Enron employee has an internet email address.	Every Eron employee has an inyernet email affres..	2929691	1471994485358	1471994485485	 	32
5722	61538	Every Enron employee has an internet email address.	Every Eron employee has an inyernet email affres..	2929692	1471994485475	1471994485645	a	65
5722	61538	Every Enron employee has an internet email address.	Every Eron employee has an inyernet email affres..	2929693	1471994485599	1471994485694	n	78
5722	61538	Every Enron employee has an internet email address.	Every Eron employee has an inyernet email affres..	2929694	1471994485766	1471994485870	 	32
5722	61538	Every Enron employee has an internet email address.	Every Eron employee has an inyernet email affres..	2929695	1471994485913	1471994486008	i	73
5722	61538	Every Enron employee has an internet email address.	Every Eron employee has an inyernet email affres..	2929696	1471994486575	1471994486685	n	78
5722	61538	Every Enron employee has an internet email address.	Every Eron employee has an inyernet email affres..	2929707	1471994486782	1471994486874	y	89
5722	61538	Every Enron employee has an internet email address.	Every Eron employee has an inyernet email affres..	2929708	1471994486886	1471994487014	e	69
5722	61538	Every Enron employee has an internet email address.	Every Eron employee has an inyernet email affres..	2929709	1471994487054	1471994487165	r	82
5722	61538	Every Enron employee has an internet email address.	Every Eron employee has an inyernet email affres..	2929710	1471994487174	1471994487210	n	78
5722	61538	Every Enron employee has an internet email address.	Every Eron employee has an inyernet email affres..	2929711	1471994487356	1471994487503	e	69
5722	61538	Every Enron employee has an internet email address.	Every Eron employee has an inyernet email affres..	2929725	1471994487578	1471994487697	t	84
5722	61538	Every Enron employee has an internet email address.	Every Eron employee has an inyernet email affres..	2929726	1471994487689	1471994487827	 	32
5722	61538	Every Enron employee has an internet email address.	Every Eron employee has an inyernet email affres..	2929727	1471994487941	1471994488049	e	69
5722	61538	Every Enron employee has an internet email address.	Every Eron employee has an inyernet email affres..	2929728	1471994488055	1471994488195	m	77
5722	61538	Every Enron employee has an internet email address.	Every Eron employee has an inyernet email affres..	2929729	1471994488205	1471994488323	a	65
5722	61538	Every Enron employee has an internet email address.	Every Eron employee has an inyernet email affres..	2929744	1471994488297	1471994488402	i	73
5722	61538	Every Enron employee has an internet email address.	Every Eron employee has an inyernet email affres..	2929747	1471994488464	1471994488559	l	76
5722	61538	Every Enron employee has an internet email address.	Every Eron employee has an inyernet email affres..	2929749	1471994488618	1471994488739	 	32
5722	61538	Every Enron employee has an internet email address.	Every Eron employee has an inyernet email affres..	2929752	1471994488850	1471994488967	a	65
5722	61538	Every Enron employee has an internet email address.	Every Eron employee has an inyernet email affres..	2929754	1471994489084	1471994489163	f	70
5722	61538	Every Enron employee has an internet email address.	Every Eron employee has an inyernet email affres..	2929755	1471994489254	1471994489358	f	70
5722	61538	Every Enron employee has an internet email address.	Every Eron employee has an inyernet email affres..	2929777	1471994489449	1471994489547	r	82
5722	61538	Every Enron employee has an internet email address.	Every Eron employee has an inyernet email affres..	2929779	1471994489628	1471994489740	e	69
5722	61538	Every Enron employee has an internet email address.	Every Eron employee has an inyernet email affres..	2929783	1471994489811	1471994489937	s	83
5722	61538	Every Enron employee has an internet email address.	Every Eron employee has an inyernet email affres..	2929785	1471994489919	1471994490034	.	190
5722	61538	Every Enron employee has an internet email address.	Every Eron employee has an inyernet email affres..	2929786	1471994490080	1471994490191	.	190
5722	61546	The mud was their idea.	The mud was their idea.	2929892	1471994494121	1471994494327	SHIFT	16
5722	61546	The mud was their idea.	The mud was their idea.	2929894	1471994494255	1471994494350	T	84
5722	61546	The mud was their idea.	The mud was their idea.	2929895	1471994494425	1471994494526	h	72
5722	61546	The mud was their idea.	The mud was their idea.	2929896	1471994494513	1471994494598	e	69
5722	61546	The mud was their idea.	The mud was their idea.	2929898	1471994494621	1471994494715	 	32
5722	61546	The mud was their idea.	The mud was their idea.	2929900	1471994494771	1471994494879	m	77
5722	61546	The mud was their idea.	The mud was their idea.	2929910	1471994494922	1471994495032	u	85
5722	61546	The mud was their idea.	The mud was their idea.	2929911	1471994495030	1471994495135	d	68
5722	61546	The mud was their idea.	The mud was their idea.	2929913	1471994495127	1471994495248	 	32
5722	61546	The mud was their idea.	The mud was their idea.	2929915	1471994495242	1471994495346	w	87
5722	61546	The mud was their idea.	The mud was their idea.	2929917	1471994495422	1471994495543	a	65
5722	61546	The mud was their idea.	The mud was their idea.	2929921	1471994495599	1471994495719	s	83
5722	61546	The mud was their idea.	The mud was their idea.	2929923	1471994495704	1471994495838	 	32
5722	61546	The mud was their idea.	The mud was their idea.	2929926	1471994495941	1471994496042	t	84
5722	61546	The mud was their idea.	The mud was their idea.	2929930	1471994496048	1471994496153	h	72
5722	61546	The mud was their idea.	The mud was their idea.	2929957	1471994496148	1471994496291	e	69
5722	61546	The mud was their idea.	The mud was their idea.	2929959	1471994496260	1471994496362	i	73
5722	61546	The mud was their idea.	The mud was their idea.	2929961	1471994496352	1471994496442	r	82
5722	61546	The mud was their idea.	The mud was their idea.	2929963	1471994496449	1471994496566	 	32
5722	61546	The mud was their idea.	The mud was their idea.	2929965	1471994496710	1471994496802	i	73
5722	61546	The mud was their idea.	The mud was their idea.	2929968	1471994496816	1471994496920	d	68
5722	61546	The mud was their idea.	The mud was their idea.	2929974	1471994496973	1471994497067	e	69
5722	61546	The mud was their idea.	The mud was their idea.	2929975	1471994497164	1471994497262	a	65
5722	61546	The mud was their idea.	The mud was their idea.	2929976	1471994497278	1471994497373	.	190
