PARTICIPANT_ID	TEST_SECTION_ID	SENTENCE	USER_INPUT	KEYSTROKE_ID	PRESS_TIME	RELEASE_TIME	LETTER	KEYCODE
5801	62106	Ladies, here's the revised September purchase.	Ladies, here's the revised September purchase.	2955620	1471995115513	1471995115708	SHIFT	16
5801	62106	Ladies, here's the revised September purchase.	Ladies, here's the revised September purchase.	2955623	1471995115660	1471995115788	L	76
5801	62106	Ladies, here's the revised September purchase.	Ladies, here's the revised September purchase.	2955629	1471995115796	1471995115884	a	65
5801	62106	Ladies, here's the revised September purchase.	Ladies, here's the revised September purchase.	2955632	1471995115972	1471995116072	d	68
5801	62106	Ladies, here's the revised September purchase.	Ladies, here's the revised September purchase.	2955639	1471995116088	1471995116172	i	73
5801	62106	Ladies, here's the revised September purchase.	Ladies, here's the revised September purchase.	2955669	1471995116168	1471995116248	e	69
5801	62106	Ladies, here's the revised September purchase.	Ladies, here's the revised September purchase.	2955674	1471995116369	1471995116497	s	83
5801	62106	Ladies, here's the revised September purchase.	Ladies, here's the revised September purchase.	2955680	1471995116501	1471995116602	,	188
5801	62106	Ladies, here's the revised September purchase.	Ladies, here's the revised September purchase.	2955685	1471995116585	1471995116689	 	32
5801	62106	Ladies, here's the revised September purchase.	Ladies, here's the revised September purchase.	2955689	1471995116799	1471995116899	h	72
5801	62106	Ladies, here's the revised September purchase.	Ladies, here's the revised September purchase.	2955693	1471995116953	1471995117041	e	69
5801	62106	Ladies, here's the revised September purchase.	Ladies, here's the revised September purchase.	2955712	1471995117126	1471995117198	r	82
5801	62106	Ladies, here's the revised September purchase.	Ladies, here's the revised September purchase.	2955716	1471995117304	1471995117344	e	69
5801	62106	Ladies, here's the revised September purchase.	Ladies, here's the revised September purchase.	2955720	1471995117496	1471995117612	;	186
5801	62106	Ladies, here's the revised September purchase.	Ladies, here's the revised September purchase.	2955724	1471995117664	1471995117760	s	83
5801	62106	Ladies, here's the revised September purchase.	Ladies, here's the revised September purchase.	2955730	1471995117772	1471995117884	 	32
5801	62106	Ladies, here's the revised September purchase.	Ladies, here's the revised September purchase.	2955834	1471995118262	1471995118330	BKSP	8
5801	62106	Ladies, here's the revised September purchase.	Ladies, here's the revised September purchase.	2955836	1471995118406	1471995118474	BKSP	8
5801	62106	Ladies, here's the revised September purchase.	Ladies, here's the revised September purchase.	2955838	1471995118540	1471995118615	BKSP	8
5801	62106	Ladies, here's the revised September purchase.	Ladies, here's the revised September purchase.	2955841	1471995118921	1471995118969	;	186
5801	62106	Ladies, here's the revised September purchase.	Ladies, here's the revised September purchase.	2955844	1471995119022	1471995119102	s	83
5801	62106	Ladies, here's the revised September purchase.	Ladies, here's the revised September purchase.	2955846	1471995119462	1471995119526	BKSP	8
5801	62106	Ladies, here's the revised September purchase.	Ladies, here's the revised September purchase.	2955848	1471995119572	1471995119652	BKSP	8
5801	62106	Ladies, here's the revised September purchase.	Ladies, here's the revised September purchase.	2955851	1471995120056	1471995120144	'	222
5801	62106	Ladies, here's the revised September purchase.	Ladies, here's the revised September purchase.	2955853	1471995120163	1471995120259	s	83
5801	62106	Ladies, here's the revised September purchase.	Ladies, here's the revised September purchase.	2955855	1471995120294	1471995120386	 	32
5801	62106	Ladies, here's the revised September purchase.	Ladies, here's the revised September purchase.	2955872	1471995120419	1471995120510	t	84
5801	62106	Ladies, here's the revised September purchase.	Ladies, here's the revised September purchase.	2955876	1471995120503	1471995120591	h	72
5801	62106	Ladies, here's the revised September purchase.	Ladies, here's the revised September purchase.	2955880	1471995120618	1471995120713	e	69
5801	62106	Ladies, here's the revised September purchase.	Ladies, here's the revised September purchase.	2955884	1471995120710	1471995120820	 	32
5801	62106	Ladies, here's the revised September purchase.	Ladies, here's the revised September purchase.	2955885	1471995121116	1471995121192	r	82
5801	62106	Ladies, here's the revised September purchase.	Ladies, here's the revised September purchase.	2955897	1471995121281	1471995121345	e	69
5801	62106	Ladies, here's the revised September purchase.	Ladies, here's the revised September purchase.	2955899	1471995121325	1471995121472	v	86
5801	62106	Ladies, here's the revised September purchase.	Ladies, here's the revised September purchase.	2955901	1471995121441	1471995121541	i	73
5801	62106	Ladies, here's the revised September purchase.	Ladies, here's the revised September purchase.	2955903	1471995121626	1471995121722	s	83
5801	62106	Ladies, here's the revised September purchase.	Ladies, here's the revised September purchase.	2955904	1471995121802	1471995121886	e	69
5801	62106	Ladies, here's the revised September purchase.	Ladies, here's the revised September purchase.	2955960	1471995121950	1471995122046	d	68
5801	62106	Ladies, here's the revised September purchase.	Ladies, here's the revised September purchase.	2955962	1471995122050	1471995122133	 	32
5801	62106	Ladies, here's the revised September purchase.	Ladies, here's the revised September purchase.	2955966	1471995122185	1471995122330	SHIFT	16
5801	62106	Ladies, here's the revised September purchase.	Ladies, here's the revised September purchase.	2955969	1471995122274	1471995122361	S	83
5801	62106	Ladies, here's the revised September purchase.	Ladies, here's the revised September purchase.	2955971	1471995122801	1471995122881	e	69
5801	62106	Ladies, here's the revised September purchase.	Ladies, here's the revised September purchase.	2955979	1471995122909	1471995123017	p	80
5801	62106	Ladies, here's the revised September purchase.	Ladies, here's the revised September purchase.	2956010	1471995123324	1471995123386	t	84
5801	62106	Ladies, here's the revised September purchase.	Ladies, here's the revised September purchase.	2956014	1471995123503	1471995123594	e	69
5801	62106	Ladies, here's the revised September purchase.	Ladies, here's the revised September purchase.	2956017	1471995123611	1471995123702	m	77
5801	62106	Ladies, here's the revised September purchase.	Ladies, here's the revised September purchase.	2956020	1471995123800	1471995123895	b	66
5801	62106	Ladies, here's the revised September purchase.	Ladies, here's the revised September purchase.	2956080	1471995123892	1471995123968	e	69
5801	62106	Ladies, here's the revised September purchase.	Ladies, here's the revised September purchase.	2956082	1471995124038	1471995124138	r	82
5801	62106	Ladies, here's the revised September purchase.	Ladies, here's the revised September purchase.	2956086	1471995124138	1471995124234	 	32
5801	62106	Ladies, here's the revised September purchase.	Ladies, here's the revised September purchase.	2956088	1471995124466	1471995124581	p	80
5801	62106	Ladies, here's the revised September purchase.	Ladies, here's the revised September purchase.	2956090	1471995124976	1471995125060	u	85
5801	62106	Ladies, here's the revised September purchase.	Ladies, here's the revised September purchase.	2956093	1471995125077	1471995125145	r	82
5801	62106	Ladies, here's the revised September purchase.	Ladies, here's the revised September purchase.	2956130	1471995125390	1471995125458	c	67
5801	62106	Ladies, here's the revised September purchase.	Ladies, here's the revised September purchase.	2956137	1471995125506	1471995125585	h	72
5801	62106	Ladies, here's the revised September purchase.	Ladies, here's the revised September purchase.	2956142	1471995125613	1471995125701	a	65
5801	62106	Ladies, here's the revised September purchase.	Ladies, here's the revised September purchase.	2956147	1471995125819	1471995125894	s	83
5801	62106	Ladies, here's the revised September purchase.	Ladies, here's the revised September purchase.	2956152	1471995125991	1471995126083	e	69
5801	62106	Ladies, here's the revised September purchase.	Ladies, here's the revised September purchase.	2956178	1471995126124	1471995126247	.	190
5801	62122	I was out Thurs.	I was out Thurs.	2956304	1471995128224	1471995128408	SHIFT	16
5801	62122	I was out Thurs.	I was out Thurs.	2956306	1471995128361	1471995128473	I	73
5801	62122	I was out Thurs.	I was out Thurs.	2956308	1471995128598	1471995128697	 	32
5801	62122	I was out Thurs.	I was out Thurs.	2956310	1471995128706	1471995128774	w	87
5801	62122	I was out Thurs.	I was out Thurs.	2956312	1471995129271	1471995129338	a	65
5801	62122	I was out Thurs.	I was out Thurs.	2956313	1471995129410	1471995129509	s	83
5801	62122	I was out Thurs.	I was out Thurs.	2956347	1471995129490	1471995129562	 	32
5801	62122	I was out Thurs.	I was out Thurs.	2956349	1471995129611	1471995129754	o	79
5801	62122	I was out Thurs.	I was out Thurs.	2956350	1471995129735	1471995129830	u	85
5801	62122	I was out Thurs.	I was out Thurs.	2956351	1471995129803	1471995129895	t	84
5801	62122	I was out Thurs.	I was out Thurs.	2956352	1471995129974	1471995130066	 	32
5801	62122	I was out Thurs.	I was out Thurs.	2956353	1471995130125	1471995130277	SHIFT	16
5801	62122	I was out Thurs.	I was out Thurs.	2956409	1471995130242	1471995130329	T	84
5801	62122	I was out Thurs.	I was out Thurs.	2956415	1471995130349	1471995130488	h	72
5801	62122	I was out Thurs.	I was out Thurs.	2956421	1471995130453	1471995130545	u	85
5801	62122	I was out Thurs.	I was out Thurs.	2956424	1471995130604	1471995130692	r	82
5801	62122	I was out Thurs.	I was out Thurs.	2956428	1471995130810	1471995130886	s	83
5801	62122	I was out Thurs.	I was out Thurs.	2956430	1471995130940	1471995131065	.	190
5801	62125	The UN still recognizes Lisbon as the administrator of the territory.	The UN still recognizes Lisbon as the administrator of the territory. 	2956539	1471995132677	1471995133192	SHIFT	16
5801	62125	The UN still recognizes Lisbon as the administrator of the territory.	The UN still recognizes Lisbon as the administrator of the territory. 	2956540	1471995133085	1471995133208	T	84
5801	62125	The UN still recognizes Lisbon as the administrator of the territory.	The UN still recognizes Lisbon as the administrator of the territory. 	2956541	1471995133266	1471995133353	h	72
5801	62125	The UN still recognizes Lisbon as the administrator of the territory.	The UN still recognizes Lisbon as the administrator of the territory. 	2956542	1471995133346	1471995133441	e	69
5801	62125	The UN still recognizes Lisbon as the administrator of the territory.	The UN still recognizes Lisbon as the administrator of the territory. 	2956543	1471995133486	1471995133586	 	32
5801	62125	The UN still recognizes Lisbon as the administrator of the territory.	The UN still recognizes Lisbon as the administrator of the territory. 	2956595	1471995133672	1471995134088	SHIFT	16
5801	62125	The UN still recognizes Lisbon as the administrator of the territory.	The UN still recognizes Lisbon as the administrator of the territory. 	2956544	1471995133801	1471995133908	U	85
5801	62125	The UN still recognizes Lisbon as the administrator of the territory.	The UN still recognizes Lisbon as the administrator of the territory. 	2956597	1471995134045	1471995134152	N	78
5801	62125	The UN still recognizes Lisbon as the administrator of the territory.	The UN still recognizes Lisbon as the administrator of the territory. 	2956599	1471995134265	1471995134344	 	32
5801	62125	The UN still recognizes Lisbon as the administrator of the territory.	The UN still recognizes Lisbon as the administrator of the territory. 	2956603	1471995134759	1471995134838	s	83
5801	62125	The UN still recognizes Lisbon as the administrator of the territory.	The UN still recognizes Lisbon as the administrator of the territory. 	2956606	1471995134932	1471995135043	t	84
5801	62125	The UN still recognizes Lisbon as the administrator of the territory.	The UN still recognizes Lisbon as the administrator of the territory. 	2956661	1471995135004	1471995135088	i	73
5801	62125	The UN still recognizes Lisbon as the administrator of the territory.	The UN still recognizes Lisbon as the administrator of the territory. 	2956664	1471995135202	1471995135265	l	76
5801	62125	The UN still recognizes Lisbon as the administrator of the territory.	The UN still recognizes Lisbon as the administrator of the territory. 	2956666	1471995135320	1471995135379	l	76
5801	62125	The UN still recognizes Lisbon as the administrator of the territory.	The UN still recognizes Lisbon as the administrator of the territory. 	2956671	1471995135462	1471995135550	 	32
5801	62125	The UN still recognizes Lisbon as the administrator of the territory.	The UN still recognizes Lisbon as the administrator of the territory. 	2956676	1471995135582	1471995135681	r	82
5801	62125	The UN still recognizes Lisbon as the administrator of the territory.	The UN still recognizes Lisbon as the administrator of the territory. 	2956681	1471995136117	1471995136184	e	69
5801	62125	The UN still recognizes Lisbon as the administrator of the territory.	The UN still recognizes Lisbon as the administrator of the territory. 	2956691	1471995136289	1471995136384	c	67
5801	62125	The UN still recognizes Lisbon as the administrator of the territory.	The UN still recognizes Lisbon as the administrator of the territory. 	2956694	1471995136445	1471995136536	o	79
5801	62125	The UN still recognizes Lisbon as the administrator of the territory.	The UN still recognizes Lisbon as the administrator of the territory. 	2956700	1471995136581	1471995136676	g	71
5801	62125	The UN still recognizes Lisbon as the administrator of the territory.	The UN still recognizes Lisbon as the administrator of the territory. 	2956704	1471995136727	1471995136855	n	78
5801	62125	The UN still recognizes Lisbon as the administrator of the territory.	The UN still recognizes Lisbon as the administrator of the territory. 	2956752	1471995136831	1471995136934	i	73
5801	62125	The UN still recognizes Lisbon as the administrator of the territory.	The UN still recognizes Lisbon as the administrator of the territory. 	2956755	1471995137031	1471995137115	z	90
5801	62125	The UN still recognizes Lisbon as the administrator of the territory.	The UN still recognizes Lisbon as the administrator of the territory. 	2956757	1471995137204	1471995137275	e	69
5801	62125	The UN still recognizes Lisbon as the administrator of the territory.	The UN still recognizes Lisbon as the administrator of the territory. 	2956758	1471995137377	1471995137484	s	83
5801	62125	The UN still recognizes Lisbon as the administrator of the territory.	The UN still recognizes Lisbon as the administrator of the territory. 	2956760	1471995137493	1471995137604	 	32
5801	62125	The UN still recognizes Lisbon as the administrator of the territory.	The UN still recognizes Lisbon as the administrator of the territory. 	2956763	1471995137771	1471995137971	SHIFT	16
5801	62125	The UN still recognizes Lisbon as the administrator of the territory.	The UN still recognizes Lisbon as the administrator of the territory. 	2956818	1471995137924	1471995138043	L	76
5801	62125	The UN still recognizes Lisbon as the administrator of the territory.	The UN still recognizes Lisbon as the administrator of the territory. 	2956820	1471995138147	1471995138238	i	73
5801	62125	The UN still recognizes Lisbon as the administrator of the territory.	The UN still recognizes Lisbon as the administrator of the territory. 	2956822	1471995138271	1471995138374	s	83
5801	62125	The UN still recognizes Lisbon as the administrator of the territory.	The UN still recognizes Lisbon as the administrator of the territory. 	2956824	1471995138852	1471995138963	b	66
5801	62125	The UN still recognizes Lisbon as the administrator of the territory.	The UN still recognizes Lisbon as the administrator of the territory. 	2956826	1471995138976	1471995139139	o	79
5801	62125	The UN still recognizes Lisbon as the administrator of the territory.	The UN still recognizes Lisbon as the administrator of the territory. 	2956833	1471995139108	1471995139207	n	78
5801	62125	The UN still recognizes Lisbon as the administrator of the territory.	The UN still recognizes Lisbon as the administrator of the territory. 	2956835	1471995139300	1471995139406	 	32
5801	62125	The UN still recognizes Lisbon as the administrator of the territory.	The UN still recognizes Lisbon as the administrator of the territory. 	2956837	1471995139404	1471995139475	a	65
5801	62125	The UN still recognizes Lisbon as the administrator of the territory.	The UN still recognizes Lisbon as the administrator of the territory. 	2956841	1471995139557	1471995139652	s	83
5801	62125	The UN still recognizes Lisbon as the administrator of the territory.	The UN still recognizes Lisbon as the administrator of the territory. 	2956845	1471995139672	1471995139763	 	32
5801	62125	The UN still recognizes Lisbon as the administrator of the territory.	The UN still recognizes Lisbon as the administrator of the territory. 	2956887	1471995139760	1471995139844	t	84
5801	62125	The UN still recognizes Lisbon as the administrator of the territory.	The UN still recognizes Lisbon as the administrator of the territory. 	2956889	1471995139863	1471995139958	h	72
5801	62125	The UN still recognizes Lisbon as the administrator of the territory.	The UN still recognizes Lisbon as the administrator of the territory. 	2956892	1471995140051	1471995140154	 	32
5801	62125	The UN still recognizes Lisbon as the administrator of the territory.	The UN still recognizes Lisbon as the administrator of the territory. 	2956899	1471995140481	1471995140592	BKSP	8
5801	62125	The UN still recognizes Lisbon as the administrator of the territory.	The UN still recognizes Lisbon as the administrator of the territory. 	2956901	1471995140632	1471995140727	e	69
5801	62125	The UN still recognizes Lisbon as the administrator of the territory.	The UN still recognizes Lisbon as the administrator of the territory. 	2956904	1471995140768	1471995140871	 	32
5801	62125	The UN still recognizes Lisbon as the administrator of the territory.	The UN still recognizes Lisbon as the administrator of the territory. 	2956908	1471995140884	1471995140959	a	65
5801	62125	The UN still recognizes Lisbon as the administrator of the territory.	The UN still recognizes Lisbon as the administrator of the territory. 	2956937	1471995141074	1471995141177	d	68
5801	62125	The UN still recognizes Lisbon as the administrator of the territory.	The UN still recognizes Lisbon as the administrator of the territory. 	2956944	1471995141458	1471995141577	m	77
5801	62125	The UN still recognizes Lisbon as the administrator of the territory.	The UN still recognizes Lisbon as the administrator of the territory. 	2956951	1471995141582	1471995141717	i	73
5801	62125	The UN still recognizes Lisbon as the administrator of the territory.	The UN still recognizes Lisbon as the administrator of the territory. 	2956962	1471995141706	1471995141849	n	78
5801	62125	The UN still recognizes Lisbon as the administrator of the territory.	The UN still recognizes Lisbon as the administrator of the territory. 	2957048	1471995141822	1471995141953	i	73
5801	62125	The UN still recognizes Lisbon as the administrator of the territory.	The UN still recognizes Lisbon as the administrator of the territory. 	2957050	1471995142075	1471995142114	s	83
5801	62125	The UN still recognizes Lisbon as the administrator of the territory.	The UN still recognizes Lisbon as the administrator of the territory. 	2957052	1471995142778	1471995142871	t	84
5801	62125	The UN still recognizes Lisbon as the administrator of the territory.	The UN still recognizes Lisbon as the administrator of the territory. 	2957054	1471995142954	1471995143041	r	82
5801	62125	The UN still recognizes Lisbon as the administrator of the territory.	The UN still recognizes Lisbon as the administrator of the territory. 	2957055	1471995143063	1471995143142	a	65
5801	62125	The UN still recognizes Lisbon as the administrator of the territory.	The UN still recognizes Lisbon as the administrator of the territory. 	2957056	1471995143191	1471995143290	t	84
5801	62125	The UN still recognizes Lisbon as the administrator of the territory.	The UN still recognizes Lisbon as the administrator of the territory. 	2957076	1471995143440	1471995143560	o	79
5801	62125	The UN still recognizes Lisbon as the administrator of the territory.	The UN still recognizes Lisbon as the administrator of the territory. 	2957080	1471995143578	1471995143677	r	82
5801	62125	The UN still recognizes Lisbon as the administrator of the territory.	The UN still recognizes Lisbon as the administrator of the territory. 	2957085	1471995143717	1471995143820	 	32
5801	62125	The UN still recognizes Lisbon as the administrator of the territory.	The UN still recognizes Lisbon as the administrator of the territory. 	2957087	1471995144058	1471995144173	o	79
5801	62125	The UN still recognizes Lisbon as the administrator of the territory.	The UN still recognizes Lisbon as the administrator of the territory. 	2957090	1471995144192	1471995144287	f	70
5801	62125	The UN still recognizes Lisbon as the administrator of the territory.	The UN still recognizes Lisbon as the administrator of the territory. 	2957098	1471995144310	1471995144397	 	32
5801	62125	The UN still recognizes Lisbon as the administrator of the territory.	The UN still recognizes Lisbon as the administrator of the territory. 	2957100	1471995144390	1471995144473	t	84
5801	62125	The UN still recognizes Lisbon as the administrator of the territory.	The UN still recognizes Lisbon as the administrator of the territory. 	2957105	1471995144482	1471995144565	h	72
5801	62125	The UN still recognizes Lisbon as the administrator of the territory.	The UN still recognizes Lisbon as the administrator of the territory. 	2957108	1471995144581	1471995144685	e	69
5801	62125	The UN still recognizes Lisbon as the administrator of the territory.	The UN still recognizes Lisbon as the administrator of the territory. 	2957188	1471995144658	1471995144750	 	32
5801	62125	The UN still recognizes Lisbon as the administrator of the territory.	The UN still recognizes Lisbon as the administrator of the territory. 	2957192	1471995144963	1471995145056	t	84
5801	62125	The UN still recognizes Lisbon as the administrator of the territory.	The UN still recognizes Lisbon as the administrator of the territory. 	2957196	1471995145055	1471995145126	e	69
5801	62125	The UN still recognizes Lisbon as the administrator of the territory.	The UN still recognizes Lisbon as the administrator of the territory. 	2957200	1471995145204	1471995145267	r	82
5801	62125	The UN still recognizes Lisbon as the administrator of the territory.	The UN still recognizes Lisbon as the administrator of the territory. 	2957203	1471995145418	1471995145505	i	73
5801	62125	The UN still recognizes Lisbon as the administrator of the territory.	The UN still recognizes Lisbon as the administrator of the territory. 	2957206	1471995145818	1471995145902	BKSP	8
5801	62125	The UN still recognizes Lisbon as the administrator of the territory.	The UN still recognizes Lisbon as the administrator of the territory. 	2957209	1471995146065	1471995146168	r	82
5801	62125	The UN still recognizes Lisbon as the administrator of the territory.	The UN still recognizes Lisbon as the administrator of the territory. 	2957286	1471995146215	1471995146302	i	73
5801	62125	The UN still recognizes Lisbon as the administrator of the territory.	The UN still recognizes Lisbon as the administrator of the territory. 	2957289	1471995146439	1471995146538	t	84
5801	62125	The UN still recognizes Lisbon as the administrator of the territory.	The UN still recognizes Lisbon as the administrator of the territory. 	2957291	1471995146695	1471995146791	o	79
5801	62125	The UN still recognizes Lisbon as the administrator of the territory.	The UN still recognizes Lisbon as the administrator of the territory. 	2957293	1471995146979	1471995147066	r	82
5801	62125	The UN still recognizes Lisbon as the administrator of the territory.	The UN still recognizes Lisbon as the administrator of the territory. 	2957295	1471995147318	1471995147425	y	89
5801	62125	The UN still recognizes Lisbon as the administrator of the territory.	The UN still recognizes Lisbon as the administrator of the territory. 	2957309	1471995147390	1471995147509	.	190
5801	62125	The UN still recognizes Lisbon as the administrator of the territory.	The UN still recognizes Lisbon as the administrator of the territory. 	2957311	1471995147490	1471995147593	 	32
5801	62142	Need anything from Target?	Need anything from Target?	2957416	1471995149368	1471995149516	SHIFT	16
5801	62142	Need anything from Target?	Need anything from Target?	2957418	1471995149452	1471995149556	N	78
5801	62142	Need anything from Target?	Need anything from Target?	2957421	1471995149545	1471995149612	e	69
5801	62142	Need anything from Target?	Need anything from Target?	2957423	1471995149691	1471995149766	e	69
5801	62142	Need anything from Target?	Need anything from Target?	2957425	1471995149872	1471995149963	d	68
5801	62142	Need anything from Target?	Need anything from Target?	2957430	1471995149964	1471995150047	 	32
5801	62142	Need anything from Target?	Need anything from Target?	2957455	1471995150137	1471995150233	a	65
5801	62142	Need anything from Target?	Need anything from Target?	2957458	1471995150225	1471995150349	n	78
5801	62142	Need anything from Target?	Need anything from Target?	2957462	1471995150370	1471995150461	y	89
5801	62142	Need anything from Target?	Need anything from Target?	2957468	1471995150506	1471995150613	t	84
5801	62142	Need anything from Target?	Need anything from Target?	2957518	1471995150601	1471995150713	h	72
5801	62142	Need anything from Target?	Need anything from Target?	2957520	1471995150678	1471995150793	i	73
5801	62142	Need anything from Target?	Need anything from Target?	2957521	1471995150971	1471995151055	g	71
5801	62142	Need anything from Target?	Need anything from Target?	2957522	1471995151316	1471995151416	BKSP	8
5801	62142	Need anything from Target?	Need anything from Target?	2957523	1471995151545	1471995151627	n	78
5801	62142	Need anything from Target?	Need anything from Target?	2957524	1471995151625	1471995151705	g	71
5801	62142	Need anything from Target?	Need anything from Target?	2957526	1471995151728	1471995151820	 	32
5801	62142	Need anything from Target?	Need anything from Target?	2957547	1471995151853	1471995151988	f	70
5801	62142	Need anything from Target?	Need anything from Target?	2957549	1471995151929	1471995152060	r	82
5801	62142	Need anything from Target?	Need anything from Target?	2957550	1471995152000	1471995152136	o	79
5801	62142	Need anything from Target?	Need anything from Target?	2957552	1471995152076	1471995152204	m	77
5801	62142	Need anything from Target?	Need anything from Target?	2957554	1471995152293	1471995152380	 	32
5801	62142	Need anything from Target?	Need anything from Target?	2957584	1471995152500	1471995152756	SHIFT	16
5801	62142	Need anything from Target?	Need anything from Target?	2957587	1471995152681	1471995152760	T	84
5801	62142	Need anything from Target?	Need anything from Target?	2957589	1471995153078	1471995153198	a	65
5801	62142	Need anything from Target?	Need anything from Target?	2957590	1471995153194	1471995153274	r	82
5801	62142	Need anything from Target?	Need anything from Target?	2957591	1471995153378	1471995153470	g	71
5801	62142	Need anything from Target?	Need anything from Target?	2957592	1471995153490	1471995153577	e	69
5801	62142	Need anything from Target?	Need anything from Target?	2957602	1471995153561	1471995153645	t	84
5801	62142	Need anything from Target?	Need anything from Target?	2957605	1471995153948	1471995154084	SHIFT	16
5801	62142	Need anything from Target?	Need anything from Target?	2957610	1471995154041	1471995154156	?	191
5801	62149	Expect him to be the Bears featured back for the rest of the year.	Expect him to be the Bears featured back for the rest of the year.	2957715	1471995155776	1471995155960	SHIFT	16
5801	62149	Expect him to be the Bears featured back for the rest of the year.	Expect him to be the Bears featured back for the rest of the year.	2957713	1471995155877	1471995155957	E	69
5801	62149	Expect him to be the Bears featured back for the rest of the year.	Expect him to be the Bears featured back for the rest of the year.	2957721	1471995156060	1471995156156	x	88
5801	62149	Expect him to be the Bears featured back for the rest of the year.	Expect him to be the Bears featured back for the rest of the year.	2957724	1471995156148	1471995156232	p	80
5801	62149	Expect him to be the Bears featured back for the rest of the year.	Expect him to be the Bears featured back for the rest of the year.	2957728	1471995156266	1471995156354	e	69
5801	62149	Expect him to be the Bears featured back for the rest of the year.	Expect him to be the Bears featured back for the rest of the year.	2957733	1471995156394	1471995156518	c	67
5801	62149	Expect him to be the Bears featured back for the rest of the year.	Expect him to be the Bears featured back for the rest of the year.	2957760	1471995156458	1471995156570	t	84
5801	62149	Expect him to be the Bears featured back for the rest of the year.	Expect him to be the Bears featured back for the rest of the year.	2957764	1471995156639	1471995156719	 	32
5801	62149	Expect him to be the Bears featured back for the rest of the year.	Expect him to be the Bears featured back for the rest of the year.	2957766	1471995156842	1471995156944	h	72
5801	62149	Expect him to be the Bears featured back for the rest of the year.	Expect him to be the Bears featured back for the rest of the year.	2957767	1471995156900	1471995157020	i	73
5801	62149	Expect him to be the Bears featured back for the rest of the year.	Expect him to be the Bears featured back for the rest of the year.	2957768	1471995157045	1471995157116	m	77
5801	62149	Expect him to be the Bears featured back for the rest of the year.	Expect him to be the Bears featured back for the rest of the year.	2957769	1471995157212	1471995157296	 	32
5801	62149	Expect him to be the Bears featured back for the rest of the year.	Expect him to be the Bears featured back for the rest of the year.	2957770	1471995157328	1471995157436	t	84
5801	62149	Expect him to be the Bears featured back for the rest of the year.	Expect him to be the Bears featured back for the rest of the year.	2957773	1471995157401	1471995157476	o	79
5801	62149	Expect him to be the Bears featured back for the rest of the year.	Expect him to be the Bears featured back for the rest of the year.	2957778	1471995157509	1471995157589	 	32
5801	62149	Expect him to be the Bears featured back for the rest of the year.	Expect him to be the Bears featured back for the rest of the year.	2957783	1471995157670	1471995157765	b	66
5801	62149	Expect him to be the Bears featured back for the rest of the year.	Expect him to be the Bears featured back for the rest of the year.	2957805	1471995157761	1471995157857	e	69
5801	62149	Expect him to be the Bears featured back for the rest of the year.	Expect him to be the Bears featured back for the rest of the year.	2957807	1471995157861	1471995157941	 	32
5801	62149	Expect him to be the Bears featured back for the rest of the year.	Expect him to be the Bears featured back for the rest of the year.	2957808	1471995157957	1471995158045	t	84
5801	62149	Expect him to be the Bears featured back for the rest of the year.	Expect him to be the Bears featured back for the rest of the year.	2957809	1471995158061	1471995158141	h	72
5801	62149	Expect him to be the Bears featured back for the rest of the year.	Expect him to be the Bears featured back for the rest of the year.	2957810	1471995158163	1471995158273	e	69
5801	62149	Expect him to be the Bears featured back for the rest of the year.	Expect him to be the Bears featured back for the rest of the year.	2957836	1471995158247	1471995158335	 	32
5801	62149	Expect him to be the Bears featured back for the rest of the year.	Expect him to be the Bears featured back for the rest of the year.	2957838	1471995158413	1471995158553	SHIFT	16
5801	62149	Expect him to be the Bears featured back for the rest of the year.	Expect him to be the Bears featured back for the rest of the year.	2957840	1471995158501	1471995158617	B	66
5801	62149	Expect him to be the Bears featured back for the rest of the year.	Expect him to be the Bears featured back for the rest of the year.	2957843	1471995158593	1471995158669	e	69
5801	62149	Expect him to be the Bears featured back for the rest of the year.	Expect him to be the Bears featured back for the rest of the year.	2957846	1471995158775	1471995158883	a	65
5801	62149	Expect him to be the Bears featured back for the rest of the year.	Expect him to be the Bears featured back for the rest of the year.	2957852	1471995158923	1471995159039	r	82
5801	62149	Expect him to be the Bears featured back for the rest of the year.	Expect him to be the Bears featured back for the rest of the year.	2957860	1471995159047	1471995159139	s	83
5801	62149	Expect him to be the Bears featured back for the rest of the year.	Expect him to be the Bears featured back for the rest of the year.	2957901	1471995159193	1471995159297	 	32
5801	62149	Expect him to be the Bears featured back for the rest of the year.	Expect him to be the Bears featured back for the rest of the year.	2957904	1471995159468	1471995159556	f	70
5801	62149	Expect him to be the Bears featured back for the rest of the year.	Expect him to be the Bears featured back for the rest of the year.	2957907	1471995159665	1471995159737	e	69
5801	62149	Expect him to be the Bears featured back for the rest of the year.	Expect him to be the Bears featured back for the rest of the year.	2957910	1471995159832	1471995159920	a	65
5801	62149	Expect him to be the Bears featured back for the rest of the year.	Expect him to be the Bears featured back for the rest of the year.	2957911	1471995160047	1471995160139	t	84
5801	62149	Expect him to be the Bears featured back for the rest of the year.	Expect him to be the Bears featured back for the rest of the year.	2957929	1471995160167	1471995160251	u	85
5801	62149	Expect him to be the Bears featured back for the rest of the year.	Expect him to be the Bears featured back for the rest of the year.	2957932	1471995160239	1471995160323	r	82
5801	62149	Expect him to be the Bears featured back for the rest of the year.	Expect him to be the Bears featured back for the rest of the year.	2957936	1471995160395	1471995160487	e	69
5801	62149	Expect him to be the Bears featured back for the rest of the year.	Expect him to be the Bears featured back for the rest of the year.	2957938	1471995160546	1471995160647	d	68
5801	62149	Expect him to be the Bears featured back for the rest of the year.	Expect him to be the Bears featured back for the rest of the year.	2957967	1471995160642	1471995160738	 	32
5801	62149	Expect him to be the Bears featured back for the rest of the year.	Expect him to be the Bears featured back for the rest of the year.	2957969	1471995160893	1471995161001	b	66
5801	62149	Expect him to be the Bears featured back for the rest of the year.	Expect him to be the Bears featured back for the rest of the year.	2957973	1471995160981	1471995161045	a	65
5801	62149	Expect him to be the Bears featured back for the rest of the year.	Expect him to be the Bears featured back for the rest of the year.	2957976	1471995161151	1471995161247	c	67
5801	62149	Expect him to be the Bears featured back for the rest of the year.	Expect him to be the Bears featured back for the rest of the year.	2957978	1471995161231	1471995161323	k	75
5801	62149	Expect him to be the Bears featured back for the rest of the year.	Expect him to be the Bears featured back for the rest of the year.	2957981	1471995161689	1471995161785	 	32
5801	62149	Expect him to be the Bears featured back for the rest of the year.	Expect him to be the Bears featured back for the rest of the year.	2957986	1471995161829	1471995161929	f	70
5801	62149	Expect him to be the Bears featured back for the rest of the year.	Expect him to be the Bears featured back for the rest of the year.	2957988	1471995161967	1471995162040	o	79
5801	62149	Expect him to be the Bears featured back for the rest of the year.	Expect him to be the Bears featured back for the rest of the year.	2957991	1471995162015	1471995162119	r	82
5801	62149	Expect him to be the Bears featured back for the rest of the year.	Expect him to be the Bears featured back for the rest of the year.	2957994	1471995162150	1471995162238	 	32
5801	62149	Expect him to be the Bears featured back for the rest of the year.	Expect him to be the Bears featured back for the rest of the year.	2958011	1471995162206	1471995162290	t	84
5801	62149	Expect him to be the Bears featured back for the rest of the year.	Expect him to be the Bears featured back for the rest of the year.	2958013	1471995162309	1471995162381	h	72
5801	62149	Expect him to be the Bears featured back for the rest of the year.	Expect him to be the Bears featured back for the rest of the year.	2958016	1471995162393	1471995162501	e	69
5801	62149	Expect him to be the Bears featured back for the rest of the year.	Expect him to be the Bears featured back for the rest of the year.	2958019	1471995162469	1471995162581	 	32
5801	62149	Expect him to be the Bears featured back for the rest of the year.	Expect him to be the Bears featured back for the rest of the year.	2958022	1471995162887	1471995162973	r	82
5801	62149	Expect him to be the Bears featured back for the rest of the year.	Expect him to be the Bears featured back for the rest of the year.	2958067	1471995162947	1471995163019	e	69
5801	62149	Expect him to be the Bears featured back for the rest of the year.	Expect him to be the Bears featured back for the rest of the year.	2958070	1471995163099	1471995163207	s	83
5801	62149	Expect him to be the Bears featured back for the rest of the year.	Expect him to be the Bears featured back for the rest of the year.	2958075	1471995163278	1471995163366	 	32
5801	62149	Expect him to be the Bears featured back for the rest of the year.	Expect him to be the Bears featured back for the rest of the year.	2958079	1471995163934	1471995164038	BKSP	8
5801	62149	Expect him to be the Bears featured back for the rest of the year.	Expect him to be the Bears featured back for the rest of the year.	2958084	1471995164158	1471995164238	t	84
5801	62149	Expect him to be the Bears featured back for the rest of the year.	Expect him to be the Bears featured back for the rest of the year.	2958088	1471995164274	1471995164366	 	32
5801	62149	Expect him to be the Bears featured back for the rest of the year.	Expect him to be the Bears featured back for the rest of the year.	2958092	1471995164486	1471995164586	o	79
5801	62149	Expect him to be the Bears featured back for the rest of the year.	Expect him to be the Bears featured back for the rest of the year.	2958101	1471995164602	1471995164686	f	70
5801	62149	Expect him to be the Bears featured back for the rest of the year.	Expect him to be the Bears featured back for the rest of the year.	2958104	1471995164707	1471995164793	 	32
5801	62149	Expect him to be the Bears featured back for the rest of the year.	Expect him to be the Bears featured back for the rest of the year.	2958107	1471995164791	1471995164871	t	84
5801	62149	Expect him to be the Bears featured back for the rest of the year.	Expect him to be the Bears featured back for the rest of the year.	2958111	1471995164887	1471995164963	h	72
5801	62149	Expect him to be the Bears featured back for the rest of the year.	Expect him to be the Bears featured back for the rest of the year.	2958114	1471995164971	1471995165073	e	69
5801	62149	Expect him to be the Bears featured back for the rest of the year.	Expect him to be the Bears featured back for the rest of the year.	2958137	1471995165051	1471995165159	 	32
5801	62149	Expect him to be the Bears featured back for the rest of the year.	Expect him to be the Bears featured back for the rest of the year.	2958139	1471995165306	1471995165390	y	89
5801	62149	Expect him to be the Bears featured back for the rest of the year.	Expect him to be the Bears featured back for the rest of the year.	2958141	1471995165358	1471995165422	e	69
5801	62149	Expect him to be the Bears featured back for the rest of the year.	Expect him to be the Bears featured back for the rest of the year.	2958143	1471995165514	1471995165618	a	65
5801	62149	Expect him to be the Bears featured back for the rest of the year.	Expect him to be the Bears featured back for the rest of the year.	2958145	1471995165610	1471995165686	r	82
5801	62149	Expect him to be the Bears featured back for the rest of the year.	Expect him to be the Bears featured back for the rest of the year.	2958147	1471995165959	1471995166023	/	191
5801	62149	Expect him to be the Bears featured back for the rest of the year.	Expect him to be the Bears featured back for the rest of the year.	2958180	1471995166450	1471995166542	BKSP	8
5801	62158	I was runner-up three times.	I was runner-up three times/	2958254	1471995168068	1471995168201	SHIFT	16
5801	62158	I was runner-up three times.	I was runner-up three times/	2958257	1471995168160	1471995168256	I	73
5801	62158	I was runner-up three times.	I was runner-up three times/	2958259	1471995168368	1471995168475	 	32
5801	62158	I was runner-up three times.	I was runner-up three times/	2958263	1471995168468	1471995168540	w	87
5801	62158	I was runner-up three times.	I was runner-up three times/	2958265	1471995168624	1471995168692	a	65
5801	62158	I was runner-up three times.	I was runner-up three times/	2958267	1471995168771	1471995168851	s	83
5801	62158	I was runner-up three times.	I was runner-up three times/	2958270	1471995168905	1471995168993	 	32
5801	62158	I was runner-up three times.	I was runner-up three times/	2958273	1471995168977	1471995169089	r	82
5801	62158	I was runner-up three times.	I was runner-up three times/	2958276	1471995169089	1471995169201	u	85
5801	62158	I was runner-up three times.	I was runner-up three times/	2958281	1471995169272	1471995169348	n	78
5801	62158	I was runner-up three times.	I was runner-up three times/	2958286	1471995169407	1471995169499	n	78
5801	62158	I was runner-up three times.	I was runner-up three times/	2958327	1471995169681	1471995169753	e	69
5801	62158	I was runner-up three times.	I was runner-up three times/	2958330	1471995169832	1471995169904	r	82
5801	62158	I was runner-up three times.	I was runner-up three times/	2958331	1471995170183	1471995170263	-	189
5801	62158	I was runner-up three times.	I was runner-up three times/	2958332	1471995170484	1471995170656	u	85
5801	62158	I was runner-up three times.	I was runner-up three times/	2958369	1471995170604	1471995170716	p	80
5801	62158	I was runner-up three times.	I was runner-up three times/	2958374	1471995170848	1471995170964	 	32
5801	62158	I was runner-up three times.	I was runner-up three times/	2958379	1471995171196	1471995171298	t	84
5801	62158	I was runner-up three times.	I was runner-up three times/	2958384	1471995171296	1471995171380	h	72
5801	62158	I was runner-up three times.	I was runner-up three times/	2958388	1471995171398	1471995171478	r	82
5801	62158	I was runner-up three times.	I was runner-up three times/	2958396	1471995171589	1471995171761	e	69
5801	62158	I was runner-up three times.	I was runner-up three times/	2958407	1471995172043	1471995172147	e	69
5801	62158	I was runner-up three times.	I was runner-up three times/	2958409	1471995172291	1471995172391	 	32
5801	62158	I was runner-up three times.	I was runner-up three times/	2958411	1471995172419	1471995172510	t	84
5801	62158	I was runner-up three times.	I was runner-up three times/	2958413	1471995172487	1471995172611	i	73
5801	62158	I was runner-up three times.	I was runner-up three times/	2958432	1471995172591	1471995172699	m	77
5801	62158	I was runner-up three times.	I was runner-up three times/	2958436	1471995172647	1471995172759	e	69
5801	62158	I was runner-up three times.	I was runner-up three times/	2958440	1471995172863	1471995172983	s	83
5801	62158	I was runner-up three times.	I was runner-up three times/	2958442	1471995172955	1471995173091	/	191
5801	62164	Washington was not moving toward a unilateral lifting of the embargo.	Washington was not moving toward a untlateral lifting of the embargo.	2959155	1471995166658	1471995187429	.	190
5801	62164	Washington was not moving toward a unilateral lifting of the embargo.	Washington was not moving toward a untlateral lifting of the embargo.	2958573	1471995174835	1471995174971	SHIFT	16
5801	62164	Washington was not moving toward a unilateral lifting of the embargo.	Washington was not moving toward a untlateral lifting of the embargo.	2958576	1471995174916	1471995174988	W	87
5801	62164	Washington was not moving toward a unilateral lifting of the embargo.	Washington was not moving toward a untlateral lifting of the embargo.	2958578	1471995175068	1471995175152	a	65
5801	62164	Washington was not moving toward a unilateral lifting of the embargo.	Washington was not moving toward a untlateral lifting of the embargo.	2958580	1471995175646	1471995175726	a	65
5801	62164	Washington was not moving toward a unilateral lifting of the embargo.	Washington was not moving toward a untlateral lifting of the embargo.	2958584	1471995175806	1471995175913	s	83
5801	62164	Washington was not moving toward a unilateral lifting of the embargo.	Washington was not moving toward a untlateral lifting of the embargo.	2958589	1471995175922	1471995176066	h	72
5801	62164	Washington was not moving toward a unilateral lifting of the embargo.	Washington was not moving toward a untlateral lifting of the embargo.	2958653	1471995176270	1471995176354	BKSP	8
5801	62164	Washington was not moving toward a unilateral lifting of the embargo.	Washington was not moving toward a untlateral lifting of the embargo.	2958656	1471995176418	1471995176574	BKSP	8
5801	62164	Washington was not moving toward a unilateral lifting of the embargo.	Washington was not moving toward a untlateral lifting of the embargo.	2958657	1471995176714	1471995176798	BKSP	8
5801	62164	Washington was not moving toward a unilateral lifting of the embargo.	Washington was not moving toward a untlateral lifting of the embargo.	2958659	1471995176922	1471995177022	s	83
5801	62164	Washington was not moving toward a unilateral lifting of the embargo.	Washington was not moving toward a untlateral lifting of the embargo.	2958662	1471995177053	1471995177161	h	72
5801	62164	Washington was not moving toward a unilateral lifting of the embargo.	Washington was not moving toward a untlateral lifting of the embargo.	2958668	1471995177173	1471995177325	i	73
5801	62164	Washington was not moving toward a unilateral lifting of the embargo.	Washington was not moving toward a untlateral lifting of the embargo.	2958672	1471995177297	1471995177421	n	78
5801	62164	Washington was not moving toward a unilateral lifting of the embargo.	Washington was not moving toward a untlateral lifting of the embargo.	2958706	1471995177405	1471995177477	g	71
5801	62164	Washington was not moving toward a unilateral lifting of the embargo.	Washington was not moving toward a untlateral lifting of the embargo.	2958709	1471995177556	1471995177695	t	84
5801	62164	Washington was not moving toward a unilateral lifting of the embargo.	Washington was not moving toward a untlateral lifting of the embargo.	2958712	1471995177664	1471995177760	o	79
5801	62164	Washington was not moving toward a unilateral lifting of the embargo.	Washington was not moving toward a untlateral lifting of the embargo.	2958714	1471995177720	1471995177824	n	78
5801	62164	Washington was not moving toward a unilateral lifting of the embargo.	Washington was not moving toward a untlateral lifting of the embargo.	2958717	1471995177920	1471995178032	 	32
5801	62164	Washington was not moving toward a unilateral lifting of the embargo.	Washington was not moving toward a untlateral lifting of the embargo.	2958720	1471995178249	1471995178333	w	87
5801	62164	Washington was not moving toward a unilateral lifting of the embargo.	Washington was not moving toward a untlateral lifting of the embargo.	2958735	1471995178438	1471995178506	a	65
5801	62164	Washington was not moving toward a unilateral lifting of the embargo.	Washington was not moving toward a untlateral lifting of the embargo.	2958738	1471995178579	1471995178662	s	83
5801	62164	Washington was not moving toward a unilateral lifting of the embargo.	Washington was not moving toward a untlateral lifting of the embargo.	2958740	1471995178671	1471995178738	 	32
5801	62164	Washington was not moving toward a unilateral lifting of the embargo.	Washington was not moving toward a untlateral lifting of the embargo.	2958744	1471995178821	1471995178953	n	78
5801	62164	Washington was not moving toward a unilateral lifting of the embargo.	Washington was not moving toward a untlateral lifting of the embargo.	2958757	1471995178901	1471995179005	o	79
5801	62164	Washington was not moving toward a unilateral lifting of the embargo.	Washington was not moving toward a untlateral lifting of the embargo.	2958759	1471995178957	1471995179073	t	84
5801	62164	Washington was not moving toward a unilateral lifting of the embargo.	Washington was not moving toward a untlateral lifting of the embargo.	2958761	1471995179094	1471995179178	 	32
5801	62164	Washington was not moving toward a unilateral lifting of the embargo.	Washington was not moving toward a untlateral lifting of the embargo.	2958763	1471995179279	1471995179398	m	77
5801	62164	Washington was not moving toward a unilateral lifting of the embargo.	Washington was not moving toward a untlateral lifting of the embargo.	2958765	1471995179371	1471995179483	o	79
5801	62164	Washington was not moving toward a unilateral lifting of the embargo.	Washington was not moving toward a untlateral lifting of the embargo.	2958768	1471995179590	1471995179701	v	86
5801	62164	Washington was not moving toward a unilateral lifting of the embargo.	Washington was not moving toward a untlateral lifting of the embargo.	2958800	1471995179718	1471995179854	i	73
5801	62164	Washington was not moving toward a unilateral lifting of the embargo.	Washington was not moving toward a untlateral lifting of the embargo.	2958806	1471995179806	1471995179926	n	78
5801	62164	Washington was not moving toward a unilateral lifting of the embargo.	Washington was not moving toward a untlateral lifting of the embargo.	2958812	1471995179922	1471995180025	g	71
5801	62164	Washington was not moving toward a unilateral lifting of the embargo.	Washington was not moving toward a untlateral lifting of the embargo.	2958819	1471995180077	1471995180181	 	32
5801	62164	Washington was not moving toward a unilateral lifting of the embargo.	Washington was not moving toward a untlateral lifting of the embargo.	2958825	1471995180610	1471995180709	t	84
5801	62164	Washington was not moving toward a unilateral lifting of the embargo.	Washington was not moving toward a untlateral lifting of the embargo.	2958838	1471995180752	1471995180840	o	79
5801	62164	Washington was not moving toward a unilateral lifting of the embargo.	Washington was not moving toward a untlateral lifting of the embargo.	2958839	1471995180924	1471995181012	w	87
5801	62164	Washington was not moving toward a unilateral lifting of the embargo.	Washington was not moving toward a untlateral lifting of the embargo.	2958842	1471995181109	1471995181226	a	65
5801	62164	Washington was not moving toward a unilateral lifting of the embargo.	Washington was not moving toward a untlateral lifting of the embargo.	2958845	1471995181197	1471995181301	r	82
5801	62164	Washington was not moving toward a unilateral lifting of the embargo.	Washington was not moving toward a untlateral lifting of the embargo.	2958893	1471995181227	1471995181357	d	68
5801	62164	Washington was not moving toward a unilateral lifting of the embargo.	Washington was not moving toward a untlateral lifting of the embargo.	2958897	1471995181501	1471995181616	 	32
5801	62164	Washington was not moving toward a unilateral lifting of the embargo.	Washington was not moving toward a untlateral lifting of the embargo.	2958902	1471995181826	1471995181922	a	65
5801	62164	Washington was not moving toward a unilateral lifting of the embargo.	Washington was not moving toward a untlateral lifting of the embargo.	2958906	1471995181923	1471995182030	 	32
5801	62164	Washington was not moving toward a unilateral lifting of the embargo.	Washington was not moving toward a untlateral lifting of the embargo.	2958907	1471995182191	1471995182315	u	85
5801	62164	Washington was not moving toward a unilateral lifting of the embargo.	Washington was not moving toward a untlateral lifting of the embargo.	2958965	1471995182287	1471995182435	n	78
5801	62164	Washington was not moving toward a unilateral lifting of the embargo.	Washington was not moving toward a untlateral lifting of the embargo.	2958968	1471995182509	1471995182620	t	84
5801	62164	Washington was not moving toward a unilateral lifting of the embargo.	Washington was not moving toward a untlateral lifting of the embargo.	2958970	1471995182760	1471995182856	l	76
5801	62164	Washington was not moving toward a unilateral lifting of the embargo.	Washington was not moving toward a untlateral lifting of the embargo.	2958971	1471995182959	1471995183011	a	65
5801	62164	Washington was not moving toward a unilateral lifting of the embargo.	Washington was not moving toward a untlateral lifting of the embargo.	2958972	1471995183328	1471995183413	t	84
5801	62164	Washington was not moving toward a unilateral lifting of the embargo.	Washington was not moving toward a untlateral lifting of the embargo.	2958997	1471995183412	1471995183484	e	69
5801	62164	Washington was not moving toward a unilateral lifting of the embargo.	Washington was not moving toward a untlateral lifting of the embargo.	2959001	1471995183542	1471995183622	r	82
5801	62164	Washington was not moving toward a unilateral lifting of the embargo.	Washington was not moving toward a untlateral lifting of the embargo.	2959005	1471995183752	1471995183871	a	65
5801	62164	Washington was not moving toward a unilateral lifting of the embargo.	Washington was not moving toward a untlateral lifting of the embargo.	2959008	1471995183804	1471995183908	l	76
5801	62164	Washington was not moving toward a unilateral lifting of the embargo.	Washington was not moving toward a untlateral lifting of the embargo.	2959012	1471995183979	1471995184075	 	32
5801	62164	Washington was not moving toward a unilateral lifting of the embargo.	Washington was not moving toward a untlateral lifting of the embargo.	2959015	1471995184213	1471995184297	l	76
5801	62164	Washington was not moving toward a unilateral lifting of the embargo.	Washington was not moving toward a untlateral lifting of the embargo.	2959035	1471995184403	1471995184491	i	73
5801	62164	Washington was not moving toward a unilateral lifting of the embargo.	Washington was not moving toward a untlateral lifting of the embargo.	2959037	1471995184516	1471995184604	f	70
5801	62164	Washington was not moving toward a unilateral lifting of the embargo.	Washington was not moving toward a untlateral lifting of the embargo.	2959039	1471995184695	1471995184815	t	84
5801	62164	Washington was not moving toward a unilateral lifting of the embargo.	Washington was not moving toward a untlateral lifting of the embargo.	2959041	1471995184783	1471995184922	i	73
5801	62164	Washington was not moving toward a unilateral lifting of the embargo.	Washington was not moving toward a untlateral lifting of the embargo.	2959067	1471995184871	1471995185009	n	78
5801	62164	Washington was not moving toward a unilateral lifting of the embargo.	Washington was not moving toward a untlateral lifting of the embargo.	2959072	1471995184987	1471995185111	g	71
5801	62164	Washington was not moving toward a unilateral lifting of the embargo.	Washington was not moving toward a untlateral lifting of the embargo.	2959075	1471995185123	1471995185207	 	32
5801	62164	Washington was not moving toward a unilateral lifting of the embargo.	Washington was not moving toward a untlateral lifting of the embargo.	2959079	1471995185270	1471995185357	o	79
5801	62164	Washington was not moving toward a unilateral lifting of the embargo.	Washington was not moving toward a untlateral lifting of the embargo.	2959082	1471995185362	1471995185458	f	70
5801	62164	Washington was not moving toward a unilateral lifting of the embargo.	Washington was not moving toward a untlateral lifting of the embargo.	2959084	1471995185458	1471995185529	 	32
5801	62164	Washington was not moving toward a unilateral lifting of the embargo.	Washington was not moving toward a untlateral lifting of the embargo.	2959095	1471995185546	1471995185638	t	84
5801	62164	Washington was not moving toward a unilateral lifting of the embargo.	Washington was not moving toward a untlateral lifting of the embargo.	2959100	1471995185622	1471995185701	h	72
5801	62164	Washington was not moving toward a unilateral lifting of the embargo.	Washington was not moving toward a untlateral lifting of the embargo.	2959102	1471995185739	1471995185858	e	69
5801	62164	Washington was not moving toward a unilateral lifting of the embargo.	Washington was not moving toward a untlateral lifting of the embargo.	2959104	1471995185803	1471995185903	 	32
5801	62164	Washington was not moving toward a unilateral lifting of the embargo.	Washington was not moving toward a untlateral lifting of the embargo.	2959106	1471995186191	1471995186278	e	69
5801	62164	Washington was not moving toward a unilateral lifting of the embargo.	Washington was not moving toward a untlateral lifting of the embargo.	2959138	1471995186283	1471995186383	m	77
5801	62164	Washington was not moving toward a unilateral lifting of the embargo.	Washington was not moving toward a untlateral lifting of the embargo.	2959139	1471995186527	1471995186614	b	66
5801	62164	Washington was not moving toward a unilateral lifting of the embargo.	Washington was not moving toward a untlateral lifting of the embargo.	2959140	1471995186656	1471995186743	a	65
5801	62164	Washington was not moving toward a unilateral lifting of the embargo.	Washington was not moving toward a untlateral lifting of the embargo.	2959142	1471995186756	1471995186831	r	82
5801	62164	Washington was not moving toward a unilateral lifting of the embargo.	Washington was not moving toward a untlateral lifting of the embargo.	2959144	1471995187012	1471995187095	g	71
5801	62164	Washington was not moving toward a unilateral lifting of the embargo.	Washington was not moving toward a untlateral lifting of the embargo.	2959154	1471995187064	1471995187163	o	79
5801	62177	We've pursued other options and as a result we've made some progress.	We've pursued other options and as a result we've made some progress.	2959290	1471995189203	1471995189415	SHIFT	16
5801	62177	We've pursued other options and as a result we've made some progress.	We've pursued other options and as a result we've made some progress.	2959289	1471995189340	1471995189411	W	87
5801	62177	We've pursued other options and as a result we've made some progress.	We've pursued other options and as a result we've made some progress.	2959291	1471995189501	1471995189600	e	69
5801	62177	We've pursued other options and as a result we've made some progress.	We've pursued other options and as a result we've made some progress.	2959292	1471995189830	1471995189930	'	222
5801	62177	We've pursued other options and as a result we've made some progress.	We've pursued other options and as a result we've made some progress.	2959293	1471995190023	1471995190158	v	86
5801	62177	We've pursued other options and as a result we've made some progress.	We've pursued other options and as a result we've made some progress.	2959370	1471995190131	1471995190227	e	69
5801	62177	We've pursued other options and as a result we've made some progress.	We've pursued other options and as a result we've made some progress.	2959373	1471995190258	1471995190361	 	32
5801	62177	We've pursued other options and as a result we've made some progress.	We've pursued other options and as a result we've made some progress.	2959376	1471995190493	1471995190588	p	80
5801	62177	We've pursued other options and as a result we've made some progress.	We've pursued other options and as a result we've made some progress.	2959378	1471995190593	1471995190676	e	69
5801	62177	We've pursued other options and as a result we've made some progress.	We've pursued other options and as a result we've made some progress.	2959382	1471995191010	1471995191097	BKSP	8
5801	62177	We've pursued other options and as a result we've made some progress.	We've pursued other options and as a result we've made some progress.	2959387	1471995191279	1471995191367	u	85
5801	62177	We've pursued other options and as a result we've made some progress.	We've pursued other options and as a result we've made some progress.	2959393	1471995191419	1471995191534	r	82
5801	62177	We've pursued other options and as a result we've made some progress.	We've pursued other options and as a result we've made some progress.	2959427	1471995191943	1471995192034	s	83
5801	62177	We've pursued other options and as a result we've made some progress.	We've pursued other options and as a result we've made some progress.	2959431	1471995192051	1471995192138	u	85
5801	62177	We've pursued other options and as a result we've made some progress.	We've pursued other options and as a result we've made some progress.	2959435	1471995192147	1471995192222	e	69
5801	62177	We've pursued other options and as a result we've made some progress.	We've pursued other options and as a result we've made some progress.	2959438	1471995192332	1471995192455	d	68
5801	62177	We've pursued other options and as a result we've made some progress.	We've pursued other options and as a result we've made some progress.	2959441	1471995192472	1471995192588	 	32
5801	62177	We've pursued other options and as a result we've made some progress.	We've pursued other options and as a result we've made some progress.	2959462	1471995192727	1471995192834	o	79
5801	62177	We've pursued other options and as a result we've made some progress.	We've pursued other options and as a result we've made some progress.	2959469	1471995192847	1471995192934	t	84
5801	62177	We've pursued other options and as a result we've made some progress.	We've pursued other options and as a result we've made some progress.	2959475	1471995192954	1471995193037	h	72
5801	62177	We've pursued other options and as a result we've made some progress.	We've pursued other options and as a result we've made some progress.	2959480	1471995193042	1471995193122	e	69
5801	62177	We've pursued other options and as a result we've made some progress.	We've pursued other options and as a result we've made some progress.	2959485	1471995193190	1471995193285	r	82
5801	62177	We've pursued other options and as a result we've made some progress.	We've pursued other options and as a result we've made some progress.	2959514	1471995193262	1471995193345	 	32
5801	62177	We've pursued other options and as a result we've made some progress.	We've pursued other options and as a result we've made some progress.	2959517	1471995193508	1471995193623	o	79
5801	62177	We've pursued other options and as a result we've made some progress.	We've pursued other options and as a result we've made some progress.	2959523	1471995193576	1471995193699	p	80
5801	62177	We've pursued other options and as a result we've made some progress.	We've pursued other options and as a result we've made some progress.	2959527	1471995193791	1471995193946	t	84
5801	62177	We've pursued other options and as a result we've made some progress.	We've pursued other options and as a result we've made some progress.	2959531	1471995193915	1471995194046	i	73
5801	62177	We've pursued other options and as a result we've made some progress.	We've pursued other options and as a result we've made some progress.	2959564	1471995194003	1471995194118	o	79
5801	62177	We've pursued other options and as a result we've made some progress.	We've pursued other options and as a result we've made some progress.	2959570	1471995194171	1471995194278	n	78
5801	62177	We've pursued other options and as a result we've made some progress.	We've pursued other options and as a result we've made some progress.	2959573	1471995194304	1471995194403	s	83
5801	62177	We've pursued other options and as a result we've made some progress.	We've pursued other options and as a result we've made some progress.	2959577	1471995194420	1471995194507	 	32
5801	62177	We've pursued other options and as a result we've made some progress.	We've pursued other options and as a result we've made some progress.	2959579	1471995194572	1471995194655	a	65
5801	62177	We've pursued other options and as a result we've made some progress.	We've pursued other options and as a result we've made some progress.	2959582	1471995194732	1471995194819	s	83
5801	62177	We've pursued other options and as a result we've made some progress.	We've pursued other options and as a result we've made some progress.	2959629	1471995194839	1471995194935	 	32
5801	62177	We've pursued other options and as a result we've made some progress.	We've pursued other options and as a result we've made some progress.	2959631	1471995195221	1471995195312	BKSP	8
5801	62177	We've pursued other options and as a result we've made some progress.	We've pursued other options and as a result we've made some progress.	2959633	1471995195374	1471995195477	BKSP	8
5801	62177	We've pursued other options and as a result we've made some progress.	We've pursued other options and as a result we've made some progress.	2959636	1471995195700	1471995195799	n	78
5801	62177	We've pursued other options and as a result we've made some progress.	We've pursued other options and as a result we've made some progress.	2959640	1471995195776	1471995195867	d	68
5801	62177	We've pursued other options and as a result we've made some progress.	We've pursued other options and as a result we've made some progress.	2959643	1471995195938	1471995196037	 	32
5801	62177	We've pursued other options and as a result we've made some progress.	We've pursued other options and as a result we've made some progress.	2959647	1471995196046	1471995196121	a	65
5801	62177	We've pursued other options and as a result we've made some progress.	We've pursued other options and as a result we've made some progress.	2959656	1471995196196	1471995196279	s	83
5801	62177	We've pursued other options and as a result we've made some progress.	We've pursued other options and as a result we've made some progress.	2959657	1471995196310	1471995196401	 	32
5801	62177	We've pursued other options and as a result we've made some progress.	We've pursued other options and as a result we've made some progress.	2959658	1471995196406	1471995196509	a	65
5801	62177	We've pursued other options and as a result we've made some progress.	We've pursued other options and as a result we've made some progress.	2959660	1471995196518	1471995196629	 	32
5801	62177	We've pursued other options and as a result we've made some progress.	We've pursued other options and as a result we've made some progress.	2959662	1471995196820	1471995196915	r	82
5801	62177	We've pursued other options and as a result we've made some progress.	We've pursued other options and as a result we've made some progress.	2959668	1471995196990	1471995197069	e	69
5801	62177	We've pursued other options and as a result we've made some progress.	We've pursued other options and as a result we've made some progress.	2959670	1471995197152	1471995197259	s	83
5801	62177	We've pursued other options and as a result we've made some progress.	We've pursued other options and as a result we've made some progress.	2959673	1471995197260	1471995197403	u	85
5801	62177	We've pursued other options and as a result we've made some progress.	We've pursued other options and as a result we've made some progress.	2959676	1471995197332	1471995197480	l	76
5801	62177	We've pursued other options and as a result we've made some progress.	We've pursued other options and as a result we've made some progress.	2959717	1471995197476	1471995197583	t	84
5801	62177	We've pursued other options and as a result we've made some progress.	We've pursued other options and as a result we've made some progress.	2959718	1471995197619	1471995197722	 	32
5801	62177	We've pursued other options and as a result we've made some progress.	We've pursued other options and as a result we've made some progress.	2959719	1471995198004	1471995198083	w	87
5801	62177	We've pursued other options and as a result we've made some progress.	We've pursued other options and as a result we've made some progress.	2959720	1471995198171	1471995198258	e	69
5801	62177	We've pursued other options and as a result we've made some progress.	We've pursued other options and as a result we've made some progress.	2959722	1471995198546	1471995198645	'	222
5801	62177	We've pursued other options and as a result we've made some progress.	We've pursued other options and as a result we've made some progress.	2959725	1471995198742	1471995198885	v	86
5801	62177	We've pursued other options and as a result we've made some progress.	We've pursued other options and as a result we've made some progress.	2959768	1471995198822	1471995198941	e	69
5801	62177	We've pursued other options and as a result we've made some progress.	We've pursued other options and as a result we've made some progress.	2959769	1471995198971	1471995199058	 	32
5801	62177	We've pursued other options and as a result we've made some progress.	We've pursued other options and as a result we've made some progress.	2959770	1471995199162	1471995199265	m	77
5801	62177	We've pursued other options and as a result we've made some progress.	We've pursued other options and as a result we've made some progress.	2959771	1471995199234	1471995199309	a	65
5801	62177	We've pursued other options and as a result we've made some progress.	We've pursued other options and as a result we've made some progress.	2959772	1471995199420	1471995199571	d	68
5801	62177	We've pursued other options and as a result we've made some progress.	We've pursued other options and as a result we've made some progress.	2959774	1471995199623	1471995199686	 	32
5801	62177	We've pursued other options and as a result we've made some progress.	We've pursued other options and as a result we've made some progress.	2959827	1471995199958	1471995200062	BKSP	8
5801	62177	We've pursued other options and as a result we've made some progress.	We've pursued other options and as a result we've made some progress.	2959831	1471995200088	1471995200179	e	69
5801	62177	We've pursued other options and as a result we've made some progress.	We've pursued other options and as a result we've made some progress.	2959835	1471995200210	1471995200297	 	32
5801	62177	We've pursued other options and as a result we've made some progress.	We've pursued other options and as a result we've made some progress.	2959837	1471995200538	1471995200633	s	83
5801	62177	We've pursued other options and as a result we've made some progress.	We've pursued other options and as a result we've made some progress.	2959839	1471995200626	1471995200749	o	79
5801	62177	We've pursued other options and as a result we've made some progress.	We've pursued other options and as a result we've made some progress.	2959870	1471995200709	1471995200817	m	77
5801	62177	We've pursued other options and as a result we've made some progress.	We've pursued other options and as a result we've made some progress.	2959876	1471995200802	1471995200901	e	69
5801	62177	We've pursued other options and as a result we've made some progress.	We've pursued other options and as a result we've made some progress.	2959884	1471995200919	1471995201010	 	32
5801	62177	We've pursued other options and as a result we've made some progress.	We've pursued other options and as a result we've made some progress.	2959889	1471995201113	1471995201204	p	80
5801	62177	We've pursued other options and as a result we've made some progress.	We've pursued other options and as a result we've made some progress.	2959892	1471995201213	1471995201292	r	82
5801	62177	We've pursued other options and as a result we've made some progress.	We've pursued other options and as a result we've made some progress.	2959893	1471995201395	1471995201450	e	69
5801	62177	We've pursued other options and as a result we've made some progress.	We've pursued other options and as a result we've made some progress.	2959927	1471995201929	1471995202037	BKSP	8
5801	62177	We've pursued other options and as a result we've made some progress.	We've pursued other options and as a result we've made some progress.	2959930	1471995202139	1471995202230	o	79
5801	62177	We've pursued other options and as a result we've made some progress.	We've pursued other options and as a result we've made some progress.	2959935	1471995202243	1471995202318	g	71
5801	62177	We've pursued other options and as a result we've made some progress.	We've pursued other options and as a result we've made some progress.	2959939	1471995202436	1471995202531	r	82
5801	62177	We've pursued other options and as a result we've made some progress.	We've pursued other options and as a result we've made some progress.	2959947	1471995202612	1471995202691	e	69
5801	62177	We've pursued other options and as a result we've made some progress.	We've pursued other options and as a result we've made some progress.	2959952	1471995202788	1471995202847	s	83
5801	62177	We've pursued other options and as a result we've made some progress.	We've pursued other options and as a result we've made some progress.	2959974	1471995202925	1471995203016	s	83
5801	62177	We've pursued other options and as a result we've made some progress.	We've pursued other options and as a result we've made some progress.	2959976	1471995202976	1471995203088	.	190
5801	62192	It will probably be tomorrow.	It will probably be tomorrow.	2960047	1471995204532	1471995204696	SHIFT	16
5801	62192	It will probably be tomorrow.	It will probably be tomorrow.	2960052	1471995204661	1471995204770	I	73
5801	62192	It will probably be tomorrow.	It will probably be tomorrow.	2960056	1471995204770	1471995204872	t	84
5801	62192	It will probably be tomorrow.	It will probably be tomorrow.	2960063	1471995204901	1471995204996	 	32
5801	62192	It will probably be tomorrow.	It will probably be tomorrow.	2960071	1471995205029	1471995205149	w	87
5801	62192	It will probably be tomorrow.	It will probably be tomorrow.	2960106	1471995205129	1471995205205	i	73
5801	62192	It will probably be tomorrow.	It will probably be tomorrow.	2960108	1471995205320	1471995205379	l	76
5801	62192	It will probably be tomorrow.	It will probably be tomorrow.	2960110	1471995205438	1471995205514	l	76
5801	62192	It will probably be tomorrow.	It will probably be tomorrow.	2960113	1471995205560	1471995205639	 	32
5801	62192	It will probably be tomorrow.	It will probably be tomorrow.	2960118	1471995205713	1471995205792	p	80
5801	62192	It will probably be tomorrow.	It will probably be tomorrow.	2960124	1471995205841	1471995205937	r	82
5801	62192	It will probably be tomorrow.	It will probably be tomorrow.	2960184	1471995205902	1471995205993	o	79
5801	62192	It will probably be tomorrow.	It will probably be tomorrow.	2960186	1471995206055	1471995206155	b	66
5801	62192	It will probably be tomorrow.	It will probably be tomorrow.	2960189	1471995206289	1471995206397	a	65
5801	62192	It will probably be tomorrow.	It will probably be tomorrow.	2960192	1471995206393	1471995206504	b	66
5801	62192	It will probably be tomorrow.	It will probably be tomorrow.	2960195	1471995206591	1471995206722	l	76
5801	62192	It will probably be tomorrow.	It will probably be tomorrow.	2960197	1471995207380	1471995207483	y	89
5801	62192	It will probably be tomorrow.	It will probably be tomorrow.	2960215	1471995207468	1471995207543	 	32
5801	62192	It will probably be tomorrow.	It will probably be tomorrow.	2960218	1471995207623	1471995207726	b	66
5801	62192	It will probably be tomorrow.	It will probably be tomorrow.	2960221	1471995207675	1471995207786	e	69
5801	62192	It will probably be tomorrow.	It will probably be tomorrow.	2960224	1471995207831	1471995207931	 	32
5801	62192	It will probably be tomorrow.	It will probably be tomorrow.	2960227	1471995208032	1471995208136	t	84
5801	62192	It will probably be tomorrow.	It will probably be tomorrow.	2960235	1471995208097	1471995208200	o	79
5801	62192	It will probably be tomorrow.	It will probably be tomorrow.	2960237	1471995208173	1471995208280	m	77
5801	62192	It will probably be tomorrow.	It will probably be tomorrow.	2960241	1471995208292	1471995208388	o	79
5801	62192	It will probably be tomorrow.	It will probably be tomorrow.	2960246	1471995208373	1471995208436	r	82
5801	62192	It will probably be tomorrow.	It will probably be tomorrow.	2960252	1471995208512	1471995208606	r	82
5801	62192	It will probably be tomorrow.	It will probably be tomorrow.	2960285	1471995208604	1471995208692	o	79
5801	62192	It will probably be tomorrow.	It will probably be tomorrow.	2960288	1471995208736	1471995208847	w	87
5801	62192	It will probably be tomorrow.	It will probably be tomorrow.	2960291	1471995208831	1471995208943	.	190
5801	62200	Is this cash coming into TW?	Is this cash coming into TW/	2960403	1471995210580	1471995210736	SHIFT	16
5801	62200	Is this cash coming into TW?	Is this cash coming into TW/	2960405	1471995210689	1471995210804	I	73
5801	62200	Is this cash coming into TW?	Is this cash coming into TW/	2960408	1471995210817	1471995210900	s	83
5801	62200	Is this cash coming into TW?	Is this cash coming into TW/	2960414	1471995210926	1471995211021	 	32
5801	62200	Is this cash coming into TW?	Is this cash coming into TW/	2960417	1471995211033	1471995211141	t	84
5801	62200	Is this cash coming into TW?	Is this cash coming into TW/	2960444	1471995211130	1471995211245	h	72
5801	62200	Is this cash coming into TW?	Is this cash coming into TW/	2960445	1471995211214	1471995211313	i	73
5801	62200	Is this cash coming into TW?	Is this cash coming into TW/	2960446	1471995211306	1471995211417	s	83
5801	62200	Is this cash coming into TW?	Is this cash coming into TW/	2960447	1471995211456	1471995211552	 	32
5801	62200	Is this cash coming into TW?	Is this cash coming into TW/	2960448	1471995211572	1471995211656	c	67
5801	62200	Is this cash coming into TW?	Is this cash coming into TW/	2960449	1471995211793	1471995211868	a	65
5801	62200	Is this cash coming into TW?	Is this cash coming into TW/	2960482	1471995211948	1471995212064	s	83
5801	62200	Is this cash coming into TW?	Is this cash coming into TW/	2960486	1471995212036	1471995212160	h	72
5801	62200	Is this cash coming into TW?	Is this cash coming into TW/	2960490	1471995212497	1471995212621	 	32
5801	62200	Is this cash coming into TW?	Is this cash coming into TW/	2960494	1471995212746	1471995212854	c	67
5801	62200	Is this cash coming into TW?	Is this cash coming into TW/	2960506	1471995212811	1471995212918	o	79
5801	62200	Is this cash coming into TW?	Is this cash coming into TW/	2960508	1471995212890	1471995212994	m	77
5801	62200	Is this cash coming into TW?	Is this cash coming into TW/	2960510	1471995213038	1471995213158	i	73
5801	62200	Is this cash coming into TW?	Is this cash coming into TW/	2960512	1471995213118	1471995213222	n	78
5801	62200	Is this cash coming into TW?	Is this cash coming into TW/	2960515	1471995213218	1471995213326	g	71
5801	62200	Is this cash coming into TW?	Is this cash coming into TW/	2960528	1471995213318	1471995213398	 	32
5801	62200	Is this cash coming into TW?	Is this cash coming into TW/	2960529	1471995213457	1471995213568	i	73
5801	62200	Is this cash coming into TW?	Is this cash coming into TW/	2960530	1471995213532	1471995213657	n	78
5801	62200	Is this cash coming into TW?	Is this cash coming into TW/	2960531	1471995213640	1471995213768	t	84
5801	62200	Is this cash coming into TW?	Is this cash coming into TW/	2960532	1471995213737	1471995213844	o	79
5801	62200	Is this cash coming into TW?	Is this cash coming into TW/	2960533	1471995213929	1471995214009	 	32
5801	62200	Is this cash coming into TW?	Is this cash coming into TW/	2960626	1471995214070	1471995215346	SHIFT	16
5801	62200	Is this cash coming into TW?	Is this cash coming into TW/	2960613	1471995214238	1471995214322	T	84
5801	62200	Is this cash coming into TW?	Is this cash coming into TW/	2960618	1471995214986	1471995215046	Q	81
5801	62200	Is this cash coming into TW?	Is this cash coming into TW/	2960634	1471995215520	1471995215616	BKSP	8
5801	62200	Is this cash coming into TW?	Is this cash coming into TW/	2960641	1471995215952	1471995216220	SHIFT	16
5801	62200	Is this cash coming into TW?	Is this cash coming into TW/	2960647	1471995216140	1471995216292	W	87
5801	62200	Is this cash coming into TW?	Is this cash coming into TW/	2960651	1471995216288	1471995216420	/	191
5801	62207	And I can't turn my phone on.	And I can't turn my phone on.	2960745	1471995218312	1471995218444	SHIFT	16
5801	62207	And I can't turn my phone on.	And I can't turn my phone on.	2960747	1471995218384	1471995218492	A	65
5801	62207	And I can't turn my phone on.	And I can't turn my phone on.	2960751	1471995218520	1471995218624	 	32
5801	62207	And I can't turn my phone on.	And I can't turn my phone on.	2960753	1471995218704	1471995218768	d	68
5801	62207	And I can't turn my phone on.	And I can't turn my phone on.	2960756	1471995219149	1471995219233	BKSP	8
5801	62207	And I can't turn my phone on.	And I can't turn my phone on.	2960759	1471995219353	1471995219449	BKSP	8
5801	62207	And I can't turn my phone on.	And I can't turn my phone on.	2960762	1471995219594	1471995219694	n	78
5801	62207	And I can't turn my phone on.	And I can't turn my phone on.	2960765	1471995219698	1471995219789	d	68
5801	62207	And I can't turn my phone on.	And I can't turn my phone on.	2960852	1471995219782	1471995219874	 	32
5801	62207	And I can't turn my phone on.	And I can't turn my phone on.	2960854	1471995219948	1471995220104	SHIFT	16
5801	62207	And I can't turn my phone on.	And I can't turn my phone on.	2960857	1471995220076	1471995220152	U	85
5801	62207	And I can't turn my phone on.	And I can't turn my phone on.	2960860	1471995220347	1471995220431	 	32
5801	62207	And I can't turn my phone on.	And I can't turn my phone on.	2960862	1471995220626	1471995220698	BKSP	8
5801	62207	And I can't turn my phone on.	And I can't turn my phone on.	2960866	1471995220759	1471995220851	BKSP	8
5801	62207	And I can't turn my phone on.	And I can't turn my phone on.	2960870	1471995221082	1471995221233	SHIFT	16
5801	62207	And I can't turn my phone on.	And I can't turn my phone on.	2960874	1471995221186	1471995221278	I	73
5801	62207	And I can't turn my phone on.	And I can't turn my phone on.	2960877	1471995221403	1471995221499	 	32
5801	62207	And I can't turn my phone on.	And I can't turn my phone on.	2960880	1471995221511	1471995221571	c	67
5801	62207	And I can't turn my phone on.	And I can't turn my phone on.	2960889	1471995221707	1471995221807	a	65
5801	62207	And I can't turn my phone on.	And I can't turn my phone on.	2960892	1471995221828	1471995221900	n	78
5801	62207	And I can't turn my phone on.	And I can't turn my phone on.	2960895	1471995222201	1471995222330	'	222
5801	62207	And I can't turn my phone on.	And I can't turn my phone on.	2960900	1471995222313	1471995222437	t	84
5801	62207	And I can't turn my phone on.	And I can't turn my phone on.	2960904	1471995222464	1471995222544	 	32
5801	62207	And I can't turn my phone on.	And I can't turn my phone on.	2960985	1471995222991	1471995223087	t	84
5801	62207	And I can't turn my phone on.	And I can't turn my phone on.	2960988	1471995223067	1471995223167	u	85
5801	62207	And I can't turn my phone on.	And I can't turn my phone on.	2960990	1471995223202	1471995223290	n	82
5801	62207	And I can't turn my phone on.	And I can't turn my phone on.	2960992	1471995223668	1471995223716	BKSP	8
5801	62207	And I can't turn my phone on.	And I can't turn my phone on.	2960993	1471995224210	1471995224298	n	78
5801	62207	And I can't turn my phone on.	And I can't turn my phone on.	2961025	1471995224383	1471995224483	 	32
5801	62207	And I can't turn my phone on.	And I can't turn my phone on.	2961028	1471995224503	1471995224607	m	77
5801	62207	And I can't turn my phone on.	And I can't turn my phone on.	2961031	1471995224599	1471995224695	y	89
5801	62207	And I can't turn my phone on.	And I can't turn my phone on.	2961034	1471995224711	1471995224803	 	32
5801	62207	And I can't turn my phone on.	And I can't turn my phone on.	2961036	1471995224915	1471995225006	p	80
5801	62207	And I can't turn my phone on.	And I can't turn my phone on.	2961048	1471995225092	1471995225176	h	72
5801	62207	And I can't turn my phone on.	And I can't turn my phone on.	2961051	1471995225221	1471995225357	o	79
5801	62207	And I can't turn my phone on.	And I can't turn my phone on.	2961054	1471995225337	1471995225433	n	78
5801	62207	And I can't turn my phone on.	And I can't turn my phone on.	2961058	1471995225461	1471995225589	e	69
5801	62207	And I can't turn my phone on.	And I can't turn my phone on.	2961107	1471995225545	1471995225613	 	32
5801	62207	And I can't turn my phone on.	And I can't turn my phone on.	2961108	1471995225661	1471995225796	o	79
5801	62207	And I can't turn my phone on.	And I can't turn my phone on.	2961110	1471995225749	1471995225869	n	78
5801	62207	And I can't turn my phone on.	And I can't turn my phone on.	2961111	1471995225959	1471995226075	.	190
5801	62216	TXU is off, everyone else OK.	TXU is off, everyone else OK.	2961228	1471995227752	1471995228861	SHIFT	16
5801	62216	TXU is off, everyone else OK.	TXU is off, everyone else OK.	2961222	1471995227969	1471995228053	T	84
5801	62216	TXU is off, everyone else OK.	TXU is off, everyone else OK.	2961225	1471995228605	1471995228693	X	88
5801	62216	TXU is off, everyone else OK.	TXU is off, everyone else OK.	2961231	1471995228757	1471995228913	U	85
5801	62216	TXU is off, everyone else OK.	TXU is off, everyone else OK.	2961235	1471995229078	1471995229178	 	32
5801	62216	TXU is off, everyone else OK.	TXU is off, everyone else OK.	2961237	1471995229271	1471995229359	i	73
5801	62216	TXU is off, everyone else OK.	TXU is off, everyone else OK.	2961255	1471995229375	1471995229459	s	83
5801	62216	TXU is off, everyone else OK.	TXU is off, everyone else OK.	2961256	1471995229509	1471995229593	 	32
5801	62216	TXU is off, everyone else OK.	TXU is off, everyone else OK.	2961258	1471995229679	1471995229735	o	79
5801	62216	TXU is off, everyone else OK.	TXU is off, everyone else OK.	2961261	1471995229731	1471995229815	f	70
5801	62216	TXU is off, everyone else OK.	TXU is off, everyone else OK.	2961264	1471995229894	1471995230014	f	70
5801	62216	TXU is off, everyone else OK.	TXU is off, everyone else OK.	2961279	1471995230034	1471995230190	,	188
5801	62216	TXU is off, everyone else OK.	TXU is off, everyone else OK.	2961280	1471995230166	1471995230302	 	32
5801	62216	TXU is off, everyone else OK.	TXU is off, everyone else OK.	2961281	1471995230417	1471995230513	e	69
5801	62216	TXU is off, everyone else OK.	TXU is off, everyone else OK.	2961283	1471995230534	1471995230633	v	86
5801	62216	TXU is off, everyone else OK.	TXU is off, everyone else OK.	2961310	1471995230626	1471995230702	e	69
5801	62216	TXU is off, everyone else OK.	TXU is off, everyone else OK.	2961313	1471995230767	1471995230871	r	82
5801	62216	TXU is off, everyone else OK.	TXU is off, everyone else OK.	2961317	1471995230867	1471995230975	y	89
5801	62216	TXU is off, everyone else OK.	TXU is off, everyone else OK.	2961321	1471995231119	1471995231267	o	79
5801	62216	TXU is off, everyone else OK.	TXU is off, everyone else OK.	2961324	1471995231239	1471995231351	n	78
5801	62216	TXU is off, everyone else OK.	TXU is off, everyone else OK.	2961327	1471995231359	1471995231455	e	69
5801	62216	TXU is off, everyone else OK.	TXU is off, everyone else OK.	2961337	1471995231459	1471995231543	 	32
5801	62216	TXU is off, everyone else OK.	TXU is off, everyone else OK.	2961340	1471995231580	1471995231676	e	69
5801	62216	TXU is off, everyone else OK.	TXU is off, everyone else OK.	2961343	1471995231694	1471995231789	l	76
5801	62216	TXU is off, everyone else OK.	TXU is off, everyone else OK.	2961346	1471995231782	1471995231894	s	83
5801	62216	TXU is off, everyone else OK.	TXU is off, everyone else OK.	2961348	1471995231948	1471995232064	e	69
5801	62216	TXU is off, everyone else OK.	TXU is off, everyone else OK.	2961419	1471995232065	1471995232168	 	32
5801	62216	TXU is off, everyone else OK.	TXU is off, everyone else OK.	2961424	1471995232451	1471995232848	SHIFT	16
5801	62216	TXU is off, everyone else OK.	TXU is off, everyone else OK.	2961427	1471995232628	1471995232879	O	79
5801	62216	TXU is off, everyone else OK.	TXU is off, everyone else OK.	2961431	1471995232808	1471995232952	K	75
5801	62216	TXU is off, everyone else OK.	TXU is off, everyone else OK.	2961436	1471995233283	1471995233375	.	190
5801	62225	Mansell has not forgotten what the ovals have meant to him, however.	Mansell has not forgotten what the ovals have meant to him, however.	2961556	1471995235155	1471995235291	SHIFT	16
5801	62225	Mansell has not forgotten what the ovals have meant to him, however.	Mansell has not forgotten what the ovals have meant to him, however.	2961558	1471995235215	1471995235366	M	77
5801	62225	Mansell has not forgotten what the ovals have meant to him, however.	Mansell has not forgotten what the ovals have meant to him, however.	2961560	1471995235355	1471995235415	a	65
5801	62225	Mansell has not forgotten what the ovals have meant to him, however.	Mansell has not forgotten what the ovals have meant to him, however.	2961563	1471995235714	1471995235806	n	78
5801	62225	Mansell has not forgotten what the ovals have meant to him, however.	Mansell has not forgotten what the ovals have meant to him, however.	2961566	1471995235992	1471995236052	s	83
5801	62225	Mansell has not forgotten what the ovals have meant to him, however.	Mansell has not forgotten what the ovals have meant to him, however.	2961569	1471995236166	1471995236194	e	69
5801	62225	Mansell has not forgotten what the ovals have meant to him, however.	Mansell has not forgotten what the ovals have meant to him, however.	2961626	1471995236225	1471995236269	l	76
5801	62225	Mansell has not forgotten what the ovals have meant to him, however.	Mansell has not forgotten what the ovals have meant to him, however.	2961628	1471995236383	1471995236431	l	76
5801	62225	Mansell has not forgotten what the ovals have meant to him, however.	Mansell has not forgotten what the ovals have meant to him, however.	2961632	1471995236710	1471995236753	BKSP	8
5801	62225	Mansell has not forgotten what the ovals have meant to him, however.	Mansell has not forgotten what the ovals have meant to him, however.	2961635	1471995237283	1471995237387	l	76
5801	62225	Mansell has not forgotten what the ovals have meant to him, however.	Mansell has not forgotten what the ovals have meant to him, however.	2961639	1471995237459	1471995237534	 	32
5801	62225	Mansell has not forgotten what the ovals have meant to him, however.	Mansell has not forgotten what the ovals have meant to him, however.	2961642	1471995237615	1471995237691	h	72
5801	62225	Mansell has not forgotten what the ovals have meant to him, however.	Mansell has not forgotten what the ovals have meant to him, however.	2961651	1471995237713	1471995237769	a	65
5801	62225	Mansell has not forgotten what the ovals have meant to him, however.	Mansell has not forgotten what the ovals have meant to him, however.	2961652	1471995237845	1471995237953	s	83
5801	62225	Mansell has not forgotten what the ovals have meant to him, however.	Mansell has not forgotten what the ovals have meant to him, however.	2961653	1471995237933	1471995238013	 	32
5801	62225	Mansell has not forgotten what the ovals have meant to him, however.	Mansell has not forgotten what the ovals have meant to him, however.	2961655	1471995238080	1471995238212	n	78
5801	62225	Mansell has not forgotten what the ovals have meant to him, however.	Mansell has not forgotten what the ovals have meant to him, however.	2961688	1471995238164	1471995238272	o	79
5801	62225	Mansell has not forgotten what the ovals have meant to him, however.	Mansell has not forgotten what the ovals have meant to him, however.	2961691	1471995238248	1471995238367	t	84
5801	62225	Mansell has not forgotten what the ovals have meant to him, however.	Mansell has not forgotten what the ovals have meant to him, however.	2961697	1471995238380	1471995238479	 	32
5801	62225	Mansell has not forgotten what the ovals have meant to him, however.	Mansell has not forgotten what the ovals have meant to him, however.	2961702	1471995238584	1471995238684	f	70
5801	62225	Mansell has not forgotten what the ovals have meant to him, however.	Mansell has not forgotten what the ovals have meant to him, however.	2961705	1471995238684	1471995238788	o	79
5801	62225	Mansell has not forgotten what the ovals have meant to him, however.	Mansell has not forgotten what the ovals have meant to him, however.	2961746	1471995238784	1471995238872	r	82
5801	62225	Mansell has not forgotten what the ovals have meant to him, however.	Mansell has not forgotten what the ovals have meant to him, however.	2961750	1471995238917	1471995239001	g	71
5801	62225	Mansell has not forgotten what the ovals have meant to him, however.	Mansell has not forgotten what the ovals have meant to him, however.	2961754	1471995239146	1471995239242	o	79
5801	62225	Mansell has not forgotten what the ovals have meant to him, however.	Mansell has not forgotten what the ovals have meant to him, however.	2961760	1471995239242	1471995239314	t	84
5801	62225	Mansell has not forgotten what the ovals have meant to him, however.	Mansell has not forgotten what the ovals have meant to him, however.	2961764	1471995239378	1471995239482	t	84
5801	62225	Mansell has not forgotten what the ovals have meant to him, however.	Mansell has not forgotten what the ovals have meant to him, however.	2961769	1471995239588	1471995239699	e	69
5801	62225	Mansell has not forgotten what the ovals have meant to him, however.	Mansell has not forgotten what the ovals have meant to him, however.	2961804	1471995239684	1471995239772	n	78
5801	62225	Mansell has not forgotten what the ovals have meant to him, however.	Mansell has not forgotten what the ovals have meant to him, however.	2961808	1471995239859	1471995239946	 	32
5801	62225	Mansell has not forgotten what the ovals have meant to him, however.	Mansell has not forgotten what the ovals have meant to him, however.	2961813	1471995239985	1471995240081	w	87
5801	62225	Mansell has not forgotten what the ovals have meant to him, however.	Mansell has not forgotten what the ovals have meant to him, however.	2961816	1471995240073	1471995240161	h	72
5801	62225	Mansell has not forgotten what the ovals have meant to him, however.	Mansell has not forgotten what the ovals have meant to him, however.	2961818	1471995240210	1471995240314	a	65
5801	62225	Mansell has not forgotten what the ovals have meant to him, however.	Mansell has not forgotten what the ovals have meant to him, however.	2961822	1471995240326	1471995240414	t	84
5801	62225	Mansell has not forgotten what the ovals have meant to him, however.	Mansell has not forgotten what the ovals have meant to him, however.	2961836	1471995240467	1471995240567	 	32
5801	62225	Mansell has not forgotten what the ovals have meant to him, however.	Mansell has not forgotten what the ovals have meant to him, however.	2961843	1471995240571	1471995240657	t	84
5801	62225	Mansell has not forgotten what the ovals have meant to him, however.	Mansell has not forgotten what the ovals have meant to him, however.	2961848	1471995240655	1471995240738	h	72
5801	62225	Mansell has not forgotten what the ovals have meant to him, however.	Mansell has not forgotten what the ovals have meant to him, however.	2961850	1471995240751	1471995240855	e	69
5801	62225	Mansell has not forgotten what the ovals have meant to him, however.	Mansell has not forgotten what the ovals have meant to him, however.	2961881	1471995240823	1471995240914	 	32
5801	62225	Mansell has not forgotten what the ovals have meant to him, however.	Mansell has not forgotten what the ovals have meant to him, however.	2961885	1471995240986	1471995241077	o	79
5801	62225	Mansell has not forgotten what the ovals have meant to him, however.	Mansell has not forgotten what the ovals have meant to him, however.	2961887	1471995241180	1471995241256	v	86
5801	62225	Mansell has not forgotten what the ovals have meant to him, however.	Mansell has not forgotten what the ovals have meant to him, however.	2961889	1471995241325	1471995241413	a	65
5801	62225	Mansell has not forgotten what the ovals have meant to him, however.	Mansell has not forgotten what the ovals have meant to him, however.	2961893	1471995241432	1471995241524	l	76
5801	62225	Mansell has not forgotten what the ovals have meant to him, however.	Mansell has not forgotten what the ovals have meant to him, however.	2961898	1471995241540	1471995241619	s	83
5801	62225	Mansell has not forgotten what the ovals have meant to him, however.	Mansell has not forgotten what the ovals have meant to him, however.	2961923	1471995241697	1471995241761	 	32
5801	62225	Mansell has not forgotten what the ovals have meant to him, however.	Mansell has not forgotten what the ovals have meant to him, however.	2961928	1471995242170	1471995242246	h	72
5801	62225	Mansell has not forgotten what the ovals have meant to him, however.	Mansell has not forgotten what the ovals have meant to him, however.	2961932	1471995242283	1471995242359	a	65
5801	62225	Mansell has not forgotten what the ovals have meant to him, however.	Mansell has not forgotten what the ovals have meant to him, however.	2961934	1471995242377	1471995242479	v	86
5801	62225	Mansell has not forgotten what the ovals have meant to him, however.	Mansell has not forgotten what the ovals have meant to him, however.	2961967	1471995242477	1471995242589	e	69
5801	62225	Mansell has not forgotten what the ovals have meant to him, however.	Mansell has not forgotten what the ovals have meant to him, however.	2961969	1471995242601	1471995242709	 	32
5801	62225	Mansell has not forgotten what the ovals have meant to him, however.	Mansell has not forgotten what the ovals have meant to him, however.	2961971	1471995242942	1471995243045	m	77
5801	62225	Mansell has not forgotten what the ovals have meant to him, however.	Mansell has not forgotten what the ovals have meant to him, however.	2961974	1471995243050	1471995243117	e	69
5801	62225	Mansell has not forgotten what the ovals have meant to him, however.	Mansell has not forgotten what the ovals have meant to him, however.	2961977	1471995243216	1471995243296	a	65
5801	62225	Mansell has not forgotten what the ovals have meant to him, however.	Mansell has not forgotten what the ovals have meant to him, however.	2961980	1471995243338	1471995243421	n	78
5801	62225	Mansell has not forgotten what the ovals have meant to him, however.	Mansell has not forgotten what the ovals have meant to him, however.	2961987	1471995243423	1471995243497	t	84
5801	62225	Mansell has not forgotten what the ovals have meant to him, however.	Mansell has not forgotten what the ovals have meant to him, however.	2961989	1471995243530	1471995243598	 	32
5801	62225	Mansell has not forgotten what the ovals have meant to him, however.	Mansell has not forgotten what the ovals have meant to him, however.	2961991	1471995243602	1471995243713	t	84
5801	62225	Mansell has not forgotten what the ovals have meant to him, however.	Mansell has not forgotten what the ovals have meant to him, however.	2961994	1471995243682	1471995243766	o	79
5801	62225	Mansell has not forgotten what the ovals have meant to him, however.	Mansell has not forgotten what the ovals have meant to him, however.	2961997	1471995243812	1471995243904	 	32
5801	62225	Mansell has not forgotten what the ovals have meant to him, however.	Mansell has not forgotten what the ovals have meant to him, however.	2962039	1471995244444	1471995244548	h	72
5801	62225	Mansell has not forgotten what the ovals have meant to him, however.	Mansell has not forgotten what the ovals have meant to him, however.	2962041	1471995244496	1471995244632	i	73
5801	62225	Mansell has not forgotten what the ovals have meant to him, however.	Mansell has not forgotten what the ovals have meant to him, however.	2962043	1471995244604	1471995244716	m	77
5801	62225	Mansell has not forgotten what the ovals have meant to him, however.	Mansell has not forgotten what the ovals have meant to him, however.	2962045	1471995244798	1471995244948	,	188
5801	62225	Mansell has not forgotten what the ovals have meant to him, however.	Mansell has not forgotten what the ovals have meant to him, however.	2962073	1471995244926	1471995245050	 	32
5801	62225	Mansell has not forgotten what the ovals have meant to him, however.	Mansell has not forgotten what the ovals have meant to him, however.	2962076	1471995245247	1471995245375	h	72
5801	62225	Mansell has not forgotten what the ovals have meant to him, however.	Mansell has not forgotten what the ovals have meant to him, however.	2962079	1471995245347	1471995245450	o	79
5801	62225	Mansell has not forgotten what the ovals have meant to him, however.	Mansell has not forgotten what the ovals have meant to him, however.	2962086	1471995245793	1471995245872	e	69
5801	62225	Mansell has not forgotten what the ovals have meant to him, however.	Mansell has not forgotten what the ovals have meant to him, however.	2962095	1471995245931	1471995246018	v	86
5801	62225	Mansell has not forgotten what the ovals have meant to him, however.	Mansell has not forgotten what the ovals have meant to him, however.	2962193	1471995245987	1471995246082	e	69
5801	62225	Mansell has not forgotten what the ovals have meant to him, however.	Mansell has not forgotten what the ovals have meant to him, however.	2962195	1471995246152	1471995246299	r	82
5801	62225	Mansell has not forgotten what the ovals have meant to him, however.	Mansell has not forgotten what the ovals have meant to him, however.	2962201	1471995246603	1471995246683	BKSP	8
5801	62225	Mansell has not forgotten what the ovals have meant to him, however.	Mansell has not forgotten what the ovals have meant to him, however.	2962206	1471995246739	1471995246827	BKSP	8
5801	62225	Mansell has not forgotten what the ovals have meant to him, however.	Mansell has not forgotten what the ovals have meant to him, however.	2962211	1471995246894	1471995247033	BKSP	8
5801	62225	Mansell has not forgotten what the ovals have meant to him, however.	Mansell has not forgotten what the ovals have meant to him, however.	2962216	1471995247094	1471995247173	BKSP	8
5801	62225	Mansell has not forgotten what the ovals have meant to him, however.	Mansell has not forgotten what the ovals have meant to him, however.	2962221	1471995247328	1471995247432	w	87
5801	62225	Mansell has not forgotten what the ovals have meant to him, however.	Mansell has not forgotten what the ovals have meant to him, however.	2962229	1471995247629	1471995247709	e	69
5801	62225	Mansell has not forgotten what the ovals have meant to him, however.	Mansell has not forgotten what the ovals have meant to him, however.	2962234	1471995247752	1471995247844	v	86
5801	62225	Mansell has not forgotten what the ovals have meant to him, however.	Mansell has not forgotten what the ovals have meant to him, however.	2962243	1471995247828	1471995247915	e	69
5801	62225	Mansell has not forgotten what the ovals have meant to him, however.	Mansell has not forgotten what the ovals have meant to him, however.	2962245	1471995247985	1471995248088	r	82
5801	62225	Mansell has not forgotten what the ovals have meant to him, however.	Mansell has not forgotten what the ovals have meant to him, however.	2962247	1471995248089	1471995248209	.	190
5801	62240	You just can't work without me can you?	You just can't work without me can you?	2962408	1471995249900	1471995250220	SHIFT	16
5801	62240	You just can't work without me can you?	You just can't work without me can you?	2962406	1471995250106	1471995250201	Y	89
5801	62240	You just can't work without me can you?	You just can't work without me can you?	2962410	1471995250229	1471995250353	o	79
5801	62240	You just can't work without me can you?	You just can't work without me can you?	2962413	1471995250385	1471995250484	u	85
5801	62240	You just can't work without me can you?	You just can't work without me can you?	2962415	1471995250634	1471995250737	 	32
5801	62240	You just can't work without me can you?	You just can't work without me can you?	2962417	1471995250951	1471995251059	u	85
5801	62240	You just can't work without me can you?	You just can't work without me can you?	2962458	1471995251418	1471995251487	BKSP	8
5801	62240	You just can't work without me can you?	You just can't work without me can you?	2962463	1471995251703	1471995251830	j	74
5801	62240	You just can't work without me can you?	You just can't work without me can you?	2962467	1471995251783	1471995251890	u	85
5801	62240	You just can't work without me can you?	You just can't work without me can you?	2962474	1471995251899	1471995251979	s	83
5801	62240	You just can't work without me can you?	You just can't work without me can you?	2962481	1471995252027	1471995252106	t	84
5801	62240	You just can't work without me can you?	You just can't work without me can you?	2962487	1471995252199	1471995252314	 	32
5801	62240	You just can't work without me can you?	You just can't work without me can you?	2962556	1471995252287	1471995252366	c	67
5801	62240	You just can't work without me can you?	You just can't work without me can you?	2962557	1471995252480	1471995252573	a	65
5801	62240	You just can't work without me can you?	You just can't work without me can you?	2962558	1471995252564	1471995252651	n	78
5801	62240	You just can't work without me can you?	You just can't work without me can you?	2962560	1471995252774	1471995252897	;	186
5801	62240	You just can't work without me can you?	You just can't work without me can you?	2962564	1471995252914	1471995253013	t	84
5801	62240	You just can't work without me can you?	You just can't work without me can you?	2962566	1471995253329	1471995253408	BKSP	8
5801	62240	You just can't work without me can you?	You just can't work without me can you?	2962571	1471995253460	1471995253548	BKSP	8
5801	62240	You just can't work without me can you?	You just can't work without me can you?	2962575	1471995253915	1471995254050	'	222
5801	62240	You just can't work without me can you?	You just can't work without me can you?	2962592	1471995254148	1471995254256	t	84
5801	62240	You just can't work without me can you?	You just can't work without me can you?	2962594	1471995254252	1471995254335	 	32
5801	62240	You just can't work without me can you?	You just can't work without me can you?	2962597	1471995254494	1471995254600	w	87
5801	62240	You just can't work without me can you?	You just can't work without me can you?	2962604	1471995254586	1471995254673	o	79
5801	62240	You just can't work without me can you?	You just can't work without me can you?	2962610	1471995254691	1471995254802	r	82
5801	62240	You just can't work without me can you?	You just can't work without me can you?	2962654	1471995254775	1471995254862	k	75
5801	62240	You just can't work without me can you?	You just can't work without me can you?	2962656	1471995254904	1471995255022	 	32
5801	62240	You just can't work without me can you?	You just can't work without me can you?	2962658	1471995255020	1471995255115	w	87
5801	62240	You just can't work without me can you?	You just can't work without me can you?	2962660	1471995255133	1471995255240	i	73
5801	62240	You just can't work without me can you?	You just can't work without me can you?	2962663	1471995255711	1471995255818	t	84
5801	62240	You just can't work without me can you?	You just can't work without me can you?	2962711	1471995255787	1471995255942	h	72
5801	62240	You just can't work without me can you?	You just can't work without me can you?	2962712	1471995255922	1471995256094	o	79
5801	62240	You just can't work without me can you?	You just can't work without me can you?	2962713	1471995256091	1471995256214	u	85
5801	62240	You just can't work without me can you?	You just can't work without me can you?	2962714	1471995256237	1471995256340	t	84
5801	62240	You just can't work without me can you?	You just can't work without me can you?	2962715	1471995256359	1471995256466	 	32
5801	62240	You just can't work without me can you?	You just can't work without me can you?	2962716	1471995256702	1471995256817	m	77
5801	62240	You just can't work without me can you?	You just can't work without me can you?	2962747	1471995256790	1471995256893	e	69
5801	62240	You just can't work without me can you?	You just can't work without me can you?	2962749	1471995256956	1471995257061	 	32
5801	62240	You just can't work without me can you?	You just can't work without me can you?	2962751	1471995257060	1471995257160	c	67
5801	62240	You just can't work without me can you?	You just can't work without me can you?	2962754	1471995257267	1471995257368	a	65
5801	62240	You just can't work without me can you?	You just can't work without me can you?	2962758	1471995257339	1471995257414	n	78
5801	62240	You just can't work without me can you?	You just can't work without me can you?	2962761	1471995257516	1471995257595	 	32
5801	62240	You just can't work without me can you?	You just can't work without me can you?	2962796	1471995257637	1471995257740	y	89
5801	62240	You just can't work without me can you?	You just can't work without me can you?	2962798	1471995257705	1471995257834	o	79
5801	62240	You just can't work without me can you?	You just can't work without me can you?	2962800	1471995257809	1471995257900	u	85
5801	62240	You just can't work without me can you?	You just can't work without me can you?	2962802	1471995258135	1471995258323	SHIFT	16
5801	62240	You just can't work without me can you?	You just can't work without me can you?	2962804	1471995258256	1471995258383	?	191
5801	62250	I am in 50M if you need me.	I am in 50M if you need me,	2962908	1471995260109	1471995260294	SHIFT	16
5801	62250	I am in 50M if you need me.	I am in 50M if you need me,	2962911	1471995260242	1471995260341	I	73
5801	62250	I am in 50M if you need me.	I am in 50M if you need me,	2962914	1471995260459	1471995260562	 	32
5801	62250	I am in 50M if you need me.	I am in 50M if you need me,	2962917	1471995260571	1471995260666	a	65
5801	62250	I am in 50M if you need me.	I am in 50M if you need me,	2962922	1471995260671	1471995260782	m	77
5801	62250	I am in 50M if you need me.	I am in 50M if you need me,	2962925	1471995260831	1471995260931	 	32
5801	62250	I am in 50M if you need me.	I am in 50M if you need me,	2962973	1471995261009	1471995261112	i	73
5801	62250	I am in 50M if you need me.	I am in 50M if you need me,	2962974	1471995261081	1471995261188	n	78
5801	62250	I am in 50M if you need me.	I am in 50M if you need me,	2962978	1471995261280	1471995261391	 	32
5801	62250	I am in 50M if you need me.	I am in 50M if you need me,	2962981	1471995261828	1471995261923	5	53
5801	62250	I am in 50M if you need me.	I am in 50M if you need me,	2963032	1471995261904	1471995262015	0	48
5801	62250	I am in 50M if you need me.	I am in 50M if you need me,	2963036	1471995262226	1471995262386	SHIFT	16
5801	62250	I am in 50M if you need me.	I am in 50M if you need me,	2963039	1471995262331	1471995262466	M	77
5801	62250	I am in 50M if you need me.	I am in 50M if you need me,	2963042	1471995262588	1471995262667	 	32
5801	62250	I am in 50M if you need me.	I am in 50M if you need me,	2963046	1471995262792	1471995262895	i	73
5801	62250	I am in 50M if you need me.	I am in 50M if you need me,	2963051	1471995262938	1471995263066	f	70
5801	62250	I am in 50M if you need me.	I am in 50M if you need me,	2963054	1471995263086	1471995263182	 	32
5801	62250	I am in 50M if you need me.	I am in 50M if you need me,	2963073	1471995263501	1471995263613	y	89
5801	62250	I am in 50M if you need me.	I am in 50M if you need me,	2963077	1471995263538	1471995263657	o	79
5801	62250	I am in 50M if you need me.	I am in 50M if you need me,	2963082	1471995263646	1471995263729	u	85
5801	62250	I am in 50M if you need me.	I am in 50M if you need me,	2963086	1471995263829	1471995263912	 	32
5801	62250	I am in 50M if you need me.	I am in 50M if you need me,	2963091	1471995263980	1471995264067	n	78
5801	62250	I am in 50M if you need me.	I am in 50M if you need me,	2963116	1471995264028	1471995264107	e	69
5801	62250	I am in 50M if you need me.	I am in 50M if you need me,	2963120	1471995264167	1471995264254	e	69
5801	62250	I am in 50M if you need me.	I am in 50M if you need me,	2963125	1471995264315	1471995264403	d	68
5801	62250	I am in 50M if you need me.	I am in 50M if you need me,	2963128	1471995264398	1471995264534	 	32
5801	62250	I am in 50M if you need me.	I am in 50M if you need me,	2963131	1471995264502	1471995264618	m	77
5801	62250	I am in 50M if you need me.	I am in 50M if you need me,	2963182	1471995264579	1471995264702	e	69
5801	62250	I am in 50M if you need me.	I am in 50M if you need me,	2963184	1471995265024	1471995265143	/	191
5801	62250	I am in 50M if you need me.	I am in 50M if you need me,	2963186	1471995265431	1471995265503	BKSP	8
5801	62250	I am in 50M if you need me.	I am in 50M if you need me,	2963188	1471995266058	1471995266189	,	188
