PARTICIPANT_ID	TEST_SECTION_ID	SENTENCE	USER_INPUT	KEYSTROKE_ID	PRESS_TIME	RELEASE_TIME	LETTER	KEYCODE
5870	63131	The contract is a bit complicated.	The contract is a bit complicated.	3004940	1471995970210	1471995970320	SHIFT	16
5870	63131	The contract is a bit complicated.	The contract is a bit complicated.	3004943	1471995970335	1471995970539	t	84
5870	63131	The contract is a bit complicated.	The contract is a bit complicated.	3004947	1471995970504	1471995970640	h	72
5870	63131	The contract is a bit complicated.	The contract is a bit complicated.	3004951	1471995971470	1471995971561	BKSP	8
5870	63131	The contract is a bit complicated.	The contract is a bit complicated.	3004954	1471995971654	1471995971711	BKSP	8
5870	63131	The contract is a bit complicated.	The contract is a bit complicated.	3004958	1471995971805	1471995971862	BKSP	8
5870	63131	The contract is a bit complicated.	The contract is a bit complicated.	3004962	1471995972538	1471995972938	SHIFT	16
5870	63131	The contract is a bit complicated.	The contract is a bit complicated.	3004960	1471995972772	1471995972876	T	84
5870	63131	The contract is a bit complicated.	The contract is a bit complicated.	3004965	1471995973644	1471995973744	h	72
5870	63131	The contract is a bit complicated.	The contract is a bit complicated.	3004969	1471995973759	1471995973890	e	69
5870	63131	The contract is a bit complicated.	The contract is a bit complicated.	3005097	1471995973844	1471995973948	 	32
5870	63131	The contract is a bit complicated.	The contract is a bit complicated.	3005099	1471995974962	1471995975059	c	67
5870	63131	The contract is a bit complicated.	The contract is a bit complicated.	3005101	1471995975075	1471995975237	o	79
5870	63131	The contract is a bit complicated.	The contract is a bit complicated.	3005103	1471995975300	1471995975488	n	78
5870	63131	The contract is a bit complicated.	The contract is a bit complicated.	3005104	1471995976632	1471995976827	t	84
5870	63131	The contract is a bit complicated.	The contract is a bit complicated.	3005246	1471995976789	1471995976909	r	82
5870	63131	The contract is a bit complicated.	The contract is a bit complicated.	3005248	1471995977614	1471995977711	a	65
5870	63131	The contract is a bit complicated.	The contract is a bit complicated.	3005252	1471995978055	1471995978187	c	67
5870	63131	The contract is a bit complicated.	The contract is a bit complicated.	3005255	1471995978159	1471995978260	t	84
5870	63131	The contract is a bit complicated.	The contract is a bit complicated.	3005258	1471995978542	1471995978659	 	32
5870	63131	The contract is a bit complicated.	The contract is a bit complicated.	3005262	1471995979566	1471995979672	i	73
5870	63131	The contract is a bit complicated.	The contract is a bit complicated.	3005305	1471995979699	1471995979811	s	83
5870	63131	The contract is a bit complicated.	The contract is a bit complicated.	3005309	1471995979778	1471995979892	 	32
5870	63131	The contract is a bit complicated.	The contract is a bit complicated.	3005315	1471995979954	1471995980060	a	65
5870	63131	The contract is a bit complicated.	The contract is a bit complicated.	3005318	1471995980060	1471995980175	 	32
5870	63131	The contract is a bit complicated.	The contract is a bit complicated.	3005321	1471995980522	1471995980599	b	66
5870	63131	The contract is a bit complicated.	The contract is a bit complicated.	3005383	1471995980613	1471995980726	i	73
5870	63131	The contract is a bit complicated.	The contract is a bit complicated.	3005386	1471995980758	1471995980876	t	84
5870	63131	The contract is a bit complicated.	The contract is a bit complicated.	3005388	1471995980876	1471995980975	 	32
5870	63131	The contract is a bit complicated.	The contract is a bit complicated.	3005394	1471995981452	1471995981574	c	67
5870	63131	The contract is a bit complicated.	The contract is a bit complicated.	3005399	1471995981699	1471995981879	o	79
5870	63131	The contract is a bit complicated.	The contract is a bit complicated.	3005445	1471995981824	1471995981980	m	77
5870	63131	The contract is a bit complicated.	The contract is a bit complicated.	3005451	1471995982186	1471995982356	p	80
5870	63131	The contract is a bit complicated.	The contract is a bit complicated.	3005461	1471995982387	1471995982494	;	76
5870	63131	The contract is a bit complicated.	The contract is a bit complicated.	3005472	1471995982723	1471995982810	i	73
5870	63131	The contract is a bit complicated.	The contract is a bit complicated.	3005478	1471995983045	1471995983159	c	67
5870	63131	The contract is a bit complicated.	The contract is a bit complicated.	3005539	1471995983233	1471995983358	a	65
5870	63131	The contract is a bit complicated.	The contract is a bit complicated.	3005541	1471995983670	1471995983792	t	84
5870	63131	The contract is a bit complicated.	The contract is a bit complicated.	3005543	1471995983729	1471995983912	e	69
5870	63131	The contract is a bit complicated.	The contract is a bit complicated.	3005545	1471995983866	1471995983990	d	68
5870	63131	The contract is a bit complicated.	The contract is a bit complicated.	3005546	1471995984380	1471995984451	.	190
5870	63131	The contract is a bit complicated.	The contract is a bit complicated.	3005763	1471995985385	1471995985478	BKSP	8
5870	63131	The contract is a bit complicated.	The contract is a bit complicated.	3005766	1471995985634	1471995985675	BKSP	8
5870	63131	The contract is a bit complicated.	The contract is a bit complicated.	3005770	1471995985760	1471995985859	BKSP	8
5870	63131	The contract is a bit complicated.	The contract is a bit complicated.	3005775	1471995985943	1471995986028	BKSP	8
5870	63131	The contract is a bit complicated.	The contract is a bit complicated.	3005779	1471995986106	1471995986194	BKSP	8
5870	63131	The contract is a bit complicated.	The contract is a bit complicated.	3005785	1471995986256	1471995986359	BKSP	8
5870	63131	The contract is a bit complicated.	The contract is a bit complicated.	3005791	1471995986422	1471995986543	BKSP	8
5870	63131	The contract is a bit complicated.	The contract is a bit complicated.	3005795	1471995986763	1471995986844	BKSP	8
5870	63131	The contract is a bit complicated.	The contract is a bit complicated.	3005801	1471995987471	1471995987576	i	73
5870	63131	The contract is a bit complicated.	The contract is a bit complicated.	3005806	1471995987904	1471995987962	c	67
5870	63131	The contract is a bit complicated.	The contract is a bit complicated.	3005810	1471995988244	1471995988328	a	65
5870	63131	The contract is a bit complicated.	The contract is a bit complicated.	3005816	1471995988595	1471995988691	t	84
5870	63131	The contract is a bit complicated.	The contract is a bit complicated.	3006079	1471995988663	1471995988859	e	69
5870	63131	The contract is a bit complicated.	The contract is a bit complicated.	3006082	1471995988822	1471995988958	d	68
5870	63131	The contract is a bit complicated.	The contract is a bit complicated.	3006089	1471995989741	1471995989813	.	190
5870	63160	Montpellier won the Cup at their first attempt.	Montpellier won the cup at their first attempt.	3006323	1471995997675	1471995997891	SHIFT	16
5870	63160	Montpellier won the Cup at their first attempt.	Montpellier won the cup at their first attempt.	3006324	1471995997773	1471995997891	M	77
5870	63160	Montpellier won the Cup at their first attempt.	Montpellier won the cup at their first attempt.	3006329	1471995998157	1471995998361	o	79
5870	63160	Montpellier won the Cup at their first attempt.	Montpellier won the cup at their first attempt.	3006333	1471995998290	1471995998470	n	78
5870	63160	Montpellier won the Cup at their first attempt.	Montpellier won the cup at their first attempt.	3006338	1471995999333	1471995999473	t	84
5870	63160	Montpellier won the Cup at their first attempt.	Montpellier won the cup at their first attempt.	3006342	1471995999864	1471996000053	i	73
5870	63160	Montpellier won the Cup at their first attempt.	Montpellier won the cup at their first attempt.	3006626	1471996001354	1471996001473	BKSP	8
5870	63160	Montpellier won the Cup at their first attempt.	Montpellier won the cup at their first attempt.	3006628	1471996002148	1471996002347	p	80
5870	63160	Montpellier won the Cup at their first attempt.	Montpellier won the cup at their first attempt.	3006629	1471996002304	1471996002425	l	76
5870	63160	Montpellier won the Cup at their first attempt.	Montpellier won the cup at their first attempt.	3006630	1471996004368	1471996004459	BKSP	8
5870	63160	Montpellier won the Cup at their first attempt.	Montpellier won the cup at their first attempt.	3006631	1471996004725	1471996004825	e	69
5870	63160	Montpellier won the Cup at their first attempt.	Montpellier won the cup at their first attempt.	3006633	1471996005547	1471996005641	l	76
5870	63160	Montpellier won the Cup at their first attempt.	Montpellier won the cup at their first attempt.	3006636	1471996005704	1471996005794	l	76
5870	63160	Montpellier won the Cup at their first attempt.	Montpellier won the cup at their first attempt.	3007136	1471996006071	1471996006145	i	73
5870	63160	Montpellier won the Cup at their first attempt.	Montpellier won the cup at their first attempt.	3007138	1471996006176	1471996006378	e	69
5870	63160	Montpellier won the Cup at their first attempt.	Montpellier won the cup at their first attempt.	3007141	1471996006306	1471996006409	r	82
5870	63160	Montpellier won the Cup at their first attempt.	Montpellier won the cup at their first attempt.	3007145	1471996006831	1471996006991	 	32
5870	63160	Montpellier won the Cup at their first attempt.	Montpellier won the cup at their first attempt.	3007151	1471996016773	1471996016924	w	87
5870	63160	Montpellier won the Cup at their first attempt.	Montpellier won the cup at their first attempt.	3007217	1471996016940	1471996017143	o	79
5870	63160	Montpellier won the Cup at their first attempt.	Montpellier won the cup at their first attempt.	3007219	1471996017057	1471996017268	n	78
5870	63160	Montpellier won the Cup at their first attempt.	Montpellier won the cup at their first attempt.	3007221	1471996017652	1471996017758	 	32
5870	63160	Montpellier won the Cup at their first attempt.	Montpellier won the cup at their first attempt.	3007223	1471996018306	1471996018427	t	84
5870	63160	Montpellier won the Cup at their first attempt.	Montpellier won the cup at their first attempt.	3007281	1471996018393	1471996018507	h	72
5870	63160	Montpellier won the Cup at their first attempt.	Montpellier won the cup at their first attempt.	3007284	1471996018569	1471996018691	e	69
5870	63160	Montpellier won the Cup at their first attempt.	Montpellier won the cup at their first attempt.	3007286	1471996018627	1471996018758	 	32
5870	63160	Montpellier won the Cup at their first attempt.	Montpellier won the cup at their first attempt.	3007289	1471996019430	1471996019572	c	67
5870	63160	Montpellier won the Cup at their first attempt.	Montpellier won the cup at their first attempt.	3007293	1471996019572	1471996019803	u	85
5870	63160	Montpellier won the Cup at their first attempt.	Montpellier won the cup at their first attempt.	3007399	1471996019784	1471996019922	p	80
5870	63160	Montpellier won the Cup at their first attempt.	Montpellier won the cup at their first attempt.	3007402	1471996020550	1471996020675	 	32
5870	63160	Montpellier won the Cup at their first attempt.	Montpellier won the cup at their first attempt.	3007406	1471996021456	1471996021621	a	65
5870	63160	Montpellier won the Cup at their first attempt.	Montpellier won the cup at their first attempt.	3007411	1471996021621	1471996021724	t	84
5870	63160	Montpellier won the Cup at their first attempt.	Montpellier won the cup at their first attempt.	3007416	1471996021896	1471996022008	 	32
5870	63160	Montpellier won the Cup at their first attempt.	Montpellier won the cup at their first attempt.	3007419	1471996022290	1471996022407	t	84
5870	63160	Montpellier won the Cup at their first attempt.	Montpellier won the cup at their first attempt.	3007488	1471996022407	1471996022492	h	72
5870	63160	Montpellier won the Cup at their first attempt.	Montpellier won the cup at their first attempt.	3007491	1471996022617	1471996022659	e	69
5870	63160	Montpellier won the Cup at their first attempt.	Montpellier won the cup at their first attempt.	3007498	1471996023994	1471996024076	i	73
5870	63160	Montpellier won the Cup at their first attempt.	Montpellier won the cup at their first attempt.	3007505	1471996024107	1471996024194	r	82
5870	63160	Montpellier won the Cup at their first attempt.	Montpellier won the cup at their first attempt.	3007512	1471996024444	1471996024511	 	32
5870	63160	Montpellier won the Cup at their first attempt.	Montpellier won the cup at their first attempt.	3007685	1471996025324	1471996025424	f	70
5870	63160	Montpellier won the Cup at their first attempt.	Montpellier won the cup at their first attempt.	3007687	1471996025486	1471996025590	i	73
5870	63160	Montpellier won the Cup at their first attempt.	Montpellier won the cup at their first attempt.	3007691	1471996025606	1471996025692	r	82
5870	63160	Montpellier won the Cup at their first attempt.	Montpellier won the cup at their first attempt.	3007694	1471996026758	1471996026874	BKSP	8
5870	63160	Montpellier won the Cup at their first attempt.	Montpellier won the cup at their first attempt.	3007699	1471996027894	1471996028039	r	82
5870	63160	Montpellier won the Cup at their first attempt.	Montpellier won the cup at their first attempt.	3007702	1471996028179	1471996028283	s	83
5870	63160	Montpellier won the Cup at their first attempt.	Montpellier won the cup at their first attempt.	3007760	1471996028259	1471996028374	t	84
5870	63160	Montpellier won the Cup at their first attempt.	Montpellier won the cup at their first attempt.	3007763	1471996028499	1471996028609	 	32
5870	63160	Montpellier won the Cup at their first attempt.	Montpellier won the cup at their first attempt.	3007766	1471996028765	1471996028858	a	65
5870	63160	Montpellier won the Cup at their first attempt.	Montpellier won the cup at their first attempt.	3007771	1471996029078	1471996029160	t	84
5870	63160	Montpellier won the Cup at their first attempt.	Montpellier won the cup at their first attempt.	3007777	1471996029254	1471996029312	t	84
5870	63160	Montpellier won the Cup at their first attempt.	Montpellier won the cup at their first attempt.	3007781	1471996029577	1471996029674	e	69
5870	63160	Montpellier won the Cup at their first attempt.	Montpellier won the cup at their first attempt.	3007887	1471996029825	1471996030027	m	77
5870	63160	Montpellier won the Cup at their first attempt.	Montpellier won the cup at their first attempt.	3007889	1471996029987	1471996030119	p	80
5870	63160	Montpellier won the Cup at their first attempt.	Montpellier won the cup at their first attempt.	3007894	1471996030858	1471996030942	t	84
5870	63160	Montpellier won the Cup at their first attempt.	Montpellier won the cup at their first attempt.	3007898	1471996031332	1471996031427	.	190
5870	63196	We will work on the car and try to go a little quicker yet.	We will work on the car and try to go a little quicker yet.	3008029	1471996035382	1471996035515	SHIFT	16
5870	63196	We will work on the car and try to go a little quicker yet.	We will work on the car and try to go a little quicker yet.	3008031	1471996035476	1471996035626	W	87
5870	63196	We will work on the car and try to go a little quicker yet.	We will work on the car and try to go a little quicker yet.	3008036	1471996035559	1471996035691	e	69
5870	63196	We will work on the car and try to go a little quicker yet.	We will work on the car and try to go a little quicker yet.	3008040	1471996035673	1471996035773	 	32
5870	63196	We will work on the car and try to go a little quicker yet.	We will work on the car and try to go a little quicker yet.	3008044	1471996036308	1471996036439	w	87
5870	63196	We will work on the car and try to go a little quicker yet.	We will work on the car and try to go a little quicker yet.	3008050	1471996036501	1471996036592	i	73
5870	63196	We will work on the car and try to go a little quicker yet.	We will work on the car and try to go a little quicker yet.	3008152	1471996037784	1471996037859	l	76
5870	63196	We will work on the car and try to go a little quicker yet.	We will work on the car and try to go a little quicker yet.	3008156	1471996037937	1471996038010	l	76
5870	63196	We will work on the car and try to go a little quicker yet.	We will work on the car and try to go a little quicker yet.	3008159	1471996038119	1471996038224	 	32
5870	63196	We will work on the car and try to go a little quicker yet.	We will work on the car and try to go a little quicker yet.	3008162	1471996038646	1471996038773	w	87
5870	63196	We will work on the car and try to go a little quicker yet.	We will work on the car and try to go a little quicker yet.	3008163	1471996038804	1471996039032	o	79
5870	63196	We will work on the car and try to go a little quicker yet.	We will work on the car and try to go a little quicker yet.	3008185	1471996039032	1471996039155	r	82
5870	63196	We will work on the car and try to go a little quicker yet.	We will work on the car and try to go a little quicker yet.	3008189	1471996039155	1471996039226	k	75
5870	63196	We will work on the car and try to go a little quicker yet.	We will work on the car and try to go a little quicker yet.	3008194	1471996039335	1471996039472	 	32
5870	63196	We will work on the car and try to go a little quicker yet.	We will work on the car and try to go a little quicker yet.	3008201	1471996039764	1471996039960	o	79
5870	63196	We will work on the car and try to go a little quicker yet.	We will work on the car and try to go a little quicker yet.	3008255	1471996039902	1471996040051	n	78
5870	63196	We will work on the car and try to go a little quicker yet.	We will work on the car and try to go a little quicker yet.	3008257	1471996040176	1471996040321	 	32
5870	63196	We will work on the car and try to go a little quicker yet.	We will work on the car and try to go a little quicker yet.	3008259	1471996041043	1471996041155	t	84
5870	63196	We will work on the car and try to go a little quicker yet.	We will work on the car and try to go a little quicker yet.	3008261	1471996041129	1471996041224	h	72
5870	63196	We will work on the car and try to go a little quicker yet.	We will work on the car and try to go a little quicker yet.	3008263	1471996041318	1471996041419	e	69
5870	63196	We will work on the car and try to go a little quicker yet.	We will work on the car and try to go a little quicker yet.	3008344	1471996041393	1471996041490	 	32
5870	63196	We will work on the car and try to go a little quicker yet.	We will work on the car and try to go a little quicker yet.	3008346	1471996041787	1471996041905	c	67
5870	63196	We will work on the car and try to go a little quicker yet.	We will work on the car and try to go a little quicker yet.	3008349	1471996041983	1471996042106	a	65
5870	63196	We will work on the car and try to go a little quicker yet.	We will work on the car and try to go a little quicker yet.	3008354	1471996042106	1471996042207	r	82
5870	63196	We will work on the car and try to go a little quicker yet.	We will work on the car and try to go a little quicker yet.	3008358	1471996042410	1471996042539	 	32
5870	63196	We will work on the car and try to go a little quicker yet.	We will work on the car and try to go a little quicker yet.	3008361	1471996043244	1471996043402	a	65
5870	63196	We will work on the car and try to go a little quicker yet.	We will work on the car and try to go a little quicker yet.	3008390	1471996043402	1471996043527	n	78
5870	63196	We will work on the car and try to go a little quicker yet.	We will work on the car and try to go a little quicker yet.	3008392	1471996043475	1471996043605	f	70
5870	63196	We will work on the car and try to go a little quicker yet.	We will work on the car and try to go a little quicker yet.	3008394	1471996043605	1471996043725	 	32
5870	63196	We will work on the car and try to go a little quicker yet.	We will work on the car and try to go a little quicker yet.	3008395	1471996044062	1471996044143	BKSP	8
5870	63196	We will work on the car and try to go a little quicker yet.	We will work on the car and try to go a little quicker yet.	3008397	1471996044205	1471996044277	BKSP	8
5870	63196	We will work on the car and try to go a little quicker yet.	We will work on the car and try to go a little quicker yet.	3008399	1471996044309	1471996044419	d	68
5870	63196	We will work on the car and try to go a little quicker yet.	We will work on the car and try to go a little quicker yet.	3008541	1471996044377	1471996044523	 	32
5870	63196	We will work on the car and try to go a little quicker yet.	We will work on the car and try to go a little quicker yet.	3008543	1471996045917	1471996046093	t	84
5870	63196	We will work on the car and try to go a little quicker yet.	We will work on the car and try to go a little quicker yet.	3008546	1471996046040	1471996046172	r	82
5870	63196	We will work on the car and try to go a little quicker yet.	We will work on the car and try to go a little quicker yet.	3008548	1471996046172	1471996046274	y	89
5870	63196	We will work on the car and try to go a little quicker yet.	We will work on the car and try to go a little quicker yet.	3008550	1471996046664	1471996046742	 	32
5870	63196	We will work on the car and try to go a little quicker yet.	We will work on the car and try to go a little quicker yet.	3008553	1471996047855	1471996047942	t	84
5870	63196	We will work on the car and try to go a little quicker yet.	We will work on the car and try to go a little quicker yet.	3008627	1471996047942	1471996048041	o	79
5870	63196	We will work on the car and try to go a little quicker yet.	We will work on the car and try to go a little quicker yet.	3008628	1471996048213	1471996048354	 	32
5870	63196	We will work on the car and try to go a little quicker yet.	We will work on the car and try to go a little quicker yet.	3008630	1471996049358	1471996049489	g	71
5870	63196	We will work on the car and try to go a little quicker yet.	We will work on the car and try to go a little quicker yet.	3008632	1471996049520	1471996049611	o	79
5870	63196	We will work on the car and try to go a little quicker yet.	We will work on the car and try to go a little quicker yet.	3008636	1471996049731	1471996049851	 	32
5870	63196	We will work on the car and try to go a little quicker yet.	We will work on the car and try to go a little quicker yet.	3008674	1471996049870	1471996050026	a	65
5870	63196	We will work on the car and try to go a little quicker yet.	We will work on the car and try to go a little quicker yet.	3008676	1471996049973	1471996050105	 	32
5870	63196	We will work on the car and try to go a little quicker yet.	We will work on the car and try to go a little quicker yet.	3008680	1471996050539	1471996050739	l	76
5870	63196	We will work on the car and try to go a little quicker yet.	We will work on the car and try to go a little quicker yet.	3008684	1471996050702	1471996050823	i	73
5870	63196	We will work on the car and try to go a little quicker yet.	We will work on the car and try to go a little quicker yet.	3008687	1471996050854	1471996050942	t	84
5870	63196	We will work on the car and try to go a little quicker yet.	We will work on the car and try to go a little quicker yet.	3008863	1471996051030	1471996051093	t	84
5870	63196	We will work on the car and try to go a little quicker yet.	We will work on the car and try to go a little quicker yet.	3008867	1471996051571	1471996051658	l	76
5870	63196	We will work on the car and try to go a little quicker yet.	We will work on the car and try to go a little quicker yet.	3008873	1471996052160	1471996052257	BKSP	8
5870	63196	We will work on the car and try to go a little quicker yet.	We will work on the car and try to go a little quicker yet.	3008879	1471996052451	1471996052523	BKSP	8
5870	63196	We will work on the car and try to go a little quicker yet.	We will work on the car and try to go a little quicker yet.	3008887	1471996053889	1471996053990	t	84
5870	63196	We will work on the car and try to go a little quicker yet.	We will work on the car and try to go a little quicker yet.	3008892	1471996054006	1471996054108	l	76
5870	63196	We will work on the car and try to go a little quicker yet.	We will work on the car and try to go a little quicker yet.	3008900	1471996054170	1471996054275	e	69
5870	63196	We will work on the car and try to go a little quicker yet.	We will work on the car and try to go a little quicker yet.	3008980	1471996054226	1471996054333	 	32
5870	63196	We will work on the car and try to go a little quicker yet.	We will work on the car and try to go a little quicker yet.	3008984	1471996055374	1471996055505	q	81
5870	63196	We will work on the car and try to go a little quicker yet.	We will work on the car and try to go a little quicker yet.	3008992	1471996055505	1471996055659	u	85
5870	63196	We will work on the car and try to go a little quicker yet.	We will work on the car and try to go a little quicker yet.	3008997	1471996055593	1471996055737	i	73
5870	63196	We will work on the car and try to go a little quicker yet.	We will work on the car and try to go a little quicker yet.	3009003	1471996055972	1471996056105	c	67
5870	63196	We will work on the car and try to go a little quicker yet.	We will work on the car and try to go a little quicker yet.	3009008	1471996056167	1471996056258	k	75
5870	63196	We will work on the car and try to go a little quicker yet.	We will work on the car and try to go a little quicker yet.	3009091	1471996056347	1471996056576	e	69
5870	63196	We will work on the car and try to go a little quicker yet.	We will work on the car and try to go a little quicker yet.	3009093	1471996056502	1471996056639	r	82
5870	63196	We will work on the car and try to go a little quicker yet.	We will work on the car and try to go a little quicker yet.	3009095	1471996056639	1471996056708	 	32
5870	63196	We will work on the car and try to go a little quicker yet.	We will work on the car and try to go a little quicker yet.	3009096	1471996058151	1471996058224	y	89
5870	63196	We will work on the car and try to go a little quicker yet.	We will work on the car and try to go a little quicker yet.	3009099	1471996058240	1471996058357	e	69
5870	63196	We will work on the car and try to go a little quicker yet.	We will work on the car and try to go a little quicker yet.	3009182	1471996058373	1471996058457	t	84
5870	63196	We will work on the car and try to go a little quicker yet.	We will work on the car and try to go a little quicker yet.	3009183	1471996059571	1471996059699	.	190
5870	63224	Can you bring these to 49C1?	Can you bring these to 49c1?	3009373	1471996062472	1471996062610	SHIFT	16
5870	63224	Can you bring these to 49C1?	Can you bring these to 49c1?	3009376	1471996062551	1471996062720	C	67
5870	63224	Can you bring these to 49C1?	Can you bring these to 49c1?	3009380	1471996062720	1471996062869	a	65
5870	63224	Can you bring these to 49C1?	Can you bring these to 49c1?	3009384	1471996062869	1471996062957	n	78
5870	63224	Can you bring these to 49C1?	Can you bring these to 49c1?	3009389	1471996063082	1471996063176	 	32
5870	63224	Can you bring these to 49C1?	Can you bring these to 49c1?	3009392	1471996063817	1471996063906	y	89
5870	63224	Can you bring these to 49C1?	Can you bring these to 49c1?	3009578	1471996063906	1471996063990	o	79
5870	63224	Can you bring these to 49C1?	Can you bring these to 49c1?	3009582	1471996064021	1471996064123	u	85
5870	63224	Can you bring these to 49C1?	Can you bring these to 49c1?	3009586	1471996064123	1471996064301	 	32
5870	63224	Can you bring these to 49C1?	Can you bring these to 49c1?	3009590	1471996066874	1471996066971	b	66
5870	63224	Can you bring these to 49C1?	Can you bring these to 49c1?	3009791	1471996066942	1471996067123	r	82
5870	63224	Can you bring these to 49C1?	Can you bring these to 49c1?	3009794	1471996067072	1471996067205	e	69
5870	63224	Can you bring these to 49C1?	Can you bring these to 49c1?	3009798	1471996067847	1471996067941	BKSP	8
5870	63224	Can you bring these to 49C1?	Can you bring these to 49c1?	3009801	1471996068034	1471996068076	BKSP	8
5870	63224	Can you bring these to 49C1?	Can you bring these to 49c1?	3009805	1471996069315	1471996069408	r	82
5870	63224	Can you bring these to 49C1?	Can you bring these to 49c1?	3009811	1471996069408	1471996069521	o	79
5870	63224	Can you bring these to 49C1?	Can you bring these to 49c1?	3009816	1471996070290	1471996070390	BKSP	8
5870	63224	Can you bring these to 49C1?	Can you bring these to 49c1?	3009820	1471996070703	1471996070862	i	73
5870	63224	Can you bring these to 49C1?	Can you bring these to 49c1?	3009821	1471996070862	1471996071004	n	78
5870	63224	Can you bring these to 49C1?	Can you bring these to 49c1?	3009847	1471996071171	1471996071291	g	71
5870	63224	Can you bring these to 49C1?	Can you bring these to 49c1?	3009849	1471996071242	1471996071355	 	32
5870	63224	Can you bring these to 49C1?	Can you bring these to 49c1?	3009854	1471996071589	1471996071689	t	84
5870	63224	Can you bring these to 49C1?	Can you bring these to 49c1?	3009859	1471996071707	1471996071807	h	72
5870	63224	Can you bring these to 49C1?	Can you bring these to 49c1?	3009863	1471996071891	1471996071974	e	69
5870	63224	Can you bring these to 49C1?	Can you bring these to 49c1?	3010009	1471996072390	1471996072505	s	83
5870	63224	Can you bring these to 49C1?	Can you bring these to 49c1?	3010011	1471996072646	1471996072747	e	69
5870	63224	Can you bring these to 49C1?	Can you bring these to 49c1?	3010015	1471996072709	1471996072806	 	32
5870	63224	Can you bring these to 49C1?	Can you bring these to 49c1?	3010019	1471996074060	1471996074187	t	84
5870	63224	Can you bring these to 49C1?	Can you bring these to 49c1?	3010308	1471996074142	1471996074244	o	79
5870	63224	Can you bring these to 49C1?	Can you bring these to 49c1?	3010312	1471996074385	1471996074489	 	32
5870	63224	Can you bring these to 49C1?	Can you bring these to 49c1?	3010316	1471996075399	1471996075522	4	52
5870	63224	Can you bring these to 49C1?	Can you bring these to 49c1?	3010320	1471996076023	1471996076138	9	57
5870	63224	Can you bring these to 49C1?	Can you bring these to 49c1?	3010324	1471996076907	1471996076991	c	67
5870	63224	Can you bring these to 49C1?	Can you bring these to 49c1?	3010328	1471996078574	1471996078704	1	49
5870	63224	Can you bring these to 49C1?	Can you bring these to 49c1?	3010539	1471996079567	1471996081783	SHIFT	16
5870	63224	Can you bring these to 49C1?	Can you bring these to 49c1?	3010536	1471996081575	1471996081752	?	191
5870	63253	When it is used we try and do as many paths as possible.	When it is used we try and go as many paths as possible	3010754	1471996084689	1471996084852	SHIFT	16
5870	63253	When it is used we try and do as many paths as possible.	When it is used we try and go as many paths as possible	3010756	1471996084814	1471996084938	W	87
5870	63253	When it is used we try and do as many paths as possible.	When it is used we try and go as many paths as possible	3010761	1471996085094	1471996085205	h	72
5870	63253	When it is used we try and do as many paths as possible.	When it is used we try and go as many paths as possible	3010767	1471996085221	1471996085338	e	69
5870	63253	When it is used we try and do as many paths as possible.	When it is used we try and go as many paths as possible	3010771	1471996085369	1471996085505	n	78
5870	63253	When it is used we try and do as many paths as possible.	When it is used we try and go as many paths as possible	3010774	1471996085614	1471996085738	 	32
5870	63253	When it is used we try and do as many paths as possible.	When it is used we try and go as many paths as possible	3010889	1471996086723	1471996086823	i	73
5870	63253	When it is used we try and do as many paths as possible.	When it is used we try and go as many paths as possible	3010892	1471996086823	1471996086922	t	84
5870	63253	When it is used we try and do as many paths as possible.	When it is used we try and go as many paths as possible	3010896	1471996086922	1471996087053	 	32
5870	63253	When it is used we try and do as many paths as possible.	When it is used we try and go as many paths as possible	3010897	1471996087666	1471996087741	i	73
5870	63253	When it is used we try and do as many paths as possible.	When it is used we try and go as many paths as possible	3010899	1471996087803	1471996087939	s	83
5870	63253	When it is used we try and do as many paths as possible.	When it is used we try and go as many paths as possible	3011033	1471996087843	1471996087939	 	32
5870	63253	When it is used we try and do as many paths as possible.	When it is used we try and go as many paths as possible	3011038	1471996088916	1471996089006	u	85
5870	63253	When it is used we try and do as many paths as possible.	When it is used we try and go as many paths as possible	3011042	1471996089069	1471996089234	s	83
5870	63253	When it is used we try and do as many paths as possible.	When it is used we try and go as many paths as possible	3011046	1471996089234	1471996089337	e	69
5870	63253	When it is used we try and do as many paths as possible.	When it is used we try and go as many paths as possible	3011048	1471996089493	1471996089605	d	68
5870	63253	When it is used we try and do as many paths as possible.	When it is used we try and go as many paths as possible	3011053	1471996089605	1471996089689	 	32
5870	63253	When it is used we try and do as many paths as possible.	When it is used we try and go as many paths as possible	3011195	1471996090773	1471996090942	w	87
5870	63253	When it is used we try and do as many paths as possible.	When it is used we try and go as many paths as possible	3011200	1471996090888	1471996091021	e	69
5870	63253	When it is used we try and do as many paths as possible.	When it is used we try and go as many paths as possible	3011207	1471996091021	1471996091154	 	32
5870	63253	When it is used we try and do as many paths as possible.	When it is used we try and go as many paths as possible	3011215	1471996092236	1471996092419	t	84
5870	63253	When it is used we try and do as many paths as possible.	When it is used we try and go as many paths as possible	3011276	1471996092370	1471996092492	r	82
5870	63253	When it is used we try and do as many paths as possible.	When it is used we try and go as many paths as possible	3011277	1471996092586	1471996092719	y	89
5870	63253	When it is used we try and do as many paths as possible.	When it is used we try and go as many paths as possible	3011278	1471996092907	1471996093021	 	32
5870	63253	When it is used we try and do as many paths as possible.	When it is used we try and go as many paths as possible	3011280	1471996093209	1471996093352	a	65
5870	63253	When it is used we try and do as many paths as possible.	When it is used we try and go as many paths as possible	3011282	1471996093368	1471996093472	n	78
5870	63253	When it is used we try and do as many paths as possible.	When it is used we try and go as many paths as possible	3011286	1471996093504	1471996093635	d	68
5870	63253	When it is used we try and do as many paths as possible.	When it is used we try and go as many paths as possible	3011363	1471996093574	1471996093692	 	32
5870	63253	When it is used we try and do as many paths as possible.	When it is used we try and go as many paths as possible	3011364	1471996094083	1471996094234	g	71
5870	63253	When it is used we try and do as many paths as possible.	When it is used we try and go as many paths as possible	3011365	1471996094250	1471996094387	o	79
5870	63253	When it is used we try and do as many paths as possible.	When it is used we try and go as many paths as possible	3011367	1471996094652	1471996094788	 	32
5870	63253	When it is used we try and do as many paths as possible.	When it is used we try and go as many paths as possible	3011371	1471996095601	1471996095791	a	65
5870	63253	When it is used we try and do as many paths as possible.	When it is used we try and go as many paths as possible	3011422	1471996095721	1471996095896	s	83
5870	63253	When it is used we try and do as many paths as possible.	When it is used we try and go as many paths as possible	3011425	1471996095896	1471996096005	 	32
5870	63253	When it is used we try and do as many paths as possible.	When it is used we try and go as many paths as possible	3011430	1471996096400	1471996096472	m	77
5870	63253	When it is used we try and do as many paths as possible.	When it is used we try and go as many paths as possible	3011433	1471996096597	1471996096721	a	65
5870	63253	When it is used we try and do as many paths as possible.	When it is used we try and go as many paths as possible	3011436	1471996096721	1471996097036	n	78
5870	63253	When it is used we try and do as many paths as possible.	When it is used we try and go as many paths as possible	3011550	1471996097009	1471996097135	y	89
5870	63253	When it is used we try and do as many paths as possible.	When it is used we try and go as many paths as possible	3011553	1471996097401	1471996097504	 	32
5870	63253	When it is used we try and do as many paths as possible.	When it is used we try and go as many paths as possible	3011556	1471996098226	1471996098352	p	80
5870	63253	When it is used we try and do as many paths as possible.	When it is used we try and go as many paths as possible	3011559	1471996098633	1471996098736	a	65
5870	63253	When it is used we try and do as many paths as possible.	When it is used we try and go as many paths as possible	3011566	1471996099002	1471996099104	t	84
5870	63253	When it is used we try and do as many paths as possible.	When it is used we try and go as many paths as possible	3011571	1471996099104	1471996099204	h	72
5870	63253	When it is used we try and do as many paths as possible.	When it is used we try and go as many paths as possible	3011633	1471996099511	1471996099619	s	83
5870	63253	When it is used we try and do as many paths as possible.	When it is used we try and go as many paths as possible	3011639	1471996099573	1471996099699	 	32
5870	63253	When it is used we try and do as many paths as possible.	When it is used we try and go as many paths as possible	3011645	1471996099843	1471996099981	a	65
5870	63253	When it is used we try and do as many paths as possible.	When it is used we try and go as many paths as possible	3011651	1471996099981	1471996100103	s	83
5870	63253	When it is used we try and do as many paths as possible.	When it is used we try and go as many paths as possible	3011656	1471996100165	1471996100285	 	32
5870	63253	When it is used we try and do as many paths as possible.	When it is used we try and go as many paths as possible	3011801	1471996101778	1471996101954	p	80
5870	63253	When it is used we try and do as many paths as possible.	When it is used we try and go as many paths as possible	3011804	1471996101918	1471996102020	o	79
5870	63253	When it is used we try and do as many paths as possible.	When it is used we try and go as many paths as possible	3011815	1471996102601	1471996102674	s	83
5870	63253	When it is used we try and do as many paths as possible.	When it is used we try and go as many paths as possible	3011820	1471996102767	1471996102840	s	83
5870	63253	When it is used we try and do as many paths as possible.	When it is used we try and go as many paths as possible	3011825	1471996102871	1471996103003	i	73
5870	63253	When it is used we try and do as many paths as possible.	When it is used we try and go as many paths as possible	3011889	1471996103341	1471996103452	b	66
5870	63253	When it is used we try and do as many paths as possible.	When it is used we try and go as many paths as possible	3011892	1471996103577	1471996103686	l	76
5870	63253	When it is used we try and do as many paths as possible.	When it is used we try and go as many paths as possible	3011896	1471996103749	1471996103839	e	69
5870	63280	Jan has a lot of detail.	Jan has a lot of detail.	3012397	1471996109222	1471996109367	j	74
5870	63280	Jan has a lot of detail.	Jan has a lot of detail.	3012398	1471996110434	1471996110522	BKSP	8
5870	63280	Jan has a lot of detail.	Jan has a lot of detail.	3012401	1471996111430	1471996111541	SHIFT	16
5870	63280	Jan has a lot of detail.	Jan has a lot of detail.	3012403	1471996111477	1471996111572	J	74
5870	63280	Jan has a lot of detail.	Jan has a lot of detail.	3012407	1471996111572	1471996111701	 	32
5870	63280	Jan has a lot of detail.	Jan has a lot of detail.	3012413	1471996112650	1471996112722	BKSP	8
5870	63280	Jan has a lot of detail.	Jan has a lot of detail.	3012420	1471996113128	1471996113252	a	65
5870	63280	Jan has a lot of detail.	Jan has a lot of detail.	3012426	1471996113299	1471996113402	n	78
5870	63280	Jan has a lot of detail.	Jan has a lot of detail.	3012474	1471996113490	1471996113602	 	32
5870	63280	Jan has a lot of detail.	Jan has a lot of detail.	3012480	1471996114401	1471996114514	h	72
5870	63280	Jan has a lot of detail.	Jan has a lot of detail.	3012486	1471996114472	1471996114666	a	65
5870	63280	Jan has a lot of detail.	Jan has a lot of detail.	3012494	1471996114601	1471996114746	s	83
5870	63280	Jan has a lot of detail.	Jan has a lot of detail.	3012499	1471996114746	1471996114858	 	32
5870	63280	Jan has a lot of detail.	Jan has a lot of detail.	3012596	1471996115059	1471996115174	a	65
5870	63280	Jan has a lot of detail.	Jan has a lot of detail.	3012599	1471996115121	1471996115205	 	32
5870	63280	Jan has a lot of detail.	Jan has a lot of detail.	3012605	1471996116317	1471996116419	l	76
5870	63280	Jan has a lot of detail.	Jan has a lot of detail.	3012611	1471996116389	1471996116533	o	79
5870	63280	Jan has a lot of detail.	Jan has a lot of detail.	3012615	1471996116893	1471996117002	 	84
5870	63280	Jan has a lot of detail.	Jan has a lot of detail.	3012767	1471996117958	1471996118038	o	79
5870	63280	Jan has a lot of detail.	Jan has a lot of detail.	3012769	1471996118069	1471996118178	f	70
5870	63280	Jan has a lot of detail.	Jan has a lot of detail.	3012773	1471996118155	1471996118237	 	32
5870	63280	Jan has a lot of detail.	Jan has a lot of detail.	3012775	1471996119933	1471996120088	d	68
5870	63280	Jan has a lot of detail.	Jan has a lot of detail.	3012886	1471996120005	1471996120208	e	69
5870	63280	Jan has a lot of detail.	Jan has a lot of detail.	3012889	1471996120255	1471996120353	t	84
5870	63280	Jan has a lot of detail.	Jan has a lot of detail.	3012894	1471996120871	1471996121017	a	65
5870	63280	Jan has a lot of detail.	Jan has a lot of detail.	3012898	1471996121049	1471996121169	i	73
5870	63280	Jan has a lot of detail.	Jan has a lot of detail.	3012902	1471996121372	1471996121438	l	76
5870	63280	Jan has a lot of detail.	Jan has a lot of detail.	3012904	1471996122443	1471996122568	.	190
5870	63299	Let me know if you have any questions.	Let me know if you have any questions.	3013151	1471996125302	1471996125535	SHIFT	16
5870	63299	Let me know if you have any questions.	Let me know if you have any questions.	3013146	1471996125427	1471996125520	L	76
5870	63299	Let me know if you have any questions.	Let me know if you have any questions.	3013156	1471996125864	1471996126058	e	69
5870	63299	Let me know if you have any questions.	Let me know if you have any questions.	3013161	1471996126000	1471996126136	t	84
5870	63299	Let me know if you have any questions.	Let me know if you have any questions.	3013169	1471996126136	1471996126220	 	32
5870	63299	Let me know if you have any questions.	Let me know if you have any questions.	3013174	1471996126314	1471996126427	m	77
5870	63299	Let me know if you have any questions.	Let me know if you have any questions.	3013231	1471996126452	1471996126571	e	69
5870	63299	Let me know if you have any questions.	Let me know if you have any questions.	3013234	1471996126522	1471996126634	 	32
5870	63299	Let me know if you have any questions.	Let me know if you have any questions.	3013236	1471996127122	1471996127304	k	75
5870	63299	Let me know if you have any questions.	Let me know if you have any questions.	3013238	1471996127234	1471996127414	n	78
5870	63299	Let me know if you have any questions.	Let me know if you have any questions.	3013240	1471996127445	1471996127568	o	79
5870	63299	Let me know if you have any questions.	Let me know if you have any questions.	3013297	1471996127640	1471996127755	w	87
5870	63299	Let me know if you have any questions.	Let me know if you have any questions.	3013300	1471996127689	1471996127802	 	32
5870	63299	Let me know if you have any questions.	Let me know if you have any questions.	3013303	1471996128648	1471996128768	i	73
5870	63299	Let me know if you have any questions.	Let me know if you have any questions.	3013306	1471996128846	1471996128979	f	70
5870	63299	Let me know if you have any questions.	Let me know if you have any questions.	3013387	1471996128937	1471996129037	 	32
5870	63299	Let me know if you have any questions.	Let me know if you have any questions.	3013391	1471996129538	1471996129740	y	89
5870	63299	Let me know if you have any questions.	Let me know if you have any questions.	3013395	1471996129683	1471996129804	o	79
5870	63299	Let me know if you have any questions.	Let me know if you have any questions.	3013399	1471996129740	1471996129804	u	85
5870	63299	Let me know if you have any questions.	Let me know if you have any questions.	3013403	1471996129883	1471996130049	 	32
5870	63299	Let me know if you have any questions.	Let me know if you have any questions.	3013406	1471996130629	1471996130735	h	72
5870	63299	Let me know if you have any questions.	Let me know if you have any questions.	3013442	1471996130824	1471996130983	a	65
5870	63299	Let me know if you have any questions.	Let me know if you have any questions.	3013444	1471996130983	1471996131086	v	86
5870	63299	Let me know if you have any questions.	Let me know if you have any questions.	3013446	1471996131164	1471996131287	e	69
5870	63299	Let me know if you have any questions.	Let me know if you have any questions.	3013450	1471996131223	1471996131334	 	32
5870	63299	Let me know if you have any questions.	Let me know if you have any questions.	3013453	1471996131522	1471996131665	a	65
5870	63299	Let me know if you have any questions.	Let me know if you have any questions.	3013514	1471996131676	1471996131786	n	78
5870	63299	Let me know if you have any questions.	Let me know if you have any questions.	3013515	1471996132051	1471996132121	y	89
5870	63299	Let me know if you have any questions.	Let me know if you have any questions.	3013516	1471996132199	1471996132319	 	32
5870	63299	Let me know if you have any questions.	Let me know if you have any questions.	3013517	1471996132930	1471996133068	q	81
5870	63299	Let me know if you have any questions.	Let me know if you have any questions.	3013518	1471996133130	1471996133306	u	85
5870	63299	Let me know if you have any questions.	Let me know if you have any questions.	3013632	1471996133267	1471996133384	i	73
5870	63299	Let me know if you have any questions.	Let me know if you have any questions.	3013634	1471996133918	1471996134004	BKSP	8
5870	63299	Let me know if you have any questions.	Let me know if you have any questions.	3013637	1471996134207	1471996134317	e	69
5870	63299	Let me know if you have any questions.	Let me know if you have any questions.	3013641	1471996134755	1471996134899	s	83
5870	63299	Let me know if you have any questions.	Let me know if you have any questions.	3013646	1471996135039	1471996135135	t	84
5870	63299	Let me know if you have any questions.	Let me know if you have any questions.	3013651	1471996135490	1471996135673	i	73
5870	63299	Let me know if you have any questions.	Let me know if you have any questions.	3013740	1471996135617	1471996135746	o	79
5870	63299	Let me know if you have any questions.	Let me know if you have any questions.	3013743	1471996135934	1471996136052	n	78
5870	63299	Let me know if you have any questions.	Let me know if you have any questions.	3013745	1471996136161	1471996136252	s	83
5870	63299	Let me know if you have any questions.	Let me know if you have any questions.	3013752	1471996136739	1471996136789	.	190
5870	63317	Please call me if you have any questions.	Please call me if you have any questions.	3014010	1471996140198	1471996140346	SHIFT	16
5870	63317	Please call me if you have any questions.	Please call me if you have any questions.	3014012	1471996140323	1471996140404	P	80
5870	63317	Please call me if you have any questions.	Please call me if you have any questions.	3014015	1471996140898	1471996141002	l	76
5870	63317	Please call me if you have any questions.	Please call me if you have any questions.	3014017	1471996141064	1471996141214	e	69
5870	63317	Please call me if you have any questions.	Please call me if you have any questions.	3014019	1471996141214	1471996141272	s	83
5870	63317	Please call me if you have any questions.	Please call me if you have any questions.	3014022	1471996141837	1471996141937	BKSP	8
5870	63317	Please call me if you have any questions.	Please call me if you have any questions.	3014025	1471996142141	1471996142298	a	65
5870	63317	Please call me if you have any questions.	Please call me if you have any questions.	3014126	1471996142586	1471996142700	s	83
5870	63317	Please call me if you have any questions.	Please call me if you have any questions.	3014128	1471996142810	1471996142886	e	69
5870	63317	Please call me if you have any questions.	Please call me if you have any questions.	3014132	1471996143530	1471996143603	 	32
5870	63317	Please call me if you have any questions.	Please call me if you have any questions.	3014136	1471996144090	1471996144186	c	67
5870	63317	Please call me if you have any questions.	Please call me if you have any questions.	3014141	1471996144405	1471996144501	a	65
5870	63317	Please call me if you have any questions.	Please call me if you have any questions.	3014239	1471996144527	1471996144610	l	76
5870	63317	Please call me if you have any questions.	Please call me if you have any questions.	3014243	1471996144793	1471996144900	,	188
5870	63317	Please call me if you have any questions.	Please call me if you have any questions.	3014248	1471996145363	1471996145483	BKSP	8
5870	63317	Please call me if you have any questions.	Please call me if you have any questions.	3014252	1471996146205	1471996146303	l	76
5870	63317	Please call me if you have any questions.	Please call me if you have any questions.	3014256	1471996146443	1471996146583	 	32
5870	63317	Please call me if you have any questions.	Please call me if you have any questions.	3014259	1471996146801	1471996146887	m	77
5870	63317	Please call me if you have any questions.	Please call me if you have any questions.	3014299	1471996146901	1471996147034	e	69
5870	63317	Please call me if you have any questions.	Please call me if you have any questions.	3014308	1471996146986	1471996147100	 	32
5870	63317	Please call me if you have any questions.	Please call me if you have any questions.	3014316	1471996147619	1471996147703	i	73
5870	63317	Please call me if you have any questions.	Please call me if you have any questions.	3014325	1471996147765	1471996147888	f	70
5870	63317	Please call me if you have any questions.	Please call me if you have any questions.	3014416	1471996147837	1471996147960	 	32
5870	63317	Please call me if you have any questions.	Please call me if you have any questions.	3014419	1471996148354	1471996148452	y	89
5870	63317	Please call me if you have any questions.	Please call me if you have any questions.	3014422	1471996148468	1471996148571	o	79
5870	63317	Please call me if you have any questions.	Please call me if you have any questions.	3014426	1471996148554	1471996148636	u	85
5870	63317	Please call me if you have any questions.	Please call me if you have any questions.	3014430	1471996148683	1471996148831	 	32
5870	63317	Please call me if you have any questions.	Please call me if you have any questions.	3014435	1471996149585	1471996149670	h	72
5870	63317	Please call me if you have any questions.	Please call me if you have any questions.	3014491	1471996149711	1471996149833	a	65
5870	63317	Please call me if you have any questions.	Please call me if you have any questions.	3014493	1471996149880	1471996149936	v	86
5870	63317	Please call me if you have any questions.	Please call me if you have any questions.	3014494	1471996150233	1471996150346	e	69
5870	63317	Please call me if you have any questions.	Please call me if you have any questions.	3014496	1471996150304	1471996150401	 	32
5870	63317	Please call me if you have any questions.	Please call me if you have any questions.	3014499	1471996150843	1471996150938	a	65
5870	63317	Please call me if you have any questions.	Please call me if you have any questions.	3014585	1471996150963	1471996151036	n	78
5870	63317	Please call me if you have any questions.	Please call me if you have any questions.	3014590	1471996151380	1471996151485	y	89
5870	63317	Please call me if you have any questions.	Please call me if you have any questions.	3014594	1471996151657	1471996151767	 	32
5870	63317	Please call me if you have any questions.	Please call me if you have any questions.	3014598	1471996152443	1471996152582	q	81
5870	63317	Please call me if you have any questions.	Please call me if you have any questions.	3014602	1471996152613	1471996152827	u	85
5870	63317	Please call me if you have any questions.	Please call me if you have any questions.	3014738	1471996154778	1471996154885	e	69
5870	63317	Please call me if you have any questions.	Please call me if you have any questions.	3014742	1471996155182	1471996155274	s	83
5870	63317	Please call me if you have any questions.	Please call me if you have any questions.	3014746	1471996155512	1471996155602	t	84
5870	63317	Please call me if you have any questions.	Please call me if you have any questions.	3014748	1471996155680	1471996155838	i	73
5870	63317	Please call me if you have any questions.	Please call me if you have any questions.	3014989	1471996155784	1471996155926	o	79
5870	63317	Please call me if you have any questions.	Please call me if you have any questions.	3014992	1471996156067	1471996156200	n	78
5870	63317	Please call me if you have any questions.	Please call me if you have any questions.	3014995	1471996156559	1471996156671	s	83
5870	63317	Please call me if you have any questions.	Please call me if you have any questions.	3014997	1471996156620	1471996156702	'	222
5870	63317	Please call me if you have any questions.	Please call me if you have any questions.	3014999	1471996157518	1471996157618	BKSP	8
5870	63317	Please call me if you have any questions.	Please call me if you have any questions.	3015001	1471996159374	1471996159484	.	190
5870	63344	Let me know if you do not hear from them in the next couple of days.	Let me know if you do not hear from them in the next couple of days	3015249	1471996163234	1471996163706	SHIFT	16
5870	63344	Let me know if you do not hear from them in the next couple of days.	Let me know if you do not hear from them in the next couple of days	3015250	1471996163661	1471996163783	L	76
5870	63344	Let me know if you do not hear from them in the next couple of days.	Let me know if you do not hear from them in the next couple of days	3015252	1471996163971	1471996164067	e	69
5870	63344	Let me know if you do not hear from them in the next couple of days.	Let me know if you do not hear from them in the next couple of days	3015254	1471996164192	1471996164254	y	84
5870	63344	Let me know if you do not hear from them in the next couple of days.	Let me know if you do not hear from them in the next couple of days	3015257	1471996164254	1471996164338	 	32
5870	63344	Let me know if you do not hear from them in the next couple of days.	Let me know if you do not hear from them in the next couple of days	3015447	1471996165088	1471996165185	BKSP	8
5870	63344	Let me know if you do not hear from them in the next couple of days.	Let me know if you do not hear from them in the next couple of days	3015449	1471996165796	1471996165886	BKSP	8
5870	63344	Let me know if you do not hear from them in the next couple of days.	Let me know if you do not hear from them in the next couple of days	3015453	1471996166606	1471996166717	 	32
5870	63344	Let me know if you do not hear from them in the next couple of days.	Let me know if you do not hear from them in the next couple of days	3015457	1471996166889	1471996166983	m	77
5870	63344	Let me know if you do not hear from them in the next couple of days.	Let me know if you do not hear from them in the next couple of days	3015460	1471996167077	1471996167183	 	32
5870	63344	Let me know if you do not hear from them in the next couple of days.	Let me know if you do not hear from them in the next couple of days	3015463	1471996167666	1471996167753	BKSP	8
5870	63344	Let me know if you do not hear from them in the next couple of days.	Let me know if you do not hear from them in the next couple of days	3015467	1471996167753	1471996167804	e	69
5870	63344	Let me know if you do not hear from them in the next couple of days.	Let me know if you do not hear from them in the next couple of days	3015473	1471996167976	1471996168021	 	32
5870	63344	Let me know if you do not hear from them in the next couple of days.	Let me know if you do not hear from them in the next couple of days	3015568	1471996168145	1471996168219	 	32
5870	63344	Let me know if you do not hear from them in the next couple of days.	Let me know if you do not hear from them in the next couple of days	3015570	1471996169049	1471996169136	BKSP	8
5870	63344	Let me know if you do not hear from them in the next couple of days.	Let me know if you do not hear from them in the next couple of days	3015573	1471996169526	1471996169703	k	75
5870	63344	Let me know if you do not hear from them in the next couple of days.	Let me know if you do not hear from them in the next couple of days	3015578	1471996169633	1471996169781	n	78
5870	63344	Let me know if you do not hear from them in the next couple of days.	Let me know if you do not hear from them in the next couple of days	3015583	1471996169828	1471996169965	o	79
5870	63344	Let me know if you do not hear from them in the next couple of days.	Let me know if you do not hear from them in the next couple of days	3015589	1471996170043	1471996170152	w	87
5870	63344	Let me know if you do not hear from them in the next couple of days.	Let me know if you do not hear from them in the next couple of days	3015720	1471996170087	1471996170209	 	32
5870	63344	Let me know if you do not hear from them in the next couple of days.	Let me know if you do not hear from them in the next couple of days	3015723	1471996170537	1471996170651	i	73
5870	63344	Let me know if you do not hear from them in the next couple of days.	Let me know if you do not hear from them in the next couple of days	3015731	1471996170688	1471996170802	f	70
5870	63344	Let me know if you do not hear from them in the next couple of days.	Let me know if you do not hear from them in the next couple of days	3015742	1471996170738	1471996170849	 	32
5870	63344	Let me know if you do not hear from them in the next couple of days.	Let me know if you do not hear from them in the next couple of days	3015987	1471996172166	1471996172408	y	89
5870	63344	Let me know if you do not hear from them in the next couple of days.	Let me know if you do not hear from them in the next couple of days	3015748	1471996172252	1471996172366	o	79
5870	63344	Let me know if you do not hear from them in the next couple of days.	Let me know if you do not hear from them in the next couple of days	3015992	1471996172565	1471996172683	 	32
5870	63344	Let me know if you do not hear from them in the next couple of days.	Let me know if you do not hear from them in the next couple of days	3016001	1471996173843	1471996173904	BKSP	8
5870	63344	Let me know if you do not hear from them in the next couple of days.	Let me know if you do not hear from them in the next couple of days	3016009	1471996173920	1471996174033	u	85
5870	63344	Let me know if you do not hear from them in the next couple of days.	Let me know if you do not hear from them in the next couple of days	3016018	1471996174049	1471996174119	m	77
5870	63344	Let me know if you do not hear from them in the next couple of days.	Let me know if you do not hear from them in the next couple of days	3016023	1471996174119	1471996174170	 	32
5870	63344	Let me know if you do not hear from them in the next couple of days.	Let me know if you do not hear from them in the next couple of days	3016029	1471996175090	1471996175185	BKSP	8
5870	63344	Let me know if you do not hear from them in the next couple of days.	Let me know if you do not hear from them in the next couple of days	3016033	1471996175467	1471996175567	BKSP	8
5870	63344	Let me know if you do not hear from them in the next couple of days.	Let me know if you do not hear from them in the next couple of days	3016036	1471996176101	1471996176201	 	77
5870	63344	Let me know if you do not hear from them in the next couple of days.	Let me know if you do not hear from them in the next couple of days	3016284	1471996176619	1471996176734	BKSP	8
5870	63344	Let me know if you do not hear from them in the next couple of days.	Let me know if you do not hear from them in the next couple of days	3016288	1471996176937	1471996177054	 	32
5870	63344	Let me know if you do not hear from them in the next couple of days.	Let me know if you do not hear from them in the next couple of days	3016286	1471996177002	1471996177050	m	77
5870	63344	Let me know if you do not hear from them in the next couple of days.	Let me know if you do not hear from them in the next couple of days	3016291	1471996177366	1471996177426	BKSP	8
5870	63344	Let me know if you do not hear from them in the next couple of days.	Let me know if you do not hear from them in the next couple of days	3016294	1471996177500	1471996177586	BKSP	8
5870	63344	Let me know if you do not hear from them in the next couple of days.	Let me know if you do not hear from them in the next couple of days	3016299	1471996177664	1471996177751	BKSP	8
5870	63344	Let me know if you do not hear from them in the next couple of days.	Let me know if you do not hear from them in the next couple of days	3016304	1471996177940	1471996178060	m	77
5870	63344	Let me know if you do not hear from them in the next couple of days.	Let me know if you do not hear from them in the next couple of days	3016307	1471996178522	1471996178602	 	32
5870	63344	Let me know if you do not hear from them in the next couple of days.	Let me know if you do not hear from them in the next couple of days	3016311	1471996178805	1471996178933	BKSP	8
5870	63344	Let me know if you do not hear from them in the next couple of days.	Let me know if you do not hear from them in the next couple of days	3016315	1471996179026	1471996179119	BKSP	8
5870	63344	Let me know if you do not hear from them in the next couple of days.	Let me know if you do not hear from them in the next couple of days	3016320	1471996179197	1471996179250	BKSP	8
5870	63344	Let me know if you do not hear from them in the next couple of days.	Let me know if you do not hear from them in the next couple of days	3016325	1471996180320	1471996180432	u	85
5870	63344	Let me know if you do not hear from them in the next couple of days.	Let me know if you do not hear from them in the next couple of days	3016400	1471996180505	1471996180632	 	32
5870	63344	Let me know if you do not hear from them in the next couple of days.	Let me know if you do not hear from them in the next couple of days	3016402	1471996181307	1471996181420	d	68
5870	63344	Let me know if you do not hear from them in the next couple of days.	Let me know if you do not hear from them in the next couple of days	3016404	1471996181354	1471996181451	o	79
5870	63344	Let me know if you do not hear from them in the next couple of days.	Let me know if you do not hear from them in the next couple of days	3016406	1471996181545	1471996181713	 	32
5870	63344	Let me know if you do not hear from them in the next couple of days.	Let me know if you do not hear from them in the next couple of days	3016408	1471996182026	1471996182283	n	78
5870	63344	Let me know if you do not hear from them in the next couple of days.	Let me know if you do not hear from them in the next couple of days	3016546	1471996182180	1471996182324	o	79
5870	63344	Let me know if you do not hear from them in the next couple of days.	Let me know if you do not hear from them in the next couple of days	3016548	1471996182771	1471996182843	t	84
5870	63344	Let me know if you do not hear from them in the next couple of days.	Let me know if you do not hear from them in the next couple of days	3016552	1471996182819	1471996182901	 	32
5870	63344	Let me know if you do not hear from them in the next couple of days.	Let me know if you do not hear from them in the next couple of days	3016555	1471996184173	1471996184283	h	72
5870	63344	Let me know if you do not hear from them in the next couple of days.	Let me know if you do not hear from them in the next couple of days	3016558	1471996184283	1471996184368	e	69
5870	63344	Let me know if you do not hear from them in the next couple of days.	Let me know if you do not hear from them in the next couple of days	3016560	1471996184525	1471996184652	a	65
5870	63344	Let me know if you do not hear from them in the next couple of days.	Let me know if you do not hear from them in the next couple of days	3016606	1471996184585	1471996184679	r	82
5870	63344	Let me know if you do not hear from them in the next couple of days.	Let me know if you do not hear from them in the next couple of days	3016610	1471996184898	1471996184999	 	32
5870	63344	Let me know if you do not hear from them in the next couple of days.	Let me know if you do not hear from them in the next couple of days	3016615	1471996185093	1471996185246	f	70
5870	63344	Let me know if you do not hear from them in the next couple of days.	Let me know if you do not hear from them in the next couple of days	3016621	1471996185246	1471996185350	r	82
5870	63344	Let me know if you do not hear from them in the next couple of days.	Let me know if you do not hear from them in the next couple of days	3016626	1471996185444	1471996185666	o	79
5870	63344	Let me know if you do not hear from them in the next couple of days.	Let me know if you do not hear from them in the next couple of days	3016781	1471996185628	1471996185749	m	77
5870	63344	Let me know if you do not hear from them in the next couple of days.	Let me know if you do not hear from them in the next couple of days	3016787	1471996185858	1471996185950	 	32
5870	63344	Let me know if you do not hear from them in the next couple of days.	Let me know if you do not hear from them in the next couple of days	3016791	1471996186043	1471996186228	t	84
5870	63344	Let me know if you do not hear from them in the next couple of days.	Let me know if you do not hear from them in the next couple of days	3016794	1471996186228	1471996186334	h	72
5870	63344	Let me know if you do not hear from them in the next couple of days.	Let me know if you do not hear from them in the next couple of days	3016797	1471996187681	1471996187783	e	69
5870	63344	Let me know if you do not hear from them in the next couple of days.	Let me know if you do not hear from them in the next couple of days	3016802	1471996187799	1471996187884	m	77
5870	63344	Let me know if you do not hear from them in the next couple of days.	Let me know if you do not hear from them in the next couple of days	3016943	1471996188009	1471996188196	 	32
5870	63344	Let me know if you do not hear from them in the next couple of days.	Let me know if you do not hear from them in the next couple of days	3016941	1471996188058	1471996188103	n	78
5870	63344	Let me know if you do not hear from them in the next couple of days.	Let me know if you do not hear from them in the next couple of days	3016946	1471996188825	1471996188919	BKSP	8
5870	63344	Let me know if you do not hear from them in the next couple of days.	Let me know if you do not hear from them in the next couple of days	3016949	1471996189857	1471996190074	i	73
5870	63344	Let me know if you do not hear from them in the next couple of days.	Let me know if you do not hear from them in the next couple of days	3016952	1471996190029	1471996190180	n	78
5870	63344	Let me know if you do not hear from them in the next couple of days.	Let me know if you do not hear from them in the next couple of days	3016956	1471996190274	1471996190389	 	32
5870	63344	Let me know if you do not hear from them in the next couple of days.	Let me know if you do not hear from them in the next couple of days	3017023	1471996190525	1471996190643	t	84
5870	63344	Let me know if you do not hear from them in the next couple of days.	Let me know if you do not hear from them in the next couple of days	3017027	1471996190618	1471996190717	h	72
5870	63344	Let me know if you do not hear from them in the next couple of days.	Let me know if you do not hear from them in the next couple of days	3017030	1471996190874	1471996190986	e	69
5870	63344	Let me know if you do not hear from them in the next couple of days.	Let me know if you do not hear from them in the next couple of days	3017033	1471996190952	1471996191049	 	32
5870	63344	Let me know if you do not hear from them in the next couple of days.	Let me know if you do not hear from them in the next couple of days	3017036	1471996191552	1471996191634	n	78
5870	63344	Let me know if you do not hear from them in the next couple of days.	Let me know if you do not hear from them in the next couple of days	3017168	1471996191769	1471996191882	e	69
5870	63344	Let me know if you do not hear from them in the next couple of days.	Let me know if you do not hear from them in the next couple of days	3017176	1471996192509	1471996192615	x	88
5870	63344	Let me know if you do not hear from them in the next couple of days.	Let me know if you do not hear from them in the next couple of days	3017188	1471996192858	1471996192983	t	84
5870	63344	Let me know if you do not hear from them in the next couple of days.	Let me know if you do not hear from them in the next couple of days	3017194	1471996193014	1471996193117	 	32
5870	63344	Let me know if you do not hear from them in the next couple of days.	Let me know if you do not hear from them in the next couple of days	3017199	1471996193900	1471996194031	c	67
5870	63344	Let me know if you do not hear from them in the next couple of days.	Let me know if you do not hear from them in the next couple of days	3017265	1471996194031	1471996194216	o	79
5870	63344	Let me know if you do not hear from them in the next couple of days.	Let me know if you do not hear from them in the next couple of days	3017268	1471996194117	1471996194295	u	85
5870	63344	Let me know if you do not hear from them in the next couple of days.	Let me know if you do not hear from them in the next couple of days	3017271	1471996194545	1471996194747	p	80
5870	63344	Let me know if you do not hear from them in the next couple of days.	Let me know if you do not hear from them in the next couple of days	3017274	1471996194696	1471996194891	l	76
5870	63344	Let me know if you do not hear from them in the next couple of days.	Let me know if you do not hear from them in the next couple of days	3017276	1471996195044	1471996195165	e	69
5870	63344	Let me know if you do not hear from them in the next couple of days.	Let me know if you do not hear from them in the next couple of days	3017321	1471996195165	1471996195268	 	32
5870	63344	Let me know if you do not hear from them in the next couple of days.	Let me know if you do not hear from them in the next couple of days	3017322	1471996195529	1471996195642	o	79
5870	63344	Let me know if you do not hear from them in the next couple of days.	Let me know if you do not hear from them in the next couple of days	3017324	1471996195617	1471996195717	f	70
5870	63344	Let me know if you do not hear from them in the next couple of days.	Let me know if you do not hear from them in the next couple of days	3017328	1471996195764	1471996195899	 	32
5870	63344	Let me know if you do not hear from them in the next couple of days.	Let me know if you do not hear from them in the next couple of days	3017331	1471996196305	1471996196385	d	68
5870	63344	Let me know if you do not hear from them in the next couple of days.	Let me know if you do not hear from them in the next couple of days	3017397	1471996196614	1471996196780	a	65
5870	63344	Let me know if you do not hear from them in the next couple of days.	Let me know if you do not hear from them in the next couple of days	3017400	1471996196780	1471996197027	y	89
5870	63344	Let me know if you do not hear from them in the next couple of days.	Let me know if you do not hear from them in the next couple of days	3017406	1471996197620	1471996197748	s	83
5870	63391	He has developed a good on-field relationship with QB Brad Johnson.	He has developed a good on-field relationship with QB Brad Johnson.	3017621	1471996200498	1471996200651	SHIFT	16
5870	63391	He has developed a good on-field relationship with QB Brad Johnson.	He has developed a good on-field relationship with QB Brad Johnson.	3017626	1471996200592	1471996200669	H	72
5870	63391	He has developed a good on-field relationship with QB Brad Johnson.	He has developed a good on-field relationship with QB Brad Johnson.	3017632	1471996200919	1471996201018	e	69
5870	63391	He has developed a good on-field relationship with QB Brad Johnson.	He has developed a good on-field relationship with QB Brad Johnson.	3017637	1471996201001	1471996201099	 	32
5870	63391	He has developed a good on-field relationship with QB Brad Johnson.	He has developed a good on-field relationship with QB Brad Johnson.	3017640	1471996201428	1471996201517	h	72
5870	63391	He has developed a good on-field relationship with QB Brad Johnson.	He has developed a good on-field relationship with QB Brad Johnson.	3017644	1471996201532	1471996201714	a	65
5870	63391	He has developed a good on-field relationship with QB Brad Johnson.	He has developed a good on-field relationship with QB Brad Johnson.	3017721	1471996201677	1471996201861	s	83
5870	63391	He has developed a good on-field relationship with QB Brad Johnson.	He has developed a good on-field relationship with QB Brad Johnson.	3017724	1471996202001	1471996202099	 	32
5870	63391	He has developed a good on-field relationship with QB Brad Johnson.	He has developed a good on-field relationship with QB Brad Johnson.	3017727	1471996202224	1471996202394	d	68
5870	63391	He has developed a good on-field relationship with QB Brad Johnson.	He has developed a good on-field relationship with QB Brad Johnson.	3017730	1471996202394	1471996202514	e	69
5870	63391	He has developed a good on-field relationship with QB Brad Johnson.	He has developed a good on-field relationship with QB Brad Johnson.	3017733	1471996202655	1471996202765	v	86
5870	63391	He has developed a good on-field relationship with QB Brad Johnson.	He has developed a good on-field relationship with QB Brad Johnson.	3017737	1471996202937	1471996203048	e	69
5870	63391	He has developed a good on-field relationship with QB Brad Johnson.	He has developed a good on-field relationship with QB Brad Johnson.	3017807	1471996203435	1471996203594	l	76
5870	63391	He has developed a good on-field relationship with QB Brad Johnson.	He has developed a good on-field relationship with QB Brad Johnson.	3017808	1471996203548	1471996203697	o	79
5870	63391	He has developed a good on-field relationship with QB Brad Johnson.	He has developed a good on-field relationship with QB Brad Johnson.	3017810	1471996203885	1471996203975	p	80
5870	63391	He has developed a good on-field relationship with QB Brad Johnson.	He has developed a good on-field relationship with QB Brad Johnson.	3017812	1471996204068	1471996204317	e	69
5870	63391	He has developed a good on-field relationship with QB Brad Johnson.	He has developed a good on-field relationship with QB Brad Johnson.	3017905	1471996204228	1471996204403	d	68
5870	63391	He has developed a good on-field relationship with QB Brad Johnson.	He has developed a good on-field relationship with QB Brad Johnson.	3017910	1471996204343	1471996204449	 	32
5870	63391	He has developed a good on-field relationship with QB Brad Johnson.	He has developed a good on-field relationship with QB Brad Johnson.	3017915	1471996205025	1471996205153	a	65
5870	63391	He has developed a good on-field relationship with QB Brad Johnson.	He has developed a good on-field relationship with QB Brad Johnson.	3017921	1471996205102	1471996205199	 	32
5870	63391	He has developed a good on-field relationship with QB Brad Johnson.	He has developed a good on-field relationship with QB Brad Johnson.	3017925	1471996205906	1471996206015	g	71
5870	63391	He has developed a good on-field relationship with QB Brad Johnson.	He has developed a good on-field relationship with QB Brad Johnson.	3017929	1471996206031	1471996206122	o	79
5870	63391	He has developed a good on-field relationship with QB Brad Johnson.	He has developed a good on-field relationship with QB Brad Johnson.	3017980	1471996206206	1471996206268	o	79
5870	63391	He has developed a good on-field relationship with QB Brad Johnson.	He has developed a good on-field relationship with QB Brad Johnson.	3017985	1471996206503	1471996206603	d	68
5870	63391	He has developed a good on-field relationship with QB Brad Johnson.	He has developed a good on-field relationship with QB Brad Johnson.	3017987	1471996206546	1471996206634	 	32
5870	63391	He has developed a good on-field relationship with QB Brad Johnson.	He has developed a good on-field relationship with QB Brad Johnson.	3017993	1471996207276	1471996207450	o	79
5870	63391	He has developed a good on-field relationship with QB Brad Johnson.	He has developed a good on-field relationship with QB Brad Johnson.	3018222	1471996207415	1471996207531	n	78
5870	63391	He has developed a good on-field relationship with QB Brad Johnson.	He has developed a good on-field relationship with QB Brad Johnson.	3018224	1471996207625	1471996207764	 	32
5870	63391	He has developed a good on-field relationship with QB Brad Johnson.	He has developed a good on-field relationship with QB Brad Johnson.	3018228	1471996208485	1471996208583	BKSP	8
5870	63391	He has developed a good on-field relationship with QB Brad Johnson.	He has developed a good on-field relationship with QB Brad Johnson.	3018230	1471996209900	1471996209999	-	189
5870	63391	He has developed a good on-field relationship with QB Brad Johnson.	He has developed a good on-field relationship with QB Brad Johnson.	3018234	1471996210264	1471996210381	f	70
5870	63391	He has developed a good on-field relationship with QB Brad Johnson.	He has developed a good on-field relationship with QB Brad Johnson.	3018240	1471996210506	1471996210583	i	73
5870	63391	He has developed a good on-field relationship with QB Brad Johnson.	He has developed a good on-field relationship with QB Brad Johnson.	3018241	1471996211258	1471996211346	e	69
5870	63391	He has developed a good on-field relationship with QB Brad Johnson.	He has developed a good on-field relationship with QB Brad Johnson.	3018411	1471996211302	1471996211388	l	76
5870	63391	He has developed a good on-field relationship with QB Brad Johnson.	He has developed a good on-field relationship with QB Brad Johnson.	3018414	1471996211450	1471996211554	d	68
5870	63391	He has developed a good on-field relationship with QB Brad Johnson.	He has developed a good on-field relationship with QB Brad Johnson.	3018418	1471996211517	1471996211631	 	32
5870	63391	He has developed a good on-field relationship with QB Brad Johnson.	He has developed a good on-field relationship with QB Brad Johnson.	3018423	1471996213131	1471996213290	r	82
5870	63391	He has developed a good on-field relationship with QB Brad Johnson.	He has developed a good on-field relationship with QB Brad Johnson.	3018428	1471996213248	1471996213381	e	69
5870	63391	He has developed a good on-field relationship with QB Brad Johnson.	He has developed a good on-field relationship with QB Brad Johnson.	3018434	1471996214008	1471996214131	l	76
5870	63391	He has developed a good on-field relationship with QB Brad Johnson.	He has developed a good on-field relationship with QB Brad Johnson.	3018501	1471996214147	1471996214280	a	65
5870	63391	He has developed a good on-field relationship with QB Brad Johnson.	He has developed a good on-field relationship with QB Brad Johnson.	3018503	1471996214608	1471996214735	t	84
5870	63391	He has developed a good on-field relationship with QB Brad Johnson.	He has developed a good on-field relationship with QB Brad Johnson.	3018507	1471996214797	1471996215086	o	79
5870	63391	He has developed a good on-field relationship with QB Brad Johnson.	He has developed a good on-field relationship with QB Brad Johnson.	3018513	1471996215544	1471996215634	BKSP	8
5870	63391	He has developed a good on-field relationship with QB Brad Johnson.	He has developed a good on-field relationship with QB Brad Johnson.	3018518	1471996215946	1471996216115	i	73
5870	63391	He has developed a good on-field relationship with QB Brad Johnson.	He has developed a good on-field relationship with QB Brad Johnson.	3018666	1471996216083	1471996216183	p	79
5870	63391	He has developed a good on-field relationship with QB Brad Johnson.	He has developed a good on-field relationship with QB Brad Johnson.	3018669	1471996216997	1471996217099	BKSP	8
5870	63391	He has developed a good on-field relationship with QB Brad Johnson.	He has developed a good on-field relationship with QB Brad Johnson.	3018673	1471996217664	1471996217751	n	78
5870	63391	He has developed a good on-field relationship with QB Brad Johnson.	He has developed a good on-field relationship with QB Brad Johnson.	3018677	1471996218442	1471996218565	s	83
5870	63391	He has developed a good on-field relationship with QB Brad Johnson.	He has developed a good on-field relationship with QB Brad Johnson.	3018683	1471996218675	1471996218829	h	72
5870	63391	He has developed a good on-field relationship with QB Brad Johnson.	He has developed a good on-field relationship with QB Brad Johnson.	3018686	1471996219110	1471996219280	i	73
5870	63391	He has developed a good on-field relationship with QB Brad Johnson.	He has developed a good on-field relationship with QB Brad Johnson.	3018689	1471996219342	1471996219464	p	80
5870	63391	He has developed a good on-field relationship with QB Brad Johnson.	He has developed a good on-field relationship with QB Brad Johnson.	3018816	1471996219758	1471996219849	 	32
5870	63391	He has developed a good on-field relationship with QB Brad Johnson.	He has developed a good on-field relationship with QB Brad Johnson.	3018820	1471996221276	1471996221414	w	87
5870	63391	He has developed a good on-field relationship with QB Brad Johnson.	He has developed a good on-field relationship with QB Brad Johnson.	3018828	1471996221586	1471996221683	i	73
5870	63391	He has developed a good on-field relationship with QB Brad Johnson.	He has developed a good on-field relationship with QB Brad Johnson.	3018831	1471996221808	1471996221931	t	84
5870	63391	He has developed a good on-field relationship with QB Brad Johnson.	He has developed a good on-field relationship with QB Brad Johnson.	3018837	1471996222040	1471996222135	h	72
5870	63391	He has developed a good on-field relationship with QB Brad Johnson.	He has developed a good on-field relationship with QB Brad Johnson.	3019089	1471996222555	1471996222634	 	32
5870	63391	He has developed a good on-field relationship with QB Brad Johnson.	He has developed a good on-field relationship with QB Brad Johnson.	3019104	1471996223952	1471996225632	SHIFT	16
5870	63391	He has developed a good on-field relationship with QB Brad Johnson.	He has developed a good on-field relationship with QB Brad Johnson.	3019093	1471996224783	1471996224836	Q	81
5870	63391	He has developed a good on-field relationship with QB Brad Johnson.	He has developed a good on-field relationship with QB Brad Johnson.	3019098	1471996225289	1471996225351	B	66
5870	63391	He has developed a good on-field relationship with QB Brad Johnson.	He has developed a good on-field relationship with QB Brad Johnson.	3019114	1471996226103	1471996226200	 	32
5870	63391	He has developed a good on-field relationship with QB Brad Johnson.	He has developed a good on-field relationship with QB Brad Johnson.	3019205	1471996226700	1471996227227	SHIFT	16
5870	63391	He has developed a good on-field relationship with QB Brad Johnson.	He has developed a good on-field relationship with QB Brad Johnson.	3019119	1471996227047	1471996227118	B	66
5870	63391	He has developed a good on-field relationship with QB Brad Johnson.	He has developed a good on-field relationship with QB Brad Johnson.	3019206	1471996227414	1471996227500	r	82
5870	63391	He has developed a good on-field relationship with QB Brad Johnson.	He has developed a good on-field relationship with QB Brad Johnson.	3019207	1471996227766	1471996227913	a	65
5870	63391	He has developed a good on-field relationship with QB Brad Johnson.	He has developed a good on-field relationship with QB Brad Johnson.	3019209	1471996227913	1471996228031	d	68
5870	63391	He has developed a good on-field relationship with QB Brad Johnson.	He has developed a good on-field relationship with QB Brad Johnson.	3019212	1471996228047	1471996228150	 	32
5870	63391	He has developed a good on-field relationship with QB Brad Johnson.	He has developed a good on-field relationship with QB Brad Johnson.	3019216	1471996228762	1471996228907	SHIFT	16
5870	63391	He has developed a good on-field relationship with QB Brad Johnson.	He has developed a good on-field relationship with QB Brad Johnson.	3019385	1471996228872	1471996228951	J	74
5870	63391	He has developed a good on-field relationship with QB Brad Johnson.	He has developed a good on-field relationship with QB Brad Johnson.	3019386	1471996229996	1471996230075	o	79
5870	63391	He has developed a good on-field relationship with QB Brad Johnson.	He has developed a good on-field relationship with QB Brad Johnson.	3019389	1471996230075	1471996230167	h	72
5870	63391	He has developed a good on-field relationship with QB Brad Johnson.	He has developed a good on-field relationship with QB Brad Johnson.	3019391	1471996231453	1471996231550	n	78
5870	63391	He has developed a good on-field relationship with QB Brad Johnson.	He has developed a good on-field relationship with QB Brad Johnson.	3019394	1471996232272	1471996232412	s	83
5870	63391	He has developed a good on-field relationship with QB Brad Johnson.	He has developed a good on-field relationship with QB Brad Johnson.	3019469	1471996232365	1471996232567	o	79
5870	63391	He has developed a good on-field relationship with QB Brad Johnson.	He has developed a good on-field relationship with QB Brad Johnson.	3019470	1471996232469	1471996232661	n	78
5870	63391	He has developed a good on-field relationship with QB Brad Johnson.	He has developed a good on-field relationship with QB Brad Johnson.	3019471	1471996233350	1471996233435	.	190
5870	63436	Derivatives are not new.	Derivatives are not new.	3019727	1471996236490	1471996236619	SHIFT	16
5870	63436	Derivatives are not new.	Derivatives are not new.	3019730	1471996236572	1471996236759	D	68
5870	63436	Derivatives are not new.	Derivatives are not new.	3019734	1471996237402	1471996237534	e	69
5870	63436	Derivatives are not new.	Derivatives are not new.	3019738	1471996237468	1471996237597	r	82
5870	63436	Derivatives are not new.	Derivatives are not new.	3019741	1471996238548	1471996238633	i	73
5870	63436	Derivatives are not new.	Derivatives are not new.	3019745	1471996238836	1471996238932	v	86
5870	63436	Derivatives are not new.	Derivatives are not new.	3020043	1471996238973	1471996239144	a	65
5870	63436	Derivatives are not new.	Derivatives are not new.	3020047	1471996239315	1471996239431	t	84
5870	63436	Derivatives are not new.	Derivatives are not new.	3020051	1471996239494	1471996239552	e	69
5870	63436	Derivatives are not new.	Derivatives are not new.	3020057	1471996239677	1471996239815	s	83
5870	63436	Derivatives are not new.	Derivatives are not new.	3020061	1471996242465	1471996242597	BKSP	8
5870	63436	Derivatives are not new.	Derivatives are not new.	3020066	1471996243011	1471996243194	BKSP	8
5870	63436	Derivatives are not new.	Derivatives are not new.	3020070	1471996245513	1471996245631	i	73
5870	63436	Derivatives are not new.	Derivatives are not new.	3020254	1471996245845	1471996245995	v	86
5870	63436	Derivatives are not new.	Derivatives are not new.	3020258	1471996246246	1471996246428	e	69
5870	63436	Derivatives are not new.	Derivatives are not new.	3020262	1471996246521	1471996246600	t	84
5870	63436	Derivatives are not new.	Derivatives are not new.	3020267	1471996247713	1471996247847	BKSP	8
5870	63436	Derivatives are not new.	Derivatives are not new.	3020273	1471996249086	1471996249202	s	83
5870	63436	Derivatives are not new.	Derivatives are not new.	3020354	1471996249152	1471996249260	 	32
5870	63436	Derivatives are not new.	Derivatives are not new.	3020359	1471996249752	1471996249911	a	65
5870	63436	Derivatives are not new.	Derivatives are not new.	3020363	1471996250368	1471996250508	r	82
5870	63436	Derivatives are not new.	Derivatives are not new.	3020370	1471996250464	1471996250566	 	69
5870	63436	Derivatives are not new.	Derivatives are not new.	3020375	1471996250956	1471996251133	n	78
5870	63436	Derivatives are not new.	Derivatives are not new.	3020497	1471996251065	1471996251221	o	79
5870	63436	Derivatives are not new.	Derivatives are not new.	3020501	1471996251502	1471996251604	t	84
5870	63436	Derivatives are not new.	Derivatives are not new.	3020505	1471996251552	1471996251667	 	32
5870	63436	Derivatives are not new.	Derivatives are not new.	3020511	1471996253359	1471996253450	n	78
5870	63436	Derivatives are not new.	Derivatives are not new.	3020516	1471996253622	1471996253761	e	69
5870	63436	Derivatives are not new.	Derivatives are not new.	3020520	1471996253761	1471996253896	w	87
5870	63436	Derivatives are not new.	Derivatives are not new.	3020566	1471996254742	1471996254835	.	190
5870	63462	I can fill you in on more details later.	I can fill you in on more details later.	3020728	1471996257630	1471996257750	SHIFT	16
5870	63462	I can fill you in on more details later.	I can fill you in on more details later.	3020729	1471996257677	1471996257766	I	73
5870	63462	I can fill you in on more details later.	I can fill you in on more details later.	3020730	1471996257922	1471996258046	 	32
5870	63462	I can fill you in on more details later.	I can fill you in on more details later.	3020731	1471996258405	1471996258545	c	67
5870	63462	I can fill you in on more details later.	I can fill you in on more details later.	3020732	1471996258638	1471996258783	a	65
5870	63462	I can fill you in on more details later.	I can fill you in on more details later.	3020826	1471996258716	1471996258810	n	78
5870	63462	I can fill you in on more details later.	I can fill you in on more details later.	3020829	1471996259060	1471996259163	 	32
5870	63462	I can fill you in on more details later.	I can fill you in on more details later.	3020833	1471996259413	1471996259546	f	70
5870	63462	I can fill you in on more details later.	I can fill you in on more details later.	3020837	1471996259624	1471996259730	i	73
5870	63462	I can fill you in on more details later.	I can fill you in on more details later.	3020840	1471996259746	1471996259820	r	82
5870	63462	I can fill you in on more details later.	I can fill you in on more details later.	3020844	1471996260231	1471996260332	BKSP	8
5870	63462	I can fill you in on more details later.	I can fill you in on more details later.	3020846	1471996260535	1471996260616	l	76
5870	63462	I can fill you in on more details later.	I can fill you in on more details later.	3020943	1471996260691	1471996260766	l	76
5870	63462	I can fill you in on more details later.	I can fill you in on more details later.	3020946	1471996260891	1471996261029	 	32
5870	63462	I can fill you in on more details later.	I can fill you in on more details later.	3020950	1471996262159	1471996262265	y	89
5870	63462	I can fill you in on more details later.	I can fill you in on more details later.	3020955	1471996262265	1471996262365	o	79
5870	63462	I can fill you in on more details later.	I can fill you in on more details later.	3020961	1471996262380	1471996262450	u	85
5870	63462	I can fill you in on more details later.	I can fill you in on more details later.	3021098	1471996262461	1471996262597	 	32
5870	63462	I can fill you in on more details later.	I can fill you in on more details later.	3021100	1471996262909	1471996263117	i	73
5870	63462	I can fill you in on more details later.	I can fill you in on more details later.	3021105	1471996263180	1471996263301	 	32
5870	63462	I can fill you in on more details later.	I can fill you in on more details later.	3021108	1471996263251	1471996263301	n	78
5870	63462	I can fill you in on more details later.	I can fill you in on more details later.	3021112	1471996264258	1471996264381	BKSP	8
5870	63462	I can fill you in on more details later.	I can fill you in on more details later.	3021115	1471996264475	1471996264701	BKSP	8
5870	63462	I can fill you in on more details later.	I can fill you in on more details later.	3021207	1471996264645	1471996264711	n	78
5870	63462	I can fill you in on more details later.	I can fill you in on more details later.	3021210	1471996265407	1471996265530	 	32
5870	63462	I can fill you in on more details later.	I can fill you in on more details later.	3021214	1471996266033	1471996266211	o	79
5870	63462	I can fill you in on more details later.	I can fill you in on more details later.	3021216	1471996266211	1471996266331	n	78
5870	63462	I can fill you in on more details later.	I can fill you in on more details later.	3021217	1471996266440	1471996266546	 	32
5870	63462	I can fill you in on more details later.	I can fill you in on more details later.	3021219	1471996266687	1471996266890	m	77
5870	63462	I can fill you in on more details later.	I can fill you in on more details later.	3021255	1471996266890	1471996267012	o	79
5870	63462	I can fill you in on more details later.	I can fill you in on more details later.	3021260	1471996267090	1471996267235	r	82
5870	63462	I can fill you in on more details later.	I can fill you in on more details later.	3021265	1471996267196	1471996267363	e	69
5870	63462	I can fill you in on more details later.	I can fill you in on more details later.	3021269	1471996267313	1471996267444	 	32
5870	63462	I can fill you in on more details later.	I can fill you in on more details later.	3021274	1471996267726	1471996267877	d	68
5870	63462	I can fill you in on more details later.	I can fill you in on more details later.	3021332	1471996267904	1471996268062	e	69
5870	63462	I can fill you in on more details later.	I can fill you in on more details later.	3021334	1471996268140	1471996268232	t	84
5870	63462	I can fill you in on more details later.	I can fill you in on more details later.	3021337	1471996268622	1471996268761	a	65
5870	63462	I can fill you in on more details later.	I can fill you in on more details later.	3021341	1471996268824	1471996269020	l	76
5870	63462	I can fill you in on more details later.	I can fill you in on more details later.	3021495	1471996268977	1471996269096	i	73
5870	63462	I can fill you in on more details later.	I can fill you in on more details later.	3021499	1471996269508	1471996269600	BKSP	8
5870	63462	I can fill you in on more details later.	I can fill you in on more details later.	3021505	1471996269693	1471996269767	BKSP	8
5870	63462	I can fill you in on more details later.	I can fill you in on more details later.	3021512	1471996270425	1471996270514	i	73
5870	63462	I can fill you in on more details later.	I can fill you in on more details later.	3021514	1471996270749	1471996270863	l	76
5870	63462	I can fill you in on more details later.	I can fill you in on more details later.	3021520	1471996270926	1471996271065	s	83
5870	63462	I can fill you in on more details later.	I can fill you in on more details later.	3021526	1471996270984	1471996271143	 	32
5870	63462	I can fill you in on more details later.	I can fill you in on more details later.	3021532	1471996271724	1471996271831	l	76
5870	63462	I can fill you in on more details later.	I can fill you in on more details later.	3021628	1471996271831	1471996271931	a	65
5870	63462	I can fill you in on more details later.	I can fill you in on more details later.	3021634	1471996272134	1471996272262	t	84
5870	63462	I can fill you in on more details later.	I can fill you in on more details later.	3021639	1471996272371	1471996272572	e	69
5870	63462	I can fill you in on more details later.	I can fill you in on more details later.	3021644	1471996272527	1471996272630	r	82
5870	63462	I can fill you in on more details later.	I can fill you in on more details later.	3021649	1471996274104	1471996274229	.	190
5870	63487	It's all about making the whole story public.	it's all about making the whole story public.	3021930	1471996276822	1471996276946	i	73
5870	63487	It's all about making the whole story public.	it's all about making the whole story public.	3021934	1471996277321	1471996277431	t	84
5870	63487	It's all about making the whole story public.	it's all about making the whole story public.	3021940	1471996278353	1471996278446	'	222
5870	63487	It's all about making the whole story public.	it's all about making the whole story public.	3021942	1471996279231	1471996279346	s	83
5870	63487	It's all about making the whole story public.	it's all about making the whole story public.	3022014	1471996279314	1471996279428	 	32
5870	63487	It's all about making the whole story public.	it's all about making the whole story public.	3022015	1471996279569	1471996279709	a	65
5870	63487	It's all about making the whole story public.	it's all about making the whole story public.	3022016	1471996279756	1471996279802	l	76
5870	63487	It's all about making the whole story public.	it's all about making the whole story public.	3022017	1471996279938	1471996280018	l	76
5870	63487	It's all about making the whole story public.	it's all about making the whole story public.	3022018	1471996280276	1471996280322	 	32
5870	63487	It's all about making the whole story public.	it's all about making the whole story public.	3022020	1471996280786	1471996280911	a	65
5870	63487	It's all about making the whole story public.	it's all about making the whole story public.	3022080	1471996281063	1471996281163	b	66
5870	63487	It's all about making the whole story public.	it's all about making the whole story public.	3022083	1471996281506	1471996281681	o	79
5870	63487	It's all about making the whole story public.	it's all about making the whole story public.	3022087	1471996281612	1471996281744	u	85
5870	63487	It's all about making the whole story public.	it's all about making the whole story public.	3022090	1471996281881	1471996282026	t	84
5870	63487	It's all about making the whole story public.	it's all about making the whole story public.	3022223	1471996281995	1471996282096	 	32
5870	63487	It's all about making the whole story public.	it's all about making the whole story public.	3022227	1471996283335	1471996283492	m	77
5870	63487	It's all about making the whole story public.	it's all about making the whole story public.	3022232	1471996283492	1471996283633	a	65
5870	63487	It's all about making the whole story public.	it's all about making the whole story public.	3022237	1471996283580	1471996283742	k	75
5870	63487	It's all about making the whole story public.	it's all about making the whole story public.	3022241	1471996284054	1471996284264	i	73
5870	63487	It's all about making the whole story public.	it's all about making the whole story public.	3022402	1471996284194	1471996284338	n	78
5870	63487	It's all about making the whole story public.	it's all about making the whole story public.	3022406	1471996284588	1471996284700	g	71
5870	63487	It's all about making the whole story public.	it's all about making the whole story public.	3022410	1471996284643	1471996284747	 	32
5870	63487	It's all about making the whole story public.	it's all about making the whole story public.	3022418	1471996285515	1471996285612	t	84
5870	63487	It's all about making the whole story public.	it's all about making the whole story public.	3022423	1471996286397	1471996286495	h	72
5870	63487	It's all about making the whole story public.	it's all about making the whole story public.	3022428	1471996286511	1471996286626	e	69
5870	63487	It's all about making the whole story public.	it's all about making the whole story public.	3022550	1471996286581	1471996286711	 	32
5870	63487	It's all about making the whole story public.	it's all about making the whole story public.	3022554	1471996287480	1471996287614	w	87
5870	63487	It's all about making the whole story public.	it's all about making the whole story public.	3022559	1471996287533	1471996287677	h	72
5870	63487	It's all about making the whole story public.	it's all about making the whole story public.	3022562	1471996287770	1471996287911	o	79
5870	63487	It's all about making the whole story public.	it's all about making the whole story public.	3022565	1471996288250	1471996288315	l	76
5870	63487	It's all about making the whole story public.	it's all about making the whole story public.	3022567	1471996288408	1471996288514	e	69
5870	63487	It's all about making the whole story public.	it's all about making the whole story public.	3022643	1471996288464	1471996288555	 	32
5870	63487	It's all about making the whole story public.	it's all about making the whole story public.	3022648	1471996288915	1471996289029	s	83
5870	63487	It's all about making the whole story public.	it's all about making the whole story public.	3022651	1471996289170	1471996289232	t	84
5870	63487	It's all about making the whole story public.	it's all about making the whole story public.	3022653	1471996289357	1471996289432	o	79
5870	63487	It's all about making the whole story public.	it's all about making the whole story public.	3022655	1471996289510	1471996289786	r	82
5870	63487	It's all about making the whole story public.	it's all about making the whole story public.	3022809	1471996289753	1471996289882	y	89
5870	63487	It's all about making the whole story public.	it's all about making the whole story public.	3022814	1471996289788	1471996289882	t	84
5870	63487	It's all about making the whole story public.	it's all about making the whole story public.	3022819	1471996289970	1471996290082	 	32
5870	63487	It's all about making the whole story public.	it's all about making the whole story public.	3022829	1471996290658	1471996290746	BKSP	8
5870	63487	It's all about making the whole story public.	it's all about making the whole story public.	3022836	1471996290840	1471996290915	BKSP	8
5870	63487	It's all about making the whole story public.	it's all about making the whole story public.	3022838	1471996291180	1471996291328	 	32
5870	63487	It's all about making the whole story public.	it's all about making the whole story public.	3022841	1471996292126	1471996292275	p	80
5870	63487	It's all about making the whole story public.	it's all about making the whole story public.	3022845	1471996292307	1471996292396	u	85
5870	63487	It's all about making the whole story public.	it's all about making the whole story public.	3022968	1471996292891	1471996292963	b	66
5870	63487	It's all about making the whole story public.	it's all about making the whole story public.	3022972	1471996293104	1471996293228	l	76
5870	63487	It's all about making the whole story public.	it's all about making the whole story public.	3022979	1471996293354	1471996293477	i	73
5870	63487	It's all about making the whole story public.	it's all about making the whole story public.	3022986	1471996293727	1471996293828	c	67
5870	63487	It's all about making the whole story public.	it's all about making the whole story public.	3022994	1471996294333	1471996294414	.	190
5870	63513	Construction on the complex will begin this year.	Construction on the complex will begin this year.	3023273	1471996297679	1471996297831	SHIFT	16
5870	63513	Construction on the complex will begin this year.	Construction on the complex will begin this year.	3023277	1471996297757	1471996297878	C	67
5870	63513	Construction on the complex will begin this year.	Construction on the complex will begin this year.	3023282	1471996298175	1471996298386	o	79
5870	63513	Construction on the complex will begin this year.	Construction on the complex will begin this year.	3023288	1471996298341	1471996298461	n	78
5870	63513	Construction on the complex will begin this year.	Construction on the complex will begin this year.	3023293	1471996298867	1471996299010	s	83
5870	63513	Construction on the complex will begin this year.	Construction on the complex will begin this year.	3023300	1471996299228	1471996299328	t	84
5870	63513	Construction on the complex will begin this year.	Construction on the complex will begin this year.	3023372	1471996299511	1471996299674	u	85
5870	63513	Construction on the complex will begin this year.	Construction on the complex will begin this year.	3023379	1471996300099	1471996300227	c	67
5870	63513	Construction on the complex will begin this year.	Construction on the complex will begin this year.	3023385	1471996300415	1471996300511	t	84
5870	63513	Construction on the complex will begin this year.	Construction on the complex will begin this year.	3023392	1471996300590	1471996300762	i	73
5870	63513	Construction on the complex will begin this year.	Construction on the complex will begin this year.	3023518	1471996300726	1471996300860	o	79
5870	63513	Construction on the complex will begin this year.	Construction on the complex will begin this year.	3023521	1471996301188	1471996301264	n	78
5870	63513	Construction on the complex will begin this year.	Construction on the complex will begin this year.	3023524	1471996301373	1471996301480	 	32
5870	63513	Construction on the complex will begin this year.	Construction on the complex will begin this year.	3023528	1471996301886	1471996302072	o	79
5870	63513	Construction on the complex will begin this year.	Construction on the complex will begin this year.	3023534	1471996302529	1471996302628	n	78
5870	63513	Construction on the complex will begin this year.	Construction on the complex will begin this year.	3023539	1471996302738	1471996302862	 	32
5870	63513	Construction on the complex will begin this year.	Construction on the complex will begin this year.	3023884	1471996306796	1471996306927	r	82
5870	63513	Construction on the complex will begin this year.	Construction on the complex will begin this year.	3023886	1471996308935	1471996309029	t	84
5870	63513	Construction on the complex will begin this year.	Construction on the complex will begin this year.	3023891	1471996309045	1471996309144	h	72
5870	63513	Construction on the complex will begin this year.	Construction on the complex will begin this year.	3023896	1471996309269	1471996309348	 	68
5870	63513	Construction on the complex will begin this year.	Construction on the complex will begin this year.	3024179	1471996310323	1471996310397	BKSP	8
5870	63513	Construction on the complex will begin this year.	Construction on the complex will begin this year.	3024183	1471996310772	1471996310879	BKSP	8
5870	63513	Construction on the complex will begin this year.	Construction on the complex will begin this year.	3024187	1471996310957	1471996311047	BKSP	8
5870	63513	Construction on the complex will begin this year.	Construction on the complex will begin this year.	3024190	1471996311861	1471996311980	e	69
5870	63513	Construction on the complex will begin this year.	Construction on the complex will begin this year.	3024192	1471996311915	1471996312012	 	32
5870	63513	Construction on the complex will begin this year.	Construction on the complex will begin this year.	3024196	1471996312828	1471996312960	c	67
5870	63513	Construction on the complex will begin this year.	Construction on the complex will begin this year.	3024199	1471996312960	1471996313109	o	79
5870	63513	Construction on the complex will begin this year.	Construction on the complex will begin this year.	3024204	1471996313156	1471996313309	m	77
5870	63513	Construction on the complex will begin this year.	Construction on the complex will begin this year.	3024267	1471996313631	1471996313882	p	80
5870	63513	Construction on the complex will begin this year.	Construction on the complex will begin this year.	3024268	1471996313838	1471996313975	l	76
5870	63513	Construction on the complex will begin this year.	Construction on the complex will begin this year.	3024270	1471996314163	1471996314261	e	69
5870	63513	Construction on the complex will begin this year.	Construction on the complex will begin this year.	3024272	1471996314605	1471996314716	x	88
5870	63513	Construction on the complex will begin this year.	Construction on the complex will begin this year.	3024412	1471996314665	1471996314743	 	32
5870	63513	Construction on the complex will begin this year.	Construction on the complex will begin this year.	3024418	1471996315390	1471996315510	w	87
5870	63513	Construction on the complex will begin this year.	Construction on the complex will begin this year.	3024425	1471996315526	1471996315644	i	73
5870	63513	Construction on the complex will begin this year.	Construction on the complex will begin this year.	3024431	1471996315816	1471996315896	l	76
5870	63513	Construction on the complex will begin this year.	Construction on the complex will begin this year.	3024433	1471996315991	1471996316064	l	76
5870	63513	Construction on the complex will begin this year.	Construction on the complex will begin this year.	3024435	1471996316283	1471996316424	 	32
5870	63513	Construction on the complex will begin this year.	Construction on the complex will begin this year.	3024565	1471996317335	1471996317429	b	66
5870	63513	Construction on the complex will begin this year.	Construction on the complex will begin this year.	3024568	1471996317538	1471996317612	e	69
5870	63513	Construction on the complex will begin this year.	Construction on the complex will begin this year.	3024571	1471996317878	1471996318024	g	71
5870	63513	Construction on the complex will begin this year.	Construction on the complex will begin this year.	3024574	1471996318102	1471996318363	i	73
5870	63513	Construction on the complex will begin this year.	Construction on the complex will begin this year.	3024619	1471996318274	1471996318421	n	78
5870	63513	Construction on the complex will begin this year.	Construction on the complex will begin this year.	3024622	1471996318546	1471996318660	 	32
5870	63513	Construction on the complex will begin this year.	Construction on the complex will begin this year.	3024626	1471996318894	1471996319010	t	84
5870	63513	Construction on the complex will begin this year.	Construction on the complex will begin this year.	3024629	1471996319010	1471996319160	h	72
5870	63513	Construction on the complex will begin this year.	Construction on the complex will begin this year.	3024632	1471996319254	1471996319360	i	73
5870	63513	Construction on the complex will begin this year.	Construction on the complex will begin this year.	3024636	1471996319548	1471996319643	s	83
5870	63513	Construction on the complex will begin this year.	Construction on the complex will begin this year.	3024780	1471996319615	1471996319758	 	32
5870	63513	Construction on the complex will begin this year.	Construction on the complex will begin this year.	3024785	1471996320512	1471996320596	y	89
5870	63513	Construction on the complex will begin this year.	Construction on the complex will begin this year.	3024790	1471996320596	1471996320712	e	69
5870	63513	Construction on the complex will begin this year.	Construction on the complex will begin this year.	3024795	1471996320868	1471996321003	a	65
5870	63513	Construction on the complex will begin this year.	Construction on the complex will begin this year.	3024800	1471996320977	1471996321079	r	82
5870	63513	Construction on the complex will begin this year.	Construction on the complex will begin this year.	3024804	1471996322286	1471996322410	.	190
5870	63552	We obviously have a lot to talk about.	we obviously have  a lot to talk about.	3025056	1471996324904	1471996324998	SHIFT	16
5870	63552	We obviously have a lot to talk about.	we obviously have  a lot to talk about.	3025059	1471996325029	1471996325202	w	87
5870	63552	We obviously have a lot to talk about.	we obviously have  a lot to talk about.	3025065	1471996325159	1471996325281	e	69
5870	63552	We obviously have a lot to talk about.	we obviously have  a lot to talk about.	3025070	1471996325229	1471996325359	 	32
5870	63552	We obviously have a lot to talk about.	we obviously have  a lot to talk about.	3025072	1471996326034	1471996326097	o	79
5870	63552	We obviously have a lot to talk about.	we obviously have  a lot to talk about.	3025078	1471996326379	1471996326477	b	66
5870	63552	We obviously have a lot to talk about.	we obviously have  a lot to talk about.	3025226	1471996327701	1471996327826	v	86
5870	63552	We obviously have a lot to talk about.	we obviously have  a lot to talk about.	3025231	1471996327889	1471996328040	i	73
5870	63552	We obviously have a lot to talk about.	we obviously have  a lot to talk about.	3025238	1471996328071	1471996328225	o	79
5870	63552	We obviously have a lot to talk about.	we obviously have  a lot to talk about.	3025245	1471996328773	1471996328863	u	85
5870	63552	We obviously have a lot to talk about.	we obviously have  a lot to talk about.	3025253	1471996329082	1471996329209	s	83
5870	63552	We obviously have a lot to talk about.	we obviously have  a lot to talk about.	3025414	1471996329454	1471996329545	l	76
5870	63552	We obviously have a lot to talk about.	we obviously have  a lot to talk about.	3025417	1471996329764	1471996329923	y	89
5870	63552	We obviously have a lot to talk about.	we obviously have  a lot to talk about.	3025420	1471996329907	1471996329979	 	32
5870	63552	We obviously have a lot to talk about.	we obviously have  a lot to talk about.	3025424	1471996331018	1471996331111	h	72
5870	63552	We obviously have a lot to talk about.	we obviously have  a lot to talk about.	3025428	1471996331629	1471996331759	a	65
5870	63552	We obviously have a lot to talk about.	we obviously have  a lot to talk about.	3025464	1471996331786	1471996331878	v	86
5870	63552	We obviously have a lot to talk about.	we obviously have  a lot to talk about.	3025467	1471996332128	1471996332247	e	69
5870	63552	We obviously have a lot to talk about.	we obviously have  a lot to talk about.	3025472	1471996332181	1471996332279	 	32
5870	63552	We obviously have a lot to talk about.	we obviously have  a lot to talk about.	3025478	1471996332435	1471996332559	 	32
5870	63552	We obviously have a lot to talk about.	we obviously have  a lot to talk about.	3025485	1471996332559	1471996332661	a	65
5870	63552	We obviously have a lot to talk about.	we obviously have  a lot to talk about.	3025584	1471996332796	1471996332896	 	32
5870	63552	We obviously have a lot to talk about.	we obviously have  a lot to talk about.	3025591	1471996333898	1471996334047	l	76
5870	63552	We obviously have a lot to talk about.	we obviously have  a lot to talk about.	3025603	1471996333993	1471996334140	o	79
5870	63552	We obviously have a lot to talk about.	we obviously have  a lot to talk about.	3025612	1471996334507	1471996334631	t	84
5870	63552	We obviously have a lot to talk about.	we obviously have  a lot to talk about.	3025704	1471996334564	1471996334675	 	32
5870	63552	We obviously have a lot to talk about.	we obviously have  a lot to talk about.	3025711	1471996334785	1471996334915	t	84
5870	63552	We obviously have a lot to talk about.	we obviously have  a lot to talk about.	3025716	1471996334915	1471996335035	o	79
5870	63552	We obviously have a lot to talk about.	we obviously have  a lot to talk about.	3025722	1471996335137	1471996335275	 	32
5870	63552	We obviously have a lot to talk about.	we obviously have  a lot to talk about.	3025729	1471996335731	1471996335812	t	84
5870	63552	We obviously have a lot to talk about.	we obviously have  a lot to talk about.	3025734	1471996336234	1471996336381	a	65
5870	63552	We obviously have a lot to talk about.	we obviously have  a lot to talk about.	3025907	1471996336328	1471996336514	l	76
5870	63552	We obviously have a lot to talk about.	we obviously have  a lot to talk about.	3025911	1471996336454	1471996336514	k	74
5870	63552	We obviously have a lot to talk about.	we obviously have  a lot to talk about.	3025915	1471996337570	1471996337646	BKSP	8
5870	63552	We obviously have a lot to talk about.	we obviously have  a lot to talk about.	3025920	1471996337724	1471996337828	BKSP	8
5870	63552	We obviously have a lot to talk about.	we obviously have  a lot to talk about.	3025929	1471996338408	1471996338479	k	75
5870	63552	We obviously have a lot to talk about.	we obviously have  a lot to talk about.	3025935	1471996338589	1471996338709	 	32
5870	63552	We obviously have a lot to talk about.	we obviously have  a lot to talk about.	3025942	1471996338865	1471996338992	a	65
5870	63552	We obviously have a lot to talk about.	we obviously have  a lot to talk about.	3026025	1471996339208	1471996339310	b	66
5870	63552	We obviously have a lot to talk about.	we obviously have  a lot to talk about.	3026027	1471996339467	1471996339618	o	79
5870	63552	We obviously have a lot to talk about.	we obviously have  a lot to talk about.	3026032	1471996339577	1471996339710	u	85
5870	63552	We obviously have a lot to talk about.	we obviously have  a lot to talk about.	3026036	1471996339850	1471996339959	t	84
5870	63552	We obviously have a lot to talk about.	we obviously have  a lot to talk about.	3026039	1471996340478	1471996340578	.	190
