PARTICIPANT_ID	TEST_SECTION_ID	SENTENCE	USER_INPUT	KEYSTROKE_ID	PRESS_TIME	RELEASE_TIME	LETTER	KEYCODE
5898	63479	If so he probably will have to pay back.	If so he probably will have to pay back. 	3021503	1471996262896	1471996263165	SHIFT	16
5898	63479	If so he probably will have to pay back.	If so he probably will have to pay back. 	3021509	1471996263095	1471996263179	I	73
5898	63479	If so he probably will have to pay back.	If so he probably will have to pay back. 	3021517	1471996263294	1471996263389	f	70
5898	63479	If so he probably will have to pay back.	If so he probably will have to pay back. 	3021523	1471996263334	1471996263435	 	32
5898	63479	If so he probably will have to pay back.	If so he probably will have to pay back. 	3021529	1471996264027	1471996264142	s	83
5898	63479	If so he probably will have to pay back.	If so he probably will have to pay back. 	3021580	1471996264122	1471996264216	o	79
5898	63479	If so he probably will have to pay back.	If so he probably will have to pay back. 	3021582	1471996264161	1471996264282	 	32
5898	63479	If so he probably will have to pay back.	If so he probably will have to pay back. 	3021585	1471996264458	1471996264543	h	72
5898	63479	If so he probably will have to pay back.	If so he probably will have to pay back. 	3021587	1471996264598	1471996264633	e	69
5898	63479	If so he probably will have to pay back.	If so he probably will have to pay back. 	3021588	1471996264668	1471996264764	 	32
5898	63479	If so he probably will have to pay back.	If so he probably will have to pay back. 	3021589	1471996265219	1471996265300	p	80
5898	63479	If so he probably will have to pay back.	If so he probably will have to pay back. 	3021626	1471996265329	1471996265405	r	82
5898	63479	If so he probably will have to pay back.	If so he probably will have to pay back. 	3021629	1471996265425	1471996265500	o	79
5898	63479	If so he probably will have to pay back.	If so he probably will have to pay back. 	3021635	1471996265681	1471996265776	b	66
5898	63479	If so he probably will have to pay back.	If so he probably will have to pay back. 	3021640	1471996265906	1471996266027	a	65
5898	63479	If so he probably will have to pay back.	If so he probably will have to pay back. 	3021645	1471996266326	1471996266423	b	66
5898	63479	If so he probably will have to pay back.	If so he probably will have to pay back. 	3021677	1471996266543	1471996266643	l	76
5898	63479	If so he probably will have to pay back.	If so he probably will have to pay back. 	3021680	1471996266803	1471996266904	y	89
5898	63479	If so he probably will have to pay back.	If so he probably will have to pay back. 	3021683	1471996267004	1471996267104	 	32
5898	63479	If so he probably will have to pay back.	If so he probably will have to pay back. 	3021685	1471996267169	1471996267254	w	87
5898	63479	If so he probably will have to pay back.	If so he probably will have to pay back. 	3021707	1471996267245	1471996267324	i	73
5898	63479	If so he probably will have to pay back.	If so he probably will have to pay back. 	3021714	1471996267445	1471996267495	l	76
5898	63479	If so he probably will have to pay back.	If so he probably will have to pay back. 	3021720	1471996267575	1471996267646	l	76
5898	63479	If so he probably will have to pay back.	If so he probably will have to pay back. 	3021724	1471996267605	1471996267690	 	32
5898	63479	If so he probably will have to pay back.	If so he probably will have to pay back. 	3021731	1471996267780	1471996267841	h	72
5898	63479	If so he probably will have to pay back.	If so he probably will have to pay back. 	3021738	1471996267855	1471996267936	a	65
5898	63479	If so he probably will have to pay back.	If so he probably will have to pay back. 	3021753	1471996267981	1471996268042	v	86
5898	63479	If so he probably will have to pay back.	If so he probably will have to pay back. 	3021757	1471996268066	1471996268147	e	69
5898	63479	If so he probably will have to pay back.	If so he probably will have to pay back. 	3021763	1471996268182	1471996268270	 	32
5898	63479	If so he probably will have to pay back.	If so he probably will have to pay back. 	3021767	1471996268331	1471996268416	t	84
5898	63479	If so he probably will have to pay back.	If so he probably will have to pay back. 	3021789	1471996268401	1471996268512	o	79
5898	63479	If so he probably will have to pay back.	If so he probably will have to pay back. 	3021793	1471996268472	1471996268557	 	32
5898	63479	If so he probably will have to pay back.	If so he probably will have to pay back. 	3021797	1471996268673	1471996268747	p	80
5898	63479	If so he probably will have to pay back.	If so he probably will have to pay back. 	3021801	1471996268752	1471996268837	a	65
5898	63479	If so he probably will have to pay back.	If so he probably will have to pay back. 	3021803	1471996268929	1471996269004	y	89
5898	63479	If so he probably will have to pay back.	If so he probably will have to pay back. 	3021808	1471996269054	1471996269148	 	32
5898	63479	If so he probably will have to pay back.	If so he probably will have to pay back. 	3021836	1471996269274	1471996269349	b	66
5898	63479	If so he probably will have to pay back.	If so he probably will have to pay back. 	3021841	1471996269360	1471996269429	a	65
5898	63479	If so he probably will have to pay back.	If so he probably will have to pay back. 	3021846	1471996269540	1471996269624	c	67
5898	63479	If so he probably will have to pay back.	If so he probably will have to pay back. 	3021850	1471996269620	1471996269690	k	75
5898	63479	If so he probably will have to pay back.	If so he probably will have to pay back. 	3021853	1471996269816	1471996269911	.	190
5898	63479	If so he probably will have to pay back.	If so he probably will have to pay back. 	3021898	1471996269890	1471996269970	 	32
5898	63497	Rookie Kevin Swayne will move into the starting lineup.	Rookie Kevin Swayne will move into the starting lineup.	3022126	1471996273835	1471996274335	SHIFT	16
5898	63497	Rookie Kevin Swayne will move into the starting lineup.	Rookie Kevin Swayne will move into the starting lineup.	3022121	1471996274240	1471996274301	R	82
5898	63497	Rookie Kevin Swayne will move into the starting lineup.	Rookie Kevin Swayne will move into the starting lineup.	3022130	1471996274591	1471996274641	o	79
5898	63497	Rookie Kevin Swayne will move into the starting lineup.	Rookie Kevin Swayne will move into the starting lineup.	3022131	1471996274731	1471996274852	o	79
5898	63497	Rookie Kevin Swayne will move into the starting lineup.	Rookie Kevin Swayne will move into the starting lineup.	3022204	1471996274823	1471996274888	k	76
5898	63497	Rookie Kevin Swayne will move into the starting lineup.	Rookie Kevin Swayne will move into the starting lineup.	3022210	1471996275514	1471996275569	BKSP	8
5898	63497	Rookie Kevin Swayne will move into the starting lineup.	Rookie Kevin Swayne will move into the starting lineup.	3022214	1471996275639	1471996275715	BKSP	8
5898	63497	Rookie Kevin Swayne will move into the starting lineup.	Rookie Kevin Swayne will move into the starting lineup.	3022221	1471996275850	1471996275920	k	75
5898	63497	Rookie Kevin Swayne will move into the starting lineup.	Rookie Kevin Swayne will move into the starting lineup.	3022226	1471996276034	1471996276100	i	73
5898	63497	Rookie Kevin Swayne will move into the starting lineup.	Rookie Kevin Swayne will move into the starting lineup.	3022234	1471996276131	1471996276216	e	69
5898	63497	Rookie Kevin Swayne will move into the starting lineup.	Rookie Kevin Swayne will move into the starting lineup.	3022239	1471996276180	1471996276296	r	82
5898	63497	Rookie Kevin Swayne will move into the starting lineup.	Rookie Kevin Swayne will move into the starting lineup.	3022355	1471996276271	1471996276360	 	32
5898	63497	Rookie Kevin Swayne will move into the starting lineup.	Rookie Kevin Swayne will move into the starting lineup.	3022359	1471996276540	1471996276676	SHIFT	16
5898	63497	Rookie Kevin Swayne will move into the starting lineup.	Rookie Kevin Swayne will move into the starting lineup.	3022368	1471996276601	1471996276681	K	75
5898	63497	Rookie Kevin Swayne will move into the starting lineup.	Rookie Kevin Swayne will move into the starting lineup.	3022371	1471996276772	1471996276852	e	69
5898	63497	Rookie Kevin Swayne will move into the starting lineup.	Rookie Kevin Swayne will move into the starting lineup.	3022376	1471996277112	1471996277162	BKSP	8
5898	63497	Rookie Kevin Swayne will move into the starting lineup.	Rookie Kevin Swayne will move into the starting lineup.	3022378	1471996277228	1471996277288	BKSP	8
5898	63497	Rookie Kevin Swayne will move into the starting lineup.	Rookie Kevin Swayne will move into the starting lineup.	3022383	1471996277364	1471996277424	BKSP	8
5898	63497	Rookie Kevin Swayne will move into the starting lineup.	Rookie Kevin Swayne will move into the starting lineup.	3022387	1471996277499	1471996277558	BKSP	8
5898	63497	Rookie Kevin Swayne will move into the starting lineup.	Rookie Kevin Swayne will move into the starting lineup.	3022390	1471996277825	1471996277879	 	32
5898	63497	Rookie Kevin Swayne will move into the starting lineup.	Rookie Kevin Swayne will move into the starting lineup.	3022394	1471996277849	1471996278030	SHIFT	16
5898	63497	Rookie Kevin Swayne will move into the starting lineup.	Rookie Kevin Swayne will move into the starting lineup.	3022396	1471996277985	1471996278069	K	75
5898	63497	Rookie Kevin Swayne will move into the starting lineup.	Rookie Kevin Swayne will move into the starting lineup.	3022401	1471996278125	1471996278206	e	69
5898	63497	Rookie Kevin Swayne will move into the starting lineup.	Rookie Kevin Swayne will move into the starting lineup.	3022417	1471996278251	1471996278321	v	86
5898	63497	Rookie Kevin Swayne will move into the starting lineup.	Rookie Kevin Swayne will move into the starting lineup.	3022422	1471996278450	1471996278521	i	73
5898	63497	Rookie Kevin Swayne will move into the starting lineup.	Rookie Kevin Swayne will move into the starting lineup.	3022427	1471996278627	1471996278746	n	78
5898	63497	Rookie Kevin Swayne will move into the starting lineup.	Rookie Kevin Swayne will move into the starting lineup.	3022435	1471996278707	1471996278802	 	32
5898	63497	Rookie Kevin Swayne will move into the starting lineup.	Rookie Kevin Swayne will move into the starting lineup.	3022442	1471996278807	1471996278997	SHIFT	16
5898	63497	Rookie Kevin Swayne will move into the starting lineup.	Rookie Kevin Swayne will move into the starting lineup.	3022489	1471996278941	1471996279057	S	83
5898	63497	Rookie Kevin Swayne will move into the starting lineup.	Rookie Kevin Swayne will move into the starting lineup.	3022494	1471996279142	1471996279242	w	87
5898	63497	Rookie Kevin Swayne will move into the starting lineup.	Rookie Kevin Swayne will move into the starting lineup.	3022499	1471996279378	1471996279478	a	65
5898	63497	Rookie Kevin Swayne will move into the starting lineup.	Rookie Kevin Swayne will move into the starting lineup.	3022504	1471996279498	1471996279578	y	89
5898	63497	Rookie Kevin Swayne will move into the starting lineup.	Rookie Kevin Swayne will move into the starting lineup.	3022508	1471996279759	1471996279835	n	78
5898	63497	Rookie Kevin Swayne will move into the starting lineup.	Rookie Kevin Swayne will move into the starting lineup.	3022514	1471996279860	1471996279968	e	69
5898	63497	Rookie Kevin Swayne will move into the starting lineup.	Rookie Kevin Swayne will move into the starting lineup.	3022536	1471996280030	1471996280115	 	32
5898	63497	Rookie Kevin Swayne will move into the starting lineup.	Rookie Kevin Swayne will move into the starting lineup.	3022541	1471996280135	1471996280215	w	87
5898	63497	Rookie Kevin Swayne will move into the starting lineup.	Rookie Kevin Swayne will move into the starting lineup.	3022547	1471996280219	1471996280286	i	73
5898	63497	Rookie Kevin Swayne will move into the starting lineup.	Rookie Kevin Swayne will move into the starting lineup.	3022552	1471996280396	1471996280450	l	76
5898	63497	Rookie Kevin Swayne will move into the starting lineup.	Rookie Kevin Swayne will move into the starting lineup.	3022557	1471996280510	1471996280600	l	76
5898	63497	Rookie Kevin Swayne will move into the starting lineup.	Rookie Kevin Swayne will move into the starting lineup.	3022644	1471996280551	1471996280640	 	32
5898	63497	Rookie Kevin Swayne will move into the starting lineup.	Rookie Kevin Swayne will move into the starting lineup.	3022647	1471996280732	1471996280811	m	77
5898	63497	Rookie Kevin Swayne will move into the starting lineup.	Rookie Kevin Swayne will move into the starting lineup.	3022652	1471996280897	1471996280967	o	79
5898	63497	Rookie Kevin Swayne will move into the starting lineup.	Rookie Kevin Swayne will move into the starting lineup.	3022654	1471996281056	1471996281138	c	67
5898	63497	Rookie Kevin Swayne will move into the starting lineup.	Rookie Kevin Swayne will move into the starting lineup.	3022656	1471996281649	1471996281713	BKSP	8
5898	63497	Rookie Kevin Swayne will move into the starting lineup.	Rookie Kevin Swayne will move into the starting lineup.	3022660	1471996281723	1471996281818	v	86
5898	63497	Rookie Kevin Swayne will move into the starting lineup.	Rookie Kevin Swayne will move into the starting lineup.	3022663	1471996281894	1471996282014	e	69
5898	63497	Rookie Kevin Swayne will move into the starting lineup.	Rookie Kevin Swayne will move into the starting lineup.	3022681	1471996282024	1471996282114	 	32
5898	63497	Rookie Kevin Swayne will move into the starting lineup.	Rookie Kevin Swayne will move into the starting lineup.	3022682	1471996282254	1471996282336	i	73
5898	63497	Rookie Kevin Swayne will move into the starting lineup.	Rookie Kevin Swayne will move into the starting lineup.	3022683	1471996282431	1471996282500	n	78
5898	63497	Rookie Kevin Swayne will move into the starting lineup.	Rookie Kevin Swayne will move into the starting lineup.	3022684	1471996282580	1471996282660	t	84
5898	63497	Rookie Kevin Swayne will move into the starting lineup.	Rookie Kevin Swayne will move into the starting lineup.	3022699	1471996282650	1471996282761	o	79
5898	63497	Rookie Kevin Swayne will move into the starting lineup.	Rookie Kevin Swayne will move into the starting lineup.	3022701	1471996282721	1471996282816	 	32
5898	63497	Rookie Kevin Swayne will move into the starting lineup.	Rookie Kevin Swayne will move into the starting lineup.	3022705	1471996282861	1471996282946	t	84
5898	63497	Rookie Kevin Swayne will move into the starting lineup.	Rookie Kevin Swayne will move into the starting lineup.	3022710	1471996282922	1471996282986	h	72
5898	63497	Rookie Kevin Swayne will move into the starting lineup.	Rookie Kevin Swayne will move into the starting lineup.	3022713	1471996283027	1471996283122	e	69
5898	63497	Rookie Kevin Swayne will move into the starting lineup.	Rookie Kevin Swayne will move into the starting lineup.	3022763	1471996283076	1471996283177	 	32
5898	63497	Rookie Kevin Swayne will move into the starting lineup.	Rookie Kevin Swayne will move into the starting lineup.	3022768	1471996283233	1471996283317	s	83
5898	63497	Rookie Kevin Swayne will move into the starting lineup.	Rookie Kevin Swayne will move into the starting lineup.	3022771	1471996283412	1471996283496	t	84
5898	63497	Rookie Kevin Swayne will move into the starting lineup.	Rookie Kevin Swayne will move into the starting lineup.	3022776	1471996283639	1471996283728	a	65
5898	63497	Rookie Kevin Swayne will move into the starting lineup.	Rookie Kevin Swayne will move into the starting lineup.	3022782	1471996283828	1471996283904	r	82
5898	63497	Rookie Kevin Swayne will move into the starting lineup.	Rookie Kevin Swayne will move into the starting lineup.	3022787	1471996283999	1471996284080	t	84
5898	63497	Rookie Kevin Swayne will move into the starting lineup.	Rookie Kevin Swayne will move into the starting lineup.	3022807	1471996284084	1471996284155	i	73
5898	63497	Rookie Kevin Swayne will move into the starting lineup.	Rookie Kevin Swayne will move into the starting lineup.	3022810	1471996284174	1471996284245	n	78
5898	63497	Rookie Kevin Swayne will move into the starting lineup.	Rookie Kevin Swayne will move into the starting lineup.	3022813	1471996284254	1471996284344	g	71
5898	63497	Rookie Kevin Swayne will move into the starting lineup.	Rookie Kevin Swayne will move into the starting lineup.	3022816	1471996284335	1471996284429	 	32
5898	63497	Rookie Kevin Swayne will move into the starting lineup.	Rookie Kevin Swayne will move into the starting lineup.	3022824	1471996284490	1471996284605	l	76
5898	63497	Rookie Kevin Swayne will move into the starting lineup.	Rookie Kevin Swayne will move into the starting lineup.	3022886	1471996284570	1471996284640	i	73
5898	63497	Rookie Kevin Swayne will move into the starting lineup.	Rookie Kevin Swayne will move into the starting lineup.	3022891	1471996284761	1471996284820	n	78
5898	63497	Rookie Kevin Swayne will move into the starting lineup.	Rookie Kevin Swayne will move into the starting lineup.	3022895	1471996284850	1471996284927	e	69
5898	63497	Rookie Kevin Swayne will move into the starting lineup.	Rookie Kevin Swayne will move into the starting lineup.	3022899	1471996285126	1471996285191	u	85
5898	63497	Rookie Kevin Swayne will move into the starting lineup.	Rookie Kevin Swayne will move into the starting lineup.	3022902	1471996285287	1471996285368	p	80
5898	63497	Rookie Kevin Swayne will move into the starting lineup.	Rookie Kevin Swayne will move into the starting lineup.	3023125	1471996285517	1471996285582	/	191
5898	63497	Rookie Kevin Swayne will move into the starting lineup.	Rookie Kevin Swayne will move into the starting lineup.	3022904	1471996285542	1471996285567	.	190
5898	63497	Rookie Kevin Swayne will move into the starting lineup.	Rookie Kevin Swayne will move into the starting lineup.	3023127	1471996285568	1471996285632	 	32
5898	63497	Rookie Kevin Swayne will move into the starting lineup.	Rookie Kevin Swayne will move into the starting lineup.	3023131	1471996286155	1471996286209	BKSP	8
5898	63497	Rookie Kevin Swayne will move into the starting lineup.	Rookie Kevin Swayne will move into the starting lineup.	3023133	1471996286275	1471996286324	BKSP	8
5898	63497	Rookie Kevin Swayne will move into the starting lineup.	Rookie Kevin Swayne will move into the starting lineup.	3023135	1471996286394	1471996286464	BKSP	8
5898	63497	Rookie Kevin Swayne will move into the starting lineup.	Rookie Kevin Swayne will move into the starting lineup.	3023137	1471996286576	1471996286631	.	191
5898	63497	Rookie Kevin Swayne will move into the starting lineup.	Rookie Kevin Swayne will move into the starting lineup.	3023141	1471996286861	1471996286931	BKSP	8
5898	63497	Rookie Kevin Swayne will move into the starting lineup.	Rookie Kevin Swayne will move into the starting lineup.	3023145	1471996287106	1471996287186	BKSP	8
5898	63497	Rookie Kevin Swayne will move into the starting lineup.	Rookie Kevin Swayne will move into the starting lineup.	3023150	1471996287337	1471996287408	.	190
5898	63516	I will likely not be available.	I will likely not be available. 	3023280	1471996290715	1471996291196	SHIFT	16
5898	63516	I will likely not be available.	I will likely not be available. 	3023284	1471996291151	1471996291251	I	73
5898	63516	I will likely not be available.	I will likely not be available. 	3023292	1471996291206	1471996291292	 	32
5898	63516	I will likely not be available.	I will likely not be available. 	3023298	1471996291341	1471996291426	w	87
5898	63516	I will likely not be available.	I will likely not be available. 	3023305	1471996291396	1471996291466	i	73
5898	63516	I will likely not be available.	I will likely not be available. 	3023310	1471996291582	1471996291627	l	76
5898	63516	I will likely not be available.	I will likely not be available. 	3023327	1471996291713	1471996291813	l	76
5898	63516	I will likely not be available.	I will likely not be available. 	3023330	1471996291783	1471996291893	 	32
5898	63516	I will likely not be available.	I will likely not be available. 	3023335	1471996291978	1471996292095	l	76
5898	63516	I will likely not be available.	I will likely not be available. 	3023339	1471996292084	1471996292179	i	73
5898	63516	I will likely not be available.	I will likely not be available. 	3023347	1471996292254	1471996292345	k	75
5898	63516	I will likely not be available.	I will likely not be available. 	3023396	1471996292360	1471996292446	e	69
5898	63516	I will likely not be available.	I will likely not be available. 	3023398	1471996292455	1471996292536	l	76
5898	63516	I will likely not be available.	I will likely not be available. 	3023401	1471996292801	1471996292936	y	89
5898	63516	I will likely not be available.	I will likely not be available. 	3023404	1471996292957	1471996293032	 	32
5898	63516	I will likely not be available.	I will likely not be available. 	3023406	1471996293141	1471996293212	n	78
5898	63516	I will likely not be available.	I will likely not be available. 	3023469	1471996293307	1471996293382	o	79
5898	63516	I will likely not be available.	I will likely not be available. 	3023476	1471996293472	1471996293582	t	84
5898	63516	I will likely not be available.	I will likely not be available. 	3023482	1471996293618	1471996293699	 	32
5898	63516	I will likely not be available.	I will likely not be available. 	3023488	1471996293839	1471996293919	b	66
5898	63516	I will likely not be available.	I will likely not be available. 	3023492	1471996293984	1471996294089	e	69
5898	63516	I will likely not be available.	I will likely not be available. 	3023532	1471996294059	1471996294139	 	32
5898	63516	I will likely not be available.	I will likely not be available. 	3023536	1471996294215	1471996294334	a	65
5898	63516	I will likely not be available.	I will likely not be available. 	3023541	1471996294776	1471996294855	v	86
5898	63516	I will likely not be available.	I will likely not be available. 	3023546	1471996294900	1471996295002	a	65
5898	63516	I will likely not be available.	I will likely not be available. 	3023549	1471996295022	1471996295067	i	73
5898	63516	I will likely not be available.	I will likely not be available. 	3023554	1471996295192	1471996295281	l	76
5898	63516	I will likely not be available.	I will likely not be available. 	3023570	1471996295347	1471996295463	a	65
5898	63516	I will likely not be available.	I will likely not be available. 	3023573	1471996295463	1471996295522	b	66
5898	63516	I will likely not be available.	I will likely not be available. 	3023578	1471996295627	1471996295708	l	76
5898	63516	I will likely not be available.	I will likely not be available. 	3023582	1471996295752	1471996295819	e	69
5898	63516	I will likely not be available.	I will likely not be available. 	3023586	1471996295853	1471996295949	.	190
5898	63516	I will likely not be available.	I will likely not be available. 	3023635	1471996295933	1471996296014	 	32
5898	63527	Evaluating a lease offer on Sonoran project.	Evaluating a lease offer on Sonoran project.	3023817	1471996299377	1471996299728	SHIFT	16
5898	63527	Evaluating a lease offer on Sonoran project.	Evaluating a lease offer on Sonoran project.	3023819	1471996299673	1471996299788	E	69
5898	63527	Evaluating a lease offer on Sonoran project.	Evaluating a lease offer on Sonoran project.	3023822	1471996299833	1471996299898	v	86
5898	63527	Evaluating a lease offer on Sonoran project.	Evaluating a lease offer on Sonoran project.	3023825	1471996299957	1471996300034	a	65
5898	63527	Evaluating a lease offer on Sonoran project.	Evaluating a lease offer on Sonoran project.	3023828	1471996300053	1471996300149	l	76
5898	63527	Evaluating a lease offer on Sonoran project.	Evaluating a lease offer on Sonoran project.	3023831	1471996300244	1471996300303	u	85
5898	63527	Evaluating a lease offer on Sonoran project.	Evaluating a lease offer on Sonoran project.	3023858	1471996300394	1471996300490	a	65
5898	63527	Evaluating a lease offer on Sonoran project.	Evaluating a lease offer on Sonoran project.	3023863	1471996300645	1471996300729	t	84
5898	63527	Evaluating a lease offer on Sonoran project.	Evaluating a lease offer on Sonoran project.	3023867	1471996300749	1471996300815	i	73
5898	63527	Evaluating a lease offer on Sonoran project.	Evaluating a lease offer on Sonoran project.	3023869	1471996300921	1471996300961	o	79
5898	63527	Evaluating a lease offer on Sonoran project.	Evaluating a lease offer on Sonoran project.	3023872	1471996301061	1471996301155	n	78
5898	63527	Evaluating a lease offer on Sonoran project.	Evaluating a lease offer on Sonoran project.	3023939	1471996301497	1471996301552	BKSP	8
5898	63527	Evaluating a lease offer on Sonoran project.	Evaluating a lease offer on Sonoran project.	3023941	1471996301612	1471996301657	BKSP	8
5898	63527	Evaluating a lease offer on Sonoran project.	Evaluating a lease offer on Sonoran project.	3023946	1471996301813	1471996301863	n	78
5898	63527	Evaluating a lease offer on Sonoran project.	Evaluating a lease offer on Sonoran project.	3023950	1471996301877	1471996301963	g	71
5898	63527	Evaluating a lease offer on Sonoran project.	Evaluating a lease offer on Sonoran project.	3023952	1471996301997	1471996302073	 	32
5898	63527	Evaluating a lease offer on Sonoran project.	Evaluating a lease offer on Sonoran project.	3023957	1471996302188	1471996302288	a	65
5898	63527	Evaluating a lease offer on Sonoran project.	Evaluating a lease offer on Sonoran project.	3024030	1471996302279	1471996302359	 	32
5898	63527	Evaluating a lease offer on Sonoran project.	Evaluating a lease offer on Sonoran project.	3024034	1471996302443	1471996302595	SHIFT	16
5898	63527	Evaluating a lease offer on Sonoran project.	Evaluating a lease offer on Sonoran project.	3024037	1471996302555	1471996302609	L	186
5898	63527	Evaluating a lease offer on Sonoran project.	Evaluating a lease offer on Sonoran project.	3024039	1471996302956	1471996303005	BKSP	8
5898	63527	Evaluating a lease offer on Sonoran project.	Evaluating a lease offer on Sonoran project.	3024040	1471996303065	1471996303146	BKSP	8
5898	63527	Evaluating a lease offer on Sonoran project.	Evaluating a lease offer on Sonoran project.	3024044	1471996303296	1471996303386	;	76
5898	63527	Evaluating a lease offer on Sonoran project.	Evaluating a lease offer on Sonoran project.	3024048	1471996303396	1471996303472	e	69
5898	63527	Evaluating a lease offer on Sonoran project.	Evaluating a lease offer on Sonoran project.	3024088	1471996303562	1471996303672	a	65
5898	63527	Evaluating a lease offer on Sonoran project.	Evaluating a lease offer on Sonoran project.	3024092	1471996303803	1471996303867	BKSP	8
5898	63527	Evaluating a lease offer on Sonoran project.	Evaluating a lease offer on Sonoran project.	3024099	1471996303943	1471996303992	BKSP	8
5898	63527	Evaluating a lease offer on Sonoran project.	Evaluating a lease offer on Sonoran project.	3024102	1471996304057	1471996304142	BKSP	8
5898	63527	Evaluating a lease offer on Sonoran project.	Evaluating a lease offer on Sonoran project.	3024109	1471996304132	1471996304208	e	69
5898	63527	Evaluating a lease offer on Sonoran project.	Evaluating a lease offer on Sonoran project.	3024115	1471996304273	1471996304378	a	65
5898	63527	Evaluating a lease offer on Sonoran project.	Evaluating a lease offer on Sonoran project.	3024123	1471996304334	1471996304438	s	83
5898	63527	Evaluating a lease offer on Sonoran project.	Evaluating a lease offer on Sonoran project.	3024130	1471996304523	1471996304614	e	69
5898	63527	Evaluating a lease offer on Sonoran project.	Evaluating a lease offer on Sonoran project.	3024163	1471996304616	1471996304700	 	32
5898	63527	Evaluating a lease offer on Sonoran project.	Evaluating a lease offer on Sonoran project.	3024167	1471996304794	1471996304895	o	79
5898	63527	Evaluating a lease offer on Sonoran project.	Evaluating a lease offer on Sonoran project.	3024172	1471996304924	1471996305000	f	70
5898	63527	Evaluating a lease offer on Sonoran project.	Evaluating a lease offer on Sonoran project.	3024175	1471996305080	1471996305165	f	70
5898	63527	Evaluating a lease offer on Sonoran project.	Evaluating a lease offer on Sonoran project.	3024180	1471996305241	1471996305336	e	69
5898	63527	Evaluating a lease offer on Sonoran project.	Evaluating a lease offer on Sonoran project.	3024239	1471996305301	1471996305391	r	82
5898	63527	Evaluating a lease offer on Sonoran project.	Evaluating a lease offer on Sonoran project.	3024241	1471996305401	1471996305482	 	32
5898	63527	Evaluating a lease offer on Sonoran project.	Evaluating a lease offer on Sonoran project.	3024244	1471996305957	1471996306052	o	79
5898	63527	Evaluating a lease offer on Sonoran project.	Evaluating a lease offer on Sonoran project.	3024247	1471996306162	1471996306298	n	78
5898	63527	Evaluating a lease offer on Sonoran project.	Evaluating a lease offer on Sonoran project.	3024251	1471996306227	1471996306343	 	32
5898	63527	Evaluating a lease offer on Sonoran project.	Evaluating a lease offer on Sonoran project.	3024257	1471996306483	1471996306543	s	65
5898	63527	Evaluating a lease offer on Sonoran project.	Evaluating a lease offer on Sonoran project.	3024333	1471996306557	1471996306649	o	79
5898	63527	Evaluating a lease offer on Sonoran project.	Evaluating a lease offer on Sonoran project.	3024335	1471996306930	1471996306975	BKSP	8
5898	63527	Evaluating a lease offer on Sonoran project.	Evaluating a lease offer on Sonoran project.	3024339	1471996307055	1471996307114	BKSP	8
5898	63527	Evaluating a lease offer on Sonoran project.	Evaluating a lease offer on Sonoran project.	3024356	1471996307094	1471996307365	SHIFT	16
5898	63527	Evaluating a lease offer on Sonoran project.	Evaluating a lease offer on Sonoran project.	3024348	1471996307205	1471996307275	BKSP	8
5898	63527	Evaluating a lease offer on Sonoran project.	Evaluating a lease offer on Sonoran project.	3024364	1471996307305	1471996307415	S	83
5898	63527	Evaluating a lease offer on Sonoran project.	Evaluating a lease offer on Sonoran project.	3024371	1471996307440	1471996307516	o	79
5898	63527	Evaluating a lease offer on Sonoran project.	Evaluating a lease offer on Sonoran project.	3024377	1471996307601	1471996307661	n	78
5898	63527	Evaluating a lease offer on Sonoran project.	Evaluating a lease offer on Sonoran project.	3024381	1471996307757	1471996307842	o	79
5898	63527	Evaluating a lease offer on Sonoran project.	Evaluating a lease offer on Sonoran project.	3024403	1471996307906	1471996307997	r	82
5898	63527	Evaluating a lease offer on Sonoran project.	Evaluating a lease offer on Sonoran project.	3024408	1471996308163	1471996308267	a	65
5898	63527	Evaluating a lease offer on Sonoran project.	Evaluating a lease offer on Sonoran project.	3024413	1471996308268	1471996308392	n	78
5898	63527	Evaluating a lease offer on Sonoran project.	Evaluating a lease offer on Sonoran project.	3024422	1471996308343	1471996308443	 	32
5898	63527	Evaluating a lease offer on Sonoran project.	Evaluating a lease offer on Sonoran project.	3024427	1471996308448	1471996308594	SHIFT	16
5898	63527	Evaluating a lease offer on Sonoran project.	Evaluating a lease offer on Sonoran project.	3024557	1471996308589	1471996308613	P	80
5898	63527	Evaluating a lease offer on Sonoran project.	Evaluating a lease offer on Sonoran project.	3024560	1471996309220	1471996309295	BKSP	8
5898	63527	Evaluating a lease offer on Sonoran project.	Evaluating a lease offer on Sonoran project.	3024563	1471996309421	1471996309505	p	80
5898	63527	Evaluating a lease offer on Sonoran project.	Evaluating a lease offer on Sonoran project.	3024566	1471996309531	1471996309601	r	82
5898	63527	Evaluating a lease offer on Sonoran project.	Evaluating a lease offer on Sonoran project.	3024569	1471996309615	1471996309693	o	79
5898	63527	Evaluating a lease offer on Sonoran project.	Evaluating a lease offer on Sonoran project.	3024572	1471996310338	1471996310417	j	74
5898	63527	Evaluating a lease offer on Sonoran project.	Evaluating a lease offer on Sonoran project.	3024576	1471996310447	1471996310477	e	69
5898	63527	Evaluating a lease offer on Sonoran project.	Evaluating a lease offer on Sonoran project.	3024685	1471996310593	1471996310678	c	67
5898	63527	Evaluating a lease offer on Sonoran project.	Evaluating a lease offer on Sonoran project.	3024687	1471996310818	1471996310888	t	84
5898	63527	Evaluating a lease offer on Sonoran project.	Evaluating a lease offer on Sonoran project.	3024689	1471996310914	1471996310974	.	190
5898	63527	Evaluating a lease offer on Sonoran project.	Evaluating a lease offer on Sonoran project.	3024690	1471996311065	1471996311124	.	190
5898	63527	Evaluating a lease offer on Sonoran project.	Evaluating a lease offer on Sonoran project.	3024691	1471996311371	1471996311446	BKSP	8
5898	63550	He was very close to achieving his life's goal.	He was very close to achieving his life's goal. 	3024841	1471996314763	1471996315018	SHIFT	16
5898	63550	He was very close to achieving his life's goal.	He was very close to achieving his life's goal. 	3024836	1471996314919	1471996314994	H	72
5898	63550	He was very close to achieving his life's goal.	He was very close to achieving his life's goal. 	3024847	1471996315133	1471996315229	e	69
5898	63550	He was very close to achieving his life's goal.	He was very close to achieving his life's goal. 	3024856	1471996315194	1471996315299	 	32
5898	63550	He was very close to achieving his life's goal.	He was very close to achieving his life's goal. 	3024865	1471996315349	1471996315425	w	87
5898	63550	He was very close to achieving his life's goal.	He was very close to achieving his life's goal. 	3024870	1471996315499	1471996315625	a	65
5898	63550	He was very close to achieving his life's goal.	He was very close to achieving his life's goal. 	3024915	1471996315571	1471996315690	s	83
5898	63550	He was very close to achieving his life's goal.	He was very close to achieving his life's goal. 	3024918	1471996315651	1471996315740	 	32
5898	63550	He was very close to achieving his life's goal.	He was very close to achieving his life's goal. 	3024921	1471996316241	1471996316323	v	86
5898	63550	He was very close to achieving his life's goal.	He was very close to achieving his life's goal. 	3024924	1471996316357	1471996316458	e	69
5898	63550	He was very close to achieving his life's goal.	He was very close to achieving his life's goal. 	3024929	1471996316422	1471996316503	r	82
5898	63550	He was very close to achieving his life's goal.	He was very close to achieving his life's goal. 	3024947	1471996316492	1471996316607	y	89
5898	63550	He was very close to achieving his life's goal.	He was very close to achieving his life's goal. 	3024950	1471996316573	1471996316668	 	32
5898	63550	He was very close to achieving his life's goal.	He was very close to achieving his life's goal. 	3024954	1471996316732	1471996316828	c	67
5898	63550	He was very close to achieving his life's goal.	He was very close to achieving his life's goal. 	3024959	1471996316817	1471996316883	l	76
5898	63550	He was very close to achieving his life's goal.	He was very close to achieving his life's goal. 	3024962	1471996316993	1471996317063	o	79
5898	63550	He was very close to achieving his life's goal.	He was very close to achieving his life's goal. 	3024964	1471996317074	1471996317144	s	83
5898	63550	He was very close to achieving his life's goal.	He was very close to achieving his life's goal. 	3024989	1471996317267	1471996317329	e	69
5898	63550	He was very close to achieving his life's goal.	He was very close to achieving his life's goal. 	3024992	1471996317349	1471996317435	 	32
5898	63550	He was very close to achieving his life's goal.	He was very close to achieving his life's goal. 	3024998	1471996317484	1471996317559	t	84
5898	63550	He was very close to achieving his life's goal.	He was very close to achieving his life's goal. 	3025002	1471996317550	1471996317665	o	79
5898	63550	He was very close to achieving his life's goal.	He was very close to achieving his life's goal. 	3025044	1471996317629	1471996317725	 	32
5898	63550	He was very close to achieving his life's goal.	He was very close to achieving his life's goal. 	3025048	1471996317835	1471996317910	a	65
5898	63550	He was very close to achieving his life's goal.	He was very close to achieving his life's goal. 	3025050	1471996318005	1471996318118	c	67
5898	63550	He was very close to achieving his life's goal.	He was very close to achieving his life's goal. 	3025054	1471996318132	1471996318212	h	72
5898	63550	He was very close to achieving his life's goal.	He was very close to achieving his life's goal. 	3025057	1471996318267	1471996318336	e	69
5898	63550	He was very close to achieving his life's goal.	He was very close to achieving his life's goal. 	3025061	1471996318401	1471996318492	i	73
5898	63550	He was very close to achieving his life's goal.	He was very close to achieving his life's goal. 	3025144	1471996318798	1471996318847	BKSP	8
5898	63550	He was very close to achieving his life's goal.	He was very close to achieving his life's goal. 	3025145	1471996318903	1471996318979	BKSP	8
5898	63550	He was very close to achieving his life's goal.	He was very close to achieving his life's goal. 	3025146	1471996319148	1471996319193	u	73
5898	63550	He was very close to achieving his life's goal.	He was very close to achieving his life's goal. 	3025147	1471996319233	1471996319309	e	69
5898	63550	He was very close to achieving his life's goal.	He was very close to achieving his life's goal. 	3025148	1471996319704	1471996319760	BKSP	8
5898	63550	He was very close to achieving his life's goal.	He was very close to achieving his life's goal. 	3025149	1471996319831	1471996319910	BKSP	8
5898	63550	He was very close to achieving his life's goal.	He was very close to achieving his life's goal. 	3025150	1471996320081	1471996320155	e	69
5898	63550	He was very close to achieving his life's goal.	He was very close to achieving his life's goal. 	3025151	1471996320210	1471996320286	v	86
5898	63550	He was very close to achieving his life's goal.	He was very close to achieving his life's goal. 	3025228	1471996320402	1471996320487	e	69
5898	63550	He was very close to achieving his life's goal.	He was very close to achieving his life's goal. 	3025233	1471996320847	1471996320907	BKSP	8
5898	63550	He was very close to achieving his life's goal.	He was very close to achieving his life's goal. 	3025239	1471996321078	1471996321153	i	73
5898	63550	He was very close to achieving his life's goal.	He was very close to achieving his life's goal. 	3025247	1471996321178	1471996321253	n	78
5898	63550	He was very close to achieving his life's goal.	He was very close to achieving his life's goal. 	3025254	1471996321273	1471996321358	g	71
5898	63550	He was very close to achieving his life's goal.	He was very close to achieving his life's goal. 	3025258	1471996321363	1471996321439	 	32
5898	63550	He was very close to achieving his life's goal.	He was very close to achieving his life's goal. 	3025292	1471996321524	1471996321589	h	72
5898	63550	He was very close to achieving his life's goal.	He was very close to achieving his life's goal. 	3025297	1471996321659	1471996321750	i	73
5898	63550	He was very close to achieving his life's goal.	He was very close to achieving his life's goal. 	3025303	1471996321785	1471996321877	s	83
5898	63550	He was very close to achieving his life's goal.	He was very close to achieving his life's goal. 	3025307	1471996321873	1471996321950	 	32
5898	63550	He was very close to achieving his life's goal.	He was very close to achieving his life's goal. 	3025313	1471996322040	1471996322185	l	76
5898	63550	He was very close to achieving his life's goal.	He was very close to achieving his life's goal. 	3025354	1471996322131	1471996322215	i	73
5898	63550	He was very close to achieving his life's goal.	He was very close to achieving his life's goal. 	3025357	1471996322326	1471996322442	f	70
5898	63550	He was very close to achieving his life's goal.	He was very close to achieving his life's goal. 	3025360	1471996322537	1471996322617	e	69
5898	63550	He was very close to achieving his life's goal.	He was very close to achieving his life's goal. 	3025366	1471996322706	1471996322783	'	192
5898	63550	He was very close to achieving his life's goal.	He was very close to achieving his life's goal. 	3025373	1471996322828	1471996322913	s	83
5898	63550	He was very close to achieving his life's goal.	He was very close to achieving his life's goal. 	3025378	1471996322948	1471996323027	 	32
5898	63550	He was very close to achieving his life's goal.	He was very close to achieving his life's goal. 	3025423	1471996323199	1471996323298	g	71
5898	63550	He was very close to achieving his life's goal.	He was very close to achieving his life's goal. 	3025426	1471996323294	1471996323408	o	79
5898	63550	He was very close to achieving his life's goal.	He was very close to achieving his life's goal. 	3025430	1471996323379	1471996323454	i	73
5898	63550	He was very close to achieving his life's goal.	He was very close to achieving his life's goal. 	3025435	1471996323835	1471996323890	BKSP	8
5898	63550	He was very close to achieving his life's goal.	He was very close to achieving his life's goal. 	3025437	1471996323880	1471996323975	a	65
5898	63550	He was very close to achieving his life's goal.	He was very close to achieving his life's goal. 	3025442	1471996324036	1471996324121	l	76
5898	63550	He was very close to achieving his life's goal.	He was very close to achieving his life's goal. 	3025512	1471996324226	1471996324306	.	190
5898	63550	He was very close to achieving his life's goal.	He was very close to achieving his life's goal. 	3025515	1471996324291	1471996324351	 	32
5898	63561	ENA is not purchasing Westport's gas at this time.	ENA is not purchasing Westport's gas at this time. 	3025690	1471996326948	1471996327499	SHIFT	16
5898	63561	ENA is not purchasing Westport's gas at this time.	ENA is not purchasing Westport's gas at this time. 	3025694	1471996327384	1471996327499	E	69
5898	63561	ENA is not purchasing Westport's gas at this time.	ENA is not purchasing Westport's gas at this time. 	3025706	1471996327765	1471996328176	SHIFT	16
5898	63561	ENA is not purchasing Westport's gas at this time.	ENA is not purchasing Westport's gas at this time. 	3025700	1471996328025	1471996328100	N	78
5898	63561	ENA is not purchasing Westport's gas at this time.	ENA is not purchasing Westport's gas at this time. 	3025713	1471996328105	1471996328215	A	65
5898	63561	ENA is not purchasing Westport's gas at this time.	ENA is not purchasing Westport's gas at this time. 	3025719	1471996328200	1471996328285	 	32
5898	63561	ENA is not purchasing Westport's gas at this time.	ENA is not purchasing Westport's gas at this time. 	3025725	1471996328406	1471996328466	i	73
5898	63561	ENA is not purchasing Westport's gas at this time.	ENA is not purchasing Westport's gas at this time. 	3025757	1471996328475	1471996328555	s	83
5898	63561	ENA is not purchasing Westport's gas at this time.	ENA is not purchasing Westport's gas at this time. 	3025761	1471996328590	1471996328692	 	32
5898	63561	ENA is not purchasing Westport's gas at this time.	ENA is not purchasing Westport's gas at this time. 	3025766	1471996328817	1471996328886	n	78
5898	63561	ENA is not purchasing Westport's gas at this time.	ENA is not purchasing Westport's gas at this time. 	3025771	1471996328982	1471996329062	o	79
5898	63561	ENA is not purchasing Westport's gas at this time.	ENA is not purchasing Westport's gas at this time. 	3025774	1471996329108	1471996329193	t	84
5898	63561	ENA is not purchasing Westport's gas at this time.	ENA is not purchasing Westport's gas at this time. 	3025844	1471996329198	1471996329287	 	32
5898	63561	ENA is not purchasing Westport's gas at this time.	ENA is not purchasing Westport's gas at this time. 	3025848	1471996329669	1471996329749	p	80
5898	63561	ENA is not purchasing Westport's gas at this time.	ENA is not purchasing Westport's gas at this time. 	3025854	1471996329875	1471996329955	u	85
5898	63561	ENA is not purchasing Westport's gas at this time.	ENA is not purchasing Westport's gas at this time. 	3025858	1471996330004	1471996330070	r	82
5898	63561	ENA is not purchasing Westport's gas at this time.	ENA is not purchasing Westport's gas at this time. 	3025861	1471996330229	1471996330326	c	67
5898	63561	ENA is not purchasing Westport's gas at this time.	ENA is not purchasing Westport's gas at this time. 	3025896	1471996330351	1471996330425	h	72
5898	63561	ENA is not purchasing Westport's gas at this time.	ENA is not purchasing Westport's gas at this time. 	3025898	1471996330471	1471996330590	a	65
5898	63561	ENA is not purchasing Westport's gas at this time.	ENA is not purchasing Westport's gas at this time. 	3025900	1471996330541	1471996330655	s	83
5898	63561	ENA is not purchasing Westport's gas at this time.	ENA is not purchasing Westport's gas at this time. 	3025902	1471996330696	1471996330761	i	73
5898	63561	ENA is not purchasing Westport's gas at this time.	ENA is not purchasing Westport's gas at this time. 	3025906	1471996330937	1471996331001	n	78
5898	63561	ENA is not purchasing Westport's gas at this time.	ENA is not purchasing Westport's gas at this time. 	3025993	1471996331052	1471996331137	g	71
5898	63561	ENA is not purchasing Westport's gas at this time.	ENA is not purchasing Westport's gas at this time. 	3025994	1471996331142	1471996331232	 	32
5898	63561	ENA is not purchasing Westport's gas at this time.	ENA is not purchasing Westport's gas at this time. 	3025996	1471996331583	1471996331829	SHIFT	16
5898	63561	ENA is not purchasing Westport's gas at this time.	ENA is not purchasing Westport's gas at this time. 	3026000	1471996331764	1471996331879	W	87
5898	63561	ENA is not purchasing Westport's gas at this time.	ENA is not purchasing Westport's gas at this time. 	3026004	1471996331965	1471996332040	e	69
5898	63561	ENA is not purchasing Westport's gas at this time.	ENA is not purchasing Westport's gas at this time. 	3026008	1471996332149	1471996332234	s	83
5898	63561	ENA is not purchasing Westport's gas at this time.	ENA is not purchasing Westport's gas at this time. 	3026096	1471996332385	1471996332470	t	84
5898	63561	ENA is not purchasing Westport's gas at this time.	ENA is not purchasing Westport's gas at this time. 	3026098	1471996333092	1471996333213	p	80
5898	63561	ENA is not purchasing Westport's gas at this time.	ENA is not purchasing Westport's gas at this time. 	3026100	1471996333171	1471996333283	o	79
5898	63561	ENA is not purchasing Westport's gas at this time.	ENA is not purchasing Westport's gas at this time. 	3026103	1471996333348	1471996333443	r	82
5898	63561	ENA is not purchasing Westport's gas at this time.	ENA is not purchasing Westport's gas at this time. 	3026106	1471996333583	1471996333664	t	84
5898	63561	ENA is not purchasing Westport's gas at this time.	ENA is not purchasing Westport's gas at this time. 	3026161	1471996333939	1471996334028	'	192
5898	63561	ENA is not purchasing Westport's gas at this time.	ENA is not purchasing Westport's gas at this time. 	3026162	1471996334074	1471996334174	s	83
5898	63561	ENA is not purchasing Westport's gas at this time.	ENA is not purchasing Westport's gas at this time. 	3026164	1471996334219	1471996334300	 	32
5898	63561	ENA is not purchasing Westport's gas at this time.	ENA is not purchasing Westport's gas at this time. 	3026168	1471996334651	1471996334720	g	71
5898	63561	ENA is not purchasing Westport's gas at this time.	ENA is not purchasing Westport's gas at this time. 	3026175	1471996334756	1471996334856	a	65
5898	63561	ENA is not purchasing Westport's gas at this time.	ENA is not purchasing Westport's gas at this time. 	3026190	1471996334821	1471996334927	s	83
5898	63561	ENA is not purchasing Westport's gas at this time.	ENA is not purchasing Westport's gas at this time. 	3026192	1471996334927	1471996335022	 	32
5898	63561	ENA is not purchasing Westport's gas at this time.	ENA is not purchasing Westport's gas at this time. 	3026194	1471996335071	1471996335167	a	65
5898	63561	ENA is not purchasing Westport's gas at this time.	ENA is not purchasing Westport's gas at this time. 	3026196	1471996335287	1471996335357	t	84
5898	63561	ENA is not purchasing Westport's gas at this time.	ENA is not purchasing Westport's gas at this time. 	3026200	1471996335383	1471996335452	 	32
5898	63561	ENA is not purchasing Westport's gas at this time.	ENA is not purchasing Westport's gas at this time. 	3026251	1471996335447	1471996335537	t	84
5898	63561	ENA is not purchasing Westport's gas at this time.	ENA is not purchasing Westport's gas at this time. 	3026255	1471996335553	1471996335622	h	72
5898	63561	ENA is not purchasing Westport's gas at this time.	ENA is not purchasing Westport's gas at this time. 	3026261	1471996335678	1471996335758	i	73
5898	63561	ENA is not purchasing Westport's gas at this time.	ENA is not purchasing Westport's gas at this time. 	3026267	1471996335768	1471996335878	s	83
5898	63561	ENA is not purchasing Westport's gas at this time.	ENA is not purchasing Westport's gas at this time. 	3026271	1471996335859	1471996335948	 	32
5898	63561	ENA is not purchasing Westport's gas at this time.	ENA is not purchasing Westport's gas at this time. 	3026274	1471996336059	1471996336124	t	84
5898	63561	ENA is not purchasing Westport's gas at this time.	ENA is not purchasing Westport's gas at this time. 	3026281	1471996336126	1471996336185	i	73
5898	63561	ENA is not purchasing Westport's gas at this time.	ENA is not purchasing Westport's gas at this time. 	3026284	1471996336264	1471996336350	m	77
5898	63561	ENA is not purchasing Westport's gas at this time.	ENA is not purchasing Westport's gas at this time. 	3026285	1471996336355	1471996336439	e	69
5898	63561	ENA is not purchasing Westport's gas at this time.	ENA is not purchasing Westport's gas at this time. 	3026287	1471996336440	1471996336529	.	190
5898	63561	ENA is not purchasing Westport's gas at this time.	ENA is not purchasing Westport's gas at this time. 	3026377	1471996336504	1471996336575	 	32
5898	63578	Thanks, having a good time.	Thanks, having a good time. 	3026533	1471996339041	1471996339477	SHIFT	16
5898	63578	Thanks, having a good time.	Thanks, having a good time. 	3026527	1471996339402	1471996339466	T	84
5898	63578	Thanks, having a good time.	Thanks, having a good time. 	3026539	1471996339577	1471996339647	h	72
5898	63578	Thanks, having a good time.	Thanks, having a good time. 	3026544	1471996339618	1471996339713	a	65
5898	63578	Thanks, having a good time.	Thanks, having a good time. 	3026546	1471996339723	1471996339842	n	78
5898	63578	Thanks, having a good time.	Thanks, having a good time. 	3026596	1471996339812	1471996339903	k	75
5898	63578	Thanks, having a good time.	Thanks, having a good time. 	3026597	1471996339858	1471996339943	s	83
5898	63578	Thanks, having a good time.	Thanks, having a good time. 	3026599	1471996340028	1471996340144	,	188
5898	63578	Thanks, having a good time.	Thanks, having a good time. 	3026601	1471996340119	1471996340204	 	32
5898	63578	Thanks, having a good time.	Thanks, having a good time. 	3026605	1471996340700	1471996340770	h	72
5898	63578	Thanks, having a good time.	Thanks, having a good time. 	3026622	1471996340764	1471996340865	a	65
5898	63578	Thanks, having a good time.	Thanks, having a good time. 	3026624	1471996340916	1471996340985	v	86
5898	63578	Thanks, having a good time.	Thanks, having a good time. 	3026629	1471996341120	1471996341170	i	73
5898	63578	Thanks, having a good time.	Thanks, having a good time. 	3026627	1471996341145	1471996341165	u	85
5898	63578	Thanks, having a good time.	Thanks, having a good time. 	3026631	1471996341261	1471996341296	n	66
5898	63578	Thanks, having a good time.	Thanks, having a good time. 	3026712	1471996341667	1471996341728	BKSP	8
5898	63578	Thanks, having a good time.	Thanks, having a good time. 	3026716	1471996341747	1471996341832	BKSP	8
5898	63578	Thanks, having a good time.	Thanks, having a good time. 	3026721	1471996341978	1471996342022	n	78
5898	63578	Thanks, having a good time.	Thanks, having a good time. 	3026724	1471996342037	1471996342119	g	71
5898	63578	Thanks, having a good time.	Thanks, having a good time. 	3026728	1471996342389	1471996342438	BKSP	8
5898	63578	Thanks, having a good time.	Thanks, having a good time. 	3026734	1471996342515	1471996342559	BKSP	8
5898	63578	Thanks, having a good time.	Thanks, having a good time. 	3026738	1471996342629	1471996342704	BKSP	8
5898	63578	Thanks, having a good time.	Thanks, having a good time. 	3026746	1471996342840	1471996342911	n	78
5898	63578	Thanks, having a good time.	Thanks, having a good time. 	3026755	1471996342915	1471996343010	g	71
5898	63578	Thanks, having a good time.	Thanks, having a good time. 	3026767	1471996343000	1471996343075	 	32
5898	63578	Thanks, having a good time.	Thanks, having a good time. 	3026774	1471996343155	1471996343265	a	65
5898	63578	Thanks, having a good time.	Thanks, having a good time. 	3026782	1471996343220	1471996343311	 	32
5898	63578	Thanks, having a good time.	Thanks, having a good time. 	3026787	1471996343417	1471996343476	g	70
5898	63578	Thanks, having a good time.	Thanks, having a good time. 	3026791	1471996343491	1471996343552	o	79
5898	63578	Thanks, having a good time.	Thanks, having a good time. 	3026832	1471996343866	1471996343897	BKSP	8
5898	63578	Thanks, having a good time.	Thanks, having a good time. 	3026835	1471996343968	1471996344028	BKSP	8
5898	63578	Thanks, having a good time.	Thanks, having a good time. 	3026840	1471996344097	1471996344169	BKSP	8
5898	63578	Thanks, having a good time.	Thanks, having a good time. 	3026845	1471996344179	1471996344258	g	71
5898	63578	Thanks, having a good time.	Thanks, having a good time. 	3026850	1471996344319	1471996344363	o	79
5898	63578	Thanks, having a good time.	Thanks, having a good time. 	3026853	1471996344439	1471996344508	o	79
5898	63578	Thanks, having a good time.	Thanks, having a good time. 	3026855	1471996344563	1471996344655	d	68
5898	63578	Thanks, having a good time.	Thanks, having a good time. 	3026858	1471996344655	1471996344730	 	32
5898	63578	Thanks, having a good time.	Thanks, having a good time. 	3026872	1471996345045	1471996345135	t	84
5898	63578	Thanks, having a good time.	Thanks, having a good time. 	3026875	1471996345111	1471996345170	i	73
5898	63578	Thanks, having a good time.	Thanks, having a good time. 	3026879	1471996345240	1471996345336	m	77
5898	63578	Thanks, having a good time.	Thanks, having a good time. 	3026883	1471996345326	1471996345417	e	69
5898	63578	Thanks, having a good time.	Thanks, having a good time. 	3026956	1471996345411	1471996345506	.	190
5898	63578	Thanks, having a good time.	Thanks, having a good time. 	3026959	1471996345486	1471996345546	 	32
5898	63588	As soon as anyone does that they can get nailed.	As soon as anyone does that they can get nailed. 	3027107	1471996348022	1471996348344	SHIFT	16
5898	63588	As soon as anyone does that they can get nailed.	As soon as anyone does that they can get nailed. 	3027110	1471996348227	1471996348369	A	65
5898	63588	As soon as anyone does that they can get nailed.	As soon as anyone does that they can get nailed. 	3027117	1471996348479	1471996348564	s	83
5898	63588	As soon as anyone does that they can get nailed.	As soon as anyone does that they can get nailed. 	3027120	1471996348568	1471996348644	 	32
5898	63588	As soon as anyone does that they can get nailed.	As soon as anyone does that they can get nailed. 	3027124	1471996348703	1471996348784	s	83
5898	63588	As soon as anyone does that they can get nailed.	As soon as anyone does that they can get nailed. 	3027128	1471996348799	1471996348860	o	79
5898	63588	As soon as anyone does that they can get nailed.	As soon as anyone does that they can get nailed. 	3027137	1471996348934	1471996348994	o	79
5898	63588	As soon as anyone does that they can get nailed.	As soon as anyone does that they can get nailed. 	3027140	1471996349105	1471996349200	n	78
5898	63588	As soon as anyone does that they can get nailed.	As soon as anyone does that they can get nailed. 	3027147	1471996349155	1471996349254	 	32
5898	63588	As soon as anyone does that they can get nailed.	As soon as anyone does that they can get nailed. 	3027154	1471996349252	1471996349345	a	65
5898	63588	As soon as anyone does that they can get nailed.	As soon as anyone does that they can get nailed. 	3027203	1471996349300	1471996349416	s	83
5898	63588	As soon as anyone does that they can get nailed.	As soon as anyone does that they can get nailed. 	3027208	1471996349396	1471996349490	 	32
5898	63588	As soon as anyone does that they can get nailed.	As soon as anyone does that they can get nailed. 	3027214	1471996349535	1471996349627	a	65
5898	63588	As soon as anyone does that they can get nailed.	As soon as anyone does that they can get nailed. 	3027221	1471996349651	1471996349727	n	78
5898	63588	As soon as anyone does that they can get nailed.	As soon as anyone does that they can get nailed. 	3027227	1471996349851	1471996349917	y	89
5898	63588	As soon as anyone does that they can get nailed.	As soon as anyone does that they can get nailed. 	3027232	1471996350052	1471996350102	o	79
5898	63588	As soon as anyone does that they can get nailed.	As soon as anyone does that they can get nailed. 	3027249	1471996350228	1471996350282	n	78
5898	63588	As soon as anyone does that they can get nailed.	As soon as anyone does that they can get nailed. 	3027250	1471996350302	1471996350387	e	69
5898	63588	As soon as anyone does that they can get nailed.	As soon as anyone does that they can get nailed. 	3027251	1471996350408	1471996350494	 	32
5898	63588	As soon as anyone does that they can get nailed.	As soon as anyone does that they can get nailed. 	3027252	1471996350598	1471996350699	d	68
5898	63588	As soon as anyone does that they can get nailed.	As soon as anyone does that they can get nailed. 	3027278	1471996350679	1471996350759	o	79
5898	63588	As soon as anyone does that they can get nailed.	As soon as anyone does that they can get nailed. 	3027279	1471996350794	1471996350853	e	69
5898	63588	As soon as anyone does that they can get nailed.	As soon as anyone does that they can get nailed. 	3027283	1471996350964	1471996351054	s	83
5898	63588	As soon as anyone does that they can get nailed.	As soon as anyone does that they can get nailed. 	3027286	1471996351054	1471996351144	 	32
5898	63588	As soon as anyone does that they can get nailed.	As soon as anyone does that they can get nailed. 	3027289	1471996351204	1471996351295	t	84
5898	63588	As soon as anyone does that they can get nailed.	As soon as anyone does that they can get nailed. 	3027302	1471996351279	1471996351366	h	72
5898	63588	As soon as anyone does that they can get nailed.	As soon as anyone does that they can get nailed. 	3027306	1471996351465	1471996351560	a	65
5898	63588	As soon as anyone does that they can get nailed.	As soon as anyone does that they can get nailed. 	3027311	1471996351571	1471996351666	t	84
5898	63588	As soon as anyone does that they can get nailed.	As soon as anyone does that they can get nailed. 	3027316	1471996351667	1471996351747	 	32
5898	63588	As soon as anyone does that they can get nailed.	As soon as anyone does that they can get nailed. 	3027320	1471996351786	1471996351870	t	84
5898	63588	As soon as anyone does that they can get nailed.	As soon as anyone does that they can get nailed. 	3027334	1471996351866	1471996351940	h	72
5898	63588	As soon as anyone does that they can get nailed.	As soon as anyone does that they can get nailed. 	3027337	1471996351945	1471996352035	e	69
5898	63588	As soon as anyone does that they can get nailed.	As soon as anyone does that they can get nailed. 	3027341	1471996352065	1471996352146	u	89
5898	63588	As soon as anyone does that they can get nailed.	As soon as anyone does that they can get nailed. 	3027345	1471996352147	1471996352221	 	32
5898	63588	As soon as anyone does that they can get nailed.	As soon as anyone does that they can get nailed. 	3027346	1471996352231	1471996352322	c	67
5898	63588	As soon as anyone does that they can get nailed.	As soon as anyone does that they can get nailed. 	3027393	1471996352583	1471996352632	BKSP	8
5898	63588	As soon as anyone does that they can get nailed.	As soon as anyone does that they can get nailed. 	3027395	1471996352712	1471996352772	BKSP	8
5898	63588	As soon as anyone does that they can get nailed.	As soon as anyone does that they can get nailed. 	3027396	1471996352843	1471996352908	BKSP	8
5898	63588	As soon as anyone does that they can get nailed.	As soon as anyone does that they can get nailed. 	3027397	1471996353028	1471996353118	 	32
5898	63588	As soon as anyone does that they can get nailed.	As soon as anyone does that they can get nailed. 	3027398	1471996353139	1471996353219	c	67
5898	63588	As soon as anyone does that they can get nailed.	As soon as anyone does that they can get nailed. 	3027400	1471996353329	1471996353444	a	65
5898	63588	As soon as anyone does that they can get nailed.	As soon as anyone does that they can get nailed. 	3027404	1471996353410	1471996353530	n	78
5898	63588	As soon as anyone does that they can get nailed.	As soon as anyone does that they can get nailed. 	3027464	1471996353480	1471996353585	 	32
5898	63588	As soon as anyone does that they can get nailed.	As soon as anyone does that they can get nailed. 	3027467	1471996354121	1471996354196	g	71
5898	63588	As soon as anyone does that they can get nailed.	As soon as anyone does that they can get nailed. 	3027471	1471996354241	1471996354321	e	69
5898	63588	As soon as anyone does that they can get nailed.	As soon as anyone does that they can get nailed. 	3027474	1471996354322	1471996354422	t	84
5898	63588	As soon as anyone does that they can get nailed.	As soon as anyone does that they can get nailed. 	3027477	1471996354402	1471996354482	 	32
5898	63588	As soon as anyone does that they can get nailed.	As soon as anyone does that they can get nailed. 	3027482	1471996354586	1471996354667	n	78
5898	63588	As soon as anyone does that they can get nailed.	As soon as anyone does that they can get nailed. 	3027506	1471996354669	1471996354763	a	65
5898	63588	As soon as anyone does that they can get nailed.	As soon as anyone does that they can get nailed. 	3027508	1471996354772	1471996354832	i	73
5898	63588	As soon as anyone does that they can get nailed.	As soon as anyone does that they can get nailed. 	3027510	1471996354933	1471996355007	l	76
5898	63588	As soon as anyone does that they can get nailed.	As soon as anyone does that they can get nailed. 	3027511	1471996355002	1471996355059	e	69
5898	63588	As soon as anyone does that they can get nailed.	As soon as anyone does that they can get nailed. 	3027513	1471996355149	1471996355228	d	68
5898	63588	As soon as anyone does that they can get nailed.	As soon as anyone does that they can get nailed. 	3027579	1471996355219	1471996355323	.	190
5898	63588	As soon as anyone does that they can get nailed.	As soon as anyone does that they can get nailed. 	3027581	1471996355278	1471996355368	 	32
5898	63602	I haven't had a conversation on this since 1999. 	I haven't had a conversation on this since 1999. 	3027710	1471996357824	1471996358200	SHIFT	16
5898	63602	I haven't had a conversation on this since 1999. 	I haven't had a conversation on this since 1999. 	3027708	1471996358091	1471996358185	I	73
5898	63602	I haven't had a conversation on this since 1999. 	I haven't had a conversation on this since 1999. 	3027712	1471996358170	1471996358261	 	32
5898	63602	I haven't had a conversation on this since 1999. 	I haven't had a conversation on this since 1999. 	3027715	1471996358356	1471996358441	h	72
5898	63602	I haven't had a conversation on this since 1999. 	I haven't had a conversation on this since 1999. 	3027720	1471996358456	1471996358552	a	65
5898	63602	I haven't had a conversation on this since 1999. 	I haven't had a conversation on this since 1999. 	3027724	1471996358556	1471996358631	v	86
5898	63602	I haven't had a conversation on this since 1999. 	I haven't had a conversation on this since 1999. 	3027746	1471996358667	1471996358746	e	69
5898	63602	I haven't had a conversation on this since 1999. 	I haven't had a conversation on this since 1999. 	3027748	1471996358781	1471996358862	n	78
5898	63602	I haven't had a conversation on this since 1999. 	I haven't had a conversation on this since 1999. 	3027753	1471996358998	1471996359088	'	192
5898	63602	I haven't had a conversation on this since 1999. 	I haven't had a conversation on this since 1999. 	3027757	1471996359089	1471996359173	t	84
5898	63602	I haven't had a conversation on this since 1999. 	I haven't had a conversation on this since 1999. 	3027763	1471996359232	1471996359303	 	32
5898	63602	I haven't had a conversation on this since 1999. 	I haven't had a conversation on this since 1999. 	3027791	1471996359459	1471996359528	h	72
5898	63602	I haven't had a conversation on this since 1999. 	I haven't had a conversation on this since 1999. 	3027795	1471996359538	1471996359618	a	65
5898	63602	I haven't had a conversation on this since 1999. 	I haven't had a conversation on this since 1999. 	3027800	1471996359698	1471996359784	d	68
5898	63602	I haven't had a conversation on this since 1999. 	I haven't had a conversation on this since 1999. 	3027804	1471996359810	1471996359890	 	32
5898	63602	I haven't had a conversation on this since 1999. 	I haven't had a conversation on this since 1999. 	3027807	1471996359899	1471996359990	a	65
5898	63602	I haven't had a conversation on this since 1999. 	I haven't had a conversation on this since 1999. 	3027881	1471996360005	1471996360089	 	32
5898	63602	I haven't had a conversation on this since 1999. 	I haven't had a conversation on this since 1999. 	3027886	1471996360146	1471996360259	c	67
5898	63602	I haven't had a conversation on this since 1999. 	I haven't had a conversation on this since 1999. 	3027891	1471996360290	1471996360310	p	80
5898	63602	I haven't had a conversation on this since 1999. 	I haven't had a conversation on this since 1999. 	3027895	1471996360877	1471996360952	BKSP	8
5898	63602	I haven't had a conversation on this since 1999. 	I haven't had a conversation on this since 1999. 	3027898	1471996361146	1471996361218	o	79
5898	63602	I haven't had a conversation on this since 1999. 	I haven't had a conversation on this since 1999. 	3027902	1471996361328	1471996361404	n	78
5898	63602	I haven't had a conversation on this since 1999. 	I haven't had a conversation on this since 1999. 	3027930	1471996361498	1471996361576	v	86
5898	63602	I haven't had a conversation on this since 1999. 	I haven't had a conversation on this since 1999. 	3027936	1471996361648	1471996361743	e	69
5898	63602	I haven't had a conversation on this since 1999. 	I haven't had a conversation on this since 1999. 	3027944	1471996361703	1471996361804	r	82
5898	63602	I haven't had a conversation on this since 1999. 	I haven't had a conversation on this since 1999. 	3027950	1471996361903	1471996361993	s	83
5898	63602	I haven't had a conversation on this since 1999. 	I haven't had a conversation on this since 1999. 	3027954	1471996362114	1471996362189	a	65
5898	63602	I haven't had a conversation on this since 1999. 	I haven't had a conversation on this since 1999. 	3027990	1471996362325	1471996362405	t	84
5898	63602	I haven't had a conversation on this since 1999. 	I haven't had a conversation on this since 1999. 	3027992	1471996362415	1471996362450	i	73
5898	63602	I haven't had a conversation on this since 1999. 	I haven't had a conversation on this since 1999. 	3027993	1471996362540	1471996362605	o	79
5898	63602	I haven't had a conversation on this since 1999. 	I haven't had a conversation on this since 1999. 	3027995	1471996362717	1471996362827	n	78
5898	63602	I haven't had a conversation on this since 1999. 	I haven't had a conversation on this since 1999. 	3028023	1471996362778	1471996362872	 	32
5898	63602	I haven't had a conversation on this since 1999. 	I haven't had a conversation on this since 1999. 	3028030	1471996362941	1471996363011	o	79
5898	63602	I haven't had a conversation on this since 1999. 	I haven't had a conversation on this since 1999. 	3028037	1471996363107	1471996363187	n	78
5898	63602	I haven't had a conversation on this since 1999. 	I haven't had a conversation on this since 1999. 	3028044	1471996363172	1471996363257	 	32
5898	63602	I haven't had a conversation on this since 1999. 	I haven't had a conversation on this since 1999. 	3028049	1471996363258	1471996363348	t	84
5898	63602	I haven't had a conversation on this since 1999. 	I haven't had a conversation on this since 1999. 	3028052	1471996363349	1471996363412	h	72
5898	63602	I haven't had a conversation on this since 1999. 	I haven't had a conversation on this since 1999. 	3028083	1471996363487	1471996363563	i	73
5898	63602	I haven't had a conversation on this since 1999. 	I haven't had a conversation on this since 1999. 	3028089	1471996363573	1471996363668	s	83
5898	63602	I haven't had a conversation on this since 1999. 	I haven't had a conversation on this since 1999. 	3028096	1471996363663	1471996363754	 	32
5898	63602	I haven't had a conversation on this since 1999. 	I haven't had a conversation on this since 1999. 	3028099	1471996363834	1471996363910	i	73
5898	63602	I haven't had a conversation on this since 1999. 	I haven't had a conversation on this since 1999. 	3028103	1471996363984	1471996364019	s	83
5898	63602	I haven't had a conversation on this since 1999. 	I haven't had a conversation on this since 1999. 	3028152	1471996364220	1471996364254	BKSP	8
5898	63602	I haven't had a conversation on this since 1999. 	I haven't had a conversation on this since 1999. 	3028155	1471996364310	1471996364385	BKSP	8
5898	63602	I haven't had a conversation on this since 1999. 	I haven't had a conversation on this since 1999. 	3028163	1471996364435	1471996364515	s	83
5898	63602	I haven't had a conversation on this since 1999. 	I haven't had a conversation on this since 1999. 	3028167	1471996364550	1471996364635	i	73
5898	63602	I haven't had a conversation on this since 1999. 	I haven't had a conversation on this since 1999. 	3028170	1471996364621	1471996364715	n	78
5898	63602	I haven't had a conversation on this since 1999. 	I haven't had a conversation on this since 1999. 	3028173	1471996364762	1471996364847	c	67
5898	63602	I haven't had a conversation on this since 1999. 	I haven't had a conversation on this since 1999. 	3028176	1471996364927	1471996365016	e	69
5898	63602	I haven't had a conversation on this since 1999. 	I haven't had a conversation on this since 1999. 	3028251	1471996365011	1471996365097	 	32
5898	63602	I haven't had a conversation on this since 1999. 	I haven't had a conversation on this since 1999. 	3028253	1471996365542	1471996365623	1	49
5898	63602	I haven't had a conversation on this since 1999. 	I haven't had a conversation on this since 1999. 	3028257	1471996365924	1471996365983	9	57
5898	63602	I haven't had a conversation on this since 1999. 	I haven't had a conversation on this since 1999. 	3028260	1471996366075	1471996366129	9	57
5898	63602	I haven't had a conversation on this since 1999. 	I haven't had a conversation on this since 1999. 	3028263	1471996366209	1471996366275	9	57
5898	63602	I haven't had a conversation on this since 1999. 	I haven't had a conversation on this since 1999. 	3028268	1471996366456	1471996366550	.	190
5898	63602	I haven't had a conversation on this since 1999. 	I haven't had a conversation on this since 1999. 	3028329	1471996366526	1471996366590	 	32
5898	63616	I'm at the doctor's office, should be in later.	I#m at the doctor's office, should be in later.	3028545	1471996370203	1471996370424	SHIFT	16
5898	63616	I'm at the doctor's office, should be in later.	I#m at the doctor's office, should be in later.	3028543	1471996370324	1471996370395	I	73
5898	63616	I'm at the doctor's office, should be in later.	I#m at the doctor's office, should be in later.	3028549	1471996370560	1471996370645	#	222
5898	63616	I'm at the doctor's office, should be in later.	I#m at the doctor's office, should be in later.	3028551	1471996370831	1471996370935	m	77
5898	63616	I'm at the doctor's office, should be in later.	I#m at the doctor's office, should be in later.	3028553	1471996370905	1471996371006	 	32
5898	63616	I'm at the doctor's office, should be in later.	I#m at the doctor's office, should be in later.	3028557	1471996371503	1471996371592	a	65
5898	63616	I'm at the doctor's office, should be in later.	I#m at the doctor's office, should be in later.	3028583	1471996371727	1471996371798	t	84
5898	63616	I'm at the doctor's office, should be in later.	I#m at the doctor's office, should be in later.	3028586	1471996371798	1471996371877	 	32
5898	63616	I'm at the doctor's office, should be in later.	I#m at the doctor's office, should be in later.	3028591	1471996371892	1471996371958	t	84
5898	63616	I'm at the doctor's office, should be in later.	I#m at the doctor's office, should be in later.	3028598	1471996371973	1471996372043	h	72
5898	63616	I'm at the doctor's office, should be in later.	I#m at the doctor's office, should be in later.	3028603	1471996372053	1471996372139	e	69
5898	63616	I'm at the doctor's office, should be in later.	I#m at the doctor's office, should be in later.	3028646	1471996372129	1471996372224	 	32
5898	63616	I'm at the doctor's office, should be in later.	I#m at the doctor's office, should be in later.	3028650	1471996372233	1471996372319	d	68
5898	63616	I'm at the doctor's office, should be in later.	I#m at the doctor's office, should be in later.	3028653	1471996372324	1471996372404	o	79
5898	63616	I'm at the doctor's office, should be in later.	I#m at the doctor's office, should be in later.	3028656	1471996372444	1471996372530	c	67
5898	63616	I'm at the doctor's office, should be in later.	I#m at the doctor's office, should be in later.	3028661	1471996372709	1471996372781	t	84
5898	63616	I'm at the doctor's office, should be in later.	I#m at the doctor's office, should be in later.	3028666	1471996372905	1471996372985	o	79
5898	63616	I'm at the doctor's office, should be in later.	I#m at the doctor's office, should be in later.	3028707	1471996373146	1471996373212	r	82
5898	63616	I'm at the doctor's office, should be in later.	I#m at the doctor's office, should be in later.	3028713	1471996373407	1471996373492	'	192
5898	63616	I'm at the doctor's office, should be in later.	I#m at the doctor's office, should be in later.	3028718	1471996373537	1471996373627	s	83
5898	63616	I'm at the doctor's office, should be in later.	I#m at the doctor's office, should be in later.	3028722	1471996373658	1471996373734	 	32
5898	63616	I'm at the doctor's office, should be in later.	I#m at the doctor's office, should be in later.	3028725	1471996373817	1471996373908	o	79
5898	63616	I'm at the doctor's office, should be in later.	I#m at the doctor's office, should be in later.	3028746	1471996373923	1471996373963	f	70
5898	63616	I'm at the doctor's office, should be in later.	I#m at the doctor's office, should be in later.	3028752	1471996374064	1471996374119	f	70
5898	63616	I'm at the doctor's office, should be in later.	I#m at the doctor's office, should be in later.	3028759	1471996374159	1471996374233	i	73
5898	63616	I'm at the doctor's office, should be in later.	I#m at the doctor's office, should be in later.	3028767	1471996374263	1471996374329	c	67
5898	63616	I'm at the doctor's office, should be in later.	I#m at the doctor's office, should be in later.	3028774	1471996374388	1471996374479	e	69
5898	63616	I'm at the doctor's office, should be in later.	I#m at the doctor's office, should be in later.	3028831	1471996374494	1471996374569	.	188
5898	63616	I'm at the doctor's office, should be in later.	I#m at the doctor's office, should be in later.	3028833	1471996374545	1471996374629	 	32
5898	63616	I'm at the doctor's office, should be in later.	I#m at the doctor's office, should be in later.	3028838	1471996375051	1471996375081	BKSP	8
5898	63616	I'm at the doctor's office, should be in later.	I#m at the doctor's office, should be in later.	3028841	1471996375150	1471996375215	BKSP	8
5898	63616	I'm at the doctor's office, should be in later.	I#m at the doctor's office, should be in later.	3028844	1471996375352	1471996375437	 	32
5898	63616	I'm at the doctor's office, should be in later.	I#m at the doctor's office, should be in later.	3028848	1471996375466	1471996375536	s	83
5898	63616	I'm at the doctor's office, should be in later.	I#m at the doctor's office, should be in later.	3028878	1471996375541	1471996375602	h	72
5898	63616	I'm at the doctor's office, should be in later.	I#m at the doctor's office, should be in later.	3028887	1471996375687	1471996375787	o	79
5898	63616	I'm at the doctor's office, should be in later.	I#m at the doctor's office, should be in later.	3028892	1471996375753	1471996375837	u	85
5898	63616	I'm at the doctor's office, should be in later.	I#m at the doctor's office, should be in later.	3028907	1471996375893	1471996375962	l	76
5898	63616	I'm at the doctor's office, should be in later.	I#m at the doctor's office, should be in later.	3028917	1471996375978	1471996376074	d	68
5898	63616	I'm at the doctor's office, should be in later.	I#m at the doctor's office, should be in later.	3028929	1471996376087	1471996376168	 	32
5898	63616	I'm at the doctor's office, should be in later.	I#m at the doctor's office, should be in later.	3028933	1471996376284	1471996376348	b	66
5898	63616	I'm at the doctor's office, should be in later.	I#m at the doctor's office, should be in later.	3028937	1471996376384	1471996376463	e	69
5898	63616	I'm at the doctor's office, should be in later.	I#m at the doctor's office, should be in later.	3028943	1471996376458	1471996376534	 	32
5898	63616	I'm at the doctor's office, should be in later.	I#m at the doctor's office, should be in later.	3028949	1471996376595	1471996376664	i	73
5898	63616	I'm at the doctor's office, should be in later.	I#m at the doctor's office, should be in later.	3028971	1471996376739	1471996376839	n	78
5898	63616	I'm at the doctor's office, should be in later.	I#m at the doctor's office, should be in later.	3028972	1471996376800	1471996376874	 	32
5898	63616	I'm at the doctor's office, should be in later.	I#m at the doctor's office, should be in later.	3028974	1471996376966	1471996377035	l	76
5898	63616	I'm at the doctor's office, should be in later.	I#m at the doctor's office, should be in later.	3028976	1471996377010	1471996377113	a	65
5898	63616	I'm at the doctor's office, should be in later.	I#m at the doctor's office, should be in later.	3028979	1471996377211	1471996377270	t	84
5898	63616	I'm at the doctor's office, should be in later.	I#m at the doctor's office, should be in later.	3029044	1471996377355	1471996377456	e	69
5898	63616	I'm at the doctor's office, should be in later.	I#m at the doctor's office, should be in later.	3029046	1471996377421	1471996377521	r	82
5898	63616	I'm at the doctor's office, should be in later.	I#m at the doctor's office, should be in later.	3029049	1471996377566	1471996377642	.	190
5898	63629	Is this the conference rate?	Is this the conference rate?	3029186	1471996380513	1471996380849	SHIFT	16
5898	63629	Is this the conference rate?	Is this the conference rate?	3029189	1471996380789	1471996380854	I	73
5898	63629	Is this the conference rate?	Is this the conference rate?	3029191	1471996380935	1471996381019	s	83
5898	63629	Is this the conference rate?	Is this the conference rate?	3029194	1471996381010	1471996381090	 	32
5898	63629	Is this the conference rate?	Is this the conference rate?	3029197	1471996381165	1471996381261	t	84
5898	63629	Is this the conference rate?	Is this the conference rate?	3029209	1471996381226	1471996381290	h	72
5898	63629	Is this the conference rate?	Is this the conference rate?	3029214	1471996381336	1471996381416	i	73
5898	63629	Is this the conference rate?	Is this the conference rate?	3029217	1471996381451	1471996381557	s	83
5898	63629	Is this the conference rate?	Is this the conference rate?	3029219	1471996381520	1471996381606	 	32
5898	63629	Is this the conference rate?	Is this the conference rate?	3029221	1471996381762	1471996381836	t	84
5898	63629	Is this the conference rate?	Is this the conference rate?	3029222	1471996381852	1471996381911	h	72
5898	63629	Is this the conference rate?	Is this the conference rate?	3029247	1471996381942	1471996382028	e	69
5898	63629	Is this the conference rate?	Is this the conference rate?	3029249	1471996382032	1471996382117	 	32
5898	63629	Is this the conference rate?	Is this the conference rate?	3029251	1471996382287	1471996382399	c	67
5898	63629	Is this the conference rate?	Is this the conference rate?	3029256	1471996382412	1471996382478	o	79
5898	63629	Is this the conference rate?	Is this the conference rate?	3029260	1471996382579	1471996382658	n	78
5898	63629	Is this the conference rate?	Is this the conference rate?	3029289	1471996382934	1471996382994	f	70
5898	63629	Is this the conference rate?	Is this the conference rate?	3029293	1471996383210	1471996383320	e	69
5898	63629	Is this the conference rate?	Is this the conference rate?	3029296	1471996383286	1471996383385	r	82
5898	63629	Is this the conference rate?	Is this the conference rate?	3029301	1471996383481	1471996383541	e	69
5898	63629	Is this the conference rate?	Is this the conference rate?	3029305	1471996383570	1471996383645	n	78
5898	63629	Is this the conference rate?	Is this the conference rate?	3029337	1471996383696	1471996383781	c	67
5898	63629	Is this the conference rate?	Is this the conference rate?	3029340	1471996383862	1471996383961	e	69
5898	63629	Is this the conference rate?	Is this the conference rate?	3029346	1471996383971	1471996384071	 	32
5898	63629	Is this the conference rate?	Is this the conference rate?	3029350	1471996384273	1471996384368	r	82
5898	63629	Is this the conference rate?	Is this the conference rate?	3029355	1471996384503	1471996384593	a	65
5898	63629	Is this the conference rate?	Is this the conference rate?	3029491	1471996384704	1471996384773	t	84
5898	63629	Is this the conference rate?	Is this the conference rate?	3029493	1471996384843	1471996384914	e	69
5898	63629	Is this the conference rate?	Is this the conference rate?	3029497	1471996385060	1471996385224	SHIFT	16
5898	63629	Is this the conference rate?	Is this the conference rate?	3029495	1471996385114	1471996385189	?	191
5898	63643	That s all I have to say.	That s all I have to say. 	3029666	1471996389606	1471996389945	SHIFT	16
5898	63643	That s all I have to say.	That s all I have to say. 	3029671	1471996389906	1471996389950	T	89
5898	63643	That s all I have to say.	That s all I have to say. 	3029677	1471996390327	1471996390397	BKSP	8
5898	63643	That s all I have to say.	That s all I have to say. 	3029683	1471996390467	1471996390542	BKSP	8
5898	63643	That s all I have to say.	That s all I have to say. 	3029689	1471996390602	1471996391013	SHIFT	16
5898	63643	That s all I have to say.	That s all I have to say. 	3029695	1471996390973	1471996391043	T	84
5898	63643	That s all I have to say.	That s all I have to say. 	3029700	1471996391144	1471996391220	h	72
5898	63643	That s all I have to say.	That s all I have to say. 	3029752	1471996391184	1471996391280	a	65
5898	63643	That s all I have to say.	That s all I have to say. 	3029753	1471996391365	1471996391429	t	84
5898	63643	That s all I have to say.	That s all I have to say. 	3029754	1471996391871	1471996391951	 	32
5898	63643	That s all I have to say.	That s all I have to say. 	3029756	1471996392000	1471996392077	s	83
5898	63643	That s all I have to say.	That s all I have to say. 	3029759	1471996392107	1471996392172	 	32
5898	63643	That s all I have to say.	That s all I have to say. 	3029760	1471996392492	1471996392597	a	65
5898	63643	That s all I have to say.	That s all I have to say. 	3029791	1471996392628	1471996392682	l	76
5898	63643	That s all I have to say.	That s all I have to say. 	3029797	1471996392747	1471996392852	l	76
5898	63643	That s all I have to say.	That s all I have to say. 	3029799	1471996392828	1471996392923	 	32
5898	63643	That s all I have to say.	That s all I have to say. 	3029808	1471996393084	1471996393228	SHIFT	16
5898	63643	That s all I have to say.	That s all I have to say. 	3029843	1471996393143	1471996393238	I	73
5898	63643	That s all I have to say.	That s all I have to say. 	3029849	1471996393198	1471996393273	 	32
5898	63643	That s all I have to say.	That s all I have to say. 	3029854	1471996393355	1471996393424	h	72
5898	63643	That s all I have to say.	That s all I have to say. 	3029857	1471996393434	1471996393520	a	65
5898	63643	That s all I have to say.	That s all I have to say. 	3029861	1471996393554	1471996393614	v	86
5898	63643	That s all I have to say.	That s all I have to say. 	3029865	1471996393639	1471996393719	e	69
5898	63643	That s all I have to say.	That s all I have to say. 	3029868	1471996393733	1471996393816	 	32
5898	63643	That s all I have to say.	That s all I have to say. 	3029873	1471996393895	1471996393965	t	84
5898	63643	That s all I have to say.	That s all I have to say. 	3029876	1471996393956	1471996394050	o	79
5898	63643	That s all I have to say.	That s all I have to say. 	3029881	1471996394020	1471996394110	 	32
5898	63643	That s all I have to say.	That s all I have to say. 	3029887	1471996394171	1471996394236	s	83
5898	63643	That s all I have to say.	That s all I have to say. 	3029894	1471996394306	1471996394391	a	65
5898	63643	That s all I have to say.	That s all I have to say. 	3029973	1471996394387	1471996394462	y	89
5898	63643	That s all I have to say.	That s all I have to say. 	3029976	1471996394628	1471996394722	.	190
5898	63643	That s all I have to say.	That s all I have to say. 	3029980	1471996394697	1471996394757	 	32
5898	63650	The speedway is faced with some very tough choices.	The speedway is faced with some very touch choices.	3030066	1471996397403	1471996397834	SHIFT	16
5898	63650	The speedway is faced with some very tough choices.	The speedway is faced with some very touch choices.	3030063	1471996397745	1471996397804	T	84
5898	63650	The speedway is faced with some very tough choices.	The speedway is faced with some very touch choices.	3030070	1471996397915	1471996397985	h	72
5898	63650	The speedway is faced with some very tough choices.	The speedway is faced with some very touch choices.	3030073	1471996397960	1471996398045	e	69
5898	63650	The speedway is faced with some very tough choices.	The speedway is faced with some very touch choices.	3030078	1471996398055	1471996398140	 	32
5898	63650	The speedway is faced with some very tough choices.	The speedway is faced with some very touch choices.	3030081	1471996398155	1471996398260	s	83
5898	63650	The speedway is faced with some very tough choices.	The speedway is faced with some very touch choices.	3030129	1471996398231	1471996398325	p	80
5898	63650	The speedway is faced with some very tough choices.	The speedway is faced with some very touch choices.	3030131	1471996398412	1471996398471	e	69
5898	63650	The speedway is faced with some very tough choices.	The speedway is faced with some very touch choices.	3030134	1471996398551	1471996398612	e	69
5898	63650	The speedway is faced with some very tough choices.	The speedway is faced with some very touch choices.	3030137	1471996398711	1471996398797	d	68
5898	63650	The speedway is faced with some very tough choices.	The speedway is faced with some very touch choices.	3030141	1471996399057	1471996399142	w	87
5898	63650	The speedway is faced with some very tough choices.	The speedway is faced with some very touch choices.	3030146	1471996399244	1471996399353	a	65
5898	63650	The speedway is faced with some very tough choices.	The speedway is faced with some very touch choices.	3030197	1471996399374	1471996399449	t	84
5898	63650	The speedway is faced with some very tough choices.	The speedway is faced with some very touch choices.	3030200	1471996399439	1471996399514	 	32
5898	63650	The speedway is faced with some very tough choices.	The speedway is faced with some very touch choices.	3030205	1471996399959	1471996400019	BKSP	8
5898	63650	The speedway is faced with some very tough choices.	The speedway is faced with some very touch choices.	3030209	1471996400059	1471996400145	BKSP	8
5898	63650	The speedway is faced with some very tough choices.	The speedway is faced with some very touch choices.	3030214	1471996400301	1471996400385	y	89
5898	63650	The speedway is faced with some very tough choices.	The speedway is faced with some very touch choices.	3030219	1471996400360	1471996400430	 	32
5898	63650	The speedway is faced with some very tough choices.	The speedway is faced with some very touch choices.	3030223	1471996400516	1471996400587	i	73
5898	63650	The speedway is faced with some very tough choices.	The speedway is faced with some very touch choices.	3030245	1471996400612	1471996400698	s	83
5898	63650	The speedway is faced with some very tough choices.	The speedway is faced with some very touch choices.	3030249	1471996400692	1471996400776	 	32
5898	63650	The speedway is faced with some very tough choices.	The speedway is faced with some very touch choices.	3030253	1471996400827	1471996400898	f	70
5898	63650	The speedway is faced with some very tough choices.	The speedway is faced with some very touch choices.	3030258	1471996401000	1471996401107	a	65
5898	63650	The speedway is faced with some very tough choices.	The speedway is faced with some very touch choices.	3030279	1471996401103	1471996401163	c	67
5898	63650	The speedway is faced with some very tough choices.	The speedway is faced with some very touch choices.	3030282	1471996401228	1471996401292	e	69
5898	63650	The speedway is faced with some very tough choices.	The speedway is faced with some very touch choices.	3030286	1471996401379	1471996401474	d	68
5898	63650	The speedway is faced with some very tough choices.	The speedway is faced with some very touch choices.	3030288	1471996401483	1471996401569	 	32
5898	63650	The speedway is faced with some very tough choices.	The speedway is faced with some very touch choices.	3030293	1471996401694	1471996401785	w	87
5898	63650	The speedway is faced with some very tough choices.	The speedway is faced with some very touch choices.	3030325	1471996401780	1471996401844	i	73
5898	63650	The speedway is faced with some very tough choices.	The speedway is faced with some very touch choices.	3030328	1471996401905	1471996401989	t	84
5898	63650	The speedway is faced with some very tough choices.	The speedway is faced with some very touch choices.	3030331	1471996401970	1471996402059	h	72
5898	63650	The speedway is faced with some very tough choices.	The speedway is faced with some very touch choices.	3030335	1471996402029	1471996402124	 	32
5898	63650	The speedway is faced with some very tough choices.	The speedway is faced with some very touch choices.	3030338	1471996402185	1471996402285	s	83
5898	63650	The speedway is faced with some very tough choices.	The speedway is faced with some very touch choices.	3030400	1471996402266	1471996402330	o	79
5898	63650	The speedway is faced with some very tough choices.	The speedway is faced with some very touch choices.	3030404	1471996402415	1471996402470	m	77
5898	63650	The speedway is faced with some very tough choices.	The speedway is faced with some very touch choices.	3030411	1471996402480	1471996402555	e	69
5898	63650	The speedway is faced with some very tough choices.	The speedway is faced with some very touch choices.	3030416	1471996402570	1471996402666	 	32
5898	63650	The speedway is faced with some very tough choices.	The speedway is faced with some very touch choices.	3030423	1471996403057	1471996403128	v	86
5898	63650	The speedway is faced with some very tough choices.	The speedway is faced with some very touch choices.	3030429	1471996403152	1471996403252	e	69
5898	63650	The speedway is faced with some very tough choices.	The speedway is faced with some very touch choices.	3030471	1471996403218	1471996403303	r	82
5898	63650	The speedway is faced with some very tough choices.	The speedway is faced with some very touch choices.	3030474	1471996403312	1471996403436	y	89
5898	63650	The speedway is faced with some very tough choices.	The speedway is faced with some very touch choices.	3030476	1471996403402	1471996403483	 	32
5898	63650	The speedway is faced with some very tough choices.	The speedway is faced with some very touch choices.	3030479	1471996403989	1471996404065	t	84
5898	63650	The speedway is faced with some very tough choices.	The speedway is faced with some very touch choices.	3030481	1471996404069	1471996404205	o	79
5898	63650	The speedway is faced with some very tough choices.	The speedway is faced with some very touch choices.	3030500	1471996404155	1471996404249	u	85
5898	63650	The speedway is faced with some very tough choices.	The speedway is faced with some very touch choices.	3030503	1471996404291	1471996404386	c	67
5898	63650	The speedway is faced with some very tough choices.	The speedway is faced with some very touch choices.	3030506	1471996404415	1471996404531	h	72
5898	63650	The speedway is faced with some very tough choices.	The speedway is faced with some very touch choices.	3030509	1471996404485	1471996404580	 	32
5898	63650	The speedway is faced with some very tough choices.	The speedway is faced with some very touch choices.	3030511	1471996404660	1471996404761	c	67
5898	63650	The speedway is faced with some very tough choices.	The speedway is faced with some very touch choices.	3030545	1471996404756	1471996404836	h	72
5898	63650	The speedway is faced with some very tough choices.	The speedway is faced with some very touch choices.	3030548	1471996404917	1471996405046	o	79
5898	63650	The speedway is faced with some very tough choices.	The speedway is faced with some very touch choices.	3030551	1471996405017	1471996405090	u	85
5898	63650	The speedway is faced with some very tough choices.	The speedway is faced with some very touch choices.	3030553	1471996405342	1471996405382	c	67
5898	63650	The speedway is faced with some very tough choices.	The speedway is faced with some very touch choices.	3030557	1471996405569	1471996405633	BKSP	8
5898	63650	The speedway is faced with some very tough choices.	The speedway is faced with some very touch choices.	3030560	1471996405713	1471996405774	BKSP	8
5898	63650	The speedway is faced with some very tough choices.	The speedway is faced with some very touch choices.	3030564	1471996405909	1471996405990	i	73
5898	63650	The speedway is faced with some very tough choices.	The speedway is faced with some very touch choices.	3030568	1471996405999	1471996406064	c	67
5898	63650	The speedway is faced with some very tough choices.	The speedway is faced with some very touch choices.	3030648	1471996406124	1471996406195	e	69
5898	63650	The speedway is faced with some very tough choices.	The speedway is faced with some very touch choices.	3030652	1471996406300	1471996406390	s	83
5898	63650	The speedway is faced with some very tough choices.	The speedway is faced with some very touch choices.	3030657	1471996406575	1471996406670	.	190
5898	63664	Wang said that his release was a miracle.	Wang said that his release was a miracle.	3030776	1471996409703	1471996410004	SHIFT	16
5898	63664	Wang said that his release was a miracle.	Wang said that his release was a miracle.	3030779	1471996409944	1471996410038	W	87
5898	63664	Wang said that his release was a miracle.	Wang said that his release was a miracle.	3030781	1471996410133	1471996410245	a	65
5898	63664	Wang said that his release was a miracle.	Wang said that his release was a miracle.	3030783	1471996410304	1471996410384	n	78
5898	63664	Wang said that his release was a miracle.	Wang said that his release was a miracle.	3030785	1471996410510	1471996410596	g	71
5898	63664	Wang said that his release was a miracle.	Wang said that his release was a miracle.	3030788	1471996410625	1471996410710	 	32
5898	63664	Wang said that his release was a miracle.	Wang said that his release was a miracle.	3030814	1471996410785	1471996410861	s	83
5898	63664	Wang said that his release was a miracle.	Wang said that his release was a miracle.	3030816	1471996410926	1471996411017	a	65
5898	63664	Wang said that his release was a miracle.	Wang said that his release was a miracle.	3030818	1471996411036	1471996411107	i	73
5898	63664	Wang said that his release was a miracle.	Wang said that his release was a miracle.	3030820	1471996411116	1471996411207	d	68
5898	63664	Wang said that his release was a miracle.	Wang said that his release was a miracle.	3030823	1471996411222	1471996411307	 	32
5898	63664	Wang said that his release was a miracle.	Wang said that his release was a miracle.	3030829	1471996411331	1471996411413	t	84
5898	63664	Wang said that his release was a miracle.	Wang said that his release was a miracle.	3030832	1471996411421	1471996411497	h	72
5898	63664	Wang said that his release was a miracle.	Wang said that his release was a miracle.	3030834	1471996411563	1471996411672	a	65
5898	63664	Wang said that his release was a miracle.	Wang said that his release was a miracle.	3030837	1471996411643	1471996411737	t	84
5898	63664	Wang said that his release was a miracle.	Wang said that his release was a miracle.	3030861	1471996411712	1471996411802	 	32
5898	63664	Wang said that his release was a miracle.	Wang said that his release was a miracle.	3030865	1471996411907	1471996411984	h	72
5898	63664	Wang said that his release was a miracle.	Wang said that his release was a miracle.	3030868	1471996412054	1471996412134	i	73
5898	63664	Wang said that his release was a miracle.	Wang said that his release was a miracle.	3030872	1471996412138	1471996412228	s	83
5898	63664	Wang said that his release was a miracle.	Wang said that his release was a miracle.	3030876	1471996412248	1471996412339	 	32
5898	63664	Wang said that his release was a miracle.	Wang said that his release was a miracle.	3030880	1471996412364	1471996412434	r	82
5898	63664	Wang said that his release was a miracle.	Wang said that his release was a miracle.	3030957	1471996412535	1471996412600	e	69
5898	63664	Wang said that his release was a miracle.	Wang said that his release was a miracle.	3030960	1471996412696	1471996412811	a	65
5898	63664	Wang said that his release was a miracle.	Wang said that his release was a miracle.	3030962	1471996412812	1471996412896	l	76
5898	63664	Wang said that his release was a miracle.	Wang said that his release was a miracle.	3030965	1471996413703	1471996413753	BKSP	8
5898	63664	Wang said that his release was a miracle.	Wang said that his release was a miracle.	3030969	1471996413802	1471996413873	BKSP	8
5898	63664	Wang said that his release was a miracle.	Wang said that his release was a miracle.	3030974	1471996414023	1471996414118	l	76
5898	63664	Wang said that his release was a miracle.	Wang said that his release was a miracle.	3030993	1471996414104	1471996414178	e	69
5898	63664	Wang said that his release was a miracle.	Wang said that his release was a miracle.	3030997	1471996414254	1471996414359	a	65
5898	63664	Wang said that his release was a miracle.	Wang said that his release was a miracle.	3031004	1471996414313	1471996414409	s	83
5898	63664	Wang said that his release was a miracle.	Wang said that his release was a miracle.	3031010	1471996414495	1471996414580	e	69
5898	63664	Wang said that his release was a miracle.	Wang said that his release was a miracle.	3031018	1471996414594	1471996414674	 	32
5898	63664	Wang said that his release was a miracle.	Wang said that his release was a miracle.	3031045	1471996414670	1471996414754	w	87
5898	63664	Wang said that his release was a miracle.	Wang said that his release was a miracle.	3031048	1471996414861	1471996414966	a	65
5898	63664	Wang said that his release was a miracle.	Wang said that his release was a miracle.	3031053	1471996414940	1471996415031	s	83
5898	63664	Wang said that his release was a miracle.	Wang said that his release was a miracle.	3031059	1471996415006	1471996415086	 	32
5898	63664	Wang said that his release was a miracle.	Wang said that his release was a miracle.	3031063	1471996415115	1471996415221	a	65
5898	63664	Wang said that his release was a miracle.	Wang said that his release was a miracle.	3031114	1471996415180	1471996415251	 	32
5898	63664	Wang said that his release was a miracle.	Wang said that his release was a miracle.	3031116	1471996415347	1471996415421	m	77
5898	63664	Wang said that his release was a miracle.	Wang said that his release was a miracle.	3031118	1471996415512	1471996415596	i	73
5898	63664	Wang said that his release was a miracle.	Wang said that his release was a miracle.	3031121	1471996415642	1471996415738	r	82
5898	63664	Wang said that his release was a miracle.	Wang said that his release was a miracle.	3031129	1471996415898	1471996415997	a	65
5898	63664	Wang said that his release was a miracle.	Wang said that his release was a miracle.	3031135	1471996416114	1471996416223	c	67
5898	63664	Wang said that his release was a miracle.	Wang said that his release was a miracle.	3031179	1471996416333	1471996416398	l	76
5898	63664	Wang said that his release was a miracle.	Wang said that his release was a miracle.	3031182	1471996416454	1471996416519	e	69
5898	63664	Wang said that his release was a miracle.	Wang said that his release was a miracle.	3031186	1471996416520	1471996416595	.	190
5898	63676	You must therefore take full responsibility for virus checking.	You must therefore take full responsibility for virus checking.	3031283	1471996419030	1471996419471	SHIFT	16
5898	63676	You must therefore take full responsibility for virus checking.	You must therefore take full responsibility for virus checking.	3031279	1471996419370	1471996419431	Y	89
5898	63676	You must therefore take full responsibility for virus checking.	You must therefore take full responsibility for virus checking.	3031287	1471996419517	1471996419672	o	79
5898	63676	You must therefore take full responsibility for virus checking.	You must therefore take full responsibility for virus checking.	3031291	1471996419606	1471996419697	u	85
5898	63676	You must therefore take full responsibility for virus checking.	You must therefore take full responsibility for virus checking.	3031296	1471996419667	1471996419741	 	32
5898	63676	You must therefore take full responsibility for virus checking.	You must therefore take full responsibility for virus checking.	3031299	1471996419837	1471996419908	m	77
5898	63676	You must therefore take full responsibility for virus checking.	You must therefore take full responsibility for virus checking.	3031309	1471996420022	1471996420092	u	85
5898	63676	You must therefore take full responsibility for virus checking.	You must therefore take full responsibility for virus checking.	3031311	1471996420102	1471996420183	s	83
5898	63676	You must therefore take full responsibility for virus checking.	You must therefore take full responsibility for virus checking.	3031314	1471996420278	1471996420348	t	84
5898	63676	You must therefore take full responsibility for virus checking.	You must therefore take full responsibility for virus checking.	3031321	1471996420343	1471996420433	 	32
5898	63676	You must therefore take full responsibility for virus checking.	You must therefore take full responsibility for virus checking.	3031326	1471996420458	1471996420553	t	84
5898	63676	You must therefore take full responsibility for virus checking.	You must therefore take full responsibility for virus checking.	3031363	1471996420543	1471996420623	h	72
5898	63676	You must therefore take full responsibility for virus checking.	You must therefore take full responsibility for virus checking.	3031367	1471996420668	1471996420764	e	69
5898	63676	You must therefore take full responsibility for virus checking.	You must therefore take full responsibility for virus checking.	3031373	1471996420904	1471996420995	r	82
5898	63676	You must therefore take full responsibility for virus checking.	You must therefore take full responsibility for virus checking.	3031379	1471996421064	1471996421161	e	69
5898	63676	You must therefore take full responsibility for virus checking.	You must therefore take full responsibility for virus checking.	3031383	1471996421271	1471996421385	f	70
5898	63676	You must therefore take full responsibility for virus checking.	You must therefore take full responsibility for virus checking.	3031388	1471996421390	1471996421485	o	79
5898	63676	You must therefore take full responsibility for virus checking.	You must therefore take full responsibility for virus checking.	3031405	1471996421505	1471996421587	r	82
5898	63676	You must therefore take full responsibility for virus checking.	You must therefore take full responsibility for virus checking.	3031410	1471996421722	1471996421812	e	69
5898	63676	You must therefore take full responsibility for virus checking.	You must therefore take full responsibility for virus checking.	3031413	1471996421911	1471996421997	 	32
5898	63676	You must therefore take full responsibility for virus checking.	You must therefore take full responsibility for virus checking.	3031418	1471996422041	1471996422132	t	84
5898	63676	You must therefore take full responsibility for virus checking.	You must therefore take full responsibility for virus checking.	3031422	1471996422143	1471996422197	h	72
5898	63676	You must therefore take full responsibility for virus checking.	You must therefore take full responsibility for virus checking.	3031457	1471996422474	1471996422533	BKSP	8
5898	63676	You must therefore take full responsibility for virus checking.	You must therefore take full responsibility for virus checking.	3031459	1471996422604	1471996422704	a	65
5898	63676	You must therefore take full responsibility for virus checking.	You must therefore take full responsibility for virus checking.	3031464	1471996422743	1471996422815	k	75
5898	63676	You must therefore take full responsibility for virus checking.	You must therefore take full responsibility for virus checking.	3031467	1471996422875	1471996422964	e	69
5898	63676	You must therefore take full responsibility for virus checking.	You must therefore take full responsibility for virus checking.	3031473	1471996422995	1471996423085	 	32
5898	63676	You must therefore take full responsibility for virus checking.	You must therefore take full responsibility for virus checking.	3031478	1471996423376	1471996423475	f	70
5898	63676	You must therefore take full responsibility for virus checking.	You must therefore take full responsibility for virus checking.	3031512	1471996423521	1471996423581	u	85
5898	63676	You must therefore take full responsibility for virus checking.	You must therefore take full responsibility for virus checking.	3031514	1471996423742	1471996423786	l	76
5898	63676	You must therefore take full responsibility for virus checking.	You must therefore take full responsibility for virus checking.	3031516	1471996423856	1471996423932	l	76
5898	63676	You must therefore take full responsibility for virus checking.	You must therefore take full responsibility for virus checking.	3031518	1471996424263	1471996424348	 	32
5898	63676	You must therefore take full responsibility for virus checking.	You must therefore take full responsibility for virus checking.	3031522	1471996424408	1471996424489	r	82
5898	63676	You must therefore take full responsibility for virus checking.	You must therefore take full responsibility for virus checking.	3031553	1471996424598	1471996424668	e	69
5898	63676	You must therefore take full responsibility for virus checking.	You must therefore take full responsibility for virus checking.	3031555	1471996424774	1471996424853	s	83
5898	63676	You must therefore take full responsibility for virus checking.	You must therefore take full responsibility for virus checking.	3031559	1471996424839	1471996424955	p	80
5898	63676	You must therefore take full responsibility for virus checking.	You must therefore take full responsibility for virus checking.	3031562	1471996424974	1471996424980	o	79
5898	63676	You must therefore take full responsibility for virus checking.	You must therefore take full responsibility for virus checking.	3031564	1471996425341	1471996425400	n	78
5898	63676	You must therefore take full responsibility for virus checking.	You must therefore take full responsibility for virus checking.	3031636	1471996425550	1471996425620	s	83
5898	63676	You must therefore take full responsibility for virus checking.	You must therefore take full responsibility for virus checking.	3031640	1471996425731	1471996425812	i	73
5898	63676	You must therefore take full responsibility for virus checking.	You must therefore take full responsibility for virus checking.	3031645	1471996427385	1471996427455	b	66
5898	63676	You must therefore take full responsibility for virus checking.	You must therefore take full responsibility for virus checking.	3031649	1471996427490	1471996427555	i	73
5898	63676	You must therefore take full responsibility for virus checking.	You must therefore take full responsibility for virus checking.	3031653	1471996427666	1471996427739	l	76
5898	63676	You must therefore take full responsibility for virus checking.	You must therefore take full responsibility for virus checking.	3031686	1471996427820	1471996427891	i	73
5898	63676	You must therefore take full responsibility for virus checking.	You must therefore take full responsibility for virus checking.	3031688	1471996427946	1471996428012	t	84
5898	63676	You must therefore take full responsibility for virus checking.	You must therefore take full responsibility for virus checking.	3031692	1471996428347	1471996428467	y	89
5898	63676	You must therefore take full responsibility for virus checking.	You must therefore take full responsibility for virus checking.	3031697	1471996428452	1471996428567	 	32
5898	63676	You must therefore take full responsibility for virus checking.	You must therefore take full responsibility for virus checking.	3031706	1471996428642	1471996428749	f	70
5898	63676	You must therefore take full responsibility for virus checking.	You must therefore take full responsibility for virus checking.	3031749	1471996428744	1471996428818	o	79
5898	63676	You must therefore take full responsibility for virus checking.	You must therefore take full responsibility for virus checking.	3031751	1471996428878	1471996428968	r	82
5898	63676	You must therefore take full responsibility for virus checking.	You must therefore take full responsibility for virus checking.	3031754	1471996428963	1471996429048	 	32
5898	63676	You must therefore take full responsibility for virus checking.	You must therefore take full responsibility for virus checking.	3031755	1471996429886	1471996429972	v	86
5898	63676	You must therefore take full responsibility for virus checking.	You must therefore take full responsibility for virus checking.	3031757	1471996429986	1471996430062	i	73
5898	63676	You must therefore take full responsibility for virus checking.	You must therefore take full responsibility for virus checking.	3031760	1471996430131	1471996430212	r	82
5898	63676	You must therefore take full responsibility for virus checking.	You must therefore take full responsibility for virus checking.	3031780	1471996430256	1471996430316	u	85
5898	63676	You must therefore take full responsibility for virus checking.	You must therefore take full responsibility for virus checking.	3031783	1471996430398	1471996430467	s	83
5898	63676	You must therefore take full responsibility for virus checking.	You must therefore take full responsibility for virus checking.	3031788	1471996430447	1471996430553	 	32
5898	63676	You must therefore take full responsibility for virus checking.	You must therefore take full responsibility for virus checking.	3031794	1471996430632	1471996430722	c	67
5898	63676	You must therefore take full responsibility for virus checking.	You must therefore take full responsibility for virus checking.	3031818	1471996430717	1471996430788	h	72
5898	63676	You must therefore take full responsibility for virus checking.	You must therefore take full responsibility for virus checking.	3031819	1471996430843	1471996430903	e	69
5898	63676	You must therefore take full responsibility for virus checking.	You must therefore take full responsibility for virus checking.	3031820	1471996430994	1471996431084	c	67
5898	63676	You must therefore take full responsibility for virus checking.	You must therefore take full responsibility for virus checking.	3031821	1471996431085	1471996431138	k	75
5898	63676	You must therefore take full responsibility for virus checking.	You must therefore take full responsibility for virus checking.	3031824	1471996431229	1471996431320	i	73
5898	63676	You must therefore take full responsibility for virus checking.	You must therefore take full responsibility for virus checking.	3031888	1471996431315	1471996431414	n	78
5898	63676	You must therefore take full responsibility for virus checking.	You must therefore take full responsibility for virus checking.	3031892	1471996431395	1471996431454	g	71
5898	63676	You must therefore take full responsibility for virus checking.	You must therefore take full responsibility for virus checking.	3031898	1471996431520	1471996431601	.	190
