PARTICIPANT_ID	TEST_SECTION_ID	SENTENCE	USER_INPUT	KEYSTROKE_ID	PRESS_TIME	RELEASE_TIME	LETTER	KEYCODE
5977	64305	The four-city tour continues Friday in Kansas City, Missouri.	The four-city tour continues Friday in Kansas City, Missouri.	3060508	1471997188988	1471997189244	SHIFT	16
5977	64305	The four-city tour continues Friday in Kansas City, Missouri.	The four-city tour continues Friday in Kansas City, Missouri.	3060505	1471997189158	1471997189212	T	84
5977	64305	The four-city tour continues Friday in Kansas City, Missouri.	The four-city tour continues Friday in Kansas City, Missouri.	3060514	1471997189322	1471997189395	h	72
5977	64305	The four-city tour continues Friday in Kansas City, Missouri.	The four-city tour continues Friday in Kansas City, Missouri.	3060521	1471997189427	1471997189497	e	69
5977	64305	The four-city tour continues Friday in Kansas City, Missouri.	The four-city tour continues Friday in Kansas City, Missouri.	3060528	1471997189528	1471997189643	 	32
5977	64305	The four-city tour continues Friday in Kansas City, Missouri.	The four-city tour continues Friday in Kansas City, Missouri.	3060534	1471997190334	1471997190394	f	70
5977	64305	The four-city tour continues Friday in Kansas City, Missouri.	The four-city tour continues Friday in Kansas City, Missouri.	3060585	1471997190547	1471997190656	o	79
5977	64305	The four-city tour continues Friday in Kansas City, Missouri.	The four-city tour continues Friday in Kansas City, Missouri.	3060588	1471997190797	1471997190844	u	85
5977	64305	The four-city tour continues Friday in Kansas City, Missouri.	The four-city tour continues Friday in Kansas City, Missouri.	3060593	1471997190896	1471997190958	r	82
5977	64305	The four-city tour continues Friday in Kansas City, Missouri.	The four-city tour continues Friday in Kansas City, Missouri.	3060597	1471997191541	1471997191610	-	189
5977	64305	The four-city tour continues Friday in Kansas City, Missouri.	The four-city tour continues Friday in Kansas City, Missouri.	3060601	1471997191828	1471997191923	c	67
5977	64305	The four-city tour continues Friday in Kansas City, Missouri.	The four-city tour continues Friday in Kansas City, Missouri.	3060641	1471997191975	1471997192041	i	73
5977	64305	The four-city tour continues Friday in Kansas City, Missouri.	The four-city tour continues Friday in Kansas City, Missouri.	3060642	1471997192444	1471997192524	t	84
5977	64305	The four-city tour continues Friday in Kansas City, Missouri.	The four-city tour continues Friday in Kansas City, Missouri.	3060643	1471997192548	1471997192684	y	89
5977	64305	The four-city tour continues Friday in Kansas City, Missouri.	The four-city tour continues Friday in Kansas City, Missouri.	3060646	1471997192639	1471997192739	 	32
5977	64305	The four-city tour continues Friday in Kansas City, Missouri.	The four-city tour continues Friday in Kansas City, Missouri.	3060651	1471997193208	1471997193258	t	84
5977	64305	The four-city tour continues Friday in Kansas City, Missouri.	The four-city tour continues Friday in Kansas City, Missouri.	3060745	1471997193462	1471997193555	o	79
5977	64305	The four-city tour continues Friday in Kansas City, Missouri.	The four-city tour continues Friday in Kansas City, Missouri.	3060747	1471997193874	1471997193925	u	85
5977	64305	The four-city tour continues Friday in Kansas City, Missouri.	The four-city tour continues Friday in Kansas City, Missouri.	3060749	1471997193956	1471997194018	r	82
5977	64305	The four-city tour continues Friday in Kansas City, Missouri.	The four-city tour continues Friday in Kansas City, Missouri.	3060751	1471997194058	1471997194117	 	32
5977	64305	The four-city tour continues Friday in Kansas City, Missouri.	The four-city tour continues Friday in Kansas City, Missouri.	3060753	1471997194937	1471997194990	c	67
5977	64305	The four-city tour continues Friday in Kansas City, Missouri.	The four-city tour continues Friday in Kansas City, Missouri.	3060790	1471997195064	1471997195132	o	79
5977	64305	The four-city tour continues Friday in Kansas City, Missouri.	The four-city tour continues Friday in Kansas City, Missouri.	3060793	1471997195281	1471997195331	n	78
5977	64305	The four-city tour continues Friday in Kansas City, Missouri.	The four-city tour continues Friday in Kansas City, Missouri.	3060798	1471997195449	1471997195502	t	84
5977	64305	The four-city tour continues Friday in Kansas City, Missouri.	The four-city tour continues Friday in Kansas City, Missouri.	3060801	1471997195583	1471997195670	i	73
5977	64305	The four-city tour continues Friday in Kansas City, Missouri.	The four-city tour continues Friday in Kansas City, Missouri.	3060806	1471997195748	1471997195853	n	78
5977	64305	The four-city tour continues Friday in Kansas City, Missouri.	The four-city tour continues Friday in Kansas City, Missouri.	3060838	1471997196084	1471997196154	u	85
5977	64305	The four-city tour continues Friday in Kansas City, Missouri.	The four-city tour continues Friday in Kansas City, Missouri.	3060843	1471997196216	1471997196289	e	69
5977	64305	The four-city tour continues Friday in Kansas City, Missouri.	The four-city tour continues Friday in Kansas City, Missouri.	3060848	1471997196398	1471997196533	s	83
5977	64305	The four-city tour continues Friday in Kansas City, Missouri.	The four-city tour continues Friday in Kansas City, Missouri.	3060852	1471997196580	1471997196670	 	32
5977	64305	The four-city tour continues Friday in Kansas City, Missouri.	The four-city tour continues Friday in Kansas City, Missouri.	3060856	1471997196779	1471997197060	SHIFT	16
5977	64305	The four-city tour continues Friday in Kansas City, Missouri.	The four-city tour continues Friday in Kansas City, Missouri.	3060897	1471997197014	1471997197127	F	70
5977	64305	The four-city tour continues Friday in Kansas City, Missouri.	The four-city tour continues Friday in Kansas City, Missouri.	3060900	1471997197252	1471997197334	r	82
5977	64305	The four-city tour continues Friday in Kansas City, Missouri.	The four-city tour continues Friday in Kansas City, Missouri.	3060904	1471997197428	1471997197481	i	73
5977	64305	The four-city tour continues Friday in Kansas City, Missouri.	The four-city tour continues Friday in Kansas City, Missouri.	3060908	1471997197616	1471997197736	d	68
5977	64305	The four-city tour continues Friday in Kansas City, Missouri.	The four-city tour continues Friday in Kansas City, Missouri.	3060912	1471997198134	1471997198203	a	65
5977	64305	The four-city tour continues Friday in Kansas City, Missouri.	The four-city tour continues Friday in Kansas City, Missouri.	3060916	1471997198234	1471997198373	y	89
5977	64305	The four-city tour continues Friday in Kansas City, Missouri.	The four-city tour continues Friday in Kansas City, Missouri.	3060983	1471997198353	1471997198448	 	32
5977	64305	The four-city tour continues Friday in Kansas City, Missouri.	The four-city tour continues Friday in Kansas City, Missouri.	3060985	1471997198792	1471997198985	i	73
5977	64305	The four-city tour continues Friday in Kansas City, Missouri.	The four-city tour continues Friday in Kansas City, Missouri.	3060988	1471997198921	1471997199062	n	78
5977	64305	The four-city tour continues Friday in Kansas City, Missouri.	The four-city tour continues Friday in Kansas City, Missouri.	3060991	1471997199033	1471997199116	 	32
5977	64305	The four-city tour continues Friday in Kansas City, Missouri.	The four-city tour continues Friday in Kansas City, Missouri.	3060994	1471997199681	1471997199880	SHIFT	16
5977	64305	The four-city tour continues Friday in Kansas City, Missouri.	The four-city tour continues Friday in Kansas City, Missouri.	3060996	1471997199853	1471997199924	K	75
5977	64305	The four-city tour continues Friday in Kansas City, Missouri.	The four-city tour continues Friday in Kansas City, Missouri.	3060998	1471997200152	1471997200217	n	78
5977	64305	The four-city tour continues Friday in Kansas City, Missouri.	The four-city tour continues Friday in Kansas City, Missouri.	3061106	1471997200994	1471997201080	BKSP	8
5977	64305	The four-city tour continues Friday in Kansas City, Missouri.	The four-city tour continues Friday in Kansas City, Missouri.	3061110	1471997201095	1471997201182	a	65
5977	64305	The four-city tour continues Friday in Kansas City, Missouri.	The four-city tour continues Friday in Kansas City, Missouri.	3061113	1471997201291	1471997201355	n	78
5977	64305	The four-city tour continues Friday in Kansas City, Missouri.	The four-city tour continues Friday in Kansas City, Missouri.	3061115	1471997201957	1471997202096	s	83
5977	64305	The four-city tour continues Friday in Kansas City, Missouri.	The four-city tour continues Friday in Kansas City, Missouri.	3061117	1471997202076	1471997202208	a	65
5977	64305	The four-city tour continues Friday in Kansas City, Missouri.	The four-city tour continues Friday in Kansas City, Missouri.	3061119	1471997202741	1471997202812	s	83
5977	64305	The four-city tour continues Friday in Kansas City, Missouri.	The four-city tour continues Friday in Kansas City, Missouri.	3061160	1471997203069	1471997203155	 	32
5977	64305	The four-city tour continues Friday in Kansas City, Missouri.	The four-city tour continues Friday in Kansas City, Missouri.	3061162	1471997203225	1471997203458	SHIFT	16
5977	64305	The four-city tour continues Friday in Kansas City, Missouri.	The four-city tour continues Friday in Kansas City, Missouri.	3061163	1471997203428	1471997203512	C	67
5977	64305	The four-city tour continues Friday in Kansas City, Missouri.	The four-city tour continues Friday in Kansas City, Missouri.	3061164	1471997203607	1471997203693	i	73
5977	64305	The four-city tour continues Friday in Kansas City, Missouri.	The four-city tour continues Friday in Kansas City, Missouri.	3061165	1471997204337	1471997204412	r	82
5977	64305	The four-city tour continues Friday in Kansas City, Missouri.	The four-city tour continues Friday in Kansas City, Missouri.	3061166	1471997204498	1471997204589	y	89
5977	64305	The four-city tour continues Friday in Kansas City, Missouri.	The four-city tour continues Friday in Kansas City, Missouri.	3061282	1471997205052	1471997205140	,	188
5977	64305	The four-city tour continues Friday in Kansas City, Missouri.	The four-city tour continues Friday in Kansas City, Missouri.	3061285	1471997205136	1471997205226	 	32
5977	64305	The four-city tour continues Friday in Kansas City, Missouri.	The four-city tour continues Friday in Kansas City, Missouri.	3061287	1471997205570	1471997206007	SHIFT	16
5977	64305	The four-city tour continues Friday in Kansas City, Missouri.	The four-city tour continues Friday in Kansas City, Missouri.	3061290	1471997206132	1471997206199	BKSP	8
5977	64305	The four-city tour continues Friday in Kansas City, Missouri.	The four-city tour continues Friday in Kansas City, Missouri.	3061294	1471997206273	1471997206330	BKSP	8
5977	64305	The four-city tour continues Friday in Kansas City, Missouri.	The four-city tour continues Friday in Kansas City, Missouri.	3061297	1471997206405	1471997206489	BKSP	8
5977	64305	The four-city tour continues Friday in Kansas City, Missouri.	The four-city tour continues Friday in Kansas City, Missouri.	3061300	1471997206536	1471997206624	BKSP	8
5977	64305	The four-city tour continues Friday in Kansas City, Missouri.	The four-city tour continues Friday in Kansas City, Missouri.	3061303	1471997207220	1471997207398	t	84
5977	64305	The four-city tour continues Friday in Kansas City, Missouri.	The four-city tour continues Friday in Kansas City, Missouri.	3061306	1471997207324	1471997207438	y	89
5977	64305	The four-city tour continues Friday in Kansas City, Missouri.	The four-city tour continues Friday in Kansas City, Missouri.	3061308	1471997207563	1471997207671	,	188
5977	64305	The four-city tour continues Friday in Kansas City, Missouri.	The four-city tour continues Friday in Kansas City, Missouri.	3061345	1471997207696	1471997207793	 	32
5977	64305	The four-city tour continues Friday in Kansas City, Missouri.	The four-city tour continues Friday in Kansas City, Missouri.	3061347	1471997208080	1471997208600	SHIFT	16
5977	64305	The four-city tour continues Friday in Kansas City, Missouri.	The four-city tour continues Friday in Kansas City, Missouri.	3061346	1471997208412	1471997208522	M	77
5977	64305	The four-city tour continues Friday in Kansas City, Missouri.	The four-city tour continues Friday in Kansas City, Missouri.	3061348	1471997208881	1471997208955	i	73
5977	64305	The four-city tour continues Friday in Kansas City, Missouri.	The four-city tour continues Friday in Kansas City, Missouri.	3061349	1471997209080	1471997209157	s	83
5977	64305	The four-city tour continues Friday in Kansas City, Missouri.	The four-city tour continues Friday in Kansas City, Missouri.	3061350	1471997209251	1471997209340	s	83
5977	64305	The four-city tour continues Friday in Kansas City, Missouri.	The four-city tour continues Friday in Kansas City, Missouri.	3061394	1471997209375	1471997209504	o	79
5977	64305	The four-city tour continues Friday in Kansas City, Missouri.	The four-city tour continues Friday in Kansas City, Missouri.	3061397	1471997209472	1471997209567	u	85
5977	64305	The four-city tour continues Friday in Kansas City, Missouri.	The four-city tour continues Friday in Kansas City, Missouri.	3061400	1471997209614	1471997209682	r	82
5977	64305	The four-city tour continues Friday in Kansas City, Missouri.	The four-city tour continues Friday in Kansas City, Missouri.	3061403	1471997209722	1471997209761	o	79
5977	64305	The four-city tour continues Friday in Kansas City, Missouri.	The four-city tour continues Friday in Kansas City, Missouri.	3061404	1471997210340	1471997210405	BKSP	8
5977	64305	The four-city tour continues Friday in Kansas City, Missouri.	The four-city tour continues Friday in Kansas City, Missouri.	3061544	1471997211174	1471997211237	i	73
5977	64305	The four-city tour continues Friday in Kansas City, Missouri.	The four-city tour continues Friday in Kansas City, Missouri.	3061405	1471997211201	1471997211221	o	79
5977	64305	The four-city tour continues Friday in Kansas City, Missouri.	The four-city tour continues Friday in Kansas City, Missouri.	3061549	1471997211819	1471997211904	BKSP	8
5977	64305	The four-city tour continues Friday in Kansas City, Missouri.	The four-city tour continues Friday in Kansas City, Missouri.	3061554	1471997212560	1471997212635	i	73
5977	64305	The four-city tour continues Friday in Kansas City, Missouri.	The four-city tour continues Friday in Kansas City, Missouri.	3061558	1471997213451	1471997213527	.	190
5977	64305	The four-city tour continues Friday in Kansas City, Missouri.	The four-city tour continues Friday in Kansas City, Missouri.	3061562	1471997214238	1471997214315	BKSP	8
5977	64305	The four-city tour continues Friday in Kansas City, Missouri.	The four-city tour continues Friday in Kansas City, Missouri.	3061567	1471997214378	1471997214464	BKSP	8
5977	64305	The four-city tour continues Friday in Kansas City, Missouri.	The four-city tour continues Friday in Kansas City, Missouri.	3061571	1471997214870	1471997214951	.	190
5977	64328	I think Tim wants to move quickly.	I think Tim wants to move quickly.	3061747	1471997217542	1471997217797	SHIFT	16
5977	64328	I think Tim wants to move quickly.	I think Tim wants to move quickly.	3061744	1471997217714	1471997217797	I	73
5977	64328	I think Tim wants to move quickly.	I think Tim wants to move quickly.	3061750	1471997219940	1471997220044	 	32
5977	64328	I think Tim wants to move quickly.	I think Tim wants to move quickly.	3061753	1471997220123	1471997220185	t	84
5977	64328	I think Tim wants to move quickly.	I think Tim wants to move quickly.	3061755	1471997220185	1471997220319	h	72
5977	64328	I think Tim wants to move quickly.	I think Tim wants to move quickly.	3061820	1471997220288	1471997220481	i	73
5977	64328	I think Tim wants to move quickly.	I think Tim wants to move quickly.	3061822	1471997220438	1471997220628	n	78
5977	64328	I think Tim wants to move quickly.	I think Tim wants to move quickly.	3061824	1471997220588	1471997220883	k	75
5977	64328	I think Tim wants to move quickly.	I think Tim wants to move quickly.	3061826	1471997221709	1471997221791	 	32
5977	64328	I think Tim wants to move quickly.	I think Tim wants to move quickly.	3061830	1471997221900	1471997222175	SHIFT	16
5977	64328	I think Tim wants to move quickly.	I think Tim wants to move quickly.	3061828	1471997222104	1471997222159	T	84
5977	64328	I think Tim wants to move quickly.	I think Tim wants to move quickly.	3061833	1471997222348	1471997222423	i	73
5977	64328	I think Tim wants to move quickly.	I think Tim wants to move quickly.	3061860	1471997222548	1471997222683	m	77
5977	64328	I think Tim wants to move quickly.	I think Tim wants to move quickly.	3061862	1471997222655	1471997222760	 	32
5977	64328	I think Tim wants to move quickly.	I think Tim wants to move quickly.	3061866	1471997222854	1471997222940	w	87
5977	64328	I think Tim wants to move quickly.	I think Tim wants to move quickly.	3061870	1471997223049	1471997223122	a	65
5977	64328	I think Tim wants to move quickly.	I think Tim wants to move quickly.	3061875	1471997223137	1471997223200	n	78
5977	64328	I think Tim wants to move quickly.	I think Tim wants to move quickly.	3061904	1471997223267	1471997223338	t	84
5977	64328	I think Tim wants to move quickly.	I think Tim wants to move quickly.	3061905	1471997223432	1471997223523	 	32
5977	64328	I think Tim wants to move quickly.	I think Tim wants to move quickly.	3061906	1471997223649	1471997223722	t	84
5977	64328	I think Tim wants to move quickly.	I think Tim wants to move quickly.	3061907	1471997223738	1471997223904	o	79
5977	64328	I think Tim wants to move quickly.	I think Tim wants to move quickly.	3062024	1471997223837	1471997223955	 	32
5977	64328	I think Tim wants to move quickly.	I think Tim wants to move quickly.	3062027	1471997224431	1471997224486	BKSP	8
5977	64328	I think Tim wants to move quickly.	I think Tim wants to move quickly.	3062029	1471997224548	1471997224639	BKSP	8
5977	64328	I think Tim wants to move quickly.	I think Tim wants to move quickly.	3062033	1471997224686	1471997224763	BKSP	8
5977	64328	I think Tim wants to move quickly.	I think Tim wants to move quickly.	3062035	1471997224818	1471997224888	BKSP	8
5977	64328	I think Tim wants to move quickly.	I think Tim wants to move quickly.	3062037	1471997224940	1471997225052	BKSP	8
5977	64328	I think Tim wants to move quickly.	I think Tim wants to move quickly.	3062039	1471997225036	1471997225104	s	83
5977	64328	I think Tim wants to move quickly.	I think Tim wants to move quickly.	3062042	1471997225136	1471997225240	 	32
5977	64328	I think Tim wants to move quickly.	I think Tim wants to move quickly.	3062045	1471997225575	1471997225636	BKSP	8
5977	64328	I think Tim wants to move quickly.	I think Tim wants to move quickly.	3062049	1471997225687	1471997225785	BKSP	8
5977	64328	I think Tim wants to move quickly.	I think Tim wants to move quickly.	3062052	1471997226301	1471997226367	n	78
5977	64328	I think Tim wants to move quickly.	I think Tim wants to move quickly.	3062055	1471997226935	1471997226996	BKSP	8
5977	64328	I think Tim wants to move quickly.	I think Tim wants to move quickly.	3062059	1471997227391	1471997227454	t	84
5977	64328	I think Tim wants to move quickly.	I think Tim wants to move quickly.	3062064	1471997227471	1471997227535	s	83
5977	64328	I think Tim wants to move quickly.	I think Tim wants to move quickly.	3062063	1471997227569	1471997227642	 	32
5977	64328	I think Tim wants to move quickly.	I think Tim wants to move quickly.	3062066	1471997227822	1471997227883	t	84
5977	64328	I think Tim wants to move quickly.	I think Tim wants to move quickly.	3062069	1471997227914	1471997228030	o	79
5977	64328	I think Tim wants to move quickly.	I think Tim wants to move quickly.	3062072	1471997227998	1471997228099	 	32
5977	64328	I think Tim wants to move quickly.	I think Tim wants to move quickly.	3062076	1471997228178	1471997228252	m	77
5977	64328	I think Tim wants to move quickly.	I think Tim wants to move quickly.	3062118	1471997228331	1471997228391	o	79
5977	64328	I think Tim wants to move quickly.	I think Tim wants to move quickly.	3062124	1471997228620	1471997228680	v	86
5977	64328	I think Tim wants to move quickly.	I think Tim wants to move quickly.	3062130	1471997228699	1471997228767	e	69
5977	64328	I think Tim wants to move quickly.	I think Tim wants to move quickly.	3062135	1471997228829	1471997228879	 	32
5977	64328	I think Tim wants to move quickly.	I think Tim wants to move quickly.	3062139	1471997229620	1471997229689	q	81
5977	64328	I think Tim wants to move quickly.	I think Tim wants to move quickly.	3062155	1471997229846	1471997229970	u	85
5977	64328	I think Tim wants to move quickly.	I think Tim wants to move quickly.	3062156	1471997229932	1471997230016	i	73
5977	64328	I think Tim wants to move quickly.	I think Tim wants to move quickly.	3062157	1471997230203	1471997230249	c	67
5977	64328	I think Tim wants to move quickly.	I think Tim wants to move quickly.	3062158	1471997230394	1471997230444	k	75
5977	64328	I think Tim wants to move quickly.	I think Tim wants to move quickly.	3062161	1471997230571	1471997230615	l	76
5977	64328	I think Tim wants to move quickly.	I think Tim wants to move quickly.	3062172	1471997230878	1471997230935	y	89
5977	64328	I think Tim wants to move quickly.	I think Tim wants to move quickly.	3062174	1471997230980	1471997231093	.	190
5977	64341	I'll probably page you.	I'll probably page you.	3062309	1471997234242	1471997234509	SHIFT	16
5977	64341	I'll probably page you.	I'll probably page you.	3062307	1471997234445	1471997234508	I	73
5977	64341	I'll probably page you.	I'll probably page you.	3062310	1471997234855	1471997234911	'	222
5977	64341	I'll probably page you.	I'll probably page you.	3062316	1471997235114	1471997235134	l	76
5977	64341	I'll probably page you.	I'll probably page you.	3062318	1471997235209	1471997235430	l	76
5977	64341	I'll probably page you.	I'll probably page you.	3062343	1471997235413	1471997235442	 	32
5977	64341	I'll probably page you.	I'll probably page you.	3062345	1471997235494	1471997235558	p	80
5977	64341	I'll probably page you.	I'll probably page you.	3062347	1471997235688	1471997235743	r	82
5977	64341	I'll probably page you.	I'll probably page you.	3062349	1471997235821	1471997235880	o	79
5977	64341	I'll probably page you.	I'll probably page you.	3062352	1471997236048	1471997236100	b	66
5977	64341	I'll probably page you.	I'll probably page you.	3062356	1471997236139	1471997236205	a	65
5977	64341	I'll probably page you.	I'll probably page you.	3062401	1471997236279	1471997236323	b	66
5977	64341	I'll probably page you.	I'll probably page you.	3062403	1471997236464	1471997236532	l	76
5977	64341	I'll probably page you.	I'll probably page you.	3062404	1471997236727	1471997236822	y	89
5977	64341	I'll probably page you.	I'll probably page you.	3062406	1471997236822	1471997236891	 	32
5977	64341	I'll probably page you.	I'll probably page you.	3062408	1471997237798	1471997237858	p	80
5977	64341	I'll probably page you.	I'll probably page you.	3062422	1471997237961	1471997238039	a	65
5977	64341	I'll probably page you.	I'll probably page you.	3062424	1471997238086	1471997238144	g	71
5977	64341	I'll probably page you.	I'll probably page you.	3062427	1471997238203	1471997238271	e	69
5977	64341	I'll probably page you.	I'll probably page you.	3062431	1471997238354	1471997238423	 	32
5977	64341	I'll probably page you.	I'll probably page you.	3062433	1471997238627	1471997238690	y	89
5977	64341	I'll probably page you.	I'll probably page you.	3062446	1471997238739	1471997238807	o	79
5977	64341	I'll probably page you.	I'll probably page you.	3062447	1471997238853	1471997238888	u	85
5977	64341	I'll probably page you.	I'll probably page you.	3062449	1471997238956	1471997239020	.	190
5977	64347	Do you want to fax it to my hotel?	Do you want to fax it to my hotel?	3062551	1471997242909	1471997243185	SHIFT	16
5977	64347	Do you want to fax it to my hotel?	Do you want to fax it to my hotel?	3062553	1471997243099	1471997243217	D	68
5977	64347	Do you want to fax it to my hotel?	Do you want to fax it to my hotel?	3062555	1471997243279	1471997243397	o	79
5977	64347	Do you want to fax it to my hotel?	Do you want to fax it to my hotel?	3062559	1471997243364	1471997243466	 	32
5977	64347	Do you want to fax it to my hotel?	Do you want to fax it to my hotel?	3062562	1471997243544	1471997243597	y	89
5977	64347	Do you want to fax it to my hotel?	Do you want to fax it to my hotel?	3062566	1471997243629	1471997243687	o	79
5977	64347	Do you want to fax it to my hotel?	Do you want to fax it to my hotel?	3062575	1471997243716	1471997243774	u	85
5977	64347	Do you want to fax it to my hotel?	Do you want to fax it to my hotel?	3062576	1471997243844	1471997243905	 	32
5977	64347	Do you want to fax it to my hotel?	Do you want to fax it to my hotel?	3062578	1471997244089	1471997244153	w	87
5977	64347	Do you want to fax it to my hotel?	Do you want to fax it to my hotel?	3062580	1471997244259	1471997244330	a	65
5977	64347	Do you want to fax it to my hotel?	Do you want to fax it to my hotel?	3062583	1471997244424	1471997244465	n	78
5977	64347	Do you want to fax it to my hotel?	Do you want to fax it to my hotel?	3062595	1471997244506	1471997244581	t	84
5977	64347	Do you want to fax it to my hotel?	Do you want to fax it to my hotel?	3062598	1471997244659	1471997244730	 	32
5977	64347	Do you want to fax it to my hotel?	Do you want to fax it to my hotel?	3062602	1471997244761	1471997244814	t	84
5977	64347	Do you want to fax it to my hotel?	Do you want to fax it to my hotel?	3062604	1471997244845	1471997244978	o	79
5977	64347	Do you want to fax it to my hotel?	Do you want to fax it to my hotel?	3062606	1471997244978	1471997245048	 	32
5977	64347	Do you want to fax it to my hotel?	Do you want to fax it to my hotel?	3062651	1471997245461	1471997245513	f	70
5977	64347	Do you want to fax it to my hotel?	Do you want to fax it to my hotel?	3062652	1471997245541	1471997245607	a	65
5977	64347	Do you want to fax it to my hotel?	Do you want to fax it to my hotel?	3062654	1471997245757	1471997245830	x	88
5977	64347	Do you want to fax it to my hotel?	Do you want to fax it to my hotel?	3062656	1471997245893	1471997245963	 	32
5977	64347	Do you want to fax it to my hotel?	Do you want to fax it to my hotel?	3062658	1471997246244	1471997246329	i	73
5977	64347	Do you want to fax it to my hotel?	Do you want to fax it to my hotel?	3062688	1471997246312	1471997246377	t	84
5977	64347	Do you want to fax it to my hotel?	Do you want to fax it to my hotel?	3062690	1471997246445	1471997246520	 	32
5977	64347	Do you want to fax it to my hotel?	Do you want to fax it to my hotel?	3062692	1471997246779	1471997246839	t	84
5977	64347	Do you want to fax it to my hotel?	Do you want to fax it to my hotel?	3062693	1471997246873	1471997246991	o	79
5977	64347	Do you want to fax it to my hotel?	Do you want to fax it to my hotel?	3062695	1471997246991	1471997247061	 	32
5977	64347	Do you want to fax it to my hotel?	Do you want to fax it to my hotel?	3062698	1471997247217	1471997247276	m	77
5977	64347	Do you want to fax it to my hotel?	Do you want to fax it to my hotel?	3062721	1471997247423	1471997247540	y	89
5977	64347	Do you want to fax it to my hotel?	Do you want to fax it to my hotel?	3062724	1471997247510	1471997247577	 	32
5977	64347	Do you want to fax it to my hotel?	Do you want to fax it to my hotel?	3062727	1471997247718	1471997247773	h	72
5977	64347	Do you want to fax it to my hotel?	Do you want to fax it to my hotel?	3062730	1471997247905	1471997247961	o	79
5977	64347	Do you want to fax it to my hotel?	Do you want to fax it to my hotel?	3062732	1471997248133	1471997248210	t	84
5977	64347	Do you want to fax it to my hotel?	Do you want to fax it to my hotel?	3062747	1471997248368	1471997248443	e	69
5977	64347	Do you want to fax it to my hotel?	Do you want to fax it to my hotel?	3062748	1471997248506	1471997248550	l	76
5977	64347	Do you want to fax it to my hotel?	Do you want to fax it to my hotel?	3062749	1471997248657	1471997248831	SHIFT	16
5977	64347	Do you want to fax it to my hotel?	Do you want to fax it to my hotel?	3062751	1471997248791	1471997248844	?	191
5977	64352	Do we have anyone in Portland?	Do we have anyone in Portland?	3062823	1471997251273	1471997251723	SHIFT	16
5977	64352	Do we have anyone in Portland?	Do we have anyone in Portland?	3062826	1471997251663	1471997251754	D	68
5977	64352	Do we have anyone in Portland?	Do we have anyone in Portland?	3062831	1471997251801	1471997251871	o	79
5977	64352	Do we have anyone in Portland?	Do we have anyone in Portland?	3062835	1471997252141	1471997252223	 	32
5977	64352	Do we have anyone in Portland?	Do we have anyone in Portland?	3062839	1471997252614	1471997252729	e	69
5977	64352	Do we have anyone in Portland?	Do we have anyone in Portland?	3062889	1471997252724	1471997252773	r	82
5977	64352	Do we have anyone in Portland?	Do we have anyone in Portland?	3062892	1471997252761	1471997252869	 	32
5977	64352	Do we have anyone in Portland?	Do we have anyone in Portland?	3062895	1471997253212	1471997253285	BKSP	8
5977	64352	Do we have anyone in Portland?	Do we have anyone in Portland?	3062897	1471997253357	1471997253422	BKSP	8
5977	64352	Do we have anyone in Portland?	Do we have anyone in Portland?	3062899	1471997253485	1471997253552	BKSP	8
5977	64352	Do we have anyone in Portland?	Do we have anyone in Portland?	3062900	1471997253532	1471997253669	w	87
5977	64352	Do we have anyone in Portland?	Do we have anyone in Portland?	3062902	1471997253604	1471997253732	e	69
5977	64352	Do we have anyone in Portland?	Do we have anyone in Portland?	3062903	1471997253778	1471997253797	 	32
5977	64352	Do we have anyone in Portland?	Do we have anyone in Portland?	3062905	1471997254172	1471997254221	h	72
5977	64352	Do we have anyone in Portland?	Do we have anyone in Portland?	3062933	1471997254247	1471997254318	a	65
5977	64352	Do we have anyone in Portland?	Do we have anyone in Portland?	3062934	1471997254380	1471997254450	v	86
5977	64352	Do we have anyone in Portland?	Do we have anyone in Portland?	3062935	1471997254468	1471997254542	e	69
5977	64352	Do we have anyone in Portland?	Do we have anyone in Portland?	3062937	1471997254601	1471997254670	 	32
5977	64352	Do we have anyone in Portland?	Do we have anyone in Portland?	3062939	1471997255250	1471997255319	a	65
5977	64352	Do we have anyone in Portland?	Do we have anyone in Portland?	3062988	1471997255335	1471997255367	n	78
5977	64352	Do we have anyone in Portland?	Do we have anyone in Portland?	3062989	1471997257015	1471997257073	y	89
5977	64352	Do we have anyone in Portland?	Do we have anyone in Portland?	3062991	1471997257100	1471997257185	o	79
5977	64352	Do we have anyone in Portland?	Do we have anyone in Portland?	3062994	1471997257295	1471997257366	n	78
5977	64352	Do we have anyone in Portland?	Do we have anyone in Portland?	3062997	1471997257382	1471997257465	e	69
5977	64352	Do we have anyone in Portland?	Do we have anyone in Portland?	3063034	1471997257950	1471997258076	 	32
5977	64352	Do we have anyone in Portland?	Do we have anyone in Portland?	3063036	1471997258092	1471997258249	i	73
5977	64352	Do we have anyone in Portland?	Do we have anyone in Portland?	3063038	1471997258180	1471997258317	n	78
5977	64352	Do we have anyone in Portland?	Do we have anyone in Portland?	3063040	1471997258296	1471997258343	 	32
5977	64352	Do we have anyone in Portland?	Do we have anyone in Portland?	3063041	1471997258410	1471997258685	SHIFT	16
5977	64352	Do we have anyone in Portland?	Do we have anyone in Portland?	3063061	1471997258627	1471997258701	P	80
5977	64352	Do we have anyone in Portland?	Do we have anyone in Portland?	3063063	1471997258811	1471997258878	o	79
5977	64352	Do we have anyone in Portland?	Do we have anyone in Portland?	3063066	1471997258977	1471997259048	r	82
5977	64352	Do we have anyone in Portland?	Do we have anyone in Portland?	3063069	1471997259188	1471997259249	t	84
5977	64352	Do we have anyone in Portland?	Do we have anyone in Portland?	3063071	1471997259610	1471997259680	l	76
5977	64352	Do we have anyone in Portland?	Do we have anyone in Portland?	3063073	1471997259711	1471997259778	a	65
5977	64352	Do we have anyone in Portland?	Do we have anyone in Portland?	3063111	1471997259861	1471997259910	n	78
5977	64352	Do we have anyone in Portland?	Do we have anyone in Portland?	3063112	1471997259993	1471997260048	d	68
5977	64352	Do we have anyone in Portland?	Do we have anyone in Portland?	3063114	1471997260513	1471997261042	SHIFT	16
5977	64352	Do we have anyone in Portland?	Do we have anyone in Portland?	3063113	1471997260954	1471997261009	?	191
5977	64357	I meant to try and explain, not to redo.	I meant to try and explain, not to redo.	3063186	1471997263171	1471997263394	SHIFT	16
5977	64357	I meant to try and explain, not to redo.	I meant to try and explain, not to redo.	3063184	1471997263311	1471997263382	I	73
5977	64357	I meant to try and explain, not to redo.	I meant to try and explain, not to redo.	3063188	1471997263535	1471997263625	 	32
5977	64357	I meant to try and explain, not to redo.	I meant to try and explain, not to redo.	3063190	1471997263687	1471997263759	m	77
5977	64357	I meant to try and explain, not to redo.	I meant to try and explain, not to redo.	3063192	1471997263791	1471997263846	e	69
5977	64357	I meant to try and explain, not to redo.	I meant to try and explain, not to redo.	3063193	1471997263968	1471997264043	a	65
5977	64357	I meant to try and explain, not to redo.	I meant to try and explain, not to redo.	3063200	1471997264101	1471997264175	n	78
5977	64357	I meant to try and explain, not to redo.	I meant to try and explain, not to redo.	3063203	1471997264254	1471997264324	t	84
5977	64357	I meant to try and explain, not to redo.	I meant to try and explain, not to redo.	3063205	1471997264371	1471997264461	 	32
5977	64357	I meant to try and explain, not to redo.	I meant to try and explain, not to redo.	3063206	1471997264492	1471997264581	t	84
5977	64357	I meant to try and explain, not to redo.	I meant to try and explain, not to redo.	3063208	1471997264592	1471997264719	o	79
5977	64357	I meant to try and explain, not to redo.	I meant to try and explain, not to redo.	3063228	1471997264690	1471997264822	 	32
5977	64357	I meant to try and explain, not to redo.	I meant to try and explain, not to redo.	3063229	1471997265494	1471997265576	t	84
5977	64357	I meant to try and explain, not to redo.	I meant to try and explain, not to redo.	3063231	1471997265591	1471997265690	r	82
5977	64357	I meant to try and explain, not to redo.	I meant to try and explain, not to redo.	3063234	1471997265690	1471997265830	y	89
5977	64357	I meant to try and explain, not to redo.	I meant to try and explain, not to redo.	3063236	1471997265789	1471997265902	 	32
5977	64357	I meant to try and explain, not to redo.	I meant to try and explain, not to redo.	3063238	1471997266230	1471997266352	a	65
5977	64357	I meant to try and explain, not to redo.	I meant to try and explain, not to redo.	3063260	1471997266352	1471997266465	b	66
5977	64357	I meant to try and explain, not to redo.	I meant to try and explain, not to redo.	3063262	1471997266454	1471997266518	d	68
5977	64357	I meant to try and explain, not to redo.	I meant to try and explain, not to redo.	3063264	1471997266856	1471997266919	=	187
5977	64357	I meant to try and explain, not to redo.	I meant to try and explain, not to redo.	3063265	1471997266971	1471997267040	BKSP	8
5977	64357	I meant to try and explain, not to redo.	I meant to try and explain, not to redo.	3063266	1471997267244	1471997267308	BKSP	8
5977	64357	I meant to try and explain, not to redo.	I meant to try and explain, not to redo.	3063267	1471997267367	1471997267450	BKSP	8
5977	64357	I meant to try and explain, not to redo.	I meant to try and explain, not to redo.	3063268	1471997267855	1471997267925	n	78
5977	64357	I meant to try and explain, not to redo.	I meant to try and explain, not to redo.	3063269	1471997267925	1471997267985	d	68
5977	64357	I meant to try and explain, not to redo.	I meant to try and explain, not to redo.	3063299	1471997268045	1471997268138	 	32
5977	64357	I meant to try and explain, not to redo.	I meant to try and explain, not to redo.	3063302	1471997268372	1471997268456	e	69
5977	64357	I meant to try and explain, not to redo.	I meant to try and explain, not to redo.	3063306	1471997268680	1471997268752	x	88
5977	64357	I meant to try and explain, not to redo.	I meant to try and explain, not to redo.	3063309	1471997268924	1471997269085	p	80
5977	64357	I meant to try and explain, not to redo.	I meant to try and explain, not to redo.	3063364	1471997269012	1471997269138	l	76
5977	64357	I meant to try and explain, not to redo.	I meant to try and explain, not to redo.	3063366	1471997269200	1471997269270	a	65
5977	64357	I meant to try and explain, not to redo.	I meant to try and explain, not to redo.	3063369	1471997269332	1471997269485	i	73
5977	64357	I meant to try and explain, not to redo.	I meant to try and explain, not to redo.	3063372	1471997269418	1471997269612	n	78
5977	64357	I meant to try and explain, not to redo.	I meant to try and explain, not to redo.	3063375	1471997269612	1471997269719	 	32
5977	64357	I meant to try and explain, not to redo.	I meant to try and explain, not to redo.	3063378	1471997269969	1471997270064	BKSP	8
5977	64357	I meant to try and explain, not to redo.	I meant to try and explain, not to redo.	3063380	1471997270914	1471997271026	,	188
5977	64357	I meant to try and explain, not to redo.	I meant to try and explain, not to redo.	3063401	1471997270999	1471997271097	 	32
5977	64357	I meant to try and explain, not to redo.	I meant to try and explain, not to redo.	3063402	1471997271425	1471997271482	n	78
5977	64357	I meant to try and explain, not to redo.	I meant to try and explain, not to redo.	3063404	1471997271701	1471997271765	o	79
5977	64357	I meant to try and explain, not to redo.	I meant to try and explain, not to redo.	3063408	1471997271875	1471997271974	t	84
5977	64357	I meant to try and explain, not to redo.	I meant to try and explain, not to redo.	3063412	1471997272021	1471997272116	 	32
5977	64357	I meant to try and explain, not to redo.	I meant to try and explain, not to redo.	3063417	1471997272279	1471997272348	t	84
5977	64357	I meant to try and explain, not to redo.	I meant to try and explain, not to redo.	3063442	1471997272364	1471997272458	o	79
5977	64357	I meant to try and explain, not to redo.	I meant to try and explain, not to redo.	3063443	1471997272433	1471997272532	 	32
5977	64357	I meant to try and explain, not to redo.	I meant to try and explain, not to redo.	3063444	1471997273078	1471997273190	r	82
5977	64357	I meant to try and explain, not to redo.	I meant to try and explain, not to redo.	3063445	1471997273132	1471997273277	e	69
5977	64357	I meant to try and explain, not to redo.	I meant to try and explain, not to redo.	3063446	1471997273386	1471997273465	d	68
5977	64357	I meant to try and explain, not to redo.	I meant to try and explain, not to redo.	3063458	1471997273531	1471997273584	o	79
5977	64357	I meant to try and explain, not to redo.	I meant to try and explain, not to redo.	3063459	1471997273715	1471997273842	.	190
5977	64368	Do you need it today?	Do you need it today?	3063511	1471997276433	1471997276659	SHIFT	16
5977	64368	Do you need it today?	Do you need it today?	3063515	1471997276590	1471997276696	D	68
5977	64368	Do you need it today?	Do you need it today?	3063518	1471997276727	1471997276905	o	79
5977	64368	Do you need it today?	Do you need it today?	3063521	1471997276921	1471997276992	 	32
5977	64368	Do you need it today?	Do you need it today?	3063525	1471997277071	1471997277147	y	89
5977	64368	Do you need it today?	Do you need it today?	3063528	1471997277147	1471997277183	o	79
5977	64368	Do you need it today?	Do you need it today?	3063542	1471997277260	1471997277310	u	85
5977	64368	Do you need it today?	Do you need it today?	3063543	1471997277341	1471997277411	 	32
5977	64368	Do you need it today?	Do you need it today?	3063545	1471997277839	1471997277891	n	78
5977	64368	Do you need it today?	Do you need it today?	3063548	1471997277942	1471997278025	e	69
5977	64368	Do you need it today?	Do you need it today?	3063552	1471997278119	1471997278254	e	69
5977	64368	Do you need it today?	Do you need it today?	3063560	1471997278270	1471997278390	d	68
5977	64368	Do you need it today?	Do you need it today?	3063561	1471997278452	1471997278541	 	32
5977	64368	Do you need it today?	Do you need it today?	3063562	1471997278720	1471997278793	i	73
5977	64368	Do you need it today?	Do you need it today?	3063563	1471997278838	1471997278908	t	84
5977	64368	Do you need it today?	Do you need it today?	3063565	1471997278937	1471997278993	 	32
5977	64368	Do you need it today?	Do you need it today?	3063591	1471997279112	1471997279170	t	84
5977	64368	Do you need it today?	Do you need it today?	3063593	1471997279222	1471997279280	o	79
5977	64368	Do you need it today?	Do you need it today?	3063596	1471997279560	1471997279627	d	68
5977	64368	Do you need it today?	Do you need it today?	3063598	1471997279843	1471997279907	a	65
5977	64368	Do you need it today?	Do you need it today?	3063600	1471997279907	1471997279986	y	89
5977	64368	Do you need it today?	Do you need it today?	3063608	1471997280327	1471997280558	SHIFT	16
5977	64368	Do you need it today?	Do you need it today?	3063606	1471997280480	1471997280549	?	191
5977	64370	We haven't sold the US business as yet.	We haven't sold the US buisiness as yet.	3063768	1471997286344	1471997286550	SHIFT	16
5977	64370	We haven't sold the US business as yet.	We haven't sold the US buisiness as yet.	3063772	1471997286468	1471997286581	W	87
5977	64370	We haven't sold the US business as yet.	We haven't sold the US buisiness as yet.	3063775	1471997286628	1471997286714	e	69
5977	64370	We haven't sold the US business as yet.	We haven't sold the US buisiness as yet.	3063779	1471997286777	1471997286851	 	32
5977	64370	We haven't sold the US business as yet.	We haven't sold the US buisiness as yet.	3063783	1471997286992	1471997287051	h	72
5977	64370	We haven't sold the US business as yet.	We haven't sold the US buisiness as yet.	3063785	1471997287066	1471997287135	a	65
5977	64370	We haven't sold the US business as yet.	We haven't sold the US buisiness as yet.	3063797	1471997287198	1471997287244	v	86
5977	64370	We haven't sold the US business as yet.	We haven't sold the US buisiness as yet.	3063798	1471997287281	1471997287359	e	69
5977	64370	We haven't sold the US business as yet.	We haven't sold the US buisiness as yet.	3063799	1471997287535	1471997287636	n	78
5977	64370	We haven't sold the US business as yet.	We haven't sold the US buisiness as yet.	3063800	1471997287761	1471997287846	'	222
5977	64370	We haven't sold the US business as yet.	We haven't sold the US buisiness as yet.	3063801	1471997288034	1471997288130	t	84
5977	64370	We haven't sold the US business as yet.	We haven't sold the US buisiness as yet.	3063812	1471997288150	1471997288247	 	32
5977	64370	We haven't sold the US business as yet.	We haven't sold the US buisiness as yet.	3063813	1471997288356	1471997288477	s	83
5977	64370	We haven't sold the US business as yet.	We haven't sold the US buisiness as yet.	3063814	1471997288539	1471997288613	o	79
5977	64370	We haven't sold the US business as yet.	We haven't sold the US buisiness as yet.	3063815	1471997288677	1471997288752	l	76
5977	64370	We haven't sold the US business as yet.	We haven't sold the US buisiness as yet.	3063816	1471997288765	1471997288849	d	68
5977	64370	We haven't sold the US business as yet.	We haven't sold the US buisiness as yet.	3063832	1471997288879	1471997288962	 	32
5977	64370	We haven't sold the US business as yet.	We haven't sold the US buisiness as yet.	3063835	1471997289024	1471997289094	t	84
5977	64370	We haven't sold the US business as yet.	We haven't sold the US buisiness as yet.	3063838	1471997289097	1471997289146	h	72
5977	64370	We haven't sold the US business as yet.	We haven't sold the US buisiness as yet.	3063841	1471997289303	1471997289379	e	69
5977	64370	We haven't sold the US business as yet.	We haven't sold the US buisiness as yet.	3063843	1471997289444	1471997289494	 	32
5977	64370	We haven't sold the US business as yet.	We haven't sold the US buisiness as yet.	3063900	1471997289567	1471997290045	SHIFT	16
5977	64370	We haven't sold the US business as yet.	We haven't sold the US buisiness as yet.	3063899	1471997289739	1471997289793	U	85
5977	64370	We haven't sold the US business as yet.	We haven't sold the US buisiness as yet.	3063902	1471997289970	1471997290107	S	83
5977	64370	We haven't sold the US business as yet.	We haven't sold the US buisiness as yet.	3063904	1471997290326	1471997290395	 	32
5977	64370	We haven't sold the US business as yet.	We haven't sold the US buisiness as yet.	3063906	1471997290803	1471997290877	b	66
5977	64370	We haven't sold the US business as yet.	We haven't sold the US buisiness as yet.	3063908	1471997291330	1471997291438	u	85
5977	64370	We haven't sold the US business as yet.	We haven't sold the US buisiness as yet.	3063935	1471997291411	1471997291507	i	73
5977	64370	We haven't sold the US business as yet.	We haven't sold the US buisiness as yet.	3063936	1471997291741	1471997291878	s	83
5977	64370	We haven't sold the US business as yet.	We haven't sold the US buisiness as yet.	3063938	1471997292097	1471997292176	s	83
5977	64370	We haven't sold the US business as yet.	We haven't sold the US buisiness as yet.	3063940	1471997292521	1471997292596	n	78
5977	64370	We haven't sold the US business as yet.	We haven't sold the US buisiness as yet.	3063942	1471997292658	1471997292741	e	69
5977	64370	We haven't sold the US business as yet.	We haven't sold the US buisiness as yet.	3063944	1471997292850	1471997292925	d	68
5977	64370	We haven't sold the US business as yet.	We haven't sold the US buisiness as yet.	3063962	1471997293200	1471997293278	BKSP	8
5977	64370	We haven't sold the US business as yet.	We haven't sold the US buisiness as yet.	3063963	1471997293356	1471997293433	s	83
5977	64370	We haven't sold the US business as yet.	We haven't sold the US buisiness as yet.	3063964	1471997293504	1471997293573	s	83
5977	64370	We haven't sold the US business as yet.	We haven't sold the US buisiness as yet.	3063965	1471997293683	1471997293773	 	32
5977	64370	We haven't sold the US business as yet.	We haven't sold the US buisiness as yet.	3063966	1471997293929	1471997294024	a	65
5977	64370	We haven't sold the US business as yet.	We haven't sold the US buisiness as yet.	3063967	1471997294086	1471997294160	s	83
5977	64370	We haven't sold the US business as yet.	We haven't sold the US buisiness as yet.	3063982	1471997294261	1471997294315	 	32
5977	64370	We haven't sold the US business as yet.	We haven't sold the US buisiness as yet.	3063983	1471997294801	1471997294857	y	89
5977	64370	We haven't sold the US business as yet.	We haven't sold the US buisiness as yet.	3063984	1471997294891	1471997294954	e	69
5977	64370	We haven't sold the US business as yet.	We haven't sold the US buisiness as yet.	3063985	1471997295080	1471997295141	s	83
5977	64370	We haven't sold the US business as yet.	We haven't sold the US buisiness as yet.	3063986	1471997295204	1471997295255	t	84
5977	64370	We haven't sold the US business as yet.	We haven't sold the US buisiness as yet.	3064131	1471997295533	1471997295590	,	188
5977	64370	We haven't sold the US business as yet.	We haven't sold the US buisiness as yet.	3064133	1471997295554	1471997295594	.	190
5977	64370	We haven't sold the US business as yet.	We haven't sold the US buisiness as yet.	3064136	1471997296393	1471997296453	BKSP	8
5977	64370	We haven't sold the US business as yet.	We haven't sold the US buisiness as yet.	3064139	1471997296521	1471997296589	BKSP	8
5977	64370	We haven't sold the US business as yet.	We haven't sold the US buisiness as yet.	3064141	1471997296683	1471997296750	BKSP	8
5977	64370	We haven't sold the US business as yet.	We haven't sold the US buisiness as yet.	3064143	1471997301548	1471997301631	BKSP	8
5977	64370	We haven't sold the US business as yet.	We haven't sold the US buisiness as yet.	3064145	1471997301724	1471997301782	i	73
5977	64370	We haven't sold the US business as yet.	We haven't sold the US buisiness as yet.	3064147	1471997304003	1471997304065	BKSP	8
5977	64370	We haven't sold the US business as yet.	We haven't sold the US buisiness as yet.	3064149	1471997304087	1471997304148	t	84
5977	64370	We haven't sold the US business as yet.	We haven't sold the US buisiness as yet.	3064150	1471997304242	1471997304359	.	190
5977	64385	I spoke with Lara Robinson this morning.	I spoke with Lara Robinson this morning.	3064196	1471997306545	1471997306752	SHIFT	16
5977	64385	I spoke with Lara Robinson this morning.	I spoke with Lara Robinson this morning.	3064198	1471997306670	1471997306791	I	73
5977	64385	I spoke with Lara Robinson this morning.	I spoke with Lara Robinson this morning.	3064200	1471997306760	1471997306873	 	32
5977	64385	I spoke with Lara Robinson this morning.	I spoke with Lara Robinson this morning.	3064202	1471997307092	1471997307155	s	83
5977	64385	I spoke with Lara Robinson this morning.	I spoke with Lara Robinson this morning.	3064204	1471997307362	1471997307456	o	79
5977	64385	I spoke with Lara Robinson this morning.	I spoke with Lara Robinson this morning.	3064206	1471997307942	1471997308009	BKSP	8
5977	64385	I spoke with Lara Robinson this morning.	I spoke with Lara Robinson this morning.	3064208	1471997308181	1471997308243	p	80
5977	64385	I spoke with Lara Robinson this morning.	I spoke with Lara Robinson this morning.	3064225	1471997308340	1471997308407	o	79
5977	64385	I spoke with Lara Robinson this morning.	I spoke with Lara Robinson this morning.	3064228	1471997308548	1471997308622	k	75
5977	64385	I spoke with Lara Robinson this morning.	I spoke with Lara Robinson this morning.	3064231	1471997308638	1471997308681	w	87
5977	64385	I spoke with Lara Robinson this morning.	I spoke with Lara Robinson this morning.	3064234	1471997308791	1471997308861	 	32
5977	64385	I spoke with Lara Robinson this morning.	I spoke with Lara Robinson this morning.	3064236	1471997309141	1471997309191	BKSP	8
5977	64385	I spoke with Lara Robinson this morning.	I spoke with Lara Robinson this morning.	3064240	1471997309254	1471997309341	BKSP	8
5977	64385	I spoke with Lara Robinson this morning.	I spoke with Lara Robinson this morning.	3064271	1471997309301	1471997309378	e	69
5977	64385	I spoke with Lara Robinson this morning.	I spoke with Lara Robinson this morning.	3064272	1471997309424	1471997309471	 	32
5977	64385	I spoke with Lara Robinson this morning.	I spoke with Lara Robinson this morning.	3064273	1471997311620	1471997311697	w	87
5977	64385	I spoke with Lara Robinson this morning.	I spoke with Lara Robinson this morning.	3064274	1471997311737	1471997311819	i	73
5977	64385	I spoke with Lara Robinson this morning.	I spoke with Lara Robinson this morning.	3064276	1471997311882	1471997311967	t	84
5977	64385	I spoke with Lara Robinson this morning.	I spoke with Lara Robinson this morning.	3064278	1471997311967	1471997312089	h	72
5977	64385	I spoke with Lara Robinson this morning.	I spoke with Lara Robinson this morning.	3064287	1471997312069	1471997312137	 	32
5977	64385	I spoke with Lara Robinson this morning.	I spoke with Lara Robinson this morning.	3064288	1471997312173	1471997312435	SHIFT	16
5977	64385	I spoke with Lara Robinson this morning.	I spoke with Lara Robinson this morning.	3064289	1471997312392	1471997312455	L	76
5977	64385	I spoke with Lara Robinson this morning.	I spoke with Lara Robinson this morning.	3064290	1471997312571	1471997312688	a	65
5977	64385	I spoke with Lara Robinson this morning.	I spoke with Lara Robinson this morning.	3064291	1471997312797	1471997312869	r	82
5977	64385	I spoke with Lara Robinson this morning.	I spoke with Lara Robinson this morning.	3064292	1471997312963	1471997313083	a	65
5977	64385	I spoke with Lara Robinson this morning.	I spoke with Lara Robinson this morning.	3064293	1471997313129	1471997313185	 	32
5977	64385	I spoke with Lara Robinson this morning.	I spoke with Lara Robinson this morning.	3064344	1471997313400	1471997313634	z	90
5977	64385	I spoke with Lara Robinson this morning.	I spoke with Lara Robinson this morning.	3064345	1471997313562	1471997313649	r	82
5977	64385	I spoke with Lara Robinson this morning.	I spoke with Lara Robinson this morning.	3064346	1471997314199	1471997314251	o	79
5977	64385	I spoke with Lara Robinson this morning.	I spoke with Lara Robinson this morning.	3064347	1471997314627	1471997314684	b	66
5977	64385	I spoke with Lara Robinson this morning.	I spoke with Lara Robinson this morning.	3064348	1471997314809	1471997315017	i	73
5977	64385	I spoke with Lara Robinson this morning.	I spoke with Lara Robinson this morning.	3064406	1471997314946	1471997315067	n	78
5977	64385	I spoke with Lara Robinson this morning.	I spoke with Lara Robinson this morning.	3064411	1471997315160	1471997315267	s	83
5977	64385	I spoke with Lara Robinson this morning.	I spoke with Lara Robinson this morning.	3064415	1471997315267	1471997315467	o	79
5977	64385	I spoke with Lara Robinson this morning.	I spoke with Lara Robinson this morning.	3064419	1471997315411	1471997315591	n	78
5977	64385	I spoke with Lara Robinson this morning.	I spoke with Lara Robinson this morning.	3064423	1471997315561	1471997315677	 	32
5977	64385	I spoke with Lara Robinson this morning.	I spoke with Lara Robinson this morning.	3064427	1471997316256	1471997316330	BKSP	8
5977	64385	I spoke with Lara Robinson this morning.	I spoke with Lara Robinson this morning.	3064429	1471997316393	1471997316465	BKSP	8
5977	64385	I spoke with Lara Robinson this morning.	I spoke with Lara Robinson this morning.	3064431	1471997316528	1471997316597	BKSP	8
5977	64385	I spoke with Lara Robinson this morning.	I spoke with Lara Robinson this morning.	3064433	1471997316659	1471997316748	BKSP	8
5977	64385	I spoke with Lara Robinson this morning.	I spoke with Lara Robinson this morning.	3064434	1471997316811	1471997316882	BKSP	8
5977	64385	I spoke with Lara Robinson this morning.	I spoke with Lara Robinson this morning.	3064435	1471997316950	1471997317032	BKSP	8
5977	64385	I spoke with Lara Robinson this morning.	I spoke with Lara Robinson this morning.	3064437	1471997317099	1471997317176	BKSP	8
5977	64385	I spoke with Lara Robinson this morning.	I spoke with Lara Robinson this morning.	3064439	1471997317242	1471997317313	BKSP	8
5977	64385	I spoke with Lara Robinson this morning.	I spoke with Lara Robinson this morning.	3064441	1471997317380	1471997317459	BKSP	8
5977	64385	I spoke with Lara Robinson this morning.	I spoke with Lara Robinson this morning.	3064445	1471997317579	1471997317638	BKSP	8
5977	64385	I spoke with Lara Robinson this morning.	I spoke with Lara Robinson this morning.	3064448	1471997317834	1471997318196	SHIFT	16
5977	64385	I spoke with Lara Robinson this morning.	I spoke with Lara Robinson this morning.	3064454	1471997318138	1471997318208	R	82
5977	64385	I spoke with Lara Robinson this morning.	I spoke with Lara Robinson this morning.	3064457	1471997318306	1471997318358	o	79
5977	64385	I spoke with Lara Robinson this morning.	I spoke with Lara Robinson this morning.	3064459	1471997318502	1471997318579	b	66
5977	64385	I spoke with Lara Robinson this morning.	I spoke with Lara Robinson this morning.	3064461	1471997318676	1471997318879	i	73
5977	64385	I spoke with Lara Robinson this morning.	I spoke with Lara Robinson this morning.	3064463	1471997318826	1471997318942	n	78
5977	64385	I spoke with Lara Robinson this morning.	I spoke with Lara Robinson this morning.	3064465	1471997319067	1471997319132	s	83
5977	64385	I spoke with Lara Robinson this morning.	I spoke with Lara Robinson this morning.	3064477	1471997319180	1471997319362	o	79
5977	64385	I spoke with Lara Robinson this morning.	I spoke with Lara Robinson this morning.	3064480	1471997319310	1471997319458	n	78
5977	64385	I spoke with Lara Robinson this morning.	I spoke with Lara Robinson this morning.	3064485	1471997319395	1471997319540	 	32
5977	64385	I spoke with Lara Robinson this morning.	I spoke with Lara Robinson this morning.	3064489	1471997319830	1471997319892	t	84
5977	64385	I spoke with Lara Robinson this morning.	I spoke with Lara Robinson this morning.	3064491	1471997319910	1471997319978	h	72
5977	64385	I spoke with Lara Robinson this morning.	I spoke with Lara Robinson this morning.	3064499	1471997320041	1471997320112	i	73
5977	64385	I spoke with Lara Robinson this morning.	I spoke with Lara Robinson this morning.	3064502	1471997320143	1471997320218	s	83
5977	64385	I spoke with Lara Robinson this morning.	I spoke with Lara Robinson this morning.	3064507	1471997320258	1471997320329	 	32
5977	64385	I spoke with Lara Robinson this morning.	I spoke with Lara Robinson this morning.	3064510	1471997320506	1471997320599	m	77
5977	64385	I spoke with Lara Robinson this morning.	I spoke with Lara Robinson this morning.	3064512	1471997320661	1471997320741	o	79
5977	64385	I spoke with Lara Robinson this morning.	I spoke with Lara Robinson this morning.	3064529	1471997320820	1471997320892	r	82
5977	64385	I spoke with Lara Robinson this morning.	I spoke with Lara Robinson this morning.	3064531	1471997320986	1471997321179	i	73
5977	64385	I spoke with Lara Robinson this morning.	I spoke with Lara Robinson this morning.	3064533	1471997321122	1471997321254	n	78
5977	64385	I spoke with Lara Robinson this morning.	I spoke with Lara Robinson this morning.	3064536	1471997321316	1471997321388	g	71
5977	64385	I spoke with Lara Robinson this morning.	I spoke with Lara Robinson this morning.	3064539	1471997321585	1471997321617	.	190
5977	64385	I spoke with Lara Robinson this morning.	I spoke with Lara Robinson this morning.	3064592	1471997322096	1471997322175	BKSP	8
5977	64385	I spoke with Lara Robinson this morning.	I spoke with Lara Robinson this morning.	3064593	1471997322237	1471997322307	BKSP	8
5977	64385	I spoke with Lara Robinson this morning.	I spoke with Lara Robinson this morning.	3064594	1471997322385	1471997322433	BKSP	8
5977	64385	I spoke with Lara Robinson this morning.	I spoke with Lara Robinson this morning.	3064595	1471997322492	1471997322573	BKSP	8
5977	64385	I spoke with Lara Robinson this morning.	I spoke with Lara Robinson this morning.	3064596	1471997322885	1471997322957	n	78
5977	64385	I spoke with Lara Robinson this morning.	I spoke with Lara Robinson this morning.	3064597	1471997323019	1471997323185	i	73
5977	64385	I spoke with Lara Robinson this morning.	I spoke with Lara Robinson this morning.	3064598	1471997323169	1471997323227	n	78
5977	64385	I spoke with Lara Robinson this morning.	I spoke with Lara Robinson this morning.	3064599	1471997323219	1471997323273	g	71
5977	64385	I spoke with Lara Robinson this morning.	I spoke with Lara Robinson this morning.	3064600	1471997323335	1471997323406	.	190
5977	64393	Trust me, the men are the ones showing restraint.	Trust me, the men are the ones showing restraint.	3064665	1471997325571	1471997325814	SHIFT	16
5977	64393	Trust me, the men are the ones showing restraint.	Trust me, the men are the ones showing restraint.	3064668	1471997325790	1471997325853	T	84
5977	64393	Trust me, the men are the ones showing restraint.	Trust me, the men are the ones showing restraint.	3064670	1471997325994	1471997326069	r	82
5977	64393	Trust me, the men are the ones showing restraint.	Trust me, the men are the ones showing restraint.	3064672	1471997326210	1471997326279	u	85
5977	64393	Trust me, the men are the ones showing restraint.	Trust me, the men are the ones showing restraint.	3064674	1471997326576	1471997326652	s	83
5977	64393	Trust me, the men are the ones showing restraint.	Trust me, the men are the ones showing restraint.	3064675	1471997326699	1471997326756	t	84
5977	64393	Trust me, the men are the ones showing restraint.	Trust me, the men are the ones showing restraint.	3064687	1471997327131	1471997327233	 	32
5977	64393	Trust me, the men are the ones showing restraint.	Trust me, the men are the ones showing restraint.	3064688	1471997327304	1471997327407	m	77
5977	64393	Trust me, the men are the ones showing restraint.	Trust me, the men are the ones showing restraint.	3064689	1471997327388	1471997327470	e	69
5977	64393	Trust me, the men are the ones showing restraint.	Trust me, the men are the ones showing restraint.	3064690	1471997327673	1471997327815	,	188
5977	64393	Trust me, the men are the ones showing restraint.	Trust me, the men are the ones showing restraint.	3064691	1471997327815	1471997327885	 	32
5977	64393	Trust me, the men are the ones showing restraint.	Trust me, the men are the ones showing restraint.	3064704	1471997328483	1471997328535	t	84
5977	64393	Trust me, the men are the ones showing restraint.	Trust me, the men are the ones showing restraint.	3064706	1471997328535	1471997328602	h	72
5977	64393	Trust me, the men are the ones showing restraint.	Trust me, the men are the ones showing restraint.	3064707	1471997328681	1471997328766	e	69
5977	64393	Trust me, the men are the ones showing restraint.	Trust me, the men are the ones showing restraint.	3064709	1471997328766	1471997328848	 	32
5977	64393	Trust me, the men are the ones showing restraint.	Trust me, the men are the ones showing restraint.	3064710	1471997329114	1471997329159	m	77
5977	64393	Trust me, the men are the ones showing restraint.	Trust me, the men are the ones showing restraint.	3064725	1471997329204	1471997329264	e	69
5977	64393	Trust me, the men are the ones showing restraint.	Trust me, the men are the ones showing restraint.	3064726	1471997329276	1471997329400	n	78
5977	64393	Trust me, the men are the ones showing restraint.	Trust me, the men are the ones showing restraint.	3064727	1471997329431	1471997329547	 	32
5977	64393	Trust me, the men are the ones showing restraint.	Trust me, the men are the ones showing restraint.	3064728	1471997329881	1471997329964	a	65
5977	64393	Trust me, the men are the ones showing restraint.	Trust me, the men are the ones showing restraint.	3064729	1471997330115	1471997330212	r	82
5977	64393	Trust me, the men are the ones showing restraint.	Trust me, the men are the ones showing restraint.	3064740	1471997330198	1471997330295	e	69
5977	64393	Trust me, the men are the ones showing restraint.	Trust me, the men are the ones showing restraint.	3064741	1471997330295	1471997330379	 	32
5977	64393	Trust me, the men are the ones showing restraint.	Trust me, the men are the ones showing restraint.	3064742	1471997330442	1471997330516	t	84
5977	64393	Trust me, the men are the ones showing restraint.	Trust me, the men are the ones showing restraint.	3064743	1471997330516	1471997330578	h	72
5977	64393	Trust me, the men are the ones showing restraint.	Trust me, the men are the ones showing restraint.	3064744	1471997330774	1471997330861	e	69
5977	64393	Trust me, the men are the ones showing restraint.	Trust me, the men are the ones showing restraint.	3064745	1471997330955	1471997330998	 	32
5977	64393	Trust me, the men are the ones showing restraint.	Trust me, the men are the ones showing restraint.	3064787	1471997331563	1471997331629	o	79
5977	64393	Trust me, the men are the ones showing restraint.	Trust me, the men are the ones showing restraint.	3064791	1471997331786	1471997331863	n	78
5977	64393	Trust me, the men are the ones showing restraint.	Trust me, the men are the ones showing restraint.	3064794	1471997332113	1471997332244	e	69
5977	64393	Trust me, the men are the ones showing restraint.	Trust me, the men are the ones showing restraint.	3064797	1471997332369	1471997332462	s	83
5977	64393	Trust me, the men are the ones showing restraint.	Trust me, the men are the ones showing restraint.	3064800	1471997333043	1471997333175	 	32
5977	64393	Trust me, the men are the ones showing restraint.	Trust me, the men are the ones showing restraint.	3064831	1471997333381	1471997333460	s	83
5977	64393	Trust me, the men are the ones showing restraint.	Trust me, the men are the ones showing restraint.	3064833	1471997333509	1471997333578	h	72
5977	64393	Trust me, the men are the ones showing restraint.	Trust me, the men are the ones showing restraint.	3064834	1471997333687	1471997333762	o	79
5977	64393	Trust me, the men are the ones showing restraint.	Trust me, the men are the ones showing restraint.	3064835	1471997333745	1471997333816	w	87
5977	64393	Trust me, the men are the ones showing restraint.	Trust me, the men are the ones showing restraint.	3064836	1471997334188	1471997334339	i	73
5977	64393	Trust me, the men are the ones showing restraint.	Trust me, the men are the ones showing restraint.	3064868	1471997334354	1471997334474	n	78
5977	64393	Trust me, the men are the ones showing restraint.	Trust me, the men are the ones showing restraint.	3064869	1471997334615	1471997334693	 	32
5977	64393	Trust me, the men are the ones showing restraint.	Trust me, the men are the ones showing restraint.	3064870	1471997334912	1471997334979	BKSP	8
5977	64393	Trust me, the men are the ones showing restraint.	Trust me, the men are the ones showing restraint.	3064871	1471997335041	1471997335111	BKSP	8
5977	64393	Trust me, the men are the ones showing restraint.	Trust me, the men are the ones showing restraint.	3064873	1471997335107	1471997335172	g	71
5977	64393	Trust me, the men are the ones showing restraint.	Trust me, the men are the ones showing restraint.	3064875	1471997335238	1471997335304	 	32
5977	64393	Trust me, the men are the ones showing restraint.	Trust me, the men are the ones showing restraint.	3064877	1471997335600	1471997335682	BKSP	8
5977	64393	Trust me, the men are the ones showing restraint.	Trust me, the men are the ones showing restraint.	3064879	1471997335709	1471997335792	BKSP	8
5977	64393	Trust me, the men are the ones showing restraint.	Trust me, the men are the ones showing restraint.	3064881	1471997335995	1471997336059	n	78
5977	64393	Trust me, the men are the ones showing restraint.	Trust me, the men are the ones showing restraint.	3064913	1471997336051	1471997336107	g	71
5977	64393	Trust me, the men are the ones showing restraint.	Trust me, the men are the ones showing restraint.	3064917	1471997336202	1471997336257	 	32
5977	64393	Trust me, the men are the ones showing restraint.	Trust me, the men are the ones showing restraint.	3064922	1471997336980	1471997337078	r	82
5977	64393	Trust me, the men are the ones showing restraint.	Trust me, the men are the ones showing restraint.	3064927	1471997337041	1471997337139	e	69
5977	64393	Trust me, the men are the ones showing restraint.	Trust me, the men are the ones showing restraint.	3064930	1471997337280	1471997337341	s	83
5977	64393	Trust me, the men are the ones showing restraint.	Trust me, the men are the ones showing restraint.	3064932	1471997337388	1471997337457	t	84
5977	64393	Trust me, the men are the ones showing restraint.	Trust me, the men are the ones showing restraint.	3064996	1471997337979	1471997338047	r	82
5977	64393	Trust me, the men are the ones showing restraint.	Trust me, the men are the ones showing restraint.	3064998	1471997338400	1471997338445	a	65
5977	64393	Trust me, the men are the ones showing restraint.	Trust me, the men are the ones showing restraint.	3065001	1471997338520	1471997338744	i	73
5977	64393	Trust me, the men are the ones showing restraint.	Trust me, the men are the ones showing restraint.	3065004	1471997339279	1471997339369	n	78
5977	64393	Trust me, the men are the ones showing restraint.	Trust me, the men are the ones showing restraint.	3065007	1471997339951	1471997340004	t	84
5977	64393	Trust me, the men are the ones showing restraint.	Trust me, the men are the ones showing restraint.	3065027	1471997340327	1471997340499	.	190
5977	64403	The meteor shower was incredible last night.	The meteor shower was incredible last night.	3065114	1471997343784	1471997344017	SHIFT	16
5977	64403	The meteor shower was incredible last night.	The meteor shower was incredible last night.	3065111	1471997343942	1471997344002	T	84
5977	64403	The meteor shower was incredible last night.	The meteor shower was incredible last night.	3065117	1471997344095	1471997344181	h	72
5977	64403	The meteor shower was incredible last night.	The meteor shower was incredible last night.	3065120	1471997344197	1471997344266	e	69
5977	64403	The meteor shower was incredible last night.	The meteor shower was incredible last night.	3065123	1471997344313	1471997344396	 	32
5977	64403	The meteor shower was incredible last night.	The meteor shower was incredible last night.	3065124	1471997344599	1471997344658	m	77
5977	64403	The meteor shower was incredible last night.	The meteor shower was incredible last night.	3065145	1471997344705	1471997344780	e	69
5977	64403	The meteor shower was incredible last night.	The meteor shower was incredible last night.	3065147	1471997344936	1471997345014	t	84
5977	64403	The meteor shower was incredible last night.	The meteor shower was incredible last night.	3065149	1471997345488	1471997345548	e	69
5977	64403	The meteor shower was incredible last night.	The meteor shower was incredible last night.	3065152	1471997345642	1471997345760	o	79
5977	64403	The meteor shower was incredible last night.	The meteor shower was incredible last night.	3065156	1471997346025	1471997346088	r	82
5977	64403	The meteor shower was incredible last night.	The meteor shower was incredible last night.	3065189	1471997346121	1471997346210	 	32
5977	64403	The meteor shower was incredible last night.	The meteor shower was incredible last night.	3065190	1471997346994	1471997347095	s	83
5977	64403	The meteor shower was incredible last night.	The meteor shower was incredible last night.	3065191	1471997347186	1471997347234	h	72
5977	64403	The meteor shower was incredible last night.	The meteor shower was incredible last night.	3065193	1471997347339	1471997347410	o	79
5977	64403	The meteor shower was incredible last night.	The meteor shower was incredible last night.	3065195	1471997347473	1471997347561	w	87
5977	64403	The meteor shower was incredible last night.	The meteor shower was incredible last night.	3065211	1471997347691	1471997347808	e	69
5977	64403	The meteor shower was incredible last night.	The meteor shower was incredible last night.	3065212	1471997347824	1471997347944	r	82
5977	64403	The meteor shower was incredible last night.	The meteor shower was incredible last night.	3065213	1471997348311	1471997348408	 	32
5977	64403	The meteor shower was incredible last night.	The meteor shower was incredible last night.	3065215	1471997348502	1471997348580	w	87
5977	64403	The meteor shower was incredible last night.	The meteor shower was incredible last night.	3065217	1471997348752	1471997348918	a	65
5977	64403	The meteor shower was incredible last night.	The meteor shower was incredible last night.	3065259	1471997348858	1471997348974	s	83
5977	64403	The meteor shower was incredible last night.	The meteor shower was incredible last night.	3065260	1471997348974	1471997349093	 	32
5977	64403	The meteor shower was incredible last night.	The meteor shower was incredible last night.	3065261	1471997349484	1471997349754	i	73
5977	64403	The meteor shower was incredible last night.	The meteor shower was incredible last night.	3065263	1471997349716	1471997349822	n	78
5977	64403	The meteor shower was incredible last night.	The meteor shower was incredible last night.	3065265	1471997349901	1471997349992	c	67
5977	64403	The meteor shower was incredible last night.	The meteor shower was incredible last night.	3065267	1471997350195	1471997350351	r	82
5977	64403	The meteor shower was incredible last night.	The meteor shower was incredible last night.	3065298	1471997350337	1471997350427	e	69
5977	64403	The meteor shower was incredible last night.	The meteor shower was incredible last night.	3065299	1471997350617	1471997350692	d	68
5977	64403	The meteor shower was incredible last night.	The meteor shower was incredible last night.	3065300	1471997350786	1471997350830	i	73
5977	64403	The meteor shower was incredible last night.	The meteor shower was incredible last night.	3065301	1471997351624	1471997351694	b	66
5977	64403	The meteor shower was incredible last night.	The meteor shower was incredible last night.	3065302	1471997351851	1471997351922	l	76
5977	64403	The meteor shower was incredible last night.	The meteor shower was incredible last night.	3065303	1471997352016	1471997352090	e	69
5977	64403	The meteor shower was incredible last night.	The meteor shower was incredible last night.	3065340	1471997352106	1471997352173	 	32
5977	64403	The meteor shower was incredible last night.	The meteor shower was incredible last night.	3065341	1471997352754	1471997352823	l	76
5977	64403	The meteor shower was incredible last night.	The meteor shower was incredible last night.	3065343	1471997352838	1471997352955	a	65
5977	64403	The meteor shower was incredible last night.	The meteor shower was incredible last night.	3065346	1471997352923	1471997353034	s	83
5977	64403	The meteor shower was incredible last night.	The meteor shower was incredible last night.	3065349	1471997353065	1471997353178	t	84
5977	64403	The meteor shower was incredible last night.	The meteor shower was incredible last night.	3065366	1471997353139	1471997353238	 	32
5977	64403	The meteor shower was incredible last night.	The meteor shower was incredible last night.	3065368	1471997353427	1471997353504	n	78
5977	64403	The meteor shower was incredible last night.	The meteor shower was incredible last night.	3065370	1471997353567	1471997353670	i	73
5977	64403	The meteor shower was incredible last night.	The meteor shower was incredible last night.	3065372	1471997353686	1471997353789	g	71
5977	64403	The meteor shower was incredible last night.	The meteor shower was incredible last night.	3065376	1471997353805	1471997353869	h	72
5977	64403	The meteor shower was incredible last night.	The meteor shower was incredible last night.	3065378	1471997353888	1471997353964	t	84
5977	64403	The meteor shower was incredible last night.	The meteor shower was incredible last night.	3065383	1471997354058	1471997354117	.	190
5977	64414	US ships will also lead a second task force.	US ships will also lead a second task force.	3065585	1471997356953	1471997357724	SHIFT	16
5977	64414	US ships will also lead a second task force.	US ships will also lead a second task force.	3065580	1471997357380	1471997357453	I	73
5977	64414	US ships will also lead a second task force.	US ships will also lead a second task force.	3065582	1471997357484	1471997357646	S	83
5977	64414	US ships will also lead a second task force.	US ships will also lead a second task force.	3065587	1471997358101	1471997358167	BKSP	8
5977	64414	US ships will also lead a second task force.	US ships will also lead a second task force.	3065588	1471997358215	1471997358300	BKSP	8
5977	64414	US ships will also lead a second task force.	US ships will also lead a second task force.	3065591	1471997358472	1471997359046	SHIFT	16
5977	64414	US ships will also lead a second task force.	US ships will also lead a second task force.	3065589	1471997358769	1471997358833	U	85
5977	64414	US ships will also lead a second task force.	US ships will also lead a second task force.	3065590	1471997358911	1471997359046	S	83
5977	64414	US ships will also lead a second task force.	US ships will also lead a second task force.	3065592	1471997361914	1471997362046	 	32
5977	64414	US ships will also lead a second task force.	US ships will also lead a second task force.	3065626	1471997362027	1471997362082	s	83
5977	64414	US ships will also lead a second task force.	US ships will also lead a second task force.	3065628	1471997362130	1471997362194	h	72
5977	64414	US ships will also lead a second task force.	US ships will also lead a second task force.	3065630	1471997362413	1471997362494	i	73
5977	64414	US ships will also lead a second task force.	US ships will also lead a second task force.	3065632	1471997362605	1471997362711	p	80
5977	64414	US ships will also lead a second task force.	US ships will also lead a second task force.	3065634	1471997362742	1471997362797	d	68
5977	64414	US ships will also lead a second task force.	US ships will also lead a second task force.	3065636	1471997363063	1471997363162	BKSP	8
5977	64414	US ships will also lead a second task force.	US ships will also lead a second task force.	3065669	1471997363148	1471997363210	s	83
5977	64414	US ships will also lead a second task force.	US ships will also lead a second task force.	3065670	1471997363282	1471997363346	 	32
5977	64414	US ships will also lead a second task force.	US ships will also lead a second task force.	3065671	1471997363778	1471997363856	w	87
5977	64414	US ships will also lead a second task force.	US ships will also lead a second task force.	3065672	1471997363953	1471997364008	i	73
5977	64414	US ships will also lead a second task force.	US ships will also lead a second task force.	3065674	1471997364138	1471997364184	l	76
5977	64414	US ships will also lead a second task force.	US ships will also lead a second task force.	3065676	1471997364239	1471997364373	l	76
5977	64414	US ships will also lead a second task force.	US ships will also lead a second task force.	3065695	1471997364343	1471997364441	 	32
5977	64414	US ships will also lead a second task force.	US ships will also lead a second task force.	3065696	1471997364503	1471997364577	a	65
5977	64414	US ships will also lead a second task force.	US ships will also lead a second task force.	3065697	1471997364734	1471997364808	l	76
5977	64414	US ships will also lead a second task force.	US ships will also lead a second task force.	3065698	1471997365075	1471997365201	s	83
5977	64414	US ships will also lead a second task force.	US ships will also lead a second task force.	3065699	1471997365201	1471997365329	o	79
5977	64414	US ships will also lead a second task force.	US ships will also lead a second task force.	3065731	1471997365293	1471997365374	 	32
5977	64414	US ships will also lead a second task force.	US ships will also lead a second task force.	3065733	1471997365530	1471997365593	l	76
5977	64414	US ships will also lead a second task force.	US ships will also lead a second task force.	3065735	1471997365687	1471997365761	w	87
5977	64414	US ships will also lead a second task force.	US ships will also lead a second task force.	3065737	1471997366080	1471997366186	BKSP	8
5977	64414	US ships will also lead a second task force.	US ships will also lead a second task force.	3065739	1471997366157	1471997366279	e	69
5977	64414	US ships will also lead a second task force.	US ships will also lead a second task force.	3065741	1471997366405	1471997366571	a	65
5977	64414	US ships will also lead a second task force.	US ships will also lead a second task force.	3065743	1471997366587	1471997366687	d	68
5977	64414	US ships will also lead a second task force.	US ships will also lead a second task force.	3065758	1471997366742	1471997366839	 	32
5977	64414	US ships will also lead a second task force.	US ships will also lead a second task force.	3065760	1471997367042	1471997367127	a	65
5977	64414	US ships will also lead a second task force.	US ships will also lead a second task force.	3065763	1471997367158	1471997367217	 	32
5977	64414	US ships will also lead a second task force.	US ships will also lead a second task force.	3065766	1471997367509	1471997367620	s	83
5977	64414	US ships will also lead a second task force.	US ships will also lead a second task force.	3065769	1471997367730	1471997367806	e	69
5977	64414	US ships will also lead a second task force.	US ships will also lead a second task force.	3065782	1471997368265	1471997368354	c	67
5977	64414	US ships will also lead a second task force.	US ships will also lead a second task force.	3065783	1471997368385	1471997368594	o	79
5977	64414	US ships will also lead a second task force.	US ships will also lead a second task force.	3065784	1471997368564	1471997368669	n	78
5977	64414	US ships will also lead a second task force.	US ships will also lead a second task force.	3065785	1471997368747	1471997368821	d	68
5977	64414	US ships will also lead a second task force.	US ships will also lead a second task force.	3065786	1471997368867	1471997368953	 	32
5977	64414	US ships will also lead a second task force.	US ships will also lead a second task force.	3065830	1471997369200	1471997369272	t	84
5977	64414	US ships will also lead a second task force.	US ships will also lead a second task force.	3065831	1471997369337	1471997369423	a	65
5977	64414	US ships will also lead a second task force.	US ships will also lead a second task force.	3065834	1471997369735	1471997369809	s	83
5977	64414	US ships will also lead a second task force.	US ships will also lead a second task force.	3065838	1471997369821	1471997369919	k	75
5977	64414	US ships will also lead a second task force.	US ships will also lead a second task force.	3065841	1471997369935	1471997370020	 	32
5977	64414	US ships will also lead a second task force.	US ships will also lead a second task force.	3065886	1471997370818	1471997370886	f	70
5977	64414	US ships will also lead a second task force.	US ships will also lead a second task force.	3065887	1471997371011	1471997371051	o	79
5977	64414	US ships will also lead a second task force.	US ships will also lead a second task force.	3065888	1471997371103	1471997371168	r	82
5977	64414	US ships will also lead a second task force.	US ships will also lead a second task force.	3065889	1471997371719	1471997371816	BKSP	8
5977	64414	US ships will also lead a second task force.	US ships will also lead a second task force.	3065891	1471997371832	1471997371941	c	67
5977	64414	US ships will also lead a second task force.	US ships will also lead a second task force.	3065909	1471997371921	1471997372021	e	69
5977	64414	US ships will also lead a second task force.	US ships will also lead a second task force.	3065911	1471997372430	1471997372516	.	190
5977	64424	He would be sorely missed by all who are striving for progress.	He would be sorely missed by all who are striving for progress.	3066100	1471997376865	1471997377073	SHIFT	16
5977	64424	He would be sorely missed by all who are striving for progress.	He would be sorely missed by all who are striving for progress.	3066102	1471997377018	1471997377081	H	72
5977	64424	He would be sorely missed by all who are striving for progress.	He would be sorely missed by all who are striving for progress.	3066105	1471997377190	1471997377246	e	69
5977	64424	He would be sorely missed by all who are striving for progress.	He would be sorely missed by all who are striving for progress.	3066108	1471997377308	1471997377393	 	32
5977	64424	He would be sorely missed by all who are striving for progress.	He would be sorely missed by all who are striving for progress.	3066111	1471997378146	1471997378221	w	87
5977	64424	He would be sorely missed by all who are striving for progress.	He would be sorely missed by all who are striving for progress.	3066114	1471997378492	1471997378686	o	79
5977	64424	He would be sorely missed by all who are striving for progress.	He would be sorely missed by all who are striving for progress.	3066182	1471997379173	1471997379241	u	85
5977	64424	He would be sorely missed by all who are striving for progress.	He would be sorely missed by all who are striving for progress.	3066183	1471997379590	1471997379645	l	76
5977	64424	He would be sorely missed by all who are striving for progress.	He would be sorely missed by all who are striving for progress.	3066184	1471997379801	1471997379869	 	32
5977	64424	He would be sorely missed by all who are striving for progress.	He would be sorely missed by all who are striving for progress.	3066186	1471997380346	1471997380423	BKSP	8
5977	64424	He would be sorely missed by all who are striving for progress.	He would be sorely missed by all who are striving for progress.	3066189	1471997380454	1471997380541	d	68
5977	64424	He would be sorely missed by all who are striving for progress.	He would be sorely missed by all who are striving for progress.	3066192	1471997380667	1471997380696	 	32
5977	64424	He would be sorely missed by all who are striving for progress.	He would be sorely missed by all who are striving for progress.	3066251	1471997381350	1471997381455	b	66
5977	64424	He would be sorely missed by all who are striving for progress.	He would be sorely missed by all who are striving for progress.	3066255	1471997381441	1471997381512	e	69
5977	64424	He would be sorely missed by all who are striving for progress.	He would be sorely missed by all who are striving for progress.	3066259	1471997381602	1471997381672	 	32
5977	64424	He would be sorely missed by all who are striving for progress.	He would be sorely missed by all who are striving for progress.	3066261	1471997381987	1471997382102	s	83
5977	64424	He would be sorely missed by all who are striving for progress.	He would be sorely missed by all who are striving for progress.	3066263	1471997382133	1471997382206	o	79
5977	64424	He would be sorely missed by all who are striving for progress.	He would be sorely missed by all who are striving for progress.	3066315	1471997382279	1471997382383	r	82
5977	64424	He would be sorely missed by all who are striving for progress.	He would be sorely missed by all who are striving for progress.	3066319	1471997382346	1471997382466	e	69
5977	64424	He would be sorely missed by all who are striving for progress.	He would be sorely missed by all who are striving for progress.	3066322	1471997382985	1471997383050	l	76
5977	64424	He would be sorely missed by all who are striving for progress.	He would be sorely missed by all who are striving for progress.	3066324	1471997383050	1471997383119	y	89
5977	64424	He would be sorely missed by all who are striving for progress.	He would be sorely missed by all who are striving for progress.	3066330	1471997383623	1471997383703	 	32
5977	64424	He would be sorely missed by all who are striving for progress.	He would be sorely missed by all who are striving for progress.	3066355	1471997383838	1471997383919	m	77
5977	64424	He would be sorely missed by all who are striving for progress.	He would be sorely missed by all who are striving for progress.	3066357	1471997384013	1471997384104	i	73
5977	64424	He would be sorely missed by all who are striving for progress.	He would be sorely missed by all who are striving for progress.	3066359	1471997384229	1471997384296	s	83
5977	64424	He would be sorely missed by all who are striving for progress.	He would be sorely missed by all who are striving for progress.	3066361	1471997384382	1471997384482	s	83
5977	64424	He would be sorely missed by all who are striving for progress.	He would be sorely missed by all who are striving for progress.	3066365	1471997384576	1471997384816	e	69
5977	64424	He would be sorely missed by all who are striving for progress.	He would be sorely missed by all who are striving for progress.	3066389	1471997384731	1471997384860	d	68
5977	64424	He would be sorely missed by all who are striving for progress.	He would be sorely missed by all who are striving for progress.	3066390	1471997384938	1471997385049	 	32
5977	64424	He would be sorely missed by all who are striving for progress.	He would be sorely missed by all who are striving for progress.	3066391	1471997385143	1471997385307	b	66
5977	64424	He would be sorely missed by all who are striving for progress.	He would be sorely missed by all who are striving for progress.	3066392	1471997385651	1471997385768	y	89
5977	64424	He would be sorely missed by all who are striving for progress.	He would be sorely missed by all who are striving for progress.	3066393	1471997385734	1471997385850	 	32
5977	64424	He would be sorely missed by all who are striving for progress.	He would be sorely missed by all who are striving for progress.	3066394	1471997385928	1471997386035	a	65
5977	64424	He would be sorely missed by all who are striving for progress.	He would be sorely missed by all who are striving for progress.	3066406	1471997386097	1471997386136	l	76
5977	64424	He would be sorely missed by all who are striving for progress.	He would be sorely missed by all who are striving for progress.	3066407	1471997386214	1471997386329	l	76
5977	64424	He would be sorely missed by all who are striving for progress.	He would be sorely missed by all who are striving for progress.	3066408	1471997386610	1471997386719	 	32
5977	64424	He would be sorely missed by all who are striving for progress.	He would be sorely missed by all who are striving for progress.	3066409	1471997386876	1471997386950	w	87
5977	64424	He would be sorely missed by all who are striving for progress.	He would be sorely missed by all who are striving for progress.	3066411	1471997387028	1471997387071	h	72
5977	64424	He would be sorely missed by all who are striving for progress.	He would be sorely missed by all who are striving for progress.	3066435	1471997387198	1471997387358	o	79
5977	64424	He would be sorely missed by all who are striving for progress.	He would be sorely missed by all who are striving for progress.	3066437	1471997387358	1471997387450	 	32
5977	64424	He would be sorely missed by all who are striving for progress.	He would be sorely missed by all who are striving for progress.	3066439	1471997387513	1471997387629	a	65
5977	64424	He would be sorely missed by all who are striving for progress.	He would be sorely missed by all who are striving for progress.	3066441	1471997387801	1471997387955	r	82
5977	64424	He would be sorely missed by all who are striving for progress.	He would be sorely missed by all who are striving for progress.	3066465	1471997387881	1471997388001	e	69
5977	64424	He would be sorely missed by all who are striving for progress.	He would be sorely missed by all who are striving for progress.	3066467	1471997388158	1471997388281	 	32
5977	64424	He would be sorely missed by all who are striving for progress.	He would be sorely missed by all who are striving for progress.	3066468	1471997388466	1471997388562	s	83
5977	64424	He would be sorely missed by all who are striving for progress.	He would be sorely missed by all who are striving for progress.	3066471	1471997388797	1471997388880	t	84
5977	64424	He would be sorely missed by all who are striving for progress.	He would be sorely missed by all who are striving for progress.	3066472	1471997388959	1471997389063	r	82
5977	64424	He would be sorely missed by all who are striving for progress.	He would be sorely missed by all who are striving for progress.	3066475	1471997389110	1471997389218	i	73
5977	64424	He would be sorely missed by all who are striving for progress.	He would be sorely missed by all who are striving for progress.	3066490	1471997389419	1471997389489	v	86
5977	64424	He would be sorely missed by all who are striving for progress.	He would be sorely missed by all who are striving for progress.	3066491	1471997389531	1471997389796	i	73
5977	64424	He would be sorely missed by all who are striving for progress.	He would be sorely missed by all who are striving for progress.	3066492	1471997389678	1471997389847	n	78
5977	64424	He would be sorely missed by all who are striving for progress.	He would be sorely missed by all who are striving for progress.	3066493	1471997389812	1471997389930	g	71
5977	64424	He would be sorely missed by all who are striving for progress.	He would be sorely missed by all who are striving for progress.	3066494	1471997390025	1471997390142	 	32
5977	64424	He would be sorely missed by all who are striving for progress.	He would be sorely missed by all who are striving for progress.	3066567	1471997390991	1471997391082	f	70
5977	64424	He would be sorely missed by all who are striving for progress.	He would be sorely missed by all who are striving for progress.	3066568	1471997391098	1471997391209	o	79
5977	64424	He would be sorely missed by all who are striving for progress.	He would be sorely missed by all who are striving for progress.	3066569	1471997391240	1471997391312	r	82
5977	64424	He would be sorely missed by all who are striving for progress.	He would be sorely missed by all who are striving for progress.	3066570	1471997391359	1471997391477	 	32
5977	64424	He would be sorely missed by all who are striving for progress.	He would be sorely missed by all who are striving for progress.	3066571	1471997392276	1471997392376	p	80
5977	64424	He would be sorely missed by all who are striving for progress.	He would be sorely missed by all who are striving for progress.	3066624	1471997392607	1471997392708	r	82
5977	64424	He would be sorely missed by all who are striving for progress.	He would be sorely missed by all who are striving for progress.	3066627	1471997392755	1471997392858	o	79
5977	64424	He would be sorely missed by all who are striving for progress.	He would be sorely missed by all who are striving for progress.	3066629	1471997393171	1471997393273	g	71
5977	64424	He would be sorely missed by all who are striving for progress.	He would be sorely missed by all who are striving for progress.	3066631	1471997393351	1471997393478	r	82
5977	64424	He would be sorely missed by all who are striving for progress.	He would be sorely missed by all who are striving for progress.	3066724	1471997393457	1471997393590	e	69
5977	64424	He would be sorely missed by all who are striving for progress.	He would be sorely missed by all who are striving for progress.	3066727	1471997393872	1471997393973	s	83
5977	64424	He would be sorely missed by all who are striving for progress.	He would be sorely missed by all who are striving for progress.	3066729	1471997394051	1471997394142	s	83
5977	64424	He would be sorely missed by all who are striving for progress.	He would be sorely missed by all who are striving for progress.	3066731	1471997394173	1471997394292	,	188
5977	64424	He would be sorely missed by all who are striving for progress.	He would be sorely missed by all who are striving for progress.	3066732	1471997394902	1471997394991	BKSP	8
5977	64424	He would be sorely missed by all who are striving for progress.	He would be sorely missed by all who are striving for progress.	3066733	1471997395552	1471997395622	.	190
5977	64440	Maybe you can leave early.	Maybe you can leave early.	3066853	1471997399921	1471997400123	SHIFT	16
5977	64440	Maybe you can leave early.	Maybe you can leave early.	3066854	1471997400093	1471997400164	M	77
5977	64440	Maybe you can leave early.	Maybe you can leave early.	3066855	1471997400247	1471997400324	a	65
5977	64440	Maybe you can leave early.	Maybe you can leave early.	3066856	1471997400352	1471997400417	y	89
5977	64440	Maybe you can leave early.	Maybe you can leave early.	3066857	1471997400560	1471997400634	b	66
5977	64440	Maybe you can leave early.	Maybe you can leave early.	3066858	1471997400659	1471997400733	e	69
5977	64440	Maybe you can leave early.	Maybe you can leave early.	3066881	1471997400797	1471997400882	 	32
5977	64440	Maybe you can leave early.	Maybe you can leave early.	3066882	1471997401158	1471997401194	y	89
5977	64440	Maybe you can leave early.	Maybe you can leave early.	3066883	1471997401234	1471997401291	o	79
5977	64440	Maybe you can leave early.	Maybe you can leave early.	3066884	1471997401330	1471997401381	u	85
5977	64440	Maybe you can leave early.	Maybe you can leave early.	3066885	1471997401432	1471997401518	 	32
5977	64440	Maybe you can leave early.	Maybe you can leave early.	3066919	1471997401718	1471997401785	h	72
5977	64440	Maybe you can leave early.	Maybe you can leave early.	3066921	1471997402080	1471997402246	BKSP	8
5977	64440	Maybe you can leave early.	Maybe you can leave early.	3066923	1471997402246	1471997402298	c	67
5977	64440	Maybe you can leave early.	Maybe you can leave early.	3066926	1471997402410	1471997402498	a	65
5977	64440	Maybe you can leave early.	Maybe you can leave early.	3066928	1471997402530	1471997402635	n	78
5977	64440	Maybe you can leave early.	Maybe you can leave early.	3066929	1471997402635	1471997402729	 	32
5977	64440	Maybe you can leave early.	Maybe you can leave early.	3066952	1471997402917	1471997402991	l	76
5977	64440	Maybe you can leave early.	Maybe you can leave early.	3066956	1471997403047	1471997403116	e	69
5977	64440	Maybe you can leave early.	Maybe you can leave early.	3066960	1471997403257	1471997403347	a	65
5977	64440	Maybe you can leave early.	Maybe you can leave early.	3066966	1471997403347	1471997403411	v	86
5977	64440	Maybe you can leave early.	Maybe you can leave early.	3066968	1471997403463	1471997403549	e	69
5977	64440	Maybe you can leave early.	Maybe you can leave early.	3066995	1471997403588	1471997403681	 	32
5977	64440	Maybe you can leave early.	Maybe you can leave early.	3066997	1471997403868	1471997403930	e	69
5977	64440	Maybe you can leave early.	Maybe you can leave early.	3066999	1471997404055	1471997404149	a	65
5977	64440	Maybe you can leave early.	Maybe you can leave early.	3067001	1471997404290	1471997404346	r	82
5977	64440	Maybe you can leave early.	Maybe you can leave early.	3067003	1471997404459	1471997404512	l	76
5977	64440	Maybe you can leave early.	Maybe you can leave early.	3067050	1471997404603	1471997404664	y	89
5977	64440	Maybe you can leave early.	Maybe you can leave early.	3067051	1471997405058	1471997405131	.	190
5977	64448	Jeff had been serving as chairman and CEO of Enron Industrial Markets.	Jeff had been serving as chairman and CEO of Enron Industrial Markets.	3067265	1471997410715	1471997411113	SHIFT	16
5977	64448	Jeff had been serving as chairman and CEO of Enron Industrial Markets.	Jeff had been serving as chairman and CEO of Enron Industrial Markets.	3067263	1471997411031	1471997411107	J	74
5977	64448	Jeff had been serving as chairman and CEO of Enron Industrial Markets.	Jeff had been serving as chairman and CEO of Enron Industrial Markets.	3067267	1471997411202	1471997411303	e	69
5977	64448	Jeff had been serving as chairman and CEO of Enron Industrial Markets.	Jeff had been serving as chairman and CEO of Enron Industrial Markets.	3067269	1471997411475	1471997411527	f	70
5977	64448	Jeff had been serving as chairman and CEO of Enron Industrial Markets.	Jeff had been serving as chairman and CEO of Enron Industrial Markets.	3067271	1471997411602	1471997411687	f	70
5977	64448	Jeff had been serving as chairman and CEO of Enron Industrial Markets.	Jeff had been serving as chairman and CEO of Enron Industrial Markets.	3067272	1471997411719	1471997411822	 	32
5977	64448	Jeff had been serving as chairman and CEO of Enron Industrial Markets.	Jeff had been serving as chairman and CEO of Enron Industrial Markets.	3067283	1471997411893	1471997411991	h	72
5977	64448	Jeff had been serving as chairman and CEO of Enron Industrial Markets.	Jeff had been serving as chairman and CEO of Enron Industrial Markets.	3067285	1471997411973	1471997412117	a	65
5977	64448	Jeff had been serving as chairman and CEO of Enron Industrial Markets.	Jeff had been serving as chairman and CEO of Enron Industrial Markets.	3067287	1471997412180	1471997412238	d	68
5977	64448	Jeff had been serving as chairman and CEO of Enron Industrial Markets.	Jeff had been serving as chairman and CEO of Enron Industrial Markets.	3067289	1471997412321	1471997412402	 	32
5977	64448	Jeff had been serving as chairman and CEO of Enron Industrial Markets.	Jeff had been serving as chairman and CEO of Enron Industrial Markets.	3067290	1471997412621	1471997412651	s	83
5977	64448	Jeff had been serving as chairman and CEO of Enron Industrial Markets.	Jeff had been serving as chairman and CEO of Enron Industrial Markets.	3067319	1471997412959	1471997413054	BKSP	8
5977	64448	Jeff had been serving as chairman and CEO of Enron Industrial Markets.	Jeff had been serving as chairman and CEO of Enron Industrial Markets.	3067321	1471997413236	1471997413252	b	66
5977	64448	Jeff had been serving as chairman and CEO of Enron Industrial Markets.	Jeff had been serving as chairman and CEO of Enron Industrial Markets.	3067323	1471997413302	1471997413385	e	69
5977	64448	Jeff had been serving as chairman and CEO of Enron Industrial Markets.	Jeff had been serving as chairman and CEO of Enron Industrial Markets.	3067325	1471997413479	1471997413545	e	69
5977	64448	Jeff had been serving as chairman and CEO of Enron Industrial Markets.	Jeff had been serving as chairman and CEO of Enron Industrial Markets.	3067327	1471997413600	1471997413712	n	78
5977	64448	Jeff had been serving as chairman and CEO of Enron Industrial Markets.	Jeff had been serving as chairman and CEO of Enron Industrial Markets.	3067393	1471997413686	1471997413785	 	32
5977	64448	Jeff had been serving as chairman and CEO of Enron Industrial Markets.	Jeff had been serving as chairman and CEO of Enron Industrial Markets.	3067396	1471997413879	1471997413935	s	83
5977	64448	Jeff had been serving as chairman and CEO of Enron Industrial Markets.	Jeff had been serving as chairman and CEO of Enron Industrial Markets.	3067399	1471997414060	1471997414157	e	69
5977	64448	Jeff had been serving as chairman and CEO of Enron Industrial Markets.	Jeff had been serving as chairman and CEO of Enron Industrial Markets.	3067402	1471997414337	1471997414386	v	86
5977	64448	Jeff had been serving as chairman and CEO of Enron Industrial Markets.	Jeff had been serving as chairman and CEO of Enron Industrial Markets.	3067404	1471997415167	1471997415250	BKSP	8
5977	64448	Jeff had been serving as chairman and CEO of Enron Industrial Markets.	Jeff had been serving as chairman and CEO of Enron Industrial Markets.	3067406	1471997415407	1471997415497	r	82
5977	64448	Jeff had been serving as chairman and CEO of Enron Industrial Markets.	Jeff had been serving as chairman and CEO of Enron Industrial Markets.	3067407	1471997415975	1471997416041	v	86
5977	64448	Jeff had been serving as chairman and CEO of Enron Industrial Markets.	Jeff had been serving as chairman and CEO of Enron Industrial Markets.	3067419	1471997416106	1471997416166	i	73
5977	64448	Jeff had been serving as chairman and CEO of Enron Industrial Markets.	Jeff had been serving as chairman and CEO of Enron Industrial Markets.	3067420	1471997416307	1471997416365	n	78
5977	64448	Jeff had been serving as chairman and CEO of Enron Industrial Markets.	Jeff had been serving as chairman and CEO of Enron Industrial Markets.	3067422	1471997416397	1471997416474	g	71
5977	64448	Jeff had been serving as chairman and CEO of Enron Industrial Markets.	Jeff had been serving as chairman and CEO of Enron Industrial Markets.	3067424	1471997416548	1471997416615	 	32
5977	64448	Jeff had been serving as chairman and CEO of Enron Industrial Markets.	Jeff had been serving as chairman and CEO of Enron Industrial Markets.	3067426	1471997416803	1471997416968	a	65
5977	64448	Jeff had been serving as chairman and CEO of Enron Industrial Markets.	Jeff had been serving as chairman and CEO of Enron Industrial Markets.	3067440	1471997416927	1471997417048	s	83
5977	64448	Jeff had been serving as chairman and CEO of Enron Industrial Markets.	Jeff had been serving as chairman and CEO of Enron Industrial Markets.	3067441	1471997417095	1471997417196	 	32
5977	64448	Jeff had been serving as chairman and CEO of Enron Industrial Markets.	Jeff had been serving as chairman and CEO of Enron Industrial Markets.	3067442	1471997417463	1471997417609	c	67
5977	64448	Jeff had been serving as chairman and CEO of Enron Industrial Markets.	Jeff had been serving as chairman and CEO of Enron Industrial Markets.	3067443	1471997417624	1471997417682	h	72
5977	64448	Jeff had been serving as chairman and CEO of Enron Industrial Markets.	Jeff had been serving as chairman and CEO of Enron Industrial Markets.	3067444	1471997417760	1471997417808	a	65
5977	64448	Jeff had been serving as chairman and CEO of Enron Industrial Markets.	Jeff had been serving as chairman and CEO of Enron Industrial Markets.	3067445	1471997417957	1471997418017	i	73
5977	64448	Jeff had been serving as chairman and CEO of Enron Industrial Markets.	Jeff had been serving as chairman and CEO of Enron Industrial Markets.	3067459	1471997418096	1471997418149	r	82
5977	64448	Jeff had been serving as chairman and CEO of Enron Industrial Markets.	Jeff had been serving as chairman and CEO of Enron Industrial Markets.	3067464	1471997418274	1471997418332	m	77
5977	64448	Jeff had been serving as chairman and CEO of Enron Industrial Markets.	Jeff had been serving as chairman and CEO of Enron Industrial Markets.	3067469	1471997418427	1471997418480	a	65
5977	64448	Jeff had been serving as chairman and CEO of Enron Industrial Markets.	Jeff had been serving as chairman and CEO of Enron Industrial Markets.	3067474	1471997418499	1471997418624	n	78
5977	64448	Jeff had been serving as chairman and CEO of Enron Industrial Markets.	Jeff had been serving as chairman and CEO of Enron Industrial Markets.	3067479	1471997418640	1471997418728	 	32
5977	64448	Jeff had been serving as chairman and CEO of Enron Industrial Markets.	Jeff had been serving as chairman and CEO of Enron Industrial Markets.	3067496	1471997419019	1471997419095	a	65
5977	64448	Jeff had been serving as chairman and CEO of Enron Industrial Markets.	Jeff had been serving as chairman and CEO of Enron Industrial Markets.	3067497	1471997419095	1471997419165	n	78
5977	64448	Jeff had been serving as chairman and CEO of Enron Industrial Markets.	Jeff had been serving as chairman and CEO of Enron Industrial Markets.	3067498	1471997419248	1471997419311	d	68
5977	64448	Jeff had been serving as chairman and CEO of Enron Industrial Markets.	Jeff had been serving as chairman and CEO of Enron Industrial Markets.	3067499	1471997419327	1471997419395	 	32
5977	64448	Jeff had been serving as chairman and CEO of Enron Industrial Markets.	Jeff had been serving as chairman and CEO of Enron Industrial Markets.	3067628	1471997419558	1471997424259	SHIFT	16
5977	64448	Jeff had been serving as chairman and CEO of Enron Industrial Markets.	Jeff had been serving as chairman and CEO of Enron Industrial Markets.	3067500	1471997420037	1471997420331	C	67
5977	64448	Jeff had been serving as chairman and CEO of Enron Industrial Markets.	Jeff had been serving as chairman and CEO of Enron Industrial Markets.	3067547	1471997421177	1471997421291	E	69
5977	64448	Jeff had been serving as chairman and CEO of Enron Industrial Markets.	Jeff had been serving as chairman and CEO of Enron Industrial Markets.	3067548	1471997421541	1471997421586	O	73
5977	64448	Jeff had been serving as chairman and CEO of Enron Industrial Markets.	Jeff had been serving as chairman and CEO of Enron Industrial Markets.	3067549	1471997422004	1471997422091	BKSP	8
5977	64448	Jeff had been serving as chairman and CEO of Enron Industrial Markets.	Jeff had been serving as chairman and CEO of Enron Industrial Markets.	3067550	1471997422373	1471997422425	+	187
5977	64448	Jeff had been serving as chairman and CEO of Enron Industrial Markets.	Jeff had been serving as chairman and CEO of Enron Industrial Markets.	3067551	1471997422693	1471997422753	O	79
5977	64448	Jeff had been serving as chairman and CEO of Enron Industrial Markets.	Jeff had been serving as chairman and CEO of Enron Industrial Markets.	3067620	1471997423158	1471997423239	BKSP	8
5977	64448	Jeff had been serving as chairman and CEO of Enron Industrial Markets.	Jeff had been serving as chairman and CEO of Enron Industrial Markets.	3067623	1471997423291	1471997423362	BKSP	8
5977	64448	Jeff had been serving as chairman and CEO of Enron Industrial Markets.	Jeff had been serving as chairman and CEO of Enron Industrial Markets.	3067624	1471997423407	1471997423489	BKSP	8
5977	64448	Jeff had been serving as chairman and CEO of Enron Industrial Markets.	Jeff had been serving as chairman and CEO of Enron Industrial Markets.	3067626	1471997423927	1471997424009	O	79
5977	64448	Jeff had been serving as chairman and CEO of Enron Industrial Markets.	Jeff had been serving as chairman and CEO of Enron Industrial Markets.	3067630	1471997424306	1471997424391	 	32
5977	64448	Jeff had been serving as chairman and CEO of Enron Industrial Markets.	Jeff had been serving as chairman and CEO of Enron Industrial Markets.	3067631	1471997424829	1471997424892	o	79
5977	64448	Jeff had been serving as chairman and CEO of Enron Industrial Markets.	Jeff had been serving as chairman and CEO of Enron Industrial Markets.	3067632	1471997424971	1471997425057	f	70
5977	64448	Jeff had been serving as chairman and CEO of Enron Industrial Markets.	Jeff had been serving as chairman and CEO of Enron Industrial Markets.	3067633	1471997425135	1471997425207	 	32
5977	64448	Jeff had been serving as chairman and CEO of Enron Industrial Markets.	Jeff had been serving as chairman and CEO of Enron Industrial Markets.	3067688	1471997425262	1471997426160	SHIFT	16
5977	64448	Jeff had been serving as chairman and CEO of Enron Industrial Markets.	Jeff had been serving as chairman and CEO of Enron Industrial Markets.	3067685	1471997425926	1471997426004	E	69
5977	64448	Jeff had been serving as chairman and CEO of Enron Industrial Markets.	Jeff had been serving as chairman and CEO of Enron Industrial Markets.	3067691	1471997426823	1471997426904	n	78
5977	64448	Jeff had been serving as chairman and CEO of Enron Industrial Markets.	Jeff had been serving as chairman and CEO of Enron Industrial Markets.	3067694	1471997427170	1471997427248	r	82
5977	64448	Jeff had been serving as chairman and CEO of Enron Industrial Markets.	Jeff had been serving as chairman and CEO of Enron Industrial Markets.	3067699	1471997427252	1471997427438	o	79
5977	64448	Jeff had been serving as chairman and CEO of Enron Industrial Markets.	Jeff had been serving as chairman and CEO of Enron Industrial Markets.	3067772	1471997427352	1471997427528	n	78
5977	64448	Jeff had been serving as chairman and CEO of Enron Industrial Markets.	Jeff had been serving as chairman and CEO of Enron Industrial Markets.	3067775	1471997427787	1471997427903	 	32
5977	64448	Jeff had been serving as chairman and CEO of Enron Industrial Markets.	Jeff had been serving as chairman and CEO of Enron Industrial Markets.	3067782	1471997428022	1471997428366	SHIFT	16
5977	64448	Jeff had been serving as chairman and CEO of Enron Industrial Markets.	Jeff had been serving as chairman and CEO of Enron Industrial Markets.	3067779	1471997428240	1471997428304	I	73
5977	64448	Jeff had been serving as chairman and CEO of Enron Industrial Markets.	Jeff had been serving as chairman and CEO of Enron Industrial Markets.	3067784	1471997428507	1471997428584	n	78
5977	64448	Jeff had been serving as chairman and CEO of Enron Industrial Markets.	Jeff had been serving as chairman and CEO of Enron Industrial Markets.	3067785	1471997428834	1471997428934	d	68
5977	64448	Jeff had been serving as chairman and CEO of Enron Industrial Markets.	Jeff had been serving as chairman and CEO of Enron Industrial Markets.	3067786	1471997429965	1471997430036	u	85
5977	64448	Jeff had been serving as chairman and CEO of Enron Industrial Markets.	Jeff had been serving as chairman and CEO of Enron Industrial Markets.	3067813	1471997430069	1471997430141	s	83
5977	64448	Jeff had been serving as chairman and CEO of Enron Industrial Markets.	Jeff had been serving as chairman and CEO of Enron Industrial Markets.	3067815	1471997430386	1471997430529	t	84
5977	64448	Jeff had been serving as chairman and CEO of Enron Industrial Markets.	Jeff had been serving as chairman and CEO of Enron Industrial Markets.	3067817	1471997431532	1471997431616	r	82
5977	64448	Jeff had been serving as chairman and CEO of Enron Industrial Markets.	Jeff had been serving as chairman and CEO of Enron Industrial Markets.	3067818	1471997431677	1471997431741	i	73
5977	64448	Jeff had been serving as chairman and CEO of Enron Industrial Markets.	Jeff had been serving as chairman and CEO of Enron Industrial Markets.	3067819	1471997431813	1471997431899	a	65
5977	64448	Jeff had been serving as chairman and CEO of Enron Industrial Markets.	Jeff had been serving as chairman and CEO of Enron Industrial Markets.	3067877	1471997431937	1471997432093	l	76
5977	64448	Jeff had been serving as chairman and CEO of Enron Industrial Markets.	Jeff had been serving as chairman and CEO of Enron Industrial Markets.	3067879	1471997432093	1471997432182	 	32
5977	64448	Jeff had been serving as chairman and CEO of Enron Industrial Markets.	Jeff had been serving as chairman and CEO of Enron Industrial Markets.	3067884	1471997432682	1471997432997	SHIFT	16
5977	64448	Jeff had been serving as chairman and CEO of Enron Industrial Markets.	Jeff had been serving as chairman and CEO of Enron Industrial Markets.	3067881	1471997432932	1471997432997	M	77
5977	64448	Jeff had been serving as chairman and CEO of Enron Industrial Markets.	Jeff had been serving as chairman and CEO of Enron Industrial Markets.	3067885	1471997433169	1471997433230	a	65
5977	64448	Jeff had been serving as chairman and CEO of Enron Industrial Markets.	Jeff had been serving as chairman and CEO of Enron Industrial Markets.	3067886	1471997433434	1471997433507	r	82
5977	64448	Jeff had been serving as chairman and CEO of Enron Industrial Markets.	Jeff had been serving as chairman and CEO of Enron Industrial Markets.	3067914	1471997433570	1471997433645	k	75
5977	64448	Jeff had been serving as chairman and CEO of Enron Industrial Markets.	Jeff had been serving as chairman and CEO of Enron Industrial Markets.	3067917	1471997434181	1471997434275	e	69
5977	64448	Jeff had been serving as chairman and CEO of Enron Industrial Markets.	Jeff had been serving as chairman and CEO of Enron Industrial Markets.	3067920	1471997434400	1471997434445	t	84
5977	64448	Jeff had been serving as chairman and CEO of Enron Industrial Markets.	Jeff had been serving as chairman and CEO of Enron Industrial Markets.	3067923	1471997434711	1471997434784	s	83
5977	64448	Jeff had been serving as chairman and CEO of Enron Industrial Markets.	Jeff had been serving as chairman and CEO of Enron Industrial Markets.	3067924	1471997434866	1471997434945	.	190
