PARTICIPANT_ID	TEST_SECTION_ID	SENTENCE	USER_INPUT	KEYSTROKE_ID	PRESS_TIME	RELEASE_TIME	LETTER	KEYCODE
6039	64970	I would not say I have guaranteed my final place.	I would not say that I have gauranteed my fibal place. 	3091829	1471998204607	1471998204710	CAPS_LOCK	20
6039	64970	I would not say I have guaranteed my final place.	I would not say that I have gauranteed my fibal place. 	3091830	1471998204822	1471998205014	CAPS_LOCK	20
6039	64970	I would not say I have guaranteed my final place.	I would not say that I have gauranteed my fibal place. 	3091831	1471998204886	1471998205015	 	32
6039	64970	I would not say I have guaranteed my final place.	I would not say that I have gauranteed my fibal place. 	3091832	1471998205050	1471998205134	w	87
6039	64970	I would not say I have guaranteed my final place.	I would not say that I have gauranteed my fibal place. 	3091833	1471998205141	1471998205294	o	79
6039	64970	I would not say I have guaranteed my final place.	I would not say that I have gauranteed my fibal place. 	3091835	1471998205238	1471998205382	u	85
6039	64970	I would not say I have guaranteed my final place.	I would not say that I have gauranteed my fibal place. 	3091842	1471998205374	1471998205494	l	76
6039	64970	I would not say I have guaranteed my final place.	I would not say that I have gauranteed my fibal place. 	3091844	1471998205533	1471998205661	d	68
6039	64970	I would not say I have guaranteed my final place.	I would not say that I have gauranteed my fibal place. 	3091848	1471998205574	1471998205685	 	32
6039	64970	I would not say I have guaranteed my final place.	I would not say that I have gauranteed my fibal place. 	3091853	1471998205773	1471998205886	n	78
6039	64970	I would not say I have guaranteed my final place.	I would not say that I have gauranteed my fibal place. 	3091858	1471998205878	1471998205997	o	79
6039	64970	I would not say I have guaranteed my final place.	I would not say that I have gauranteed my fibal place. 	3091876	1471998205989	1471998206109	t	84
6039	64970	I would not say I have guaranteed my final place.	I would not say that I have gauranteed my fibal place. 	3091878	1471998206078	1471998206214	 	32
6039	64970	I would not say I have guaranteed my final place.	I would not say that I have gauranteed my fibal place. 	3091880	1471998206270	1471998206413	s	83
6039	64970	I would not say I have guaranteed my final place.	I would not say that I have gauranteed my fibal place. 	3091882	1471998206318	1471998206478	a	65
6039	64970	I would not say I have guaranteed my final place.	I would not say that I have gauranteed my fibal place. 	3091886	1471998206485	1471998206565	y	89
6039	64970	I would not say I have guaranteed my final place.	I would not say that I have gauranteed my fibal place. 	3091890	1471998206638	1471998206765	 	32
6039	64970	I would not say I have guaranteed my final place.	I would not say that I have gauranteed my fibal place. 	3091915	1471998206718	1471998206837	t	84
6039	64970	I would not say I have guaranteed my final place.	I would not say that I have gauranteed my fibal place. 	3091916	1471998206797	1471998206901	h	72
6039	64970	I would not say I have guaranteed my final place.	I would not say that I have gauranteed my fibal place. 	3091917	1471998206845	1471998207006	a	65
6039	64970	I would not say I have guaranteed my final place.	I would not say that I have gauranteed my fibal place. 	3091918	1471998206950	1471998207077	t	84
6039	64970	I would not say I have guaranteed my final place.	I would not say that I have gauranteed my fibal place. 	3091919	1471998206982	1471998207109	 	32
6039	64970	I would not say I have guaranteed my final place.	I would not say that I have gauranteed my fibal place. 	3091920	1471998207190	1471998207285	CAPS_LOCK	20
6039	64970	I would not say I have guaranteed my final place.	I would not say that I have gauranteed my fibal place. 	3091922	1471998207301	1471998207422	I	73
6039	64970	I would not say I have guaranteed my final place.	I would not say that I have gauranteed my fibal place. 	3091936	1471998207399	1471998207549	CAPS_LOCK	20
6039	64970	I would not say I have guaranteed my final place.	I would not say that I have gauranteed my fibal place. 	3091937	1471998207557	1471998207685	 	32
6039	64970	I would not say I have guaranteed my final place.	I would not say that I have gauranteed my fibal place. 	3091938	1471998207782	1471998207909	h	72
6039	64970	I would not say I have guaranteed my final place.	I would not say that I have gauranteed my fibal place. 	3091940	1471998207845	1471998208013	a	65
6039	64970	I would not say I have guaranteed my final place.	I would not say that I have gauranteed my fibal place. 	3091942	1471998208045	1471998208166	v	86
6039	64970	I would not say I have guaranteed my final place.	I would not say that I have gauranteed my fibal place. 	3091945	1471998208189	1471998208293	e	69
6039	64970	I would not say I have guaranteed my final place.	I would not say that I have gauranteed my fibal place. 	3091985	1471998208342	1471998208469	 	32
6039	64970	I would not say I have guaranteed my final place.	I would not say that I have gauranteed my fibal place. 	3091988	1471998209142	1471998209262	g	71
6039	64970	I would not say I have guaranteed my final place.	I would not say that I have gauranteed my fibal place. 	3091990	1471998209325	1471998209469	a	65
6039	64970	I would not say I have guaranteed my final place.	I would not say that I have gauranteed my fibal place. 	3091992	1471998209550	1471998209661	u	85
6039	64970	I would not say I have guaranteed my final place.	I would not say that I have gauranteed my fibal place. 	3091994	1471998209725	1471998209917	r	82
6039	64970	I would not say I have guaranteed my final place.	I would not say that I have gauranteed my fibal place. 	3092080	1471998209869	1471998210038	a	65
6039	64970	I would not say I have guaranteed my final place.	I would not say that I have gauranteed my fibal place. 	3092081	1471998212030	1471998212174	n	78
6039	64970	I would not say I have guaranteed my final place.	I would not say that I have gauranteed my fibal place. 	3092082	1471998212238	1471998212389	t	84
6039	64970	I would not say I have guaranteed my final place.	I would not say that I have gauranteed my fibal place. 	3092083	1471998212430	1471998212485	e	69
6039	64970	I would not say I have guaranteed my final place.	I would not say that I have gauranteed my fibal place. 	3092084	1471998212565	1471998212694	e	69
6039	64970	I would not say I have guaranteed my final place.	I would not say that I have gauranteed my fibal place. 	3092085	1471998212781	1471998212886	d	68
6039	64970	I would not say I have guaranteed my final place.	I would not say that I have gauranteed my fibal place. 	3092119	1471998212989	1471998213102	 	32
6039	64970	I would not say I have guaranteed my final place.	I would not say that I have gauranteed my fibal place. 	3092120	1471998213206	1471998213349	m	77
6039	64970	I would not say I have guaranteed my final place.	I would not say that I have gauranteed my fibal place. 	3092121	1471998213486	1471998213566	y	89
6039	64970	I would not say I have guaranteed my final place.	I would not say that I have gauranteed my fibal place. 	3092122	1471998213685	1471998213813	 	32
6039	64970	I would not say I have guaranteed my final place.	I would not say that I have gauranteed my fibal place. 	3092124	1471998213886	1471998213965	g	70
6039	64970	I would not say I have guaranteed my final place.	I would not say that I have gauranteed my fibal place. 	3092199	1471998213941	1471998214038	i	73
6039	64970	I would not say I have guaranteed my final place.	I would not say that I have gauranteed my fibal place. 	3092200	1471998214670	1471998214774	BKSP	8
6039	64970	I would not say I have guaranteed my final place.	I would not say that I have gauranteed my fibal place. 	3092201	1471998214813	1471998214933	BKSP	8
6039	64970	I would not say I have guaranteed my final place.	I would not say that I have gauranteed my fibal place. 	3092202	1471998215854	1471998215958	i	73
6039	64970	I would not say I have guaranteed my final place.	I would not say that I have gauranteed my fibal place. 	3092204	1471998216006	1471998216109	b	66
6039	64970	I would not say I have guaranteed my final place.	I would not say that I have gauranteed my fibal place. 	3092206	1471998216141	1471998216245	a	65
6039	64970	I would not say I have guaranteed my final place.	I would not say that I have gauranteed my fibal place. 	3092208	1471998216293	1471998216389	l	76
6039	64970	I would not say I have guaranteed my final place.	I would not say that I have gauranteed my fibal place. 	3092210	1471998216469	1471998216574	 	32
6039	64970	I would not say I have guaranteed my final place.	I would not say that I have gauranteed my fibal place. 	3092217	1471998216701	1471998216901	p	80
6039	64970	I would not say I have guaranteed my final place.	I would not say that I have gauranteed my fibal place. 	3092215	1471998216774	1471998216878	o	79
6039	64970	I would not say I have guaranteed my final place.	I would not say that I have gauranteed my fibal place. 	3092219	1471998216845	1471998216957	l	75
6039	64970	I would not say I have guaranteed my final place.	I would not say that I have gauranteed my fibal place. 	3092221	1471998216966	1471998217053	a	65
6039	64970	I would not say I have guaranteed my final place.	I would not say that I have gauranteed my fibal place. 	3092281	1471998217230	1471998217293	BKSP	8
6039	64970	I would not say I have guaranteed my final place.	I would not say that I have gauranteed my fibal place. 	3092283	1471998217358	1471998217438	BKSP	8
6039	64970	I would not say I have guaranteed my final place.	I would not say that I have gauranteed my fibal place. 	3092286	1471998217589	1471998217661	BKSP	8
6039	64970	I would not say I have guaranteed my final place.	I would not say that I have gauranteed my fibal place. 	3092288	1471998217734	1471998217837	BKSP	8
6039	64970	I would not say I have guaranteed my final place.	I would not say that I have gauranteed my fibal place. 	3092291	1471998218382	1471998218501	l	76
6039	64970	I would not say I have guaranteed my final place.	I would not say that I have gauranteed my fibal place. 	3092293	1471998218422	1471998218597	a	65
6039	64970	I would not say I have guaranteed my final place.	I would not say that I have gauranteed my fibal place. 	3092296	1471998218565	1471998218757	c	67
6039	64970	I would not say I have guaranteed my final place.	I would not say that I have gauranteed my fibal place. 	3092299	1471998218669	1471998218813	e	69
6039	64970	I would not say I have guaranteed my final place.	I would not say that I have gauranteed my fibal place. 	3092361	1471998218773	1471998218893	.	190
6039	64970	I would not say I have guaranteed my final place.	I would not say that I have gauranteed my fibal place. 	3092363	1471998218878	1471998218990	 	32
6039	64986	Will 2PM ET work for you?	Will 2PM ET work for you?	3092523	1471998225077	1471998225222	CAPS_LOCK	20
6039	64986	Will 2PM ET work for you?	Will 2PM ET work for you?	3092525	1471998225206	1471998225405	W	87
6039	64986	Will 2PM ET work for you?	Will 2PM ET work for you?	3092527	1471998225317	1471998225469	CAPS_LOCK	20
6039	64986	Will 2PM ET work for you?	Will 2PM ET work for you?	3092529	1471998225477	1471998225565	i	73
6039	64986	Will 2PM ET work for you?	Will 2PM ET work for you?	3092532	1471998225661	1471998225733	l	76
6039	64986	Will 2PM ET work for you?	Will 2PM ET work for you?	3092536	1471998225797	1471998225910	l	76
6039	64986	Will 2PM ET work for you?	Will 2PM ET work for you?	3092540	1471998226005	1471998226133	 	32
6039	64986	Will 2PM ET work for you?	Will 2PM ET work for you?	3092581	1471998226310	1471998226430	2	50
6039	64986	Will 2PM ET work for you?	Will 2PM ET work for you?	3092582	1471998226774	1471998226933	CAPS_LOCK	20
6039	64986	Will 2PM ET work for you?	Will 2PM ET work for you?	3092583	1471998226950	1471998227077	P	80
6039	64986	Will 2PM ET work for you?	Will 2PM ET work for you?	3092584	1471998227182	1471998227277	M	77
6039	64986	Will 2PM ET work for you?	Will 2PM ET work for you?	3092586	1471998227357	1471998227486	 	32
6039	64986	Will 2PM ET work for you?	Will 2PM ET work for you?	3092589	1471998227597	1471998227717	E	69
6039	64986	Will 2PM ET work for you?	Will 2PM ET work for you?	3092631	1471998228006	1471998228141	T	84
6039	64986	Will 2PM ET work for you?	Will 2PM ET work for you?	3092632	1471998228302	1471998228437	 	32
6039	64986	Will 2PM ET work for you?	Will 2PM ET work for you?	3092633	1471998228574	1471998228749	CAPS_LOCK	20
6039	64986	Will 2PM ET work for you?	Will 2PM ET work for you?	3092636	1471998229070	1471998229214	w	87
6039	64986	Will 2PM ET work for you?	Will 2PM ET work for you?	3092641	1471998229261	1471998229373	o	79
6039	64986	Will 2PM ET work for you?	Will 2PM ET work for you?	3092644	1471998229709	1471998229829	r	82
6039	64986	Will 2PM ET work for you?	Will 2PM ET work for you?	3092660	1471998229853	1471998229965	k	75
6039	64986	Will 2PM ET work for you?	Will 2PM ET work for you?	3092661	1471998230030	1471998230150	 	32
6039	64986	Will 2PM ET work for you?	Will 2PM ET work for you?	3092664	1471998230181	1471998230326	f	70
6039	64986	Will 2PM ET work for you?	Will 2PM ET work for you?	3092667	1471998230341	1471998230445	o	79
6039	64986	Will 2PM ET work for you?	Will 2PM ET work for you?	3092671	1471998230461	1471998230565	r	82
6039	64986	Will 2PM ET work for you?	Will 2PM ET work for you?	3092728	1471998230582	1471998230733	 	32
6039	64986	Will 2PM ET work for you?	Will 2PM ET work for you?	3092730	1471998230757	1471998230877	y	89
6039	64986	Will 2PM ET work for you?	Will 2PM ET work for you?	3092732	1471998230837	1471998231053	o	79
6039	64986	Will 2PM ET work for you?	Will 2PM ET work for you?	3092735	1471998230990	1471998231118	u	85
6039	64986	Will 2PM ET work for you?	Will 2PM ET work for you?	3092740	1471998231796	1471998232125	SHIFT	16
6039	64986	Will 2PM ET work for you?	Will 2PM ET work for you?	3092781	1471998232014	1471998232181	?	191
6039	64993	See you in Enron House when I get back.	See you in Enron House when I get back.	3092909	1471998235030	1471998235310	CAPS_LOCK	20
6039	64993	See you in Enron House when I get back.	See you in Enron House when I get back.	3092910	1471998235351	1471998235541	S	83
6039	64993	See you in Enron House when I get back.	See you in Enron House when I get back.	3092911	1471998235446	1471998235637	CAPS_LOCK	20
6039	64993	See you in Enron House when I get back.	See you in Enron House when I get back.	3092912	1471998235661	1471998235749	e	69
6039	64993	See you in Enron House when I get back.	See you in Enron House when I get back.	3092913	1471998235829	1471998235942	e	69
6039	64993	See you in Enron House when I get back.	See you in Enron House when I get back.	3092914	1471998236030	1471998236174	 	32
6039	64993	See you in Enron House when I get back.	See you in Enron House when I get back.	3092915	1471998236181	1471998236303	y	89
6039	64993	See you in Enron House when I get back.	See you in Enron House when I get back.	3092937	1471998236293	1471998236493	o	79
6039	64993	See you in Enron House when I get back.	See you in Enron House when I get back.	3092938	1471998236414	1471998236558	u	85
6039	64993	See you in Enron House when I get back.	See you in Enron House when I get back.	3092939	1471998236654	1471998236798	 	32
6039	64993	See you in Enron House when I get back.	See you in Enron House when I get back.	3092941	1471998236885	1471998237037	i	73
6039	64993	See you in Enron House when I get back.	See you in Enron House when I get back.	3092944	1471998236957	1471998237062	n	78
6039	64993	See you in Enron House when I get back.	See you in Enron House when I get back.	3092948	1471998237110	1471998237253	 	32
6039	64993	See you in Enron House when I get back.	See you in Enron House when I get back.	3092987	1471998237589	1471998237750	CAPS_LOCK	20
6039	64993	See you in Enron House when I get back.	See you in Enron House when I get back.	3092989	1471998237774	1471998237958	E	69
6039	64993	See you in Enron House when I get back.	See you in Enron House when I get back.	3092990	1471998237870	1471998238046	CAPS_LOCK	20
6039	64993	See you in Enron House when I get back.	See you in Enron House when I get back.	3092991	1471998238038	1471998238173	n	78
6039	64993	See you in Enron House when I get back.	See you in Enron House when I get back.	3092992	1471998238117	1471998238221	r	82
6039	64993	See you in Enron House when I get back.	See you in Enron House when I get back.	3092993	1471998238285	1471998238501	o	79
6039	64993	See you in Enron House when I get back.	See you in Enron House when I get back.	3093033	1471998238438	1471998238574	n	78
6039	64993	See you in Enron House when I get back.	See you in Enron House when I get back.	3093037	1471998238653	1471998238765	 	32
6039	64993	See you in Enron House when I get back.	See you in Enron House when I get back.	3093041	1471998238925	1471998239070	CAPS_LOCK	20
6039	64993	See you in Enron House when I get back.	See you in Enron House when I get back.	3093045	1471998239085	1471998239197	H	72
6039	64993	See you in Enron House when I get back.	See you in Enron House when I get back.	3093050	1471998239174	1471998239341	CAPS_LOCK	20
6039	64993	See you in Enron House when I get back.	See you in Enron House when I get back.	3093055	1471998239270	1471998239453	o	79
6039	64993	See you in Enron House when I get back.	See you in Enron House when I get back.	3093058	1471998239366	1471998239509	u	85
6039	64993	See you in Enron House when I get back.	See you in Enron House when I get back.	3093060	1471998239518	1471998239781	s	83
6039	64993	See you in Enron House when I get back.	See you in Enron House when I get back.	3093068	1471998239725	1471998239862	e	69
6039	64993	See you in Enron House when I get back.	See you in Enron House when I get back.	3093069	1471998239845	1471998239974	 	32
6039	64993	See you in Enron House when I get back.	See you in Enron House when I get back.	3093071	1471998239957	1471998240093	w	87
6039	64993	See you in Enron House when I get back.	See you in Enron House when I get back.	3093073	1471998240101	1471998240219	h	72
6039	64993	See you in Enron House when I get back.	See you in Enron House when I get back.	3093075	1471998240206	1471998240309	e	69
6039	64993	See you in Enron House when I get back.	See you in Enron House when I get back.	3093077	1471998240326	1471998240429	n	78
6039	64993	See you in Enron House when I get back.	See you in Enron House when I get back.	3093105	1471998240478	1471998240605	 	32
6039	64993	See you in Enron House when I get back.	See you in Enron House when I get back.	3093106	1471998240573	1471998240710	CAPS_LOCK	20
6039	64993	See you in Enron House when I get back.	See you in Enron House when I get back.	3093108	1471998240726	1471998240837	I	73
6039	64993	See you in Enron House when I get back.	See you in Enron House when I get back.	3093109	1471998240798	1471998240949	CAPS_LOCK	20
6039	64993	See you in Enron House when I get back.	See you in Enron House when I get back.	3093111	1471998240917	1471998241070	 	32
6039	64993	See you in Enron House when I get back.	See you in Enron House when I get back.	3093112	1471998241077	1471998241174	g	71
6039	64993	See you in Enron House when I get back.	See you in Enron House when I get back.	3093115	1471998241238	1471998241469	e	69
6039	64993	See you in Enron House when I get back.	See you in Enron House when I get back.	3093126	1471998241390	1471998241526	t	84
6039	64993	See you in Enron House when I get back.	See you in Enron House when I get back.	3093128	1471998241558	1471998241677	 	32
6039	64993	See you in Enron House when I get back.	See you in Enron House when I get back.	3093129	1471998241736	1471998241853	b	66
6039	64993	See you in Enron House when I get back.	See you in Enron House when I get back.	3093131	1471998241782	1471998242045	a	65
6039	64993	See you in Enron House when I get back.	See you in Enron House when I get back.	3093133	1471998241974	1471998242126	c	67
6039	64993	See you in Enron House when I get back.	See you in Enron House when I get back.	3093135	1471998242166	1471998242278	k	75
6039	64993	See you in Enron House when I get back.	See you in Enron House when I get back.	3093144	1471998242382	1471998242533	.	190
6039	64999	How did they get onto our floor?	How did you get onto our floor?	3093256	1471998246582	1471998246685	CAPS_LOCK	20
6039	64999	How did they get onto our floor?	How did you get onto our floor?	3093257	1471998246734	1471998246862	H	72
6039	64999	How did they get onto our floor?	How did you get onto our floor?	3093258	1471998246813	1471998246949	CAPS_LOCK	20
6039	64999	How did they get onto our floor?	How did you get onto our floor?	3093259	1471998246925	1471998247061	o	79
6039	64999	How did they get onto our floor?	How did you get onto our floor?	3093260	1471998247246	1471998247381	w	87
6039	64999	How did they get onto our floor?	How did you get onto our floor?	3093261	1471998247390	1471998247501	 	32
6039	64999	How did they get onto our floor?	How did you get onto our floor?	3093268	1471998247469	1471998247581	d	68
6039	64999	How did they get onto our floor?	How did you get onto our floor?	3093271	1471998247614	1471998247726	i	73
6039	64999	How did they get onto our floor?	How did you get onto our floor?	3093274	1471998247670	1471998247790	d	68
6039	64999	How did they get onto our floor?	How did you get onto our floor?	3093278	1471998247782	1471998247901	 	32
6039	64999	How did they get onto our floor?	How did you get onto our floor?	3093282	1471998248006	1471998248125	y	89
6039	64999	How did they get onto our floor?	How did you get onto our floor?	3093290	1471998248061	1471998248253	o	79
6039	64999	How did they get onto our floor?	How did you get onto our floor?	3093291	1471998248181	1471998248285	u	85
6039	64999	How did they get onto our floor?	How did you get onto our floor?	3093296	1471998248365	1471998248493	 	32
6039	64999	How did they get onto our floor?	How did you get onto our floor?	3093299	1471998248461	1471998248590	g	71
6039	64999	How did they get onto our floor?	How did you get onto our floor?	3093301	1471998248573	1471998248749	e	69
6039	64999	How did they get onto our floor?	How did you get onto our floor?	3093322	1471998248685	1471998248805	t	84
6039	64999	How did they get onto our floor?	How did you get onto our floor?	3093326	1471998248726	1471998248846	 	32
6039	64999	How did they get onto our floor?	How did you get onto our floor?	3093330	1471998248925	1471998249045	o	79
6039	64999	How did they get onto our floor?	How did you get onto our floor?	3093334	1471998249077	1471998249198	n	78
6039	64999	How did they get onto our floor?	How did you get onto our floor?	3093338	1471998249230	1471998249358	t	84
6039	64999	How did they get onto our floor?	How did you get onto our floor?	3093340	1471998249293	1471998249406	o	79
6039	64999	How did they get onto our floor?	How did you get onto our floor?	3093341	1471998249469	1471998249598	 	32
6039	64999	How did they get onto our floor?	How did you get onto our floor?	3093349	1471998249661	1471998249877	o	79
6039	64999	How did they get onto our floor?	How did you get onto our floor?	3093350	1471998249805	1471998249941	u	85
6039	64999	How did they get onto our floor?	How did you get onto our floor?	3093352	1471998249981	1471998250102	r	82
6039	64999	How did they get onto our floor?	How did you get onto our floor?	3093354	1471998250086	1471998250213	 	32
6039	64999	How did they get onto our floor?	How did you get onto our floor?	3093357	1471998250246	1471998250373	f	70
6039	64999	How did they get onto our floor?	How did you get onto our floor?	3093510	1471998250357	1471998250454	l	76
6039	64999	How did they get onto our floor?	How did you get onto our floor?	3093511	1471998250526	1471998250622	o	79
6039	64999	How did they get onto our floor?	How did you get onto our floor?	3093512	1471998250661	1471998250749	o	79
6039	64999	How did they get onto our floor?	How did you get onto our floor?	3093513	1471998250878	1471998251005	r	82
6039	64999	How did they get onto our floor?	How did you get onto our floor?	3093515	1471998251061	1471998251486	SHIFT	16
6039	64999	How did they get onto our floor?	How did you get onto our floor?	3093514	1471998251269	1471998251398	ARW_UP	38
6039	64999	How did they get onto our floor?	How did you get onto our floor?	3093516	1471998254958	1471998255278	SHIFT	16
6039	64999	How did they get onto our floor?	How did you get onto our floor?	3093517	1471998255158	1471998255334	?	191
6039	65006	Feel free to use Robinson if he doesn't suffer a setback.	Feel free to use Robinson if he doesn't suffer a setback.	3093605	1471998259726	1471998259845	CAPS_LOCK	20
6039	65006	Feel free to use Robinson if he doesn't suffer a setback.	Feel free to use Robinson if he doesn't suffer a setback.	3093607	1471998259862	1471998260100	F	70
6039	65006	Feel free to use Robinson if he doesn't suffer a setback.	Feel free to use Robinson if he doesn't suffer a setback.	3093609	1471998259966	1471998260165	CAPS_LOCK	20
6039	65006	Feel free to use Robinson if he doesn't suffer a setback.	Feel free to use Robinson if he doesn't suffer a setback.	3093611	1471998260086	1471998260205	e	69
6039	65006	Feel free to use Robinson if he doesn't suffer a setback.	Feel free to use Robinson if he doesn't suffer a setback.	3093614	1471998260270	1471998260390	e	69
6039	65006	Feel free to use Robinson if he doesn't suffer a setback.	Feel free to use Robinson if he doesn't suffer a setback.	3093618	1471998260421	1471998260534	l	76
6039	65006	Feel free to use Robinson if he doesn't suffer a setback.	Feel free to use Robinson if he doesn't suffer a setback.	3093621	1471998260573	1471998260702	 	32
6039	65006	Feel free to use Robinson if he doesn't suffer a setback.	Feel free to use Robinson if he doesn't suffer a setback.	3093642	1471998260893	1471998261021	f	70
6039	65006	Feel free to use Robinson if he doesn't suffer a setback.	Feel free to use Robinson if he doesn't suffer a setback.	3093643	1471998261117	1471998261254	r	82
6039	65006	Feel free to use Robinson if he doesn't suffer a setback.	Feel free to use Robinson if he doesn't suffer a setback.	3093644	1471998261349	1471998261422	e	69
6039	65006	Feel free to use Robinson if he doesn't suffer a setback.	Feel free to use Robinson if he doesn't suffer a setback.	3093645	1471998261469	1471998261613	e	69
6039	65006	Feel free to use Robinson if he doesn't suffer a setback.	Feel free to use Robinson if he doesn't suffer a setback.	3093658	1471998261590	1471998261725	 	32
6039	65006	Feel free to use Robinson if he doesn't suffer a setback.	Feel free to use Robinson if he doesn't suffer a setback.	3093661	1471998261694	1471998261790	t	84
6039	65006	Feel free to use Robinson if he doesn't suffer a setback.	Feel free to use Robinson if he doesn't suffer a setback.	3093663	1471998261814	1471998261918	o	79
6039	65006	Feel free to use Robinson if he doesn't suffer a setback.	Feel free to use Robinson if he doesn't suffer a setback.	3093666	1471998261989	1471998262110	 	32
6039	65006	Feel free to use Robinson if he doesn't suffer a setback.	Feel free to use Robinson if he doesn't suffer a setback.	3093667	1471998262198	1471998262317	u	85
6039	65006	Feel free to use Robinson if he doesn't suffer a setback.	Feel free to use Robinson if he doesn't suffer a setback.	3093694	1471998262294	1471998262502	s	83
6039	65006	Feel free to use Robinson if he doesn't suffer a setback.	Feel free to use Robinson if he doesn't suffer a setback.	3093697	1471998262397	1471998262550	e	69
6039	65006	Feel free to use Robinson if he doesn't suffer a setback.	Feel free to use Robinson if he doesn't suffer a setback.	3093699	1471998262533	1471998262677	 	32
6039	65006	Feel free to use Robinson if he doesn't suffer a setback.	Feel free to use Robinson if he doesn't suffer a setback.	3093701	1471998262669	1471998262861	CAPS_LOCK	20
6039	65006	Feel free to use Robinson if he doesn't suffer a setback.	Feel free to use Robinson if he doesn't suffer a setback.	3093703	1471998262877	1471998263102	R	82
6039	65006	Feel free to use Robinson if he doesn't suffer a setback.	Feel free to use Robinson if he doesn't suffer a setback.	3093706	1471998262973	1471998263125	CAPS_LOCK	20
6039	65006	Feel free to use Robinson if he doesn't suffer a setback.	Feel free to use Robinson if he doesn't suffer a setback.	3093709	1471998263069	1471998263198	o	79
6039	65006	Feel free to use Robinson if he doesn't suffer a setback.	Feel free to use Robinson if he doesn't suffer a setback.	3093711	1471998263286	1471998263398	b	66
6039	65006	Feel free to use Robinson if he doesn't suffer a setback.	Feel free to use Robinson if he doesn't suffer a setback.	3093721	1471998263414	1471998263590	i	73
6039	65006	Feel free to use Robinson if he doesn't suffer a setback.	Feel free to use Robinson if he doesn't suffer a setback.	3093724	1471998263494	1471998263646	n	78
6039	65006	Feel free to use Robinson if he doesn't suffer a setback.	Feel free to use Robinson if he doesn't suffer a setback.	3093727	1471998263677	1471998263846	s	83
6039	65006	Feel free to use Robinson if he doesn't suffer a setback.	Feel free to use Robinson if he doesn't suffer a setback.	3093729	1471998263902	1471998264085	o	79
6039	65006	Feel free to use Robinson if he doesn't suffer a setback.	Feel free to use Robinson if he doesn't suffer a setback.	3093751	1471998264021	1471998264141	n	78
6039	65006	Feel free to use Robinson if he doesn't suffer a setback.	Feel free to use Robinson if he doesn't suffer a setback.	3093754	1471998264230	1471998264358	 	32
6039	65006	Feel free to use Robinson if he doesn't suffer a setback.	Feel free to use Robinson if he doesn't suffer a setback.	3093757	1471998264477	1471998264613	i	73
6039	65006	Feel free to use Robinson if he doesn't suffer a setback.	Feel free to use Robinson if he doesn't suffer a setback.	3093759	1471998264789	1471998264902	f	70
6039	65006	Feel free to use Robinson if he doesn't suffer a setback.	Feel free to use Robinson if he doesn't suffer a setback.	3093764	1471998264893	1471998264997	 	32
6039	65006	Feel free to use Robinson if he doesn't suffer a setback.	Feel free to use Robinson if he doesn't suffer a setback.	3093766	1471998265022	1471998265134	h	72
6039	65006	Feel free to use Robinson if he doesn't suffer a setback.	Feel free to use Robinson if he doesn't suffer a setback.	3093781	1471998265086	1471998265229	e	69
6039	65006	Feel free to use Robinson if he doesn't suffer a setback.	Feel free to use Robinson if he doesn't suffer a setback.	3093784	1471998265213	1471998265341	 	32
6039	65006	Feel free to use Robinson if he doesn't suffer a setback.	Feel free to use Robinson if he doesn't suffer a setback.	3093787	1471998265309	1471998265485	d	68
6039	65006	Feel free to use Robinson if he doesn't suffer a setback.	Feel free to use Robinson if he doesn't suffer a setback.	3093789	1471998265453	1471998265566	o	79
6039	65006	Feel free to use Robinson if he doesn't suffer a setback.	Feel free to use Robinson if he doesn't suffer a setback.	3093791	1471998265534	1471998265709	e	69
6039	65006	Feel free to use Robinson if he doesn't suffer a setback.	Feel free to use Robinson if he doesn't suffer a setback.	3093857	1471998265621	1471998265766	s	83
6039	65006	Feel free to use Robinson if he doesn't suffer a setback.	Feel free to use Robinson if he doesn't suffer a setback.	3093859	1471998265781	1471998265869	n	78
6039	65006	Feel free to use Robinson if he doesn't suffer a setback.	Feel free to use Robinson if he doesn't suffer a setback.	3093861	1471998266389	1471998266502	'	222
6039	65006	Feel free to use Robinson if he doesn't suffer a setback.	Feel free to use Robinson if he doesn't suffer a setback.	3093862	1471998266630	1471998266774	t	84
6039	65006	Feel free to use Robinson if he doesn't suffer a setback.	Feel free to use Robinson if he doesn't suffer a setback.	3093863	1471998266885	1471998267014	 	32
6039	65006	Feel free to use Robinson if he doesn't suffer a setback.	Feel free to use Robinson if he doesn't suffer a setback.	3093864	1471998267677	1471998267822	s	83
6039	65006	Feel free to use Robinson if he doesn't suffer a setback.	Feel free to use Robinson if he doesn't suffer a setback.	3093870	1471998267886	1471998268031	u	85
6039	65006	Feel free to use Robinson if he doesn't suffer a setback.	Feel free to use Robinson if he doesn't suffer a setback.	3093872	1471998268054	1471998268141	f	70
6039	65006	Feel free to use Robinson if he doesn't suffer a setback.	Feel free to use Robinson if he doesn't suffer a setback.	3093873	1471998268214	1471998268336	f	70
6039	65006	Feel free to use Robinson if he doesn't suffer a setback.	Feel free to use Robinson if he doesn't suffer a setback.	3093874	1471998268318	1471998268549	e	69
6039	65006	Feel free to use Robinson if he doesn't suffer a setback.	Feel free to use Robinson if he doesn't suffer a setback.	3093896	1471998268453	1471998268614	r	82
6039	65006	Feel free to use Robinson if he doesn't suffer a setback.	Feel free to use Robinson if he doesn't suffer a setback.	3093897	1471998268670	1471998268805	 	32
6039	65006	Feel free to use Robinson if he doesn't suffer a setback.	Feel free to use Robinson if he doesn't suffer a setback.	3093898	1471998269062	1471998269245	a	65
6039	65006	Feel free to use Robinson if he doesn't suffer a setback.	Feel free to use Robinson if he doesn't suffer a setback.	3093899	1471998269277	1471998269429	 	32
6039	65006	Feel free to use Robinson if he doesn't suffer a setback.	Feel free to use Robinson if he doesn't suffer a setback.	3093900	1471998269493	1471998269774	s	83
6039	65006	Feel free to use Robinson if he doesn't suffer a setback.	Feel free to use Robinson if he doesn't suffer a setback.	3093929	1471998269654	1471998269822	e	69
6039	65006	Feel free to use Robinson if he doesn't suffer a setback.	Feel free to use Robinson if he doesn't suffer a setback.	3093932	1471998269862	1471998269997	t	84
6039	65006	Feel free to use Robinson if he doesn't suffer a setback.	Feel free to use Robinson if he doesn't suffer a setback.	3093936	1471998270045	1471998270165	b	66
6039	65006	Feel free to use Robinson if he doesn't suffer a setback.	Feel free to use Robinson if he doesn't suffer a setback.	3093940	1471998270093	1471998270462	a	65
6039	65006	Feel free to use Robinson if he doesn't suffer a setback.	Feel free to use Robinson if he doesn't suffer a setback.	3093944	1471998270398	1471998270558	c	67
6039	65006	Feel free to use Robinson if he doesn't suffer a setback.	Feel free to use Robinson if he doesn't suffer a setback.	3093946	1471998270574	1471998270645	k	75
6039	65006	Feel free to use Robinson if he doesn't suffer a setback.	Feel free to use Robinson if he doesn't suffer a setback.	3093963	1471998271054	1471998271174	.	190
6039	65014	The delegation is to visit a metal works.	The delegation is to visit a metal works.	3094036	1471998273158	1471998273351	CAPS_LOCK	20
6039	65014	The delegation is to visit a metal works.	The delegation is to visit a metal works.	3094037	1471998273342	1471998273557	T	84
6039	65014	The delegation is to visit a metal works.	The delegation is to visit a metal works.	3094038	1471998273446	1471998273622	CAPS_LOCK	20
6039	65014	The delegation is to visit a metal works.	The delegation is to visit a metal works.	3094039	1471998273493	1471998273629	h	72
6039	65014	The delegation is to visit a metal works.	The delegation is to visit a metal works.	3094040	1471998273581	1471998273734	e	69
6039	65014	The delegation is to visit a metal works.	The delegation is to visit a metal works.	3094041	1471998273765	1471998273886	 	32
6039	65014	The delegation is to visit a metal works.	The delegation is to visit a metal works.	3094091	1471998273878	1471998274094	d	68
6039	65014	The delegation is to visit a metal works.	The delegation is to visit a metal works.	3094093	1471998274006	1471998274181	e	69
6039	65014	The delegation is to visit a metal works.	The delegation is to visit a metal works.	3094095	1471998274189	1471998274341	l	76
6039	65014	The delegation is to visit a metal works.	The delegation is to visit a metal works.	3094098	1471998274349	1471998274502	e	69
6039	65014	The delegation is to visit a metal works.	The delegation is to visit a metal works.	3094101	1471998275070	1471998275197	f	70
6039	65014	The delegation is to visit a metal works.	The delegation is to visit a metal works.	3094104	1471998275373	1471998275494	BKSP	8
6039	65014	The delegation is to visit a metal works.	The delegation is to visit a metal works.	3094109	1471998275566	1471998275733	g	71
6039	65014	The delegation is to visit a metal works.	The delegation is to visit a metal works.	3094124	1471998275742	1471998276024	a	65
6039	65014	The delegation is to visit a metal works.	The delegation is to visit a metal works.	3094126	1471998275981	1471998276182	t	84
6039	65014	The delegation is to visit a metal works.	The delegation is to visit a metal works.	3094128	1471998276134	1471998276350	i	73
6039	65014	The delegation is to visit a metal works.	The delegation is to visit a metal works.	3094149	1471998276214	1471998276406	o	79
6039	65014	The delegation is to visit a metal works.	The delegation is to visit a metal works.	3094153	1471998276334	1471998276454	n	78
6039	65014	The delegation is to visit a metal works.	The delegation is to visit a metal works.	3094156	1471998276486	1471998276622	 	32
6039	65014	The delegation is to visit a metal works.	The delegation is to visit a metal works.	3094157	1471998276678	1471998276806	i	73
6039	65014	The delegation is to visit a metal works.	The delegation is to visit a metal works.	3094158	1471998276758	1471998276910	s	83
6039	65014	The delegation is to visit a metal works.	The delegation is to visit a metal works.	3094159	1471998276885	1471998276998	 	32
6039	65014	The delegation is to visit a metal works.	The delegation is to visit a metal works.	3094160	1471998277038	1471998277141	t	84
6039	65014	The delegation is to visit a metal works.	The delegation is to visit a metal works.	3094189	1471998277093	1471998277198	o	79
6039	65014	The delegation is to visit a metal works.	The delegation is to visit a metal works.	3094191	1471998277254	1471998277382	 	32
6039	65014	The delegation is to visit a metal works.	The delegation is to visit a metal works.	3094194	1471998277494	1471998277598	i	73
6039	65014	The delegation is to visit a metal works.	The delegation is to visit a metal works.	3094197	1471998277878	1471998277990	BKSP	8
6039	65014	The delegation is to visit a metal works.	The delegation is to visit a metal works.	3094200	1471998278446	1471998278598	v	86
6039	65014	The delegation is to visit a metal works.	The delegation is to visit a metal works.	3094203	1471998278590	1471998278694	i	73
6039	65014	The delegation is to visit a metal works.	The delegation is to visit a metal works.	3094238	1471998278654	1471998278814	s	83
6039	65014	The delegation is to visit a metal works.	The delegation is to visit a metal works.	3094239	1471998278774	1471998278878	i	73
6039	65014	The delegation is to visit a metal works.	The delegation is to visit a metal works.	3094240	1471998278838	1471998278903	t	84
6039	65014	The delegation is to visit a metal works.	The delegation is to visit a metal works.	3094241	1471998279094	1471998279222	 	32
6039	65014	The delegation is to visit a metal works.	The delegation is to visit a metal works.	3094243	1471998279670	1471998279805	a	65
6039	65014	The delegation is to visit a metal works.	The delegation is to visit a metal works.	3094246	1471998279822	1471998279957	 	32
6039	65014	The delegation is to visit a metal works.	The delegation is to visit a metal works.	3094275	1471998280070	1471998280214	m	77
6039	65014	The delegation is to visit a metal works.	The delegation is to visit a metal works.	3094277	1471998280166	1471998280366	e	69
6039	65014	The delegation is to visit a metal works.	The delegation is to visit a metal works.	3094278	1471998280328	1471998280502	t	84
6039	65014	The delegation is to visit a metal works.	The delegation is to visit a metal works.	3094280	1471998280470	1471998280614	a	65
6039	65014	The delegation is to visit a metal works.	The delegation is to visit a metal works.	3094307	1471998280590	1471998280718	l	76
6039	65014	The delegation is to visit a metal works.	The delegation is to visit a metal works.	3094313	1471998280838	1471998280958	 	32
6039	65014	The delegation is to visit a metal works.	The delegation is to visit a metal works.	3094316	1471998281102	1471998281270	w	87
6039	65014	The delegation is to visit a metal works.	The delegation is to visit a metal works.	3094321	1471998281254	1471998281366	o	79
6039	65014	The delegation is to visit a metal works.	The delegation is to visit a metal works.	3094323	1471998281398	1471998281534	r	82
6039	65014	The delegation is to visit a metal works.	The delegation is to visit a metal works.	3094327	1471998281558	1471998281670	k	75
6039	65014	The delegation is to visit a metal works.	The delegation is to visit a metal works.	3094356	1471998281662	1471998281806	s	83
6039	65014	The delegation is to visit a metal works.	The delegation is to visit a metal works.	3094359	1471998282654	1471998282798	.	190
6039	65023	Winning here, everybody was more shocked and surprised.	Winnning here, everyuboidy was more shocked and suprised. 	3094434	1471998285310	1471998285478	CAPS_LOCK	20
6039	65023	Winning here, everybody was more shocked and surprised.	Winnning here, everyuboidy was more shocked and suprised. 	3094435	1471998285461	1471998285669	W	87
6039	65023	Winning here, everybody was more shocked and surprised.	Winnning here, everyuboidy was more shocked and suprised. 	3094436	1471998285590	1471998285717	CAPS_LOCK	20
6039	65023	Winning here, everybody was more shocked and surprised.	Winnning here, everyuboidy was more shocked and suprised. 	3094437	1471998285726	1471998285813	i	73
6039	65023	Winning here, everybody was more shocked and surprised.	Winnning here, everyuboidy was more shocked and suprised. 	3094438	1471998285885	1471998285998	n	78
6039	65023	Winning here, everybody was more shocked and surprised.	Winnning here, everyuboidy was more shocked and suprised. 	3094439	1471998286014	1471998286110	n	78
6039	65023	Winning here, everybody was more shocked and surprised.	Winnning here, everyuboidy was more shocked and suprised. 	3094440	1471998286182	1471998286318	n	78
6039	65023	Winning here, everybody was more shocked and surprised.	Winnning here, everyuboidy was more shocked and suprised. 	3094457	1471998286286	1471998286446	i	73
6039	65023	Winning here, everybody was more shocked and surprised.	Winnning here, everyuboidy was more shocked and suprised. 	3094462	1471998286423	1471998286526	n	78
6039	65023	Winning here, everybody was more shocked and surprised.	Winnning here, everyuboidy was more shocked and suprised. 	3094467	1471998286558	1471998286718	g	71
6039	65023	Winning here, everybody was more shocked and surprised.	Winnning here, everyuboidy was more shocked and suprised. 	3094480	1471998286694	1471998286806	,	188
6039	65023	Winning here, everybody was more shocked and surprised.	Winnning here, everyuboidy was more shocked and suprised. 	3094472	1471998286712	1471998286790	m	77
6039	65023	Winning here, everybody was more shocked and surprised.	Winnning here, everyuboidy was more shocked and suprised. 	3094485	1471998286830	1471998286974	 	32
6039	65023	Winning here, everybody was more shocked and surprised.	Winnning here, everyuboidy was more shocked and suprised. 	3094532	1471998287174	1471998287294	BKSP	8
6039	65023	Winning here, everybody was more shocked and surprised.	Winnning here, everyuboidy was more shocked and suprised. 	3094534	1471998287414	1471998287502	BKSP	8
6039	65023	Winning here, everybody was more shocked and surprised.	Winnning here, everyuboidy was more shocked and suprised. 	3094536	1471998287518	1471998287670	 	32
6039	65023	Winning here, everybody was more shocked and surprised.	Winnning here, everyuboidy was more shocked and suprised. 	3094537	1471998288102	1471998288222	BKSP	8
6039	65023	Winning here, everybody was more shocked and surprised.	Winnning here, everyuboidy was more shocked and suprised. 	3094538	1471998288262	1471998288398	BKSP	8
6039	65023	Winning here, everybody was more shocked and surprised.	Winnning here, everyuboidy was more shocked and suprised. 	3094539	1471998288486	1471998288630	 	32
6039	65023	Winning here, everybody was more shocked and surprised.	Winnning here, everyuboidy was more shocked and suprised. 	3094540	1471998288598	1471998288702	h	72
6039	65023	Winning here, everybody was more shocked and surprised.	Winnning here, everyuboidy was more shocked and suprised. 	3094542	1471998288718	1471998288906	e	69
6039	65023	Winning here, everybody was more shocked and surprised.	Winnning here, everyuboidy was more shocked and suprised. 	3094565	1471998288840	1471998289054	r	82
6039	65023	Winning here, everybody was more shocked and surprised.	Winnning here, everyuboidy was more shocked and suprised. 	3094568	1471998288950	1471998289085	e	69
6039	65023	Winning here, everybody was more shocked and surprised.	Winnning here, everyuboidy was more shocked and suprised. 	3094572	1471998289062	1471998289205	,	188
6039	65023	Winning here, everybody was more shocked and surprised.	Winnning here, everyuboidy was more shocked and suprised. 	3094577	1471998289263	1471998289405	 	32
6039	65023	Winning here, everybody was more shocked and surprised.	Winnning here, everyuboidy was more shocked and suprised. 	3094579	1471998289590	1471998289757	e	69
6039	65023	Winning here, everybody was more shocked and surprised.	Winnning here, everyuboidy was more shocked and suprised. 	3094582	1471998290094	1471998290223	v	86
6039	65023	Winning here, everybody was more shocked and surprised.	Winnning here, everyuboidy was more shocked and suprised. 	3094600	1471998290206	1471998290397	e	69
6039	65023	Winning here, everybody was more shocked and surprised.	Winnning here, everyuboidy was more shocked and suprised. 	3094602	1471998290358	1471998290478	r	82
6039	65023	Winning here, everybody was more shocked and surprised.	Winnning here, everyuboidy was more shocked and suprised. 	3094605	1471998290501	1471998290605	u	89
6039	65023	Winning here, everybody was more shocked and surprised.	Winnning here, everyuboidy was more shocked and suprised. 	3094608	1471998290689	1471998290805	b	66
6039	65023	Winning here, everybody was more shocked and surprised.	Winnning here, everyuboidy was more shocked and suprised. 	3094628	1471998290870	1471998290981	o	79
6039	65023	Winning here, everybody was more shocked and surprised.	Winnning here, everyuboidy was more shocked and suprised. 	3094611	1471998290890	1471998290973	i	73
6039	65023	Winning here, everybody was more shocked and surprised.	Winnning here, everyuboidy was more shocked and suprised. 	3094630	1471998291014	1471998291141	d	68
6039	65023	Winning here, everybody was more shocked and surprised.	Winnning here, everyuboidy was more shocked and suprised. 	3094632	1471998291174	1471998291302	y	89
6039	65023	Winning here, everybody was more shocked and surprised.	Winnning here, everyuboidy was more shocked and suprised. 	3094634	1471998291445	1471998291582	 	32
6039	65023	Winning here, everybody was more shocked and surprised.	Winnning here, everyuboidy was more shocked and suprised. 	3094636	1471998291774	1471998291965	w	87
6039	65023	Winning here, everybody was more shocked and surprised.	Winnning here, everyuboidy was more shocked and suprised. 	3094651	1471998291893	1471998292102	a	65
6039	65023	Winning here, everybody was more shocked and surprised.	Winnning here, everyuboidy was more shocked and suprised. 	3094652	1471998291998	1471998292157	s	83
6039	65023	Winning here, everybody was more shocked and surprised.	Winnning here, everyuboidy was more shocked and suprised. 	3094654	1471998292078	1471998292197	 	32
6039	65023	Winning here, everybody was more shocked and surprised.	Winnning here, everyuboidy was more shocked and suprised. 	3094656	1471998292286	1471998292445	m	77
6039	65023	Winning here, everybody was more shocked and surprised.	Winnning here, everyuboidy was more shocked and suprised. 	3094657	1471998292373	1471998292510	o	79
6039	65023	Winning here, everybody was more shocked and surprised.	Winnning here, everyuboidy was more shocked and suprised. 	3094690	1471998292469	1471998292645	r	82
6039	65023	Winning here, everybody was more shocked and surprised.	Winnning here, everyuboidy was more shocked and suprised. 	3094692	1471998292557	1471998292693	e	69
6039	65023	Winning here, everybody was more shocked and surprised.	Winnning here, everyuboidy was more shocked and suprised. 	3094694	1471998292653	1471998292774	 	32
6039	65023	Winning here, everybody was more shocked and surprised.	Winnning here, everyuboidy was more shocked and suprised. 	3094696	1471998292886	1471998293022	s	83
6039	65023	Winning here, everybody was more shocked and surprised.	Winnning here, everyuboidy was more shocked and suprised. 	3094698	1471998293046	1471998293150	h	72
6039	65023	Winning here, everybody was more shocked and surprised.	Winnning here, everyuboidy was more shocked and suprised. 	3094700	1471998293781	1471998293950	o	79
6039	65023	Winning here, everybody was more shocked and surprised.	Winnning here, everyuboidy was more shocked and suprised. 	3094729	1471998294429	1471998294581	c	67
6039	65023	Winning here, everybody was more shocked and surprised.	Winnning here, everyuboidy was more shocked and suprised. 	3094731	1471998294565	1471998294678	k	75
6039	65023	Winning here, everybody was more shocked and surprised.	Winnning here, everyuboidy was more shocked and suprised. 	3094733	1471998294621	1471998294750	e	69
6039	65023	Winning here, everybody was more shocked and surprised.	Winnning here, everyuboidy was more shocked and suprised. 	3094736	1471998294814	1471998294974	d	68
6039	65023	Winning here, everybody was more shocked and surprised.	Winnning here, everyuboidy was more shocked and suprised. 	3094739	1471998294998	1471998295126	 	32
6039	65023	Winning here, everybody was more shocked and surprised.	Winnning here, everyuboidy was more shocked and suprised. 	3094747	1471998295134	1471998295334	a	65
6039	65023	Winning here, everybody was more shocked and surprised.	Winnning here, everyuboidy was more shocked and suprised. 	3094750	1471998295246	1471998295365	n	78
6039	65023	Winning here, everybody was more shocked and surprised.	Winnning here, everyuboidy was more shocked and suprised. 	3094753	1471998295341	1471998295461	d	68
6039	65023	Winning here, everybody was more shocked and surprised.	Winnning here, everyuboidy was more shocked and suprised. 	3094757	1471998295486	1471998295614	 	32
6039	65023	Winning here, everybody was more shocked and surprised.	Winnning here, everyuboidy was more shocked and suprised. 	3094759	1471998295637	1471998295781	s	83
6039	65023	Winning here, everybody was more shocked and surprised.	Winnning here, everyuboidy was more shocked and suprised. 	3094780	1471998295725	1471998295862	u	85
6039	65023	Winning here, everybody was more shocked and surprised.	Winnning here, everyuboidy was more shocked and suprised. 	3094781	1471998295981	1471998296053	p	79
6039	65023	Winning here, everybody was more shocked and surprised.	Winnning here, everyuboidy was more shocked and suprised. 	3094782	1471998296462	1471998296582	BKSP	8
6039	65023	Winning here, everybody was more shocked and surprised.	Winnning here, everyuboidy was more shocked and suprised. 	3094784	1471998296630	1471998296750	BKSP	8
6039	65023	Winning here, everybody was more shocked and surprised.	Winnning here, everyuboidy was more shocked and suprised. 	3094786	1471998296902	1471998297030	p	80
6039	65023	Winning here, everybody was more shocked and surprised.	Winnning here, everyuboidy was more shocked and suprised. 	3094788	1471998297046	1471998297150	r	82
6039	65023	Winning here, everybody was more shocked and surprised.	Winnning here, everyuboidy was more shocked and suprised. 	3094790	1471998297166	1471998297286	i	73
6039	65023	Winning here, everybody was more shocked and surprised.	Winnning here, everyuboidy was more shocked and suprised. 	3094819	1471998297245	1471998297357	d	68
6039	65023	Winning here, everybody was more shocked and surprised.	Winnning here, everyuboidy was more shocked and suprised. 	3094820	1471998297776	1471998297910	BKSP	8
6039	65023	Winning here, everybody was more shocked and surprised.	Winnning here, everyuboidy was more shocked and suprised. 	3094821	1471998297918	1471998298150	s	83
6039	65023	Winning here, everybody was more shocked and surprised.	Winnning here, everyuboidy was more shocked and suprised. 	3094823	1471998298038	1471998298173	e	69
6039	65023	Winning here, everybody was more shocked and surprised.	Winnning here, everyuboidy was more shocked and suprised. 	3094827	1471998298198	1471998298357	d	68
6039	65023	Winning here, everybody was more shocked and surprised.	Winnning here, everyuboidy was more shocked and suprised. 	3094830	1471998298310	1471998298446	.	190
6039	65023	Winning here, everybody was more shocked and surprised.	Winnning here, everyuboidy was more shocked and suprised. 	3094833	1471998298518	1471998298614	 	32
6039	65033	You know that I love you.	You know that I love tou. 	3094906	1471998300518	1471998300662	CAPS_LOCK	20
6039	65033	You know that I love you.	You know that I love tou. 	3094912	1471998300734	1471998300837	Y	89
6039	65033	You know that I love you.	You know that I love tou. 	3094918	1471998300781	1471998300949	CAPS_LOCK	20
6039	65033	You know that I love you.	You know that I love tou. 	3094924	1471998300910	1471998301053	o	79
6039	65033	You know that I love you.	You know that I love tou. 	3094928	1471998301005	1471998301125	u	85
6039	65033	You know that I love you.	You know that I love tou. 	3094933	1471998301157	1471998301262	 	32
6039	65033	You know that I love you.	You know that I love tou. 	3094934	1471998301429	1471998301645	k	75
6039	65033	You know that I love you.	You know that I love tou. 	3094951	1471998301558	1471998301701	n	78
6039	65033	You know that I love you.	You know that I love tou. 	3094953	1471998301750	1471998301861	o	79
6039	65033	You know that I love you.	You know that I love tou. 	3094955	1471998301838	1471998301957	w	87
6039	65033	You know that I love you.	You know that I love tou. 	3094957	1471998302083	1471998302200	 	32
6039	65033	You know that I love you.	You know that I love tou. 	3094960	1471998302214	1471998302445	w	87
6039	65033	You know that I love you.	You know that I love tou. 	3095006	1471998302334	1471998302462	h	72
6039	65033	You know that I love you.	You know that I love tou. 	3095008	1471998302397	1471998302621	a	65
6039	65033	You know that I love you.	You know that I love tou. 	3095010	1471998302557	1471998302726	t	84
6039	65033	You know that I love you.	You know that I love tou. 	3095012	1471998302670	1471998302813	 	32
6039	65033	You know that I love you.	You know that I love tou. 	3095016	1471998303038	1471998303142	BKSP	8
6039	65033	You know that I love you.	You know that I love tou. 	3095019	1471998303190	1471998303269	BKSP	8
6039	65033	You know that I love you.	You know that I love tou. 	3095021	1471998303334	1471998303413	BKSP	8
6039	65033	You know that I love you.	You know that I love tou. 	3095025	1471998303469	1471998303541	BKSP	8
6039	65033	You know that I love you.	You know that I love tou. 	3095028	1471998303614	1471998303773	BKSP	8
6039	65033	You know that I love you.	You know that I love tou. 	3095031	1471998303869	1471998303982	t	84
6039	65033	You know that I love you.	You know that I love tou. 	3095032	1471998303974	1471998304085	h	72
6039	65033	You know that I love you.	You know that I love tou. 	3095033	1471998304061	1471998304237	a	65
6039	65033	You know that I love you.	You know that I love tou. 	3095034	1471998304158	1471998304309	t	84
6039	65033	You know that I love you.	You know that I love tou. 	3095035	1471998304221	1471998304325	 	32
6039	65033	You know that I love you.	You know that I love tou. 	3095036	1471998304349	1471998304462	CAPS_LOCK	20
6039	65033	You know that I love you.	You know that I love tou. 	3095039	1471998304413	1471998304525	I	73
6039	65033	You know that I love you.	You know that I love tou. 	3095037	1471998304454	1471998304502	U	85
6039	65033	You know that I love you.	You know that I love tou. 	3095043	1471998304541	1471998304693	CAPS_LOCK	20
6039	65033	You know that I love you.	You know that I love tou. 	3095058	1471998304589	1471998304709	 	32
6039	65033	You know that I love you.	You know that I love tou. 	3095060	1471998305046	1471998305133	BKSP	8
6039	65033	You know that I love you.	You know that I love tou. 	3095062	1471998305181	1471998305270	BKSP	8
6039	65033	You know that I love you.	You know that I love tou. 	3095064	1471998305262	1471998305390	 	32
6039	65033	You know that I love you.	You know that I love tou. 	3095066	1471998305405	1471998305509	l	76
6039	65033	You know that I love you.	You know that I love tou. 	3095110	1471998305581	1471998305805	v	86
6039	65033	You know that I love you.	You know that I love tou. 	3095108	1471998305645	1471998305718	9	79
6039	65033	You know that I love you.	You know that I love tou. 	3095112	1471998305758	1471998305926	e	69
6039	65033	You know that I love you.	You know that I love tou. 	3095113	1471998305918	1471998306029	 	32
6039	65033	You know that I love you.	You know that I love tou. 	3095114	1471998306166	1471998306262	BKSP	8
6039	65033	You know that I love you.	You know that I love tou. 	3095115	1471998306334	1471998306405	BKSP	8
6039	65033	You know that I love you.	You know that I love tou. 	3095117	1471998306485	1471998306573	BKSP	8
6039	65033	You know that I love you.	You know that I love tou. 	3095123	1471998306646	1471998306709	BKSP	8
6039	65033	You know that I love you.	You know that I love tou. 	3095127	1471998306774	1471998306885	BKSP	8
6039	65033	You know that I love you.	You know that I love tou. 	3095131	1471998307046	1471998307077	o	79
6039	65033	You know that I love you.	You know that I love tou. 	3095135	1471998307141	1471998307374	v	86
6039	65033	You know that I love you.	You know that I love tou. 	3095144	1471998307285	1471998307469	e	69
6039	65033	You know that I love you.	You know that I love tou. 	3095145	1471998307478	1471998307589	 	32
6039	65033	You know that I love you.	You know that I love tou. 	3095146	1471998307613	1471998307749	t	84
6039	65033	You know that I love you.	You know that I love tou. 	3095147	1471998307701	1471998307885	o	79
6039	65033	You know that I love you.	You know that I love tou. 	3095148	1471998307822	1471998307942	u	85
6039	65033	You know that I love you.	You know that I love tou. 	3095149	1471998308030	1471998308198	.	190
6039	65033	You know that I love you.	You know that I love tou. 	3095150	1471998308182	1471998308285	 	32
6039	65039	I'm glad you are involved!	I';m glad you are involved!	3095236	1471998310334	1471998310462	CAPS_LOCK	20
6039	65039	I'm glad you are involved!	I';m glad you are involved!	3095238	1471998310469	1471998310565	I	73
6039	65039	I'm glad you are involved!	I';m glad you are involved!	3095240	1471998310557	1471998310685	CAPS_LOCK	20
6039	65039	I'm glad you are involved!	I';m glad you are involved!	3095243	1471998311245	1471998311389	;	222
6039	65039	I'm glad you are involved!	I';m glad you are involved!	3095245	1471998311598	1471998311734	m	77
6039	65039	I'm glad you are involved!	I';m glad you are involved!	3095248	1471998311822	1471998311982	 	32
6039	65039	I'm glad you are involved!	I';m glad you are involved!	3095276	1471998312206	1471998312333	g	71
6039	65039	I'm glad you are involved!	I';m glad you are involved!	3095277	1471998312301	1471998312445	l	76
6039	65039	I'm glad you are involved!	I';m glad you are involved!	3095278	1471998312413	1471998312693	a	65
6039	65039	I'm glad you are involved!	I';m glad you are involved!	3095279	1471998312558	1471998312765	s	83
6039	65039	I'm glad you are involved!	I';m glad you are involved!	3095281	1471998313021	1471998313166	BKSP	8
6039	65039	I'm glad you are involved!	I';m glad you are involved!	3095283	1471998313197	1471998313333	d	68
6039	65039	I'm glad you are involved!	I';m glad you are involved!	3095325	1471998313341	1471998313470	 	32
6039	65039	I'm glad you are involved!	I';m glad you are involved!	3095330	1471998313566	1471998313797	o	79
6039	65039	I'm glad you are involved!	I';m glad you are involved!	3095332	1471998313710	1471998313845	u	85
6039	65039	I'm glad you are involved!	I';m glad you are involved!	3095334	1471998313998	1471998314085	BKSP	8
6039	65039	I'm glad you are involved!	I';m glad you are involved!	3095336	1471998314150	1471998314261	BKSP	8
6039	65039	I'm glad you are involved!	I';m glad you are involved!	3095338	1471998314853	1471998314997	y	89
6039	65039	I'm glad you are involved!	I';m glad you are involved!	3095354	1471998314966	1471998315150	o	79
6039	65039	I'm glad you are involved!	I';m glad you are involved!	3095358	1471998315069	1471998315181	u	85
6039	65039	I'm glad you are involved!	I';m glad you are involved!	3095362	1471998315253	1471998315381	 	32
6039	65039	I'm glad you are involved!	I';m glad you are involved!	3095366	1471998315302	1471998315446	a	65
6039	65039	I'm glad you are involved!	I';m glad you are involved!	3095369	1471998315390	1471998315590	r	82
6039	65039	I'm glad you are involved!	I';m glad you are involved!	3095394	1471998315509	1471998315678	e	69
6039	65039	I'm glad you are involved!	I';m glad you are involved!	3095391	1471998315550	1471998315661	 	32
6039	65039	I'm glad you are involved!	I';m glad you are involved!	3095399	1471998315717	1471998315862	i	73
6039	65039	I'm glad you are involved!	I';m glad you are involved!	3095406	1471998315790	1471998315909	n	78
6039	65039	I'm glad you are involved!	I';m glad you are involved!	3095411	1471998315933	1471998316045	v	86
6039	65039	I'm glad you are involved!	I';m glad you are involved!	3095478	1471998316070	1471998316133	i	79
6039	65039	I'm glad you are involved!	I';m glad you are involved!	3095479	1471998316453	1471998316581	BKSP	8
6039	65039	I'm glad you are involved!	I';m glad you are involved!	3095480	1471998317341	1471998317462	l	76
6039	65039	I'm glad you are involved!	I';m glad you are involved!	3095482	1471998317454	1471998317662	v	86
6039	65039	I'm glad you are involved!	I';m glad you are involved!	3095483	1471998317566	1471998317750	e	69
6039	65039	I'm glad you are involved!	I';m glad you are involved!	3095484	1471998317797	1471998317949	d	68
6039	65039	I'm glad you are involved!	I';m glad you are involved!	3095485	1471998318550	1471998318877	SHIFT	16
6039	65039	I'm glad you are involved!	I';m glad you are involved!	3095481	1471998318765	1471998318885	!	49
6039	65047	What a nice note.	What a nioce note. 	3095552	1471998320862	1471998321030	CAPS_LOCK	20
6039	65047	What a nice note.	What a nioce note. 	3095553	1471998321038	1471998321245	W	87
6039	65047	What a nice note.	What a nioce note. 	3095554	1471998321141	1471998321293	CAPS_LOCK	20
6039	65047	What a nice note.	What a nioce note. 	3095555	1471998321310	1471998321397	h	72
6039	65047	What a nice note.	What a nioce note. 	3095557	1471998321453	1471998321645	a	65
6039	65047	What a nice note.	What a nioce note. 	3095559	1471998321582	1471998321702	t	84
6039	65047	What a nice note.	What a nioce note. 	3095563	1471998321685	1471998321774	 	32
6039	65047	What a nice note.	What a nioce note. 	3095564	1471998321781	1471998321941	a	65
6039	65047	What a nice note.	What a nioce note. 	3095565	1471998321894	1471998321966	 	32
6039	65047	What a nice note.	What a nioce note. 	3095566	1471998322054	1471998322253	n	78
6039	65047	What a nice note.	What a nioce note. 	3095576	1471998322229	1471998322301	o	73
6039	65047	What a nice note.	What a nioce note. 	3095578	1471998322270	1471998322429	c	67
6039	65047	What a nice note.	What a nioce note. 	3095580	1471998322341	1471998322485	e	69
6039	65047	What a nice note.	What a nioce note. 	3095582	1471998322414	1471998322509	 	32
6039	65047	What a nice note.	What a nioce note. 	3095584	1471998322598	1471998322766	n	78
6039	65047	What a nice note.	What a nioce note. 	3095595	1471998322677	1471998322798	o	79
6039	65047	What a nice note.	What a nioce note. 	3095596	1471998322758	1471998322958	t	84
6039	65047	What a nice note.	What a nioce note. 	3095597	1471998322870	1471998323045	e	69
6039	65047	What a nice note.	What a nioce note. 	3095599	1471998323070	1471998323198	.	190
6039	65047	What a nice note.	What a nioce note. 	3095601	1471998323229	1471998323326	 	32
6039	65052	He is expected to participate in practice.	He is expected to participate in practice.	3095765	1471998327269	1471998327365	CAPS_LOCK	20
6039	65052	He is expected to participate in practice.	He is expected to participate in practice.	3095767	1471998327390	1471998327501	H	72
6039	65052	He is expected to participate in practice.	He is expected to participate in practice.	3095771	1471998327453	1471998327638	CAPS_LOCK	20
6039	65052	He is expected to participate in practice.	He is expected to participate in practice.	3095774	1471998327525	1471998327680	e	69
6039	65052	He is expected to participate in practice.	He is expected to participate in practice.	3095776	1471998327662	1471998327790	 	32
6039	65052	He is expected to participate in practice.	He is expected to participate in practice.	3095777	1471998328310	1471998328438	i	73
6039	65052	He is expected to participate in practice.	He is expected to participate in practice.	3095804	1471998328429	1471998328565	s	83
6039	65052	He is expected to participate in practice.	He is expected to participate in practice.	3095807	1471998328573	1471998328693	 	32
6039	65052	He is expected to participate in practice.	He is expected to participate in practice.	3095810	1471998328710	1471998328814	e	69
6039	65052	He is expected to participate in practice.	He is expected to participate in practice.	3095811	1471998328926	1471998329062	x	88
6039	65052	He is expected to participate in practice.	He is expected to participate in practice.	3095815	1471998329102	1471998329229	p	80
6039	65052	He is expected to participate in practice.	He is expected to participate in practice.	3095818	1471998329277	1471998329413	e	69
6039	65052	He is expected to participate in practice.	He is expected to participate in practice.	3095837	1471998329486	1471998329613	c	67
6039	65052	He is expected to participate in practice.	He is expected to participate in practice.	3095841	1471998329709	1471998329902	t	84
6039	65052	He is expected to participate in practice.	He is expected to participate in practice.	3095846	1471998329790	1471998329933	e	69
6039	65052	He is expected to participate in practice.	He is expected to participate in practice.	3095848	1471998329998	1471998330109	d	68
6039	65052	He is expected to participate in practice.	He is expected to participate in practice.	3095858	1471998330086	1471998330190	 	32
6039	65052	He is expected to participate in practice.	He is expected to participate in practice.	3095860	1471998330230	1471998330341	t	84
6039	65052	He is expected to participate in practice.	He is expected to participate in practice.	3095862	1471998330326	1471998330422	o	79
6039	65052	He is expected to participate in practice.	He is expected to participate in practice.	3095866	1471998330470	1471998330629	 	32
6039	65052	He is expected to participate in practice.	He is expected to participate in practice.	3095871	1471998330638	1471998330766	p	80
6039	65052	He is expected to participate in practice.	He is expected to participate in practice.	3095913	1471998330718	1471998330901	a	65
6039	65052	He is expected to participate in practice.	He is expected to participate in practice.	3095914	1471998330838	1471998330941	r	82
6039	65052	He is expected to participate in practice.	He is expected to participate in practice.	3095915	1471998331030	1471998331149	t	84
6039	65052	He is expected to participate in practice.	He is expected to participate in practice.	3095916	1471998331182	1471998331310	i	73
6039	65052	He is expected to participate in practice.	He is expected to participate in practice.	3095917	1471998331438	1471998331574	c	67
6039	65052	He is expected to participate in practice.	He is expected to participate in practice.	3095918	1471998331602	1471998331717	i	73
6039	65052	He is expected to participate in practice.	He is expected to participate in practice.	3095922	1471998331910	1471998332013	p	80
6039	65052	He is expected to participate in practice.	He is expected to participate in practice.	3095928	1471998332029	1471998332149	a	65
6039	65052	He is expected to participate in practice.	He is expected to participate in practice.	3095932	1471998332166	1471998332334	t	84
6039	65052	He is expected to participate in practice.	He is expected to participate in practice.	3095967	1471998332253	1471998332405	e	69
6039	65052	He is expected to participate in practice.	He is expected to participate in practice.	3095971	1471998332326	1471998332445	 	32
6039	65052	He is expected to participate in practice.	He is expected to participate in practice.	3095975	1471998332485	1471998332622	i	73
6039	65052	He is expected to participate in practice.	He is expected to participate in practice.	3095977	1471998332549	1471998332653	n	78
6039	65052	He is expected to participate in practice.	He is expected to participate in practice.	3095979	1471998332686	1471998332853	 	32
6039	65052	He is expected to participate in practice.	He is expected to participate in practice.	3095981	1471998332862	1471998333029	p	80
6039	65052	He is expected to participate in practice.	He is expected to participate in practice.	3096013	1471998332990	1471998333149	r	82
6039	65052	He is expected to participate in practice.	He is expected to participate in practice.	3096015	1471998333101	1471998333310	a	65
6039	65052	He is expected to participate in practice.	He is expected to participate in practice.	3096017	1471998333277	1471998333406	c	67
6039	65052	He is expected to participate in practice.	He is expected to participate in practice.	3096019	1471998333534	1471998333629	t	84
6039	65052	He is expected to participate in practice.	He is expected to participate in practice.	3096022	1471998333606	1471998333726	i	73
6039	65052	He is expected to participate in practice.	He is expected to participate in practice.	3096024	1471998333862	1471998334109	c	67
6039	65052	He is expected to participate in practice.	He is expected to participate in practice.	3096026	1471998334045	1471998334198	e	69
6039	65052	He is expected to participate in practice.	He is expected to participate in practice.	3096028	1471998334173	1471998334302	.	190
6039	65058	Washington was not moving toward a unilateral lifting of the embargo.	Washoing was not moving toward a unilaterla lifting of the embargo. 	3096172	1471998338110	1471998338269	CAPS_LOCK	20
6039	65058	Washington was not moving toward a unilateral lifting of the embargo.	Washoing was not moving toward a unilaterla lifting of the embargo. 	3096173	1471998338245	1471998338526	E	69
6039	65058	Washington was not moving toward a unilateral lifting of the embargo.	Washoing was not moving toward a unilaterla lifting of the embargo. 	3096175	1471998338366	1471998338533	CAPS_LOCK	20
6039	65058	Washington was not moving toward a unilateral lifting of the embargo.	Washoing was not moving toward a unilaterla lifting of the embargo. 	3096177	1471998338726	1471998338901	BKSP	8
6039	65058	Washington was not moving toward a unilateral lifting of the embargo.	Washoing was not moving toward a unilaterla lifting of the embargo. 	3096182	1471998339014	1471998339181	CAPS_LOCK	20
6039	65058	Washington was not moving toward a unilateral lifting of the embargo.	Washoing was not moving toward a unilaterla lifting of the embargo. 	3096185	1471998339141	1471998339413	W	87
6039	65058	Washington was not moving toward a unilateral lifting of the embargo.	Washoing was not moving toward a unilaterla lifting of the embargo. 	3096188	1471998339278	1471998339470	CAPS_LOCK	20
6039	65058	Washington was not moving toward a unilateral lifting of the embargo.	Washoing was not moving toward a unilaterla lifting of the embargo. 	3096190	1471998339502	1471998339797	a	65
6039	65058	Washington was not moving toward a unilateral lifting of the embargo.	Washoing was not moving toward a unilaterla lifting of the embargo. 	3096192	1471998339686	1471998339854	s	83
6039	65058	Washington was not moving toward a unilateral lifting of the embargo.	Washoing was not moving toward a unilaterla lifting of the embargo. 	3096194	1471998339861	1471998339992	h	72
6039	65058	Washington was not moving toward a unilateral lifting of the embargo.	Washoing was not moving toward a unilaterla lifting of the embargo. 	3096199	1471998339974	1471998340157	i	79
6039	65058	Washington was not moving toward a unilateral lifting of the embargo.	Washoing was not moving toward a unilaterla lifting of the embargo. 	3096201	1471998340070	1471998340229	n	78
6039	65058	Washington was not moving toward a unilateral lifting of the embargo.	Washoing was not moving toward a unilaterla lifting of the embargo. 	3096202	1471998340294	1471998340414	g	71
6039	65058	Washington was not moving toward a unilateral lifting of the embargo.	Washoing was not moving toward a unilaterla lifting of the embargo. 	3096203	1471998340453	1471998340589	 	32
6039	65058	Washington was not moving toward a unilateral lifting of the embargo.	Washoing was not moving toward a unilaterla lifting of the embargo. 	3096204	1471998340542	1471998340694	w	87
6039	65058	Washington was not moving toward a unilateral lifting of the embargo.	Washoing was not moving toward a unilaterla lifting of the embargo. 	3096212	1471998340645	1471998340829	a	65
6039	65058	Washington was not moving toward a unilateral lifting of the embargo.	Washoing was not moving toward a unilaterla lifting of the embargo. 	3096216	1471998340742	1471998340869	s	83
6039	65058	Washington was not moving toward a unilateral lifting of the embargo.	Washoing was not moving toward a unilaterla lifting of the embargo. 	3096219	1471998340806	1471998340893	 	32
6039	65058	Washington was not moving toward a unilateral lifting of the embargo.	Washoing was not moving toward a unilaterla lifting of the embargo. 	3096223	1471998340957	1471998341126	n	78
6039	65058	Washington was not moving toward a unilateral lifting of the embargo.	Washoing was not moving toward a unilaterla lifting of the embargo. 	3096228	1471998341053	1471998341174	o	79
6039	65058	Washington was not moving toward a unilateral lifting of the embargo.	Washoing was not moving toward a unilaterla lifting of the embargo. 	3096230	1471998341189	1471998341277	t	84
6039	65058	Washington was not moving toward a unilateral lifting of the embargo.	Washoing was not moving toward a unilaterla lifting of the embargo. 	3096242	1471998341229	1471998341334	 	32
6039	65058	Washington was not moving toward a unilateral lifting of the embargo.	Washoing was not moving toward a unilaterla lifting of the embargo. 	3096244	1471998341421	1471998341589	m	77
6039	65058	Washington was not moving toward a unilateral lifting of the embargo.	Washoing was not moving toward a unilaterla lifting of the embargo. 	3096245	1471998341517	1471998341646	o	79
6039	65058	Washington was not moving toward a unilateral lifting of the embargo.	Washoing was not moving toward a unilaterla lifting of the embargo. 	3096246	1471998341686	1471998341798	v	86
6039	65058	Washington was not moving toward a unilateral lifting of the embargo.	Washoing was not moving toward a unilaterla lifting of the embargo. 	3096247	1471998341813	1471998341933	i	73
6039	65058	Washington was not moving toward a unilateral lifting of the embargo.	Washoing was not moving toward a unilaterla lifting of the embargo. 	3096263	1471998341870	1471998341998	n	78
6039	65058	Washington was not moving toward a unilateral lifting of the embargo.	Washoing was not moving toward a unilaterla lifting of the embargo. 	3096264	1471998342014	1471998342125	g	71
6039	65058	Washington was not moving toward a unilateral lifting of the embargo.	Washoing was not moving toward a unilaterla lifting of the embargo. 	3096265	1471998342093	1471998342221	 	32
6039	65058	Washington was not moving toward a unilateral lifting of the embargo.	Washoing was not moving toward a unilaterla lifting of the embargo. 	3096266	1471998342317	1471998342438	t	84
6039	65058	Washington was not moving toward a unilateral lifting of the embargo.	Washoing was not moving toward a unilaterla lifting of the embargo. 	3096267	1471998342478	1471998342614	o	79
6039	65058	Washington was not moving toward a unilateral lifting of the embargo.	Washoing was not moving toward a unilaterla lifting of the embargo. 	3096268	1471998342638	1471998342837	w	87
6039	65058	Washington was not moving toward a unilateral lifting of the embargo.	Washoing was not moving toward a unilaterla lifting of the embargo. 	3096313	1471998342734	1471998342925	a	65
6039	65058	Washington was not moving toward a unilateral lifting of the embargo.	Washoing was not moving toward a unilaterla lifting of the embargo. 	3096316	1471998342909	1471998343013	r	82
6039	65058	Washington was not moving toward a unilateral lifting of the embargo.	Washoing was not moving toward a unilaterla lifting of the embargo. 	3096319	1471998343078	1471998343222	d	68
6039	65058	Washington was not moving toward a unilateral lifting of the embargo.	Washoing was not moving toward a unilaterla lifting of the embargo. 	3096322	1471998343205	1471998343326	 	32
6039	65058	Washington was not moving toward a unilateral lifting of the embargo.	Washoing was not moving toward a unilaterla lifting of the embargo. 	3096325	1471998343318	1471998343454	a	65
6039	65058	Washington was not moving toward a unilateral lifting of the embargo.	Washoing was not moving toward a unilaterla lifting of the embargo. 	3096328	1471998343806	1471998343966	 	32
6039	65058	Washington was not moving toward a unilateral lifting of the embargo.	Washoing was not moving toward a unilaterla lifting of the embargo. 	3096362	1471998344726	1471998344837	u	85
6039	65058	Washington was not moving toward a unilateral lifting of the embargo.	Washoing was not moving toward a unilaterla lifting of the embargo. 	3096365	1471998344797	1471998345021	n	78
6039	65058	Washington was not moving toward a unilateral lifting of the embargo.	Washoing was not moving toward a unilaterla lifting of the embargo. 	3096370	1471998344941	1471998345037	i	73
6039	65058	Washington was not moving toward a unilateral lifting of the embargo.	Washoing was not moving toward a unilaterla lifting of the embargo. 	3096374	1471998345134	1471998345254	l	76
6039	65058	Washington was not moving toward a unilateral lifting of the embargo.	Washoing was not moving toward a unilaterla lifting of the embargo. 	3096377	1471998345285	1471998345406	a	65
6039	65058	Washington was not moving toward a unilateral lifting of the embargo.	Washoing was not moving toward a unilaterla lifting of the embargo. 	3096394	1471998345398	1471998345581	t	84
6039	65058	Washington was not moving toward a unilateral lifting of the embargo.	Washoing was not moving toward a unilaterla lifting of the embargo. 	3096397	1471998345550	1471998345750	e	69
6039	65058	Washington was not moving toward a unilateral lifting of the embargo.	Washoing was not moving toward a unilaterla lifting of the embargo. 	3096400	1471998345677	1471998345838	r	82
6039	65058	Washington was not moving toward a unilateral lifting of the embargo.	Washoing was not moving toward a unilaterla lifting of the embargo. 	3096404	1471998345830	1471998345950	l	76
6039	65058	Washington was not moving toward a unilateral lifting of the embargo.	Washoing was not moving toward a unilaterla lifting of the embargo. 	3096408	1471998345941	1471998346069	a	65
6039	65058	Washington was not moving toward a unilateral lifting of the embargo.	Washoing was not moving toward a unilaterla lifting of the embargo. 	3096411	1471998346150	1471998346261	 	32
6039	65058	Washington was not moving toward a unilateral lifting of the embargo.	Washoing was not moving toward a unilaterla lifting of the embargo. 	3096435	1471998346350	1471998346429	l	76
6039	65058	Washington was not moving toward a unilateral lifting of the embargo.	Washoing was not moving toward a unilaterla lifting of the embargo. 	3096437	1471998346525	1471998346629	i	73
6039	65058	Washington was not moving toward a unilateral lifting of the embargo.	Washoing was not moving toward a unilaterla lifting of the embargo. 	3096440	1471998346702	1471998346814	f	70
6039	65058	Washington was not moving toward a unilateral lifting of the embargo.	Washoing was not moving toward a unilaterla lifting of the embargo. 	3096443	1471998346869	1471998347134	i	73
6039	65058	Washington was not moving toward a unilateral lifting of the embargo.	Washoing was not moving toward a unilaterla lifting of the embargo. 	3096496	1471998347021	1471998347142	t	84
6039	65058	Washington was not moving toward a unilateral lifting of the embargo.	Washoing was not moving toward a unilaterla lifting of the embargo. 	3096498	1471998347047	1471998347197	n	78
6039	65058	Washington was not moving toward a unilateral lifting of the embargo.	Washoing was not moving toward a unilaterla lifting of the embargo. 	3096501	1471998347853	1471998347925	BKSP	8
6039	65058	Washington was not moving toward a unilateral lifting of the embargo.	Washoing was not moving toward a unilaterla lifting of the embargo. 	3096504	1471998348014	1471998348061	BKSP	8
6039	65058	Washington was not moving toward a unilateral lifting of the embargo.	Washoing was not moving toward a unilaterla lifting of the embargo. 	3096506	1471998348173	1471998348261	BKSP	8
6039	65058	Washington was not moving toward a unilateral lifting of the embargo.	Washoing was not moving toward a unilaterla lifting of the embargo. 	3096507	1471998348309	1471998348445	t	84
6039	65058	Washington was not moving toward a unilateral lifting of the embargo.	Washoing was not moving toward a unilaterla lifting of the embargo. 	3096510	1471998348470	1471998348653	i	73
6039	65058	Washington was not moving toward a unilateral lifting of the embargo.	Washoing was not moving toward a unilaterla lifting of the embargo. 	3096513	1471998348573	1471998348686	n	78
6039	65058	Washington was not moving toward a unilateral lifting of the embargo.	Washoing was not moving toward a unilaterla lifting of the embargo. 	3096515	1471998348709	1471998348822	g	71
6039	65058	Washington was not moving toward a unilateral lifting of the embargo.	Washoing was not moving toward a unilaterla lifting of the embargo. 	3096535	1471998348742	1471998348862	 	32
6039	65058	Washington was not moving toward a unilateral lifting of the embargo.	Washoing was not moving toward a unilaterla lifting of the embargo. 	3096539	1471998348926	1471998349046	o	79
6039	65058	Washington was not moving toward a unilateral lifting of the embargo.	Washoing was not moving toward a unilaterla lifting of the embargo. 	3096543	1471998349126	1471998349222	f	70
6039	65058	Washington was not moving toward a unilateral lifting of the embargo.	Washoing was not moving toward a unilaterla lifting of the embargo. 	3096546	1471998349334	1471998349461	 	32
6039	65058	Washington was not moving toward a unilateral lifting of the embargo.	Washoing was not moving toward a unilaterla lifting of the embargo. 	3096549	1471998349445	1471998349565	t	84
6039	65058	Washington was not moving toward a unilateral lifting of the embargo.	Washoing was not moving toward a unilaterla lifting of the embargo. 	3096600	1471998349526	1471998349662	h	72
6039	65058	Washington was not moving toward a unilateral lifting of the embargo.	Washoing was not moving toward a unilaterla lifting of the embargo. 	3096602	1471998349645	1471998349782	e	69
6039	65058	Washington was not moving toward a unilateral lifting of the embargo.	Washoing was not moving toward a unilaterla lifting of the embargo. 	3096603	1471998349750	1471998349893	 	32
6039	65058	Washington was not moving toward a unilateral lifting of the embargo.	Washoing was not moving toward a unilaterla lifting of the embargo. 	3096604	1471998350326	1471998350493	e	69
6039	65058	Washington was not moving toward a unilateral lifting of the embargo.	Washoing was not moving toward a unilaterla lifting of the embargo. 	3096605	1471998350461	1471998350589	m	77
6039	65058	Washington was not moving toward a unilateral lifting of the embargo.	Washoing was not moving toward a unilaterla lifting of the embargo. 	3096606	1471998350797	1471998350925	b	66
6039	65058	Washington was not moving toward a unilateral lifting of the embargo.	Washoing was not moving toward a unilaterla lifting of the embargo. 	3096623	1471998350941	1471998351109	a	65
6039	65058	Washington was not moving toward a unilateral lifting of the embargo.	Washoing was not moving toward a unilaterla lifting of the embargo. 	3096624	1471998351054	1471998351182	r	82
6039	65058	Washington was not moving toward a unilateral lifting of the embargo.	Washoing was not moving toward a unilaterla lifting of the embargo. 	3096625	1471998351326	1471998351453	g	71
6039	65058	Washington was not moving toward a unilateral lifting of the embargo.	Washoing was not moving toward a unilaterla lifting of the embargo. 	3096626	1471998351421	1471998351517	o	79
6039	65058	Washington was not moving toward a unilateral lifting of the embargo.	Washoing was not moving toward a unilaterla lifting of the embargo. 	3096627	1471998351615	1471998351749	.	190
6039	65058	Washington was not moving toward a unilateral lifting of the embargo.	Washoing was not moving toward a unilaterla lifting of the embargo. 	3096629	1471998351718	1471998351845	 	32
6039	65070	Did we plan that?	.Did we plan that	3096694	1471998353726	1471998353909	CAPS_LOCK	20
6039	65070	Did we plan that?	.Did we plan that	3096696	1471998353901	1471998354070	D	68
6039	65070	Did we plan that?	.Did we plan that	3096699	1471998354014	1471998354157	CAPS_LOCK	20
6039	65070	Did we plan that?	.Did we plan that	3096701	1471998354085	1471998354205	i	73
6039	65070	Did we plan that?	.Did we plan that	3096702	1471998354214	1471998354333	d	68
6039	65070	Did we plan that?	.Did we plan that	3096704	1471998354349	1471998354485	 	32
6039	65070	Did we plan that?	.Did we plan that	3096708	1471998354509	1471998354710	w	87
6039	65070	Did we plan that?	.Did we plan that	3096719	1471998354621	1471998354777	e	69
6039	65070	Did we plan that?	.Did we plan that	3096721	1471998354782	1471998354918	 	32
6039	65070	Did we plan that?	.Did we plan that	3096724	1471998355013	1471998355174	p	80
6039	65070	Did we plan that?	.Did we plan that	3096726	1471998355101	1471998355246	l	76
6039	65070	Did we plan that?	.Did we plan that	3096728	1471998355166	1471998355310	a	65
6039	65070	Did we plan that?	.Did we plan that	3096730	1471998355366	1471998355517	n	78
6039	65070	Did we plan that?	.Did we plan that	3096747	1471998355861	1471998356013	 	32
6039	65070	Did we plan that?	.Did we plan that	3096749	1471998356021	1471998356142	t	84
6039	65070	Did we plan that?	.Did we plan that	3096751	1471998356126	1471998356253	h	72
6039	65070	Did we plan that?	.Did we plan that	3096753	1471998356149	1471998356325	a	65
6039	65070	Did we plan that?	.Did we plan that	3096772	1471998356270	1471998356413	t	84
6039	65070	Did we plan that?	.Did we plan that	3096774	1471998356558	1471998357005	ARW_UP	38
6039	65070	Did we plan that?	.Did we plan that	3096780	1471998356893	1471998357061	.	190
6039	65076	If the Penskes have any luck at all, they could be unstoppable.	If the Penskes have any luck at all, they could be unstopppable. 	3096876	1471998359134	1471998359294	CAPS_LOCK	20
6039	65076	If the Penskes have any luck at all, they could be unstoppable.	If the Penskes have any luck at all, they could be unstopppable. 	3096878	1471998359390	1471998359550	I	73
6039	65076	If the Penskes have any luck at all, they could be unstoppable.	If the Penskes have any luck at all, they could be unstopppable. 	3096881	1471998359494	1471998359750	CAPS_LOCK	20
6039	65076	If the Penskes have any luck at all, they could be unstoppable.	If the Penskes have any luck at all, they could be unstopppable. 	3096886	1471998359646	1471998359789	f	70
6039	65076	If the Penskes have any luck at all, they could be unstoppable.	If the Penskes have any luck at all, they could be unstopppable. 	3096890	1471998359742	1471998359861	 	32
6039	65076	If the Penskes have any luck at all, they could be unstoppable.	If the Penskes have any luck at all, they could be unstopppable. 	3096954	1471998359925	1471998360070	h	84
6039	65076	If the Penskes have any luck at all, they could be unstoppable.	If the Penskes have any luck at all, they could be unstopppable. 	3096956	1471998360094	1471998360229	e	69
6039	65076	If the Penskes have any luck at all, they could be unstoppable.	If the Penskes have any luck at all, they could be unstopppable. 	3096958	1471998360174	1471998360301	 	32
6039	65076	If the Penskes have any luck at all, they could be unstoppable.	If the Penskes have any luck at all, they could be unstopppable. 	3096960	1471998360469	1471998360606	CAPS_LOCK	20
6039	65076	If the Penskes have any luck at all, they could be unstoppable.	If the Penskes have any luck at all, they could be unstopppable. 	3096962	1471998360718	1471998360853	CAPS_LOCK	20
6039	65076	If the Penskes have any luck at all, they could be unstoppable.	If the Penskes have any luck at all, they could be unstopppable. 	3096964	1471998361357	1471998361485	CAPS_LOCK	20
6039	65076	If the Penskes have any luck at all, they could be unstoppable.	If the Penskes have any luck at all, they could be unstopppable. 	3096966	1471998361542	1471998361661	P	80
6039	65076	If the Penskes have any luck at all, they could be unstoppable.	If the Penskes have any luck at all, they could be unstopppable. 	3096968	1471998361614	1471998361805	CAPS_LOCK	20
6039	65076	If the Penskes have any luck at all, they could be unstoppable.	If the Penskes have any luck at all, they could be unstopppable. 	3096970	1471998361709	1471998361869	e	69
6039	65076	If the Penskes have any luck at all, they could be unstoppable.	If the Penskes have any luck at all, they could be unstopppable. 	3096973	1471998361918	1471998362070	n	78
6039	65076	If the Penskes have any luck at all, they could be unstoppable.	If the Penskes have any luck at all, they could be unstopppable. 	3097011	1471998362141	1471998362302	s	83
6039	65076	If the Penskes have any luck at all, they could be unstoppable.	If the Penskes have any luck at all, they could be unstopppable. 	3097012	1471998362405	1471998362549	k	75
6039	65076	If the Penskes have any luck at all, they could be unstoppable.	If the Penskes have any luck at all, they could be unstopppable. 	3097014	1471998362614	1471998362757	e	69
6039	65076	If the Penskes have any luck at all, they could be unstoppable.	If the Penskes have any luck at all, they could be unstopppable. 	3097016	1471998363014	1471998363141	s	83
6039	65076	If the Penskes have any luck at all, they could be unstoppable.	If the Penskes have any luck at all, they could be unstopppable. 	3097018	1471998363293	1471998363421	 	32
6039	65076	If the Penskes have any luck at all, they could be unstoppable.	If the Penskes have any luck at all, they could be unstopppable. 	3097048	1471998363549	1471998363685	h	72
6039	65076	If the Penskes have any luck at all, they could be unstoppable.	If the Penskes have any luck at all, they could be unstopppable. 	3097050	1471998363645	1471998363805	a	65
6039	65076	If the Penskes have any luck at all, they could be unstoppable.	If the Penskes have any luck at all, they could be unstopppable. 	3097051	1471998364070	1471998364285	v	86
6039	65076	If the Penskes have any luck at all, they could be unstoppable.	If the Penskes have any luck at all, they could be unstopppable. 	3097052	1471998364230	1471998364397	e	69
6039	65076	If the Penskes have any luck at all, they could be unstoppable.	If the Penskes have any luck at all, they could be unstopppable. 	3097089	1471998364358	1471998364470	 	32
6039	65076	If the Penskes have any luck at all, they could be unstoppable.	If the Penskes have any luck at all, they could be unstopppable. 	3097091	1471998364462	1471998364590	a	65
6039	65076	If the Penskes have any luck at all, they could be unstoppable.	If the Penskes have any luck at all, they could be unstopppable. 	3097093	1471998364582	1471998364701	n	78
6039	65076	If the Penskes have any luck at all, they could be unstoppable.	If the Penskes have any luck at all, they could be unstopppable. 	3097095	1471998364805	1471998364917	y	89
6039	65076	If the Penskes have any luck at all, they could be unstoppable.	If the Penskes have any luck at all, they could be unstopppable. 	3097098	1471998364990	1471998365118	 	32
6039	65076	If the Penskes have any luck at all, they could be unstoppable.	If the Penskes have any luck at all, they could be unstopppable. 	3097101	1471998365550	1471998365670	l	76
6039	65076	If the Penskes have any luck at all, they could be unstoppable.	If the Penskes have any luck at all, they could be unstopppable. 	3097123	1471998365782	1471998365894	u	85
6039	65076	If the Penskes have any luck at all, they could be unstoppable.	If the Penskes have any luck at all, they could be unstopppable. 	3097125	1471998365942	1471998366102	c	67
6039	65076	If the Penskes have any luck at all, they could be unstoppable.	If the Penskes have any luck at all, they could be unstopppable. 	3097127	1471998366198	1471998366318	k	75
6039	65076	If the Penskes have any luck at all, they could be unstoppable.	If the Penskes have any luck at all, they could be unstopppable. 	3097129	1471998366398	1471998366534	 	32
6039	65076	If the Penskes have any luck at all, they could be unstoppable.	If the Penskes have any luck at all, they could be unstopppable. 	3097147	1471998366526	1471998366774	a	65
6039	65076	If the Penskes have any luck at all, they could be unstoppable.	If the Penskes have any luck at all, they could be unstopppable. 	3097149	1471998366726	1471998366838	t	84
6039	65076	If the Penskes have any luck at all, they could be unstoppable.	If the Penskes have any luck at all, they could be unstopppable. 	3097151	1471998366862	1471998366975	 	32
6039	65076	If the Penskes have any luck at all, they could be unstoppable.	If the Penskes have any luck at all, they could be unstopppable. 	3097153	1471998366957	1471998367101	a	65
6039	65076	If the Penskes have any luck at all, they could be unstoppable.	If the Penskes have any luck at all, they could be unstopppable. 	3097155	1471998367118	1471998367222	l	76
6039	65076	If the Penskes have any luck at all, they could be unstoppable.	If the Penskes have any luck at all, they could be unstopppable. 	3097157	1471998367262	1471998367407	l	76
6039	65076	If the Penskes have any luck at all, they could be unstoppable.	If the Penskes have any luck at all, they could be unstopppable. 	3097159	1471998367518	1471998367646	,	188
6039	65076	If the Penskes have any luck at all, they could be unstoppable.	If the Penskes have any luck at all, they could be unstopppable. 	3097160	1471998367718	1471998367854	 	32
6039	65076	If the Penskes have any luck at all, they could be unstoppable.	If the Penskes have any luck at all, they could be unstopppable. 	3097161	1471998367870	1471998368006	t	84
6039	65076	If the Penskes have any luck at all, they could be unstoppable.	If the Penskes have any luck at all, they could be unstopppable. 	3097163	1471998367998	1471998368102	h	72
6039	65076	If the Penskes have any luck at all, they could be unstoppable.	If the Penskes have any luck at all, they could be unstopppable. 	3097183	1471998368086	1471998368197	e	69
6039	65076	If the Penskes have any luck at all, they could be unstoppable.	If the Penskes have any luck at all, they could be unstopppable. 	3097185	1471998368262	1471998368389	y	89
6039	65076	If the Penskes have any luck at all, they could be unstoppable.	If the Penskes have any luck at all, they could be unstopppable. 	3097189	1471998368462	1471998368597	 	32
6039	65076	If the Penskes have any luck at all, they could be unstoppable.	If the Penskes have any luck at all, they could be unstopppable. 	3097191	1471998368614	1471998368758	c	67
6039	65076	If the Penskes have any luck at all, they could be unstoppable.	If the Penskes have any luck at all, they could be unstopppable. 	3097194	1471998368717	1471998368861	o	79
6039	65076	If the Penskes have any luck at all, they could be unstoppable.	If the Penskes have any luck at all, they could be unstopppable. 	3097202	1471998368814	1471998368957	u	85
6039	65076	If the Penskes have any luck at all, they could be unstoppable.	If the Penskes have any luck at all, they could be unstopppable. 	3097203	1471998368941	1471998369046	l	76
6039	65076	If the Penskes have any luck at all, they could be unstoppable.	If the Penskes have any luck at all, they could be unstopppable. 	3097204	1471998369054	1471998369174	d	68
6039	65076	If the Penskes have any luck at all, they could be unstoppable.	If the Penskes have any luck at all, they could be unstopppable. 	3097205	1471998369166	1471998369278	 	32
6039	65076	If the Penskes have any luck at all, they could be unstoppable.	If the Penskes have any luck at all, they could be unstopppable. 	3097208	1471998369379	1471998369497	b	66
6039	65076	If the Penskes have any luck at all, they could be unstoppable.	If the Penskes have any luck at all, they could be unstopppable. 	3097268	1471998369486	1471998369646	e	69
6039	65076	If the Penskes have any luck at all, they could be unstoppable.	If the Penskes have any luck at all, they could be unstopppable. 	3097272	1471998369638	1471998369758	 	32
6039	65076	If the Penskes have any luck at all, they could be unstoppable.	If the Penskes have any luck at all, they could be unstopppable. 	3097275	1471998369958	1471998370101	u	85
6039	65076	If the Penskes have any luck at all, they could be unstoppable.	If the Penskes have any luck at all, they could be unstopppable. 	3097277	1471998370142	1471998370261	n	78
6039	65076	If the Penskes have any luck at all, they could be unstoppable.	If the Penskes have any luck at all, they could be unstopppable. 	3097278	1471998370326	1471998370470	s	83
6039	65076	If the Penskes have any luck at all, they could be unstoppable.	If the Penskes have any luck at all, they could be unstopppable. 	3097279	1471998370805	1471998370966	t	84
6039	65076	If the Penskes have any luck at all, they could be unstoppable.	If the Penskes have any luck at all, they could be unstopppable. 	3097323	1471998370989	1471998371101	o	79
6039	65076	If the Penskes have any luck at all, they could be unstoppable.	If the Penskes have any luck at all, they could be unstopppable. 	3097325	1471998371710	1471998371806	p	80
6039	65076	If the Penskes have any luck at all, they could be unstoppable.	If the Penskes have any luck at all, they could be unstopppable. 	3097328	1471998371870	1471998371973	p	80
6039	65076	If the Penskes have any luck at all, they could be unstoppable.	If the Penskes have any luck at all, they could be unstopppable. 	3097332	1471998372054	1471998372134	p	80
6039	65076	If the Penskes have any luck at all, they could be unstoppable.	If the Penskes have any luck at all, they could be unstopppable. 	3097335	1471998372293	1471998372438	a	65
6039	65076	If the Penskes have any luck at all, they could be unstoppable.	If the Penskes have any luck at all, they could be unstopppable. 	3097359	1471998372541	1471998372646	b	66
6039	65076	If the Penskes have any luck at all, they could be unstoppable.	If the Penskes have any luck at all, they could be unstopppable. 	3097361	1471998372758	1471998372870	l	76
6039	65076	If the Penskes have any luck at all, they could be unstoppable.	If the Penskes have any luck at all, they could be unstopppable. 	3097364	1471998372917	1471998373022	e	69
6039	65076	If the Penskes have any luck at all, they could be unstoppable.	If the Penskes have any luck at all, they could be unstopppable. 	3097368	1471998373118	1471998373277	.	190
6039	65088	I changed that in one prior draft.	I changed that in one prior draft. 	3097467	1471998373390	1471998376237	 	32
6039	65088	I changed that in one prior draft.	I changed that in one prior draft. 	3097462	1471998375774	1471998375937	CAPS_LOCK	20
6039	65088	I changed that in one prior draft.	I changed that in one prior draft. 	3097463	1471998375918	1471998376029	I	73
6039	65088	I changed that in one prior draft.	I changed that in one prior draft. 	3097465	1471998376038	1471998376181	CAPS_LOCK	20
6039	65088	I changed that in one prior draft.	I changed that in one prior draft. 	3097481	1471998376254	1471998376438	c	67
6039	65088	I changed that in one prior draft.	I changed that in one prior draft. 	3097475	1471998376309	1471998376422	h	72
6039	65088	I changed that in one prior draft.	I changed that in one prior draft. 	3097488	1471998376430	1471998376589	a	65
6039	65088	I changed that in one prior draft.	I changed that in one prior draft. 	3097513	1471998376549	1471998376686	n	78
6039	65088	I changed that in one prior draft.	I changed that in one prior draft. 	3097516	1471998376670	1471998376879	g	71
6039	65088	I changed that in one prior draft.	I changed that in one prior draft. 	3097518	1471998376766	1471998376909	e	69
6039	65088	I changed that in one prior draft.	I changed that in one prior draft. 	3097521	1471998377005	1471998377094	d	68
6039	65088	I changed that in one prior draft.	I changed that in one prior draft. 	3097525	1471998377134	1471998377277	 	32
6039	65088	I changed that in one prior draft.	I changed that in one prior draft. 	3097529	1471998377382	1471998377510	t	84
6039	65088	I changed that in one prior draft.	I changed that in one prior draft. 	3097540	1471998377494	1471998377614	h	72
6039	65088	I changed that in one prior draft.	I changed that in one prior draft. 	3097543	1471998377534	1471998377725	a	65
6039	65088	I changed that in one prior draft.	I changed that in one prior draft. 	3097549	1471998377654	1471998377789	t	84
6039	65088	I changed that in one prior draft.	I changed that in one prior draft. 	3097554	1471998377709	1471998377829	 	32
6039	65088	I changed that in one prior draft.	I changed that in one prior draft. 	3097561	1471998377902	1471998378053	i	73
6039	65088	I changed that in one prior draft.	I changed that in one prior draft. 	3097598	1471998377974	1471998378079	n	78
6039	65088	I changed that in one prior draft.	I changed that in one prior draft. 	3097600	1471998378133	1471998378253	 	32
6039	65088	I changed that in one prior draft.	I changed that in one prior draft. 	3097602	1471998378325	1471998378469	o	79
6039	65088	I changed that in one prior draft.	I changed that in one prior draft. 	3097605	1471998379038	1471998379173	n	78
6039	65088	I changed that in one prior draft.	I changed that in one prior draft. 	3097608	1471998379189	1471998379310	e	69
6039	65088	I changed that in one prior draft.	I changed that in one prior draft. 	3097636	1471998379286	1471998379413	 	32
6039	65088	I changed that in one prior draft.	I changed that in one prior draft. 	3097638	1471998379462	1471998379589	p	80
6039	65088	I changed that in one prior draft.	I changed that in one prior draft. 	3097640	1471998379637	1471998379757	r	82
6039	65088	I changed that in one prior draft.	I changed that in one prior draft. 	3097642	1471998379782	1471998379981	i	73
6039	65088	I changed that in one prior draft.	I changed that in one prior draft. 	3097644	1471998379885	1471998380061	o	79
6039	65088	I changed that in one prior draft.	I changed that in one prior draft. 	3097647	1471998380206	1471998380325	r	82
6039	65088	I changed that in one prior draft.	I changed that in one prior draft. 	3097676	1471998380373	1471998380501	 	32
6039	65088	I changed that in one prior draft.	I changed that in one prior draft. 	3097678	1471998380814	1471998380933	d	68
6039	65088	I changed that in one prior draft.	I changed that in one prior draft. 	3097680	1471998381110	1471998381286	r	82
6039	65088	I changed that in one prior draft.	I changed that in one prior draft. 	3097681	1471998381238	1471998381413	a	65
6039	65088	I changed that in one prior draft.	I changed that in one prior draft. 	3097689	1471998381389	1471998381517	f	70
6039	65088	I changed that in one prior draft.	I changed that in one prior draft. 	3097690	1471998381614	1471998381702	t	84
6039	65088	I changed that in one prior draft.	I changed that in one prior draft. 	3097691	1471998381686	1471998381821	.	190
6039	65088	I changed that in one prior draft.	I changed that in one prior draft. 	3097692	1471998381854	1471998381957	 	32
